ARM GAS  C:\Users\haske\AppData\Local\Temp\cc1ymag8.s 			page 1


   1              		.syntax unified
   2              		.cpu cortex-m0plus
   3              		.fpu softvfp
   4              		.eabi_attribute 20, 1
   5              		.eabi_attribute 21, 1
   6              		.eabi_attribute 23, 3
   7              		.eabi_attribute 24, 1
   8              		.eabi_attribute 25, 1
   9              		.eabi_attribute 26, 1
  10              		.eabi_attribute 30, 1
  11              		.eabi_attribute 34, 0
  12              		.eabi_attribute 18, 4
  13              		.thumb
  14              		.syntax unified
  15              		.file	"lv_slider.c"
  16              		.text
  17              	.Ltext0:
  18              		.cfi_sections	.debug_frame
  19              		.section	.text.is_slider_horizontal,"ax",%progbits
  20              		.align	2
  21              		.code	16
  22              		.thumb_func
  23              		.type	is_slider_horizontal, %function
  24              	is_slider_horizontal:
  25              	.LFB180:
  26              		.file 1 "..\\..\\..\\arduinoLCD\\test\\Pain Drain\\libraries\\lvgl\\src\\widgets\\lv_slider.c"
   1:..\..\..\arduinoLCD\test\Pain Drain\libraries\lvgl\src\widgets/lv_slider.c **** /**
   2:..\..\..\arduinoLCD\test\Pain Drain\libraries\lvgl\src\widgets/lv_slider.c ****  * @file lv_slider.c
   3:..\..\..\arduinoLCD\test\Pain Drain\libraries\lvgl\src\widgets/lv_slider.c ****  *
   4:..\..\..\arduinoLCD\test\Pain Drain\libraries\lvgl\src\widgets/lv_slider.c ****  */
   5:..\..\..\arduinoLCD\test\Pain Drain\libraries\lvgl\src\widgets/lv_slider.c **** 
   6:..\..\..\arduinoLCD\test\Pain Drain\libraries\lvgl\src\widgets/lv_slider.c **** /*********************
   7:..\..\..\arduinoLCD\test\Pain Drain\libraries\lvgl\src\widgets/lv_slider.c ****  *      INCLUDES
   8:..\..\..\arduinoLCD\test\Pain Drain\libraries\lvgl\src\widgets/lv_slider.c ****  *********************/
   9:..\..\..\arduinoLCD\test\Pain Drain\libraries\lvgl\src\widgets/lv_slider.c **** #include "lv_slider.h"
  10:..\..\..\arduinoLCD\test\Pain Drain\libraries\lvgl\src\widgets/lv_slider.c **** #if LV_USE_SLIDER != 0
  11:..\..\..\arduinoLCD\test\Pain Drain\libraries\lvgl\src\widgets/lv_slider.c **** 
  12:..\..\..\arduinoLCD\test\Pain Drain\libraries\lvgl\src\widgets/lv_slider.c **** #include "../misc/lv_assert.h"
  13:..\..\..\arduinoLCD\test\Pain Drain\libraries\lvgl\src\widgets/lv_slider.c **** #include "../core/lv_group.h"
  14:..\..\..\arduinoLCD\test\Pain Drain\libraries\lvgl\src\widgets/lv_slider.c **** #include "../core/lv_indev.h"
  15:..\..\..\arduinoLCD\test\Pain Drain\libraries\lvgl\src\widgets/lv_slider.c **** #include "../draw/lv_draw.h"
  16:..\..\..\arduinoLCD\test\Pain Drain\libraries\lvgl\src\widgets/lv_slider.c **** #include "../misc/lv_math.h"
  17:..\..\..\arduinoLCD\test\Pain Drain\libraries\lvgl\src\widgets/lv_slider.c **** #include "../core/lv_disp.h"
  18:..\..\..\arduinoLCD\test\Pain Drain\libraries\lvgl\src\widgets/lv_slider.c **** #include "lv_img.h"
  19:..\..\..\arduinoLCD\test\Pain Drain\libraries\lvgl\src\widgets/lv_slider.c **** 
  20:..\..\..\arduinoLCD\test\Pain Drain\libraries\lvgl\src\widgets/lv_slider.c **** /*********************
  21:..\..\..\arduinoLCD\test\Pain Drain\libraries\lvgl\src\widgets/lv_slider.c ****  *      DEFINES
  22:..\..\..\arduinoLCD\test\Pain Drain\libraries\lvgl\src\widgets/lv_slider.c ****  *********************/
  23:..\..\..\arduinoLCD\test\Pain Drain\libraries\lvgl\src\widgets/lv_slider.c **** #define MY_CLASS &lv_slider_class
  24:..\..\..\arduinoLCD\test\Pain Drain\libraries\lvgl\src\widgets/lv_slider.c **** 
  25:..\..\..\arduinoLCD\test\Pain Drain\libraries\lvgl\src\widgets/lv_slider.c **** #define LV_SLIDER_KNOB_COORD(is_rtl, area) (is_rtl ? area.x1 : area.x2)
  26:..\..\..\arduinoLCD\test\Pain Drain\libraries\lvgl\src\widgets/lv_slider.c **** 
  27:..\..\..\arduinoLCD\test\Pain Drain\libraries\lvgl\src\widgets/lv_slider.c **** /**********************
  28:..\..\..\arduinoLCD\test\Pain Drain\libraries\lvgl\src\widgets/lv_slider.c ****  *      TYPEDEFS
  29:..\..\..\arduinoLCD\test\Pain Drain\libraries\lvgl\src\widgets/lv_slider.c ****  **********************/
  30:..\..\..\arduinoLCD\test\Pain Drain\libraries\lvgl\src\widgets/lv_slider.c **** 
  31:..\..\..\arduinoLCD\test\Pain Drain\libraries\lvgl\src\widgets/lv_slider.c **** /**********************
ARM GAS  C:\Users\haske\AppData\Local\Temp\cc1ymag8.s 			page 2


  32:..\..\..\arduinoLCD\test\Pain Drain\libraries\lvgl\src\widgets/lv_slider.c ****  *  STATIC PROTOTYPES
  33:..\..\..\arduinoLCD\test\Pain Drain\libraries\lvgl\src\widgets/lv_slider.c ****  **********************/
  34:..\..\..\arduinoLCD\test\Pain Drain\libraries\lvgl\src\widgets/lv_slider.c **** static void lv_slider_constructor(const lv_obj_class_t * class_p, lv_obj_t * obj);
  35:..\..\..\arduinoLCD\test\Pain Drain\libraries\lvgl\src\widgets/lv_slider.c **** static void lv_slider_event(const lv_obj_class_t * class_p, lv_event_t * e);
  36:..\..\..\arduinoLCD\test\Pain Drain\libraries\lvgl\src\widgets/lv_slider.c **** static void position_knob(lv_obj_t * obj, lv_area_t * knob_area, const lv_coord_t knob_size, const 
  37:..\..\..\arduinoLCD\test\Pain Drain\libraries\lvgl\src\widgets/lv_slider.c **** static void draw_knob(lv_event_t * e);
  38:..\..\..\arduinoLCD\test\Pain Drain\libraries\lvgl\src\widgets/lv_slider.c **** static bool is_slider_horizontal(lv_obj_t * obj);
  39:..\..\..\arduinoLCD\test\Pain Drain\libraries\lvgl\src\widgets/lv_slider.c **** 
  40:..\..\..\arduinoLCD\test\Pain Drain\libraries\lvgl\src\widgets/lv_slider.c **** /**********************
  41:..\..\..\arduinoLCD\test\Pain Drain\libraries\lvgl\src\widgets/lv_slider.c ****  *  STATIC VARIABLES
  42:..\..\..\arduinoLCD\test\Pain Drain\libraries\lvgl\src\widgets/lv_slider.c ****  **********************/
  43:..\..\..\arduinoLCD\test\Pain Drain\libraries\lvgl\src\widgets/lv_slider.c **** const lv_obj_class_t lv_slider_class = {
  44:..\..\..\arduinoLCD\test\Pain Drain\libraries\lvgl\src\widgets/lv_slider.c ****     .constructor_cb = lv_slider_constructor,
  45:..\..\..\arduinoLCD\test\Pain Drain\libraries\lvgl\src\widgets/lv_slider.c ****     .event_cb = lv_slider_event,
  46:..\..\..\arduinoLCD\test\Pain Drain\libraries\lvgl\src\widgets/lv_slider.c ****     .editable = LV_OBJ_CLASS_EDITABLE_TRUE,
  47:..\..\..\arduinoLCD\test\Pain Drain\libraries\lvgl\src\widgets/lv_slider.c ****     .group_def = LV_OBJ_CLASS_GROUP_DEF_TRUE,
  48:..\..\..\arduinoLCD\test\Pain Drain\libraries\lvgl\src\widgets/lv_slider.c ****     .instance_size = sizeof(lv_slider_t),
  49:..\..\..\arduinoLCD\test\Pain Drain\libraries\lvgl\src\widgets/lv_slider.c ****     .base_class = &lv_bar_class
  50:..\..\..\arduinoLCD\test\Pain Drain\libraries\lvgl\src\widgets/lv_slider.c **** };
  51:..\..\..\arduinoLCD\test\Pain Drain\libraries\lvgl\src\widgets/lv_slider.c **** 
  52:..\..\..\arduinoLCD\test\Pain Drain\libraries\lvgl\src\widgets/lv_slider.c **** /**********************
  53:..\..\..\arduinoLCD\test\Pain Drain\libraries\lvgl\src\widgets/lv_slider.c ****  *      MACROS
  54:..\..\..\arduinoLCD\test\Pain Drain\libraries\lvgl\src\widgets/lv_slider.c ****  **********************/
  55:..\..\..\arduinoLCD\test\Pain Drain\libraries\lvgl\src\widgets/lv_slider.c **** 
  56:..\..\..\arduinoLCD\test\Pain Drain\libraries\lvgl\src\widgets/lv_slider.c **** /**********************
  57:..\..\..\arduinoLCD\test\Pain Drain\libraries\lvgl\src\widgets/lv_slider.c ****  *   GLOBAL FUNCTIONS
  58:..\..\..\arduinoLCD\test\Pain Drain\libraries\lvgl\src\widgets/lv_slider.c ****  **********************/
  59:..\..\..\arduinoLCD\test\Pain Drain\libraries\lvgl\src\widgets/lv_slider.c **** 
  60:..\..\..\arduinoLCD\test\Pain Drain\libraries\lvgl\src\widgets/lv_slider.c **** lv_obj_t * lv_slider_create(lv_obj_t * parent)
  61:..\..\..\arduinoLCD\test\Pain Drain\libraries\lvgl\src\widgets/lv_slider.c **** {
  62:..\..\..\arduinoLCD\test\Pain Drain\libraries\lvgl\src\widgets/lv_slider.c ****     LV_LOG_INFO("begin");
  63:..\..\..\arduinoLCD\test\Pain Drain\libraries\lvgl\src\widgets/lv_slider.c ****     lv_obj_t * obj = lv_obj_class_create_obj(MY_CLASS, parent);
  64:..\..\..\arduinoLCD\test\Pain Drain\libraries\lvgl\src\widgets/lv_slider.c ****     lv_obj_class_init_obj(obj);
  65:..\..\..\arduinoLCD\test\Pain Drain\libraries\lvgl\src\widgets/lv_slider.c ****     return obj;
  66:..\..\..\arduinoLCD\test\Pain Drain\libraries\lvgl\src\widgets/lv_slider.c **** }
  67:..\..\..\arduinoLCD\test\Pain Drain\libraries\lvgl\src\widgets/lv_slider.c **** 
  68:..\..\..\arduinoLCD\test\Pain Drain\libraries\lvgl\src\widgets/lv_slider.c **** bool lv_slider_is_dragged(const lv_obj_t * obj)
  69:..\..\..\arduinoLCD\test\Pain Drain\libraries\lvgl\src\widgets/lv_slider.c **** {
  70:..\..\..\arduinoLCD\test\Pain Drain\libraries\lvgl\src\widgets/lv_slider.c ****     LV_ASSERT_OBJ(obj, MY_CLASS);
  71:..\..\..\arduinoLCD\test\Pain Drain\libraries\lvgl\src\widgets/lv_slider.c ****     lv_slider_t * slider = (lv_slider_t *)obj;
  72:..\..\..\arduinoLCD\test\Pain Drain\libraries\lvgl\src\widgets/lv_slider.c **** 
  73:..\..\..\arduinoLCD\test\Pain Drain\libraries\lvgl\src\widgets/lv_slider.c ****     return slider->dragging ? true : false;
  74:..\..\..\arduinoLCD\test\Pain Drain\libraries\lvgl\src\widgets/lv_slider.c **** }
  75:..\..\..\arduinoLCD\test\Pain Drain\libraries\lvgl\src\widgets/lv_slider.c **** 
  76:..\..\..\arduinoLCD\test\Pain Drain\libraries\lvgl\src\widgets/lv_slider.c **** /**********************
  77:..\..\..\arduinoLCD\test\Pain Drain\libraries\lvgl\src\widgets/lv_slider.c ****  *   STATIC FUNCTIONS
  78:..\..\..\arduinoLCD\test\Pain Drain\libraries\lvgl\src\widgets/lv_slider.c ****  **********************/
  79:..\..\..\arduinoLCD\test\Pain Drain\libraries\lvgl\src\widgets/lv_slider.c **** 
  80:..\..\..\arduinoLCD\test\Pain Drain\libraries\lvgl\src\widgets/lv_slider.c **** static void lv_slider_constructor(const lv_obj_class_t * class_p, lv_obj_t * obj)
  81:..\..\..\arduinoLCD\test\Pain Drain\libraries\lvgl\src\widgets/lv_slider.c **** {
  82:..\..\..\arduinoLCD\test\Pain Drain\libraries\lvgl\src\widgets/lv_slider.c ****     LV_UNUSED(class_p);
  83:..\..\..\arduinoLCD\test\Pain Drain\libraries\lvgl\src\widgets/lv_slider.c ****     lv_slider_t * slider = (lv_slider_t *)obj;
  84:..\..\..\arduinoLCD\test\Pain Drain\libraries\lvgl\src\widgets/lv_slider.c **** 
  85:..\..\..\arduinoLCD\test\Pain Drain\libraries\lvgl\src\widgets/lv_slider.c ****     /*Initialize the allocated 'slider'*/
  86:..\..\..\arduinoLCD\test\Pain Drain\libraries\lvgl\src\widgets/lv_slider.c ****     slider->value_to_set = NULL;
  87:..\..\..\arduinoLCD\test\Pain Drain\libraries\lvgl\src\widgets/lv_slider.c ****     slider->dragging = 0U;
  88:..\..\..\arduinoLCD\test\Pain Drain\libraries\lvgl\src\widgets/lv_slider.c ****     slider->left_knob_focus = 0U;
ARM GAS  C:\Users\haske\AppData\Local\Temp\cc1ymag8.s 			page 3


  89:..\..\..\arduinoLCD\test\Pain Drain\libraries\lvgl\src\widgets/lv_slider.c **** 
  90:..\..\..\arduinoLCD\test\Pain Drain\libraries\lvgl\src\widgets/lv_slider.c ****     lv_obj_clear_flag(obj, LV_OBJ_FLAG_SCROLL_CHAIN);
  91:..\..\..\arduinoLCD\test\Pain Drain\libraries\lvgl\src\widgets/lv_slider.c ****     lv_obj_clear_flag(obj, LV_OBJ_FLAG_SCROLLABLE);
  92:..\..\..\arduinoLCD\test\Pain Drain\libraries\lvgl\src\widgets/lv_slider.c ****     lv_obj_set_ext_click_area(obj, LV_DPX(8));
  93:..\..\..\arduinoLCD\test\Pain Drain\libraries\lvgl\src\widgets/lv_slider.c **** }
  94:..\..\..\arduinoLCD\test\Pain Drain\libraries\lvgl\src\widgets/lv_slider.c **** 
  95:..\..\..\arduinoLCD\test\Pain Drain\libraries\lvgl\src\widgets/lv_slider.c **** static void lv_slider_event(const lv_obj_class_t * class_p, lv_event_t * e)
  96:..\..\..\arduinoLCD\test\Pain Drain\libraries\lvgl\src\widgets/lv_slider.c **** {
  97:..\..\..\arduinoLCD\test\Pain Drain\libraries\lvgl\src\widgets/lv_slider.c ****     LV_UNUSED(class_p);
  98:..\..\..\arduinoLCD\test\Pain Drain\libraries\lvgl\src\widgets/lv_slider.c **** 
  99:..\..\..\arduinoLCD\test\Pain Drain\libraries\lvgl\src\widgets/lv_slider.c ****     lv_res_t res;
 100:..\..\..\arduinoLCD\test\Pain Drain\libraries\lvgl\src\widgets/lv_slider.c **** 
 101:..\..\..\arduinoLCD\test\Pain Drain\libraries\lvgl\src\widgets/lv_slider.c ****     /*Call the ancestor's event handler*/
 102:..\..\..\arduinoLCD\test\Pain Drain\libraries\lvgl\src\widgets/lv_slider.c ****     res = lv_obj_event_base(MY_CLASS, e);
 103:..\..\..\arduinoLCD\test\Pain Drain\libraries\lvgl\src\widgets/lv_slider.c ****     if(res != LV_RES_OK) return;
 104:..\..\..\arduinoLCD\test\Pain Drain\libraries\lvgl\src\widgets/lv_slider.c **** 
 105:..\..\..\arduinoLCD\test\Pain Drain\libraries\lvgl\src\widgets/lv_slider.c ****     lv_event_code_t code = lv_event_get_code(e);
 106:..\..\..\arduinoLCD\test\Pain Drain\libraries\lvgl\src\widgets/lv_slider.c ****     lv_obj_t * obj = lv_event_get_target(e);
 107:..\..\..\arduinoLCD\test\Pain Drain\libraries\lvgl\src\widgets/lv_slider.c ****     lv_slider_t * slider = (lv_slider_t *)obj;
 108:..\..\..\arduinoLCD\test\Pain Drain\libraries\lvgl\src\widgets/lv_slider.c ****     lv_slider_mode_t type = lv_slider_get_mode(obj);
 109:..\..\..\arduinoLCD\test\Pain Drain\libraries\lvgl\src\widgets/lv_slider.c **** 
 110:..\..\..\arduinoLCD\test\Pain Drain\libraries\lvgl\src\widgets/lv_slider.c ****     /*Advanced hit testing: react only on dragging the knob(s)*/
 111:..\..\..\arduinoLCD\test\Pain Drain\libraries\lvgl\src\widgets/lv_slider.c ****     if(code == LV_EVENT_HIT_TEST) {
 112:..\..\..\arduinoLCD\test\Pain Drain\libraries\lvgl\src\widgets/lv_slider.c ****         lv_hit_test_info_t * info = lv_event_get_param(e);
 113:..\..\..\arduinoLCD\test\Pain Drain\libraries\lvgl\src\widgets/lv_slider.c ****         lv_coord_t ext_click_area = obj->spec_attr ? obj->spec_attr->ext_click_pad : 0;
 114:..\..\..\arduinoLCD\test\Pain Drain\libraries\lvgl\src\widgets/lv_slider.c **** 
 115:..\..\..\arduinoLCD\test\Pain Drain\libraries\lvgl\src\widgets/lv_slider.c ****         /*Ordinary slider: was the knob area hit?*/
 116:..\..\..\arduinoLCD\test\Pain Drain\libraries\lvgl\src\widgets/lv_slider.c ****         lv_area_t a;
 117:..\..\..\arduinoLCD\test\Pain Drain\libraries\lvgl\src\widgets/lv_slider.c ****         lv_area_copy(&a, &slider->right_knob_area);
 118:..\..\..\arduinoLCD\test\Pain Drain\libraries\lvgl\src\widgets/lv_slider.c ****         lv_area_increase(&a, ext_click_area, ext_click_area);
 119:..\..\..\arduinoLCD\test\Pain Drain\libraries\lvgl\src\widgets/lv_slider.c ****         info->res = _lv_area_is_point_on(&a, info->point, 0);
 120:..\..\..\arduinoLCD\test\Pain Drain\libraries\lvgl\src\widgets/lv_slider.c **** 
 121:..\..\..\arduinoLCD\test\Pain Drain\libraries\lvgl\src\widgets/lv_slider.c ****         /*There's still a chance that there is a hit if there is another knob*/
 122:..\..\..\arduinoLCD\test\Pain Drain\libraries\lvgl\src\widgets/lv_slider.c ****         if((info->res == false) && (type == LV_SLIDER_MODE_RANGE)) {
 123:..\..\..\arduinoLCD\test\Pain Drain\libraries\lvgl\src\widgets/lv_slider.c ****             lv_area_copy(&a, &slider->left_knob_area);
 124:..\..\..\arduinoLCD\test\Pain Drain\libraries\lvgl\src\widgets/lv_slider.c ****             lv_area_increase(&a, ext_click_area, ext_click_area);
 125:..\..\..\arduinoLCD\test\Pain Drain\libraries\lvgl\src\widgets/lv_slider.c ****             info->res = _lv_area_is_point_on(&a, info->point, 0);
 126:..\..\..\arduinoLCD\test\Pain Drain\libraries\lvgl\src\widgets/lv_slider.c ****         }
 127:..\..\..\arduinoLCD\test\Pain Drain\libraries\lvgl\src\widgets/lv_slider.c ****     }
 128:..\..\..\arduinoLCD\test\Pain Drain\libraries\lvgl\src\widgets/lv_slider.c ****     else if(code == LV_EVENT_PRESSED) {
 129:..\..\..\arduinoLCD\test\Pain Drain\libraries\lvgl\src\widgets/lv_slider.c ****         lv_obj_invalidate(obj);
 130:..\..\..\arduinoLCD\test\Pain Drain\libraries\lvgl\src\widgets/lv_slider.c **** 
 131:..\..\..\arduinoLCD\test\Pain Drain\libraries\lvgl\src\widgets/lv_slider.c ****         lv_point_t p;
 132:..\..\..\arduinoLCD\test\Pain Drain\libraries\lvgl\src\widgets/lv_slider.c ****         slider->dragging = true;
 133:..\..\..\arduinoLCD\test\Pain Drain\libraries\lvgl\src\widgets/lv_slider.c ****         if(type == LV_SLIDER_MODE_NORMAL || type == LV_SLIDER_MODE_SYMMETRICAL) {
 134:..\..\..\arduinoLCD\test\Pain Drain\libraries\lvgl\src\widgets/lv_slider.c ****             slider->value_to_set = &slider->bar.cur_value;
 135:..\..\..\arduinoLCD\test\Pain Drain\libraries\lvgl\src\widgets/lv_slider.c ****         }
 136:..\..\..\arduinoLCD\test\Pain Drain\libraries\lvgl\src\widgets/lv_slider.c ****         else if(type == LV_SLIDER_MODE_RANGE) {
 137:..\..\..\arduinoLCD\test\Pain Drain\libraries\lvgl\src\widgets/lv_slider.c ****             lv_indev_get_point(lv_indev_get_act(), &p);
 138:..\..\..\arduinoLCD\test\Pain Drain\libraries\lvgl\src\widgets/lv_slider.c ****             bool hor = lv_obj_get_width(obj) >= lv_obj_get_height(obj);
 139:..\..\..\arduinoLCD\test\Pain Drain\libraries\lvgl\src\widgets/lv_slider.c ****             lv_base_dir_t base_dir = lv_obj_get_style_base_dir(obj, LV_PART_MAIN);
 140:..\..\..\arduinoLCD\test\Pain Drain\libraries\lvgl\src\widgets/lv_slider.c **** 
 141:..\..\..\arduinoLCD\test\Pain Drain\libraries\lvgl\src\widgets/lv_slider.c ****             lv_coord_t dist_left, dist_right;
 142:..\..\..\arduinoLCD\test\Pain Drain\libraries\lvgl\src\widgets/lv_slider.c ****             if(hor) {
 143:..\..\..\arduinoLCD\test\Pain Drain\libraries\lvgl\src\widgets/lv_slider.c ****                 if((base_dir != LV_BASE_DIR_RTL && p.x > slider->right_knob_area.x2) || (base_dir =
 144:..\..\..\arduinoLCD\test\Pain Drain\libraries\lvgl\src\widgets/lv_slider.c ****                                                                                          p.x < slid
 145:..\..\..\arduinoLCD\test\Pain Drain\libraries\lvgl\src\widgets/lv_slider.c ****                     slider->value_to_set = &slider->bar.cur_value;
ARM GAS  C:\Users\haske\AppData\Local\Temp\cc1ymag8.s 			page 4


 146:..\..\..\arduinoLCD\test\Pain Drain\libraries\lvgl\src\widgets/lv_slider.c ****                 }
 147:..\..\..\arduinoLCD\test\Pain Drain\libraries\lvgl\src\widgets/lv_slider.c ****                 else if((base_dir != LV_BASE_DIR_RTL && p.x < slider->left_knob_area.x1) || (base_d
 148:..\..\..\arduinoLCD\test\Pain Drain\libraries\lvgl\src\widgets/lv_slider.c ****                                                                                              p.x > 
 149:..\..\..\arduinoLCD\test\Pain Drain\libraries\lvgl\src\widgets/lv_slider.c ****                     slider->value_to_set = &slider->bar.start_value;
 150:..\..\..\arduinoLCD\test\Pain Drain\libraries\lvgl\src\widgets/lv_slider.c ****                 }
 151:..\..\..\arduinoLCD\test\Pain Drain\libraries\lvgl\src\widgets/lv_slider.c ****                 else {
 152:..\..\..\arduinoLCD\test\Pain Drain\libraries\lvgl\src\widgets/lv_slider.c ****                     /*Calculate the distance from each knob*/
 153:..\..\..\arduinoLCD\test\Pain Drain\libraries\lvgl\src\widgets/lv_slider.c ****                     dist_left = LV_ABS((slider->left_knob_area.x1 + (slider->left_knob_area.x2 - sl
 154:..\..\..\arduinoLCD\test\Pain Drain\libraries\lvgl\src\widgets/lv_slider.c ****                     dist_right = LV_ABS((slider->right_knob_area.x1 + (slider->right_knob_area.x2 -
 155:..\..\..\arduinoLCD\test\Pain Drain\libraries\lvgl\src\widgets/lv_slider.c **** 
 156:..\..\..\arduinoLCD\test\Pain Drain\libraries\lvgl\src\widgets/lv_slider.c ****                     /*Use whichever one is closer*/
 157:..\..\..\arduinoLCD\test\Pain Drain\libraries\lvgl\src\widgets/lv_slider.c ****                     if(dist_right < dist_left) {
 158:..\..\..\arduinoLCD\test\Pain Drain\libraries\lvgl\src\widgets/lv_slider.c ****                         slider->value_to_set = &slider->bar.cur_value;
 159:..\..\..\arduinoLCD\test\Pain Drain\libraries\lvgl\src\widgets/lv_slider.c ****                         slider->left_knob_focus = 0;
 160:..\..\..\arduinoLCD\test\Pain Drain\libraries\lvgl\src\widgets/lv_slider.c ****                     }
 161:..\..\..\arduinoLCD\test\Pain Drain\libraries\lvgl\src\widgets/lv_slider.c ****                     else {
 162:..\..\..\arduinoLCD\test\Pain Drain\libraries\lvgl\src\widgets/lv_slider.c ****                         slider->value_to_set = &slider->bar.start_value;
 163:..\..\..\arduinoLCD\test\Pain Drain\libraries\lvgl\src\widgets/lv_slider.c ****                         slider->left_knob_focus = 1;
 164:..\..\..\arduinoLCD\test\Pain Drain\libraries\lvgl\src\widgets/lv_slider.c ****                     }
 165:..\..\..\arduinoLCD\test\Pain Drain\libraries\lvgl\src\widgets/lv_slider.c ****                 }
 166:..\..\..\arduinoLCD\test\Pain Drain\libraries\lvgl\src\widgets/lv_slider.c ****             }
 167:..\..\..\arduinoLCD\test\Pain Drain\libraries\lvgl\src\widgets/lv_slider.c ****             else {
 168:..\..\..\arduinoLCD\test\Pain Drain\libraries\lvgl\src\widgets/lv_slider.c ****                 if(p.y < slider->right_knob_area.y1) {
 169:..\..\..\arduinoLCD\test\Pain Drain\libraries\lvgl\src\widgets/lv_slider.c ****                     slider->value_to_set = &slider->bar.cur_value;
 170:..\..\..\arduinoLCD\test\Pain Drain\libraries\lvgl\src\widgets/lv_slider.c ****                 }
 171:..\..\..\arduinoLCD\test\Pain Drain\libraries\lvgl\src\widgets/lv_slider.c ****                 else if(p.y > slider->left_knob_area.y2) {
 172:..\..\..\arduinoLCD\test\Pain Drain\libraries\lvgl\src\widgets/lv_slider.c ****                     slider->value_to_set = &slider->bar.start_value;
 173:..\..\..\arduinoLCD\test\Pain Drain\libraries\lvgl\src\widgets/lv_slider.c ****                 }
 174:..\..\..\arduinoLCD\test\Pain Drain\libraries\lvgl\src\widgets/lv_slider.c ****                 else {
 175:..\..\..\arduinoLCD\test\Pain Drain\libraries\lvgl\src\widgets/lv_slider.c ****                     /*Calculate the distance from each knob*/
 176:..\..\..\arduinoLCD\test\Pain Drain\libraries\lvgl\src\widgets/lv_slider.c ****                     dist_left = LV_ABS((slider->left_knob_area.y1 + (slider->left_knob_area.y2 - sl
 177:..\..\..\arduinoLCD\test\Pain Drain\libraries\lvgl\src\widgets/lv_slider.c ****                     dist_right = LV_ABS((slider->right_knob_area.y1 + (slider->right_knob_area.y2 -
 178:..\..\..\arduinoLCD\test\Pain Drain\libraries\lvgl\src\widgets/lv_slider.c **** 
 179:..\..\..\arduinoLCD\test\Pain Drain\libraries\lvgl\src\widgets/lv_slider.c ****                     /*Use whichever one is closer*/
 180:..\..\..\arduinoLCD\test\Pain Drain\libraries\lvgl\src\widgets/lv_slider.c ****                     if(dist_right < dist_left) {
 181:..\..\..\arduinoLCD\test\Pain Drain\libraries\lvgl\src\widgets/lv_slider.c ****                         slider->value_to_set = &slider->bar.cur_value;
 182:..\..\..\arduinoLCD\test\Pain Drain\libraries\lvgl\src\widgets/lv_slider.c ****                         slider->left_knob_focus = 0;
 183:..\..\..\arduinoLCD\test\Pain Drain\libraries\lvgl\src\widgets/lv_slider.c ****                     }
 184:..\..\..\arduinoLCD\test\Pain Drain\libraries\lvgl\src\widgets/lv_slider.c ****                     else {
 185:..\..\..\arduinoLCD\test\Pain Drain\libraries\lvgl\src\widgets/lv_slider.c ****                         slider->value_to_set = &slider->bar.start_value;
 186:..\..\..\arduinoLCD\test\Pain Drain\libraries\lvgl\src\widgets/lv_slider.c ****                         slider->left_knob_focus = 1;
 187:..\..\..\arduinoLCD\test\Pain Drain\libraries\lvgl\src\widgets/lv_slider.c ****                     }
 188:..\..\..\arduinoLCD\test\Pain Drain\libraries\lvgl\src\widgets/lv_slider.c ****                 }
 189:..\..\..\arduinoLCD\test\Pain Drain\libraries\lvgl\src\widgets/lv_slider.c ****             }
 190:..\..\..\arduinoLCD\test\Pain Drain\libraries\lvgl\src\widgets/lv_slider.c ****         }
 191:..\..\..\arduinoLCD\test\Pain Drain\libraries\lvgl\src\widgets/lv_slider.c ****     }
 192:..\..\..\arduinoLCD\test\Pain Drain\libraries\lvgl\src\widgets/lv_slider.c ****     else if(code == LV_EVENT_PRESSING && slider->value_to_set != NULL) {
 193:..\..\..\arduinoLCD\test\Pain Drain\libraries\lvgl\src\widgets/lv_slider.c ****         lv_indev_t * indev = lv_indev_get_act();
 194:..\..\..\arduinoLCD\test\Pain Drain\libraries\lvgl\src\widgets/lv_slider.c ****         if(lv_indev_get_type(indev) != LV_INDEV_TYPE_POINTER) return;
 195:..\..\..\arduinoLCD\test\Pain Drain\libraries\lvgl\src\widgets/lv_slider.c **** 
 196:..\..\..\arduinoLCD\test\Pain Drain\libraries\lvgl\src\widgets/lv_slider.c ****         lv_point_t p;
 197:..\..\..\arduinoLCD\test\Pain Drain\libraries\lvgl\src\widgets/lv_slider.c ****         lv_indev_get_point(indev, &p);
 198:..\..\..\arduinoLCD\test\Pain Drain\libraries\lvgl\src\widgets/lv_slider.c ****         int32_t new_value = 0;
 199:..\..\..\arduinoLCD\test\Pain Drain\libraries\lvgl\src\widgets/lv_slider.c **** 
 200:..\..\..\arduinoLCD\test\Pain Drain\libraries\lvgl\src\widgets/lv_slider.c ****         const int32_t range = slider->bar.max_value - slider->bar.min_value;
 201:..\..\..\arduinoLCD\test\Pain Drain\libraries\lvgl\src\widgets/lv_slider.c ****         if(is_slider_horizontal(obj)) {
 202:..\..\..\arduinoLCD\test\Pain Drain\libraries\lvgl\src\widgets/lv_slider.c ****             const lv_coord_t bg_left = lv_obj_get_style_pad_left(obj, LV_PART_MAIN);
ARM GAS  C:\Users\haske\AppData\Local\Temp\cc1ymag8.s 			page 5


 203:..\..\..\arduinoLCD\test\Pain Drain\libraries\lvgl\src\widgets/lv_slider.c ****             const lv_coord_t bg_right = lv_obj_get_style_pad_right(obj, LV_PART_MAIN);
 204:..\..\..\arduinoLCD\test\Pain Drain\libraries\lvgl\src\widgets/lv_slider.c ****             const lv_coord_t w = lv_obj_get_width(obj);
 205:..\..\..\arduinoLCD\test\Pain Drain\libraries\lvgl\src\widgets/lv_slider.c ****             const lv_coord_t indic_w = w - bg_left - bg_right;
 206:..\..\..\arduinoLCD\test\Pain Drain\libraries\lvgl\src\widgets/lv_slider.c **** 
 207:..\..\..\arduinoLCD\test\Pain Drain\libraries\lvgl\src\widgets/lv_slider.c ****             if(lv_obj_get_style_base_dir(obj, LV_PART_MAIN) == LV_BASE_DIR_RTL) {
 208:..\..\..\arduinoLCD\test\Pain Drain\libraries\lvgl\src\widgets/lv_slider.c ****                 /*Make the point relative to the indicator*/
 209:..\..\..\arduinoLCD\test\Pain Drain\libraries\lvgl\src\widgets/lv_slider.c ****                 new_value = (obj->coords.x2 - bg_right) - p.x;
 210:..\..\..\arduinoLCD\test\Pain Drain\libraries\lvgl\src\widgets/lv_slider.c ****             }
 211:..\..\..\arduinoLCD\test\Pain Drain\libraries\lvgl\src\widgets/lv_slider.c ****             else {
 212:..\..\..\arduinoLCD\test\Pain Drain\libraries\lvgl\src\widgets/lv_slider.c ****                 /*Make the point relative to the indicator*/
 213:..\..\..\arduinoLCD\test\Pain Drain\libraries\lvgl\src\widgets/lv_slider.c ****                 new_value = p.x - (obj->coords.x1 + bg_left);
 214:..\..\..\arduinoLCD\test\Pain Drain\libraries\lvgl\src\widgets/lv_slider.c ****             }
 215:..\..\..\arduinoLCD\test\Pain Drain\libraries\lvgl\src\widgets/lv_slider.c ****             new_value = (new_value * range + indic_w / 2) / indic_w;
 216:..\..\..\arduinoLCD\test\Pain Drain\libraries\lvgl\src\widgets/lv_slider.c ****             new_value += slider->bar.min_value;
 217:..\..\..\arduinoLCD\test\Pain Drain\libraries\lvgl\src\widgets/lv_slider.c ****         }
 218:..\..\..\arduinoLCD\test\Pain Drain\libraries\lvgl\src\widgets/lv_slider.c ****         else {
 219:..\..\..\arduinoLCD\test\Pain Drain\libraries\lvgl\src\widgets/lv_slider.c ****             const lv_coord_t bg_top = lv_obj_get_style_pad_top(obj, LV_PART_MAIN);
 220:..\..\..\arduinoLCD\test\Pain Drain\libraries\lvgl\src\widgets/lv_slider.c ****             const lv_coord_t bg_bottom = lv_obj_get_style_pad_bottom(obj, LV_PART_MAIN);
 221:..\..\..\arduinoLCD\test\Pain Drain\libraries\lvgl\src\widgets/lv_slider.c ****             const lv_coord_t h = lv_obj_get_height(obj);
 222:..\..\..\arduinoLCD\test\Pain Drain\libraries\lvgl\src\widgets/lv_slider.c ****             const lv_coord_t indic_h = h - bg_bottom - bg_top;
 223:..\..\..\arduinoLCD\test\Pain Drain\libraries\lvgl\src\widgets/lv_slider.c **** 
 224:..\..\..\arduinoLCD\test\Pain Drain\libraries\lvgl\src\widgets/lv_slider.c ****             /*Make the point relative to the indicator*/
 225:..\..\..\arduinoLCD\test\Pain Drain\libraries\lvgl\src\widgets/lv_slider.c ****             new_value = p.y - (obj->coords.y2 + bg_bottom);
 226:..\..\..\arduinoLCD\test\Pain Drain\libraries\lvgl\src\widgets/lv_slider.c ****             new_value = (-new_value * range + indic_h / 2) / indic_h;
 227:..\..\..\arduinoLCD\test\Pain Drain\libraries\lvgl\src\widgets/lv_slider.c ****             new_value += slider->bar.min_value;
 228:..\..\..\arduinoLCD\test\Pain Drain\libraries\lvgl\src\widgets/lv_slider.c ****         }
 229:..\..\..\arduinoLCD\test\Pain Drain\libraries\lvgl\src\widgets/lv_slider.c **** 
 230:..\..\..\arduinoLCD\test\Pain Drain\libraries\lvgl\src\widgets/lv_slider.c ****         int32_t real_max_value = slider->bar.max_value;
 231:..\..\..\arduinoLCD\test\Pain Drain\libraries\lvgl\src\widgets/lv_slider.c ****         int32_t real_min_value = slider->bar.min_value;
 232:..\..\..\arduinoLCD\test\Pain Drain\libraries\lvgl\src\widgets/lv_slider.c ****         /*Figure out the min. and max. for this mode*/
 233:..\..\..\arduinoLCD\test\Pain Drain\libraries\lvgl\src\widgets/lv_slider.c ****         if(slider->value_to_set == &slider->bar.start_value) {
 234:..\..\..\arduinoLCD\test\Pain Drain\libraries\lvgl\src\widgets/lv_slider.c ****             real_max_value = slider->bar.cur_value;
 235:..\..\..\arduinoLCD\test\Pain Drain\libraries\lvgl\src\widgets/lv_slider.c ****         }
 236:..\..\..\arduinoLCD\test\Pain Drain\libraries\lvgl\src\widgets/lv_slider.c ****         else {
 237:..\..\..\arduinoLCD\test\Pain Drain\libraries\lvgl\src\widgets/lv_slider.c ****             real_min_value = slider->bar.start_value;
 238:..\..\..\arduinoLCD\test\Pain Drain\libraries\lvgl\src\widgets/lv_slider.c ****         }
 239:..\..\..\arduinoLCD\test\Pain Drain\libraries\lvgl\src\widgets/lv_slider.c **** 
 240:..\..\..\arduinoLCD\test\Pain Drain\libraries\lvgl\src\widgets/lv_slider.c ****         new_value = LV_CLAMP(real_min_value, new_value, real_max_value);
 241:..\..\..\arduinoLCD\test\Pain Drain\libraries\lvgl\src\widgets/lv_slider.c ****         if(*slider->value_to_set != new_value) {
 242:..\..\..\arduinoLCD\test\Pain Drain\libraries\lvgl\src\widgets/lv_slider.c ****             if(slider->value_to_set == &slider->bar.start_value) {
 243:..\..\..\arduinoLCD\test\Pain Drain\libraries\lvgl\src\widgets/lv_slider.c ****                 lv_bar_set_start_value(obj, new_value, LV_ANIM_ON);
 244:..\..\..\arduinoLCD\test\Pain Drain\libraries\lvgl\src\widgets/lv_slider.c ****             }
 245:..\..\..\arduinoLCD\test\Pain Drain\libraries\lvgl\src\widgets/lv_slider.c ****             else {
 246:..\..\..\arduinoLCD\test\Pain Drain\libraries\lvgl\src\widgets/lv_slider.c ****                 lv_bar_set_value(obj, new_value, LV_ANIM_ON);
 247:..\..\..\arduinoLCD\test\Pain Drain\libraries\lvgl\src\widgets/lv_slider.c ****             }
 248:..\..\..\arduinoLCD\test\Pain Drain\libraries\lvgl\src\widgets/lv_slider.c ****             res = lv_event_send(obj, LV_EVENT_VALUE_CHANGED, NULL);
 249:..\..\..\arduinoLCD\test\Pain Drain\libraries\lvgl\src\widgets/lv_slider.c ****             if(res != LV_RES_OK) return;
 250:..\..\..\arduinoLCD\test\Pain Drain\libraries\lvgl\src\widgets/lv_slider.c ****         }
 251:..\..\..\arduinoLCD\test\Pain Drain\libraries\lvgl\src\widgets/lv_slider.c **** 
 252:..\..\..\arduinoLCD\test\Pain Drain\libraries\lvgl\src\widgets/lv_slider.c ****     }
 253:..\..\..\arduinoLCD\test\Pain Drain\libraries\lvgl\src\widgets/lv_slider.c ****     else if(code == LV_EVENT_RELEASED || code == LV_EVENT_PRESS_LOST) {
 254:..\..\..\arduinoLCD\test\Pain Drain\libraries\lvgl\src\widgets/lv_slider.c ****         slider->dragging = false;
 255:..\..\..\arduinoLCD\test\Pain Drain\libraries\lvgl\src\widgets/lv_slider.c ****         slider->value_to_set = NULL;
 256:..\..\..\arduinoLCD\test\Pain Drain\libraries\lvgl\src\widgets/lv_slider.c **** 
 257:..\..\..\arduinoLCD\test\Pain Drain\libraries\lvgl\src\widgets/lv_slider.c ****         lv_obj_invalidate(obj);
 258:..\..\..\arduinoLCD\test\Pain Drain\libraries\lvgl\src\widgets/lv_slider.c **** 
 259:..\..\..\arduinoLCD\test\Pain Drain\libraries\lvgl\src\widgets/lv_slider.c ****         /*Leave edit mode if released. (No need to wait for LONG_PRESS)*/
ARM GAS  C:\Users\haske\AppData\Local\Temp\cc1ymag8.s 			page 6


 260:..\..\..\arduinoLCD\test\Pain Drain\libraries\lvgl\src\widgets/lv_slider.c ****         lv_group_t * g   = lv_obj_get_group(obj);
 261:..\..\..\arduinoLCD\test\Pain Drain\libraries\lvgl\src\widgets/lv_slider.c ****         bool editing     = lv_group_get_editing(g);
 262:..\..\..\arduinoLCD\test\Pain Drain\libraries\lvgl\src\widgets/lv_slider.c ****         lv_indev_type_t indev_type = lv_indev_get_type(lv_indev_get_act());
 263:..\..\..\arduinoLCD\test\Pain Drain\libraries\lvgl\src\widgets/lv_slider.c ****         if(indev_type == LV_INDEV_TYPE_ENCODER) {
 264:..\..\..\arduinoLCD\test\Pain Drain\libraries\lvgl\src\widgets/lv_slider.c ****             if(editing) {
 265:..\..\..\arduinoLCD\test\Pain Drain\libraries\lvgl\src\widgets/lv_slider.c ****                 if(lv_slider_get_mode(obj) == LV_SLIDER_MODE_RANGE) {
 266:..\..\..\arduinoLCD\test\Pain Drain\libraries\lvgl\src\widgets/lv_slider.c ****                     if(slider->left_knob_focus == 0) slider->left_knob_focus = 1;
 267:..\..\..\arduinoLCD\test\Pain Drain\libraries\lvgl\src\widgets/lv_slider.c ****                     else {
 268:..\..\..\arduinoLCD\test\Pain Drain\libraries\lvgl\src\widgets/lv_slider.c ****                         slider->left_knob_focus = 0;
 269:..\..\..\arduinoLCD\test\Pain Drain\libraries\lvgl\src\widgets/lv_slider.c ****                         lv_group_set_editing(g, false);
 270:..\..\..\arduinoLCD\test\Pain Drain\libraries\lvgl\src\widgets/lv_slider.c ****                     }
 271:..\..\..\arduinoLCD\test\Pain Drain\libraries\lvgl\src\widgets/lv_slider.c ****                 }
 272:..\..\..\arduinoLCD\test\Pain Drain\libraries\lvgl\src\widgets/lv_slider.c ****                 else {
 273:..\..\..\arduinoLCD\test\Pain Drain\libraries\lvgl\src\widgets/lv_slider.c ****                     lv_group_set_editing(g, false);
 274:..\..\..\arduinoLCD\test\Pain Drain\libraries\lvgl\src\widgets/lv_slider.c ****                 }
 275:..\..\..\arduinoLCD\test\Pain Drain\libraries\lvgl\src\widgets/lv_slider.c ****             }
 276:..\..\..\arduinoLCD\test\Pain Drain\libraries\lvgl\src\widgets/lv_slider.c ****         }
 277:..\..\..\arduinoLCD\test\Pain Drain\libraries\lvgl\src\widgets/lv_slider.c **** 
 278:..\..\..\arduinoLCD\test\Pain Drain\libraries\lvgl\src\widgets/lv_slider.c ****     }
 279:..\..\..\arduinoLCD\test\Pain Drain\libraries\lvgl\src\widgets/lv_slider.c ****     else if(code == LV_EVENT_FOCUSED) {
 280:..\..\..\arduinoLCD\test\Pain Drain\libraries\lvgl\src\widgets/lv_slider.c ****         lv_indev_type_t indev_type = lv_indev_get_type(lv_indev_get_act());
 281:..\..\..\arduinoLCD\test\Pain Drain\libraries\lvgl\src\widgets/lv_slider.c ****         if(indev_type == LV_INDEV_TYPE_ENCODER || indev_type == LV_INDEV_TYPE_KEYPAD) {
 282:..\..\..\arduinoLCD\test\Pain Drain\libraries\lvgl\src\widgets/lv_slider.c ****             slider->left_knob_focus = 0;
 283:..\..\..\arduinoLCD\test\Pain Drain\libraries\lvgl\src\widgets/lv_slider.c ****         }
 284:..\..\..\arduinoLCD\test\Pain Drain\libraries\lvgl\src\widgets/lv_slider.c ****     }
 285:..\..\..\arduinoLCD\test\Pain Drain\libraries\lvgl\src\widgets/lv_slider.c ****     else if(code == LV_EVENT_SIZE_CHANGED) {
 286:..\..\..\arduinoLCD\test\Pain Drain\libraries\lvgl\src\widgets/lv_slider.c ****         lv_obj_refresh_ext_draw_size(obj);
 287:..\..\..\arduinoLCD\test\Pain Drain\libraries\lvgl\src\widgets/lv_slider.c ****     }
 288:..\..\..\arduinoLCD\test\Pain Drain\libraries\lvgl\src\widgets/lv_slider.c ****     else if(code == LV_EVENT_REFR_EXT_DRAW_SIZE) {
 289:..\..\..\arduinoLCD\test\Pain Drain\libraries\lvgl\src\widgets/lv_slider.c ****         lv_coord_t knob_left = lv_obj_get_style_pad_left(obj, LV_PART_KNOB);
 290:..\..\..\arduinoLCD\test\Pain Drain\libraries\lvgl\src\widgets/lv_slider.c ****         lv_coord_t knob_right = lv_obj_get_style_pad_right(obj, LV_PART_KNOB);
 291:..\..\..\arduinoLCD\test\Pain Drain\libraries\lvgl\src\widgets/lv_slider.c ****         lv_coord_t knob_top = lv_obj_get_style_pad_top(obj, LV_PART_KNOB);
 292:..\..\..\arduinoLCD\test\Pain Drain\libraries\lvgl\src\widgets/lv_slider.c ****         lv_coord_t knob_bottom = lv_obj_get_style_pad_bottom(obj, LV_PART_KNOB);
 293:..\..\..\arduinoLCD\test\Pain Drain\libraries\lvgl\src\widgets/lv_slider.c **** 
 294:..\..\..\arduinoLCD\test\Pain Drain\libraries\lvgl\src\widgets/lv_slider.c ****         /*The smaller size is the knob diameter*/
 295:..\..\..\arduinoLCD\test\Pain Drain\libraries\lvgl\src\widgets/lv_slider.c ****         lv_coord_t zoom = lv_obj_get_style_transform_zoom(obj, LV_PART_KNOB);
 296:..\..\..\arduinoLCD\test\Pain Drain\libraries\lvgl\src\widgets/lv_slider.c ****         lv_coord_t trans_w = lv_obj_get_style_transform_width(obj, LV_PART_KNOB);
 297:..\..\..\arduinoLCD\test\Pain Drain\libraries\lvgl\src\widgets/lv_slider.c ****         lv_coord_t trans_h = lv_obj_get_style_transform_height(obj, LV_PART_KNOB);
 298:..\..\..\arduinoLCD\test\Pain Drain\libraries\lvgl\src\widgets/lv_slider.c ****         lv_coord_t knob_size = LV_MIN(lv_obj_get_width(obj) + 2 * trans_w, lv_obj_get_height(obj) +
 299:..\..\..\arduinoLCD\test\Pain Drain\libraries\lvgl\src\widgets/lv_slider.c ****         knob_size = (knob_size * zoom) >> 8;
 300:..\..\..\arduinoLCD\test\Pain Drain\libraries\lvgl\src\widgets/lv_slider.c ****         knob_size += LV_MAX(LV_MAX(knob_left, knob_right), LV_MAX(knob_bottom, knob_top));
 301:..\..\..\arduinoLCD\test\Pain Drain\libraries\lvgl\src\widgets/lv_slider.c ****         knob_size += 2;         /*For rounding error*/
 302:..\..\..\arduinoLCD\test\Pain Drain\libraries\lvgl\src\widgets/lv_slider.c ****         knob_size += lv_obj_calculate_ext_draw_size(obj, LV_PART_KNOB);
 303:..\..\..\arduinoLCD\test\Pain Drain\libraries\lvgl\src\widgets/lv_slider.c **** 
 304:..\..\..\arduinoLCD\test\Pain Drain\libraries\lvgl\src\widgets/lv_slider.c ****         /*Indic. size is handled by bar*/
 305:..\..\..\arduinoLCD\test\Pain Drain\libraries\lvgl\src\widgets/lv_slider.c ****         lv_coord_t * s = lv_event_get_param(e);
 306:..\..\..\arduinoLCD\test\Pain Drain\libraries\lvgl\src\widgets/lv_slider.c ****         *s  = LV_MAX(*s, knob_size);
 307:..\..\..\arduinoLCD\test\Pain Drain\libraries\lvgl\src\widgets/lv_slider.c **** 
 308:..\..\..\arduinoLCD\test\Pain Drain\libraries\lvgl\src\widgets/lv_slider.c ****     }
 309:..\..\..\arduinoLCD\test\Pain Drain\libraries\lvgl\src\widgets/lv_slider.c ****     else if(code == LV_EVENT_KEY) {
 310:..\..\..\arduinoLCD\test\Pain Drain\libraries\lvgl\src\widgets/lv_slider.c ****         char c = *((char *)lv_event_get_param(e));
 311:..\..\..\arduinoLCD\test\Pain Drain\libraries\lvgl\src\widgets/lv_slider.c **** 
 312:..\..\..\arduinoLCD\test\Pain Drain\libraries\lvgl\src\widgets/lv_slider.c ****         if(c == LV_KEY_RIGHT || c == LV_KEY_UP) {
 313:..\..\..\arduinoLCD\test\Pain Drain\libraries\lvgl\src\widgets/lv_slider.c ****             if(!slider->left_knob_focus) lv_slider_set_value(obj, lv_slider_get_value(obj) + 1, LV_
 314:..\..\..\arduinoLCD\test\Pain Drain\libraries\lvgl\src\widgets/lv_slider.c ****             else lv_slider_set_left_value(obj, lv_slider_get_left_value(obj) + 1, LV_ANIM_ON);
 315:..\..\..\arduinoLCD\test\Pain Drain\libraries\lvgl\src\widgets/lv_slider.c ****         }
 316:..\..\..\arduinoLCD\test\Pain Drain\libraries\lvgl\src\widgets/lv_slider.c ****         else if(c == LV_KEY_LEFT || c == LV_KEY_DOWN) {
ARM GAS  C:\Users\haske\AppData\Local\Temp\cc1ymag8.s 			page 7


 317:..\..\..\arduinoLCD\test\Pain Drain\libraries\lvgl\src\widgets/lv_slider.c ****             if(!slider->left_knob_focus) lv_slider_set_value(obj, lv_slider_get_value(obj) - 1, LV_
 318:..\..\..\arduinoLCD\test\Pain Drain\libraries\lvgl\src\widgets/lv_slider.c ****             else lv_slider_set_left_value(obj, lv_slider_get_left_value(obj) - 1, LV_ANIM_ON);
 319:..\..\..\arduinoLCD\test\Pain Drain\libraries\lvgl\src\widgets/lv_slider.c ****         }
 320:..\..\..\arduinoLCD\test\Pain Drain\libraries\lvgl\src\widgets/lv_slider.c ****         else {
 321:..\..\..\arduinoLCD\test\Pain Drain\libraries\lvgl\src\widgets/lv_slider.c ****             return;
 322:..\..\..\arduinoLCD\test\Pain Drain\libraries\lvgl\src\widgets/lv_slider.c ****         }
 323:..\..\..\arduinoLCD\test\Pain Drain\libraries\lvgl\src\widgets/lv_slider.c **** 
 324:..\..\..\arduinoLCD\test\Pain Drain\libraries\lvgl\src\widgets/lv_slider.c ****         res = lv_event_send(obj, LV_EVENT_VALUE_CHANGED, NULL);
 325:..\..\..\arduinoLCD\test\Pain Drain\libraries\lvgl\src\widgets/lv_slider.c ****         if(res != LV_RES_OK) return;
 326:..\..\..\arduinoLCD\test\Pain Drain\libraries\lvgl\src\widgets/lv_slider.c ****     }
 327:..\..\..\arduinoLCD\test\Pain Drain\libraries\lvgl\src\widgets/lv_slider.c ****     else if(code == LV_EVENT_DRAW_MAIN) {
 328:..\..\..\arduinoLCD\test\Pain Drain\libraries\lvgl\src\widgets/lv_slider.c ****         draw_knob(e);
 329:..\..\..\arduinoLCD\test\Pain Drain\libraries\lvgl\src\widgets/lv_slider.c ****     }
 330:..\..\..\arduinoLCD\test\Pain Drain\libraries\lvgl\src\widgets/lv_slider.c **** }
 331:..\..\..\arduinoLCD\test\Pain Drain\libraries\lvgl\src\widgets/lv_slider.c **** 
 332:..\..\..\arduinoLCD\test\Pain Drain\libraries\lvgl\src\widgets/lv_slider.c **** static void draw_knob(lv_event_t * e)
 333:..\..\..\arduinoLCD\test\Pain Drain\libraries\lvgl\src\widgets/lv_slider.c **** {
 334:..\..\..\arduinoLCD\test\Pain Drain\libraries\lvgl\src\widgets/lv_slider.c ****     lv_obj_t * obj = lv_event_get_target(e);
 335:..\..\..\arduinoLCD\test\Pain Drain\libraries\lvgl\src\widgets/lv_slider.c ****     lv_slider_t * slider = (lv_slider_t *)obj;
 336:..\..\..\arduinoLCD\test\Pain Drain\libraries\lvgl\src\widgets/lv_slider.c ****     lv_draw_ctx_t * draw_ctx = lv_event_get_draw_ctx(e);
 337:..\..\..\arduinoLCD\test\Pain Drain\libraries\lvgl\src\widgets/lv_slider.c **** 
 338:..\..\..\arduinoLCD\test\Pain Drain\libraries\lvgl\src\widgets/lv_slider.c ****     const bool is_rtl = LV_BASE_DIR_RTL == lv_obj_get_style_base_dir(obj, LV_PART_MAIN);
 339:..\..\..\arduinoLCD\test\Pain Drain\libraries\lvgl\src\widgets/lv_slider.c ****     const bool is_horizontal = is_slider_horizontal(obj);
 340:..\..\..\arduinoLCD\test\Pain Drain\libraries\lvgl\src\widgets/lv_slider.c **** 
 341:..\..\..\arduinoLCD\test\Pain Drain\libraries\lvgl\src\widgets/lv_slider.c ****     lv_area_t knob_area;
 342:..\..\..\arduinoLCD\test\Pain Drain\libraries\lvgl\src\widgets/lv_slider.c ****     lv_coord_t knob_size;
 343:..\..\..\arduinoLCD\test\Pain Drain\libraries\lvgl\src\widgets/lv_slider.c ****     bool is_symmetrical = false;
 344:..\..\..\arduinoLCD\test\Pain Drain\libraries\lvgl\src\widgets/lv_slider.c ****     if(slider->bar.mode == LV_BAR_MODE_SYMMETRICAL && slider->bar.min_value < 0 &&
 345:..\..\..\arduinoLCD\test\Pain Drain\libraries\lvgl\src\widgets/lv_slider.c ****        slider->bar.max_value > 0) is_symmetrical = true;
 346:..\..\..\arduinoLCD\test\Pain Drain\libraries\lvgl\src\widgets/lv_slider.c **** 
 347:..\..\..\arduinoLCD\test\Pain Drain\libraries\lvgl\src\widgets/lv_slider.c ****     if(is_horizontal) {
 348:..\..\..\arduinoLCD\test\Pain Drain\libraries\lvgl\src\widgets/lv_slider.c ****         knob_size = lv_obj_get_height(obj);
 349:..\..\..\arduinoLCD\test\Pain Drain\libraries\lvgl\src\widgets/lv_slider.c ****         if(is_symmetrical && slider->bar.cur_value < 0) knob_area.x1 = slider->bar.indic_area.x1;
 350:..\..\..\arduinoLCD\test\Pain Drain\libraries\lvgl\src\widgets/lv_slider.c ****         else knob_area.x1 = LV_SLIDER_KNOB_COORD(is_rtl, slider->bar.indic_area);
 351:..\..\..\arduinoLCD\test\Pain Drain\libraries\lvgl\src\widgets/lv_slider.c ****     }
 352:..\..\..\arduinoLCD\test\Pain Drain\libraries\lvgl\src\widgets/lv_slider.c ****     else {
 353:..\..\..\arduinoLCD\test\Pain Drain\libraries\lvgl\src\widgets/lv_slider.c ****         knob_size = lv_obj_get_width(obj);
 354:..\..\..\arduinoLCD\test\Pain Drain\libraries\lvgl\src\widgets/lv_slider.c ****         if(is_symmetrical && slider->bar.cur_value < 0) knob_area.y1 = slider->bar.indic_area.y2;
 355:..\..\..\arduinoLCD\test\Pain Drain\libraries\lvgl\src\widgets/lv_slider.c ****         else knob_area.y1 = slider->bar.indic_area.y1;
 356:..\..\..\arduinoLCD\test\Pain Drain\libraries\lvgl\src\widgets/lv_slider.c ****     }
 357:..\..\..\arduinoLCD\test\Pain Drain\libraries\lvgl\src\widgets/lv_slider.c **** 
 358:..\..\..\arduinoLCD\test\Pain Drain\libraries\lvgl\src\widgets/lv_slider.c ****     lv_draw_rect_dsc_t knob_rect_dsc;
 359:..\..\..\arduinoLCD\test\Pain Drain\libraries\lvgl\src\widgets/lv_slider.c ****     lv_draw_rect_dsc_init(&knob_rect_dsc);
 360:..\..\..\arduinoLCD\test\Pain Drain\libraries\lvgl\src\widgets/lv_slider.c ****     lv_obj_init_draw_rect_dsc(obj, LV_PART_KNOB, &knob_rect_dsc);
 361:..\..\..\arduinoLCD\test\Pain Drain\libraries\lvgl\src\widgets/lv_slider.c ****     /* Update knob area with knob style */
 362:..\..\..\arduinoLCD\test\Pain Drain\libraries\lvgl\src\widgets/lv_slider.c ****     position_knob(obj, &knob_area, knob_size, is_horizontal);
 363:..\..\..\arduinoLCD\test\Pain Drain\libraries\lvgl\src\widgets/lv_slider.c ****     /* Update right knob area with calculated knob area */
 364:..\..\..\arduinoLCD\test\Pain Drain\libraries\lvgl\src\widgets/lv_slider.c ****     lv_area_copy(&slider->right_knob_area, &knob_area);
 365:..\..\..\arduinoLCD\test\Pain Drain\libraries\lvgl\src\widgets/lv_slider.c **** 
 366:..\..\..\arduinoLCD\test\Pain Drain\libraries\lvgl\src\widgets/lv_slider.c ****     lv_obj_draw_part_dsc_t part_draw_dsc;
 367:..\..\..\arduinoLCD\test\Pain Drain\libraries\lvgl\src\widgets/lv_slider.c ****     lv_obj_draw_dsc_init(&part_draw_dsc, draw_ctx);
 368:..\..\..\arduinoLCD\test\Pain Drain\libraries\lvgl\src\widgets/lv_slider.c ****     part_draw_dsc.part = LV_PART_KNOB;
 369:..\..\..\arduinoLCD\test\Pain Drain\libraries\lvgl\src\widgets/lv_slider.c ****     part_draw_dsc.class_p = MY_CLASS;
 370:..\..\..\arduinoLCD\test\Pain Drain\libraries\lvgl\src\widgets/lv_slider.c ****     part_draw_dsc.type = LV_SLIDER_DRAW_PART_KNOB;
 371:..\..\..\arduinoLCD\test\Pain Drain\libraries\lvgl\src\widgets/lv_slider.c ****     part_draw_dsc.id = 0;
 372:..\..\..\arduinoLCD\test\Pain Drain\libraries\lvgl\src\widgets/lv_slider.c ****     part_draw_dsc.draw_area = &slider->right_knob_area;
 373:..\..\..\arduinoLCD\test\Pain Drain\libraries\lvgl\src\widgets/lv_slider.c ****     part_draw_dsc.rect_dsc = &knob_rect_dsc;
ARM GAS  C:\Users\haske\AppData\Local\Temp\cc1ymag8.s 			page 8


 374:..\..\..\arduinoLCD\test\Pain Drain\libraries\lvgl\src\widgets/lv_slider.c **** 
 375:..\..\..\arduinoLCD\test\Pain Drain\libraries\lvgl\src\widgets/lv_slider.c ****     if(lv_slider_get_mode(obj) != LV_SLIDER_MODE_RANGE) {
 376:..\..\..\arduinoLCD\test\Pain Drain\libraries\lvgl\src\widgets/lv_slider.c ****         lv_event_send(obj, LV_EVENT_DRAW_PART_BEGIN, &part_draw_dsc);
 377:..\..\..\arduinoLCD\test\Pain Drain\libraries\lvgl\src\widgets/lv_slider.c ****         lv_draw_rect(draw_ctx, &knob_rect_dsc, &slider->right_knob_area);
 378:..\..\..\arduinoLCD\test\Pain Drain\libraries\lvgl\src\widgets/lv_slider.c ****         lv_event_send(obj, LV_EVENT_DRAW_PART_END, &part_draw_dsc);
 379:..\..\..\arduinoLCD\test\Pain Drain\libraries\lvgl\src\widgets/lv_slider.c ****     }
 380:..\..\..\arduinoLCD\test\Pain Drain\libraries\lvgl\src\widgets/lv_slider.c ****     else {
 381:..\..\..\arduinoLCD\test\Pain Drain\libraries\lvgl\src\widgets/lv_slider.c ****         /*Save the draw part_draw_dsc. because it can be modified in the event*/
 382:..\..\..\arduinoLCD\test\Pain Drain\libraries\lvgl\src\widgets/lv_slider.c ****         lv_draw_rect_dsc_t knob_rect_dsc_tmp;
 383:..\..\..\arduinoLCD\test\Pain Drain\libraries\lvgl\src\widgets/lv_slider.c ****         lv_memcpy(&knob_rect_dsc_tmp, &knob_rect_dsc, sizeof(lv_draw_rect_dsc_t));
 384:..\..\..\arduinoLCD\test\Pain Drain\libraries\lvgl\src\widgets/lv_slider.c ****         /* Draw the right knob */
 385:..\..\..\arduinoLCD\test\Pain Drain\libraries\lvgl\src\widgets/lv_slider.c ****         lv_event_send(obj, LV_EVENT_DRAW_PART_BEGIN, &part_draw_dsc);
 386:..\..\..\arduinoLCD\test\Pain Drain\libraries\lvgl\src\widgets/lv_slider.c ****         lv_draw_rect(draw_ctx, &knob_rect_dsc, &slider->right_knob_area);
 387:..\..\..\arduinoLCD\test\Pain Drain\libraries\lvgl\src\widgets/lv_slider.c ****         lv_event_send(obj, LV_EVENT_DRAW_PART_END, &part_draw_dsc);
 388:..\..\..\arduinoLCD\test\Pain Drain\libraries\lvgl\src\widgets/lv_slider.c **** 
 389:..\..\..\arduinoLCD\test\Pain Drain\libraries\lvgl\src\widgets/lv_slider.c ****         /*Calculate the second knob area*/
 390:..\..\..\arduinoLCD\test\Pain Drain\libraries\lvgl\src\widgets/lv_slider.c ****         if(is_horizontal) {
 391:..\..\..\arduinoLCD\test\Pain Drain\libraries\lvgl\src\widgets/lv_slider.c ****             /*use !is_rtl to get the other knob*/
 392:..\..\..\arduinoLCD\test\Pain Drain\libraries\lvgl\src\widgets/lv_slider.c ****             knob_area.x1 = LV_SLIDER_KNOB_COORD(!is_rtl, slider->bar.indic_area);
 393:..\..\..\arduinoLCD\test\Pain Drain\libraries\lvgl\src\widgets/lv_slider.c ****         }
 394:..\..\..\arduinoLCD\test\Pain Drain\libraries\lvgl\src\widgets/lv_slider.c ****         else {
 395:..\..\..\arduinoLCD\test\Pain Drain\libraries\lvgl\src\widgets/lv_slider.c ****             knob_area.y1 = slider->bar.indic_area.y2;
 396:..\..\..\arduinoLCD\test\Pain Drain\libraries\lvgl\src\widgets/lv_slider.c ****         }
 397:..\..\..\arduinoLCD\test\Pain Drain\libraries\lvgl\src\widgets/lv_slider.c ****         position_knob(obj, &knob_area, knob_size, is_horizontal);
 398:..\..\..\arduinoLCD\test\Pain Drain\libraries\lvgl\src\widgets/lv_slider.c ****         lv_area_copy(&slider->left_knob_area, &knob_area);
 399:..\..\..\arduinoLCD\test\Pain Drain\libraries\lvgl\src\widgets/lv_slider.c **** 
 400:..\..\..\arduinoLCD\test\Pain Drain\libraries\lvgl\src\widgets/lv_slider.c ****         lv_memcpy(&knob_rect_dsc, &knob_rect_dsc_tmp, sizeof(lv_draw_rect_dsc_t));
 401:..\..\..\arduinoLCD\test\Pain Drain\libraries\lvgl\src\widgets/lv_slider.c ****         part_draw_dsc.type = LV_SLIDER_DRAW_PART_KNOB_LEFT;
 402:..\..\..\arduinoLCD\test\Pain Drain\libraries\lvgl\src\widgets/lv_slider.c ****         part_draw_dsc.draw_area = &slider->left_knob_area;
 403:..\..\..\arduinoLCD\test\Pain Drain\libraries\lvgl\src\widgets/lv_slider.c ****         part_draw_dsc.rect_dsc = &knob_rect_dsc;
 404:..\..\..\arduinoLCD\test\Pain Drain\libraries\lvgl\src\widgets/lv_slider.c ****         part_draw_dsc.id = 1;
 405:..\..\..\arduinoLCD\test\Pain Drain\libraries\lvgl\src\widgets/lv_slider.c **** 
 406:..\..\..\arduinoLCD\test\Pain Drain\libraries\lvgl\src\widgets/lv_slider.c ****         lv_event_send(obj, LV_EVENT_DRAW_PART_BEGIN, &part_draw_dsc);
 407:..\..\..\arduinoLCD\test\Pain Drain\libraries\lvgl\src\widgets/lv_slider.c ****         lv_draw_rect(draw_ctx, &knob_rect_dsc, &slider->left_knob_area);
 408:..\..\..\arduinoLCD\test\Pain Drain\libraries\lvgl\src\widgets/lv_slider.c ****         lv_event_send(obj, LV_EVENT_DRAW_PART_END, &part_draw_dsc);
 409:..\..\..\arduinoLCD\test\Pain Drain\libraries\lvgl\src\widgets/lv_slider.c ****     }
 410:..\..\..\arduinoLCD\test\Pain Drain\libraries\lvgl\src\widgets/lv_slider.c **** }
 411:..\..\..\arduinoLCD\test\Pain Drain\libraries\lvgl\src\widgets/lv_slider.c **** 
 412:..\..\..\arduinoLCD\test\Pain Drain\libraries\lvgl\src\widgets/lv_slider.c **** static void position_knob(lv_obj_t * obj, lv_area_t * knob_area, const lv_coord_t knob_size, const 
 413:..\..\..\arduinoLCD\test\Pain Drain\libraries\lvgl\src\widgets/lv_slider.c **** {
 414:..\..\..\arduinoLCD\test\Pain Drain\libraries\lvgl\src\widgets/lv_slider.c ****     if(hor) {
 415:..\..\..\arduinoLCD\test\Pain Drain\libraries\lvgl\src\widgets/lv_slider.c ****         knob_area->x1 -= (knob_size >> 1);
 416:..\..\..\arduinoLCD\test\Pain Drain\libraries\lvgl\src\widgets/lv_slider.c ****         knob_area->x2 = knob_area->x1 + knob_size - 1;
 417:..\..\..\arduinoLCD\test\Pain Drain\libraries\lvgl\src\widgets/lv_slider.c ****         knob_area->y1 = obj->coords.y1;
 418:..\..\..\arduinoLCD\test\Pain Drain\libraries\lvgl\src\widgets/lv_slider.c ****         knob_area->y2 = obj->coords.y2;
 419:..\..\..\arduinoLCD\test\Pain Drain\libraries\lvgl\src\widgets/lv_slider.c ****     }
 420:..\..\..\arduinoLCD\test\Pain Drain\libraries\lvgl\src\widgets/lv_slider.c ****     else {
 421:..\..\..\arduinoLCD\test\Pain Drain\libraries\lvgl\src\widgets/lv_slider.c ****         knob_area->y1 -= (knob_size >> 1);
 422:..\..\..\arduinoLCD\test\Pain Drain\libraries\lvgl\src\widgets/lv_slider.c ****         knob_area->y2 = knob_area->y1 + knob_size - 1;
 423:..\..\..\arduinoLCD\test\Pain Drain\libraries\lvgl\src\widgets/lv_slider.c ****         knob_area->x1 = obj->coords.x1;
 424:..\..\..\arduinoLCD\test\Pain Drain\libraries\lvgl\src\widgets/lv_slider.c ****         knob_area->x2 = obj->coords.x2;
 425:..\..\..\arduinoLCD\test\Pain Drain\libraries\lvgl\src\widgets/lv_slider.c ****     }
 426:..\..\..\arduinoLCD\test\Pain Drain\libraries\lvgl\src\widgets/lv_slider.c **** 
 427:..\..\..\arduinoLCD\test\Pain Drain\libraries\lvgl\src\widgets/lv_slider.c ****     lv_coord_t knob_left = lv_obj_get_style_pad_left(obj, LV_PART_KNOB);
 428:..\..\..\arduinoLCD\test\Pain Drain\libraries\lvgl\src\widgets/lv_slider.c ****     lv_coord_t knob_right = lv_obj_get_style_pad_right(obj, LV_PART_KNOB);
 429:..\..\..\arduinoLCD\test\Pain Drain\libraries\lvgl\src\widgets/lv_slider.c ****     lv_coord_t knob_top = lv_obj_get_style_pad_top(obj, LV_PART_KNOB);
 430:..\..\..\arduinoLCD\test\Pain Drain\libraries\lvgl\src\widgets/lv_slider.c ****     lv_coord_t knob_bottom = lv_obj_get_style_pad_bottom(obj, LV_PART_KNOB);
ARM GAS  C:\Users\haske\AppData\Local\Temp\cc1ymag8.s 			page 9


 431:..\..\..\arduinoLCD\test\Pain Drain\libraries\lvgl\src\widgets/lv_slider.c **** 
 432:..\..\..\arduinoLCD\test\Pain Drain\libraries\lvgl\src\widgets/lv_slider.c ****     lv_coord_t transf_w = lv_obj_get_style_transform_width(obj, LV_PART_KNOB);
 433:..\..\..\arduinoLCD\test\Pain Drain\libraries\lvgl\src\widgets/lv_slider.c ****     lv_coord_t transf_h = lv_obj_get_style_transform_height(obj, LV_PART_KNOB);
 434:..\..\..\arduinoLCD\test\Pain Drain\libraries\lvgl\src\widgets/lv_slider.c **** 
 435:..\..\..\arduinoLCD\test\Pain Drain\libraries\lvgl\src\widgets/lv_slider.c ****     /*Apply the paddings on the knob area*/
 436:..\..\..\arduinoLCD\test\Pain Drain\libraries\lvgl\src\widgets/lv_slider.c ****     knob_area->x1 -= knob_left + transf_w;
 437:..\..\..\arduinoLCD\test\Pain Drain\libraries\lvgl\src\widgets/lv_slider.c ****     knob_area->x2 += knob_right + transf_w;
 438:..\..\..\arduinoLCD\test\Pain Drain\libraries\lvgl\src\widgets/lv_slider.c ****     knob_area->y1 -= knob_top + transf_h;
 439:..\..\..\arduinoLCD\test\Pain Drain\libraries\lvgl\src\widgets/lv_slider.c ****     knob_area->y2 += knob_bottom + transf_h;
 440:..\..\..\arduinoLCD\test\Pain Drain\libraries\lvgl\src\widgets/lv_slider.c **** }
 441:..\..\..\arduinoLCD\test\Pain Drain\libraries\lvgl\src\widgets/lv_slider.c **** 
 442:..\..\..\arduinoLCD\test\Pain Drain\libraries\lvgl\src\widgets/lv_slider.c **** static bool is_slider_horizontal(lv_obj_t * obj)
 443:..\..\..\arduinoLCD\test\Pain Drain\libraries\lvgl\src\widgets/lv_slider.c **** {
  27              		.loc 1 443 0
  28              		.cfi_startproc
  29              		@ args = 0, pretend = 0, frame = 0
  30              		@ frame_needed = 0, uses_anonymous_args = 0
  31              	.LVL0:
  32 0000 70B5     		push	{r4, r5, r6, lr}
  33              		.cfi_def_cfa_offset 16
  34              		.cfi_offset 4, -16
  35              		.cfi_offset 5, -12
  36              		.cfi_offset 6, -8
  37              		.cfi_offset 14, -4
  38 0002 0500     		movs	r5, r0
 444:..\..\..\arduinoLCD\test\Pain Drain\libraries\lvgl\src\widgets/lv_slider.c ****     return lv_obj_get_width(obj) >= lv_obj_get_height(obj);
  39              		.loc 1 444 0
  40 0004 FFF7FEFF 		bl	lv_obj_get_width
  41              	.LVL1:
  42 0008 0400     		movs	r4, r0
  43 000a 2800     		movs	r0, r5
  44 000c FFF7FEFF 		bl	lv_obj_get_height
  45              	.LVL2:
  46 0010 0200     		movs	r2, r0
  47 0012 E017     		asrs	r0, r4, #31
  48 0014 D30F     		lsrs	r3, r2, #31
  49 0016 9442     		cmp	r4, r2
  50 0018 5841     		adcs	r0, r0, r3
  51 001a C0B2     		uxtb	r0, r0
 445:..\..\..\arduinoLCD\test\Pain Drain\libraries\lvgl\src\widgets/lv_slider.c **** }
  52              		.loc 1 445 0
  53              		@ sp needed
  54              	.LVL3:
  55 001c 70BD     		pop	{r4, r5, r6, pc}
  56              		.cfi_endproc
  57              	.LFE180:
  58              		.size	is_slider_horizontal, .-is_slider_horizontal
  59 001e C046     		.section	.text.position_knob,"ax",%progbits
  60              		.align	2
  61              		.code	16
  62              		.thumb_func
  63              		.type	position_knob, %function
  64              	position_knob:
  65              	.LFB179:
 413:..\..\..\arduinoLCD\test\Pain Drain\libraries\lvgl\src\widgets/lv_slider.c ****     if(hor) {
  66              		.loc 1 413 0
  67              		.cfi_startproc
ARM GAS  C:\Users\haske\AppData\Local\Temp\cc1ymag8.s 			page 10


  68              		@ args = 0, pretend = 0, frame = 0
  69              		@ frame_needed = 0, uses_anonymous_args = 0
  70              	.LVL4:
  71 0000 F8B5     		push	{r3, r4, r5, r6, r7, lr}
  72              		.cfi_def_cfa_offset 24
  73              		.cfi_offset 3, -24
  74              		.cfi_offset 4, -20
  75              		.cfi_offset 5, -16
  76              		.cfi_offset 6, -12
  77              		.cfi_offset 7, -8
  78              		.cfi_offset 14, -4
  79 0002 5F46     		mov	r7, fp
  80 0004 5646     		mov	r6, r10
  81 0006 4D46     		mov	r5, r9
  82 0008 4446     		mov	r4, r8
  83 000a F0B4     		push	{r4, r5, r6, r7}
  84              		.cfi_def_cfa_offset 40
  85              		.cfi_offset 8, -40
  86              		.cfi_offset 9, -36
  87              		.cfi_offset 10, -32
  88              		.cfi_offset 11, -28
  89 000c 0500     		movs	r5, r0
  90 000e 0C00     		movs	r4, r1
 414:..\..\..\arduinoLCD\test\Pain Drain\libraries\lvgl\src\widgets/lv_slider.c ****         knob_area->x1 -= (knob_size >> 1);
  91              		.loc 1 414 0
  92 0010 002B     		cmp	r3, #0
  93 0012 0ED0     		beq	.L3
 415:..\..\..\arduinoLCD\test\Pain Drain\libraries\lvgl\src\widgets/lv_slider.c ****         knob_area->x2 = knob_area->x1 + knob_size - 1;
  94              		.loc 1 415 0
  95 0014 5110     		asrs	r1, r2, #1
  96              	.LVL5:
  97 0016 2388     		ldrh	r3, [r4]
  98              	.LVL6:
  99 0018 5B1A     		subs	r3, r3, r1
 100 001a 9BB2     		uxth	r3, r3
 101 001c 2380     		strh	r3, [r4]
 416:..\..\..\arduinoLCD\test\Pain Drain\libraries\lvgl\src\widgets/lv_slider.c ****         knob_area->y1 = obj->coords.y1;
 102              		.loc 1 416 0
 103 001e 9A18     		adds	r2, r3, r2
 104              	.LVL7:
 105 0020 013A     		subs	r2, r2, #1
 106 0022 A280     		strh	r2, [r4, #4]
 417:..\..\..\arduinoLCD\test\Pain Drain\libraries\lvgl\src\widgets/lv_slider.c ****         knob_area->y2 = obj->coords.y2;
 107              		.loc 1 417 0
 108 0024 1622     		movs	r2, #22
 109 0026 835E     		ldrsh	r3, [r0, r2]
 110 0028 6380     		strh	r3, [r4, #2]
 418:..\..\..\arduinoLCD\test\Pain Drain\libraries\lvgl\src\widgets/lv_slider.c ****     }
 111              		.loc 1 418 0
 112 002a 1A22     		movs	r2, #26
 113 002c 835E     		ldrsh	r3, [r0, r2]
 114 002e E380     		strh	r3, [r4, #6]
 115 0030 0DE0     		b	.L4
 116              	.LVL8:
 117              	.L3:
 421:..\..\..\arduinoLCD\test\Pain Drain\libraries\lvgl\src\widgets/lv_slider.c ****         knob_area->y2 = knob_area->y1 + knob_size - 1;
 118              		.loc 1 421 0
ARM GAS  C:\Users\haske\AppData\Local\Temp\cc1ymag8.s 			page 11


 119 0032 5110     		asrs	r1, r2, #1
 120              	.LVL9:
 121 0034 6388     		ldrh	r3, [r4, #2]
 122              	.LVL10:
 123 0036 5B1A     		subs	r3, r3, r1
 124 0038 9BB2     		uxth	r3, r3
 125 003a 6380     		strh	r3, [r4, #2]
 422:..\..\..\arduinoLCD\test\Pain Drain\libraries\lvgl\src\widgets/lv_slider.c ****         knob_area->x1 = obj->coords.x1;
 126              		.loc 1 422 0
 127 003c 9A18     		adds	r2, r3, r2
 128              	.LVL11:
 129 003e 013A     		subs	r2, r2, #1
 130 0040 E280     		strh	r2, [r4, #6]
 423:..\..\..\arduinoLCD\test\Pain Drain\libraries\lvgl\src\widgets/lv_slider.c ****         knob_area->x2 = obj->coords.x2;
 131              		.loc 1 423 0
 132 0042 1422     		movs	r2, #20
 133 0044 835E     		ldrsh	r3, [r0, r2]
 134 0046 2380     		strh	r3, [r4]
 424:..\..\..\arduinoLCD\test\Pain Drain\libraries\lvgl\src\widgets/lv_slider.c ****     }
 135              		.loc 1 424 0
 136 0048 1822     		movs	r2, #24
 137 004a 835E     		ldrsh	r3, [r0, r2]
 138 004c A380     		strh	r3, [r4, #4]
 139              	.L4:
 140              	.LVL12:
 141              	.LBB83:
 142              	.LBB84:
 143              		.file 2 "..\\..\\..\\arduinoLCD\\test\\Pain Drain\\libraries\\lvgl\\src\\widgets\\../core/lv_obj_s
   1:..\..\..\arduinoLCD\test\Pain Drain\libraries\lvgl\src\widgets\../core/lv_obj_style_gen.h **** static inline lv_coord_t lv_obj_get_style_width(const struct _lv_obj_t * obj, uint32_t part)
   2:..\..\..\arduinoLCD\test\Pain Drain\libraries\lvgl\src\widgets\../core/lv_obj_style_gen.h **** {
   3:..\..\..\arduinoLCD\test\Pain Drain\libraries\lvgl\src\widgets\../core/lv_obj_style_gen.h ****     lv_style_value_t v = lv_obj_get_style_prop(obj, part, LV_STYLE_WIDTH);
   4:..\..\..\arduinoLCD\test\Pain Drain\libraries\lvgl\src\widgets\../core/lv_obj_style_gen.h ****     return (lv_coord_t)v.num;
   5:..\..\..\arduinoLCD\test\Pain Drain\libraries\lvgl\src\widgets\../core/lv_obj_style_gen.h **** }
   6:..\..\..\arduinoLCD\test\Pain Drain\libraries\lvgl\src\widgets\../core/lv_obj_style_gen.h **** 
   7:..\..\..\arduinoLCD\test\Pain Drain\libraries\lvgl\src\widgets\../core/lv_obj_style_gen.h **** static inline lv_coord_t lv_obj_get_style_min_width(const struct _lv_obj_t * obj, uint32_t part)
   8:..\..\..\arduinoLCD\test\Pain Drain\libraries\lvgl\src\widgets\../core/lv_obj_style_gen.h **** {
   9:..\..\..\arduinoLCD\test\Pain Drain\libraries\lvgl\src\widgets\../core/lv_obj_style_gen.h ****     lv_style_value_t v = lv_obj_get_style_prop(obj, part, LV_STYLE_MIN_WIDTH);
  10:..\..\..\arduinoLCD\test\Pain Drain\libraries\lvgl\src\widgets\../core/lv_obj_style_gen.h ****     return (lv_coord_t)v.num;
  11:..\..\..\arduinoLCD\test\Pain Drain\libraries\lvgl\src\widgets\../core/lv_obj_style_gen.h **** }
  12:..\..\..\arduinoLCD\test\Pain Drain\libraries\lvgl\src\widgets\../core/lv_obj_style_gen.h **** 
  13:..\..\..\arduinoLCD\test\Pain Drain\libraries\lvgl\src\widgets\../core/lv_obj_style_gen.h **** static inline lv_coord_t lv_obj_get_style_max_width(const struct _lv_obj_t * obj, uint32_t part)
  14:..\..\..\arduinoLCD\test\Pain Drain\libraries\lvgl\src\widgets\../core/lv_obj_style_gen.h **** {
  15:..\..\..\arduinoLCD\test\Pain Drain\libraries\lvgl\src\widgets\../core/lv_obj_style_gen.h ****     lv_style_value_t v = lv_obj_get_style_prop(obj, part, LV_STYLE_MAX_WIDTH);
  16:..\..\..\arduinoLCD\test\Pain Drain\libraries\lvgl\src\widgets\../core/lv_obj_style_gen.h ****     return (lv_coord_t)v.num;
  17:..\..\..\arduinoLCD\test\Pain Drain\libraries\lvgl\src\widgets\../core/lv_obj_style_gen.h **** }
  18:..\..\..\arduinoLCD\test\Pain Drain\libraries\lvgl\src\widgets\../core/lv_obj_style_gen.h **** 
  19:..\..\..\arduinoLCD\test\Pain Drain\libraries\lvgl\src\widgets\../core/lv_obj_style_gen.h **** static inline lv_coord_t lv_obj_get_style_height(const struct _lv_obj_t * obj, uint32_t part)
  20:..\..\..\arduinoLCD\test\Pain Drain\libraries\lvgl\src\widgets\../core/lv_obj_style_gen.h **** {
  21:..\..\..\arduinoLCD\test\Pain Drain\libraries\lvgl\src\widgets\../core/lv_obj_style_gen.h ****     lv_style_value_t v = lv_obj_get_style_prop(obj, part, LV_STYLE_HEIGHT);
  22:..\..\..\arduinoLCD\test\Pain Drain\libraries\lvgl\src\widgets\../core/lv_obj_style_gen.h ****     return (lv_coord_t)v.num;
  23:..\..\..\arduinoLCD\test\Pain Drain\libraries\lvgl\src\widgets\../core/lv_obj_style_gen.h **** }
  24:..\..\..\arduinoLCD\test\Pain Drain\libraries\lvgl\src\widgets\../core/lv_obj_style_gen.h **** 
  25:..\..\..\arduinoLCD\test\Pain Drain\libraries\lvgl\src\widgets\../core/lv_obj_style_gen.h **** static inline lv_coord_t lv_obj_get_style_min_height(const struct _lv_obj_t * obj, uint32_t part)
  26:..\..\..\arduinoLCD\test\Pain Drain\libraries\lvgl\src\widgets\../core/lv_obj_style_gen.h **** {
  27:..\..\..\arduinoLCD\test\Pain Drain\libraries\lvgl\src\widgets\../core/lv_obj_style_gen.h ****     lv_style_value_t v = lv_obj_get_style_prop(obj, part, LV_STYLE_MIN_HEIGHT);
  28:..\..\..\arduinoLCD\test\Pain Drain\libraries\lvgl\src\widgets\../core/lv_obj_style_gen.h ****     return (lv_coord_t)v.num;
  29:..\..\..\arduinoLCD\test\Pain Drain\libraries\lvgl\src\widgets\../core/lv_obj_style_gen.h **** }
ARM GAS  C:\Users\haske\AppData\Local\Temp\cc1ymag8.s 			page 12


  30:..\..\..\arduinoLCD\test\Pain Drain\libraries\lvgl\src\widgets\../core/lv_obj_style_gen.h **** 
  31:..\..\..\arduinoLCD\test\Pain Drain\libraries\lvgl\src\widgets\../core/lv_obj_style_gen.h **** static inline lv_coord_t lv_obj_get_style_max_height(const struct _lv_obj_t * obj, uint32_t part)
  32:..\..\..\arduinoLCD\test\Pain Drain\libraries\lvgl\src\widgets\../core/lv_obj_style_gen.h **** {
  33:..\..\..\arduinoLCD\test\Pain Drain\libraries\lvgl\src\widgets\../core/lv_obj_style_gen.h ****     lv_style_value_t v = lv_obj_get_style_prop(obj, part, LV_STYLE_MAX_HEIGHT);
  34:..\..\..\arduinoLCD\test\Pain Drain\libraries\lvgl\src\widgets\../core/lv_obj_style_gen.h ****     return (lv_coord_t)v.num;
  35:..\..\..\arduinoLCD\test\Pain Drain\libraries\lvgl\src\widgets\../core/lv_obj_style_gen.h **** }
  36:..\..\..\arduinoLCD\test\Pain Drain\libraries\lvgl\src\widgets\../core/lv_obj_style_gen.h **** 
  37:..\..\..\arduinoLCD\test\Pain Drain\libraries\lvgl\src\widgets\../core/lv_obj_style_gen.h **** static inline lv_coord_t lv_obj_get_style_x(const struct _lv_obj_t * obj, uint32_t part)
  38:..\..\..\arduinoLCD\test\Pain Drain\libraries\lvgl\src\widgets\../core/lv_obj_style_gen.h **** {
  39:..\..\..\arduinoLCD\test\Pain Drain\libraries\lvgl\src\widgets\../core/lv_obj_style_gen.h ****     lv_style_value_t v = lv_obj_get_style_prop(obj, part, LV_STYLE_X);
  40:..\..\..\arduinoLCD\test\Pain Drain\libraries\lvgl\src\widgets\../core/lv_obj_style_gen.h ****     return (lv_coord_t)v.num;
  41:..\..\..\arduinoLCD\test\Pain Drain\libraries\lvgl\src\widgets\../core/lv_obj_style_gen.h **** }
  42:..\..\..\arduinoLCD\test\Pain Drain\libraries\lvgl\src\widgets\../core/lv_obj_style_gen.h **** 
  43:..\..\..\arduinoLCD\test\Pain Drain\libraries\lvgl\src\widgets\../core/lv_obj_style_gen.h **** static inline lv_coord_t lv_obj_get_style_y(const struct _lv_obj_t * obj, uint32_t part)
  44:..\..\..\arduinoLCD\test\Pain Drain\libraries\lvgl\src\widgets\../core/lv_obj_style_gen.h **** {
  45:..\..\..\arduinoLCD\test\Pain Drain\libraries\lvgl\src\widgets\../core/lv_obj_style_gen.h ****     lv_style_value_t v = lv_obj_get_style_prop(obj, part, LV_STYLE_Y);
  46:..\..\..\arduinoLCD\test\Pain Drain\libraries\lvgl\src\widgets\../core/lv_obj_style_gen.h ****     return (lv_coord_t)v.num;
  47:..\..\..\arduinoLCD\test\Pain Drain\libraries\lvgl\src\widgets\../core/lv_obj_style_gen.h **** }
  48:..\..\..\arduinoLCD\test\Pain Drain\libraries\lvgl\src\widgets\../core/lv_obj_style_gen.h **** 
  49:..\..\..\arduinoLCD\test\Pain Drain\libraries\lvgl\src\widgets\../core/lv_obj_style_gen.h **** static inline lv_align_t lv_obj_get_style_align(const struct _lv_obj_t * obj, uint32_t part)
  50:..\..\..\arduinoLCD\test\Pain Drain\libraries\lvgl\src\widgets\../core/lv_obj_style_gen.h **** {
  51:..\..\..\arduinoLCD\test\Pain Drain\libraries\lvgl\src\widgets\../core/lv_obj_style_gen.h ****     lv_style_value_t v = lv_obj_get_style_prop(obj, part, LV_STYLE_ALIGN);
  52:..\..\..\arduinoLCD\test\Pain Drain\libraries\lvgl\src\widgets\../core/lv_obj_style_gen.h ****     return (lv_align_t)v.num;
  53:..\..\..\arduinoLCD\test\Pain Drain\libraries\lvgl\src\widgets\../core/lv_obj_style_gen.h **** }
  54:..\..\..\arduinoLCD\test\Pain Drain\libraries\lvgl\src\widgets\../core/lv_obj_style_gen.h **** 
  55:..\..\..\arduinoLCD\test\Pain Drain\libraries\lvgl\src\widgets\../core/lv_obj_style_gen.h **** static inline lv_coord_t lv_obj_get_style_transform_width(const struct _lv_obj_t * obj, uint32_t pa
  56:..\..\..\arduinoLCD\test\Pain Drain\libraries\lvgl\src\widgets\../core/lv_obj_style_gen.h **** {
  57:..\..\..\arduinoLCD\test\Pain Drain\libraries\lvgl\src\widgets\../core/lv_obj_style_gen.h ****     lv_style_value_t v = lv_obj_get_style_prop(obj, part, LV_STYLE_TRANSFORM_WIDTH);
  58:..\..\..\arduinoLCD\test\Pain Drain\libraries\lvgl\src\widgets\../core/lv_obj_style_gen.h ****     return (lv_coord_t)v.num;
  59:..\..\..\arduinoLCD\test\Pain Drain\libraries\lvgl\src\widgets\../core/lv_obj_style_gen.h **** }
  60:..\..\..\arduinoLCD\test\Pain Drain\libraries\lvgl\src\widgets\../core/lv_obj_style_gen.h **** 
  61:..\..\..\arduinoLCD\test\Pain Drain\libraries\lvgl\src\widgets\../core/lv_obj_style_gen.h **** static inline lv_coord_t lv_obj_get_style_transform_height(const struct _lv_obj_t * obj, uint32_t p
  62:..\..\..\arduinoLCD\test\Pain Drain\libraries\lvgl\src\widgets\../core/lv_obj_style_gen.h **** {
  63:..\..\..\arduinoLCD\test\Pain Drain\libraries\lvgl\src\widgets\../core/lv_obj_style_gen.h ****     lv_style_value_t v = lv_obj_get_style_prop(obj, part, LV_STYLE_TRANSFORM_HEIGHT);
  64:..\..\..\arduinoLCD\test\Pain Drain\libraries\lvgl\src\widgets\../core/lv_obj_style_gen.h ****     return (lv_coord_t)v.num;
  65:..\..\..\arduinoLCD\test\Pain Drain\libraries\lvgl\src\widgets\../core/lv_obj_style_gen.h **** }
  66:..\..\..\arduinoLCD\test\Pain Drain\libraries\lvgl\src\widgets\../core/lv_obj_style_gen.h **** 
  67:..\..\..\arduinoLCD\test\Pain Drain\libraries\lvgl\src\widgets\../core/lv_obj_style_gen.h **** static inline lv_coord_t lv_obj_get_style_translate_x(const struct _lv_obj_t * obj, uint32_t part)
  68:..\..\..\arduinoLCD\test\Pain Drain\libraries\lvgl\src\widgets\../core/lv_obj_style_gen.h **** {
  69:..\..\..\arduinoLCD\test\Pain Drain\libraries\lvgl\src\widgets\../core/lv_obj_style_gen.h ****     lv_style_value_t v = lv_obj_get_style_prop(obj, part, LV_STYLE_TRANSLATE_X);
  70:..\..\..\arduinoLCD\test\Pain Drain\libraries\lvgl\src\widgets\../core/lv_obj_style_gen.h ****     return (lv_coord_t)v.num;
  71:..\..\..\arduinoLCD\test\Pain Drain\libraries\lvgl\src\widgets\../core/lv_obj_style_gen.h **** }
  72:..\..\..\arduinoLCD\test\Pain Drain\libraries\lvgl\src\widgets\../core/lv_obj_style_gen.h **** 
  73:..\..\..\arduinoLCD\test\Pain Drain\libraries\lvgl\src\widgets\../core/lv_obj_style_gen.h **** static inline lv_coord_t lv_obj_get_style_translate_y(const struct _lv_obj_t * obj, uint32_t part)
  74:..\..\..\arduinoLCD\test\Pain Drain\libraries\lvgl\src\widgets\../core/lv_obj_style_gen.h **** {
  75:..\..\..\arduinoLCD\test\Pain Drain\libraries\lvgl\src\widgets\../core/lv_obj_style_gen.h ****     lv_style_value_t v = lv_obj_get_style_prop(obj, part, LV_STYLE_TRANSLATE_Y);
  76:..\..\..\arduinoLCD\test\Pain Drain\libraries\lvgl\src\widgets\../core/lv_obj_style_gen.h ****     return (lv_coord_t)v.num;
  77:..\..\..\arduinoLCD\test\Pain Drain\libraries\lvgl\src\widgets\../core/lv_obj_style_gen.h **** }
  78:..\..\..\arduinoLCD\test\Pain Drain\libraries\lvgl\src\widgets\../core/lv_obj_style_gen.h **** 
  79:..\..\..\arduinoLCD\test\Pain Drain\libraries\lvgl\src\widgets\../core/lv_obj_style_gen.h **** static inline lv_coord_t lv_obj_get_style_transform_zoom(const struct _lv_obj_t * obj, uint32_t par
  80:..\..\..\arduinoLCD\test\Pain Drain\libraries\lvgl\src\widgets\../core/lv_obj_style_gen.h **** {
  81:..\..\..\arduinoLCD\test\Pain Drain\libraries\lvgl\src\widgets\../core/lv_obj_style_gen.h ****     lv_style_value_t v = lv_obj_get_style_prop(obj, part, LV_STYLE_TRANSFORM_ZOOM);
  82:..\..\..\arduinoLCD\test\Pain Drain\libraries\lvgl\src\widgets\../core/lv_obj_style_gen.h ****     return (lv_coord_t)v.num;
  83:..\..\..\arduinoLCD\test\Pain Drain\libraries\lvgl\src\widgets\../core/lv_obj_style_gen.h **** }
  84:..\..\..\arduinoLCD\test\Pain Drain\libraries\lvgl\src\widgets\../core/lv_obj_style_gen.h **** 
  85:..\..\..\arduinoLCD\test\Pain Drain\libraries\lvgl\src\widgets\../core/lv_obj_style_gen.h **** static inline lv_coord_t lv_obj_get_style_transform_angle(const struct _lv_obj_t * obj, uint32_t pa
  86:..\..\..\arduinoLCD\test\Pain Drain\libraries\lvgl\src\widgets\../core/lv_obj_style_gen.h **** {
ARM GAS  C:\Users\haske\AppData\Local\Temp\cc1ymag8.s 			page 13


  87:..\..\..\arduinoLCD\test\Pain Drain\libraries\lvgl\src\widgets\../core/lv_obj_style_gen.h ****     lv_style_value_t v = lv_obj_get_style_prop(obj, part, LV_STYLE_TRANSFORM_ANGLE);
  88:..\..\..\arduinoLCD\test\Pain Drain\libraries\lvgl\src\widgets\../core/lv_obj_style_gen.h ****     return (lv_coord_t)v.num;
  89:..\..\..\arduinoLCD\test\Pain Drain\libraries\lvgl\src\widgets\../core/lv_obj_style_gen.h **** }
  90:..\..\..\arduinoLCD\test\Pain Drain\libraries\lvgl\src\widgets\../core/lv_obj_style_gen.h **** 
  91:..\..\..\arduinoLCD\test\Pain Drain\libraries\lvgl\src\widgets\../core/lv_obj_style_gen.h **** static inline lv_coord_t lv_obj_get_style_transform_pivot_x(const struct _lv_obj_t * obj, uint32_t 
  92:..\..\..\arduinoLCD\test\Pain Drain\libraries\lvgl\src\widgets\../core/lv_obj_style_gen.h **** {
  93:..\..\..\arduinoLCD\test\Pain Drain\libraries\lvgl\src\widgets\../core/lv_obj_style_gen.h ****     lv_style_value_t v = lv_obj_get_style_prop(obj, part, LV_STYLE_TRANSFORM_PIVOT_X);
  94:..\..\..\arduinoLCD\test\Pain Drain\libraries\lvgl\src\widgets\../core/lv_obj_style_gen.h ****     return (lv_coord_t)v.num;
  95:..\..\..\arduinoLCD\test\Pain Drain\libraries\lvgl\src\widgets\../core/lv_obj_style_gen.h **** }
  96:..\..\..\arduinoLCD\test\Pain Drain\libraries\lvgl\src\widgets\../core/lv_obj_style_gen.h **** 
  97:..\..\..\arduinoLCD\test\Pain Drain\libraries\lvgl\src\widgets\../core/lv_obj_style_gen.h **** static inline lv_coord_t lv_obj_get_style_transform_pivot_y(const struct _lv_obj_t * obj, uint32_t 
  98:..\..\..\arduinoLCD\test\Pain Drain\libraries\lvgl\src\widgets\../core/lv_obj_style_gen.h **** {
  99:..\..\..\arduinoLCD\test\Pain Drain\libraries\lvgl\src\widgets\../core/lv_obj_style_gen.h ****     lv_style_value_t v = lv_obj_get_style_prop(obj, part, LV_STYLE_TRANSFORM_PIVOT_Y);
 100:..\..\..\arduinoLCD\test\Pain Drain\libraries\lvgl\src\widgets\../core/lv_obj_style_gen.h ****     return (lv_coord_t)v.num;
 101:..\..\..\arduinoLCD\test\Pain Drain\libraries\lvgl\src\widgets\../core/lv_obj_style_gen.h **** }
 102:..\..\..\arduinoLCD\test\Pain Drain\libraries\lvgl\src\widgets\../core/lv_obj_style_gen.h **** 
 103:..\..\..\arduinoLCD\test\Pain Drain\libraries\lvgl\src\widgets\../core/lv_obj_style_gen.h **** static inline lv_coord_t lv_obj_get_style_pad_top(const struct _lv_obj_t * obj, uint32_t part)
 104:..\..\..\arduinoLCD\test\Pain Drain\libraries\lvgl\src\widgets\../core/lv_obj_style_gen.h **** {
 105:..\..\..\arduinoLCD\test\Pain Drain\libraries\lvgl\src\widgets\../core/lv_obj_style_gen.h ****     lv_style_value_t v = lv_obj_get_style_prop(obj, part, LV_STYLE_PAD_TOP);
 106:..\..\..\arduinoLCD\test\Pain Drain\libraries\lvgl\src\widgets\../core/lv_obj_style_gen.h ****     return (lv_coord_t)v.num;
 107:..\..\..\arduinoLCD\test\Pain Drain\libraries\lvgl\src\widgets\../core/lv_obj_style_gen.h **** }
 108:..\..\..\arduinoLCD\test\Pain Drain\libraries\lvgl\src\widgets\../core/lv_obj_style_gen.h **** 
 109:..\..\..\arduinoLCD\test\Pain Drain\libraries\lvgl\src\widgets\../core/lv_obj_style_gen.h **** static inline lv_coord_t lv_obj_get_style_pad_bottom(const struct _lv_obj_t * obj, uint32_t part)
 110:..\..\..\arduinoLCD\test\Pain Drain\libraries\lvgl\src\widgets\../core/lv_obj_style_gen.h **** {
 111:..\..\..\arduinoLCD\test\Pain Drain\libraries\lvgl\src\widgets\../core/lv_obj_style_gen.h ****     lv_style_value_t v = lv_obj_get_style_prop(obj, part, LV_STYLE_PAD_BOTTOM);
 112:..\..\..\arduinoLCD\test\Pain Drain\libraries\lvgl\src\widgets\../core/lv_obj_style_gen.h ****     return (lv_coord_t)v.num;
 113:..\..\..\arduinoLCD\test\Pain Drain\libraries\lvgl\src\widgets\../core/lv_obj_style_gen.h **** }
 114:..\..\..\arduinoLCD\test\Pain Drain\libraries\lvgl\src\widgets\../core/lv_obj_style_gen.h **** 
 115:..\..\..\arduinoLCD\test\Pain Drain\libraries\lvgl\src\widgets\../core/lv_obj_style_gen.h **** static inline lv_coord_t lv_obj_get_style_pad_left(const struct _lv_obj_t * obj, uint32_t part)
 116:..\..\..\arduinoLCD\test\Pain Drain\libraries\lvgl\src\widgets\../core/lv_obj_style_gen.h **** {
 117:..\..\..\arduinoLCD\test\Pain Drain\libraries\lvgl\src\widgets\../core/lv_obj_style_gen.h ****     lv_style_value_t v = lv_obj_get_style_prop(obj, part, LV_STYLE_PAD_LEFT);
 144              		.loc 2 117 0
 145 004e C026     		movs	r6, #192
 146 0050 B602     		lsls	r6, r6, #10
 147 0052 1222     		movs	r2, #18
 148 0054 3100     		movs	r1, r6
 149 0056 2800     		movs	r0, r5
 150              	.LVL13:
 151 0058 FFF7FEFF 		bl	lv_obj_get_style_prop
 152              	.LVL14:
 153 005c 8346     		mov	fp, r0
 154              	.LVL15:
 155              	.LBE84:
 156              	.LBE83:
 157              	.LBB85:
 158              	.LBB86:
 118:..\..\..\arduinoLCD\test\Pain Drain\libraries\lvgl\src\widgets\../core/lv_obj_style_gen.h ****     return (lv_coord_t)v.num;
 119:..\..\..\arduinoLCD\test\Pain Drain\libraries\lvgl\src\widgets\../core/lv_obj_style_gen.h **** }
 120:..\..\..\arduinoLCD\test\Pain Drain\libraries\lvgl\src\widgets\../core/lv_obj_style_gen.h **** 
 121:..\..\..\arduinoLCD\test\Pain Drain\libraries\lvgl\src\widgets\../core/lv_obj_style_gen.h **** static inline lv_coord_t lv_obj_get_style_pad_right(const struct _lv_obj_t * obj, uint32_t part)
 122:..\..\..\arduinoLCD\test\Pain Drain\libraries\lvgl\src\widgets\../core/lv_obj_style_gen.h **** {
 123:..\..\..\arduinoLCD\test\Pain Drain\libraries\lvgl\src\widgets\../core/lv_obj_style_gen.h ****     lv_style_value_t v = lv_obj_get_style_prop(obj, part, LV_STYLE_PAD_RIGHT);
 159              		.loc 2 123 0
 160 005e 1322     		movs	r2, #19
 161 0060 3100     		movs	r1, r6
 162 0062 2800     		movs	r0, r5
 163 0064 FFF7FEFF 		bl	lv_obj_get_style_prop
ARM GAS  C:\Users\haske\AppData\Local\Temp\cc1ymag8.s 			page 14


 164              	.LVL16:
 165 0068 8146     		mov	r9, r0
 166              	.LVL17:
 167              	.LBE86:
 168              	.LBE85:
 169              	.LBB87:
 170              	.LBB88:
 105:..\..\..\arduinoLCD\test\Pain Drain\libraries\lvgl\src\widgets\../core/lv_obj_style_gen.h ****     return (lv_coord_t)v.num;
 171              		.loc 2 105 0
 172 006a 1022     		movs	r2, #16
 173 006c 3100     		movs	r1, r6
 174 006e 2800     		movs	r0, r5
 175 0070 FFF7FEFF 		bl	lv_obj_get_style_prop
 176              	.LVL18:
 177 0074 8246     		mov	r10, r0
 178              	.LVL19:
 179              	.LBE88:
 180              	.LBE87:
 181              	.LBB89:
 182              	.LBB90:
 111:..\..\..\arduinoLCD\test\Pain Drain\libraries\lvgl\src\widgets\../core/lv_obj_style_gen.h ****     return (lv_coord_t)v.num;
 183              		.loc 2 111 0
 184 0076 1122     		movs	r2, #17
 185 0078 3100     		movs	r1, r6
 186 007a 2800     		movs	r0, r5
 187 007c FFF7FEFF 		bl	lv_obj_get_style_prop
 188              	.LVL20:
 189 0080 8046     		mov	r8, r0
 190              	.LVL21:
 191              	.LBE90:
 192              	.LBE89:
 193              	.LBB91:
 194              	.LBB92:
  57:..\..\..\arduinoLCD\test\Pain Drain\libraries\lvgl\src\widgets\../core/lv_obj_style_gen.h ****     return (lv_coord_t)v.num;
 195              		.loc 2 57 0
 196 0082 6822     		movs	r2, #104
 197 0084 3100     		movs	r1, r6
 198 0086 2800     		movs	r0, r5
 199 0088 FFF7FEFF 		bl	lv_obj_get_style_prop
 200              	.LVL22:
 201 008c 0700     		movs	r7, r0
 202              	.LVL23:
 203              	.LBE92:
 204              	.LBE91:
 205              	.LBB93:
 206              	.LBB94:
  63:..\..\..\arduinoLCD\test\Pain Drain\libraries\lvgl\src\widgets\../core/lv_obj_style_gen.h ****     return (lv_coord_t)v.num;
 207              		.loc 2 63 0
 208 008e 6922     		movs	r2, #105
 209 0090 3100     		movs	r1, r6
 210 0092 2800     		movs	r0, r5
 211 0094 FFF7FEFF 		bl	lv_obj_get_style_prop
 212              	.LVL24:
 213              	.LBE94:
 214              	.LBE93:
 436:..\..\..\arduinoLCD\test\Pain Drain\libraries\lvgl\src\widgets/lv_slider.c ****     knob_area->x2 += knob_right + transf_w;
 215              		.loc 1 436 0
ARM GAS  C:\Users\haske\AppData\Local\Temp\cc1ymag8.s 			page 15


 216 0098 BFB2     		uxth	r7, r7
 217              	.LVL25:
 218 009a 5B46     		mov	r3, fp
 219 009c FA18     		adds	r2, r7, r3
 220 009e 2388     		ldrh	r3, [r4]
 221 00a0 9B1A     		subs	r3, r3, r2
 222 00a2 2380     		strh	r3, [r4]
 223              	.LVL26:
 437:..\..\..\arduinoLCD\test\Pain Drain\libraries\lvgl\src\widgets/lv_slider.c ****     knob_area->y1 -= knob_top + transf_h;
 224              		.loc 1 437 0
 225 00a4 4F44     		add	r7, r7, r9
 226 00a6 A388     		ldrh	r3, [r4, #4]
 227 00a8 DF19     		adds	r7, r3, r7
 228 00aa A780     		strh	r7, [r4, #4]
 229              	.LVL27:
 438:..\..\..\arduinoLCD\test\Pain Drain\libraries\lvgl\src\widgets/lv_slider.c ****     knob_area->y2 += knob_bottom + transf_h;
 230              		.loc 1 438 0
 231 00ac 80B2     		uxth	r0, r0
 232              	.LVL28:
 233 00ae 5346     		mov	r3, r10
 234 00b0 C218     		adds	r2, r0, r3
 235 00b2 6388     		ldrh	r3, [r4, #2]
 236 00b4 9B1A     		subs	r3, r3, r2
 237 00b6 6380     		strh	r3, [r4, #2]
 238              	.LVL29:
 439:..\..\..\arduinoLCD\test\Pain Drain\libraries\lvgl\src\widgets/lv_slider.c **** }
 239              		.loc 1 439 0
 240 00b8 4044     		add	r0, r0, r8
 241 00ba E388     		ldrh	r3, [r4, #6]
 242 00bc 1818     		adds	r0, r3, r0
 243 00be E080     		strh	r0, [r4, #6]
 440:..\..\..\arduinoLCD\test\Pain Drain\libraries\lvgl\src\widgets/lv_slider.c **** 
 244              		.loc 1 440 0
 245              		@ sp needed
 246              	.LVL30:
 247              	.LVL31:
 248              	.LVL32:
 249              	.LVL33:
 250              	.LVL34:
 251              	.LVL35:
 252 00c0 3CBC     		pop	{r2, r3, r4, r5}
 253 00c2 9046     		mov	r8, r2
 254 00c4 9946     		mov	r9, r3
 255 00c6 A246     		mov	r10, r4
 256 00c8 AB46     		mov	fp, r5
 257 00ca F8BD     		pop	{r3, r4, r5, r6, r7, pc}
 258              		.cfi_endproc
 259              	.LFE179:
 260              		.size	position_knob, .-position_knob
 261              		.section	.text.draw_knob,"ax",%progbits
 262              		.align	2
 263              		.code	16
 264              		.thumb_func
 265              		.type	draw_knob, %function
 266              	draw_knob:
 267              	.LFB178:
 333:..\..\..\arduinoLCD\test\Pain Drain\libraries\lvgl\src\widgets/lv_slider.c ****     lv_obj_t * obj = lv_event_get_target(e);
ARM GAS  C:\Users\haske\AppData\Local\Temp\cc1ymag8.s 			page 16


 268              		.loc 1 333 0
 269              		.cfi_startproc
 270              		@ args = 0, pretend = 0, frame = 208
 271              		@ frame_needed = 0, uses_anonymous_args = 0
 272              	.LVL36:
 273 0000 F0B5     		push	{r4, r5, r6, r7, lr}
 274              		.cfi_def_cfa_offset 20
 275              		.cfi_offset 4, -20
 276              		.cfi_offset 5, -16
 277              		.cfi_offset 6, -12
 278              		.cfi_offset 7, -8
 279              		.cfi_offset 14, -4
 280 0002 5F46     		mov	r7, fp
 281 0004 5646     		mov	r6, r10
 282 0006 4546     		mov	r5, r8
 283 0008 E0B4     		push	{r5, r6, r7}
 284              		.cfi_def_cfa_offset 32
 285              		.cfi_offset 8, -32
 286              		.cfi_offset 10, -28
 287              		.cfi_offset 11, -24
 288 000a B4B0     		sub	sp, sp, #208
 289              		.cfi_def_cfa_offset 240
 290 000c 0500     		movs	r5, r0
 334:..\..\..\arduinoLCD\test\Pain Drain\libraries\lvgl\src\widgets/lv_slider.c ****     lv_slider_t * slider = (lv_slider_t *)obj;
 291              		.loc 1 334 0
 292 000e FFF7FEFF 		bl	lv_event_get_target
 293              	.LVL37:
 294 0012 0400     		movs	r4, r0
 295              	.LVL38:
 336:..\..\..\arduinoLCD\test\Pain Drain\libraries\lvgl\src\widgets/lv_slider.c **** 
 296              		.loc 1 336 0
 297 0014 2800     		movs	r0, r5
 298              	.LVL39:
 299 0016 FFF7FEFF 		bl	lv_event_get_draw_ctx
 300              	.LVL40:
 301 001a 0190     		str	r0, [sp, #4]
 302              	.LVL41:
 303              	.LBB95:
 304              	.LBB96:
 124:..\..\..\arduinoLCD\test\Pain Drain\libraries\lvgl\src\widgets\../core/lv_obj_style_gen.h ****     return (lv_coord_t)v.num;
 125:..\..\..\arduinoLCD\test\Pain Drain\libraries\lvgl\src\widgets\../core/lv_obj_style_gen.h **** }
 126:..\..\..\arduinoLCD\test\Pain Drain\libraries\lvgl\src\widgets\../core/lv_obj_style_gen.h **** 
 127:..\..\..\arduinoLCD\test\Pain Drain\libraries\lvgl\src\widgets\../core/lv_obj_style_gen.h **** static inline lv_coord_t lv_obj_get_style_pad_row(const struct _lv_obj_t * obj, uint32_t part)
 128:..\..\..\arduinoLCD\test\Pain Drain\libraries\lvgl\src\widgets\../core/lv_obj_style_gen.h **** {
 129:..\..\..\arduinoLCD\test\Pain Drain\libraries\lvgl\src\widgets\../core/lv_obj_style_gen.h ****     lv_style_value_t v = lv_obj_get_style_prop(obj, part, LV_STYLE_PAD_ROW);
 130:..\..\..\arduinoLCD\test\Pain Drain\libraries\lvgl\src\widgets\../core/lv_obj_style_gen.h ****     return (lv_coord_t)v.num;
 131:..\..\..\arduinoLCD\test\Pain Drain\libraries\lvgl\src\widgets\../core/lv_obj_style_gen.h **** }
 132:..\..\..\arduinoLCD\test\Pain Drain\libraries\lvgl\src\widgets\../core/lv_obj_style_gen.h **** 
 133:..\..\..\arduinoLCD\test\Pain Drain\libraries\lvgl\src\widgets\../core/lv_obj_style_gen.h **** static inline lv_coord_t lv_obj_get_style_pad_column(const struct _lv_obj_t * obj, uint32_t part)
 134:..\..\..\arduinoLCD\test\Pain Drain\libraries\lvgl\src\widgets\../core/lv_obj_style_gen.h **** {
 135:..\..\..\arduinoLCD\test\Pain Drain\libraries\lvgl\src\widgets\../core/lv_obj_style_gen.h ****     lv_style_value_t v = lv_obj_get_style_prop(obj, part, LV_STYLE_PAD_COLUMN);
 136:..\..\..\arduinoLCD\test\Pain Drain\libraries\lvgl\src\widgets\../core/lv_obj_style_gen.h ****     return (lv_coord_t)v.num;
 137:..\..\..\arduinoLCD\test\Pain Drain\libraries\lvgl\src\widgets\../core/lv_obj_style_gen.h **** }
 138:..\..\..\arduinoLCD\test\Pain Drain\libraries\lvgl\src\widgets\../core/lv_obj_style_gen.h **** 
 139:..\..\..\arduinoLCD\test\Pain Drain\libraries\lvgl\src\widgets\../core/lv_obj_style_gen.h **** static inline lv_color_t lv_obj_get_style_bg_color(const struct _lv_obj_t * obj, uint32_t part)
 140:..\..\..\arduinoLCD\test\Pain Drain\libraries\lvgl\src\widgets\../core/lv_obj_style_gen.h **** {
 141:..\..\..\arduinoLCD\test\Pain Drain\libraries\lvgl\src\widgets\../core/lv_obj_style_gen.h ****     lv_style_value_t v = lv_obj_get_style_prop(obj, part, LV_STYLE_BG_COLOR);
ARM GAS  C:\Users\haske\AppData\Local\Temp\cc1ymag8.s 			page 17


 142:..\..\..\arduinoLCD\test\Pain Drain\libraries\lvgl\src\widgets\../core/lv_obj_style_gen.h ****     return v.color;
 143:..\..\..\arduinoLCD\test\Pain Drain\libraries\lvgl\src\widgets\../core/lv_obj_style_gen.h **** }
 144:..\..\..\arduinoLCD\test\Pain Drain\libraries\lvgl\src\widgets\../core/lv_obj_style_gen.h **** 
 145:..\..\..\arduinoLCD\test\Pain Drain\libraries\lvgl\src\widgets\../core/lv_obj_style_gen.h **** static inline lv_color_t lv_obj_get_style_bg_color_filtered(const struct _lv_obj_t * obj, uint32_t 
 146:..\..\..\arduinoLCD\test\Pain Drain\libraries\lvgl\src\widgets\../core/lv_obj_style_gen.h **** {
 147:..\..\..\arduinoLCD\test\Pain Drain\libraries\lvgl\src\widgets\../core/lv_obj_style_gen.h ****     lv_style_value_t v = _lv_obj_style_apply_color_filter(obj, part, lv_obj_get_style_prop(obj, par
 148:..\..\..\arduinoLCD\test\Pain Drain\libraries\lvgl\src\widgets\../core/lv_obj_style_gen.h ****     return v.color;
 149:..\..\..\arduinoLCD\test\Pain Drain\libraries\lvgl\src\widgets\../core/lv_obj_style_gen.h **** }
 150:..\..\..\arduinoLCD\test\Pain Drain\libraries\lvgl\src\widgets\../core/lv_obj_style_gen.h **** 
 151:..\..\..\arduinoLCD\test\Pain Drain\libraries\lvgl\src\widgets\../core/lv_obj_style_gen.h **** static inline lv_opa_t lv_obj_get_style_bg_opa(const struct _lv_obj_t * obj, uint32_t part)
 152:..\..\..\arduinoLCD\test\Pain Drain\libraries\lvgl\src\widgets\../core/lv_obj_style_gen.h **** {
 153:..\..\..\arduinoLCD\test\Pain Drain\libraries\lvgl\src\widgets\../core/lv_obj_style_gen.h ****     lv_style_value_t v = lv_obj_get_style_prop(obj, part, LV_STYLE_BG_OPA);
 154:..\..\..\arduinoLCD\test\Pain Drain\libraries\lvgl\src\widgets\../core/lv_obj_style_gen.h ****     return (lv_opa_t)v.num;
 155:..\..\..\arduinoLCD\test\Pain Drain\libraries\lvgl\src\widgets\../core/lv_obj_style_gen.h **** }
 156:..\..\..\arduinoLCD\test\Pain Drain\libraries\lvgl\src\widgets\../core/lv_obj_style_gen.h **** 
 157:..\..\..\arduinoLCD\test\Pain Drain\libraries\lvgl\src\widgets\../core/lv_obj_style_gen.h **** static inline lv_color_t lv_obj_get_style_bg_grad_color(const struct _lv_obj_t * obj, uint32_t part
 158:..\..\..\arduinoLCD\test\Pain Drain\libraries\lvgl\src\widgets\../core/lv_obj_style_gen.h **** {
 159:..\..\..\arduinoLCD\test\Pain Drain\libraries\lvgl\src\widgets\../core/lv_obj_style_gen.h ****     lv_style_value_t v = lv_obj_get_style_prop(obj, part, LV_STYLE_BG_GRAD_COLOR);
 160:..\..\..\arduinoLCD\test\Pain Drain\libraries\lvgl\src\widgets\../core/lv_obj_style_gen.h ****     return v.color;
 161:..\..\..\arduinoLCD\test\Pain Drain\libraries\lvgl\src\widgets\../core/lv_obj_style_gen.h **** }
 162:..\..\..\arduinoLCD\test\Pain Drain\libraries\lvgl\src\widgets\../core/lv_obj_style_gen.h **** 
 163:..\..\..\arduinoLCD\test\Pain Drain\libraries\lvgl\src\widgets\../core/lv_obj_style_gen.h **** static inline lv_color_t lv_obj_get_style_bg_grad_color_filtered(const struct _lv_obj_t * obj, uint
 164:..\..\..\arduinoLCD\test\Pain Drain\libraries\lvgl\src\widgets\../core/lv_obj_style_gen.h **** {
 165:..\..\..\arduinoLCD\test\Pain Drain\libraries\lvgl\src\widgets\../core/lv_obj_style_gen.h ****     lv_style_value_t v = _lv_obj_style_apply_color_filter(obj, part, lv_obj_get_style_prop(obj, par
 166:..\..\..\arduinoLCD\test\Pain Drain\libraries\lvgl\src\widgets\../core/lv_obj_style_gen.h ****     return v.color;
 167:..\..\..\arduinoLCD\test\Pain Drain\libraries\lvgl\src\widgets\../core/lv_obj_style_gen.h **** }
 168:..\..\..\arduinoLCD\test\Pain Drain\libraries\lvgl\src\widgets\../core/lv_obj_style_gen.h **** 
 169:..\..\..\arduinoLCD\test\Pain Drain\libraries\lvgl\src\widgets\../core/lv_obj_style_gen.h **** static inline lv_grad_dir_t lv_obj_get_style_bg_grad_dir(const struct _lv_obj_t * obj, uint32_t par
 170:..\..\..\arduinoLCD\test\Pain Drain\libraries\lvgl\src\widgets\../core/lv_obj_style_gen.h **** {
 171:..\..\..\arduinoLCD\test\Pain Drain\libraries\lvgl\src\widgets\../core/lv_obj_style_gen.h ****     lv_style_value_t v = lv_obj_get_style_prop(obj, part, LV_STYLE_BG_GRAD_DIR);
 172:..\..\..\arduinoLCD\test\Pain Drain\libraries\lvgl\src\widgets\../core/lv_obj_style_gen.h ****     return (lv_grad_dir_t)v.num;
 173:..\..\..\arduinoLCD\test\Pain Drain\libraries\lvgl\src\widgets\../core/lv_obj_style_gen.h **** }
 174:..\..\..\arduinoLCD\test\Pain Drain\libraries\lvgl\src\widgets\../core/lv_obj_style_gen.h **** 
 175:..\..\..\arduinoLCD\test\Pain Drain\libraries\lvgl\src\widgets\../core/lv_obj_style_gen.h **** static inline lv_coord_t lv_obj_get_style_bg_main_stop(const struct _lv_obj_t * obj, uint32_t part)
 176:..\..\..\arduinoLCD\test\Pain Drain\libraries\lvgl\src\widgets\../core/lv_obj_style_gen.h **** {
 177:..\..\..\arduinoLCD\test\Pain Drain\libraries\lvgl\src\widgets\../core/lv_obj_style_gen.h ****     lv_style_value_t v = lv_obj_get_style_prop(obj, part, LV_STYLE_BG_MAIN_STOP);
 178:..\..\..\arduinoLCD\test\Pain Drain\libraries\lvgl\src\widgets\../core/lv_obj_style_gen.h ****     return (lv_coord_t)v.num;
 179:..\..\..\arduinoLCD\test\Pain Drain\libraries\lvgl\src\widgets\../core/lv_obj_style_gen.h **** }
 180:..\..\..\arduinoLCD\test\Pain Drain\libraries\lvgl\src\widgets\../core/lv_obj_style_gen.h **** 
 181:..\..\..\arduinoLCD\test\Pain Drain\libraries\lvgl\src\widgets\../core/lv_obj_style_gen.h **** static inline lv_coord_t lv_obj_get_style_bg_grad_stop(const struct _lv_obj_t * obj, uint32_t part)
 182:..\..\..\arduinoLCD\test\Pain Drain\libraries\lvgl\src\widgets\../core/lv_obj_style_gen.h **** {
 183:..\..\..\arduinoLCD\test\Pain Drain\libraries\lvgl\src\widgets\../core/lv_obj_style_gen.h ****     lv_style_value_t v = lv_obj_get_style_prop(obj, part, LV_STYLE_BG_GRAD_STOP);
 184:..\..\..\arduinoLCD\test\Pain Drain\libraries\lvgl\src\widgets\../core/lv_obj_style_gen.h ****     return (lv_coord_t)v.num;
 185:..\..\..\arduinoLCD\test\Pain Drain\libraries\lvgl\src\widgets\../core/lv_obj_style_gen.h **** }
 186:..\..\..\arduinoLCD\test\Pain Drain\libraries\lvgl\src\widgets\../core/lv_obj_style_gen.h **** 
 187:..\..\..\arduinoLCD\test\Pain Drain\libraries\lvgl\src\widgets\../core/lv_obj_style_gen.h **** static inline const lv_grad_dsc_t * lv_obj_get_style_bg_grad(const struct _lv_obj_t * obj, uint32_t
 188:..\..\..\arduinoLCD\test\Pain Drain\libraries\lvgl\src\widgets\../core/lv_obj_style_gen.h **** {
 189:..\..\..\arduinoLCD\test\Pain Drain\libraries\lvgl\src\widgets\../core/lv_obj_style_gen.h ****     lv_style_value_t v = lv_obj_get_style_prop(obj, part, LV_STYLE_BG_GRAD);
 190:..\..\..\arduinoLCD\test\Pain Drain\libraries\lvgl\src\widgets\../core/lv_obj_style_gen.h ****     return (const lv_grad_dsc_t *)v.ptr;
 191:..\..\..\arduinoLCD\test\Pain Drain\libraries\lvgl\src\widgets\../core/lv_obj_style_gen.h **** }
 192:..\..\..\arduinoLCD\test\Pain Drain\libraries\lvgl\src\widgets\../core/lv_obj_style_gen.h **** 
 193:..\..\..\arduinoLCD\test\Pain Drain\libraries\lvgl\src\widgets\../core/lv_obj_style_gen.h **** static inline lv_dither_mode_t lv_obj_get_style_bg_dither_mode(const struct _lv_obj_t * obj, uint32
 194:..\..\..\arduinoLCD\test\Pain Drain\libraries\lvgl\src\widgets\../core/lv_obj_style_gen.h **** {
 195:..\..\..\arduinoLCD\test\Pain Drain\libraries\lvgl\src\widgets\../core/lv_obj_style_gen.h ****     lv_style_value_t v = lv_obj_get_style_prop(obj, part, LV_STYLE_BG_DITHER_MODE);
 196:..\..\..\arduinoLCD\test\Pain Drain\libraries\lvgl\src\widgets\../core/lv_obj_style_gen.h ****     return (lv_dither_mode_t)v.num;
 197:..\..\..\arduinoLCD\test\Pain Drain\libraries\lvgl\src\widgets\../core/lv_obj_style_gen.h **** }
 198:..\..\..\arduinoLCD\test\Pain Drain\libraries\lvgl\src\widgets\../core/lv_obj_style_gen.h **** 
ARM GAS  C:\Users\haske\AppData\Local\Temp\cc1ymag8.s 			page 18


 199:..\..\..\arduinoLCD\test\Pain Drain\libraries\lvgl\src\widgets\../core/lv_obj_style_gen.h **** static inline const void * lv_obj_get_style_bg_img_src(const struct _lv_obj_t * obj, uint32_t part)
 200:..\..\..\arduinoLCD\test\Pain Drain\libraries\lvgl\src\widgets\../core/lv_obj_style_gen.h **** {
 201:..\..\..\arduinoLCD\test\Pain Drain\libraries\lvgl\src\widgets\../core/lv_obj_style_gen.h ****     lv_style_value_t v = lv_obj_get_style_prop(obj, part, LV_STYLE_BG_IMG_SRC);
 202:..\..\..\arduinoLCD\test\Pain Drain\libraries\lvgl\src\widgets\../core/lv_obj_style_gen.h ****     return (const void *)v.ptr;
 203:..\..\..\arduinoLCD\test\Pain Drain\libraries\lvgl\src\widgets\../core/lv_obj_style_gen.h **** }
 204:..\..\..\arduinoLCD\test\Pain Drain\libraries\lvgl\src\widgets\../core/lv_obj_style_gen.h **** 
 205:..\..\..\arduinoLCD\test\Pain Drain\libraries\lvgl\src\widgets\../core/lv_obj_style_gen.h **** static inline lv_opa_t lv_obj_get_style_bg_img_opa(const struct _lv_obj_t * obj, uint32_t part)
 206:..\..\..\arduinoLCD\test\Pain Drain\libraries\lvgl\src\widgets\../core/lv_obj_style_gen.h **** {
 207:..\..\..\arduinoLCD\test\Pain Drain\libraries\lvgl\src\widgets\../core/lv_obj_style_gen.h ****     lv_style_value_t v = lv_obj_get_style_prop(obj, part, LV_STYLE_BG_IMG_OPA);
 208:..\..\..\arduinoLCD\test\Pain Drain\libraries\lvgl\src\widgets\../core/lv_obj_style_gen.h ****     return (lv_opa_t)v.num;
 209:..\..\..\arduinoLCD\test\Pain Drain\libraries\lvgl\src\widgets\../core/lv_obj_style_gen.h **** }
 210:..\..\..\arduinoLCD\test\Pain Drain\libraries\lvgl\src\widgets\../core/lv_obj_style_gen.h **** 
 211:..\..\..\arduinoLCD\test\Pain Drain\libraries\lvgl\src\widgets\../core/lv_obj_style_gen.h **** static inline lv_color_t lv_obj_get_style_bg_img_recolor(const struct _lv_obj_t * obj, uint32_t par
 212:..\..\..\arduinoLCD\test\Pain Drain\libraries\lvgl\src\widgets\../core/lv_obj_style_gen.h **** {
 213:..\..\..\arduinoLCD\test\Pain Drain\libraries\lvgl\src\widgets\../core/lv_obj_style_gen.h ****     lv_style_value_t v = lv_obj_get_style_prop(obj, part, LV_STYLE_BG_IMG_RECOLOR);
 214:..\..\..\arduinoLCD\test\Pain Drain\libraries\lvgl\src\widgets\../core/lv_obj_style_gen.h ****     return v.color;
 215:..\..\..\arduinoLCD\test\Pain Drain\libraries\lvgl\src\widgets\../core/lv_obj_style_gen.h **** }
 216:..\..\..\arduinoLCD\test\Pain Drain\libraries\lvgl\src\widgets\../core/lv_obj_style_gen.h **** 
 217:..\..\..\arduinoLCD\test\Pain Drain\libraries\lvgl\src\widgets\../core/lv_obj_style_gen.h **** static inline lv_color_t lv_obj_get_style_bg_img_recolor_filtered(const struct _lv_obj_t * obj, uin
 218:..\..\..\arduinoLCD\test\Pain Drain\libraries\lvgl\src\widgets\../core/lv_obj_style_gen.h **** {
 219:..\..\..\arduinoLCD\test\Pain Drain\libraries\lvgl\src\widgets\../core/lv_obj_style_gen.h ****     lv_style_value_t v = _lv_obj_style_apply_color_filter(obj, part, lv_obj_get_style_prop(obj, par
 220:..\..\..\arduinoLCD\test\Pain Drain\libraries\lvgl\src\widgets\../core/lv_obj_style_gen.h ****     return v.color;
 221:..\..\..\arduinoLCD\test\Pain Drain\libraries\lvgl\src\widgets\../core/lv_obj_style_gen.h **** }
 222:..\..\..\arduinoLCD\test\Pain Drain\libraries\lvgl\src\widgets\../core/lv_obj_style_gen.h **** 
 223:..\..\..\arduinoLCD\test\Pain Drain\libraries\lvgl\src\widgets\../core/lv_obj_style_gen.h **** static inline lv_opa_t lv_obj_get_style_bg_img_recolor_opa(const struct _lv_obj_t * obj, uint32_t p
 224:..\..\..\arduinoLCD\test\Pain Drain\libraries\lvgl\src\widgets\../core/lv_obj_style_gen.h **** {
 225:..\..\..\arduinoLCD\test\Pain Drain\libraries\lvgl\src\widgets\../core/lv_obj_style_gen.h ****     lv_style_value_t v = lv_obj_get_style_prop(obj, part, LV_STYLE_BG_IMG_RECOLOR_OPA);
 226:..\..\..\arduinoLCD\test\Pain Drain\libraries\lvgl\src\widgets\../core/lv_obj_style_gen.h ****     return (lv_opa_t)v.num;
 227:..\..\..\arduinoLCD\test\Pain Drain\libraries\lvgl\src\widgets\../core/lv_obj_style_gen.h **** }
 228:..\..\..\arduinoLCD\test\Pain Drain\libraries\lvgl\src\widgets\../core/lv_obj_style_gen.h **** 
 229:..\..\..\arduinoLCD\test\Pain Drain\libraries\lvgl\src\widgets\../core/lv_obj_style_gen.h **** static inline bool lv_obj_get_style_bg_img_tiled(const struct _lv_obj_t * obj, uint32_t part)
 230:..\..\..\arduinoLCD\test\Pain Drain\libraries\lvgl\src\widgets\../core/lv_obj_style_gen.h **** {
 231:..\..\..\arduinoLCD\test\Pain Drain\libraries\lvgl\src\widgets\../core/lv_obj_style_gen.h ****     lv_style_value_t v = lv_obj_get_style_prop(obj, part, LV_STYLE_BG_IMG_TILED);
 232:..\..\..\arduinoLCD\test\Pain Drain\libraries\lvgl\src\widgets\../core/lv_obj_style_gen.h ****     return (bool)v.num;
 233:..\..\..\arduinoLCD\test\Pain Drain\libraries\lvgl\src\widgets\../core/lv_obj_style_gen.h **** }
 234:..\..\..\arduinoLCD\test\Pain Drain\libraries\lvgl\src\widgets\../core/lv_obj_style_gen.h **** 
 235:..\..\..\arduinoLCD\test\Pain Drain\libraries\lvgl\src\widgets\../core/lv_obj_style_gen.h **** static inline lv_color_t lv_obj_get_style_border_color(const struct _lv_obj_t * obj, uint32_t part)
 236:..\..\..\arduinoLCD\test\Pain Drain\libraries\lvgl\src\widgets\../core/lv_obj_style_gen.h **** {
 237:..\..\..\arduinoLCD\test\Pain Drain\libraries\lvgl\src\widgets\../core/lv_obj_style_gen.h ****     lv_style_value_t v = lv_obj_get_style_prop(obj, part, LV_STYLE_BORDER_COLOR);
 238:..\..\..\arduinoLCD\test\Pain Drain\libraries\lvgl\src\widgets\../core/lv_obj_style_gen.h ****     return v.color;
 239:..\..\..\arduinoLCD\test\Pain Drain\libraries\lvgl\src\widgets\../core/lv_obj_style_gen.h **** }
 240:..\..\..\arduinoLCD\test\Pain Drain\libraries\lvgl\src\widgets\../core/lv_obj_style_gen.h **** 
 241:..\..\..\arduinoLCD\test\Pain Drain\libraries\lvgl\src\widgets\../core/lv_obj_style_gen.h **** static inline lv_color_t lv_obj_get_style_border_color_filtered(const struct _lv_obj_t * obj, uint3
 242:..\..\..\arduinoLCD\test\Pain Drain\libraries\lvgl\src\widgets\../core/lv_obj_style_gen.h **** {
 243:..\..\..\arduinoLCD\test\Pain Drain\libraries\lvgl\src\widgets\../core/lv_obj_style_gen.h ****     lv_style_value_t v = _lv_obj_style_apply_color_filter(obj, part, lv_obj_get_style_prop(obj, par
 244:..\..\..\arduinoLCD\test\Pain Drain\libraries\lvgl\src\widgets\../core/lv_obj_style_gen.h ****     return v.color;
 245:..\..\..\arduinoLCD\test\Pain Drain\libraries\lvgl\src\widgets\../core/lv_obj_style_gen.h **** }
 246:..\..\..\arduinoLCD\test\Pain Drain\libraries\lvgl\src\widgets\../core/lv_obj_style_gen.h **** 
 247:..\..\..\arduinoLCD\test\Pain Drain\libraries\lvgl\src\widgets\../core/lv_obj_style_gen.h **** static inline lv_opa_t lv_obj_get_style_border_opa(const struct _lv_obj_t * obj, uint32_t part)
 248:..\..\..\arduinoLCD\test\Pain Drain\libraries\lvgl\src\widgets\../core/lv_obj_style_gen.h **** {
 249:..\..\..\arduinoLCD\test\Pain Drain\libraries\lvgl\src\widgets\../core/lv_obj_style_gen.h ****     lv_style_value_t v = lv_obj_get_style_prop(obj, part, LV_STYLE_BORDER_OPA);
 250:..\..\..\arduinoLCD\test\Pain Drain\libraries\lvgl\src\widgets\../core/lv_obj_style_gen.h ****     return (lv_opa_t)v.num;
 251:..\..\..\arduinoLCD\test\Pain Drain\libraries\lvgl\src\widgets\../core/lv_obj_style_gen.h **** }
 252:..\..\..\arduinoLCD\test\Pain Drain\libraries\lvgl\src\widgets\../core/lv_obj_style_gen.h **** 
 253:..\..\..\arduinoLCD\test\Pain Drain\libraries\lvgl\src\widgets\../core/lv_obj_style_gen.h **** static inline lv_coord_t lv_obj_get_style_border_width(const struct _lv_obj_t * obj, uint32_t part)
 254:..\..\..\arduinoLCD\test\Pain Drain\libraries\lvgl\src\widgets\../core/lv_obj_style_gen.h **** {
 255:..\..\..\arduinoLCD\test\Pain Drain\libraries\lvgl\src\widgets\../core/lv_obj_style_gen.h ****     lv_style_value_t v = lv_obj_get_style_prop(obj, part, LV_STYLE_BORDER_WIDTH);
ARM GAS  C:\Users\haske\AppData\Local\Temp\cc1ymag8.s 			page 19


 256:..\..\..\arduinoLCD\test\Pain Drain\libraries\lvgl\src\widgets\../core/lv_obj_style_gen.h ****     return (lv_coord_t)v.num;
 257:..\..\..\arduinoLCD\test\Pain Drain\libraries\lvgl\src\widgets\../core/lv_obj_style_gen.h **** }
 258:..\..\..\arduinoLCD\test\Pain Drain\libraries\lvgl\src\widgets\../core/lv_obj_style_gen.h **** 
 259:..\..\..\arduinoLCD\test\Pain Drain\libraries\lvgl\src\widgets\../core/lv_obj_style_gen.h **** static inline lv_border_side_t lv_obj_get_style_border_side(const struct _lv_obj_t * obj, uint32_t 
 260:..\..\..\arduinoLCD\test\Pain Drain\libraries\lvgl\src\widgets\../core/lv_obj_style_gen.h **** {
 261:..\..\..\arduinoLCD\test\Pain Drain\libraries\lvgl\src\widgets\../core/lv_obj_style_gen.h ****     lv_style_value_t v = lv_obj_get_style_prop(obj, part, LV_STYLE_BORDER_SIDE);
 262:..\..\..\arduinoLCD\test\Pain Drain\libraries\lvgl\src\widgets\../core/lv_obj_style_gen.h ****     return (lv_border_side_t)v.num;
 263:..\..\..\arduinoLCD\test\Pain Drain\libraries\lvgl\src\widgets\../core/lv_obj_style_gen.h **** }
 264:..\..\..\arduinoLCD\test\Pain Drain\libraries\lvgl\src\widgets\../core/lv_obj_style_gen.h **** 
 265:..\..\..\arduinoLCD\test\Pain Drain\libraries\lvgl\src\widgets\../core/lv_obj_style_gen.h **** static inline bool lv_obj_get_style_border_post(const struct _lv_obj_t * obj, uint32_t part)
 266:..\..\..\arduinoLCD\test\Pain Drain\libraries\lvgl\src\widgets\../core/lv_obj_style_gen.h **** {
 267:..\..\..\arduinoLCD\test\Pain Drain\libraries\lvgl\src\widgets\../core/lv_obj_style_gen.h ****     lv_style_value_t v = lv_obj_get_style_prop(obj, part, LV_STYLE_BORDER_POST);
 268:..\..\..\arduinoLCD\test\Pain Drain\libraries\lvgl\src\widgets\../core/lv_obj_style_gen.h ****     return (bool)v.num;
 269:..\..\..\arduinoLCD\test\Pain Drain\libraries\lvgl\src\widgets\../core/lv_obj_style_gen.h **** }
 270:..\..\..\arduinoLCD\test\Pain Drain\libraries\lvgl\src\widgets\../core/lv_obj_style_gen.h **** 
 271:..\..\..\arduinoLCD\test\Pain Drain\libraries\lvgl\src\widgets\../core/lv_obj_style_gen.h **** static inline lv_coord_t lv_obj_get_style_outline_width(const struct _lv_obj_t * obj, uint32_t part
 272:..\..\..\arduinoLCD\test\Pain Drain\libraries\lvgl\src\widgets\../core/lv_obj_style_gen.h **** {
 273:..\..\..\arduinoLCD\test\Pain Drain\libraries\lvgl\src\widgets\../core/lv_obj_style_gen.h ****     lv_style_value_t v = lv_obj_get_style_prop(obj, part, LV_STYLE_OUTLINE_WIDTH);
 274:..\..\..\arduinoLCD\test\Pain Drain\libraries\lvgl\src\widgets\../core/lv_obj_style_gen.h ****     return (lv_coord_t)v.num;
 275:..\..\..\arduinoLCD\test\Pain Drain\libraries\lvgl\src\widgets\../core/lv_obj_style_gen.h **** }
 276:..\..\..\arduinoLCD\test\Pain Drain\libraries\lvgl\src\widgets\../core/lv_obj_style_gen.h **** 
 277:..\..\..\arduinoLCD\test\Pain Drain\libraries\lvgl\src\widgets\../core/lv_obj_style_gen.h **** static inline lv_color_t lv_obj_get_style_outline_color(const struct _lv_obj_t * obj, uint32_t part
 278:..\..\..\arduinoLCD\test\Pain Drain\libraries\lvgl\src\widgets\../core/lv_obj_style_gen.h **** {
 279:..\..\..\arduinoLCD\test\Pain Drain\libraries\lvgl\src\widgets\../core/lv_obj_style_gen.h ****     lv_style_value_t v = lv_obj_get_style_prop(obj, part, LV_STYLE_OUTLINE_COLOR);
 280:..\..\..\arduinoLCD\test\Pain Drain\libraries\lvgl\src\widgets\../core/lv_obj_style_gen.h ****     return v.color;
 281:..\..\..\arduinoLCD\test\Pain Drain\libraries\lvgl\src\widgets\../core/lv_obj_style_gen.h **** }
 282:..\..\..\arduinoLCD\test\Pain Drain\libraries\lvgl\src\widgets\../core/lv_obj_style_gen.h **** 
 283:..\..\..\arduinoLCD\test\Pain Drain\libraries\lvgl\src\widgets\../core/lv_obj_style_gen.h **** static inline lv_color_t lv_obj_get_style_outline_color_filtered(const struct _lv_obj_t * obj, uint
 284:..\..\..\arduinoLCD\test\Pain Drain\libraries\lvgl\src\widgets\../core/lv_obj_style_gen.h **** {
 285:..\..\..\arduinoLCD\test\Pain Drain\libraries\lvgl\src\widgets\../core/lv_obj_style_gen.h ****     lv_style_value_t v = _lv_obj_style_apply_color_filter(obj, part, lv_obj_get_style_prop(obj, par
 286:..\..\..\arduinoLCD\test\Pain Drain\libraries\lvgl\src\widgets\../core/lv_obj_style_gen.h ****     return v.color;
 287:..\..\..\arduinoLCD\test\Pain Drain\libraries\lvgl\src\widgets\../core/lv_obj_style_gen.h **** }
 288:..\..\..\arduinoLCD\test\Pain Drain\libraries\lvgl\src\widgets\../core/lv_obj_style_gen.h **** 
 289:..\..\..\arduinoLCD\test\Pain Drain\libraries\lvgl\src\widgets\../core/lv_obj_style_gen.h **** static inline lv_opa_t lv_obj_get_style_outline_opa(const struct _lv_obj_t * obj, uint32_t part)
 290:..\..\..\arduinoLCD\test\Pain Drain\libraries\lvgl\src\widgets\../core/lv_obj_style_gen.h **** {
 291:..\..\..\arduinoLCD\test\Pain Drain\libraries\lvgl\src\widgets\../core/lv_obj_style_gen.h ****     lv_style_value_t v = lv_obj_get_style_prop(obj, part, LV_STYLE_OUTLINE_OPA);
 292:..\..\..\arduinoLCD\test\Pain Drain\libraries\lvgl\src\widgets\../core/lv_obj_style_gen.h ****     return (lv_opa_t)v.num;
 293:..\..\..\arduinoLCD\test\Pain Drain\libraries\lvgl\src\widgets\../core/lv_obj_style_gen.h **** }
 294:..\..\..\arduinoLCD\test\Pain Drain\libraries\lvgl\src\widgets\../core/lv_obj_style_gen.h **** 
 295:..\..\..\arduinoLCD\test\Pain Drain\libraries\lvgl\src\widgets\../core/lv_obj_style_gen.h **** static inline lv_coord_t lv_obj_get_style_outline_pad(const struct _lv_obj_t * obj, uint32_t part)
 296:..\..\..\arduinoLCD\test\Pain Drain\libraries\lvgl\src\widgets\../core/lv_obj_style_gen.h **** {
 297:..\..\..\arduinoLCD\test\Pain Drain\libraries\lvgl\src\widgets\../core/lv_obj_style_gen.h ****     lv_style_value_t v = lv_obj_get_style_prop(obj, part, LV_STYLE_OUTLINE_PAD);
 298:..\..\..\arduinoLCD\test\Pain Drain\libraries\lvgl\src\widgets\../core/lv_obj_style_gen.h ****     return (lv_coord_t)v.num;
 299:..\..\..\arduinoLCD\test\Pain Drain\libraries\lvgl\src\widgets\../core/lv_obj_style_gen.h **** }
 300:..\..\..\arduinoLCD\test\Pain Drain\libraries\lvgl\src\widgets\../core/lv_obj_style_gen.h **** 
 301:..\..\..\arduinoLCD\test\Pain Drain\libraries\lvgl\src\widgets\../core/lv_obj_style_gen.h **** static inline lv_coord_t lv_obj_get_style_shadow_width(const struct _lv_obj_t * obj, uint32_t part)
 302:..\..\..\arduinoLCD\test\Pain Drain\libraries\lvgl\src\widgets\../core/lv_obj_style_gen.h **** {
 303:..\..\..\arduinoLCD\test\Pain Drain\libraries\lvgl\src\widgets\../core/lv_obj_style_gen.h ****     lv_style_value_t v = lv_obj_get_style_prop(obj, part, LV_STYLE_SHADOW_WIDTH);
 304:..\..\..\arduinoLCD\test\Pain Drain\libraries\lvgl\src\widgets\../core/lv_obj_style_gen.h ****     return (lv_coord_t)v.num;
 305:..\..\..\arduinoLCD\test\Pain Drain\libraries\lvgl\src\widgets\../core/lv_obj_style_gen.h **** }
 306:..\..\..\arduinoLCD\test\Pain Drain\libraries\lvgl\src\widgets\../core/lv_obj_style_gen.h **** 
 307:..\..\..\arduinoLCD\test\Pain Drain\libraries\lvgl\src\widgets\../core/lv_obj_style_gen.h **** static inline lv_coord_t lv_obj_get_style_shadow_ofs_x(const struct _lv_obj_t * obj, uint32_t part)
 308:..\..\..\arduinoLCD\test\Pain Drain\libraries\lvgl\src\widgets\../core/lv_obj_style_gen.h **** {
 309:..\..\..\arduinoLCD\test\Pain Drain\libraries\lvgl\src\widgets\../core/lv_obj_style_gen.h ****     lv_style_value_t v = lv_obj_get_style_prop(obj, part, LV_STYLE_SHADOW_OFS_X);
 310:..\..\..\arduinoLCD\test\Pain Drain\libraries\lvgl\src\widgets\../core/lv_obj_style_gen.h ****     return (lv_coord_t)v.num;
 311:..\..\..\arduinoLCD\test\Pain Drain\libraries\lvgl\src\widgets\../core/lv_obj_style_gen.h **** }
 312:..\..\..\arduinoLCD\test\Pain Drain\libraries\lvgl\src\widgets\../core/lv_obj_style_gen.h **** 
ARM GAS  C:\Users\haske\AppData\Local\Temp\cc1ymag8.s 			page 20


 313:..\..\..\arduinoLCD\test\Pain Drain\libraries\lvgl\src\widgets\../core/lv_obj_style_gen.h **** static inline lv_coord_t lv_obj_get_style_shadow_ofs_y(const struct _lv_obj_t * obj, uint32_t part)
 314:..\..\..\arduinoLCD\test\Pain Drain\libraries\lvgl\src\widgets\../core/lv_obj_style_gen.h **** {
 315:..\..\..\arduinoLCD\test\Pain Drain\libraries\lvgl\src\widgets\../core/lv_obj_style_gen.h ****     lv_style_value_t v = lv_obj_get_style_prop(obj, part, LV_STYLE_SHADOW_OFS_Y);
 316:..\..\..\arduinoLCD\test\Pain Drain\libraries\lvgl\src\widgets\../core/lv_obj_style_gen.h ****     return (lv_coord_t)v.num;
 317:..\..\..\arduinoLCD\test\Pain Drain\libraries\lvgl\src\widgets\../core/lv_obj_style_gen.h **** }
 318:..\..\..\arduinoLCD\test\Pain Drain\libraries\lvgl\src\widgets\../core/lv_obj_style_gen.h **** 
 319:..\..\..\arduinoLCD\test\Pain Drain\libraries\lvgl\src\widgets\../core/lv_obj_style_gen.h **** static inline lv_coord_t lv_obj_get_style_shadow_spread(const struct _lv_obj_t * obj, uint32_t part
 320:..\..\..\arduinoLCD\test\Pain Drain\libraries\lvgl\src\widgets\../core/lv_obj_style_gen.h **** {
 321:..\..\..\arduinoLCD\test\Pain Drain\libraries\lvgl\src\widgets\../core/lv_obj_style_gen.h ****     lv_style_value_t v = lv_obj_get_style_prop(obj, part, LV_STYLE_SHADOW_SPREAD);
 322:..\..\..\arduinoLCD\test\Pain Drain\libraries\lvgl\src\widgets\../core/lv_obj_style_gen.h ****     return (lv_coord_t)v.num;
 323:..\..\..\arduinoLCD\test\Pain Drain\libraries\lvgl\src\widgets\../core/lv_obj_style_gen.h **** }
 324:..\..\..\arduinoLCD\test\Pain Drain\libraries\lvgl\src\widgets\../core/lv_obj_style_gen.h **** 
 325:..\..\..\arduinoLCD\test\Pain Drain\libraries\lvgl\src\widgets\../core/lv_obj_style_gen.h **** static inline lv_color_t lv_obj_get_style_shadow_color(const struct _lv_obj_t * obj, uint32_t part)
 326:..\..\..\arduinoLCD\test\Pain Drain\libraries\lvgl\src\widgets\../core/lv_obj_style_gen.h **** {
 327:..\..\..\arduinoLCD\test\Pain Drain\libraries\lvgl\src\widgets\../core/lv_obj_style_gen.h ****     lv_style_value_t v = lv_obj_get_style_prop(obj, part, LV_STYLE_SHADOW_COLOR);
 328:..\..\..\arduinoLCD\test\Pain Drain\libraries\lvgl\src\widgets\../core/lv_obj_style_gen.h ****     return v.color;
 329:..\..\..\arduinoLCD\test\Pain Drain\libraries\lvgl\src\widgets\../core/lv_obj_style_gen.h **** }
 330:..\..\..\arduinoLCD\test\Pain Drain\libraries\lvgl\src\widgets\../core/lv_obj_style_gen.h **** 
 331:..\..\..\arduinoLCD\test\Pain Drain\libraries\lvgl\src\widgets\../core/lv_obj_style_gen.h **** static inline lv_color_t lv_obj_get_style_shadow_color_filtered(const struct _lv_obj_t * obj, uint3
 332:..\..\..\arduinoLCD\test\Pain Drain\libraries\lvgl\src\widgets\../core/lv_obj_style_gen.h **** {
 333:..\..\..\arduinoLCD\test\Pain Drain\libraries\lvgl\src\widgets\../core/lv_obj_style_gen.h ****     lv_style_value_t v = _lv_obj_style_apply_color_filter(obj, part, lv_obj_get_style_prop(obj, par
 334:..\..\..\arduinoLCD\test\Pain Drain\libraries\lvgl\src\widgets\../core/lv_obj_style_gen.h ****     return v.color;
 335:..\..\..\arduinoLCD\test\Pain Drain\libraries\lvgl\src\widgets\../core/lv_obj_style_gen.h **** }
 336:..\..\..\arduinoLCD\test\Pain Drain\libraries\lvgl\src\widgets\../core/lv_obj_style_gen.h **** 
 337:..\..\..\arduinoLCD\test\Pain Drain\libraries\lvgl\src\widgets\../core/lv_obj_style_gen.h **** static inline lv_opa_t lv_obj_get_style_shadow_opa(const struct _lv_obj_t * obj, uint32_t part)
 338:..\..\..\arduinoLCD\test\Pain Drain\libraries\lvgl\src\widgets\../core/lv_obj_style_gen.h **** {
 339:..\..\..\arduinoLCD\test\Pain Drain\libraries\lvgl\src\widgets\../core/lv_obj_style_gen.h ****     lv_style_value_t v = lv_obj_get_style_prop(obj, part, LV_STYLE_SHADOW_OPA);
 340:..\..\..\arduinoLCD\test\Pain Drain\libraries\lvgl\src\widgets\../core/lv_obj_style_gen.h ****     return (lv_opa_t)v.num;
 341:..\..\..\arduinoLCD\test\Pain Drain\libraries\lvgl\src\widgets\../core/lv_obj_style_gen.h **** }
 342:..\..\..\arduinoLCD\test\Pain Drain\libraries\lvgl\src\widgets\../core/lv_obj_style_gen.h **** 
 343:..\..\..\arduinoLCD\test\Pain Drain\libraries\lvgl\src\widgets\../core/lv_obj_style_gen.h **** static inline lv_opa_t lv_obj_get_style_img_opa(const struct _lv_obj_t * obj, uint32_t part)
 344:..\..\..\arduinoLCD\test\Pain Drain\libraries\lvgl\src\widgets\../core/lv_obj_style_gen.h **** {
 345:..\..\..\arduinoLCD\test\Pain Drain\libraries\lvgl\src\widgets\../core/lv_obj_style_gen.h ****     lv_style_value_t v = lv_obj_get_style_prop(obj, part, LV_STYLE_IMG_OPA);
 346:..\..\..\arduinoLCD\test\Pain Drain\libraries\lvgl\src\widgets\../core/lv_obj_style_gen.h ****     return (lv_opa_t)v.num;
 347:..\..\..\arduinoLCD\test\Pain Drain\libraries\lvgl\src\widgets\../core/lv_obj_style_gen.h **** }
 348:..\..\..\arduinoLCD\test\Pain Drain\libraries\lvgl\src\widgets\../core/lv_obj_style_gen.h **** 
 349:..\..\..\arduinoLCD\test\Pain Drain\libraries\lvgl\src\widgets\../core/lv_obj_style_gen.h **** static inline lv_color_t lv_obj_get_style_img_recolor(const struct _lv_obj_t * obj, uint32_t part)
 350:..\..\..\arduinoLCD\test\Pain Drain\libraries\lvgl\src\widgets\../core/lv_obj_style_gen.h **** {
 351:..\..\..\arduinoLCD\test\Pain Drain\libraries\lvgl\src\widgets\../core/lv_obj_style_gen.h ****     lv_style_value_t v = lv_obj_get_style_prop(obj, part, LV_STYLE_IMG_RECOLOR);
 352:..\..\..\arduinoLCD\test\Pain Drain\libraries\lvgl\src\widgets\../core/lv_obj_style_gen.h ****     return v.color;
 353:..\..\..\arduinoLCD\test\Pain Drain\libraries\lvgl\src\widgets\../core/lv_obj_style_gen.h **** }
 354:..\..\..\arduinoLCD\test\Pain Drain\libraries\lvgl\src\widgets\../core/lv_obj_style_gen.h **** 
 355:..\..\..\arduinoLCD\test\Pain Drain\libraries\lvgl\src\widgets\../core/lv_obj_style_gen.h **** static inline lv_color_t lv_obj_get_style_img_recolor_filtered(const struct _lv_obj_t * obj, uint32
 356:..\..\..\arduinoLCD\test\Pain Drain\libraries\lvgl\src\widgets\../core/lv_obj_style_gen.h **** {
 357:..\..\..\arduinoLCD\test\Pain Drain\libraries\lvgl\src\widgets\../core/lv_obj_style_gen.h ****     lv_style_value_t v = _lv_obj_style_apply_color_filter(obj, part, lv_obj_get_style_prop(obj, par
 358:..\..\..\arduinoLCD\test\Pain Drain\libraries\lvgl\src\widgets\../core/lv_obj_style_gen.h ****     return v.color;
 359:..\..\..\arduinoLCD\test\Pain Drain\libraries\lvgl\src\widgets\../core/lv_obj_style_gen.h **** }
 360:..\..\..\arduinoLCD\test\Pain Drain\libraries\lvgl\src\widgets\../core/lv_obj_style_gen.h **** 
 361:..\..\..\arduinoLCD\test\Pain Drain\libraries\lvgl\src\widgets\../core/lv_obj_style_gen.h **** static inline lv_opa_t lv_obj_get_style_img_recolor_opa(const struct _lv_obj_t * obj, uint32_t part
 362:..\..\..\arduinoLCD\test\Pain Drain\libraries\lvgl\src\widgets\../core/lv_obj_style_gen.h **** {
 363:..\..\..\arduinoLCD\test\Pain Drain\libraries\lvgl\src\widgets\../core/lv_obj_style_gen.h ****     lv_style_value_t v = lv_obj_get_style_prop(obj, part, LV_STYLE_IMG_RECOLOR_OPA);
 364:..\..\..\arduinoLCD\test\Pain Drain\libraries\lvgl\src\widgets\../core/lv_obj_style_gen.h ****     return (lv_opa_t)v.num;
 365:..\..\..\arduinoLCD\test\Pain Drain\libraries\lvgl\src\widgets\../core/lv_obj_style_gen.h **** }
 366:..\..\..\arduinoLCD\test\Pain Drain\libraries\lvgl\src\widgets\../core/lv_obj_style_gen.h **** 
 367:..\..\..\arduinoLCD\test\Pain Drain\libraries\lvgl\src\widgets\../core/lv_obj_style_gen.h **** static inline lv_coord_t lv_obj_get_style_line_width(const struct _lv_obj_t * obj, uint32_t part)
 368:..\..\..\arduinoLCD\test\Pain Drain\libraries\lvgl\src\widgets\../core/lv_obj_style_gen.h **** {
 369:..\..\..\arduinoLCD\test\Pain Drain\libraries\lvgl\src\widgets\../core/lv_obj_style_gen.h ****     lv_style_value_t v = lv_obj_get_style_prop(obj, part, LV_STYLE_LINE_WIDTH);
ARM GAS  C:\Users\haske\AppData\Local\Temp\cc1ymag8.s 			page 21


 370:..\..\..\arduinoLCD\test\Pain Drain\libraries\lvgl\src\widgets\../core/lv_obj_style_gen.h ****     return (lv_coord_t)v.num;
 371:..\..\..\arduinoLCD\test\Pain Drain\libraries\lvgl\src\widgets\../core/lv_obj_style_gen.h **** }
 372:..\..\..\arduinoLCD\test\Pain Drain\libraries\lvgl\src\widgets\../core/lv_obj_style_gen.h **** 
 373:..\..\..\arduinoLCD\test\Pain Drain\libraries\lvgl\src\widgets\../core/lv_obj_style_gen.h **** static inline lv_coord_t lv_obj_get_style_line_dash_width(const struct _lv_obj_t * obj, uint32_t pa
 374:..\..\..\arduinoLCD\test\Pain Drain\libraries\lvgl\src\widgets\../core/lv_obj_style_gen.h **** {
 375:..\..\..\arduinoLCD\test\Pain Drain\libraries\lvgl\src\widgets\../core/lv_obj_style_gen.h ****     lv_style_value_t v = lv_obj_get_style_prop(obj, part, LV_STYLE_LINE_DASH_WIDTH);
 376:..\..\..\arduinoLCD\test\Pain Drain\libraries\lvgl\src\widgets\../core/lv_obj_style_gen.h ****     return (lv_coord_t)v.num;
 377:..\..\..\arduinoLCD\test\Pain Drain\libraries\lvgl\src\widgets\../core/lv_obj_style_gen.h **** }
 378:..\..\..\arduinoLCD\test\Pain Drain\libraries\lvgl\src\widgets\../core/lv_obj_style_gen.h **** 
 379:..\..\..\arduinoLCD\test\Pain Drain\libraries\lvgl\src\widgets\../core/lv_obj_style_gen.h **** static inline lv_coord_t lv_obj_get_style_line_dash_gap(const struct _lv_obj_t * obj, uint32_t part
 380:..\..\..\arduinoLCD\test\Pain Drain\libraries\lvgl\src\widgets\../core/lv_obj_style_gen.h **** {
 381:..\..\..\arduinoLCD\test\Pain Drain\libraries\lvgl\src\widgets\../core/lv_obj_style_gen.h ****     lv_style_value_t v = lv_obj_get_style_prop(obj, part, LV_STYLE_LINE_DASH_GAP);
 382:..\..\..\arduinoLCD\test\Pain Drain\libraries\lvgl\src\widgets\../core/lv_obj_style_gen.h ****     return (lv_coord_t)v.num;
 383:..\..\..\arduinoLCD\test\Pain Drain\libraries\lvgl\src\widgets\../core/lv_obj_style_gen.h **** }
 384:..\..\..\arduinoLCD\test\Pain Drain\libraries\lvgl\src\widgets\../core/lv_obj_style_gen.h **** 
 385:..\..\..\arduinoLCD\test\Pain Drain\libraries\lvgl\src\widgets\../core/lv_obj_style_gen.h **** static inline bool lv_obj_get_style_line_rounded(const struct _lv_obj_t * obj, uint32_t part)
 386:..\..\..\arduinoLCD\test\Pain Drain\libraries\lvgl\src\widgets\../core/lv_obj_style_gen.h **** {
 387:..\..\..\arduinoLCD\test\Pain Drain\libraries\lvgl\src\widgets\../core/lv_obj_style_gen.h ****     lv_style_value_t v = lv_obj_get_style_prop(obj, part, LV_STYLE_LINE_ROUNDED);
 388:..\..\..\arduinoLCD\test\Pain Drain\libraries\lvgl\src\widgets\../core/lv_obj_style_gen.h ****     return (bool)v.num;
 389:..\..\..\arduinoLCD\test\Pain Drain\libraries\lvgl\src\widgets\../core/lv_obj_style_gen.h **** }
 390:..\..\..\arduinoLCD\test\Pain Drain\libraries\lvgl\src\widgets\../core/lv_obj_style_gen.h **** 
 391:..\..\..\arduinoLCD\test\Pain Drain\libraries\lvgl\src\widgets\../core/lv_obj_style_gen.h **** static inline lv_color_t lv_obj_get_style_line_color(const struct _lv_obj_t * obj, uint32_t part)
 392:..\..\..\arduinoLCD\test\Pain Drain\libraries\lvgl\src\widgets\../core/lv_obj_style_gen.h **** {
 393:..\..\..\arduinoLCD\test\Pain Drain\libraries\lvgl\src\widgets\../core/lv_obj_style_gen.h ****     lv_style_value_t v = lv_obj_get_style_prop(obj, part, LV_STYLE_LINE_COLOR);
 394:..\..\..\arduinoLCD\test\Pain Drain\libraries\lvgl\src\widgets\../core/lv_obj_style_gen.h ****     return v.color;
 395:..\..\..\arduinoLCD\test\Pain Drain\libraries\lvgl\src\widgets\../core/lv_obj_style_gen.h **** }
 396:..\..\..\arduinoLCD\test\Pain Drain\libraries\lvgl\src\widgets\../core/lv_obj_style_gen.h **** 
 397:..\..\..\arduinoLCD\test\Pain Drain\libraries\lvgl\src\widgets\../core/lv_obj_style_gen.h **** static inline lv_color_t lv_obj_get_style_line_color_filtered(const struct _lv_obj_t * obj, uint32_
 398:..\..\..\arduinoLCD\test\Pain Drain\libraries\lvgl\src\widgets\../core/lv_obj_style_gen.h **** {
 399:..\..\..\arduinoLCD\test\Pain Drain\libraries\lvgl\src\widgets\../core/lv_obj_style_gen.h ****     lv_style_value_t v = _lv_obj_style_apply_color_filter(obj, part, lv_obj_get_style_prop(obj, par
 400:..\..\..\arduinoLCD\test\Pain Drain\libraries\lvgl\src\widgets\../core/lv_obj_style_gen.h ****     return v.color;
 401:..\..\..\arduinoLCD\test\Pain Drain\libraries\lvgl\src\widgets\../core/lv_obj_style_gen.h **** }
 402:..\..\..\arduinoLCD\test\Pain Drain\libraries\lvgl\src\widgets\../core/lv_obj_style_gen.h **** 
 403:..\..\..\arduinoLCD\test\Pain Drain\libraries\lvgl\src\widgets\../core/lv_obj_style_gen.h **** static inline lv_opa_t lv_obj_get_style_line_opa(const struct _lv_obj_t * obj, uint32_t part)
 404:..\..\..\arduinoLCD\test\Pain Drain\libraries\lvgl\src\widgets\../core/lv_obj_style_gen.h **** {
 405:..\..\..\arduinoLCD\test\Pain Drain\libraries\lvgl\src\widgets\../core/lv_obj_style_gen.h ****     lv_style_value_t v = lv_obj_get_style_prop(obj, part, LV_STYLE_LINE_OPA);
 406:..\..\..\arduinoLCD\test\Pain Drain\libraries\lvgl\src\widgets\../core/lv_obj_style_gen.h ****     return (lv_opa_t)v.num;
 407:..\..\..\arduinoLCD\test\Pain Drain\libraries\lvgl\src\widgets\../core/lv_obj_style_gen.h **** }
 408:..\..\..\arduinoLCD\test\Pain Drain\libraries\lvgl\src\widgets\../core/lv_obj_style_gen.h **** 
 409:..\..\..\arduinoLCD\test\Pain Drain\libraries\lvgl\src\widgets\../core/lv_obj_style_gen.h **** static inline lv_coord_t lv_obj_get_style_arc_width(const struct _lv_obj_t * obj, uint32_t part)
 410:..\..\..\arduinoLCD\test\Pain Drain\libraries\lvgl\src\widgets\../core/lv_obj_style_gen.h **** {
 411:..\..\..\arduinoLCD\test\Pain Drain\libraries\lvgl\src\widgets\../core/lv_obj_style_gen.h ****     lv_style_value_t v = lv_obj_get_style_prop(obj, part, LV_STYLE_ARC_WIDTH);
 412:..\..\..\arduinoLCD\test\Pain Drain\libraries\lvgl\src\widgets\../core/lv_obj_style_gen.h ****     return (lv_coord_t)v.num;
 413:..\..\..\arduinoLCD\test\Pain Drain\libraries\lvgl\src\widgets\../core/lv_obj_style_gen.h **** }
 414:..\..\..\arduinoLCD\test\Pain Drain\libraries\lvgl\src\widgets\../core/lv_obj_style_gen.h **** 
 415:..\..\..\arduinoLCD\test\Pain Drain\libraries\lvgl\src\widgets\../core/lv_obj_style_gen.h **** static inline bool lv_obj_get_style_arc_rounded(const struct _lv_obj_t * obj, uint32_t part)
 416:..\..\..\arduinoLCD\test\Pain Drain\libraries\lvgl\src\widgets\../core/lv_obj_style_gen.h **** {
 417:..\..\..\arduinoLCD\test\Pain Drain\libraries\lvgl\src\widgets\../core/lv_obj_style_gen.h ****     lv_style_value_t v = lv_obj_get_style_prop(obj, part, LV_STYLE_ARC_ROUNDED);
 418:..\..\..\arduinoLCD\test\Pain Drain\libraries\lvgl\src\widgets\../core/lv_obj_style_gen.h ****     return (bool)v.num;
 419:..\..\..\arduinoLCD\test\Pain Drain\libraries\lvgl\src\widgets\../core/lv_obj_style_gen.h **** }
 420:..\..\..\arduinoLCD\test\Pain Drain\libraries\lvgl\src\widgets\../core/lv_obj_style_gen.h **** 
 421:..\..\..\arduinoLCD\test\Pain Drain\libraries\lvgl\src\widgets\../core/lv_obj_style_gen.h **** static inline lv_color_t lv_obj_get_style_arc_color(const struct _lv_obj_t * obj, uint32_t part)
 422:..\..\..\arduinoLCD\test\Pain Drain\libraries\lvgl\src\widgets\../core/lv_obj_style_gen.h **** {
 423:..\..\..\arduinoLCD\test\Pain Drain\libraries\lvgl\src\widgets\../core/lv_obj_style_gen.h ****     lv_style_value_t v = lv_obj_get_style_prop(obj, part, LV_STYLE_ARC_COLOR);
 424:..\..\..\arduinoLCD\test\Pain Drain\libraries\lvgl\src\widgets\../core/lv_obj_style_gen.h ****     return v.color;
 425:..\..\..\arduinoLCD\test\Pain Drain\libraries\lvgl\src\widgets\../core/lv_obj_style_gen.h **** }
 426:..\..\..\arduinoLCD\test\Pain Drain\libraries\lvgl\src\widgets\../core/lv_obj_style_gen.h **** 
ARM GAS  C:\Users\haske\AppData\Local\Temp\cc1ymag8.s 			page 22


 427:..\..\..\arduinoLCD\test\Pain Drain\libraries\lvgl\src\widgets\../core/lv_obj_style_gen.h **** static inline lv_color_t lv_obj_get_style_arc_color_filtered(const struct _lv_obj_t * obj, uint32_t
 428:..\..\..\arduinoLCD\test\Pain Drain\libraries\lvgl\src\widgets\../core/lv_obj_style_gen.h **** {
 429:..\..\..\arduinoLCD\test\Pain Drain\libraries\lvgl\src\widgets\../core/lv_obj_style_gen.h ****     lv_style_value_t v = _lv_obj_style_apply_color_filter(obj, part, lv_obj_get_style_prop(obj, par
 430:..\..\..\arduinoLCD\test\Pain Drain\libraries\lvgl\src\widgets\../core/lv_obj_style_gen.h ****     return v.color;
 431:..\..\..\arduinoLCD\test\Pain Drain\libraries\lvgl\src\widgets\../core/lv_obj_style_gen.h **** }
 432:..\..\..\arduinoLCD\test\Pain Drain\libraries\lvgl\src\widgets\../core/lv_obj_style_gen.h **** 
 433:..\..\..\arduinoLCD\test\Pain Drain\libraries\lvgl\src\widgets\../core/lv_obj_style_gen.h **** static inline lv_opa_t lv_obj_get_style_arc_opa(const struct _lv_obj_t * obj, uint32_t part)
 434:..\..\..\arduinoLCD\test\Pain Drain\libraries\lvgl\src\widgets\../core/lv_obj_style_gen.h **** {
 435:..\..\..\arduinoLCD\test\Pain Drain\libraries\lvgl\src\widgets\../core/lv_obj_style_gen.h ****     lv_style_value_t v = lv_obj_get_style_prop(obj, part, LV_STYLE_ARC_OPA);
 436:..\..\..\arduinoLCD\test\Pain Drain\libraries\lvgl\src\widgets\../core/lv_obj_style_gen.h ****     return (lv_opa_t)v.num;
 437:..\..\..\arduinoLCD\test\Pain Drain\libraries\lvgl\src\widgets\../core/lv_obj_style_gen.h **** }
 438:..\..\..\arduinoLCD\test\Pain Drain\libraries\lvgl\src\widgets\../core/lv_obj_style_gen.h **** 
 439:..\..\..\arduinoLCD\test\Pain Drain\libraries\lvgl\src\widgets\../core/lv_obj_style_gen.h **** static inline const void * lv_obj_get_style_arc_img_src(const struct _lv_obj_t * obj, uint32_t part
 440:..\..\..\arduinoLCD\test\Pain Drain\libraries\lvgl\src\widgets\../core/lv_obj_style_gen.h **** {
 441:..\..\..\arduinoLCD\test\Pain Drain\libraries\lvgl\src\widgets\../core/lv_obj_style_gen.h ****     lv_style_value_t v = lv_obj_get_style_prop(obj, part, LV_STYLE_ARC_IMG_SRC);
 442:..\..\..\arduinoLCD\test\Pain Drain\libraries\lvgl\src\widgets\../core/lv_obj_style_gen.h ****     return (const void *)v.ptr;
 443:..\..\..\arduinoLCD\test\Pain Drain\libraries\lvgl\src\widgets\../core/lv_obj_style_gen.h **** }
 444:..\..\..\arduinoLCD\test\Pain Drain\libraries\lvgl\src\widgets\../core/lv_obj_style_gen.h **** 
 445:..\..\..\arduinoLCD\test\Pain Drain\libraries\lvgl\src\widgets\../core/lv_obj_style_gen.h **** static inline lv_color_t lv_obj_get_style_text_color(const struct _lv_obj_t * obj, uint32_t part)
 446:..\..\..\arduinoLCD\test\Pain Drain\libraries\lvgl\src\widgets\../core/lv_obj_style_gen.h **** {
 447:..\..\..\arduinoLCD\test\Pain Drain\libraries\lvgl\src\widgets\../core/lv_obj_style_gen.h ****     lv_style_value_t v = lv_obj_get_style_prop(obj, part, LV_STYLE_TEXT_COLOR);
 448:..\..\..\arduinoLCD\test\Pain Drain\libraries\lvgl\src\widgets\../core/lv_obj_style_gen.h ****     return v.color;
 449:..\..\..\arduinoLCD\test\Pain Drain\libraries\lvgl\src\widgets\../core/lv_obj_style_gen.h **** }
 450:..\..\..\arduinoLCD\test\Pain Drain\libraries\lvgl\src\widgets\../core/lv_obj_style_gen.h **** 
 451:..\..\..\arduinoLCD\test\Pain Drain\libraries\lvgl\src\widgets\../core/lv_obj_style_gen.h **** static inline lv_color_t lv_obj_get_style_text_color_filtered(const struct _lv_obj_t * obj, uint32_
 452:..\..\..\arduinoLCD\test\Pain Drain\libraries\lvgl\src\widgets\../core/lv_obj_style_gen.h **** {
 453:..\..\..\arduinoLCD\test\Pain Drain\libraries\lvgl\src\widgets\../core/lv_obj_style_gen.h ****     lv_style_value_t v = _lv_obj_style_apply_color_filter(obj, part, lv_obj_get_style_prop(obj, par
 454:..\..\..\arduinoLCD\test\Pain Drain\libraries\lvgl\src\widgets\../core/lv_obj_style_gen.h ****     return v.color;
 455:..\..\..\arduinoLCD\test\Pain Drain\libraries\lvgl\src\widgets\../core/lv_obj_style_gen.h **** }
 456:..\..\..\arduinoLCD\test\Pain Drain\libraries\lvgl\src\widgets\../core/lv_obj_style_gen.h **** 
 457:..\..\..\arduinoLCD\test\Pain Drain\libraries\lvgl\src\widgets\../core/lv_obj_style_gen.h **** static inline lv_opa_t lv_obj_get_style_text_opa(const struct _lv_obj_t * obj, uint32_t part)
 458:..\..\..\arduinoLCD\test\Pain Drain\libraries\lvgl\src\widgets\../core/lv_obj_style_gen.h **** {
 459:..\..\..\arduinoLCD\test\Pain Drain\libraries\lvgl\src\widgets\../core/lv_obj_style_gen.h ****     lv_style_value_t v = lv_obj_get_style_prop(obj, part, LV_STYLE_TEXT_OPA);
 460:..\..\..\arduinoLCD\test\Pain Drain\libraries\lvgl\src\widgets\../core/lv_obj_style_gen.h ****     return (lv_opa_t)v.num;
 461:..\..\..\arduinoLCD\test\Pain Drain\libraries\lvgl\src\widgets\../core/lv_obj_style_gen.h **** }
 462:..\..\..\arduinoLCD\test\Pain Drain\libraries\lvgl\src\widgets\../core/lv_obj_style_gen.h **** 
 463:..\..\..\arduinoLCD\test\Pain Drain\libraries\lvgl\src\widgets\../core/lv_obj_style_gen.h **** static inline const lv_font_t * lv_obj_get_style_text_font(const struct _lv_obj_t * obj, uint32_t p
 464:..\..\..\arduinoLCD\test\Pain Drain\libraries\lvgl\src\widgets\../core/lv_obj_style_gen.h **** {
 465:..\..\..\arduinoLCD\test\Pain Drain\libraries\lvgl\src\widgets\../core/lv_obj_style_gen.h ****     lv_style_value_t v = lv_obj_get_style_prop(obj, part, LV_STYLE_TEXT_FONT);
 466:..\..\..\arduinoLCD\test\Pain Drain\libraries\lvgl\src\widgets\../core/lv_obj_style_gen.h ****     return (const lv_font_t *)v.ptr;
 467:..\..\..\arduinoLCD\test\Pain Drain\libraries\lvgl\src\widgets\../core/lv_obj_style_gen.h **** }
 468:..\..\..\arduinoLCD\test\Pain Drain\libraries\lvgl\src\widgets\../core/lv_obj_style_gen.h **** 
 469:..\..\..\arduinoLCD\test\Pain Drain\libraries\lvgl\src\widgets\../core/lv_obj_style_gen.h **** static inline lv_coord_t lv_obj_get_style_text_letter_space(const struct _lv_obj_t * obj, uint32_t 
 470:..\..\..\arduinoLCD\test\Pain Drain\libraries\lvgl\src\widgets\../core/lv_obj_style_gen.h **** {
 471:..\..\..\arduinoLCD\test\Pain Drain\libraries\lvgl\src\widgets\../core/lv_obj_style_gen.h ****     lv_style_value_t v = lv_obj_get_style_prop(obj, part, LV_STYLE_TEXT_LETTER_SPACE);
 472:..\..\..\arduinoLCD\test\Pain Drain\libraries\lvgl\src\widgets\../core/lv_obj_style_gen.h ****     return (lv_coord_t)v.num;
 473:..\..\..\arduinoLCD\test\Pain Drain\libraries\lvgl\src\widgets\../core/lv_obj_style_gen.h **** }
 474:..\..\..\arduinoLCD\test\Pain Drain\libraries\lvgl\src\widgets\../core/lv_obj_style_gen.h **** 
 475:..\..\..\arduinoLCD\test\Pain Drain\libraries\lvgl\src\widgets\../core/lv_obj_style_gen.h **** static inline lv_coord_t lv_obj_get_style_text_line_space(const struct _lv_obj_t * obj, uint32_t pa
 476:..\..\..\arduinoLCD\test\Pain Drain\libraries\lvgl\src\widgets\../core/lv_obj_style_gen.h **** {
 477:..\..\..\arduinoLCD\test\Pain Drain\libraries\lvgl\src\widgets\../core/lv_obj_style_gen.h ****     lv_style_value_t v = lv_obj_get_style_prop(obj, part, LV_STYLE_TEXT_LINE_SPACE);
 478:..\..\..\arduinoLCD\test\Pain Drain\libraries\lvgl\src\widgets\../core/lv_obj_style_gen.h ****     return (lv_coord_t)v.num;
 479:..\..\..\arduinoLCD\test\Pain Drain\libraries\lvgl\src\widgets\../core/lv_obj_style_gen.h **** }
 480:..\..\..\arduinoLCD\test\Pain Drain\libraries\lvgl\src\widgets\../core/lv_obj_style_gen.h **** 
 481:..\..\..\arduinoLCD\test\Pain Drain\libraries\lvgl\src\widgets\../core/lv_obj_style_gen.h **** static inline lv_text_decor_t lv_obj_get_style_text_decor(const struct _lv_obj_t * obj, uint32_t pa
 482:..\..\..\arduinoLCD\test\Pain Drain\libraries\lvgl\src\widgets\../core/lv_obj_style_gen.h **** {
 483:..\..\..\arduinoLCD\test\Pain Drain\libraries\lvgl\src\widgets\../core/lv_obj_style_gen.h ****     lv_style_value_t v = lv_obj_get_style_prop(obj, part, LV_STYLE_TEXT_DECOR);
ARM GAS  C:\Users\haske\AppData\Local\Temp\cc1ymag8.s 			page 23


 484:..\..\..\arduinoLCD\test\Pain Drain\libraries\lvgl\src\widgets\../core/lv_obj_style_gen.h ****     return (lv_text_decor_t)v.num;
 485:..\..\..\arduinoLCD\test\Pain Drain\libraries\lvgl\src\widgets\../core/lv_obj_style_gen.h **** }
 486:..\..\..\arduinoLCD\test\Pain Drain\libraries\lvgl\src\widgets\../core/lv_obj_style_gen.h **** 
 487:..\..\..\arduinoLCD\test\Pain Drain\libraries\lvgl\src\widgets\../core/lv_obj_style_gen.h **** static inline lv_text_align_t lv_obj_get_style_text_align(const struct _lv_obj_t * obj, uint32_t pa
 488:..\..\..\arduinoLCD\test\Pain Drain\libraries\lvgl\src\widgets\../core/lv_obj_style_gen.h **** {
 489:..\..\..\arduinoLCD\test\Pain Drain\libraries\lvgl\src\widgets\../core/lv_obj_style_gen.h ****     lv_style_value_t v = lv_obj_get_style_prop(obj, part, LV_STYLE_TEXT_ALIGN);
 490:..\..\..\arduinoLCD\test\Pain Drain\libraries\lvgl\src\widgets\../core/lv_obj_style_gen.h ****     return (lv_text_align_t)v.num;
 491:..\..\..\arduinoLCD\test\Pain Drain\libraries\lvgl\src\widgets\../core/lv_obj_style_gen.h **** }
 492:..\..\..\arduinoLCD\test\Pain Drain\libraries\lvgl\src\widgets\../core/lv_obj_style_gen.h **** 
 493:..\..\..\arduinoLCD\test\Pain Drain\libraries\lvgl\src\widgets\../core/lv_obj_style_gen.h **** static inline lv_coord_t lv_obj_get_style_radius(const struct _lv_obj_t * obj, uint32_t part)
 494:..\..\..\arduinoLCD\test\Pain Drain\libraries\lvgl\src\widgets\../core/lv_obj_style_gen.h **** {
 495:..\..\..\arduinoLCD\test\Pain Drain\libraries\lvgl\src\widgets\../core/lv_obj_style_gen.h ****     lv_style_value_t v = lv_obj_get_style_prop(obj, part, LV_STYLE_RADIUS);
 496:..\..\..\arduinoLCD\test\Pain Drain\libraries\lvgl\src\widgets\../core/lv_obj_style_gen.h ****     return (lv_coord_t)v.num;
 497:..\..\..\arduinoLCD\test\Pain Drain\libraries\lvgl\src\widgets\../core/lv_obj_style_gen.h **** }
 498:..\..\..\arduinoLCD\test\Pain Drain\libraries\lvgl\src\widgets\../core/lv_obj_style_gen.h **** 
 499:..\..\..\arduinoLCD\test\Pain Drain\libraries\lvgl\src\widgets\../core/lv_obj_style_gen.h **** static inline bool lv_obj_get_style_clip_corner(const struct _lv_obj_t * obj, uint32_t part)
 500:..\..\..\arduinoLCD\test\Pain Drain\libraries\lvgl\src\widgets\../core/lv_obj_style_gen.h **** {
 501:..\..\..\arduinoLCD\test\Pain Drain\libraries\lvgl\src\widgets\../core/lv_obj_style_gen.h ****     lv_style_value_t v = lv_obj_get_style_prop(obj, part, LV_STYLE_CLIP_CORNER);
 502:..\..\..\arduinoLCD\test\Pain Drain\libraries\lvgl\src\widgets\../core/lv_obj_style_gen.h ****     return (bool)v.num;
 503:..\..\..\arduinoLCD\test\Pain Drain\libraries\lvgl\src\widgets\../core/lv_obj_style_gen.h **** }
 504:..\..\..\arduinoLCD\test\Pain Drain\libraries\lvgl\src\widgets\../core/lv_obj_style_gen.h **** 
 505:..\..\..\arduinoLCD\test\Pain Drain\libraries\lvgl\src\widgets\../core/lv_obj_style_gen.h **** static inline lv_opa_t lv_obj_get_style_opa(const struct _lv_obj_t * obj, uint32_t part)
 506:..\..\..\arduinoLCD\test\Pain Drain\libraries\lvgl\src\widgets\../core/lv_obj_style_gen.h **** {
 507:..\..\..\arduinoLCD\test\Pain Drain\libraries\lvgl\src\widgets\../core/lv_obj_style_gen.h ****     lv_style_value_t v = lv_obj_get_style_prop(obj, part, LV_STYLE_OPA);
 508:..\..\..\arduinoLCD\test\Pain Drain\libraries\lvgl\src\widgets\../core/lv_obj_style_gen.h ****     return (lv_opa_t)v.num;
 509:..\..\..\arduinoLCD\test\Pain Drain\libraries\lvgl\src\widgets\../core/lv_obj_style_gen.h **** }
 510:..\..\..\arduinoLCD\test\Pain Drain\libraries\lvgl\src\widgets\../core/lv_obj_style_gen.h **** 
 511:..\..\..\arduinoLCD\test\Pain Drain\libraries\lvgl\src\widgets\../core/lv_obj_style_gen.h **** static inline const lv_color_filter_dsc_t * lv_obj_get_style_color_filter_dsc(const struct _lv_obj_
 512:..\..\..\arduinoLCD\test\Pain Drain\libraries\lvgl\src\widgets\../core/lv_obj_style_gen.h **** {
 513:..\..\..\arduinoLCD\test\Pain Drain\libraries\lvgl\src\widgets\../core/lv_obj_style_gen.h ****     lv_style_value_t v = lv_obj_get_style_prop(obj, part, LV_STYLE_COLOR_FILTER_DSC);
 514:..\..\..\arduinoLCD\test\Pain Drain\libraries\lvgl\src\widgets\../core/lv_obj_style_gen.h ****     return (const lv_color_filter_dsc_t *)v.ptr;
 515:..\..\..\arduinoLCD\test\Pain Drain\libraries\lvgl\src\widgets\../core/lv_obj_style_gen.h **** }
 516:..\..\..\arduinoLCD\test\Pain Drain\libraries\lvgl\src\widgets\../core/lv_obj_style_gen.h **** 
 517:..\..\..\arduinoLCD\test\Pain Drain\libraries\lvgl\src\widgets\../core/lv_obj_style_gen.h **** static inline lv_opa_t lv_obj_get_style_color_filter_opa(const struct _lv_obj_t * obj, uint32_t par
 518:..\..\..\arduinoLCD\test\Pain Drain\libraries\lvgl\src\widgets\../core/lv_obj_style_gen.h **** {
 519:..\..\..\arduinoLCD\test\Pain Drain\libraries\lvgl\src\widgets\../core/lv_obj_style_gen.h ****     lv_style_value_t v = lv_obj_get_style_prop(obj, part, LV_STYLE_COLOR_FILTER_OPA);
 520:..\..\..\arduinoLCD\test\Pain Drain\libraries\lvgl\src\widgets\../core/lv_obj_style_gen.h ****     return (lv_opa_t)v.num;
 521:..\..\..\arduinoLCD\test\Pain Drain\libraries\lvgl\src\widgets\../core/lv_obj_style_gen.h **** }
 522:..\..\..\arduinoLCD\test\Pain Drain\libraries\lvgl\src\widgets\../core/lv_obj_style_gen.h **** 
 523:..\..\..\arduinoLCD\test\Pain Drain\libraries\lvgl\src\widgets\../core/lv_obj_style_gen.h **** static inline const lv_anim_t * lv_obj_get_style_anim(const struct _lv_obj_t * obj, uint32_t part)
 524:..\..\..\arduinoLCD\test\Pain Drain\libraries\lvgl\src\widgets\../core/lv_obj_style_gen.h **** {
 525:..\..\..\arduinoLCD\test\Pain Drain\libraries\lvgl\src\widgets\../core/lv_obj_style_gen.h ****     lv_style_value_t v = lv_obj_get_style_prop(obj, part, LV_STYLE_ANIM);
 526:..\..\..\arduinoLCD\test\Pain Drain\libraries\lvgl\src\widgets\../core/lv_obj_style_gen.h ****     return (const lv_anim_t *)v.ptr;
 527:..\..\..\arduinoLCD\test\Pain Drain\libraries\lvgl\src\widgets\../core/lv_obj_style_gen.h **** }
 528:..\..\..\arduinoLCD\test\Pain Drain\libraries\lvgl\src\widgets\../core/lv_obj_style_gen.h **** 
 529:..\..\..\arduinoLCD\test\Pain Drain\libraries\lvgl\src\widgets\../core/lv_obj_style_gen.h **** static inline uint32_t lv_obj_get_style_anim_time(const struct _lv_obj_t * obj, uint32_t part)
 530:..\..\..\arduinoLCD\test\Pain Drain\libraries\lvgl\src\widgets\../core/lv_obj_style_gen.h **** {
 531:..\..\..\arduinoLCD\test\Pain Drain\libraries\lvgl\src\widgets\../core/lv_obj_style_gen.h ****     lv_style_value_t v = lv_obj_get_style_prop(obj, part, LV_STYLE_ANIM_TIME);
 532:..\..\..\arduinoLCD\test\Pain Drain\libraries\lvgl\src\widgets\../core/lv_obj_style_gen.h ****     return (uint32_t)v.num;
 533:..\..\..\arduinoLCD\test\Pain Drain\libraries\lvgl\src\widgets\../core/lv_obj_style_gen.h **** }
 534:..\..\..\arduinoLCD\test\Pain Drain\libraries\lvgl\src\widgets\../core/lv_obj_style_gen.h **** 
 535:..\..\..\arduinoLCD\test\Pain Drain\libraries\lvgl\src\widgets\../core/lv_obj_style_gen.h **** static inline uint32_t lv_obj_get_style_anim_speed(const struct _lv_obj_t * obj, uint32_t part)
 536:..\..\..\arduinoLCD\test\Pain Drain\libraries\lvgl\src\widgets\../core/lv_obj_style_gen.h **** {
 537:..\..\..\arduinoLCD\test\Pain Drain\libraries\lvgl\src\widgets\../core/lv_obj_style_gen.h ****     lv_style_value_t v = lv_obj_get_style_prop(obj, part, LV_STYLE_ANIM_SPEED);
 538:..\..\..\arduinoLCD\test\Pain Drain\libraries\lvgl\src\widgets\../core/lv_obj_style_gen.h ****     return (uint32_t)v.num;
 539:..\..\..\arduinoLCD\test\Pain Drain\libraries\lvgl\src\widgets\../core/lv_obj_style_gen.h **** }
 540:..\..\..\arduinoLCD\test\Pain Drain\libraries\lvgl\src\widgets\../core/lv_obj_style_gen.h **** 
ARM GAS  C:\Users\haske\AppData\Local\Temp\cc1ymag8.s 			page 24


 541:..\..\..\arduinoLCD\test\Pain Drain\libraries\lvgl\src\widgets\../core/lv_obj_style_gen.h **** static inline const lv_style_transition_dsc_t * lv_obj_get_style_transition(const struct _lv_obj_t 
 542:..\..\..\arduinoLCD\test\Pain Drain\libraries\lvgl\src\widgets\../core/lv_obj_style_gen.h **** {
 543:..\..\..\arduinoLCD\test\Pain Drain\libraries\lvgl\src\widgets\../core/lv_obj_style_gen.h ****     lv_style_value_t v = lv_obj_get_style_prop(obj, part, LV_STYLE_TRANSITION);
 544:..\..\..\arduinoLCD\test\Pain Drain\libraries\lvgl\src\widgets\../core/lv_obj_style_gen.h ****     return (const lv_style_transition_dsc_t *)v.ptr;
 545:..\..\..\arduinoLCD\test\Pain Drain\libraries\lvgl\src\widgets\../core/lv_obj_style_gen.h **** }
 546:..\..\..\arduinoLCD\test\Pain Drain\libraries\lvgl\src\widgets\../core/lv_obj_style_gen.h **** 
 547:..\..\..\arduinoLCD\test\Pain Drain\libraries\lvgl\src\widgets\../core/lv_obj_style_gen.h **** static inline lv_blend_mode_t lv_obj_get_style_blend_mode(const struct _lv_obj_t * obj, uint32_t pa
 548:..\..\..\arduinoLCD\test\Pain Drain\libraries\lvgl\src\widgets\../core/lv_obj_style_gen.h **** {
 549:..\..\..\arduinoLCD\test\Pain Drain\libraries\lvgl\src\widgets\../core/lv_obj_style_gen.h ****     lv_style_value_t v = lv_obj_get_style_prop(obj, part, LV_STYLE_BLEND_MODE);
 550:..\..\..\arduinoLCD\test\Pain Drain\libraries\lvgl\src\widgets\../core/lv_obj_style_gen.h ****     return (lv_blend_mode_t)v.num;
 551:..\..\..\arduinoLCD\test\Pain Drain\libraries\lvgl\src\widgets\../core/lv_obj_style_gen.h **** }
 552:..\..\..\arduinoLCD\test\Pain Drain\libraries\lvgl\src\widgets\../core/lv_obj_style_gen.h **** 
 553:..\..\..\arduinoLCD\test\Pain Drain\libraries\lvgl\src\widgets\../core/lv_obj_style_gen.h **** static inline uint16_t lv_obj_get_style_layout(const struct _lv_obj_t * obj, uint32_t part)
 554:..\..\..\arduinoLCD\test\Pain Drain\libraries\lvgl\src\widgets\../core/lv_obj_style_gen.h **** {
 555:..\..\..\arduinoLCD\test\Pain Drain\libraries\lvgl\src\widgets\../core/lv_obj_style_gen.h ****     lv_style_value_t v = lv_obj_get_style_prop(obj, part, LV_STYLE_LAYOUT);
 556:..\..\..\arduinoLCD\test\Pain Drain\libraries\lvgl\src\widgets\../core/lv_obj_style_gen.h ****     return (uint16_t)v.num;
 557:..\..\..\arduinoLCD\test\Pain Drain\libraries\lvgl\src\widgets\../core/lv_obj_style_gen.h **** }
 558:..\..\..\arduinoLCD\test\Pain Drain\libraries\lvgl\src\widgets\../core/lv_obj_style_gen.h **** 
 559:..\..\..\arduinoLCD\test\Pain Drain\libraries\lvgl\src\widgets\../core/lv_obj_style_gen.h **** static inline lv_base_dir_t lv_obj_get_style_base_dir(const struct _lv_obj_t * obj, uint32_t part)
 560:..\..\..\arduinoLCD\test\Pain Drain\libraries\lvgl\src\widgets\../core/lv_obj_style_gen.h **** {
 561:..\..\..\arduinoLCD\test\Pain Drain\libraries\lvgl\src\widgets\../core/lv_obj_style_gen.h ****     lv_style_value_t v = lv_obj_get_style_prop(obj, part, LV_STYLE_BASE_DIR);
 305              		.loc 2 561 0
 306 001c 1622     		movs	r2, #22
 307 001e 0021     		movs	r1, #0
 308 0020 2000     		movs	r0, r4
 309              	.LVL42:
 310 0022 FFF7FEFF 		bl	lv_obj_get_style_prop
 311              	.LVL43:
 562:..\..\..\arduinoLCD\test\Pain Drain\libraries\lvgl\src\widgets\../core/lv_obj_style_gen.h ****     return (lv_base_dir_t)v.num;
 312              		.loc 2 562 0
 313 0026 C3B2     		uxtb	r3, r0
 314 0028 9846     		mov	r8, r3
 315              	.LVL44:
 316              	.LBE96:
 317              	.LBE95:
 339:..\..\..\arduinoLCD\test\Pain Drain\libraries\lvgl\src\widgets/lv_slider.c **** 
 318              		.loc 1 339 0
 319 002a 2000     		movs	r0, r4
 320 002c FFF7FEFF 		bl	is_slider_horizontal
 321              	.LVL45:
 322 0030 0390     		str	r0, [sp, #12]
 323 0032 8346     		mov	fp, r0
 324              	.LVL46:
 344:..\..\..\arduinoLCD\test\Pain Drain\libraries\lvgl\src\widgets/lv_slider.c ****        slider->bar.max_value > 0) is_symmetrical = true;
 325              		.loc 1 344 0
 326 0034 5C23     		movs	r3, #92
 327 0036 E35C     		ldrb	r3, [r4, r3]
 328 0038 0322     		movs	r2, #3
 329 003a 1340     		ands	r3, r2
 330 003c 012B     		cmp	r3, #1
 331 003e 07D1     		bne	.L20
 344:..\..\..\arduinoLCD\test\Pain Drain\libraries\lvgl\src\widgets/lv_slider.c ****        slider->bar.max_value > 0) is_symmetrical = true;
 332              		.loc 1 344 0 is_stmt 0 discriminator 1
 333 0040 A36A     		ldr	r3, [r4, #40]
 334 0042 002B     		cmp	r3, #0
 335 0044 06DA     		bge	.L21
 344:..\..\..\arduinoLCD\test\Pain Drain\libraries\lvgl\src\widgets/lv_slider.c ****        slider->bar.max_value > 0) is_symmetrical = true;
ARM GAS  C:\Users\haske\AppData\Local\Temp\cc1ymag8.s 			page 25


 336              		.loc 1 344 0 discriminator 2
 337 0046 E36A     		ldr	r3, [r4, #44]
 338 0048 002B     		cmp	r3, #0
 339 004a 05DC     		bgt	.L22
 343:..\..\..\arduinoLCD\test\Pain Drain\libraries\lvgl\src\widgets/lv_slider.c ****     if(slider->bar.mode == LV_BAR_MODE_SYMMETRICAL && slider->bar.min_value < 0 &&
 340              		.loc 1 343 0 is_stmt 1
 341 004c 0025     		movs	r5, #0
 342              	.LVL47:
 343 004e 04E0     		b	.L6
 344              	.LVL48:
 345              	.L20:
 346 0050 0025     		movs	r5, #0
 347              	.LVL49:
 348 0052 02E0     		b	.L6
 349              	.LVL50:
 350              	.L21:
 351 0054 0025     		movs	r5, #0
 352              	.LVL51:
 353 0056 00E0     		b	.L6
 354              	.LVL52:
 355              	.L22:
 345:..\..\..\arduinoLCD\test\Pain Drain\libraries\lvgl\src\widgets/lv_slider.c **** 
 356              		.loc 1 345 0
 357 0058 0125     		movs	r5, #1
 358              	.LVL53:
 359              	.L6:
 347:..\..\..\arduinoLCD\test\Pain Drain\libraries\lvgl\src\widgets/lv_slider.c ****         knob_size = lv_obj_get_height(obj);
 360              		.loc 1 347 0
 361 005a 5B46     		mov	r3, fp
 362 005c 002B     		cmp	r3, #0
 363 005e 18D0     		beq	.L7
 348:..\..\..\arduinoLCD\test\Pain Drain\libraries\lvgl\src\widgets/lv_slider.c ****         if(is_symmetrical && slider->bar.cur_value < 0) knob_area.x1 = slider->bar.indic_area.x1;
 364              		.loc 1 348 0
 365 0060 2000     		movs	r0, r4
 366 0062 FFF7FEFF 		bl	lv_obj_get_height
 367              	.LVL54:
 368 0066 0290     		str	r0, [sp, #8]
 369              	.LVL55:
 349:..\..\..\arduinoLCD\test\Pain Drain\libraries\lvgl\src\widgets/lv_slider.c ****         else knob_area.x1 = LV_SLIDER_KNOB_COORD(is_rtl, slider->bar.indic_area);
 370              		.loc 1 349 0
 371 0068 002D     		cmp	r5, #0
 372 006a 07D0     		beq	.L8
 349:..\..\..\arduinoLCD\test\Pain Drain\libraries\lvgl\src\widgets/lv_slider.c ****         else knob_area.x1 = LV_SLIDER_KNOB_COORD(is_rtl, slider->bar.indic_area);
 373              		.loc 1 349 0 is_stmt 0 discriminator 1
 374 006c 636A     		ldr	r3, [r4, #36]
 375 006e 002B     		cmp	r3, #0
 376 0070 04DA     		bge	.L8
 349:..\..\..\arduinoLCD\test\Pain Drain\libraries\lvgl\src\widgets/lv_slider.c ****         else knob_area.x1 = LV_SLIDER_KNOB_COORD(is_rtl, slider->bar.indic_area);
 377              		.loc 1 349 0 discriminator 2
 378 0072 3423     		movs	r3, #52
 379 0074 E25E     		ldrsh	r2, [r4, r3]
 380 0076 32AB     		add	r3, sp, #200
 381 0078 1A80     		strh	r2, [r3]
 382 007a 1CE0     		b	.L9
 383              	.L8:
 350:..\..\..\arduinoLCD\test\Pain Drain\libraries\lvgl\src\widgets/lv_slider.c ****     }
 384              		.loc 1 350 0 is_stmt 1
ARM GAS  C:\Users\haske\AppData\Local\Temp\cc1ymag8.s 			page 26


 385 007c 4346     		mov	r3, r8
 386 007e 012B     		cmp	r3, #1
 387 0080 02D1     		bne	.L10
 350:..\..\..\arduinoLCD\test\Pain Drain\libraries\lvgl\src\widgets/lv_slider.c ****     }
 388              		.loc 1 350 0 is_stmt 0 discriminator 1
 389 0082 3423     		movs	r3, #52
 390 0084 E25E     		ldrsh	r2, [r4, r3]
 391 0086 01E0     		b	.L11
 392              	.L10:
 350:..\..\..\arduinoLCD\test\Pain Drain\libraries\lvgl\src\widgets/lv_slider.c ****     }
 393              		.loc 1 350 0 discriminator 2
 394 0088 3823     		movs	r3, #56
 395 008a E25E     		ldrsh	r2, [r4, r3]
 396              	.L11:
 350:..\..\..\arduinoLCD\test\Pain Drain\libraries\lvgl\src\widgets/lv_slider.c ****     }
 397              		.loc 1 350 0 discriminator 4
 398 008c 32AB     		add	r3, sp, #200
 399 008e 1A80     		strh	r2, [r3]
 400 0090 11E0     		b	.L9
 401              	.LVL56:
 402              	.L7:
 353:..\..\..\arduinoLCD\test\Pain Drain\libraries\lvgl\src\widgets/lv_slider.c ****         if(is_symmetrical && slider->bar.cur_value < 0) knob_area.y1 = slider->bar.indic_area.y2;
 403              		.loc 1 353 0 is_stmt 1
 404 0092 2000     		movs	r0, r4
 405 0094 FFF7FEFF 		bl	lv_obj_get_width
 406              	.LVL57:
 407 0098 0290     		str	r0, [sp, #8]
 408              	.LVL58:
 354:..\..\..\arduinoLCD\test\Pain Drain\libraries\lvgl\src\widgets/lv_slider.c ****         else knob_area.y1 = slider->bar.indic_area.y1;
 409              		.loc 1 354 0
 410 009a 002D     		cmp	r5, #0
 411 009c 07D0     		beq	.L12
 354:..\..\..\arduinoLCD\test\Pain Drain\libraries\lvgl\src\widgets/lv_slider.c ****         else knob_area.y1 = slider->bar.indic_area.y1;
 412              		.loc 1 354 0 is_stmt 0 discriminator 1
 413 009e 636A     		ldr	r3, [r4, #36]
 414 00a0 002B     		cmp	r3, #0
 415 00a2 04DA     		bge	.L12
 354:..\..\..\arduinoLCD\test\Pain Drain\libraries\lvgl\src\widgets/lv_slider.c ****         else knob_area.y1 = slider->bar.indic_area.y1;
 416              		.loc 1 354 0 discriminator 2
 417 00a4 3A23     		movs	r3, #58
 418 00a6 E25E     		ldrsh	r2, [r4, r3]
 419 00a8 32AB     		add	r3, sp, #200
 420 00aa 5A80     		strh	r2, [r3, #2]
 421 00ac 03E0     		b	.L9
 422              	.L12:
 355:..\..\..\arduinoLCD\test\Pain Drain\libraries\lvgl\src\widgets/lv_slider.c ****     }
 423              		.loc 1 355 0 is_stmt 1
 424 00ae 3623     		movs	r3, #54
 425 00b0 E25E     		ldrsh	r2, [r4, r3]
 426 00b2 32AB     		add	r3, sp, #200
 427 00b4 5A80     		strh	r2, [r3, #2]
 428              	.LVL59:
 429              	.L9:
 359:..\..\..\arduinoLCD\test\Pain Drain\libraries\lvgl\src\widgets/lv_slider.c ****     lv_obj_init_draw_rect_dsc(obj, LV_PART_KNOB, &knob_rect_dsc);
 430              		.loc 1 359 0
 431 00b6 24AF     		add	r7, sp, #144
 432 00b8 3800     		movs	r0, r7
ARM GAS  C:\Users\haske\AppData\Local\Temp\cc1ymag8.s 			page 27


 433 00ba FFF7FEFF 		bl	lv_draw_rect_dsc_init
 434              	.LVL60:
 360:..\..\..\arduinoLCD\test\Pain Drain\libraries\lvgl\src\widgets/lv_slider.c ****     /* Update knob area with knob style */
 435              		.loc 1 360 0
 436 00be C023     		movs	r3, #192
 437 00c0 9B02     		lsls	r3, r3, #10
 438 00c2 9A46     		mov	r10, r3
 439 00c4 3A00     		movs	r2, r7
 440 00c6 1900     		movs	r1, r3
 441 00c8 2000     		movs	r0, r4
 442 00ca FFF7FEFF 		bl	lv_obj_init_draw_rect_dsc
 443              	.LVL61:
 362:..\..\..\arduinoLCD\test\Pain Drain\libraries\lvgl\src\widgets/lv_slider.c ****     /* Update right knob area with calculated knob area */
 444              		.loc 1 362 0
 445 00ce 32AD     		add	r5, sp, #200
 446              	.LVL62:
 447 00d0 039B     		ldr	r3, [sp, #12]
 448 00d2 029A     		ldr	r2, [sp, #8]
 449 00d4 2900     		movs	r1, r5
 450 00d6 2000     		movs	r0, r4
 451 00d8 FFF7FEFF 		bl	position_knob
 452              	.LVL63:
 453              	.LBB97:
 454              	.LBB98:
 455              		.file 3 "c:\\projects\\paindrain\\arduinolcd\\test\\pain drain\\libraries\\lvgl\\src\\misc\\lv_are
   1:c:\projects\paindrain\arduinolcd\test\pain drain\libraries\lvgl\src\misc\lv_area.h **** /**
   2:c:\projects\paindrain\arduinolcd\test\pain drain\libraries\lvgl\src\misc\lv_area.h ****  * @file lv_area.h
   3:c:\projects\paindrain\arduinolcd\test\pain drain\libraries\lvgl\src\misc\lv_area.h ****  *
   4:c:\projects\paindrain\arduinolcd\test\pain drain\libraries\lvgl\src\misc\lv_area.h ****  */
   5:c:\projects\paindrain\arduinolcd\test\pain drain\libraries\lvgl\src\misc\lv_area.h **** 
   6:c:\projects\paindrain\arduinolcd\test\pain drain\libraries\lvgl\src\misc\lv_area.h **** #ifndef LV_AREA_H
   7:c:\projects\paindrain\arduinolcd\test\pain drain\libraries\lvgl\src\misc\lv_area.h **** #define LV_AREA_H
   8:c:\projects\paindrain\arduinolcd\test\pain drain\libraries\lvgl\src\misc\lv_area.h **** 
   9:c:\projects\paindrain\arduinolcd\test\pain drain\libraries\lvgl\src\misc\lv_area.h **** #ifdef __cplusplus
  10:c:\projects\paindrain\arduinolcd\test\pain drain\libraries\lvgl\src\misc\lv_area.h **** extern "C" {
  11:c:\projects\paindrain\arduinolcd\test\pain drain\libraries\lvgl\src\misc\lv_area.h **** #endif
  12:c:\projects\paindrain\arduinolcd\test\pain drain\libraries\lvgl\src\misc\lv_area.h **** 
  13:c:\projects\paindrain\arduinolcd\test\pain drain\libraries\lvgl\src\misc\lv_area.h **** /*********************
  14:c:\projects\paindrain\arduinolcd\test\pain drain\libraries\lvgl\src\misc\lv_area.h ****  *      INCLUDES
  15:c:\projects\paindrain\arduinolcd\test\pain drain\libraries\lvgl\src\misc\lv_area.h ****  *********************/
  16:c:\projects\paindrain\arduinolcd\test\pain drain\libraries\lvgl\src\misc\lv_area.h **** #include "../lv_conf_internal.h"
  17:c:\projects\paindrain\arduinolcd\test\pain drain\libraries\lvgl\src\misc\lv_area.h **** #include <stdbool.h>
  18:c:\projects\paindrain\arduinolcd\test\pain drain\libraries\lvgl\src\misc\lv_area.h **** #include <stdint.h>
  19:c:\projects\paindrain\arduinolcd\test\pain drain\libraries\lvgl\src\misc\lv_area.h **** 
  20:c:\projects\paindrain\arduinolcd\test\pain drain\libraries\lvgl\src\misc\lv_area.h **** /*********************
  21:c:\projects\paindrain\arduinolcd\test\pain drain\libraries\lvgl\src\misc\lv_area.h ****  *      DEFINES
  22:c:\projects\paindrain\arduinolcd\test\pain drain\libraries\lvgl\src\misc\lv_area.h ****  *********************/
  23:c:\projects\paindrain\arduinolcd\test\pain drain\libraries\lvgl\src\misc\lv_area.h **** 
  24:c:\projects\paindrain\arduinolcd\test\pain drain\libraries\lvgl\src\misc\lv_area.h **** #if LV_USE_LARGE_COORD
  25:c:\projects\paindrain\arduinolcd\test\pain drain\libraries\lvgl\src\misc\lv_area.h **** typedef int32_t lv_coord_t;
  26:c:\projects\paindrain\arduinolcd\test\pain drain\libraries\lvgl\src\misc\lv_area.h **** #else
  27:c:\projects\paindrain\arduinolcd\test\pain drain\libraries\lvgl\src\misc\lv_area.h **** typedef int16_t lv_coord_t;
  28:c:\projects\paindrain\arduinolcd\test\pain drain\libraries\lvgl\src\misc\lv_area.h **** #endif
  29:c:\projects\paindrain\arduinolcd\test\pain drain\libraries\lvgl\src\misc\lv_area.h **** 
  30:c:\projects\paindrain\arduinolcd\test\pain drain\libraries\lvgl\src\misc\lv_area.h **** /**********************
  31:c:\projects\paindrain\arduinolcd\test\pain drain\libraries\lvgl\src\misc\lv_area.h ****  *      TYPEDEFS
  32:c:\projects\paindrain\arduinolcd\test\pain drain\libraries\lvgl\src\misc\lv_area.h ****  **********************/
ARM GAS  C:\Users\haske\AppData\Local\Temp\cc1ymag8.s 			page 28


  33:c:\projects\paindrain\arduinolcd\test\pain drain\libraries\lvgl\src\misc\lv_area.h **** 
  34:c:\projects\paindrain\arduinolcd\test\pain drain\libraries\lvgl\src\misc\lv_area.h **** /**
  35:c:\projects\paindrain\arduinolcd\test\pain drain\libraries\lvgl\src\misc\lv_area.h ****  * Represents a point on the screen.
  36:c:\projects\paindrain\arduinolcd\test\pain drain\libraries\lvgl\src\misc\lv_area.h ****  */
  37:c:\projects\paindrain\arduinolcd\test\pain drain\libraries\lvgl\src\misc\lv_area.h **** typedef struct {
  38:c:\projects\paindrain\arduinolcd\test\pain drain\libraries\lvgl\src\misc\lv_area.h ****     lv_coord_t x;
  39:c:\projects\paindrain\arduinolcd\test\pain drain\libraries\lvgl\src\misc\lv_area.h ****     lv_coord_t y;
  40:c:\projects\paindrain\arduinolcd\test\pain drain\libraries\lvgl\src\misc\lv_area.h **** } lv_point_t;
  41:c:\projects\paindrain\arduinolcd\test\pain drain\libraries\lvgl\src\misc\lv_area.h **** 
  42:c:\projects\paindrain\arduinolcd\test\pain drain\libraries\lvgl\src\misc\lv_area.h **** /** Represents an area of the screen.*/
  43:c:\projects\paindrain\arduinolcd\test\pain drain\libraries\lvgl\src\misc\lv_area.h **** typedef struct {
  44:c:\projects\paindrain\arduinolcd\test\pain drain\libraries\lvgl\src\misc\lv_area.h ****     lv_coord_t x1;
  45:c:\projects\paindrain\arduinolcd\test\pain drain\libraries\lvgl\src\misc\lv_area.h ****     lv_coord_t y1;
  46:c:\projects\paindrain\arduinolcd\test\pain drain\libraries\lvgl\src\misc\lv_area.h ****     lv_coord_t x2;
  47:c:\projects\paindrain\arduinolcd\test\pain drain\libraries\lvgl\src\misc\lv_area.h ****     lv_coord_t y2;
  48:c:\projects\paindrain\arduinolcd\test\pain drain\libraries\lvgl\src\misc\lv_area.h **** } lv_area_t;
  49:c:\projects\paindrain\arduinolcd\test\pain drain\libraries\lvgl\src\misc\lv_area.h **** 
  50:c:\projects\paindrain\arduinolcd\test\pain drain\libraries\lvgl\src\misc\lv_area.h **** /** Alignments*/
  51:c:\projects\paindrain\arduinolcd\test\pain drain\libraries\lvgl\src\misc\lv_area.h **** enum {
  52:c:\projects\paindrain\arduinolcd\test\pain drain\libraries\lvgl\src\misc\lv_area.h ****     LV_ALIGN_DEFAULT = 0,
  53:c:\projects\paindrain\arduinolcd\test\pain drain\libraries\lvgl\src\misc\lv_area.h ****     LV_ALIGN_TOP_LEFT,
  54:c:\projects\paindrain\arduinolcd\test\pain drain\libraries\lvgl\src\misc\lv_area.h ****     LV_ALIGN_TOP_MID,
  55:c:\projects\paindrain\arduinolcd\test\pain drain\libraries\lvgl\src\misc\lv_area.h ****     LV_ALIGN_TOP_RIGHT,
  56:c:\projects\paindrain\arduinolcd\test\pain drain\libraries\lvgl\src\misc\lv_area.h ****     LV_ALIGN_BOTTOM_LEFT,
  57:c:\projects\paindrain\arduinolcd\test\pain drain\libraries\lvgl\src\misc\lv_area.h ****     LV_ALIGN_BOTTOM_MID,
  58:c:\projects\paindrain\arduinolcd\test\pain drain\libraries\lvgl\src\misc\lv_area.h ****     LV_ALIGN_BOTTOM_RIGHT,
  59:c:\projects\paindrain\arduinolcd\test\pain drain\libraries\lvgl\src\misc\lv_area.h ****     LV_ALIGN_LEFT_MID,
  60:c:\projects\paindrain\arduinolcd\test\pain drain\libraries\lvgl\src\misc\lv_area.h ****     LV_ALIGN_RIGHT_MID,
  61:c:\projects\paindrain\arduinolcd\test\pain drain\libraries\lvgl\src\misc\lv_area.h ****     LV_ALIGN_CENTER,
  62:c:\projects\paindrain\arduinolcd\test\pain drain\libraries\lvgl\src\misc\lv_area.h **** 
  63:c:\projects\paindrain\arduinolcd\test\pain drain\libraries\lvgl\src\misc\lv_area.h ****     LV_ALIGN_OUT_TOP_LEFT,
  64:c:\projects\paindrain\arduinolcd\test\pain drain\libraries\lvgl\src\misc\lv_area.h ****     LV_ALIGN_OUT_TOP_MID,
  65:c:\projects\paindrain\arduinolcd\test\pain drain\libraries\lvgl\src\misc\lv_area.h ****     LV_ALIGN_OUT_TOP_RIGHT,
  66:c:\projects\paindrain\arduinolcd\test\pain drain\libraries\lvgl\src\misc\lv_area.h ****     LV_ALIGN_OUT_BOTTOM_LEFT,
  67:c:\projects\paindrain\arduinolcd\test\pain drain\libraries\lvgl\src\misc\lv_area.h ****     LV_ALIGN_OUT_BOTTOM_MID,
  68:c:\projects\paindrain\arduinolcd\test\pain drain\libraries\lvgl\src\misc\lv_area.h ****     LV_ALIGN_OUT_BOTTOM_RIGHT,
  69:c:\projects\paindrain\arduinolcd\test\pain drain\libraries\lvgl\src\misc\lv_area.h ****     LV_ALIGN_OUT_LEFT_TOP,
  70:c:\projects\paindrain\arduinolcd\test\pain drain\libraries\lvgl\src\misc\lv_area.h ****     LV_ALIGN_OUT_LEFT_MID,
  71:c:\projects\paindrain\arduinolcd\test\pain drain\libraries\lvgl\src\misc\lv_area.h ****     LV_ALIGN_OUT_LEFT_BOTTOM,
  72:c:\projects\paindrain\arduinolcd\test\pain drain\libraries\lvgl\src\misc\lv_area.h ****     LV_ALIGN_OUT_RIGHT_TOP,
  73:c:\projects\paindrain\arduinolcd\test\pain drain\libraries\lvgl\src\misc\lv_area.h ****     LV_ALIGN_OUT_RIGHT_MID,
  74:c:\projects\paindrain\arduinolcd\test\pain drain\libraries\lvgl\src\misc\lv_area.h ****     LV_ALIGN_OUT_RIGHT_BOTTOM,
  75:c:\projects\paindrain\arduinolcd\test\pain drain\libraries\lvgl\src\misc\lv_area.h **** };
  76:c:\projects\paindrain\arduinolcd\test\pain drain\libraries\lvgl\src\misc\lv_area.h **** typedef uint8_t lv_align_t;
  77:c:\projects\paindrain\arduinolcd\test\pain drain\libraries\lvgl\src\misc\lv_area.h **** 
  78:c:\projects\paindrain\arduinolcd\test\pain drain\libraries\lvgl\src\misc\lv_area.h **** enum {
  79:c:\projects\paindrain\arduinolcd\test\pain drain\libraries\lvgl\src\misc\lv_area.h ****     LV_DIR_NONE     = 0x00,
  80:c:\projects\paindrain\arduinolcd\test\pain drain\libraries\lvgl\src\misc\lv_area.h ****     LV_DIR_LEFT     = (1 << 0),
  81:c:\projects\paindrain\arduinolcd\test\pain drain\libraries\lvgl\src\misc\lv_area.h ****     LV_DIR_RIGHT    = (1 << 1),
  82:c:\projects\paindrain\arduinolcd\test\pain drain\libraries\lvgl\src\misc\lv_area.h ****     LV_DIR_TOP      = (1 << 2),
  83:c:\projects\paindrain\arduinolcd\test\pain drain\libraries\lvgl\src\misc\lv_area.h ****     LV_DIR_BOTTOM   = (1 << 3),
  84:c:\projects\paindrain\arduinolcd\test\pain drain\libraries\lvgl\src\misc\lv_area.h ****     LV_DIR_HOR      = LV_DIR_LEFT | LV_DIR_RIGHT,
  85:c:\projects\paindrain\arduinolcd\test\pain drain\libraries\lvgl\src\misc\lv_area.h ****     LV_DIR_VER      = LV_DIR_TOP | LV_DIR_BOTTOM,
  86:c:\projects\paindrain\arduinolcd\test\pain drain\libraries\lvgl\src\misc\lv_area.h ****     LV_DIR_ALL      = LV_DIR_HOR | LV_DIR_VER,
  87:c:\projects\paindrain\arduinolcd\test\pain drain\libraries\lvgl\src\misc\lv_area.h **** };
  88:c:\projects\paindrain\arduinolcd\test\pain drain\libraries\lvgl\src\misc\lv_area.h **** 
  89:c:\projects\paindrain\arduinolcd\test\pain drain\libraries\lvgl\src\misc\lv_area.h **** typedef uint8_t lv_dir_t;
ARM GAS  C:\Users\haske\AppData\Local\Temp\cc1ymag8.s 			page 29


  90:c:\projects\paindrain\arduinolcd\test\pain drain\libraries\lvgl\src\misc\lv_area.h **** 
  91:c:\projects\paindrain\arduinolcd\test\pain drain\libraries\lvgl\src\misc\lv_area.h **** /**********************
  92:c:\projects\paindrain\arduinolcd\test\pain drain\libraries\lvgl\src\misc\lv_area.h ****  * GLOBAL PROTOTYPES
  93:c:\projects\paindrain\arduinolcd\test\pain drain\libraries\lvgl\src\misc\lv_area.h ****  **********************/
  94:c:\projects\paindrain\arduinolcd\test\pain drain\libraries\lvgl\src\misc\lv_area.h **** 
  95:c:\projects\paindrain\arduinolcd\test\pain drain\libraries\lvgl\src\misc\lv_area.h **** /**
  96:c:\projects\paindrain\arduinolcd\test\pain drain\libraries\lvgl\src\misc\lv_area.h ****  * Initialize an area
  97:c:\projects\paindrain\arduinolcd\test\pain drain\libraries\lvgl\src\misc\lv_area.h ****  * @param area_p pointer to an area
  98:c:\projects\paindrain\arduinolcd\test\pain drain\libraries\lvgl\src\misc\lv_area.h ****  * @param x1 left coordinate of the area
  99:c:\projects\paindrain\arduinolcd\test\pain drain\libraries\lvgl\src\misc\lv_area.h ****  * @param y1 top coordinate of the area
 100:c:\projects\paindrain\arduinolcd\test\pain drain\libraries\lvgl\src\misc\lv_area.h ****  * @param x2 right coordinate of the area
 101:c:\projects\paindrain\arduinolcd\test\pain drain\libraries\lvgl\src\misc\lv_area.h ****  * @param y2 bottom coordinate of the area
 102:c:\projects\paindrain\arduinolcd\test\pain drain\libraries\lvgl\src\misc\lv_area.h ****  */
 103:c:\projects\paindrain\arduinolcd\test\pain drain\libraries\lvgl\src\misc\lv_area.h **** void lv_area_set(lv_area_t * area_p, lv_coord_t x1, lv_coord_t y1, lv_coord_t x2, lv_coord_t y2);
 104:c:\projects\paindrain\arduinolcd\test\pain drain\libraries\lvgl\src\misc\lv_area.h **** 
 105:c:\projects\paindrain\arduinolcd\test\pain drain\libraries\lvgl\src\misc\lv_area.h **** /**
 106:c:\projects\paindrain\arduinolcd\test\pain drain\libraries\lvgl\src\misc\lv_area.h ****  * Copy an area
 107:c:\projects\paindrain\arduinolcd\test\pain drain\libraries\lvgl\src\misc\lv_area.h ****  * @param dest pointer to the destination area
 108:c:\projects\paindrain\arduinolcd\test\pain drain\libraries\lvgl\src\misc\lv_area.h ****  * @param src pointer to the source area
 109:c:\projects\paindrain\arduinolcd\test\pain drain\libraries\lvgl\src\misc\lv_area.h ****  */
 110:c:\projects\paindrain\arduinolcd\test\pain drain\libraries\lvgl\src\misc\lv_area.h **** inline static void lv_area_copy(lv_area_t * dest, const lv_area_t * src)
 111:c:\projects\paindrain\arduinolcd\test\pain drain\libraries\lvgl\src\misc\lv_area.h **** {
 112:c:\projects\paindrain\arduinolcd\test\pain drain\libraries\lvgl\src\misc\lv_area.h ****     dest->x1 = src->x1;
 456              		.loc 3 112 0
 457 00dc 0023     		movs	r3, #0
 458 00de EA5E     		ldrsh	r2, [r5, r3]
 459 00e0 6823     		movs	r3, #104
 460 00e2 E252     		strh	r2, [r4, r3]
 113:c:\projects\paindrain\arduinolcd\test\pain drain\libraries\lvgl\src\misc\lv_area.h ****     dest->y1 = src->y1;
 461              		.loc 3 113 0
 462 00e4 0222     		movs	r2, #2
 463 00e6 AB5E     		ldrsh	r3, [r5, r2]
 464 00e8 2600     		movs	r6, r4
 465 00ea 6836     		adds	r6, r6, #104
 466              	.LVL64:
 467 00ec 7380     		strh	r3, [r6, #2]
 114:c:\projects\paindrain\arduinolcd\test\pain drain\libraries\lvgl\src\misc\lv_area.h ****     dest->x2 = src->x2;
 468              		.loc 3 114 0
 469 00ee 0422     		movs	r2, #4
 470 00f0 AB5E     		ldrsh	r3, [r5, r2]
 471 00f2 B380     		strh	r3, [r6, #4]
 115:c:\projects\paindrain\arduinolcd\test\pain drain\libraries\lvgl\src\misc\lv_area.h ****     dest->y2 = src->y2;
 472              		.loc 3 115 0
 473 00f4 0622     		movs	r2, #6
 474 00f6 AB5E     		ldrsh	r3, [r5, r2]
 475 00f8 F380     		strh	r3, [r6, #6]
 476              	.LVL65:
 477              	.LBE98:
 478              	.LBE97:
 367:..\..\..\arduinoLCD\test\Pain Drain\libraries\lvgl\src\widgets/lv_slider.c ****     part_draw_dsc.part = LV_PART_KNOB;
 479              		.loc 1 367 0
 480 00fa 0199     		ldr	r1, [sp, #4]
 481 00fc 12A8     		add	r0, sp, #72
 482 00fe FFF7FEFF 		bl	lv_obj_draw_dsc_init
 483              	.LVL66:
 368:..\..\..\arduinoLCD\test\Pain Drain\libraries\lvgl\src\widgets/lv_slider.c ****     part_draw_dsc.class_p = MY_CLASS;
 484              		.loc 1 368 0
ARM GAS  C:\Users\haske\AppData\Local\Temp\cc1ymag8.s 			page 30


 485 0102 5346     		mov	r3, r10
 486 0104 1F93     		str	r3, [sp, #124]
 369:..\..\..\arduinoLCD\test\Pain Drain\libraries\lvgl\src\widgets/lv_slider.c ****     part_draw_dsc.type = LV_SLIDER_DRAW_PART_KNOB;
 487              		.loc 1 369 0
 488 0106 404B     		ldr	r3, .L25
 489 0108 1393     		str	r3, [sp, #76]
 370:..\..\..\arduinoLCD\test\Pain Drain\libraries\lvgl\src\widgets/lv_slider.c ****     part_draw_dsc.id = 0;
 490              		.loc 1 370 0
 491 010a 0023     		movs	r3, #0
 492 010c 1493     		str	r3, [sp, #80]
 371:..\..\..\arduinoLCD\test\Pain Drain\libraries\lvgl\src\widgets/lv_slider.c ****     part_draw_dsc.draw_area = &slider->right_knob_area;
 493              		.loc 1 371 0
 494 010e 2093     		str	r3, [sp, #128]
 372:..\..\..\arduinoLCD\test\Pain Drain\libraries\lvgl\src\widgets/lv_slider.c ****     part_draw_dsc.rect_dsc = &knob_rect_dsc;
 495              		.loc 1 372 0
 496 0110 1596     		str	r6, [sp, #84]
 373:..\..\..\arduinoLCD\test\Pain Drain\libraries\lvgl\src\widgets/lv_slider.c **** 
 497              		.loc 1 373 0
 498 0112 1697     		str	r7, [sp, #88]
 499              	.LVL67:
 500              	.LBB99:
 501              	.LBB100:
 502              		.file 4 "..\\..\\..\\arduinoLCD\\test\\Pain Drain\\libraries\\lvgl\\src\\widgets\\lv_slider.h"
   1:..\..\..\arduinoLCD\test\Pain Drain\libraries\lvgl\src\widgets/lv_slider.h **** /**
   2:..\..\..\arduinoLCD\test\Pain Drain\libraries\lvgl\src\widgets/lv_slider.h ****  * @file lv_slider.h
   3:..\..\..\arduinoLCD\test\Pain Drain\libraries\lvgl\src\widgets/lv_slider.h ****  *
   4:..\..\..\arduinoLCD\test\Pain Drain\libraries\lvgl\src\widgets/lv_slider.h ****  */
   5:..\..\..\arduinoLCD\test\Pain Drain\libraries\lvgl\src\widgets/lv_slider.h **** 
   6:..\..\..\arduinoLCD\test\Pain Drain\libraries\lvgl\src\widgets/lv_slider.h **** #ifndef LV_SLIDER_H
   7:..\..\..\arduinoLCD\test\Pain Drain\libraries\lvgl\src\widgets/lv_slider.h **** #define LV_SLIDER_H
   8:..\..\..\arduinoLCD\test\Pain Drain\libraries\lvgl\src\widgets/lv_slider.h **** 
   9:..\..\..\arduinoLCD\test\Pain Drain\libraries\lvgl\src\widgets/lv_slider.h **** #ifdef __cplusplus
  10:..\..\..\arduinoLCD\test\Pain Drain\libraries\lvgl\src\widgets/lv_slider.h **** extern "C" {
  11:..\..\..\arduinoLCD\test\Pain Drain\libraries\lvgl\src\widgets/lv_slider.h **** #endif
  12:..\..\..\arduinoLCD\test\Pain Drain\libraries\lvgl\src\widgets/lv_slider.h **** 
  13:..\..\..\arduinoLCD\test\Pain Drain\libraries\lvgl\src\widgets/lv_slider.h **** /*********************
  14:..\..\..\arduinoLCD\test\Pain Drain\libraries\lvgl\src\widgets/lv_slider.h ****  *      INCLUDES
  15:..\..\..\arduinoLCD\test\Pain Drain\libraries\lvgl\src\widgets/lv_slider.h ****  *********************/
  16:..\..\..\arduinoLCD\test\Pain Drain\libraries\lvgl\src\widgets/lv_slider.h **** #include "../lv_conf_internal.h"
  17:..\..\..\arduinoLCD\test\Pain Drain\libraries\lvgl\src\widgets/lv_slider.h **** 
  18:..\..\..\arduinoLCD\test\Pain Drain\libraries\lvgl\src\widgets/lv_slider.h **** #if LV_USE_SLIDER != 0
  19:..\..\..\arduinoLCD\test\Pain Drain\libraries\lvgl\src\widgets/lv_slider.h **** 
  20:..\..\..\arduinoLCD\test\Pain Drain\libraries\lvgl\src\widgets/lv_slider.h **** /*Testing of dependencies*/
  21:..\..\..\arduinoLCD\test\Pain Drain\libraries\lvgl\src\widgets/lv_slider.h **** #if LV_USE_BAR == 0
  22:..\..\..\arduinoLCD\test\Pain Drain\libraries\lvgl\src\widgets/lv_slider.h **** #error "lv_slider: lv_bar is required. Enable it in lv_conf.h (LV_USE_BAR 1)"
  23:..\..\..\arduinoLCD\test\Pain Drain\libraries\lvgl\src\widgets/lv_slider.h **** #endif
  24:..\..\..\arduinoLCD\test\Pain Drain\libraries\lvgl\src\widgets/lv_slider.h **** 
  25:..\..\..\arduinoLCD\test\Pain Drain\libraries\lvgl\src\widgets/lv_slider.h **** #include "../core/lv_obj.h"
  26:..\..\..\arduinoLCD\test\Pain Drain\libraries\lvgl\src\widgets/lv_slider.h **** #include "lv_bar.h"
  27:..\..\..\arduinoLCD\test\Pain Drain\libraries\lvgl\src\widgets/lv_slider.h **** 
  28:..\..\..\arduinoLCD\test\Pain Drain\libraries\lvgl\src\widgets/lv_slider.h **** /*********************
  29:..\..\..\arduinoLCD\test\Pain Drain\libraries\lvgl\src\widgets/lv_slider.h ****  *      DEFINES
  30:..\..\..\arduinoLCD\test\Pain Drain\libraries\lvgl\src\widgets/lv_slider.h ****  *********************/
  31:..\..\..\arduinoLCD\test\Pain Drain\libraries\lvgl\src\widgets/lv_slider.h **** 
  32:..\..\..\arduinoLCD\test\Pain Drain\libraries\lvgl\src\widgets/lv_slider.h **** /**********************
  33:..\..\..\arduinoLCD\test\Pain Drain\libraries\lvgl\src\widgets/lv_slider.h ****  *      TYPEDEFS
  34:..\..\..\arduinoLCD\test\Pain Drain\libraries\lvgl\src\widgets/lv_slider.h ****  **********************/
ARM GAS  C:\Users\haske\AppData\Local\Temp\cc1ymag8.s 			page 31


  35:..\..\..\arduinoLCD\test\Pain Drain\libraries\lvgl\src\widgets/lv_slider.h **** 
  36:..\..\..\arduinoLCD\test\Pain Drain\libraries\lvgl\src\widgets/lv_slider.h **** enum {
  37:..\..\..\arduinoLCD\test\Pain Drain\libraries\lvgl\src\widgets/lv_slider.h ****     LV_SLIDER_MODE_NORMAL = LV_BAR_MODE_NORMAL,
  38:..\..\..\arduinoLCD\test\Pain Drain\libraries\lvgl\src\widgets/lv_slider.h ****     LV_SLIDER_MODE_SYMMETRICAL = LV_BAR_MODE_SYMMETRICAL,
  39:..\..\..\arduinoLCD\test\Pain Drain\libraries\lvgl\src\widgets/lv_slider.h ****     LV_SLIDER_MODE_RANGE = LV_BAR_MODE_RANGE
  40:..\..\..\arduinoLCD\test\Pain Drain\libraries\lvgl\src\widgets/lv_slider.h **** };
  41:..\..\..\arduinoLCD\test\Pain Drain\libraries\lvgl\src\widgets/lv_slider.h **** typedef uint8_t lv_slider_mode_t;
  42:..\..\..\arduinoLCD\test\Pain Drain\libraries\lvgl\src\widgets/lv_slider.h **** 
  43:..\..\..\arduinoLCD\test\Pain Drain\libraries\lvgl\src\widgets/lv_slider.h **** typedef struct {
  44:..\..\..\arduinoLCD\test\Pain Drain\libraries\lvgl\src\widgets/lv_slider.h ****     lv_bar_t bar;       /*Add the ancestor's type first*/
  45:..\..\..\arduinoLCD\test\Pain Drain\libraries\lvgl\src\widgets/lv_slider.h ****     lv_area_t left_knob_area;
  46:..\..\..\arduinoLCD\test\Pain Drain\libraries\lvgl\src\widgets/lv_slider.h ****     lv_area_t right_knob_area;
  47:..\..\..\arduinoLCD\test\Pain Drain\libraries\lvgl\src\widgets/lv_slider.h ****     int32_t * value_to_set; /*Which bar value to set*/
  48:..\..\..\arduinoLCD\test\Pain Drain\libraries\lvgl\src\widgets/lv_slider.h ****     uint8_t dragging : 1;       /*1: the slider is being dragged*/
  49:..\..\..\arduinoLCD\test\Pain Drain\libraries\lvgl\src\widgets/lv_slider.h ****     uint8_t left_knob_focus : 1; /*1: with encoder now the right knob can be adjusted*/
  50:..\..\..\arduinoLCD\test\Pain Drain\libraries\lvgl\src\widgets/lv_slider.h **** } lv_slider_t;
  51:..\..\..\arduinoLCD\test\Pain Drain\libraries\lvgl\src\widgets/lv_slider.h **** 
  52:..\..\..\arduinoLCD\test\Pain Drain\libraries\lvgl\src\widgets/lv_slider.h **** extern const lv_obj_class_t lv_slider_class;
  53:..\..\..\arduinoLCD\test\Pain Drain\libraries\lvgl\src\widgets/lv_slider.h **** 
  54:..\..\..\arduinoLCD\test\Pain Drain\libraries\lvgl\src\widgets/lv_slider.h **** /**
  55:..\..\..\arduinoLCD\test\Pain Drain\libraries\lvgl\src\widgets/lv_slider.h ****  * `type` field in `lv_obj_draw_part_dsc_t` if `class_p = lv_slider_class`
  56:..\..\..\arduinoLCD\test\Pain Drain\libraries\lvgl\src\widgets/lv_slider.h ****  * Used in `LV_EVENT_DRAW_PART_BEGIN` and `LV_EVENT_DRAW_PART_END`
  57:..\..\..\arduinoLCD\test\Pain Drain\libraries\lvgl\src\widgets/lv_slider.h ****  */
  58:..\..\..\arduinoLCD\test\Pain Drain\libraries\lvgl\src\widgets/lv_slider.h **** typedef enum {
  59:..\..\..\arduinoLCD\test\Pain Drain\libraries\lvgl\src\widgets/lv_slider.h ****     LV_SLIDER_DRAW_PART_KNOB,           /**< The main (right) knob's rectangle*/
  60:..\..\..\arduinoLCD\test\Pain Drain\libraries\lvgl\src\widgets/lv_slider.h ****     LV_SLIDER_DRAW_PART_KNOB_LEFT,      /**< The left knob's rectangle*/
  61:..\..\..\arduinoLCD\test\Pain Drain\libraries\lvgl\src\widgets/lv_slider.h **** } lv_slider_draw_part_type_t;
  62:..\..\..\arduinoLCD\test\Pain Drain\libraries\lvgl\src\widgets/lv_slider.h **** 
  63:..\..\..\arduinoLCD\test\Pain Drain\libraries\lvgl\src\widgets/lv_slider.h **** /**********************
  64:..\..\..\arduinoLCD\test\Pain Drain\libraries\lvgl\src\widgets/lv_slider.h ****  * GLOBAL PROTOTYPES
  65:..\..\..\arduinoLCD\test\Pain Drain\libraries\lvgl\src\widgets/lv_slider.h ****  **********************/
  66:..\..\..\arduinoLCD\test\Pain Drain\libraries\lvgl\src\widgets/lv_slider.h **** 
  67:..\..\..\arduinoLCD\test\Pain Drain\libraries\lvgl\src\widgets/lv_slider.h **** /**
  68:..\..\..\arduinoLCD\test\Pain Drain\libraries\lvgl\src\widgets/lv_slider.h ****  * Create a slider object
  69:..\..\..\arduinoLCD\test\Pain Drain\libraries\lvgl\src\widgets/lv_slider.h ****  * @param parent    pointer to an object, it will be the parent of the new slider.
  70:..\..\..\arduinoLCD\test\Pain Drain\libraries\lvgl\src\widgets/lv_slider.h ****  * @return          pointer to the created slider
  71:..\..\..\arduinoLCD\test\Pain Drain\libraries\lvgl\src\widgets/lv_slider.h ****  */
  72:..\..\..\arduinoLCD\test\Pain Drain\libraries\lvgl\src\widgets/lv_slider.h **** lv_obj_t * lv_slider_create(lv_obj_t * parent);
  73:..\..\..\arduinoLCD\test\Pain Drain\libraries\lvgl\src\widgets/lv_slider.h **** 
  74:..\..\..\arduinoLCD\test\Pain Drain\libraries\lvgl\src\widgets/lv_slider.h **** /*=====================
  75:..\..\..\arduinoLCD\test\Pain Drain\libraries\lvgl\src\widgets/lv_slider.h ****  * Setter functions
  76:..\..\..\arduinoLCD\test\Pain Drain\libraries\lvgl\src\widgets/lv_slider.h ****  *====================*/
  77:..\..\..\arduinoLCD\test\Pain Drain\libraries\lvgl\src\widgets/lv_slider.h **** 
  78:..\..\..\arduinoLCD\test\Pain Drain\libraries\lvgl\src\widgets/lv_slider.h **** /**
  79:..\..\..\arduinoLCD\test\Pain Drain\libraries\lvgl\src\widgets/lv_slider.h ****  * Set a new value on the slider
  80:..\..\..\arduinoLCD\test\Pain Drain\libraries\lvgl\src\widgets/lv_slider.h ****  * @param obj       pointer to a slider object
  81:..\..\..\arduinoLCD\test\Pain Drain\libraries\lvgl\src\widgets/lv_slider.h ****  * @param value     the new value
  82:..\..\..\arduinoLCD\test\Pain Drain\libraries\lvgl\src\widgets/lv_slider.h ****  * @param anim      LV_ANIM_ON: set the value with an animation; LV_ANIM_OFF: change the value imme
  83:..\..\..\arduinoLCD\test\Pain Drain\libraries\lvgl\src\widgets/lv_slider.h ****  */
  84:..\..\..\arduinoLCD\test\Pain Drain\libraries\lvgl\src\widgets/lv_slider.h **** static inline void lv_slider_set_value(lv_obj_t * obj, int32_t value, lv_anim_enable_t anim)
  85:..\..\..\arduinoLCD\test\Pain Drain\libraries\lvgl\src\widgets/lv_slider.h **** {
  86:..\..\..\arduinoLCD\test\Pain Drain\libraries\lvgl\src\widgets/lv_slider.h ****     lv_bar_set_value(obj, value, anim);
  87:..\..\..\arduinoLCD\test\Pain Drain\libraries\lvgl\src\widgets/lv_slider.h **** }
  88:..\..\..\arduinoLCD\test\Pain Drain\libraries\lvgl\src\widgets/lv_slider.h **** 
  89:..\..\..\arduinoLCD\test\Pain Drain\libraries\lvgl\src\widgets/lv_slider.h **** /**
  90:..\..\..\arduinoLCD\test\Pain Drain\libraries\lvgl\src\widgets/lv_slider.h ****  * Set a new value for the left knob of a slider
  91:..\..\..\arduinoLCD\test\Pain Drain\libraries\lvgl\src\widgets/lv_slider.h ****  * @param obj       pointer to a slider object
ARM GAS  C:\Users\haske\AppData\Local\Temp\cc1ymag8.s 			page 32


  92:..\..\..\arduinoLCD\test\Pain Drain\libraries\lvgl\src\widgets/lv_slider.h ****  * @param value     new value
  93:..\..\..\arduinoLCD\test\Pain Drain\libraries\lvgl\src\widgets/lv_slider.h ****  * @param anim      LV_ANIM_ON: set the value with an animation; LV_ANIM_OFF: change the value imme
  94:..\..\..\arduinoLCD\test\Pain Drain\libraries\lvgl\src\widgets/lv_slider.h ****  */
  95:..\..\..\arduinoLCD\test\Pain Drain\libraries\lvgl\src\widgets/lv_slider.h **** static inline void lv_slider_set_left_value(lv_obj_t * obj, int32_t value, lv_anim_enable_t anim)
  96:..\..\..\arduinoLCD\test\Pain Drain\libraries\lvgl\src\widgets/lv_slider.h **** {
  97:..\..\..\arduinoLCD\test\Pain Drain\libraries\lvgl\src\widgets/lv_slider.h ****     lv_bar_set_start_value(obj, value, anim);
  98:..\..\..\arduinoLCD\test\Pain Drain\libraries\lvgl\src\widgets/lv_slider.h **** }
  99:..\..\..\arduinoLCD\test\Pain Drain\libraries\lvgl\src\widgets/lv_slider.h **** 
 100:..\..\..\arduinoLCD\test\Pain Drain\libraries\lvgl\src\widgets/lv_slider.h **** /**
 101:..\..\..\arduinoLCD\test\Pain Drain\libraries\lvgl\src\widgets/lv_slider.h ****  * Set minimum and the maximum values of a bar
 102:..\..\..\arduinoLCD\test\Pain Drain\libraries\lvgl\src\widgets/lv_slider.h ****  * @param obj       pointer to the slider object
 103:..\..\..\arduinoLCD\test\Pain Drain\libraries\lvgl\src\widgets/lv_slider.h ****  * @param min       minimum value
 104:..\..\..\arduinoLCD\test\Pain Drain\libraries\lvgl\src\widgets/lv_slider.h ****  * @param max       maximum value
 105:..\..\..\arduinoLCD\test\Pain Drain\libraries\lvgl\src\widgets/lv_slider.h ****  */
 106:..\..\..\arduinoLCD\test\Pain Drain\libraries\lvgl\src\widgets/lv_slider.h **** static inline void lv_slider_set_range(lv_obj_t * obj, int32_t min, int32_t max)
 107:..\..\..\arduinoLCD\test\Pain Drain\libraries\lvgl\src\widgets/lv_slider.h **** {
 108:..\..\..\arduinoLCD\test\Pain Drain\libraries\lvgl\src\widgets/lv_slider.h ****     lv_bar_set_range(obj, min, max);
 109:..\..\..\arduinoLCD\test\Pain Drain\libraries\lvgl\src\widgets/lv_slider.h **** }
 110:..\..\..\arduinoLCD\test\Pain Drain\libraries\lvgl\src\widgets/lv_slider.h **** 
 111:..\..\..\arduinoLCD\test\Pain Drain\libraries\lvgl\src\widgets/lv_slider.h **** /**
 112:..\..\..\arduinoLCD\test\Pain Drain\libraries\lvgl\src\widgets/lv_slider.h ****  * Set the mode of slider.
 113:..\..\..\arduinoLCD\test\Pain Drain\libraries\lvgl\src\widgets/lv_slider.h ****  * @param obj       pointer to a slider object
 114:..\..\..\arduinoLCD\test\Pain Drain\libraries\lvgl\src\widgets/lv_slider.h ****  * @param mode      the mode of the slider. See ::lv_slider_mode_t
 115:..\..\..\arduinoLCD\test\Pain Drain\libraries\lvgl\src\widgets/lv_slider.h ****  */
 116:..\..\..\arduinoLCD\test\Pain Drain\libraries\lvgl\src\widgets/lv_slider.h **** static inline void lv_slider_set_mode(lv_obj_t * obj, lv_slider_mode_t mode)
 117:..\..\..\arduinoLCD\test\Pain Drain\libraries\lvgl\src\widgets/lv_slider.h **** {
 118:..\..\..\arduinoLCD\test\Pain Drain\libraries\lvgl\src\widgets/lv_slider.h ****     lv_bar_set_mode(obj, (lv_bar_mode_t)mode);
 119:..\..\..\arduinoLCD\test\Pain Drain\libraries\lvgl\src\widgets/lv_slider.h **** }
 120:..\..\..\arduinoLCD\test\Pain Drain\libraries\lvgl\src\widgets/lv_slider.h **** 
 121:..\..\..\arduinoLCD\test\Pain Drain\libraries\lvgl\src\widgets/lv_slider.h **** /*=====================
 122:..\..\..\arduinoLCD\test\Pain Drain\libraries\lvgl\src\widgets/lv_slider.h ****  * Getter functions
 123:..\..\..\arduinoLCD\test\Pain Drain\libraries\lvgl\src\widgets/lv_slider.h ****  *====================*/
 124:..\..\..\arduinoLCD\test\Pain Drain\libraries\lvgl\src\widgets/lv_slider.h **** 
 125:..\..\..\arduinoLCD\test\Pain Drain\libraries\lvgl\src\widgets/lv_slider.h **** /**
 126:..\..\..\arduinoLCD\test\Pain Drain\libraries\lvgl\src\widgets/lv_slider.h ****  * Get the value of the main knob of a slider
 127:..\..\..\arduinoLCD\test\Pain Drain\libraries\lvgl\src\widgets/lv_slider.h ****  * @param obj       pointer to a slider object
 128:..\..\..\arduinoLCD\test\Pain Drain\libraries\lvgl\src\widgets/lv_slider.h ****  * @return          the value of the main knob of the slider
 129:..\..\..\arduinoLCD\test\Pain Drain\libraries\lvgl\src\widgets/lv_slider.h ****  */
 130:..\..\..\arduinoLCD\test\Pain Drain\libraries\lvgl\src\widgets/lv_slider.h **** static inline int32_t lv_slider_get_value(const lv_obj_t * obj)
 131:..\..\..\arduinoLCD\test\Pain Drain\libraries\lvgl\src\widgets/lv_slider.h **** {
 132:..\..\..\arduinoLCD\test\Pain Drain\libraries\lvgl\src\widgets/lv_slider.h ****     return lv_bar_get_value(obj);
 133:..\..\..\arduinoLCD\test\Pain Drain\libraries\lvgl\src\widgets/lv_slider.h **** }
 134:..\..\..\arduinoLCD\test\Pain Drain\libraries\lvgl\src\widgets/lv_slider.h **** 
 135:..\..\..\arduinoLCD\test\Pain Drain\libraries\lvgl\src\widgets/lv_slider.h **** /**
 136:..\..\..\arduinoLCD\test\Pain Drain\libraries\lvgl\src\widgets/lv_slider.h ****  * Get the value of the left knob of a slider
 137:..\..\..\arduinoLCD\test\Pain Drain\libraries\lvgl\src\widgets/lv_slider.h ****  * @param obj       pointer to a slider object
 138:..\..\..\arduinoLCD\test\Pain Drain\libraries\lvgl\src\widgets/lv_slider.h ****  * @return          the value of the left knob of the slider
 139:..\..\..\arduinoLCD\test\Pain Drain\libraries\lvgl\src\widgets/lv_slider.h ****  */
 140:..\..\..\arduinoLCD\test\Pain Drain\libraries\lvgl\src\widgets/lv_slider.h **** static inline int32_t lv_slider_get_left_value(const lv_obj_t * obj)
 141:..\..\..\arduinoLCD\test\Pain Drain\libraries\lvgl\src\widgets/lv_slider.h **** {
 142:..\..\..\arduinoLCD\test\Pain Drain\libraries\lvgl\src\widgets/lv_slider.h ****     return lv_bar_get_start_value(obj);
 143:..\..\..\arduinoLCD\test\Pain Drain\libraries\lvgl\src\widgets/lv_slider.h **** }
 144:..\..\..\arduinoLCD\test\Pain Drain\libraries\lvgl\src\widgets/lv_slider.h **** 
 145:..\..\..\arduinoLCD\test\Pain Drain\libraries\lvgl\src\widgets/lv_slider.h **** /**
 146:..\..\..\arduinoLCD\test\Pain Drain\libraries\lvgl\src\widgets/lv_slider.h ****  * Get the minimum value of a slider
 147:..\..\..\arduinoLCD\test\Pain Drain\libraries\lvgl\src\widgets/lv_slider.h ****  * @param obj       pointer to a slider object
 148:..\..\..\arduinoLCD\test\Pain Drain\libraries\lvgl\src\widgets/lv_slider.h ****  * @return          the minimum value of the slider
ARM GAS  C:\Users\haske\AppData\Local\Temp\cc1ymag8.s 			page 33


 149:..\..\..\arduinoLCD\test\Pain Drain\libraries\lvgl\src\widgets/lv_slider.h ****  */
 150:..\..\..\arduinoLCD\test\Pain Drain\libraries\lvgl\src\widgets/lv_slider.h **** static inline int32_t lv_slider_get_min_value(const lv_obj_t * obj)
 151:..\..\..\arduinoLCD\test\Pain Drain\libraries\lvgl\src\widgets/lv_slider.h **** {
 152:..\..\..\arduinoLCD\test\Pain Drain\libraries\lvgl\src\widgets/lv_slider.h ****     return lv_bar_get_min_value(obj);
 153:..\..\..\arduinoLCD\test\Pain Drain\libraries\lvgl\src\widgets/lv_slider.h **** }
 154:..\..\..\arduinoLCD\test\Pain Drain\libraries\lvgl\src\widgets/lv_slider.h **** 
 155:..\..\..\arduinoLCD\test\Pain Drain\libraries\lvgl\src\widgets/lv_slider.h **** /**
 156:..\..\..\arduinoLCD\test\Pain Drain\libraries\lvgl\src\widgets/lv_slider.h ****  * Get the maximum value of a slider
 157:..\..\..\arduinoLCD\test\Pain Drain\libraries\lvgl\src\widgets/lv_slider.h ****  * @param obj       pointer to a slider object
 158:..\..\..\arduinoLCD\test\Pain Drain\libraries\lvgl\src\widgets/lv_slider.h ****  * @return          the maximum value of the slider
 159:..\..\..\arduinoLCD\test\Pain Drain\libraries\lvgl\src\widgets/lv_slider.h ****  */
 160:..\..\..\arduinoLCD\test\Pain Drain\libraries\lvgl\src\widgets/lv_slider.h **** static inline int32_t lv_slider_get_max_value(const lv_obj_t * obj)
 161:..\..\..\arduinoLCD\test\Pain Drain\libraries\lvgl\src\widgets/lv_slider.h **** {
 162:..\..\..\arduinoLCD\test\Pain Drain\libraries\lvgl\src\widgets/lv_slider.h ****     return lv_bar_get_max_value(obj);
 163:..\..\..\arduinoLCD\test\Pain Drain\libraries\lvgl\src\widgets/lv_slider.h **** }
 164:..\..\..\arduinoLCD\test\Pain Drain\libraries\lvgl\src\widgets/lv_slider.h **** 
 165:..\..\..\arduinoLCD\test\Pain Drain\libraries\lvgl\src\widgets/lv_slider.h **** /**
 166:..\..\..\arduinoLCD\test\Pain Drain\libraries\lvgl\src\widgets/lv_slider.h ****  * Give the slider is being dragged or not
 167:..\..\..\arduinoLCD\test\Pain Drain\libraries\lvgl\src\widgets/lv_slider.h ****  * @param obj       pointer to a slider object
 168:..\..\..\arduinoLCD\test\Pain Drain\libraries\lvgl\src\widgets/lv_slider.h ****  * @return          true: drag in progress false: not dragged
 169:..\..\..\arduinoLCD\test\Pain Drain\libraries\lvgl\src\widgets/lv_slider.h ****  */
 170:..\..\..\arduinoLCD\test\Pain Drain\libraries\lvgl\src\widgets/lv_slider.h **** bool lv_slider_is_dragged(const lv_obj_t * obj);
 171:..\..\..\arduinoLCD\test\Pain Drain\libraries\lvgl\src\widgets/lv_slider.h **** 
 172:..\..\..\arduinoLCD\test\Pain Drain\libraries\lvgl\src\widgets/lv_slider.h **** /**
 173:..\..\..\arduinoLCD\test\Pain Drain\libraries\lvgl\src\widgets/lv_slider.h ****  * Get the mode of the slider.
 174:..\..\..\arduinoLCD\test\Pain Drain\libraries\lvgl\src\widgets/lv_slider.h ****  * @param obj       pointer to a bar object
 175:..\..\..\arduinoLCD\test\Pain Drain\libraries\lvgl\src\widgets/lv_slider.h ****  * @return          see ::lv_slider_mode_t
 176:..\..\..\arduinoLCD\test\Pain Drain\libraries\lvgl\src\widgets/lv_slider.h ****  */
 177:..\..\..\arduinoLCD\test\Pain Drain\libraries\lvgl\src\widgets/lv_slider.h **** static inline lv_slider_mode_t lv_slider_get_mode(lv_obj_t * slider)
 178:..\..\..\arduinoLCD\test\Pain Drain\libraries\lvgl\src\widgets/lv_slider.h **** {
 179:..\..\..\arduinoLCD\test\Pain Drain\libraries\lvgl\src\widgets/lv_slider.h ****     lv_bar_mode_t mode = lv_bar_get_mode(slider);
 503              		.loc 4 179 0
 504 0114 2000     		movs	r0, r4
 505 0116 FFF7FEFF 		bl	lv_bar_get_mode
 506              	.LVL68:
 180:..\..\..\arduinoLCD\test\Pain Drain\libraries\lvgl\src\widgets/lv_slider.h ****     if(mode == LV_BAR_MODE_SYMMETRICAL) return LV_SLIDER_MODE_SYMMETRICAL;
 507              		.loc 4 180 0
 508 011a 0128     		cmp	r0, #1
 509 011c 03D0     		beq	.L23
 181:..\..\..\arduinoLCD\test\Pain Drain\libraries\lvgl\src\widgets/lv_slider.h ****     else if(mode == LV_BAR_MODE_RANGE) return LV_SLIDER_MODE_RANGE;
 510              		.loc 4 181 0
 511 011e 0228     		cmp	r0, #2
 512 0120 03D1     		bne	.L24
 513 0122 0223     		movs	r3, #2
 514 0124 02E0     		b	.L13
 515              	.L23:
 180:..\..\..\arduinoLCD\test\Pain Drain\libraries\lvgl\src\widgets/lv_slider.h ****     if(mode == LV_BAR_MODE_SYMMETRICAL) return LV_SLIDER_MODE_SYMMETRICAL;
 516              		.loc 4 180 0
 517 0126 0123     		movs	r3, #1
 518 0128 00E0     		b	.L13
 519              	.L24:
 182:..\..\..\arduinoLCD\test\Pain Drain\libraries\lvgl\src\widgets/lv_slider.h ****     else return LV_SLIDER_MODE_NORMAL;
 520              		.loc 4 182 0
 521 012a 0023     		movs	r3, #0
 522              	.L13:
 523              	.LVL69:
 524              	.LBE100:
ARM GAS  C:\Users\haske\AppData\Local\Temp\cc1ymag8.s 			page 34


 525              	.LBE99:
 375:..\..\..\arduinoLCD\test\Pain Drain\libraries\lvgl\src\widgets/lv_slider.c ****         lv_event_send(obj, LV_EVENT_DRAW_PART_BEGIN, &part_draw_dsc);
 526              		.loc 1 375 0
 527 012c 022B     		cmp	r3, #2
 528 012e 0FD0     		beq	.L14
 376:..\..\..\arduinoLCD\test\Pain Drain\libraries\lvgl\src\widgets/lv_slider.c ****         lv_draw_rect(draw_ctx, &knob_rect_dsc, &slider->right_knob_area);
 529              		.loc 1 376 0
 530 0130 12AA     		add	r2, sp, #72
 531 0132 1A21     		movs	r1, #26
 532 0134 2000     		movs	r0, r4
 533 0136 FFF7FEFF 		bl	lv_event_send
 534              	.LVL70:
 377:..\..\..\arduinoLCD\test\Pain Drain\libraries\lvgl\src\widgets/lv_slider.c ****         lv_event_send(obj, LV_EVENT_DRAW_PART_END, &part_draw_dsc);
 535              		.loc 1 377 0
 536 013a 3200     		movs	r2, r6
 537 013c 24A9     		add	r1, sp, #144
 538 013e 0198     		ldr	r0, [sp, #4]
 539 0140 FFF7FEFF 		bl	lv_draw_rect
 540              	.LVL71:
 378:..\..\..\arduinoLCD\test\Pain Drain\libraries\lvgl\src\widgets/lv_slider.c ****     }
 541              		.loc 1 378 0
 542 0144 12AA     		add	r2, sp, #72
 543 0146 1B21     		movs	r1, #27
 544 0148 2000     		movs	r0, r4
 545 014a FFF7FEFF 		bl	lv_event_send
 546              	.LVL72:
 547 014e 55E0     		b	.L5
 548              	.L14:
 549              	.LBB101:
 383:..\..\..\arduinoLCD\test\Pain Drain\libraries\lvgl\src\widgets/lv_slider.c ****         /* Draw the right knob */
 550              		.loc 1 383 0
 551 0150 3822     		movs	r2, #56
 552 0152 24A9     		add	r1, sp, #144
 553 0154 04A8     		add	r0, sp, #16
 554 0156 FFF7FEFF 		bl	lv_memcpy
 555              	.LVL73:
 385:..\..\..\arduinoLCD\test\Pain Drain\libraries\lvgl\src\widgets/lv_slider.c ****         lv_draw_rect(draw_ctx, &knob_rect_dsc, &slider->right_knob_area);
 556              		.loc 1 385 0
 557 015a 12AA     		add	r2, sp, #72
 558 015c 1A21     		movs	r1, #26
 559 015e 2000     		movs	r0, r4
 560 0160 FFF7FEFF 		bl	lv_event_send
 561              	.LVL74:
 386:..\..\..\arduinoLCD\test\Pain Drain\libraries\lvgl\src\widgets/lv_slider.c ****         lv_event_send(obj, LV_EVENT_DRAW_PART_END, &part_draw_dsc);
 562              		.loc 1 386 0
 563 0164 3200     		movs	r2, r6
 564 0166 24A9     		add	r1, sp, #144
 565 0168 0198     		ldr	r0, [sp, #4]
 566 016a FFF7FEFF 		bl	lv_draw_rect
 567              	.LVL75:
 387:..\..\..\arduinoLCD\test\Pain Drain\libraries\lvgl\src\widgets/lv_slider.c **** 
 568              		.loc 1 387 0
 569 016e 12AA     		add	r2, sp, #72
 570 0170 1B21     		movs	r1, #27
 571 0172 2000     		movs	r0, r4
 572 0174 FFF7FEFF 		bl	lv_event_send
 573              	.LVL76:
ARM GAS  C:\Users\haske\AppData\Local\Temp\cc1ymag8.s 			page 35


 390:..\..\..\arduinoLCD\test\Pain Drain\libraries\lvgl\src\widgets/lv_slider.c ****             /*use !is_rtl to get the other knob*/
 574              		.loc 1 390 0
 575 0178 5B46     		mov	r3, fp
 576 017a 002B     		cmp	r3, #0
 577 017c 0AD0     		beq	.L16
 392:..\..\..\arduinoLCD\test\Pain Drain\libraries\lvgl\src\widgets/lv_slider.c ****         }
 578              		.loc 1 392 0
 579 017e 4346     		mov	r3, r8
 580 0180 012B     		cmp	r3, #1
 581 0182 02D0     		beq	.L17
 392:..\..\..\arduinoLCD\test\Pain Drain\libraries\lvgl\src\widgets/lv_slider.c ****         }
 582              		.loc 1 392 0 is_stmt 0 discriminator 1
 583 0184 3423     		movs	r3, #52
 584 0186 E25E     		ldrsh	r2, [r4, r3]
 585 0188 01E0     		b	.L18
 586              	.L17:
 392:..\..\..\arduinoLCD\test\Pain Drain\libraries\lvgl\src\widgets/lv_slider.c ****         }
 587              		.loc 1 392 0 discriminator 2
 588 018a 3823     		movs	r3, #56
 589 018c E25E     		ldrsh	r2, [r4, r3]
 590              	.L18:
 392:..\..\..\arduinoLCD\test\Pain Drain\libraries\lvgl\src\widgets/lv_slider.c ****         }
 591              		.loc 1 392 0 discriminator 4
 592 018e 32AB     		add	r3, sp, #200
 593 0190 1A80     		strh	r2, [r3]
 594 0192 03E0     		b	.L19
 595              	.L16:
 395:..\..\..\arduinoLCD\test\Pain Drain\libraries\lvgl\src\widgets/lv_slider.c ****         }
 596              		.loc 1 395 0 is_stmt 1
 597 0194 3A23     		movs	r3, #58
 598 0196 E25E     		ldrsh	r2, [r4, r3]
 599 0198 32AB     		add	r3, sp, #200
 600 019a 5A80     		strh	r2, [r3, #2]
 601              	.L19:
 397:..\..\..\arduinoLCD\test\Pain Drain\libraries\lvgl\src\widgets/lv_slider.c ****         lv_area_copy(&slider->left_knob_area, &knob_area);
 602              		.loc 1 397 0
 603 019c 32AD     		add	r5, sp, #200
 604 019e 039B     		ldr	r3, [sp, #12]
 605 01a0 029A     		ldr	r2, [sp, #8]
 606 01a2 2900     		movs	r1, r5
 607 01a4 2000     		movs	r0, r4
 608 01a6 FFF7FEFF 		bl	position_knob
 609              	.LVL77:
 610              	.LBB102:
 611              	.LBB103:
 112:c:\projects\paindrain\arduinolcd\test\pain drain\libraries\lvgl\src\misc\lv_area.h ****     dest->y1 = src->y1;
 612              		.loc 3 112 0
 613 01aa 0023     		movs	r3, #0
 614 01ac EA5E     		ldrsh	r2, [r5, r3]
 615 01ae 6023     		movs	r3, #96
 616 01b0 E252     		strh	r2, [r4, r3]
 113:c:\projects\paindrain\arduinolcd\test\pain drain\libraries\lvgl\src\misc\lv_area.h ****     dest->x2 = src->x2;
 617              		.loc 3 113 0
 618 01b2 0222     		movs	r2, #2
 619 01b4 AB5E     		ldrsh	r3, [r5, r2]
 620 01b6 2600     		movs	r6, r4
 621 01b8 6036     		adds	r6, r6, #96
ARM GAS  C:\Users\haske\AppData\Local\Temp\cc1ymag8.s 			page 36


 622              	.LVL78:
 623 01ba 7380     		strh	r3, [r6, #2]
 114:c:\projects\paindrain\arduinolcd\test\pain drain\libraries\lvgl\src\misc\lv_area.h ****     dest->y2 = src->y2;
 624              		.loc 3 114 0
 625 01bc 0422     		movs	r2, #4
 626 01be AB5E     		ldrsh	r3, [r5, r2]
 627 01c0 B380     		strh	r3, [r6, #4]
 628              		.loc 3 115 0
 629 01c2 0622     		movs	r2, #6
 630 01c4 AB5E     		ldrsh	r3, [r5, r2]
 631 01c6 F380     		strh	r3, [r6, #6]
 632              	.LVL79:
 633              	.LBE103:
 634              	.LBE102:
 400:..\..\..\arduinoLCD\test\Pain Drain\libraries\lvgl\src\widgets/lv_slider.c ****         part_draw_dsc.type = LV_SLIDER_DRAW_PART_KNOB_LEFT;
 635              		.loc 1 400 0
 636 01c8 24AD     		add	r5, sp, #144
 637 01ca 3822     		movs	r2, #56
 638 01cc 04A9     		add	r1, sp, #16
 639 01ce 2800     		movs	r0, r5
 640 01d0 FFF7FEFF 		bl	lv_memcpy
 641              	.LVL80:
 401:..\..\..\arduinoLCD\test\Pain Drain\libraries\lvgl\src\widgets/lv_slider.c ****         part_draw_dsc.draw_area = &slider->left_knob_area;
 642              		.loc 1 401 0
 643 01d4 0123     		movs	r3, #1
 644 01d6 1493     		str	r3, [sp, #80]
 402:..\..\..\arduinoLCD\test\Pain Drain\libraries\lvgl\src\widgets/lv_slider.c ****         part_draw_dsc.rect_dsc = &knob_rect_dsc;
 645              		.loc 1 402 0
 646 01d8 1596     		str	r6, [sp, #84]
 403:..\..\..\arduinoLCD\test\Pain Drain\libraries\lvgl\src\widgets/lv_slider.c ****         part_draw_dsc.id = 1;
 647              		.loc 1 403 0
 648 01da 1695     		str	r5, [sp, #88]
 404:..\..\..\arduinoLCD\test\Pain Drain\libraries\lvgl\src\widgets/lv_slider.c **** 
 649              		.loc 1 404 0
 650 01dc 2093     		str	r3, [sp, #128]
 406:..\..\..\arduinoLCD\test\Pain Drain\libraries\lvgl\src\widgets/lv_slider.c ****         lv_draw_rect(draw_ctx, &knob_rect_dsc, &slider->left_knob_area);
 651              		.loc 1 406 0
 652 01de 12AA     		add	r2, sp, #72
 653 01e0 1A21     		movs	r1, #26
 654 01e2 2000     		movs	r0, r4
 655 01e4 FFF7FEFF 		bl	lv_event_send
 656              	.LVL81:
 407:..\..\..\arduinoLCD\test\Pain Drain\libraries\lvgl\src\widgets/lv_slider.c ****         lv_event_send(obj, LV_EVENT_DRAW_PART_END, &part_draw_dsc);
 657              		.loc 1 407 0
 658 01e8 3200     		movs	r2, r6
 659 01ea 2900     		movs	r1, r5
 660 01ec 0198     		ldr	r0, [sp, #4]
 661 01ee FFF7FEFF 		bl	lv_draw_rect
 662              	.LVL82:
 408:..\..\..\arduinoLCD\test\Pain Drain\libraries\lvgl\src\widgets/lv_slider.c ****     }
 663              		.loc 1 408 0
 664 01f2 12AA     		add	r2, sp, #72
 665 01f4 1B21     		movs	r1, #27
 666 01f6 2000     		movs	r0, r4
 667 01f8 FFF7FEFF 		bl	lv_event_send
 668              	.LVL83:
 669              	.L5:
ARM GAS  C:\Users\haske\AppData\Local\Temp\cc1ymag8.s 			page 37


 670              	.LBE101:
 410:..\..\..\arduinoLCD\test\Pain Drain\libraries\lvgl\src\widgets/lv_slider.c **** 
 671              		.loc 1 410 0
 672 01fc 34B0     		add	sp, sp, #208
 673              		@ sp needed
 674              	.LVL84:
 675              	.LVL85:
 676 01fe 1CBC     		pop	{r2, r3, r4}
 677 0200 9046     		mov	r8, r2
 678 0202 9A46     		mov	r10, r3
 679 0204 A346     		mov	fp, r4
 680 0206 F0BD     		pop	{r4, r5, r6, r7, pc}
 681              	.L26:
 682              		.align	2
 683              	.L25:
 684 0208 00000000 		.word	.LANCHOR0
 685              		.cfi_endproc
 686              	.LFE178:
 687              		.size	draw_knob, .-draw_knob
 688              		.global	__aeabi_idiv
 689              		.section	.text.lv_slider_event,"ax",%progbits
 690              		.align	2
 691              		.code	16
 692              		.thumb_func
 693              		.type	lv_slider_event, %function
 694              	lv_slider_event:
 695              	.LFB177:
  96:..\..\..\arduinoLCD\test\Pain Drain\libraries\lvgl\src\widgets/lv_slider.c ****     LV_UNUSED(class_p);
 696              		.loc 1 96 0
 697              		.cfi_startproc
 698              		@ args = 0, pretend = 0, frame = 16
 699              		@ frame_needed = 0, uses_anonymous_args = 0
 700              	.LVL86:
 701 0000 F0B5     		push	{r4, r5, r6, r7, lr}
 702              		.cfi_def_cfa_offset 20
 703              		.cfi_offset 4, -20
 704              		.cfi_offset 5, -16
 705              		.cfi_offset 6, -12
 706              		.cfi_offset 7, -8
 707              		.cfi_offset 14, -4
 708 0002 5F46     		mov	r7, fp
 709 0004 5646     		mov	r6, r10
 710 0006 4D46     		mov	r5, r9
 711 0008 4446     		mov	r4, r8
 712 000a F0B4     		push	{r4, r5, r6, r7}
 713              		.cfi_def_cfa_offset 36
 714              		.cfi_offset 8, -36
 715              		.cfi_offset 9, -32
 716              		.cfi_offset 10, -28
 717              		.cfi_offset 11, -24
 718 000c 85B0     		sub	sp, sp, #20
 719              		.cfi_def_cfa_offset 56
 720 000e 0C00     		movs	r4, r1
 102:..\..\..\arduinoLCD\test\Pain Drain\libraries\lvgl\src\widgets/lv_slider.c ****     if(res != LV_RES_OK) return;
 721              		.loc 1 102 0
 722 0010 C048     		ldr	r0, .L87
 723              	.LVL87:
ARM GAS  C:\Users\haske\AppData\Local\Temp\cc1ymag8.s 			page 38


 724 0012 FFF7FEFF 		bl	lv_obj_event_base
 725              	.LVL88:
 103:..\..\..\arduinoLCD\test\Pain Drain\libraries\lvgl\src\widgets/lv_slider.c **** 
 726              		.loc 1 103 0
 727 0016 0128     		cmp	r0, #1
 728 0018 00D0     		beq	.LCB693
 729 001a DFE2     		b	.L27	@long jump
 730              	.LCB693:
 105:..\..\..\arduinoLCD\test\Pain Drain\libraries\lvgl\src\widgets/lv_slider.c ****     lv_obj_t * obj = lv_event_get_target(e);
 731              		.loc 1 105 0
 732 001c 2000     		movs	r0, r4
 733              	.LVL89:
 734 001e FFF7FEFF 		bl	lv_event_get_code
 735              	.LVL90:
 736 0022 0600     		movs	r6, r0
 737              	.LVL91:
 106:..\..\..\arduinoLCD\test\Pain Drain\libraries\lvgl\src\widgets/lv_slider.c ****     lv_slider_t * slider = (lv_slider_t *)obj;
 738              		.loc 1 106 0
 739 0024 2000     		movs	r0, r4
 740              	.LVL92:
 741 0026 FFF7FEFF 		bl	lv_event_get_target
 742              	.LVL93:
 743 002a 0500     		movs	r5, r0
 744              	.LVL94:
 745              	.LBB104:
 746              	.LBB105:
 179:..\..\..\arduinoLCD\test\Pain Drain\libraries\lvgl\src\widgets/lv_slider.h ****     if(mode == LV_BAR_MODE_SYMMETRICAL) return LV_SLIDER_MODE_SYMMETRICAL;
 747              		.loc 4 179 0
 748 002c FFF7FEFF 		bl	lv_bar_get_mode
 749              	.LVL95:
 180:..\..\..\arduinoLCD\test\Pain Drain\libraries\lvgl\src\widgets/lv_slider.h ****     else if(mode == LV_BAR_MODE_RANGE) return LV_SLIDER_MODE_RANGE;
 750              		.loc 4 180 0
 751 0030 0128     		cmp	r0, #1
 752 0032 03D0     		beq	.L82
 181:..\..\..\arduinoLCD\test\Pain Drain\libraries\lvgl\src\widgets/lv_slider.h ****     else return LV_SLIDER_MODE_NORMAL;
 753              		.loc 4 181 0
 754 0034 0228     		cmp	r0, #2
 755 0036 03D1     		bne	.L83
 756 0038 0227     		movs	r7, #2
 757 003a 02E0     		b	.L29
 758              	.L82:
 180:..\..\..\arduinoLCD\test\Pain Drain\libraries\lvgl\src\widgets/lv_slider.h ****     else if(mode == LV_BAR_MODE_RANGE) return LV_SLIDER_MODE_RANGE;
 759              		.loc 4 180 0
 760 003c 0127     		movs	r7, #1
 761 003e 00E0     		b	.L29
 762              	.L83:
 763              		.loc 4 182 0
 764 0040 0027     		movs	r7, #0
 765              	.L29:
 766              	.LVL96:
 767              	.LBE105:
 768              	.LBE104:
 111:..\..\..\arduinoLCD\test\Pain Drain\libraries\lvgl\src\widgets/lv_slider.c ****         lv_hit_test_info_t * info = lv_event_get_param(e);
 769              		.loc 1 111 0
 770 0042 112E     		cmp	r6, #17
 771 0044 49D1     		bne	.L30
 772              	.LBB106:
ARM GAS  C:\Users\haske\AppData\Local\Temp\cc1ymag8.s 			page 39


 112:..\..\..\arduinoLCD\test\Pain Drain\libraries\lvgl\src\widgets/lv_slider.c ****         lv_coord_t ext_click_area = obj->spec_attr ? obj->spec_attr->ext_click_pad : 0;
 773              		.loc 1 112 0
 774 0046 2000     		movs	r0, r4
 775 0048 FFF7FEFF 		bl	lv_event_get_param
 776              	.LVL97:
 777 004c 0600     		movs	r6, r0
 778              	.LVL98:
 113:..\..\..\arduinoLCD\test\Pain Drain\libraries\lvgl\src\widgets/lv_slider.c **** 
 779              		.loc 1 113 0
 780 004e AB68     		ldr	r3, [r5, #8]
 781 0050 002B     		cmp	r3, #0
 782 0052 02D0     		beq	.L84
 113:..\..\..\arduinoLCD\test\Pain Drain\libraries\lvgl\src\widgets/lv_slider.c **** 
 783              		.loc 1 113 0 is_stmt 0 discriminator 1
 784 0054 1424     		movs	r4, #20
 785 0056 1C5F     		ldrsh	r4, [r3, r4]
 786              	.LVL99:
 787 0058 00E0     		b	.L31
 788              	.LVL100:
 789              	.L84:
 113:..\..\..\arduinoLCD\test\Pain Drain\libraries\lvgl\src\widgets/lv_slider.c **** 
 790              		.loc 1 113 0
 791 005a 0024     		movs	r4, #0
 792              	.LVL101:
 793              	.L31:
 794              	.LBB107:
 795              	.LBB108:
 112:c:\projects\paindrain\arduinolcd\test\pain drain\libraries\lvgl\src\misc\lv_area.h ****     dest->y1 = src->y1;
 796              		.loc 3 112 0 is_stmt 1 discriminator 4
 797 005c 6823     		movs	r3, #104
 798 005e EB5E     		ldrsh	r3, [r5, r3]
 799 0060 02AA     		add	r2, sp, #8
 800              	.LVL102:
 801 0062 1380     		strh	r3, [r2]
 113:c:\projects\paindrain\arduinolcd\test\pain drain\libraries\lvgl\src\misc\lv_area.h ****     dest->x2 = src->x2;
 802              		.loc 3 113 0 discriminator 4
 803 0064 2B00     		movs	r3, r5
 804 0066 6833     		adds	r3, r3, #104
 805              	.LVL103:
 806 0068 0221     		movs	r1, #2
 807 006a 5A5E     		ldrsh	r2, [r3, r1]
 808              	.LVL104:
 809 006c 02A9     		add	r1, sp, #8
 810              	.LVL105:
 811 006e 4A80     		strh	r2, [r1, #2]
 114:c:\projects\paindrain\arduinolcd\test\pain drain\libraries\lvgl\src\misc\lv_area.h ****     dest->y2 = src->y2;
 812              		.loc 3 114 0 discriminator 4
 813 0070 0421     		movs	r1, #4
 814 0072 5A5E     		ldrsh	r2, [r3, r1]
 815              	.LVL106:
 816 0074 02A9     		add	r1, sp, #8
 817              	.LVL107:
 818 0076 8A80     		strh	r2, [r1, #4]
 819              		.loc 3 115 0 discriminator 4
 820 0078 0622     		movs	r2, #6
 821 007a 9B5E     		ldrsh	r3, [r3, r2]
 822              	.LVL108:
ARM GAS  C:\Users\haske\AppData\Local\Temp\cc1ymag8.s 			page 40


 823 007c CB80     		strh	r3, [r1, #6]
 824              	.LVL109:
 825              	.LBE108:
 826              	.LBE107:
 118:..\..\..\arduinoLCD\test\Pain Drain\libraries\lvgl\src\widgets/lv_slider.c ****         info->res = _lv_area_is_point_on(&a, info->point, 0);
 827              		.loc 1 118 0 discriminator 4
 828 007e 2200     		movs	r2, r4
 829 0080 2100     		movs	r1, r4
 830 0082 02A8     		add	r0, sp, #8
 831              	.LVL110:
 832 0084 FFF7FEFF 		bl	lv_area_increase
 833              	.LVL111:
 119:..\..\..\arduinoLCD\test\Pain Drain\libraries\lvgl\src\widgets/lv_slider.c **** 
 834              		.loc 1 119 0 discriminator 4
 835 0088 0022     		movs	r2, #0
 836 008a 3168     		ldr	r1, [r6]
 837 008c 02A8     		add	r0, sp, #8
 838 008e FFF7FEFF 		bl	_lv_area_is_point_on
 839              	.LVL112:
 840 0092 3071     		strb	r0, [r6, #4]
 122:..\..\..\arduinoLCD\test\Pain Drain\libraries\lvgl\src\widgets/lv_slider.c ****             lv_area_copy(&a, &slider->left_knob_area);
 841              		.loc 1 122 0 discriminator 4
 842 0094 0028     		cmp	r0, #0
 843 0096 00D0     		beq	.LCB805
 844 0098 A0E2     		b	.L27	@long jump
 845              	.LCB805:
 122:..\..\..\arduinoLCD\test\Pain Drain\libraries\lvgl\src\widgets/lv_slider.c ****             lv_area_copy(&a, &slider->left_knob_area);
 846              		.loc 1 122 0 is_stmt 0 discriminator 1
 847 009a 022F     		cmp	r7, #2
 848 009c 00D0     		beq	.LCB807
 849 009e 9DE2     		b	.L27	@long jump
 850              	.LCB807:
 851              	.LVL113:
 852              	.LBB109:
 853              	.LBB110:
 112:c:\projects\paindrain\arduinolcd\test\pain drain\libraries\lvgl\src\misc\lv_area.h ****     dest->y1 = src->y1;
 854              		.loc 3 112 0 is_stmt 1
 855 00a0 6023     		movs	r3, #96
 856 00a2 EB5E     		ldrsh	r3, [r5, r3]
 857 00a4 02AA     		add	r2, sp, #8
 858              	.LVL114:
 859 00a6 1380     		strh	r3, [r2]
 113:c:\projects\paindrain\arduinolcd\test\pain drain\libraries\lvgl\src\misc\lv_area.h ****     dest->x2 = src->x2;
 860              		.loc 3 113 0
 861 00a8 6035     		adds	r5, r5, #96
 862              	.LVL115:
 863 00aa 0222     		movs	r2, #2
 864 00ac AB5E     		ldrsh	r3, [r5, r2]
 865              	.LVL116:
 866 00ae 02AA     		add	r2, sp, #8
 867              	.LVL117:
 868 00b0 5380     		strh	r3, [r2, #2]
 114:c:\projects\paindrain\arduinolcd\test\pain drain\libraries\lvgl\src\misc\lv_area.h ****     dest->y2 = src->y2;
 869              		.loc 3 114 0
 870 00b2 0422     		movs	r2, #4
 871 00b4 AB5E     		ldrsh	r3, [r5, r2]
 872              	.LVL118:
ARM GAS  C:\Users\haske\AppData\Local\Temp\cc1ymag8.s 			page 41


 873 00b6 02AA     		add	r2, sp, #8
 874              	.LVL119:
 875 00b8 9380     		strh	r3, [r2, #4]
 876              		.loc 3 115 0
 877 00ba 0622     		movs	r2, #6
 878 00bc AB5E     		ldrsh	r3, [r5, r2]
 879              	.LVL120:
 880 00be 02AA     		add	r2, sp, #8
 881              	.LVL121:
 882 00c0 D380     		strh	r3, [r2, #6]
 883              	.LVL122:
 884              	.LBE110:
 885              	.LBE109:
 124:..\..\..\arduinoLCD\test\Pain Drain\libraries\lvgl\src\widgets/lv_slider.c ****             info->res = _lv_area_is_point_on(&a, info->point, 0);
 886              		.loc 1 124 0
 887 00c2 2200     		movs	r2, r4
 888 00c4 2100     		movs	r1, r4
 889 00c6 02A8     		add	r0, sp, #8
 890 00c8 FFF7FEFF 		bl	lv_area_increase
 891              	.LVL123:
 125:..\..\..\arduinoLCD\test\Pain Drain\libraries\lvgl\src\widgets/lv_slider.c ****         }
 892              		.loc 1 125 0
 893 00cc 0022     		movs	r2, #0
 894 00ce 3168     		ldr	r1, [r6]
 895 00d0 02A8     		add	r0, sp, #8
 896 00d2 FFF7FEFF 		bl	_lv_area_is_point_on
 897              	.LVL124:
 898 00d6 3071     		strb	r0, [r6, #4]
 899 00d8 80E2     		b	.L27
 900              	.LVL125:
 901              	.L30:
 902              	.LBE106:
 128:..\..\..\arduinoLCD\test\Pain Drain\libraries\lvgl\src\widgets/lv_slider.c ****         lv_obj_invalidate(obj);
 903              		.loc 1 128 0
 904 00da 012E     		cmp	r6, #1
 905 00dc 00D0     		beq	.LCB865
 906 00de C3E0     		b	.L33	@long jump
 907              	.LCB865:
 908              	.LBB111:
 129:..\..\..\arduinoLCD\test\Pain Drain\libraries\lvgl\src\widgets/lv_slider.c **** 
 909              		.loc 1 129 0
 910 00e0 2800     		movs	r0, r5
 911 00e2 FFF7FEFF 		bl	lv_obj_invalidate
 912              	.LVL126:
 132:..\..\..\arduinoLCD\test\Pain Drain\libraries\lvgl\src\widgets/lv_slider.c ****         if(type == LV_SLIDER_MODE_NORMAL || type == LV_SLIDER_MODE_SYMMETRICAL) {
 913              		.loc 1 132 0
 914 00e6 7422     		movs	r2, #116
 915 00e8 A95C     		ldrb	r1, [r5, r2]
 916 00ea 0123     		movs	r3, #1
 917 00ec 0B43     		orrs	r3, r1
 918 00ee AB54     		strb	r3, [r5, r2]
 133:..\..\..\arduinoLCD\test\Pain Drain\libraries\lvgl\src\widgets/lv_slider.c ****             slider->value_to_set = &slider->bar.cur_value;
 919              		.loc 1 133 0
 920 00f0 012F     		cmp	r7, #1
 921 00f2 03D8     		bhi	.L34
 134:..\..\..\arduinoLCD\test\Pain Drain\libraries\lvgl\src\widgets/lv_slider.c ****         }
 922              		.loc 1 134 0
ARM GAS  C:\Users\haske\AppData\Local\Temp\cc1ymag8.s 			page 42


 923 00f4 2B00     		movs	r3, r5
 924 00f6 2433     		adds	r3, r3, #36
 925 00f8 2B67     		str	r3, [r5, #112]
 926 00fa 6FE2     		b	.L27
 927              	.L34:
 136:..\..\..\arduinoLCD\test\Pain Drain\libraries\lvgl\src\widgets/lv_slider.c ****             lv_indev_get_point(lv_indev_get_act(), &p);
 928              		.loc 1 136 0
 929 00fc 022F     		cmp	r7, #2
 930 00fe 00D0     		beq	.LCB885
 931 0100 6CE2     		b	.L27	@long jump
 932              	.LCB885:
 933              	.LBB112:
 137:..\..\..\arduinoLCD\test\Pain Drain\libraries\lvgl\src\widgets/lv_slider.c ****             bool hor = lv_obj_get_width(obj) >= lv_obj_get_height(obj);
 934              		.loc 1 137 0
 935 0102 FFF7FEFF 		bl	lv_indev_get_act
 936              	.LVL127:
 937 0106 02A9     		add	r1, sp, #8
 938 0108 FFF7FEFF 		bl	lv_indev_get_point
 939              	.LVL128:
 138:..\..\..\arduinoLCD\test\Pain Drain\libraries\lvgl\src\widgets/lv_slider.c ****             lv_base_dir_t base_dir = lv_obj_get_style_base_dir(obj, LV_PART_MAIN);
 940              		.loc 1 138 0
 941 010c 2800     		movs	r0, r5
 942 010e FFF7FEFF 		bl	lv_obj_get_width
 943              	.LVL129:
 944 0112 0600     		movs	r6, r0
 945              	.LVL130:
 946 0114 2800     		movs	r0, r5
 947 0116 FFF7FEFF 		bl	lv_obj_get_height
 948              	.LVL131:
 949 011a 0400     		movs	r4, r0
 950              	.LVL132:
 951              	.LBB113:
 952              	.LBB114:
 561:..\..\..\arduinoLCD\test\Pain Drain\libraries\lvgl\src\widgets\../core/lv_obj_style_gen.h ****     return (lv_base_dir_t)v.num;
 953              		.loc 2 561 0
 954 011c 1622     		movs	r2, #22
 955 011e 0021     		movs	r1, #0
 956 0120 2800     		movs	r0, r5
 957 0122 FFF7FEFF 		bl	lv_obj_get_style_prop
 958              	.LVL133:
 959              		.loc 2 562 0
 960 0126 C0B2     		uxtb	r0, r0
 961              	.LVL134:
 962              	.LBE114:
 963              	.LBE113:
 142:..\..\..\arduinoLCD\test\Pain Drain\libraries\lvgl\src\widgets/lv_slider.c ****                 if((base_dir != LV_BASE_DIR_RTL && p.x > slider->right_knob_area.x2) || (base_dir =
 964              		.loc 1 142 0
 965 0128 A642     		cmp	r6, r4
 966 012a 5EDB     		blt	.L36
 143:..\..\..\arduinoLCD\test\Pain Drain\libraries\lvgl\src\widgets/lv_slider.c ****                                                                                          p.x < slid
 967              		.loc 1 143 0
 968 012c 0128     		cmp	r0, #1
 969 012e 06D0     		beq	.L37
 143:..\..\..\arduinoLCD\test\Pain Drain\libraries\lvgl\src\widgets/lv_slider.c ****                                                                                          p.x < slid
 970              		.loc 1 143 0 is_stmt 0 discriminator 1
 971 0130 02AB     		add	r3, sp, #8
 972 0132 0022     		movs	r2, #0
ARM GAS  C:\Users\haske\AppData\Local\Temp\cc1ymag8.s 			page 43


 973 0134 9A5E     		ldrsh	r2, [r3, r2]
 974 0136 6C23     		movs	r3, #108
 975 0138 EB5E     		ldrsh	r3, [r5, r3]
 976 013a 9A42     		cmp	r2, r3
 977 013c 08DC     		bgt	.L38
 978              	.L37:
 143:..\..\..\arduinoLCD\test\Pain Drain\libraries\lvgl\src\widgets/lv_slider.c ****                                                                                          p.x < slid
 979              		.loc 1 143 0 discriminator 3
 980 013e 0128     		cmp	r0, #1
 981 0140 0AD1     		bne	.L39
 144:..\..\..\arduinoLCD\test\Pain Drain\libraries\lvgl\src\widgets/lv_slider.c ****                     slider->value_to_set = &slider->bar.cur_value;
 982              		.loc 1 144 0 is_stmt 1 discriminator 4
 983 0142 02AB     		add	r3, sp, #8
 984 0144 0022     		movs	r2, #0
 985 0146 9A5E     		ldrsh	r2, [r3, r2]
 986 0148 6823     		movs	r3, #104
 987 014a EB5E     		ldrsh	r3, [r5, r3]
 143:..\..\..\arduinoLCD\test\Pain Drain\libraries\lvgl\src\widgets/lv_slider.c ****                                                                                          p.x < slid
 988              		.loc 1 143 0 discriminator 4
 989 014c 9A42     		cmp	r2, r3
 990 014e 03DA     		bge	.L39
 991              	.L38:
 145:..\..\..\arduinoLCD\test\Pain Drain\libraries\lvgl\src\widgets/lv_slider.c ****                 }
 992              		.loc 1 145 0
 993 0150 2B00     		movs	r3, r5
 994 0152 2433     		adds	r3, r3, #36
 995 0154 2B67     		str	r3, [r5, #112]
 996 0156 41E2     		b	.L27
 997              	.L39:
 147:..\..\..\arduinoLCD\test\Pain Drain\libraries\lvgl\src\widgets/lv_slider.c ****                                                                                              p.x > 
 998              		.loc 1 147 0
 999 0158 0128     		cmp	r0, #1
 1000 015a 06D0     		beq	.L40
 147:..\..\..\arduinoLCD\test\Pain Drain\libraries\lvgl\src\widgets/lv_slider.c ****                                                                                              p.x > 
 1001              		.loc 1 147 0 is_stmt 0 discriminator 1
 1002 015c 02AB     		add	r3, sp, #8
 1003 015e 0022     		movs	r2, #0
 1004 0160 9A5E     		ldrsh	r2, [r3, r2]
 1005 0162 6023     		movs	r3, #96
 1006 0164 EB5E     		ldrsh	r3, [r5, r3]
 1007 0166 9A42     		cmp	r2, r3
 1008 0168 08DB     		blt	.L41
 1009              	.L40:
 147:..\..\..\arduinoLCD\test\Pain Drain\libraries\lvgl\src\widgets/lv_slider.c ****                                                                                              p.x > 
 1010              		.loc 1 147 0 discriminator 3
 1011 016a 0128     		cmp	r0, #1
 1012 016c 0AD1     		bne	.L42
 148:..\..\..\arduinoLCD\test\Pain Drain\libraries\lvgl\src\widgets/lv_slider.c ****                     slider->value_to_set = &slider->bar.start_value;
 1013              		.loc 1 148 0 is_stmt 1 discriminator 4
 1014 016e 02AB     		add	r3, sp, #8
 1015 0170 0022     		movs	r2, #0
 1016 0172 9A5E     		ldrsh	r2, [r3, r2]
 1017 0174 6423     		movs	r3, #100
 1018 0176 EB5E     		ldrsh	r3, [r5, r3]
 147:..\..\..\arduinoLCD\test\Pain Drain\libraries\lvgl\src\widgets/lv_slider.c ****                                                                                              p.x > 
 1019              		.loc 1 147 0 discriminator 4
 1020 0178 9A42     		cmp	r2, r3
ARM GAS  C:\Users\haske\AppData\Local\Temp\cc1ymag8.s 			page 44


 1021 017a 03DD     		ble	.L42
 1022              	.L41:
 149:..\..\..\arduinoLCD\test\Pain Drain\libraries\lvgl\src\widgets/lv_slider.c ****                 }
 1023              		.loc 1 149 0
 1024 017c 2B00     		movs	r3, r5
 1025 017e 3033     		adds	r3, r3, #48
 1026 0180 2B67     		str	r3, [r5, #112]
 1027 0182 2BE2     		b	.L27
 1028              	.L42:
 153:..\..\..\arduinoLCD\test\Pain Drain\libraries\lvgl\src\widgets/lv_slider.c ****                     dist_right = LV_ABS((slider->right_knob_area.x1 + (slider->right_knob_area.x2 -
 1029              		.loc 1 153 0
 1030 0184 6023     		movs	r3, #96
 1031 0186 E95E     		ldrsh	r1, [r5, r3]
 1032 0188 6423     		movs	r3, #100
 1033 018a EB5E     		ldrsh	r3, [r5, r3]
 1034 018c 5B1A     		subs	r3, r3, r1
 1035 018e DA0F     		lsrs	r2, r3, #31
 1036 0190 D318     		adds	r3, r2, r3
 1037 0192 5B10     		asrs	r3, r3, #1
 1038 0194 C918     		adds	r1, r1, r3
 1039 0196 02AB     		add	r3, sp, #8
 1040 0198 0020     		movs	r0, #0
 1041 019a 185E     		ldrsh	r0, [r3, r0]
 1042 019c 091A     		subs	r1, r1, r0
 1043 019e CB17     		asrs	r3, r1, #31
 1044 01a0 C918     		adds	r1, r1, r3
 1045 01a2 5940     		eors	r1, r3
 1046 01a4 09B2     		sxth	r1, r1
 1047              	.LVL135:
 154:..\..\..\arduinoLCD\test\Pain Drain\libraries\lvgl\src\widgets/lv_slider.c **** 
 1048              		.loc 1 154 0
 1049 01a6 6823     		movs	r3, #104
 1050 01a8 EC5E     		ldrsh	r4, [r5, r3]
 1051              	.LVL136:
 1052 01aa 6C23     		movs	r3, #108
 1053 01ac EA5E     		ldrsh	r2, [r5, r3]
 1054 01ae 131B     		subs	r3, r2, r4
 1055 01b0 DA0F     		lsrs	r2, r3, #31
 1056 01b2 D218     		adds	r2, r2, r3
 1057 01b4 5210     		asrs	r2, r2, #1
 1058 01b6 A318     		adds	r3, r4, r2
 1059 01b8 1B1A     		subs	r3, r3, r0
 1060 01ba DA17     		asrs	r2, r3, #31
 1061 01bc 9B18     		adds	r3, r3, r2
 1062 01be 5340     		eors	r3, r2
 1063 01c0 1BB2     		sxth	r3, r3
 1064              	.LVL137:
 157:..\..\..\arduinoLCD\test\Pain Drain\libraries\lvgl\src\widgets/lv_slider.c ****                         slider->value_to_set = &slider->bar.cur_value;
 1065              		.loc 1 157 0
 1066 01c2 9942     		cmp	r1, r3
 1067 01c4 08DD     		ble	.L43
 158:..\..\..\arduinoLCD\test\Pain Drain\libraries\lvgl\src\widgets/lv_slider.c ****                         slider->left_knob_focus = 0;
 1068              		.loc 1 158 0
 1069 01c6 2B00     		movs	r3, r5
 1070              	.LVL138:
 1071 01c8 2433     		adds	r3, r3, #36
 1072              	.LVL139:
ARM GAS  C:\Users\haske\AppData\Local\Temp\cc1ymag8.s 			page 45


 1073 01ca 2B67     		str	r3, [r5, #112]
 1074              	.LVL140:
 159:..\..\..\arduinoLCD\test\Pain Drain\libraries\lvgl\src\widgets/lv_slider.c ****                     }
 1075              		.loc 1 159 0
 1076 01cc 7422     		movs	r2, #116
 1077 01ce AB5C     		ldrb	r3, [r5, r2]
 1078 01d0 0221     		movs	r1, #2
 1079              	.LVL141:
 1080 01d2 8B43     		bics	r3, r1
 1081 01d4 AB54     		strb	r3, [r5, r2]
 1082 01d6 01E2     		b	.L27
 1083              	.LVL142:
 1084              	.L43:
 162:..\..\..\arduinoLCD\test\Pain Drain\libraries\lvgl\src\widgets/lv_slider.c ****                         slider->left_knob_focus = 1;
 1085              		.loc 1 162 0
 1086 01d8 2B00     		movs	r3, r5
 1087              	.LVL143:
 1088 01da 3033     		adds	r3, r3, #48
 1089 01dc 2B67     		str	r3, [r5, #112]
 1090              	.LVL144:
 163:..\..\..\arduinoLCD\test\Pain Drain\libraries\lvgl\src\widgets/lv_slider.c ****                     }
 1091              		.loc 1 163 0
 1092 01de 7422     		movs	r2, #116
 1093 01e0 AB5C     		ldrb	r3, [r5, r2]
 1094 01e2 0221     		movs	r1, #2
 1095              	.LVL145:
 1096 01e4 0B43     		orrs	r3, r1
 1097 01e6 AB54     		strb	r3, [r5, r2]
 1098 01e8 F8E1     		b	.L27
 1099              	.LVL146:
 1100              	.L36:
 168:..\..\..\arduinoLCD\test\Pain Drain\libraries\lvgl\src\widgets/lv_slider.c ****                     slider->value_to_set = &slider->bar.cur_value;
 1101              		.loc 1 168 0
 1102 01ea 02AB     		add	r3, sp, #8
 1103 01ec 0220     		movs	r0, #2
 1104 01ee 185E     		ldrsh	r0, [r3, r0]
 1105 01f0 6A23     		movs	r3, #106
 1106 01f2 EC5E     		ldrsh	r4, [r5, r3]
 1107              	.LVL147:
 1108 01f4 A042     		cmp	r0, r4
 1109 01f6 03DA     		bge	.L44
 169:..\..\..\arduinoLCD\test\Pain Drain\libraries\lvgl\src\widgets/lv_slider.c ****                 }
 1110              		.loc 1 169 0
 1111 01f8 2B00     		movs	r3, r5
 1112 01fa 2433     		adds	r3, r3, #36
 1113 01fc 2B67     		str	r3, [r5, #112]
 1114 01fe EDE1     		b	.L27
 1115              	.L44:
 171:..\..\..\arduinoLCD\test\Pain Drain\libraries\lvgl\src\widgets/lv_slider.c ****                     slider->value_to_set = &slider->bar.start_value;
 1116              		.loc 1 171 0
 1117 0200 6623     		movs	r3, #102
 1118 0202 EA5E     		ldrsh	r2, [r5, r3]
 1119 0204 9042     		cmp	r0, r2
 1120 0206 03DD     		ble	.L45
 172:..\..\..\arduinoLCD\test\Pain Drain\libraries\lvgl\src\widgets/lv_slider.c ****                 }
 1121              		.loc 1 172 0
 1122 0208 2B00     		movs	r3, r5
ARM GAS  C:\Users\haske\AppData\Local\Temp\cc1ymag8.s 			page 46


 1123 020a 3033     		adds	r3, r3, #48
 1124 020c 2B67     		str	r3, [r5, #112]
 1125 020e E5E1     		b	.L27
 1126              	.L45:
 176:..\..\..\arduinoLCD\test\Pain Drain\libraries\lvgl\src\widgets/lv_slider.c ****                     dist_right = LV_ABS((slider->right_knob_area.y1 + (slider->right_knob_area.y2 -
 1127              		.loc 1 176 0
 1128 0210 6223     		movs	r3, #98
 1129 0212 E95E     		ldrsh	r1, [r5, r3]
 1130 0214 521A     		subs	r2, r2, r1
 1131 0216 D30F     		lsrs	r3, r2, #31
 1132 0218 9A18     		adds	r2, r3, r2
 1133 021a 5210     		asrs	r2, r2, #1
 1134 021c 8918     		adds	r1, r1, r2
 1135 021e 091A     		subs	r1, r1, r0
 1136 0220 CB17     		asrs	r3, r1, #31
 1137 0222 C918     		adds	r1, r1, r3
 1138 0224 5940     		eors	r1, r3
 1139 0226 09B2     		sxth	r1, r1
 1140              	.LVL148:
 177:..\..\..\arduinoLCD\test\Pain Drain\libraries\lvgl\src\widgets/lv_slider.c **** 
 1141              		.loc 1 177 0
 1142 0228 6E23     		movs	r3, #110
 1143 022a EA5E     		ldrsh	r2, [r5, r3]
 1144 022c 131B     		subs	r3, r2, r4
 1145 022e DA0F     		lsrs	r2, r3, #31
 1146 0230 D218     		adds	r2, r2, r3
 1147 0232 5210     		asrs	r2, r2, #1
 1148 0234 A318     		adds	r3, r4, r2
 1149 0236 1B1A     		subs	r3, r3, r0
 1150 0238 DA17     		asrs	r2, r3, #31
 1151 023a 9B18     		adds	r3, r3, r2
 1152 023c 5340     		eors	r3, r2
 1153 023e 1BB2     		sxth	r3, r3
 1154              	.LVL149:
 180:..\..\..\arduinoLCD\test\Pain Drain\libraries\lvgl\src\widgets/lv_slider.c ****                         slider->value_to_set = &slider->bar.cur_value;
 1155              		.loc 1 180 0
 1156 0240 9942     		cmp	r1, r3
 1157 0242 08DD     		ble	.L46
 181:..\..\..\arduinoLCD\test\Pain Drain\libraries\lvgl\src\widgets/lv_slider.c ****                         slider->left_knob_focus = 0;
 1158              		.loc 1 181 0
 1159 0244 2B00     		movs	r3, r5
 1160              	.LVL150:
 1161 0246 2433     		adds	r3, r3, #36
 1162              	.LVL151:
 1163 0248 2B67     		str	r3, [r5, #112]
 1164              	.LVL152:
 182:..\..\..\arduinoLCD\test\Pain Drain\libraries\lvgl\src\widgets/lv_slider.c ****                     }
 1165              		.loc 1 182 0
 1166 024a 7422     		movs	r2, #116
 1167 024c AB5C     		ldrb	r3, [r5, r2]
 1168 024e 0221     		movs	r1, #2
 1169              	.LVL153:
 1170 0250 8B43     		bics	r3, r1
 1171 0252 AB54     		strb	r3, [r5, r2]
 1172 0254 C2E1     		b	.L27
 1173              	.LVL154:
 1174              	.L46:
ARM GAS  C:\Users\haske\AppData\Local\Temp\cc1ymag8.s 			page 47


 185:..\..\..\arduinoLCD\test\Pain Drain\libraries\lvgl\src\widgets/lv_slider.c ****                         slider->left_knob_focus = 1;
 1175              		.loc 1 185 0
 1176 0256 2B00     		movs	r3, r5
 1177              	.LVL155:
 1178 0258 3033     		adds	r3, r3, #48
 1179 025a 2B67     		str	r3, [r5, #112]
 1180              	.LVL156:
 186:..\..\..\arduinoLCD\test\Pain Drain\libraries\lvgl\src\widgets/lv_slider.c ****                     }
 1181              		.loc 1 186 0
 1182 025c 7422     		movs	r2, #116
 1183 025e AB5C     		ldrb	r3, [r5, r2]
 1184 0260 0221     		movs	r1, #2
 1185              	.LVL157:
 1186 0262 0B43     		orrs	r3, r1
 1187 0264 AB54     		strb	r3, [r5, r2]
 1188 0266 B9E1     		b	.L27
 1189              	.LVL158:
 1190              	.L33:
 1191              	.LBE112:
 1192              	.LBE111:
 192:..\..\..\arduinoLCD\test\Pain Drain\libraries\lvgl\src\widgets/lv_slider.c ****         lv_indev_t * indev = lv_indev_get_act();
 1193              		.loc 1 192 0
 1194 0268 022E     		cmp	r6, #2
 1195 026a 00D0     		beq	.LCB1156
 1196 026c 9FE0     		b	.L47	@long jump
 1197              	.LCB1156:
 192:..\..\..\arduinoLCD\test\Pain Drain\libraries\lvgl\src\widgets/lv_slider.c ****         lv_indev_t * indev = lv_indev_get_act();
 1198              		.loc 1 192 0 is_stmt 0 discriminator 1
 1199 026e 2B6F     		ldr	r3, [r5, #112]
 1200 0270 002B     		cmp	r3, #0
 1201 0272 00D1     		bne	.LCB1160
 1202 0274 9BE0     		b	.L47	@long jump
 1203              	.LCB1160:
 1204              	.LBB115:
 193:..\..\..\arduinoLCD\test\Pain Drain\libraries\lvgl\src\widgets/lv_slider.c ****         if(lv_indev_get_type(indev) != LV_INDEV_TYPE_POINTER) return;
 1205              		.loc 1 193 0 is_stmt 1
 1206 0276 FFF7FEFF 		bl	lv_indev_get_act
 1207              	.LVL159:
 1208 027a 0400     		movs	r4, r0
 1209              	.LVL160:
 194:..\..\..\arduinoLCD\test\Pain Drain\libraries\lvgl\src\widgets/lv_slider.c **** 
 1210              		.loc 1 194 0
 1211 027c FFF7FEFF 		bl	lv_indev_get_type
 1212              	.LVL161:
 1213 0280 0128     		cmp	r0, #1
 1214 0282 00D0     		beq	.LCB1171
 1215 0284 AAE1     		b	.L27	@long jump
 1216              	.LCB1171:
 197:..\..\..\arduinoLCD\test\Pain Drain\libraries\lvgl\src\widgets/lv_slider.c ****         int32_t new_value = 0;
 1217              		.loc 1 197 0
 1218 0286 02A9     		add	r1, sp, #8
 1219 0288 2000     		movs	r0, r4
 1220 028a FFF7FEFF 		bl	lv_indev_get_point
 1221              	.LVL162:
 200:..\..\..\arduinoLCD\test\Pain Drain\libraries\lvgl\src\widgets/lv_slider.c ****         if(is_slider_horizontal(obj)) {
 1222              		.loc 1 200 0
 1223 028e EB6A     		ldr	r3, [r5, #44]
ARM GAS  C:\Users\haske\AppData\Local\Temp\cc1ymag8.s 			page 48


 1224 0290 AA6A     		ldr	r2, [r5, #40]
 1225 0292 9E1A     		subs	r6, r3, r2
 1226              	.LVL163:
 201:..\..\..\arduinoLCD\test\Pain Drain\libraries\lvgl\src\widgets/lv_slider.c ****             const lv_coord_t bg_left = lv_obj_get_style_pad_left(obj, LV_PART_MAIN);
 1227              		.loc 1 201 0
 1228 0294 2800     		movs	r0, r5
 1229 0296 FFF7FEFF 		bl	is_slider_horizontal
 1230              	.LVL164:
 1231 029a 0028     		cmp	r0, #0
 1232 029c 3CD0     		beq	.L49
 1233              	.LVL165:
 1234              	.LBB116:
 1235              	.LBB117:
 1236              	.LBB118:
 117:..\..\..\arduinoLCD\test\Pain Drain\libraries\lvgl\src\widgets\../core/lv_obj_style_gen.h ****     return (lv_coord_t)v.num;
 1237              		.loc 2 117 0
 1238 029e 1222     		movs	r2, #18
 1239 02a0 0021     		movs	r1, #0
 1240 02a2 2800     		movs	r0, r5
 1241 02a4 FFF7FEFF 		bl	lv_obj_get_style_prop
 1242              	.LVL166:
 1243 02a8 0400     		movs	r4, r0
 1244              	.LVL167:
 118:..\..\..\arduinoLCD\test\Pain Drain\libraries\lvgl\src\widgets\../core/lv_obj_style_gen.h **** }
 1245              		.loc 2 118 0
 1246 02aa 03B2     		sxth	r3, r0
 1247 02ac 9846     		mov	r8, r3
 1248              	.LVL168:
 1249              	.LBE118:
 1250              	.LBE117:
 1251              	.LBB119:
 1252              	.LBB120:
 123:..\..\..\arduinoLCD\test\Pain Drain\libraries\lvgl\src\widgets\../core/lv_obj_style_gen.h ****     return (lv_coord_t)v.num;
 1253              		.loc 2 123 0
 1254 02ae 1322     		movs	r2, #19
 1255 02b0 0021     		movs	r1, #0
 1256 02b2 2800     		movs	r0, r5
 1257 02b4 FFF7FEFF 		bl	lv_obj_get_style_prop
 1258              	.LVL169:
 1259 02b8 0700     		movs	r7, r0
 1260              	.LVL170:
 124:..\..\..\arduinoLCD\test\Pain Drain\libraries\lvgl\src\widgets\../core/lv_obj_style_gen.h **** }
 1261              		.loc 2 124 0
 1262 02ba 03B2     		sxth	r3, r0
 1263 02bc 9946     		mov	r9, r3
 1264              	.LVL171:
 1265              	.LBE120:
 1266              	.LBE119:
 204:..\..\..\arduinoLCD\test\Pain Drain\libraries\lvgl\src\widgets/lv_slider.c ****             const lv_coord_t indic_w = w - bg_left - bg_right;
 1267              		.loc 1 204 0
 1268 02be 2800     		movs	r0, r5
 1269 02c0 FFF7FEFF 		bl	lv_obj_get_width
 1270              	.LVL172:
 205:..\..\..\arduinoLCD\test\Pain Drain\libraries\lvgl\src\widgets/lv_slider.c **** 
 1271              		.loc 1 205 0
 1272 02c4 041B     		subs	r4, r0, r4
 1273              	.LVL173:
ARM GAS  C:\Users\haske\AppData\Local\Temp\cc1ymag8.s 			page 49


 1274 02c6 E41B     		subs	r4, r4, r7
 1275 02c8 24B2     		sxth	r4, r4
 1276              	.LVL174:
 1277              	.LBB121:
 1278              	.LBB122:
 561:..\..\..\arduinoLCD\test\Pain Drain\libraries\lvgl\src\widgets\../core/lv_obj_style_gen.h ****     return (lv_base_dir_t)v.num;
 1279              		.loc 2 561 0
 1280 02ca 1622     		movs	r2, #22
 1281 02cc 0021     		movs	r1, #0
 1282 02ce 2800     		movs	r0, r5
 1283              	.LVL175:
 1284 02d0 FFF7FEFF 		bl	lv_obj_get_style_prop
 1285              	.LVL176:
 1286              		.loc 2 562 0
 1287 02d4 C0B2     		uxtb	r0, r0
 1288              	.LVL177:
 1289              	.LBE122:
 1290              	.LBE121:
 207:..\..\..\arduinoLCD\test\Pain Drain\libraries\lvgl\src\widgets/lv_slider.c ****                 /*Make the point relative to the indicator*/
 1291              		.loc 1 207 0
 1292 02d6 0128     		cmp	r0, #1
 1293 02d8 08D1     		bne	.L50
 209:..\..\..\arduinoLCD\test\Pain Drain\libraries\lvgl\src\widgets/lv_slider.c ****             }
 1294              		.loc 1 209 0
 1295 02da 1822     		movs	r2, #24
 1296 02dc AB5E     		ldrsh	r3, [r5, r2]
 1297 02de 4A46     		mov	r2, r9
 1298 02e0 9B1A     		subs	r3, r3, r2
 1299 02e2 02AA     		add	r2, sp, #8
 1300 02e4 0021     		movs	r1, #0
 1301 02e6 525E     		ldrsh	r2, [r2, r1]
 1302 02e8 9B1A     		subs	r3, r3, r2
 1303              	.LVL178:
 1304 02ea 06E0     		b	.L51
 1305              	.LVL179:
 1306              	.L50:
 213:..\..\..\arduinoLCD\test\Pain Drain\libraries\lvgl\src\widgets/lv_slider.c ****             }
 1307              		.loc 1 213 0
 1308 02ec 02AB     		add	r3, sp, #8
 1309 02ee 0022     		movs	r2, #0
 1310 02f0 9A5E     		ldrsh	r2, [r3, r2]
 1311 02f2 1421     		movs	r1, #20
 1312 02f4 6B5E     		ldrsh	r3, [r5, r1]
 1313 02f6 4344     		add	r3, r3, r8
 1314 02f8 D31A     		subs	r3, r2, r3
 1315              	.LVL180:
 1316              	.L51:
 215:..\..\..\arduinoLCD\test\Pain Drain\libraries\lvgl\src\widgets/lv_slider.c ****             new_value += slider->bar.min_value;
 1317              		.loc 1 215 0
 1318 02fa 7343     		muls	r3, r6
 1319              	.LVL181:
 1320 02fc E00F     		lsrs	r0, r4, #31
 1321 02fe 0019     		adds	r0, r0, r4
 1322 0300 4010     		asrs	r0, r0, #1
 1323 0302 C018     		adds	r0, r0, r3
 1324 0304 2100     		movs	r1, r4
 1325 0306 FFF7FEFF 		bl	__aeabi_idiv
ARM GAS  C:\Users\haske\AppData\Local\Temp\cc1ymag8.s 			page 50


 1326              	.LVL182:
 216:..\..\..\arduinoLCD\test\Pain Drain\libraries\lvgl\src\widgets/lv_slider.c ****         }
 1327              		.loc 1 216 0
 1328 030a AB6A     		ldr	r3, [r5, #40]
 1329 030c 9C46     		mov	ip, r3
 1330 030e 6044     		add	r0, r0, ip
 1331              	.LVL183:
 1332              	.LBE116:
 1333 0310 28E0     		b	.L52
 1334              	.L88:
 1335 0312 C046     		.align	2
 1336              	.L87:
 1337 0314 00000000 		.word	.LANCHOR0
 1338              	.LVL184:
 1339              	.L49:
 1340              	.LBB123:
 1341              	.LBB124:
 1342              	.LBB125:
 105:..\..\..\arduinoLCD\test\Pain Drain\libraries\lvgl\src\widgets\../core/lv_obj_style_gen.h ****     return (lv_coord_t)v.num;
 1343              		.loc 2 105 0
 1344 0318 1022     		movs	r2, #16
 1345 031a 0021     		movs	r1, #0
 1346 031c 2800     		movs	r0, r5
 1347 031e FFF7FEFF 		bl	lv_obj_get_style_prop
 1348              	.LVL185:
 1349 0322 8046     		mov	r8, r0
 1350              	.LVL186:
 1351              	.LBE125:
 1352              	.LBE124:
 1353              	.LBB126:
 1354              	.LBB127:
 111:..\..\..\arduinoLCD\test\Pain Drain\libraries\lvgl\src\widgets\../core/lv_obj_style_gen.h ****     return (lv_coord_t)v.num;
 1355              		.loc 2 111 0
 1356 0324 1122     		movs	r2, #17
 1357 0326 0021     		movs	r1, #0
 1358 0328 2800     		movs	r0, r5
 1359 032a FFF7FEFF 		bl	lv_obj_get_style_prop
 1360              	.LVL187:
 1361 032e 0700     		movs	r7, r0
 1362              	.LVL188:
 112:..\..\..\arduinoLCD\test\Pain Drain\libraries\lvgl\src\widgets\../core/lv_obj_style_gen.h **** }
 1363              		.loc 2 112 0
 1364 0330 04B2     		sxth	r4, r0
 1365              	.LVL189:
 1366              	.LBE127:
 1367              	.LBE126:
 221:..\..\..\arduinoLCD\test\Pain Drain\libraries\lvgl\src\widgets/lv_slider.c ****             const lv_coord_t indic_h = h - bg_bottom - bg_top;
 1368              		.loc 1 221 0
 1369 0332 2800     		movs	r0, r5
 1370 0334 FFF7FEFF 		bl	lv_obj_get_height
 1371              	.LVL190:
 222:..\..\..\arduinoLCD\test\Pain Drain\libraries\lvgl\src\widgets/lv_slider.c **** 
 1372              		.loc 1 222 0
 1373 0338 C11B     		subs	r1, r0, r7
 1374              	.LVL191:
 1375 033a 4346     		mov	r3, r8
 1376 033c C91A     		subs	r1, r1, r3
ARM GAS  C:\Users\haske\AppData\Local\Temp\cc1ymag8.s 			page 51


 1377 033e 09B2     		sxth	r1, r1
 1378              	.LVL192:
 225:..\..\..\arduinoLCD\test\Pain Drain\libraries\lvgl\src\widgets/lv_slider.c ****             new_value = (-new_value * range + indic_h / 2) / indic_h;
 1379              		.loc 1 225 0
 1380 0340 02AB     		add	r3, sp, #8
 1381 0342 0222     		movs	r2, #2
 1382 0344 9B5E     		ldrsh	r3, [r3, r2]
 1383 0346 1A22     		movs	r2, #26
 1384 0348 A85E     		ldrsh	r0, [r5, r2]
 1385              	.LVL193:
 1386 034a 0419     		adds	r4, r0, r4
 1387              	.LVL194:
 226:..\..\..\arduinoLCD\test\Pain Drain\libraries\lvgl\src\widgets/lv_slider.c ****             new_value += slider->bar.min_value;
 1388              		.loc 1 226 0
 1389 034c E01A     		subs	r0, r4, r3
 1390 034e 0300     		movs	r3, r0
 1391              	.LVL195:
 1392 0350 7343     		muls	r3, r6
 1393 0352 C80F     		lsrs	r0, r1, #31
 1394 0354 4018     		adds	r0, r0, r1
 1395 0356 4010     		asrs	r0, r0, #1
 1396 0358 C018     		adds	r0, r0, r3
 1397 035a FFF7FEFF 		bl	__aeabi_idiv
 1398              	.LVL196:
 227:..\..\..\arduinoLCD\test\Pain Drain\libraries\lvgl\src\widgets/lv_slider.c ****         }
 1399              		.loc 1 227 0
 1400 035e AB6A     		ldr	r3, [r5, #40]
 1401 0360 9C46     		mov	ip, r3
 1402 0362 6044     		add	r0, r0, ip
 1403              	.LVL197:
 1404              	.L52:
 1405              	.LBE123:
 230:..\..\..\arduinoLCD\test\Pain Drain\libraries\lvgl\src\widgets/lv_slider.c ****         int32_t real_min_value = slider->bar.min_value;
 1406              		.loc 1 230 0
 1407 0364 EC6A     		ldr	r4, [r5, #44]
 1408              	.LVL198:
 231:..\..\..\arduinoLCD\test\Pain Drain\libraries\lvgl\src\widgets/lv_slider.c ****         /*Figure out the min. and max. for this mode*/
 1409              		.loc 1 231 0
 1410 0366 A96A     		ldr	r1, [r5, #40]
 1411              	.LVL199:
 233:..\..\..\arduinoLCD\test\Pain Drain\libraries\lvgl\src\widgets/lv_slider.c ****             real_max_value = slider->bar.cur_value;
 1412              		.loc 1 233 0
 1413 0368 2B6F     		ldr	r3, [r5, #112]
 1414 036a 2A00     		movs	r2, r5
 1415 036c 3032     		adds	r2, r2, #48
 1416 036e 9342     		cmp	r3, r2
 1417 0370 01D1     		bne	.L53
 234:..\..\..\arduinoLCD\test\Pain Drain\libraries\lvgl\src\widgets/lv_slider.c ****         }
 1418              		.loc 1 234 0
 1419 0372 6C6A     		ldr	r4, [r5, #36]
 1420              	.LVL200:
 1421 0374 00E0     		b	.L54
 1422              	.L53:
 237:..\..\..\arduinoLCD\test\Pain Drain\libraries\lvgl\src\widgets/lv_slider.c ****         }
 1423              		.loc 1 237 0
 1424 0376 296B     		ldr	r1, [r5, #48]
 1425              	.LVL201:
ARM GAS  C:\Users\haske\AppData\Local\Temp\cc1ymag8.s 			page 52


 1426              	.L54:
 240:..\..\..\arduinoLCD\test\Pain Drain\libraries\lvgl\src\widgets/lv_slider.c ****         if(*slider->value_to_set != new_value) {
 1427              		.loc 1 240 0
 1428 0378 A042     		cmp	r0, r4
 1429 037a 00DD     		ble	.L55
 1430 037c 2000     		movs	r0, r4
 1431              	.LVL202:
 1432              	.L55:
 1433 037e 8142     		cmp	r1, r0
 1434 0380 00DA     		bge	.L56
 1435 0382 0100     		movs	r1, r0
 1436              	.LVL203:
 1437              	.L56:
 241:..\..\..\arduinoLCD\test\Pain Drain\libraries\lvgl\src\widgets/lv_slider.c ****             if(slider->value_to_set == &slider->bar.start_value) {
 1438              		.loc 1 241 0
 1439 0384 1868     		ldr	r0, [r3]
 1440 0386 8142     		cmp	r1, r0
 1441 0388 00D1     		bne	.LCB1454
 1442 038a 27E1     		b	.L27	@long jump
 1443              	.LCB1454:
 242:..\..\..\arduinoLCD\test\Pain Drain\libraries\lvgl\src\widgets/lv_slider.c ****                 lv_bar_set_start_value(obj, new_value, LV_ANIM_ON);
 1444              		.loc 1 242 0
 1445 038c 9342     		cmp	r3, r2
 1446 038e 04D1     		bne	.L58
 243:..\..\..\arduinoLCD\test\Pain Drain\libraries\lvgl\src\widgets/lv_slider.c ****             }
 1447              		.loc 1 243 0
 1448 0390 0122     		movs	r2, #1
 1449 0392 2800     		movs	r0, r5
 1450 0394 FFF7FEFF 		bl	lv_bar_set_start_value
 1451              	.LVL204:
 1452 0398 03E0     		b	.L59
 1453              	.LVL205:
 1454              	.L58:
 246:..\..\..\arduinoLCD\test\Pain Drain\libraries\lvgl\src\widgets/lv_slider.c ****             }
 1455              		.loc 1 246 0
 1456 039a 0122     		movs	r2, #1
 1457 039c 2800     		movs	r0, r5
 1458 039e FFF7FEFF 		bl	lv_bar_set_value
 1459              	.LVL206:
 1460              	.L59:
 248:..\..\..\arduinoLCD\test\Pain Drain\libraries\lvgl\src\widgets/lv_slider.c ****             if(res != LV_RES_OK) return;
 1461              		.loc 1 248 0
 1462 03a2 0022     		movs	r2, #0
 1463 03a4 1C21     		movs	r1, #28
 1464 03a6 2800     		movs	r0, r5
 1465 03a8 FFF7FEFF 		bl	lv_event_send
 1466              	.LVL207:
 1467 03ac 16E1     		b	.L27
 1468              	.LVL208:
 1469              	.L47:
 1470              	.LBE115:
 253:..\..\..\arduinoLCD\test\Pain Drain\libraries\lvgl\src\widgets/lv_slider.c ****         slider->dragging = false;
 1471              		.loc 1 253 0
 1472 03ae 082E     		cmp	r6, #8
 1473 03b0 01D0     		beq	.L60
 253:..\..\..\arduinoLCD\test\Pain Drain\libraries\lvgl\src\widgets/lv_slider.c ****         slider->dragging = false;
 1474              		.loc 1 253 0 is_stmt 0 discriminator 1
ARM GAS  C:\Users\haske\AppData\Local\Temp\cc1ymag8.s 			page 53


 1475 03b2 032E     		cmp	r6, #3
 1476 03b4 41D1     		bne	.L61
 1477              	.L60:
 1478              	.LBB128:
 254:..\..\..\arduinoLCD\test\Pain Drain\libraries\lvgl\src\widgets/lv_slider.c ****         slider->value_to_set = NULL;
 1479              		.loc 1 254 0 is_stmt 1
 1480 03b6 7422     		movs	r2, #116
 1481 03b8 AB5C     		ldrb	r3, [r5, r2]
 1482 03ba 0121     		movs	r1, #1
 1483 03bc 8B43     		bics	r3, r1
 1484 03be AB54     		strb	r3, [r5, r2]
 255:..\..\..\arduinoLCD\test\Pain Drain\libraries\lvgl\src\widgets/lv_slider.c **** 
 1485              		.loc 1 255 0
 1486 03c0 0023     		movs	r3, #0
 1487 03c2 2B67     		str	r3, [r5, #112]
 257:..\..\..\arduinoLCD\test\Pain Drain\libraries\lvgl\src\widgets/lv_slider.c **** 
 1488              		.loc 1 257 0
 1489 03c4 2800     		movs	r0, r5
 1490 03c6 FFF7FEFF 		bl	lv_obj_invalidate
 1491              	.LVL209:
 260:..\..\..\arduinoLCD\test\Pain Drain\libraries\lvgl\src\widgets/lv_slider.c ****         bool editing     = lv_group_get_editing(g);
 1492              		.loc 1 260 0
 1493 03ca 2800     		movs	r0, r5
 1494 03cc FFF7FEFF 		bl	lv_obj_get_group
 1495              	.LVL210:
 1496 03d0 0600     		movs	r6, r0
 1497              	.LVL211:
 261:..\..\..\arduinoLCD\test\Pain Drain\libraries\lvgl\src\widgets/lv_slider.c ****         lv_indev_type_t indev_type = lv_indev_get_type(lv_indev_get_act());
 1498              		.loc 1 261 0
 1499 03d2 FFF7FEFF 		bl	lv_group_get_editing
 1500              	.LVL212:
 1501 03d6 0400     		movs	r4, r0
 1502              	.LVL213:
 262:..\..\..\arduinoLCD\test\Pain Drain\libraries\lvgl\src\widgets/lv_slider.c ****         if(indev_type == LV_INDEV_TYPE_ENCODER) {
 1503              		.loc 1 262 0
 1504 03d8 FFF7FEFF 		bl	lv_indev_get_act
 1505              	.LVL214:
 1506 03dc FFF7FEFF 		bl	lv_indev_get_type
 1507              	.LVL215:
 263:..\..\..\arduinoLCD\test\Pain Drain\libraries\lvgl\src\widgets/lv_slider.c ****             if(editing) {
 1508              		.loc 1 263 0
 1509 03e0 0428     		cmp	r0, #4
 1510 03e2 00D0     		beq	.LCB1537
 1511 03e4 FAE0     		b	.L27	@long jump
 1512              	.LCB1537:
 264:..\..\..\arduinoLCD\test\Pain Drain\libraries\lvgl\src\widgets/lv_slider.c ****                 if(lv_slider_get_mode(obj) == LV_SLIDER_MODE_RANGE) {
 1513              		.loc 1 264 0
 1514 03e6 002C     		cmp	r4, #0
 1515 03e8 00D1     		bne	.LCB1539
 1516 03ea F7E0     		b	.L27	@long jump
 1517              	.LCB1539:
 1518              	.LVL216:
 1519              	.LBB129:
 1520              	.LBB130:
 179:..\..\..\arduinoLCD\test\Pain Drain\libraries\lvgl\src\widgets/lv_slider.h ****     if(mode == LV_BAR_MODE_SYMMETRICAL) return LV_SLIDER_MODE_SYMMETRICAL;
 1521              		.loc 4 179 0
 1522 03ec 2800     		movs	r0, r5
ARM GAS  C:\Users\haske\AppData\Local\Temp\cc1ymag8.s 			page 54


 1523              	.LVL217:
 1524 03ee FFF7FEFF 		bl	lv_bar_get_mode
 1525              	.LVL218:
 180:..\..\..\arduinoLCD\test\Pain Drain\libraries\lvgl\src\widgets/lv_slider.h ****     else if(mode == LV_BAR_MODE_RANGE) return LV_SLIDER_MODE_RANGE;
 1526              		.loc 4 180 0
 1527 03f2 0128     		cmp	r0, #1
 1528 03f4 03D0     		beq	.L85
 181:..\..\..\arduinoLCD\test\Pain Drain\libraries\lvgl\src\widgets/lv_slider.h ****     else return LV_SLIDER_MODE_NORMAL;
 1529              		.loc 4 181 0
 1530 03f6 0228     		cmp	r0, #2
 1531 03f8 03D1     		bne	.L86
 1532 03fa 0223     		movs	r3, #2
 1533 03fc 02E0     		b	.L62
 1534              	.L85:
 180:..\..\..\arduinoLCD\test\Pain Drain\libraries\lvgl\src\widgets/lv_slider.h ****     else if(mode == LV_BAR_MODE_RANGE) return LV_SLIDER_MODE_RANGE;
 1535              		.loc 4 180 0
 1536 03fe 0123     		movs	r3, #1
 1537 0400 00E0     		b	.L62
 1538              	.L86:
 1539              		.loc 4 182 0
 1540 0402 0023     		movs	r3, #0
 1541              	.L62:
 1542              	.LVL219:
 1543              	.LBE130:
 1544              	.LBE129:
 265:..\..\..\arduinoLCD\test\Pain Drain\libraries\lvgl\src\widgets/lv_slider.c ****                     if(slider->left_knob_focus == 0) slider->left_knob_focus = 1;
 1545              		.loc 1 265 0
 1546 0404 022B     		cmp	r3, #2
 1547 0406 13D1     		bne	.L63
 266:..\..\..\arduinoLCD\test\Pain Drain\libraries\lvgl\src\widgets/lv_slider.c ****                     else {
 1548              		.loc 1 266 0
 1549 0408 7233     		adds	r3, r3, #114
 1550 040a EB5C     		ldrb	r3, [r5, r3]
 1551 040c 9B07     		lsls	r3, r3, #30
 1552 040e 05D4     		bmi	.L64
 266:..\..\..\arduinoLCD\test\Pain Drain\libraries\lvgl\src\widgets/lv_slider.c ****                     else {
 1553              		.loc 1 266 0 is_stmt 0 discriminator 1
 1554 0410 7422     		movs	r2, #116
 1555 0412 A95C     		ldrb	r1, [r5, r2]
 1556 0414 0223     		movs	r3, #2
 1557 0416 0B43     		orrs	r3, r1
 1558 0418 AB54     		strb	r3, [r5, r2]
 1559 041a DFE0     		b	.L27
 1560              	.L64:
 268:..\..\..\arduinoLCD\test\Pain Drain\libraries\lvgl\src\widgets/lv_slider.c ****                         lv_group_set_editing(g, false);
 1561              		.loc 1 268 0 is_stmt 1
 1562 041c 7422     		movs	r2, #116
 1563 041e AB5C     		ldrb	r3, [r5, r2]
 1564 0420 0221     		movs	r1, #2
 1565 0422 8B43     		bics	r3, r1
 1566 0424 AB54     		strb	r3, [r5, r2]
 269:..\..\..\arduinoLCD\test\Pain Drain\libraries\lvgl\src\widgets/lv_slider.c ****                     }
 1567              		.loc 1 269 0
 1568 0426 0021     		movs	r1, #0
 1569 0428 3000     		movs	r0, r6
 1570 042a FFF7FEFF 		bl	lv_group_set_editing
 1571              	.LVL220:
ARM GAS  C:\Users\haske\AppData\Local\Temp\cc1ymag8.s 			page 55


 1572 042e D5E0     		b	.L27
 1573              	.L63:
 273:..\..\..\arduinoLCD\test\Pain Drain\libraries\lvgl\src\widgets/lv_slider.c ****                 }
 1574              		.loc 1 273 0
 1575 0430 0021     		movs	r1, #0
 1576 0432 3000     		movs	r0, r6
 1577 0434 FFF7FEFF 		bl	lv_group_set_editing
 1578              	.LVL221:
 1579 0438 D0E0     		b	.L27
 1580              	.LVL222:
 1581              	.L61:
 1582              	.LBE128:
 279:..\..\..\arduinoLCD\test\Pain Drain\libraries\lvgl\src\widgets/lv_slider.c ****         lv_indev_type_t indev_type = lv_indev_get_type(lv_indev_get_act());
 1583              		.loc 1 279 0
 1584 043a 0E2E     		cmp	r6, #14
 1585 043c 0ED1     		bne	.L65
 1586              	.LBB131:
 280:..\..\..\arduinoLCD\test\Pain Drain\libraries\lvgl\src\widgets/lv_slider.c ****         if(indev_type == LV_INDEV_TYPE_ENCODER || indev_type == LV_INDEV_TYPE_KEYPAD) {
 1587              		.loc 1 280 0
 1588 043e FFF7FEFF 		bl	lv_indev_get_act
 1589              	.LVL223:
 1590 0442 FFF7FEFF 		bl	lv_indev_get_type
 1591              	.LVL224:
 281:..\..\..\arduinoLCD\test\Pain Drain\libraries\lvgl\src\widgets/lv_slider.c ****             slider->left_knob_focus = 0;
