ARM GAS  C:\Users\haske\AppData\Local\Temp\cc65HANE.s 			page 1


   1              		.syntax unified
   2              		.cpu cortex-m0plus
   3              		.fpu softvfp
   4              		.eabi_attribute 20, 1
   5              		.eabi_attribute 21, 1
   6              		.eabi_attribute 23, 3
   7              		.eabi_attribute 24, 1
   8              		.eabi_attribute 25, 1
   9              		.eabi_attribute 26, 1
  10              		.eabi_attribute 30, 1
  11              		.eabi_attribute 34, 0
  12              		.eabi_attribute 18, 4
  13              		.thumb
  14              		.syntax unified
  15              		.file	"lv_tabview.c"
  16              		.text
  17              	.Ltext0:
  18              		.cfi_sections	.debug_frame
  19              		.section	.text.lv_tabview_destructor,"ax",%progbits
  20              		.align	2
  21              		.code	16
  22              		.thumb_func
  23              		.type	lv_tabview_destructor, %function
  24              	lv_tabview_destructor:
  25              	.LFB210:
  26              		.file 1 "..\\..\\..\\arduinoLCD\\test\\Pain Drain\\libraries\\lvgl\\src\\extra\\widgets\\tabview\\
   1:..\..\..\arduinoLCD\test\Pain Drain\libraries\lvgl\src\extra\widgets\tabview/lv_tabview.c **** /**
   2:..\..\..\arduinoLCD\test\Pain Drain\libraries\lvgl\src\extra\widgets\tabview/lv_tabview.c ****  * @file lv_tabview.c
   3:..\..\..\arduinoLCD\test\Pain Drain\libraries\lvgl\src\extra\widgets\tabview/lv_tabview.c ****  *
   4:..\..\..\arduinoLCD\test\Pain Drain\libraries\lvgl\src\extra\widgets\tabview/lv_tabview.c ****  */
   5:..\..\..\arduinoLCD\test\Pain Drain\libraries\lvgl\src\extra\widgets\tabview/lv_tabview.c **** 
   6:..\..\..\arduinoLCD\test\Pain Drain\libraries\lvgl\src\extra\widgets\tabview/lv_tabview.c **** /*********************
   7:..\..\..\arduinoLCD\test\Pain Drain\libraries\lvgl\src\extra\widgets\tabview/lv_tabview.c ****  *      INCLUDES
   8:..\..\..\arduinoLCD\test\Pain Drain\libraries\lvgl\src\extra\widgets\tabview/lv_tabview.c ****  *********************/
   9:..\..\..\arduinoLCD\test\Pain Drain\libraries\lvgl\src\extra\widgets\tabview/lv_tabview.c **** #include "lv_tabview.h"
  10:..\..\..\arduinoLCD\test\Pain Drain\libraries\lvgl\src\extra\widgets\tabview/lv_tabview.c **** #if LV_USE_TABVIEW
  11:..\..\..\arduinoLCD\test\Pain Drain\libraries\lvgl\src\extra\widgets\tabview/lv_tabview.c **** 
  12:..\..\..\arduinoLCD\test\Pain Drain\libraries\lvgl\src\extra\widgets\tabview/lv_tabview.c **** #include "../../../misc/lv_assert.h"
  13:..\..\..\arduinoLCD\test\Pain Drain\libraries\lvgl\src\extra\widgets\tabview/lv_tabview.c **** 
  14:..\..\..\arduinoLCD\test\Pain Drain\libraries\lvgl\src\extra\widgets\tabview/lv_tabview.c **** /*********************
  15:..\..\..\arduinoLCD\test\Pain Drain\libraries\lvgl\src\extra\widgets\tabview/lv_tabview.c ****  *      DEFINES
  16:..\..\..\arduinoLCD\test\Pain Drain\libraries\lvgl\src\extra\widgets\tabview/lv_tabview.c ****  *********************/
  17:..\..\..\arduinoLCD\test\Pain Drain\libraries\lvgl\src\extra\widgets\tabview/lv_tabview.c **** #define MY_CLASS    &lv_tabview_class
  18:..\..\..\arduinoLCD\test\Pain Drain\libraries\lvgl\src\extra\widgets\tabview/lv_tabview.c **** 
  19:..\..\..\arduinoLCD\test\Pain Drain\libraries\lvgl\src\extra\widgets\tabview/lv_tabview.c **** /**********************
  20:..\..\..\arduinoLCD\test\Pain Drain\libraries\lvgl\src\extra\widgets\tabview/lv_tabview.c ****  *      TYPEDEFS
  21:..\..\..\arduinoLCD\test\Pain Drain\libraries\lvgl\src\extra\widgets\tabview/lv_tabview.c ****  **********************/
  22:..\..\..\arduinoLCD\test\Pain Drain\libraries\lvgl\src\extra\widgets\tabview/lv_tabview.c **** 
  23:..\..\..\arduinoLCD\test\Pain Drain\libraries\lvgl\src\extra\widgets\tabview/lv_tabview.c **** /**********************
  24:..\..\..\arduinoLCD\test\Pain Drain\libraries\lvgl\src\extra\widgets\tabview/lv_tabview.c ****  *  STATIC PROTOTYPES
  25:..\..\..\arduinoLCD\test\Pain Drain\libraries\lvgl\src\extra\widgets\tabview/lv_tabview.c ****  **********************/
  26:..\..\..\arduinoLCD\test\Pain Drain\libraries\lvgl\src\extra\widgets\tabview/lv_tabview.c **** static void lv_tabview_constructor(const lv_obj_class_t * class_p, lv_obj_t * obj);
  27:..\..\..\arduinoLCD\test\Pain Drain\libraries\lvgl\src\extra\widgets\tabview/lv_tabview.c **** static void lv_tabview_destructor(const lv_obj_class_t * class_p, lv_obj_t * obj);
  28:..\..\..\arduinoLCD\test\Pain Drain\libraries\lvgl\src\extra\widgets\tabview/lv_tabview.c **** static void lv_tabview_event(const lv_obj_class_t * class_p, lv_event_t * e);
  29:..\..\..\arduinoLCD\test\Pain Drain\libraries\lvgl\src\extra\widgets\tabview/lv_tabview.c **** static void btns_value_changed_event_cb(lv_event_t * e);
  30:..\..\..\arduinoLCD\test\Pain Drain\libraries\lvgl\src\extra\widgets\tabview/lv_tabview.c **** static void cont_scroll_end_event_cb(lv_event_t * e);
  31:..\..\..\arduinoLCD\test\Pain Drain\libraries\lvgl\src\extra\widgets\tabview/lv_tabview.c **** 
ARM GAS  C:\Users\haske\AppData\Local\Temp\cc65HANE.s 			page 2


  32:..\..\..\arduinoLCD\test\Pain Drain\libraries\lvgl\src\extra\widgets\tabview/lv_tabview.c **** /**********************
  33:..\..\..\arduinoLCD\test\Pain Drain\libraries\lvgl\src\extra\widgets\tabview/lv_tabview.c ****  *  STATIC VARIABLES
  34:..\..\..\arduinoLCD\test\Pain Drain\libraries\lvgl\src\extra\widgets\tabview/lv_tabview.c ****  **********************/
  35:..\..\..\arduinoLCD\test\Pain Drain\libraries\lvgl\src\extra\widgets\tabview/lv_tabview.c **** const lv_obj_class_t lv_tabview_class = {
  36:..\..\..\arduinoLCD\test\Pain Drain\libraries\lvgl\src\extra\widgets\tabview/lv_tabview.c ****     .constructor_cb = lv_tabview_constructor,
  37:..\..\..\arduinoLCD\test\Pain Drain\libraries\lvgl\src\extra\widgets\tabview/lv_tabview.c ****     .destructor_cb = lv_tabview_destructor,
  38:..\..\..\arduinoLCD\test\Pain Drain\libraries\lvgl\src\extra\widgets\tabview/lv_tabview.c ****     .event_cb = lv_tabview_event,
  39:..\..\..\arduinoLCD\test\Pain Drain\libraries\lvgl\src\extra\widgets\tabview/lv_tabview.c ****     .width_def = LV_PCT(100),
  40:..\..\..\arduinoLCD\test\Pain Drain\libraries\lvgl\src\extra\widgets\tabview/lv_tabview.c ****     .height_def = LV_PCT(100),
  41:..\..\..\arduinoLCD\test\Pain Drain\libraries\lvgl\src\extra\widgets\tabview/lv_tabview.c ****     .base_class = &lv_obj_class,
  42:..\..\..\arduinoLCD\test\Pain Drain\libraries\lvgl\src\extra\widgets\tabview/lv_tabview.c ****     .instance_size = sizeof(lv_tabview_t)
  43:..\..\..\arduinoLCD\test\Pain Drain\libraries\lvgl\src\extra\widgets\tabview/lv_tabview.c **** };
  44:..\..\..\arduinoLCD\test\Pain Drain\libraries\lvgl\src\extra\widgets\tabview/lv_tabview.c **** 
  45:..\..\..\arduinoLCD\test\Pain Drain\libraries\lvgl\src\extra\widgets\tabview/lv_tabview.c **** static lv_dir_t tabpos_create;
  46:..\..\..\arduinoLCD\test\Pain Drain\libraries\lvgl\src\extra\widgets\tabview/lv_tabview.c **** static lv_coord_t tabsize_create;
  47:..\..\..\arduinoLCD\test\Pain Drain\libraries\lvgl\src\extra\widgets\tabview/lv_tabview.c **** 
  48:..\..\..\arduinoLCD\test\Pain Drain\libraries\lvgl\src\extra\widgets\tabview/lv_tabview.c **** /**********************
  49:..\..\..\arduinoLCD\test\Pain Drain\libraries\lvgl\src\extra\widgets\tabview/lv_tabview.c ****  *      MACROS
  50:..\..\..\arduinoLCD\test\Pain Drain\libraries\lvgl\src\extra\widgets\tabview/lv_tabview.c ****  **********************/
  51:..\..\..\arduinoLCD\test\Pain Drain\libraries\lvgl\src\extra\widgets\tabview/lv_tabview.c **** 
  52:..\..\..\arduinoLCD\test\Pain Drain\libraries\lvgl\src\extra\widgets\tabview/lv_tabview.c **** /**********************
  53:..\..\..\arduinoLCD\test\Pain Drain\libraries\lvgl\src\extra\widgets\tabview/lv_tabview.c ****  *   GLOBAL FUNCTIONS
  54:..\..\..\arduinoLCD\test\Pain Drain\libraries\lvgl\src\extra\widgets\tabview/lv_tabview.c ****  **********************/
  55:..\..\..\arduinoLCD\test\Pain Drain\libraries\lvgl\src\extra\widgets\tabview/lv_tabview.c **** 
  56:..\..\..\arduinoLCD\test\Pain Drain\libraries\lvgl\src\extra\widgets\tabview/lv_tabview.c **** lv_obj_t * lv_tabview_create(lv_obj_t * parent, lv_dir_t tab_pos, lv_coord_t tab_size)
  57:..\..\..\arduinoLCD\test\Pain Drain\libraries\lvgl\src\extra\widgets\tabview/lv_tabview.c **** {
  58:..\..\..\arduinoLCD\test\Pain Drain\libraries\lvgl\src\extra\widgets\tabview/lv_tabview.c ****     LV_LOG_INFO("begin");
  59:..\..\..\arduinoLCD\test\Pain Drain\libraries\lvgl\src\extra\widgets\tabview/lv_tabview.c ****     tabpos_create = tab_pos;
  60:..\..\..\arduinoLCD\test\Pain Drain\libraries\lvgl\src\extra\widgets\tabview/lv_tabview.c ****     tabsize_create = tab_size;
  61:..\..\..\arduinoLCD\test\Pain Drain\libraries\lvgl\src\extra\widgets\tabview/lv_tabview.c **** 
  62:..\..\..\arduinoLCD\test\Pain Drain\libraries\lvgl\src\extra\widgets\tabview/lv_tabview.c ****     lv_obj_t * obj = lv_obj_class_create_obj(&lv_tabview_class, parent);
  63:..\..\..\arduinoLCD\test\Pain Drain\libraries\lvgl\src\extra\widgets\tabview/lv_tabview.c ****     lv_obj_class_init_obj(obj);
  64:..\..\..\arduinoLCD\test\Pain Drain\libraries\lvgl\src\extra\widgets\tabview/lv_tabview.c ****     return obj;
  65:..\..\..\arduinoLCD\test\Pain Drain\libraries\lvgl\src\extra\widgets\tabview/lv_tabview.c **** }
  66:..\..\..\arduinoLCD\test\Pain Drain\libraries\lvgl\src\extra\widgets\tabview/lv_tabview.c **** 
  67:..\..\..\arduinoLCD\test\Pain Drain\libraries\lvgl\src\extra\widgets\tabview/lv_tabview.c **** lv_obj_t * lv_tabview_add_tab(lv_obj_t * obj, const char * name)
  68:..\..\..\arduinoLCD\test\Pain Drain\libraries\lvgl\src\extra\widgets\tabview/lv_tabview.c **** {
  69:..\..\..\arduinoLCD\test\Pain Drain\libraries\lvgl\src\extra\widgets\tabview/lv_tabview.c ****     LV_ASSERT_OBJ(obj, MY_CLASS);
  70:..\..\..\arduinoLCD\test\Pain Drain\libraries\lvgl\src\extra\widgets\tabview/lv_tabview.c ****     lv_tabview_t * tabview = (lv_tabview_t *)obj;
  71:..\..\..\arduinoLCD\test\Pain Drain\libraries\lvgl\src\extra\widgets\tabview/lv_tabview.c ****     lv_obj_t * cont = lv_tabview_get_content(obj);
  72:..\..\..\arduinoLCD\test\Pain Drain\libraries\lvgl\src\extra\widgets\tabview/lv_tabview.c **** 
  73:..\..\..\arduinoLCD\test\Pain Drain\libraries\lvgl\src\extra\widgets\tabview/lv_tabview.c ****     lv_obj_t * page = lv_obj_create(cont);
  74:..\..\..\arduinoLCD\test\Pain Drain\libraries\lvgl\src\extra\widgets\tabview/lv_tabview.c ****     lv_obj_set_size(page, LV_PCT(100), LV_PCT(100));
  75:..\..\..\arduinoLCD\test\Pain Drain\libraries\lvgl\src\extra\widgets\tabview/lv_tabview.c ****     lv_obj_clear_flag(page, LV_OBJ_FLAG_CLICK_FOCUSABLE);
  76:..\..\..\arduinoLCD\test\Pain Drain\libraries\lvgl\src\extra\widgets\tabview/lv_tabview.c ****     uint32_t tab_id = lv_obj_get_child_cnt(cont);
  77:..\..\..\arduinoLCD\test\Pain Drain\libraries\lvgl\src\extra\widgets\tabview/lv_tabview.c **** 
  78:..\..\..\arduinoLCD\test\Pain Drain\libraries\lvgl\src\extra\widgets\tabview/lv_tabview.c ****     lv_obj_t * btns = lv_tabview_get_tab_btns(obj);
  79:..\..\..\arduinoLCD\test\Pain Drain\libraries\lvgl\src\extra\widgets\tabview/lv_tabview.c **** 
  80:..\..\..\arduinoLCD\test\Pain Drain\libraries\lvgl\src\extra\widgets\tabview/lv_tabview.c ****     char ** old_map = tabview->map;
  81:..\..\..\arduinoLCD\test\Pain Drain\libraries\lvgl\src\extra\widgets\tabview/lv_tabview.c ****     char ** new_map;
  82:..\..\..\arduinoLCD\test\Pain Drain\libraries\lvgl\src\extra\widgets\tabview/lv_tabview.c **** 
  83:..\..\..\arduinoLCD\test\Pain Drain\libraries\lvgl\src\extra\widgets\tabview/lv_tabview.c ****     /*top or bottom dir*/
  84:..\..\..\arduinoLCD\test\Pain Drain\libraries\lvgl\src\extra\widgets\tabview/lv_tabview.c ****     if(tabview->tab_pos & LV_DIR_VER) {
  85:..\..\..\arduinoLCD\test\Pain Drain\libraries\lvgl\src\extra\widgets\tabview/lv_tabview.c ****         new_map = lv_mem_alloc((tab_id + 1) * sizeof(const char *));
  86:..\..\..\arduinoLCD\test\Pain Drain\libraries\lvgl\src\extra\widgets\tabview/lv_tabview.c ****         lv_memcpy_small(new_map, old_map, sizeof(const char *) * (tab_id - 1));
  87:..\..\..\arduinoLCD\test\Pain Drain\libraries\lvgl\src\extra\widgets\tabview/lv_tabview.c ****         new_map[tab_id - 1] = lv_mem_alloc(strlen(name) + 1);
  88:..\..\..\arduinoLCD\test\Pain Drain\libraries\lvgl\src\extra\widgets\tabview/lv_tabview.c ****         strcpy((char *)new_map[tab_id - 1], name);
ARM GAS  C:\Users\haske\AppData\Local\Temp\cc65HANE.s 			page 3


  89:..\..\..\arduinoLCD\test\Pain Drain\libraries\lvgl\src\extra\widgets\tabview/lv_tabview.c ****         new_map[tab_id] = "";
  90:..\..\..\arduinoLCD\test\Pain Drain\libraries\lvgl\src\extra\widgets\tabview/lv_tabview.c ****     }
  91:..\..\..\arduinoLCD\test\Pain Drain\libraries\lvgl\src\extra\widgets\tabview/lv_tabview.c ****     /*left or right dir*/
  92:..\..\..\arduinoLCD\test\Pain Drain\libraries\lvgl\src\extra\widgets\tabview/lv_tabview.c ****     else {
  93:..\..\..\arduinoLCD\test\Pain Drain\libraries\lvgl\src\extra\widgets\tabview/lv_tabview.c ****         new_map = lv_mem_alloc((tab_id * 2) * sizeof(const char *));
  94:..\..\..\arduinoLCD\test\Pain Drain\libraries\lvgl\src\extra\widgets\tabview/lv_tabview.c ****         lv_memcpy_small(new_map, old_map, sizeof(const char *) * (tab_id - 1) * 2);
  95:..\..\..\arduinoLCD\test\Pain Drain\libraries\lvgl\src\extra\widgets\tabview/lv_tabview.c ****         if(tabview->tab_cnt == 0) {
  96:..\..\..\arduinoLCD\test\Pain Drain\libraries\lvgl\src\extra\widgets\tabview/lv_tabview.c ****             new_map[0] = lv_mem_alloc(strlen(name) + 1);
  97:..\..\..\arduinoLCD\test\Pain Drain\libraries\lvgl\src\extra\widgets\tabview/lv_tabview.c ****             strcpy((char *)new_map[0], name);
  98:..\..\..\arduinoLCD\test\Pain Drain\libraries\lvgl\src\extra\widgets\tabview/lv_tabview.c ****             new_map[1] = "";
  99:..\..\..\arduinoLCD\test\Pain Drain\libraries\lvgl\src\extra\widgets\tabview/lv_tabview.c ****         }
 100:..\..\..\arduinoLCD\test\Pain Drain\libraries\lvgl\src\extra\widgets\tabview/lv_tabview.c ****         else {
 101:..\..\..\arduinoLCD\test\Pain Drain\libraries\lvgl\src\extra\widgets\tabview/lv_tabview.c ****             new_map[tab_id * 2 - 3] = "\n";
 102:..\..\..\arduinoLCD\test\Pain Drain\libraries\lvgl\src\extra\widgets\tabview/lv_tabview.c ****             new_map[tab_id * 2 - 2] = lv_mem_alloc(strlen(name) + 1);
 103:..\..\..\arduinoLCD\test\Pain Drain\libraries\lvgl\src\extra\widgets\tabview/lv_tabview.c ****             new_map[tab_id * 2 - 1] = "";
 104:..\..\..\arduinoLCD\test\Pain Drain\libraries\lvgl\src\extra\widgets\tabview/lv_tabview.c ****             strcpy((char *)new_map[(tab_id * 2) - 2], name);
 105:..\..\..\arduinoLCD\test\Pain Drain\libraries\lvgl\src\extra\widgets\tabview/lv_tabview.c ****         }
 106:..\..\..\arduinoLCD\test\Pain Drain\libraries\lvgl\src\extra\widgets\tabview/lv_tabview.c ****     }
 107:..\..\..\arduinoLCD\test\Pain Drain\libraries\lvgl\src\extra\widgets\tabview/lv_tabview.c ****     tabview->map = new_map;
 108:..\..\..\arduinoLCD\test\Pain Drain\libraries\lvgl\src\extra\widgets\tabview/lv_tabview.c ****     lv_btnmatrix_set_map(btns, (const char **)new_map);
 109:..\..\..\arduinoLCD\test\Pain Drain\libraries\lvgl\src\extra\widgets\tabview/lv_tabview.c ****     lv_mem_free(old_map);
 110:..\..\..\arduinoLCD\test\Pain Drain\libraries\lvgl\src\extra\widgets\tabview/lv_tabview.c **** 
 111:..\..\..\arduinoLCD\test\Pain Drain\libraries\lvgl\src\extra\widgets\tabview/lv_tabview.c ****     lv_btnmatrix_set_btn_ctrl_all(btns, LV_BTNMATRIX_CTRL_CHECKABLE | LV_BTNMATRIX_CTRL_CLICK_TRIG 
 112:..\..\..\arduinoLCD\test\Pain Drain\libraries\lvgl\src\extra\widgets\tabview/lv_tabview.c ****                                   LV_BTNMATRIX_CTRL_NO_REPEAT);
 113:..\..\..\arduinoLCD\test\Pain Drain\libraries\lvgl\src\extra\widgets\tabview/lv_tabview.c **** 
 114:..\..\..\arduinoLCD\test\Pain Drain\libraries\lvgl\src\extra\widgets\tabview/lv_tabview.c ****     tabview->tab_cnt++;
 115:..\..\..\arduinoLCD\test\Pain Drain\libraries\lvgl\src\extra\widgets\tabview/lv_tabview.c ****     if(tabview->tab_cnt == 1) {
 116:..\..\..\arduinoLCD\test\Pain Drain\libraries\lvgl\src\extra\widgets\tabview/lv_tabview.c ****         lv_tabview_set_act(obj, 0, LV_ANIM_OFF);
 117:..\..\..\arduinoLCD\test\Pain Drain\libraries\lvgl\src\extra\widgets\tabview/lv_tabview.c ****     }
 118:..\..\..\arduinoLCD\test\Pain Drain\libraries\lvgl\src\extra\widgets\tabview/lv_tabview.c **** 
 119:..\..\..\arduinoLCD\test\Pain Drain\libraries\lvgl\src\extra\widgets\tabview/lv_tabview.c ****     lv_btnmatrix_set_btn_ctrl(btns, tabview->tab_cur, LV_BTNMATRIX_CTRL_CHECKED);
 120:..\..\..\arduinoLCD\test\Pain Drain\libraries\lvgl\src\extra\widgets\tabview/lv_tabview.c **** 
 121:..\..\..\arduinoLCD\test\Pain Drain\libraries\lvgl\src\extra\widgets\tabview/lv_tabview.c ****     return page;
 122:..\..\..\arduinoLCD\test\Pain Drain\libraries\lvgl\src\extra\widgets\tabview/lv_tabview.c **** }
 123:..\..\..\arduinoLCD\test\Pain Drain\libraries\lvgl\src\extra\widgets\tabview/lv_tabview.c **** 
 124:..\..\..\arduinoLCD\test\Pain Drain\libraries\lvgl\src\extra\widgets\tabview/lv_tabview.c **** void lv_tabview_rename_tab(lv_obj_t * obj, uint32_t id, const char * new_name)
 125:..\..\..\arduinoLCD\test\Pain Drain\libraries\lvgl\src\extra\widgets\tabview/lv_tabview.c **** {
 126:..\..\..\arduinoLCD\test\Pain Drain\libraries\lvgl\src\extra\widgets\tabview/lv_tabview.c ****     LV_ASSERT_OBJ(obj, MY_CLASS);
 127:..\..\..\arduinoLCD\test\Pain Drain\libraries\lvgl\src\extra\widgets\tabview/lv_tabview.c ****     lv_tabview_t * tabview = (lv_tabview_t *)obj;
 128:..\..\..\arduinoLCD\test\Pain Drain\libraries\lvgl\src\extra\widgets\tabview/lv_tabview.c **** 
 129:..\..\..\arduinoLCD\test\Pain Drain\libraries\lvgl\src\extra\widgets\tabview/lv_tabview.c ****     if(id >= tabview->tab_cnt) return;
 130:..\..\..\arduinoLCD\test\Pain Drain\libraries\lvgl\src\extra\widgets\tabview/lv_tabview.c ****     if(tabview->tab_pos & LV_DIR_HOR) id *= 2;
 131:..\..\..\arduinoLCD\test\Pain Drain\libraries\lvgl\src\extra\widgets\tabview/lv_tabview.c **** 
 132:..\..\..\arduinoLCD\test\Pain Drain\libraries\lvgl\src\extra\widgets\tabview/lv_tabview.c ****     lv_mem_free(tabview->map[id]);
 133:..\..\..\arduinoLCD\test\Pain Drain\libraries\lvgl\src\extra\widgets\tabview/lv_tabview.c ****     tabview->map[id] = lv_mem_alloc(strlen(new_name) + 1);
 134:..\..\..\arduinoLCD\test\Pain Drain\libraries\lvgl\src\extra\widgets\tabview/lv_tabview.c ****     strcpy(tabview->map[id], new_name);
 135:..\..\..\arduinoLCD\test\Pain Drain\libraries\lvgl\src\extra\widgets\tabview/lv_tabview.c ****     lv_obj_invalidate(obj);
 136:..\..\..\arduinoLCD\test\Pain Drain\libraries\lvgl\src\extra\widgets\tabview/lv_tabview.c **** }
 137:..\..\..\arduinoLCD\test\Pain Drain\libraries\lvgl\src\extra\widgets\tabview/lv_tabview.c **** 
 138:..\..\..\arduinoLCD\test\Pain Drain\libraries\lvgl\src\extra\widgets\tabview/lv_tabview.c **** void lv_tabview_set_act(lv_obj_t * obj, uint32_t id, lv_anim_enable_t anim_en)
 139:..\..\..\arduinoLCD\test\Pain Drain\libraries\lvgl\src\extra\widgets\tabview/lv_tabview.c **** {
 140:..\..\..\arduinoLCD\test\Pain Drain\libraries\lvgl\src\extra\widgets\tabview/lv_tabview.c ****     LV_ASSERT_OBJ(obj, MY_CLASS);
 141:..\..\..\arduinoLCD\test\Pain Drain\libraries\lvgl\src\extra\widgets\tabview/lv_tabview.c ****     lv_tabview_t * tabview = (lv_tabview_t *)obj;
 142:..\..\..\arduinoLCD\test\Pain Drain\libraries\lvgl\src\extra\widgets\tabview/lv_tabview.c **** 
 143:..\..\..\arduinoLCD\test\Pain Drain\libraries\lvgl\src\extra\widgets\tabview/lv_tabview.c ****     if(id >= tabview->tab_cnt) {
 144:..\..\..\arduinoLCD\test\Pain Drain\libraries\lvgl\src\extra\widgets\tabview/lv_tabview.c ****         id = tabview->tab_cnt - 1;
 145:..\..\..\arduinoLCD\test\Pain Drain\libraries\lvgl\src\extra\widgets\tabview/lv_tabview.c ****     }
ARM GAS  C:\Users\haske\AppData\Local\Temp\cc65HANE.s 			page 4


 146:..\..\..\arduinoLCD\test\Pain Drain\libraries\lvgl\src\extra\widgets\tabview/lv_tabview.c **** 
 147:..\..\..\arduinoLCD\test\Pain Drain\libraries\lvgl\src\extra\widgets\tabview/lv_tabview.c ****     /*To be sure lv_obj_get_content_width will return valid value*/
 148:..\..\..\arduinoLCD\test\Pain Drain\libraries\lvgl\src\extra\widgets\tabview/lv_tabview.c ****     lv_obj_update_layout(obj);
 149:..\..\..\arduinoLCD\test\Pain Drain\libraries\lvgl\src\extra\widgets\tabview/lv_tabview.c **** 
 150:..\..\..\arduinoLCD\test\Pain Drain\libraries\lvgl\src\extra\widgets\tabview/lv_tabview.c ****     lv_obj_t * cont = lv_tabview_get_content(obj);
 151:..\..\..\arduinoLCD\test\Pain Drain\libraries\lvgl\src\extra\widgets\tabview/lv_tabview.c ****     if(cont == NULL) return;
 152:..\..\..\arduinoLCD\test\Pain Drain\libraries\lvgl\src\extra\widgets\tabview/lv_tabview.c **** 
 153:..\..\..\arduinoLCD\test\Pain Drain\libraries\lvgl\src\extra\widgets\tabview/lv_tabview.c ****     if((tabview->tab_pos & LV_DIR_VER) != 0) {
 154:..\..\..\arduinoLCD\test\Pain Drain\libraries\lvgl\src\extra\widgets\tabview/lv_tabview.c ****         lv_coord_t gap = lv_obj_get_style_pad_column(cont, LV_PART_MAIN);
 155:..\..\..\arduinoLCD\test\Pain Drain\libraries\lvgl\src\extra\widgets\tabview/lv_tabview.c ****         lv_coord_t w = lv_obj_get_content_width(cont);
 156:..\..\..\arduinoLCD\test\Pain Drain\libraries\lvgl\src\extra\widgets\tabview/lv_tabview.c ****         if(lv_obj_get_style_base_dir(obj, LV_PART_MAIN) != LV_BASE_DIR_RTL) {
 157:..\..\..\arduinoLCD\test\Pain Drain\libraries\lvgl\src\extra\widgets\tabview/lv_tabview.c ****             lv_obj_scroll_to_x(cont, id * (gap + w), anim_en);
 158:..\..\..\arduinoLCD\test\Pain Drain\libraries\lvgl\src\extra\widgets\tabview/lv_tabview.c ****         }
 159:..\..\..\arduinoLCD\test\Pain Drain\libraries\lvgl\src\extra\widgets\tabview/lv_tabview.c ****         else {
 160:..\..\..\arduinoLCD\test\Pain Drain\libraries\lvgl\src\extra\widgets\tabview/lv_tabview.c ****             int32_t id_rtl = -(int32_t)id;
 161:..\..\..\arduinoLCD\test\Pain Drain\libraries\lvgl\src\extra\widgets\tabview/lv_tabview.c ****             lv_obj_scroll_to_x(cont, (gap + w) * id_rtl, anim_en);
 162:..\..\..\arduinoLCD\test\Pain Drain\libraries\lvgl\src\extra\widgets\tabview/lv_tabview.c ****         }
 163:..\..\..\arduinoLCD\test\Pain Drain\libraries\lvgl\src\extra\widgets\tabview/lv_tabview.c ****     }
 164:..\..\..\arduinoLCD\test\Pain Drain\libraries\lvgl\src\extra\widgets\tabview/lv_tabview.c ****     else {
 165:..\..\..\arduinoLCD\test\Pain Drain\libraries\lvgl\src\extra\widgets\tabview/lv_tabview.c ****         lv_coord_t gap = lv_obj_get_style_pad_row(cont, LV_PART_MAIN);
 166:..\..\..\arduinoLCD\test\Pain Drain\libraries\lvgl\src\extra\widgets\tabview/lv_tabview.c ****         lv_coord_t h = lv_obj_get_content_height(cont);
 167:..\..\..\arduinoLCD\test\Pain Drain\libraries\lvgl\src\extra\widgets\tabview/lv_tabview.c ****         lv_obj_scroll_to_y(cont, id * (gap + h), anim_en);
 168:..\..\..\arduinoLCD\test\Pain Drain\libraries\lvgl\src\extra\widgets\tabview/lv_tabview.c ****     }
 169:..\..\..\arduinoLCD\test\Pain Drain\libraries\lvgl\src\extra\widgets\tabview/lv_tabview.c **** 
 170:..\..\..\arduinoLCD\test\Pain Drain\libraries\lvgl\src\extra\widgets\tabview/lv_tabview.c ****     lv_obj_t * btns = lv_tabview_get_tab_btns(obj);
 171:..\..\..\arduinoLCD\test\Pain Drain\libraries\lvgl\src\extra\widgets\tabview/lv_tabview.c ****     lv_btnmatrix_set_btn_ctrl(btns, id, LV_BTNMATRIX_CTRL_CHECKED);
 172:..\..\..\arduinoLCD\test\Pain Drain\libraries\lvgl\src\extra\widgets\tabview/lv_tabview.c ****     tabview->tab_cur = id;
 173:..\..\..\arduinoLCD\test\Pain Drain\libraries\lvgl\src\extra\widgets\tabview/lv_tabview.c **** }
 174:..\..\..\arduinoLCD\test\Pain Drain\libraries\lvgl\src\extra\widgets\tabview/lv_tabview.c **** 
 175:..\..\..\arduinoLCD\test\Pain Drain\libraries\lvgl\src\extra\widgets\tabview/lv_tabview.c **** uint16_t lv_tabview_get_tab_act(lv_obj_t * obj)
 176:..\..\..\arduinoLCD\test\Pain Drain\libraries\lvgl\src\extra\widgets\tabview/lv_tabview.c **** {
 177:..\..\..\arduinoLCD\test\Pain Drain\libraries\lvgl\src\extra\widgets\tabview/lv_tabview.c ****     LV_ASSERT_OBJ(obj, MY_CLASS);
 178:..\..\..\arduinoLCD\test\Pain Drain\libraries\lvgl\src\extra\widgets\tabview/lv_tabview.c ****     lv_tabview_t * tabview = (lv_tabview_t *)obj;
 179:..\..\..\arduinoLCD\test\Pain Drain\libraries\lvgl\src\extra\widgets\tabview/lv_tabview.c ****     return tabview->tab_cur;
 180:..\..\..\arduinoLCD\test\Pain Drain\libraries\lvgl\src\extra\widgets\tabview/lv_tabview.c **** }
 181:..\..\..\arduinoLCD\test\Pain Drain\libraries\lvgl\src\extra\widgets\tabview/lv_tabview.c **** 
 182:..\..\..\arduinoLCD\test\Pain Drain\libraries\lvgl\src\extra\widgets\tabview/lv_tabview.c **** lv_obj_t * lv_tabview_get_content(lv_obj_t * tv)
 183:..\..\..\arduinoLCD\test\Pain Drain\libraries\lvgl\src\extra\widgets\tabview/lv_tabview.c **** {
 184:..\..\..\arduinoLCD\test\Pain Drain\libraries\lvgl\src\extra\widgets\tabview/lv_tabview.c ****     return lv_obj_get_child(tv, 1);
 185:..\..\..\arduinoLCD\test\Pain Drain\libraries\lvgl\src\extra\widgets\tabview/lv_tabview.c **** }
 186:..\..\..\arduinoLCD\test\Pain Drain\libraries\lvgl\src\extra\widgets\tabview/lv_tabview.c **** 
 187:..\..\..\arduinoLCD\test\Pain Drain\libraries\lvgl\src\extra\widgets\tabview/lv_tabview.c **** lv_obj_t * lv_tabview_get_tab_btns(lv_obj_t * tv)
 188:..\..\..\arduinoLCD\test\Pain Drain\libraries\lvgl\src\extra\widgets\tabview/lv_tabview.c **** {
 189:..\..\..\arduinoLCD\test\Pain Drain\libraries\lvgl\src\extra\widgets\tabview/lv_tabview.c ****     return lv_obj_get_child(tv, 0);
 190:..\..\..\arduinoLCD\test\Pain Drain\libraries\lvgl\src\extra\widgets\tabview/lv_tabview.c **** }
 191:..\..\..\arduinoLCD\test\Pain Drain\libraries\lvgl\src\extra\widgets\tabview/lv_tabview.c **** 
 192:..\..\..\arduinoLCD\test\Pain Drain\libraries\lvgl\src\extra\widgets\tabview/lv_tabview.c **** /**********************
 193:..\..\..\arduinoLCD\test\Pain Drain\libraries\lvgl\src\extra\widgets\tabview/lv_tabview.c ****  *   STATIC FUNCTIONS
 194:..\..\..\arduinoLCD\test\Pain Drain\libraries\lvgl\src\extra\widgets\tabview/lv_tabview.c ****  **********************/
 195:..\..\..\arduinoLCD\test\Pain Drain\libraries\lvgl\src\extra\widgets\tabview/lv_tabview.c **** 
 196:..\..\..\arduinoLCD\test\Pain Drain\libraries\lvgl\src\extra\widgets\tabview/lv_tabview.c **** static void lv_tabview_constructor(const lv_obj_class_t * class_p, lv_obj_t * obj)
 197:..\..\..\arduinoLCD\test\Pain Drain\libraries\lvgl\src\extra\widgets\tabview/lv_tabview.c **** {
 198:..\..\..\arduinoLCD\test\Pain Drain\libraries\lvgl\src\extra\widgets\tabview/lv_tabview.c ****     LV_UNUSED(class_p);
 199:..\..\..\arduinoLCD\test\Pain Drain\libraries\lvgl\src\extra\widgets\tabview/lv_tabview.c ****     lv_tabview_t * tabview = (lv_tabview_t *)obj;
 200:..\..\..\arduinoLCD\test\Pain Drain\libraries\lvgl\src\extra\widgets\tabview/lv_tabview.c **** 
 201:..\..\..\arduinoLCD\test\Pain Drain\libraries\lvgl\src\extra\widgets\tabview/lv_tabview.c ****     tabview->tab_pos = tabpos_create;
 202:..\..\..\arduinoLCD\test\Pain Drain\libraries\lvgl\src\extra\widgets\tabview/lv_tabview.c **** 
ARM GAS  C:\Users\haske\AppData\Local\Temp\cc65HANE.s 			page 5


 203:..\..\..\arduinoLCD\test\Pain Drain\libraries\lvgl\src\extra\widgets\tabview/lv_tabview.c ****     switch(tabview->tab_pos) {
 204:..\..\..\arduinoLCD\test\Pain Drain\libraries\lvgl\src\extra\widgets\tabview/lv_tabview.c ****         case LV_DIR_TOP:
 205:..\..\..\arduinoLCD\test\Pain Drain\libraries\lvgl\src\extra\widgets\tabview/lv_tabview.c ****             lv_obj_set_flex_flow(obj, LV_FLEX_FLOW_COLUMN);
 206:..\..\..\arduinoLCD\test\Pain Drain\libraries\lvgl\src\extra\widgets\tabview/lv_tabview.c ****             break;
 207:..\..\..\arduinoLCD\test\Pain Drain\libraries\lvgl\src\extra\widgets\tabview/lv_tabview.c ****         case LV_DIR_BOTTOM:
 208:..\..\..\arduinoLCD\test\Pain Drain\libraries\lvgl\src\extra\widgets\tabview/lv_tabview.c ****             lv_obj_set_flex_flow(obj, LV_FLEX_FLOW_COLUMN_REVERSE);
 209:..\..\..\arduinoLCD\test\Pain Drain\libraries\lvgl\src\extra\widgets\tabview/lv_tabview.c ****             break;
 210:..\..\..\arduinoLCD\test\Pain Drain\libraries\lvgl\src\extra\widgets\tabview/lv_tabview.c ****         case LV_DIR_LEFT:
 211:..\..\..\arduinoLCD\test\Pain Drain\libraries\lvgl\src\extra\widgets\tabview/lv_tabview.c ****             lv_obj_set_flex_flow(obj, LV_FLEX_FLOW_ROW);
 212:..\..\..\arduinoLCD\test\Pain Drain\libraries\lvgl\src\extra\widgets\tabview/lv_tabview.c ****             break;
 213:..\..\..\arduinoLCD\test\Pain Drain\libraries\lvgl\src\extra\widgets\tabview/lv_tabview.c ****         case LV_DIR_RIGHT:
 214:..\..\..\arduinoLCD\test\Pain Drain\libraries\lvgl\src\extra\widgets\tabview/lv_tabview.c ****             lv_obj_set_flex_flow(obj, LV_FLEX_FLOW_ROW_REVERSE);
 215:..\..\..\arduinoLCD\test\Pain Drain\libraries\lvgl\src\extra\widgets\tabview/lv_tabview.c ****             break;
 216:..\..\..\arduinoLCD\test\Pain Drain\libraries\lvgl\src\extra\widgets\tabview/lv_tabview.c ****     }
 217:..\..\..\arduinoLCD\test\Pain Drain\libraries\lvgl\src\extra\widgets\tabview/lv_tabview.c **** 
 218:..\..\..\arduinoLCD\test\Pain Drain\libraries\lvgl\src\extra\widgets\tabview/lv_tabview.c ****     lv_obj_set_size(obj, LV_PCT(100), LV_PCT(100));
 219:..\..\..\arduinoLCD\test\Pain Drain\libraries\lvgl\src\extra\widgets\tabview/lv_tabview.c **** 
 220:..\..\..\arduinoLCD\test\Pain Drain\libraries\lvgl\src\extra\widgets\tabview/lv_tabview.c ****     lv_obj_t * btnm;
 221:..\..\..\arduinoLCD\test\Pain Drain\libraries\lvgl\src\extra\widgets\tabview/lv_tabview.c ****     lv_obj_t * cont;
 222:..\..\..\arduinoLCD\test\Pain Drain\libraries\lvgl\src\extra\widgets\tabview/lv_tabview.c **** 
 223:..\..\..\arduinoLCD\test\Pain Drain\libraries\lvgl\src\extra\widgets\tabview/lv_tabview.c ****     btnm = lv_btnmatrix_create(obj);
 224:..\..\..\arduinoLCD\test\Pain Drain\libraries\lvgl\src\extra\widgets\tabview/lv_tabview.c ****     cont = lv_obj_create(obj);
 225:..\..\..\arduinoLCD\test\Pain Drain\libraries\lvgl\src\extra\widgets\tabview/lv_tabview.c **** 
 226:..\..\..\arduinoLCD\test\Pain Drain\libraries\lvgl\src\extra\widgets\tabview/lv_tabview.c ****     lv_btnmatrix_set_one_checked(btnm, true);
 227:..\..\..\arduinoLCD\test\Pain Drain\libraries\lvgl\src\extra\widgets\tabview/lv_tabview.c ****     tabview->map = lv_mem_alloc(sizeof(const char *));
 228:..\..\..\arduinoLCD\test\Pain Drain\libraries\lvgl\src\extra\widgets\tabview/lv_tabview.c ****     tabview->map[0] = "";
 229:..\..\..\arduinoLCD\test\Pain Drain\libraries\lvgl\src\extra\widgets\tabview/lv_tabview.c ****     lv_btnmatrix_set_map(btnm, (const char **)tabview->map);
 230:..\..\..\arduinoLCD\test\Pain Drain\libraries\lvgl\src\extra\widgets\tabview/lv_tabview.c ****     lv_obj_add_event_cb(btnm, btns_value_changed_event_cb, LV_EVENT_VALUE_CHANGED, NULL);
 231:..\..\..\arduinoLCD\test\Pain Drain\libraries\lvgl\src\extra\widgets\tabview/lv_tabview.c ****     lv_obj_add_flag(btnm, LV_OBJ_FLAG_EVENT_BUBBLE);
 232:..\..\..\arduinoLCD\test\Pain Drain\libraries\lvgl\src\extra\widgets\tabview/lv_tabview.c **** 
 233:..\..\..\arduinoLCD\test\Pain Drain\libraries\lvgl\src\extra\widgets\tabview/lv_tabview.c ****     lv_obj_add_event_cb(cont, cont_scroll_end_event_cb, LV_EVENT_ALL, NULL);
 234:..\..\..\arduinoLCD\test\Pain Drain\libraries\lvgl\src\extra\widgets\tabview/lv_tabview.c ****     lv_obj_set_scrollbar_mode(cont, LV_SCROLLBAR_MODE_OFF);
 235:..\..\..\arduinoLCD\test\Pain Drain\libraries\lvgl\src\extra\widgets\tabview/lv_tabview.c **** 
 236:..\..\..\arduinoLCD\test\Pain Drain\libraries\lvgl\src\extra\widgets\tabview/lv_tabview.c ****     switch(tabview->tab_pos) {
 237:..\..\..\arduinoLCD\test\Pain Drain\libraries\lvgl\src\extra\widgets\tabview/lv_tabview.c ****         case LV_DIR_TOP:
 238:..\..\..\arduinoLCD\test\Pain Drain\libraries\lvgl\src\extra\widgets\tabview/lv_tabview.c ****         case LV_DIR_BOTTOM:
 239:..\..\..\arduinoLCD\test\Pain Drain\libraries\lvgl\src\extra\widgets\tabview/lv_tabview.c ****             lv_obj_set_size(btnm, LV_PCT(100), tabsize_create);
 240:..\..\..\arduinoLCD\test\Pain Drain\libraries\lvgl\src\extra\widgets\tabview/lv_tabview.c ****             lv_obj_set_width(cont, LV_PCT(100));
 241:..\..\..\arduinoLCD\test\Pain Drain\libraries\lvgl\src\extra\widgets\tabview/lv_tabview.c ****             lv_obj_set_flex_grow(cont, 1);
 242:..\..\..\arduinoLCD\test\Pain Drain\libraries\lvgl\src\extra\widgets\tabview/lv_tabview.c ****             break;
 243:..\..\..\arduinoLCD\test\Pain Drain\libraries\lvgl\src\extra\widgets\tabview/lv_tabview.c ****         case LV_DIR_LEFT:
 244:..\..\..\arduinoLCD\test\Pain Drain\libraries\lvgl\src\extra\widgets\tabview/lv_tabview.c ****         case LV_DIR_RIGHT:
 245:..\..\..\arduinoLCD\test\Pain Drain\libraries\lvgl\src\extra\widgets\tabview/lv_tabview.c ****             lv_obj_set_size(btnm, tabsize_create, LV_PCT(100));
 246:..\..\..\arduinoLCD\test\Pain Drain\libraries\lvgl\src\extra\widgets\tabview/lv_tabview.c ****             lv_obj_set_height(cont, LV_PCT(100));
 247:..\..\..\arduinoLCD\test\Pain Drain\libraries\lvgl\src\extra\widgets\tabview/lv_tabview.c ****             lv_obj_set_flex_grow(cont, 1);
 248:..\..\..\arduinoLCD\test\Pain Drain\libraries\lvgl\src\extra\widgets\tabview/lv_tabview.c ****             break;
 249:..\..\..\arduinoLCD\test\Pain Drain\libraries\lvgl\src\extra\widgets\tabview/lv_tabview.c ****     }
 250:..\..\..\arduinoLCD\test\Pain Drain\libraries\lvgl\src\extra\widgets\tabview/lv_tabview.c **** 
 251:..\..\..\arduinoLCD\test\Pain Drain\libraries\lvgl\src\extra\widgets\tabview/lv_tabview.c ****     lv_group_t * g = lv_group_get_default();
 252:..\..\..\arduinoLCD\test\Pain Drain\libraries\lvgl\src\extra\widgets\tabview/lv_tabview.c ****     if(g) lv_group_add_obj(g, btnm);
 253:..\..\..\arduinoLCD\test\Pain Drain\libraries\lvgl\src\extra\widgets\tabview/lv_tabview.c **** 
 254:..\..\..\arduinoLCD\test\Pain Drain\libraries\lvgl\src\extra\widgets\tabview/lv_tabview.c ****     if((tabview->tab_pos & LV_DIR_VER) != 0) {
 255:..\..\..\arduinoLCD\test\Pain Drain\libraries\lvgl\src\extra\widgets\tabview/lv_tabview.c ****         lv_obj_set_flex_flow(cont, LV_FLEX_FLOW_ROW);
 256:..\..\..\arduinoLCD\test\Pain Drain\libraries\lvgl\src\extra\widgets\tabview/lv_tabview.c ****         lv_obj_set_scroll_snap_x(cont, LV_SCROLL_SNAP_CENTER);
 257:..\..\..\arduinoLCD\test\Pain Drain\libraries\lvgl\src\extra\widgets\tabview/lv_tabview.c ****     }
 258:..\..\..\arduinoLCD\test\Pain Drain\libraries\lvgl\src\extra\widgets\tabview/lv_tabview.c ****     else {
 259:..\..\..\arduinoLCD\test\Pain Drain\libraries\lvgl\src\extra\widgets\tabview/lv_tabview.c ****         lv_obj_set_flex_flow(cont, LV_FLEX_FLOW_COLUMN);
ARM GAS  C:\Users\haske\AppData\Local\Temp\cc65HANE.s 			page 6


 260:..\..\..\arduinoLCD\test\Pain Drain\libraries\lvgl\src\extra\widgets\tabview/lv_tabview.c ****         lv_obj_set_scroll_snap_y(cont, LV_SCROLL_SNAP_CENTER);
 261:..\..\..\arduinoLCD\test\Pain Drain\libraries\lvgl\src\extra\widgets\tabview/lv_tabview.c ****     }
 262:..\..\..\arduinoLCD\test\Pain Drain\libraries\lvgl\src\extra\widgets\tabview/lv_tabview.c ****     lv_obj_add_flag(cont, LV_OBJ_FLAG_SCROLL_ONE);
 263:..\..\..\arduinoLCD\test\Pain Drain\libraries\lvgl\src\extra\widgets\tabview/lv_tabview.c ****     lv_obj_clear_flag(cont, LV_OBJ_FLAG_SCROLL_ON_FOCUS);
 264:..\..\..\arduinoLCD\test\Pain Drain\libraries\lvgl\src\extra\widgets\tabview/lv_tabview.c **** }
 265:..\..\..\arduinoLCD\test\Pain Drain\libraries\lvgl\src\extra\widgets\tabview/lv_tabview.c **** 
 266:..\..\..\arduinoLCD\test\Pain Drain\libraries\lvgl\src\extra\widgets\tabview/lv_tabview.c **** static void lv_tabview_destructor(const lv_obj_class_t * class_p, lv_obj_t * obj)
 267:..\..\..\arduinoLCD\test\Pain Drain\libraries\lvgl\src\extra\widgets\tabview/lv_tabview.c **** {
  27              		.loc 1 267 0
  28              		.cfi_startproc
  29              		@ args = 0, pretend = 0, frame = 0
  30              		@ frame_needed = 0, uses_anonymous_args = 0
  31              	.LVL0:
  32 0000 70B5     		push	{r4, r5, r6, lr}
  33              		.cfi_def_cfa_offset 16
  34              		.cfi_offset 4, -16
  35              		.cfi_offset 5, -12
  36              		.cfi_offset 6, -8
  37              		.cfi_offset 14, -4
  38 0002 0C00     		movs	r4, r1
  39              	.LVL1:
 268:..\..\..\arduinoLCD\test\Pain Drain\libraries\lvgl\src\extra\widgets\tabview/lv_tabview.c ****     LV_UNUSED(class_p);
 269:..\..\..\arduinoLCD\test\Pain Drain\libraries\lvgl\src\extra\widgets\tabview/lv_tabview.c ****     lv_tabview_t * tabview = (lv_tabview_t *)obj;
 270:..\..\..\arduinoLCD\test\Pain Drain\libraries\lvgl\src\extra\widgets\tabview/lv_tabview.c **** 
 271:..\..\..\arduinoLCD\test\Pain Drain\libraries\lvgl\src\extra\widgets\tabview/lv_tabview.c ****     uint32_t i;
 272:..\..\..\arduinoLCD\test\Pain Drain\libraries\lvgl\src\extra\widgets\tabview/lv_tabview.c ****     if(tabview->tab_pos & LV_DIR_VER) {
  40              		.loc 1 272 0
  41 0004 2C23     		movs	r3, #44
  42 0006 CB5C     		ldrb	r3, [r1, r3]
  43 0008 0C22     		movs	r2, #12
  44 000a 1A42     		tst	r2, r3
  45 000c 0CD1     		bne	.L8
  46 000e 0FE0     		b	.L3
  47              	.LVL2:
  48              	.L4:
 273:..\..\..\arduinoLCD\test\Pain Drain\libraries\lvgl\src\extra\widgets\tabview/lv_tabview.c ****         for(i = 0; i < tabview->tab_cnt; i++) {
 274:..\..\..\arduinoLCD\test\Pain Drain\libraries\lvgl\src\extra\widgets\tabview/lv_tabview.c ****             lv_mem_free(tabview->map[i]);
  49              		.loc 1 274 0 discriminator 3
  50 0010 B500     		lsls	r5, r6, #2
  51 0012 636A     		ldr	r3, [r4, #36]
  52 0014 5859     		ldr	r0, [r3, r5]
  53 0016 FFF7FEFF 		bl	lv_mem_free
  54              	.LVL3:
 275:..\..\..\arduinoLCD\test\Pain Drain\libraries\lvgl\src\extra\widgets\tabview/lv_tabview.c ****             tabview->map[i] = NULL;
  55              		.loc 1 275 0 discriminator 3
  56 001a 636A     		ldr	r3, [r4, #36]
  57 001c 9C46     		mov	ip, r3
  58 001e 6544     		add	r5, r5, ip
  59 0020 0023     		movs	r3, #0
  60 0022 2B60     		str	r3, [r5]
 273:..\..\..\arduinoLCD\test\Pain Drain\libraries\lvgl\src\extra\widgets\tabview/lv_tabview.c ****         for(i = 0; i < tabview->tab_cnt; i++) {
  61              		.loc 1 273 0 discriminator 3
  62 0024 0136     		adds	r6, r6, #1
  63              	.LVL4:
  64 0026 00E0     		b	.L2
  65              	.LVL5:
  66              	.L8:
ARM GAS  C:\Users\haske\AppData\Local\Temp\cc65HANE.s 			page 7


  67 0028 0026     		movs	r6, #0
  68              	.LVL6:
  69              	.L2:
 273:..\..\..\arduinoLCD\test\Pain Drain\libraries\lvgl\src\extra\widgets\tabview/lv_tabview.c ****         for(i = 0; i < tabview->tab_cnt; i++) {
  70              		.loc 1 273 0 is_stmt 0 discriminator 1
  71 002a 238D     		ldrh	r3, [r4, #40]
  72 002c 9E42     		cmp	r6, r3
  73 002e EFD3     		bcc	.L4
  74              	.LVL7:
  75              	.L3:
 276:..\..\..\arduinoLCD\test\Pain Drain\libraries\lvgl\src\extra\widgets\tabview/lv_tabview.c ****         }
 277:..\..\..\arduinoLCD\test\Pain Drain\libraries\lvgl\src\extra\widgets\tabview/lv_tabview.c ****     }
 278:..\..\..\arduinoLCD\test\Pain Drain\libraries\lvgl\src\extra\widgets\tabview/lv_tabview.c ****     if(tabview->tab_pos & LV_DIR_HOR) {
  76              		.loc 1 278 0 is_stmt 1
  77 0030 2C23     		movs	r3, #44
  78 0032 E35C     		ldrb	r3, [r4, r3]
  79 0034 9B07     		lsls	r3, r3, #30
  80 0036 0CD1     		bne	.L9
  81 0038 0FE0     		b	.L6
  82              	.LVL8:
  83              	.L7:
 279:..\..\..\arduinoLCD\test\Pain Drain\libraries\lvgl\src\extra\widgets\tabview/lv_tabview.c ****         for(i = 0; i < tabview->tab_cnt; i++) {
 280:..\..\..\arduinoLCD\test\Pain Drain\libraries\lvgl\src\extra\widgets\tabview/lv_tabview.c ****             lv_mem_free(tabview->map[i * 2]);
  84              		.loc 1 280 0 discriminator 3
  85 003a F500     		lsls	r5, r6, #3
  86 003c 636A     		ldr	r3, [r4, #36]
  87 003e 5859     		ldr	r0, [r3, r5]
  88 0040 FFF7FEFF 		bl	lv_mem_free
  89              	.LVL9:
 281:..\..\..\arduinoLCD\test\Pain Drain\libraries\lvgl\src\extra\widgets\tabview/lv_tabview.c ****             tabview->map[i * 2] = NULL;
  90              		.loc 1 281 0 discriminator 3
  91 0044 636A     		ldr	r3, [r4, #36]
  92 0046 9C46     		mov	ip, r3
  93 0048 6544     		add	r5, r5, ip
  94 004a 0023     		movs	r3, #0
  95 004c 2B60     		str	r3, [r5]
 279:..\..\..\arduinoLCD\test\Pain Drain\libraries\lvgl\src\extra\widgets\tabview/lv_tabview.c ****         for(i = 0; i < tabview->tab_cnt; i++) {
  96              		.loc 1 279 0 discriminator 3
  97 004e 0136     		adds	r6, r6, #1
  98              	.LVL10:
  99 0050 00E0     		b	.L5
 100              	.LVL11:
 101              	.L9:
 102 0052 0026     		movs	r6, #0
 103              	.L5:
 104              	.LVL12:
 279:..\..\..\arduinoLCD\test\Pain Drain\libraries\lvgl\src\extra\widgets\tabview/lv_tabview.c ****         for(i = 0; i < tabview->tab_cnt; i++) {
 105              		.loc 1 279 0 is_stmt 0 discriminator 1
 106 0054 238D     		ldrh	r3, [r4, #40]
 107 0056 9E42     		cmp	r6, r3
 108 0058 EFD3     		bcc	.L7
 109              	.LVL13:
 110              	.L6:
 282:..\..\..\arduinoLCD\test\Pain Drain\libraries\lvgl\src\extra\widgets\tabview/lv_tabview.c ****         }
 283:..\..\..\arduinoLCD\test\Pain Drain\libraries\lvgl\src\extra\widgets\tabview/lv_tabview.c ****     }
 284:..\..\..\arduinoLCD\test\Pain Drain\libraries\lvgl\src\extra\widgets\tabview/lv_tabview.c **** 
 285:..\..\..\arduinoLCD\test\Pain Drain\libraries\lvgl\src\extra\widgets\tabview/lv_tabview.c **** 
ARM GAS  C:\Users\haske\AppData\Local\Temp\cc65HANE.s 			page 8


 286:..\..\..\arduinoLCD\test\Pain Drain\libraries\lvgl\src\extra\widgets\tabview/lv_tabview.c ****     lv_mem_free(tabview->map);
 111              		.loc 1 286 0 is_stmt 1
 112 005a 606A     		ldr	r0, [r4, #36]
 113 005c FFF7FEFF 		bl	lv_mem_free
 114              	.LVL14:
 287:..\..\..\arduinoLCD\test\Pain Drain\libraries\lvgl\src\extra\widgets\tabview/lv_tabview.c ****     tabview->map = NULL;
 115              		.loc 1 287 0
 116 0060 0023     		movs	r3, #0
 117 0062 6362     		str	r3, [r4, #36]
 288:..\..\..\arduinoLCD\test\Pain Drain\libraries\lvgl\src\extra\widgets\tabview/lv_tabview.c **** }
 118              		.loc 1 288 0
 119              		@ sp needed
 120              	.LVL15:
 121 0064 70BD     		pop	{r4, r5, r6, pc}
 122              		.cfi_endproc
 123              	.LFE210:
 124              		.size	lv_tabview_destructor, .-lv_tabview_destructor
 125 0066 C046     		.section	.text.lv_tabview_constructor,"ax",%progbits
 126              		.align	2
 127              		.code	16
 128              		.thumb_func
 129              		.type	lv_tabview_constructor, %function
 130              	lv_tabview_constructor:
 131              	.LFB209:
 197:..\..\..\arduinoLCD\test\Pain Drain\libraries\lvgl\src\extra\widgets\tabview/lv_tabview.c ****     LV_UNUSED(class_p);
 132              		.loc 1 197 0
 133              		.cfi_startproc
 134              		@ args = 0, pretend = 0, frame = 0
 135              		@ frame_needed = 0, uses_anonymous_args = 0
 136              	.LVL16:
 137 0000 F8B5     		push	{r3, r4, r5, r6, r7, lr}
 138              		.cfi_def_cfa_offset 24
 139              		.cfi_offset 3, -24
 140              		.cfi_offset 4, -20
 141              		.cfi_offset 5, -16
 142              		.cfi_offset 6, -12
 143              		.cfi_offset 7, -8
 144              		.cfi_offset 14, -4
 145 0002 0C00     		movs	r4, r1
 146              	.LVL17:
 201:..\..\..\arduinoLCD\test\Pain Drain\libraries\lvgl\src\extra\widgets\tabview/lv_tabview.c **** 
 147              		.loc 1 201 0
 148 0004 524B     		ldr	r3, .L25
 149 0006 1B78     		ldrb	r3, [r3]
 150 0008 2C22     		movs	r2, #44
 151 000a 8B54     		strb	r3, [r1, r2]
 203:..\..\..\arduinoLCD\test\Pain Drain\libraries\lvgl\src\extra\widgets\tabview/lv_tabview.c ****         case LV_DIR_TOP:
 152              		.loc 1 203 0
 153 000c 022B     		cmp	r3, #2
 154 000e 17D0     		beq	.L12
 155 0010 02D8     		bhi	.L13
 156 0012 012B     		cmp	r3, #1
 157 0014 0FD0     		beq	.L14
 158 0016 17E0     		b	.L11
 159              	.L13:
 160 0018 042B     		cmp	r3, #4
 161 001a 02D0     		beq	.L15
ARM GAS  C:\Users\haske\AppData\Local\Temp\cc65HANE.s 			page 9


 162 001c 082B     		cmp	r3, #8
 163 001e 05D0     		beq	.L16
 164 0020 12E0     		b	.L11
 165              	.L15:
 205:..\..\..\arduinoLCD\test\Pain Drain\libraries\lvgl\src\extra\widgets\tabview/lv_tabview.c ****             break;
 166              		.loc 1 205 0
 167 0022 0121     		movs	r1, #1
 168              	.LVL18:
 169 0024 2000     		movs	r0, r4
 170              	.LVL19:
 171 0026 FFF7FEFF 		bl	lv_obj_set_flex_flow
 172              	.LVL20:
 206:..\..\..\arduinoLCD\test\Pain Drain\libraries\lvgl\src\extra\widgets\tabview/lv_tabview.c ****         case LV_DIR_BOTTOM:
 173              		.loc 1 206 0
 174 002a 0DE0     		b	.L11
 175              	.LVL21:
 176              	.L16:
 208:..\..\..\arduinoLCD\test\Pain Drain\libraries\lvgl\src\extra\widgets\tabview/lv_tabview.c ****             break;
 177              		.loc 1 208 0
 178 002c 0921     		movs	r1, #9
 179              	.LVL22:
 180 002e 2000     		movs	r0, r4
 181              	.LVL23:
 182 0030 FFF7FEFF 		bl	lv_obj_set_flex_flow
 183              	.LVL24:
 209:..\..\..\arduinoLCD\test\Pain Drain\libraries\lvgl\src\extra\widgets\tabview/lv_tabview.c ****         case LV_DIR_LEFT:
 184              		.loc 1 209 0
 185 0034 08E0     		b	.L11
 186              	.LVL25:
 187              	.L14:
 211:..\..\..\arduinoLCD\test\Pain Drain\libraries\lvgl\src\extra\widgets\tabview/lv_tabview.c ****             break;
 188              		.loc 1 211 0
 189 0036 0021     		movs	r1, #0
 190              	.LVL26:
 191 0038 2000     		movs	r0, r4
 192              	.LVL27:
 193 003a FFF7FEFF 		bl	lv_obj_set_flex_flow
 194              	.LVL28:
 212:..\..\..\arduinoLCD\test\Pain Drain\libraries\lvgl\src\extra\widgets\tabview/lv_tabview.c ****         case LV_DIR_RIGHT:
 195              		.loc 1 212 0
 196 003e 03E0     		b	.L11
 197              	.LVL29:
 198              	.L12:
 214:..\..\..\arduinoLCD\test\Pain Drain\libraries\lvgl\src\extra\widgets\tabview/lv_tabview.c ****             break;
 199              		.loc 1 214 0
 200 0040 0821     		movs	r1, #8
 201              	.LVL30:
 202 0042 2000     		movs	r0, r4
 203              	.LVL31:
 204 0044 FFF7FEFF 		bl	lv_obj_set_flex_flow
 205              	.LVL32:
 206              	.L11:
 218:..\..\..\arduinoLCD\test\Pain Drain\libraries\lvgl\src\extra\widgets\tabview/lv_tabview.c **** 
 207              		.loc 1 218 0
 208 0048 4249     		ldr	r1, .L25+4
 209 004a 0A00     		movs	r2, r1
 210 004c 2000     		movs	r0, r4
ARM GAS  C:\Users\haske\AppData\Local\Temp\cc65HANE.s 			page 10


 211 004e FFF7FEFF 		bl	lv_obj_set_size
 212              	.LVL33:
 223:..\..\..\arduinoLCD\test\Pain Drain\libraries\lvgl\src\extra\widgets\tabview/lv_tabview.c ****     cont = lv_obj_create(obj);
 213              		.loc 1 223 0
 214 0052 2000     		movs	r0, r4
 215 0054 FFF7FEFF 		bl	lv_btnmatrix_create
 216              	.LVL34:
 217 0058 0600     		movs	r6, r0
 218              	.LVL35:
 224:..\..\..\arduinoLCD\test\Pain Drain\libraries\lvgl\src\extra\widgets\tabview/lv_tabview.c **** 
 219              		.loc 1 224 0
 220 005a 2000     		movs	r0, r4
 221              	.LVL36:
 222 005c FFF7FEFF 		bl	lv_obj_create
 223              	.LVL37:
 224 0060 0500     		movs	r5, r0
 225              	.LVL38:
 226:..\..\..\arduinoLCD\test\Pain Drain\libraries\lvgl\src\extra\widgets\tabview/lv_tabview.c ****     tabview->map = lv_mem_alloc(sizeof(const char *));
 226              		.loc 1 226 0
 227 0062 0121     		movs	r1, #1
 228 0064 3000     		movs	r0, r6
 229              	.LVL39:
 230 0066 FFF7FEFF 		bl	lv_btnmatrix_set_one_checked
 231              	.LVL40:
 227:..\..\..\arduinoLCD\test\Pain Drain\libraries\lvgl\src\extra\widgets\tabview/lv_tabview.c ****     tabview->map[0] = "";
 232              		.loc 1 227 0
 233 006a 0420     		movs	r0, #4
 234 006c FFF7FEFF 		bl	lv_mem_alloc
 235              	.LVL41:
 236 0070 6062     		str	r0, [r4, #36]
 228:..\..\..\arduinoLCD\test\Pain Drain\libraries\lvgl\src\extra\widgets\tabview/lv_tabview.c ****     lv_btnmatrix_set_map(btnm, (const char **)tabview->map);
 237              		.loc 1 228 0
 238 0072 394B     		ldr	r3, .L25+8
 239 0074 0360     		str	r3, [r0]
 229:..\..\..\arduinoLCD\test\Pain Drain\libraries\lvgl\src\extra\widgets\tabview/lv_tabview.c ****     lv_obj_add_event_cb(btnm, btns_value_changed_event_cb, LV_EVENT_VALUE_CHANGED, NULL);
 240              		.loc 1 229 0
 241 0076 616A     		ldr	r1, [r4, #36]
 242 0078 3000     		movs	r0, r6
 243 007a FFF7FEFF 		bl	lv_btnmatrix_set_map
 244              	.LVL42:
 230:..\..\..\arduinoLCD\test\Pain Drain\libraries\lvgl\src\extra\widgets\tabview/lv_tabview.c ****     lv_obj_add_flag(btnm, LV_OBJ_FLAG_EVENT_BUBBLE);
 245              		.loc 1 230 0
 246 007e 0023     		movs	r3, #0
 247 0080 1C22     		movs	r2, #28
 248 0082 3649     		ldr	r1, .L25+12
 249 0084 3000     		movs	r0, r6
 250 0086 FFF7FEFF 		bl	lv_obj_add_event_cb
 251              	.LVL43:
 231:..\..\..\arduinoLCD\test\Pain Drain\libraries\lvgl\src\extra\widgets\tabview/lv_tabview.c **** 
 252              		.loc 1 231 0
 253 008a 8021     		movs	r1, #128
 254 008c C901     		lsls	r1, r1, #7
 255 008e 3000     		movs	r0, r6
 256 0090 FFF7FEFF 		bl	lv_obj_add_flag
 257              	.LVL44:
 233:..\..\..\arduinoLCD\test\Pain Drain\libraries\lvgl\src\extra\widgets\tabview/lv_tabview.c ****     lv_obj_set_scrollbar_mode(cont, LV_SCROLLBAR_MODE_OFF);
 258              		.loc 1 233 0
ARM GAS  C:\Users\haske\AppData\Local\Temp\cc65HANE.s 			page 11


 259 0094 0023     		movs	r3, #0
 260 0096 0022     		movs	r2, #0
 261 0098 3149     		ldr	r1, .L25+16
 262 009a 2800     		movs	r0, r5
 263 009c FFF7FEFF 		bl	lv_obj_add_event_cb
 264              	.LVL45:
 234:..\..\..\arduinoLCD\test\Pain Drain\libraries\lvgl\src\extra\widgets\tabview/lv_tabview.c **** 
 265              		.loc 1 234 0
 266 00a0 0021     		movs	r1, #0
 267 00a2 2800     		movs	r0, r5
 268 00a4 FFF7FEFF 		bl	lv_obj_set_scrollbar_mode
 269              	.LVL46:
 236:..\..\..\arduinoLCD\test\Pain Drain\libraries\lvgl\src\extra\widgets\tabview/lv_tabview.c ****         case LV_DIR_TOP:
 270              		.loc 1 236 0
 271 00a8 2C23     		movs	r3, #44
 272 00aa E35C     		ldrb	r3, [r4, r3]
 273 00ac 042B     		cmp	r3, #4
 274 00ae 07D0     		beq	.L18
 275 00b0 04D8     		bhi	.L19
 276 00b2 013B     		subs	r3, r3, #1
 277 00b4 DBB2     		uxtb	r3, r3
 278 00b6 012B     		cmp	r3, #1
 279 00b8 13D9     		bls	.L24
 280 00ba 22E0     		b	.L17
 281              	.L19:
 282 00bc 082B     		cmp	r3, #8
 283 00be 20D1     		bne	.L17
 284              	.L18:
 239:..\..\..\arduinoLCD\test\Pain Drain\libraries\lvgl\src\extra\widgets\tabview/lv_tabview.c ****             lv_obj_set_width(cont, LV_PCT(100));
 285              		.loc 1 239 0
 286 00c0 234B     		ldr	r3, .L25
 287 00c2 0222     		movs	r2, #2
 288 00c4 9A5E     		ldrsh	r2, [r3, r2]
 289 00c6 234F     		ldr	r7, .L25+4
 290 00c8 3900     		movs	r1, r7
 291 00ca 3000     		movs	r0, r6
 292 00cc FFF7FEFF 		bl	lv_obj_set_size
 293              	.LVL47:
 240:..\..\..\arduinoLCD\test\Pain Drain\libraries\lvgl\src\extra\widgets\tabview/lv_tabview.c ****             lv_obj_set_flex_grow(cont, 1);
 294              		.loc 1 240 0
 295 00d0 3900     		movs	r1, r7
 296 00d2 2800     		movs	r0, r5
 297 00d4 FFF7FEFF 		bl	lv_obj_set_width
 298              	.LVL48:
 241:..\..\..\arduinoLCD\test\Pain Drain\libraries\lvgl\src\extra\widgets\tabview/lv_tabview.c ****             break;
 299              		.loc 1 241 0
 300 00d8 0121     		movs	r1, #1
 301 00da 2800     		movs	r0, r5
 302 00dc FFF7FEFF 		bl	lv_obj_set_flex_grow
 303              	.LVL49:
 242:..\..\..\arduinoLCD\test\Pain Drain\libraries\lvgl\src\extra\widgets\tabview/lv_tabview.c ****         case LV_DIR_LEFT:
 304              		.loc 1 242 0
 305 00e0 0FE0     		b	.L17
 306              	.L24:
 245:..\..\..\arduinoLCD\test\Pain Drain\libraries\lvgl\src\extra\widgets\tabview/lv_tabview.c ****             lv_obj_set_height(cont, LV_PCT(100));
 307              		.loc 1 245 0
 308 00e2 1C4F     		ldr	r7, .L25+4
ARM GAS  C:\Users\haske\AppData\Local\Temp\cc65HANE.s 			page 12


 309 00e4 1A4B     		ldr	r3, .L25
 310 00e6 0221     		movs	r1, #2
 311 00e8 595E     		ldrsh	r1, [r3, r1]
 312 00ea 3A00     		movs	r2, r7
 313 00ec 3000     		movs	r0, r6
 314 00ee FFF7FEFF 		bl	lv_obj_set_size
 315              	.LVL50:
 246:..\..\..\arduinoLCD\test\Pain Drain\libraries\lvgl\src\extra\widgets\tabview/lv_tabview.c ****             lv_obj_set_flex_grow(cont, 1);
 316              		.loc 1 246 0
 317 00f2 3900     		movs	r1, r7
 318 00f4 2800     		movs	r0, r5
 319 00f6 FFF7FEFF 		bl	lv_obj_set_height
 320              	.LVL51:
 247:..\..\..\arduinoLCD\test\Pain Drain\libraries\lvgl\src\extra\widgets\tabview/lv_tabview.c ****             break;
 321              		.loc 1 247 0
 322 00fa 0121     		movs	r1, #1
 323 00fc 2800     		movs	r0, r5
 324 00fe FFF7FEFF 		bl	lv_obj_set_flex_grow
 325              	.LVL52:
 326              	.L17:
 251:..\..\..\arduinoLCD\test\Pain Drain\libraries\lvgl\src\extra\widgets\tabview/lv_tabview.c ****     if(g) lv_group_add_obj(g, btnm);
 327              		.loc 1 251 0
 328 0102 FFF7FEFF 		bl	lv_group_get_default
 329              	.LVL53:
 252:..\..\..\arduinoLCD\test\Pain Drain\libraries\lvgl\src\extra\widgets\tabview/lv_tabview.c **** 
 330              		.loc 1 252 0
 331 0106 0028     		cmp	r0, #0
 332 0108 02D0     		beq	.L21
 252:..\..\..\arduinoLCD\test\Pain Drain\libraries\lvgl\src\extra\widgets\tabview/lv_tabview.c **** 
 333              		.loc 1 252 0 is_stmt 0 discriminator 1
 334 010a 3100     		movs	r1, r6
 335 010c FFF7FEFF 		bl	lv_group_add_obj
 336              	.LVL54:
 337              	.L21:
 254:..\..\..\arduinoLCD\test\Pain Drain\libraries\lvgl\src\extra\widgets\tabview/lv_tabview.c ****         lv_obj_set_flex_flow(cont, LV_FLEX_FLOW_ROW);
 338              		.loc 1 254 0 is_stmt 1
 339 0110 2C23     		movs	r3, #44
 340 0112 E35C     		ldrb	r3, [r4, r3]
 341 0114 0C22     		movs	r2, #12
 342 0116 1A42     		tst	r2, r3
 343 0118 08D0     		beq	.L22
 255:..\..\..\arduinoLCD\test\Pain Drain\libraries\lvgl\src\extra\widgets\tabview/lv_tabview.c ****         lv_obj_set_scroll_snap_x(cont, LV_SCROLL_SNAP_CENTER);
 344              		.loc 1 255 0
 345 011a 0021     		movs	r1, #0
 346 011c 2800     		movs	r0, r5
 347 011e FFF7FEFF 		bl	lv_obj_set_flex_flow
 348              	.LVL55:
 256:..\..\..\arduinoLCD\test\Pain Drain\libraries\lvgl\src\extra\widgets\tabview/lv_tabview.c ****     }
 349              		.loc 1 256 0
 350 0122 0321     		movs	r1, #3
 351 0124 2800     		movs	r0, r5
 352 0126 FFF7FEFF 		bl	lv_obj_set_scroll_snap_x
 353              	.LVL56:
 354 012a 07E0     		b	.L23
 355              	.L22:
 259:..\..\..\arduinoLCD\test\Pain Drain\libraries\lvgl\src\extra\widgets\tabview/lv_tabview.c ****         lv_obj_set_scroll_snap_y(cont, LV_SCROLL_SNAP_CENTER);
 356              		.loc 1 259 0
ARM GAS  C:\Users\haske\AppData\Local\Temp\cc65HANE.s 			page 13


 357 012c 0121     		movs	r1, #1
 358 012e 2800     		movs	r0, r5
 359 0130 FFF7FEFF 		bl	lv_obj_set_flex_flow
 360              	.LVL57:
 260:..\..\..\arduinoLCD\test\Pain Drain\libraries\lvgl\src\extra\widgets\tabview/lv_tabview.c ****     }
 361              		.loc 1 260 0
 362 0134 0321     		movs	r1, #3
 363 0136 2800     		movs	r0, r5
 364 0138 FFF7FEFF 		bl	lv_obj_set_scroll_snap_y
 365              	.LVL58:
 366              	.L23:
 262:..\..\..\arduinoLCD\test\Pain Drain\libraries\lvgl\src\extra\widgets\tabview/lv_tabview.c ****     lv_obj_clear_flag(cont, LV_OBJ_FLAG_SCROLL_ON_FOCUS);
 367              		.loc 1 262 0
 368 013c 8021     		movs	r1, #128
 369 013e 2800     		movs	r0, r5
 370 0140 FFF7FEFF 		bl	lv_obj_add_flag
 371              	.LVL59:
 263:..\..\..\arduinoLCD\test\Pain Drain\libraries\lvgl\src\extra\widgets\tabview/lv_tabview.c **** }
 372              		.loc 1 263 0
 373 0144 8021     		movs	r1, #128
 374 0146 C900     		lsls	r1, r1, #3
 375 0148 2800     		movs	r0, r5
 376 014a FFF7FEFF 		bl	lv_obj_clear_flag
 377              	.LVL60:
 264:..\..\..\arduinoLCD\test\Pain Drain\libraries\lvgl\src\extra\widgets\tabview/lv_tabview.c **** 
 378              		.loc 1 264 0
 379              		@ sp needed
 380              	.LVL61:
 381              	.LVL62:
 382              	.LVL63:
 383 014e F8BD     		pop	{r3, r4, r5, r6, r7, pc}
 384              	.L26:
 385              		.align	2
 386              	.L25:
 387 0150 00000000 		.word	.LANCHOR0
 388 0154 64200000 		.word	8292
 389 0158 00000000 		.word	.LC1
 390 015c 00000000 		.word	btns_value_changed_event_cb
 391 0160 00000000 		.word	cont_scroll_end_event_cb
 392              		.cfi_endproc
 393              	.LFE209:
 394              		.size	lv_tabview_constructor, .-lv_tabview_constructor
 395              		.section	.text.lv_tabview_create,"ax",%progbits
 396              		.align	2
 397              		.global	lv_tabview_create
 398              		.code	16
 399              		.thumb_func
 400              		.type	lv_tabview_create, %function
 401              	lv_tabview_create:
 402              	.LFB202:
  57:..\..\..\arduinoLCD\test\Pain Drain\libraries\lvgl\src\extra\widgets\tabview/lv_tabview.c ****     LV_LOG_INFO("begin");
 403              		.loc 1 57 0
 404              		.cfi_startproc
 405              		@ args = 0, pretend = 0, frame = 0
 406              		@ frame_needed = 0, uses_anonymous_args = 0
 407              	.LVL64:
 408 0000 10B5     		push	{r4, lr}
ARM GAS  C:\Users\haske\AppData\Local\Temp\cc65HANE.s 			page 14


 409              		.cfi_def_cfa_offset 8
 410              		.cfi_offset 4, -8
 411              		.cfi_offset 14, -4
  59:..\..\..\arduinoLCD\test\Pain Drain\libraries\lvgl\src\extra\widgets\tabview/lv_tabview.c ****     tabsize_create = tab_size;
 412              		.loc 1 59 0
 413 0002 064B     		ldr	r3, .L28
 414 0004 1970     		strb	r1, [r3]
  60:..\..\..\arduinoLCD\test\Pain Drain\libraries\lvgl\src\extra\widgets\tabview/lv_tabview.c **** 
 415              		.loc 1 60 0
 416 0006 5A80     		strh	r2, [r3, #2]
  62:..\..\..\arduinoLCD\test\Pain Drain\libraries\lvgl\src\extra\widgets\tabview/lv_tabview.c ****     lv_obj_class_init_obj(obj);
 417              		.loc 1 62 0
 418 0008 0100     		movs	r1, r0
 419              	.LVL65:
 420 000a 0548     		ldr	r0, .L28+4
 421              	.LVL66:
 422 000c FFF7FEFF 		bl	lv_obj_class_create_obj
 423              	.LVL67:
 424 0010 0400     		movs	r4, r0
 425              	.LVL68:
  63:..\..\..\arduinoLCD\test\Pain Drain\libraries\lvgl\src\extra\widgets\tabview/lv_tabview.c ****     return obj;
 426              		.loc 1 63 0
 427 0012 FFF7FEFF 		bl	lv_obj_class_init_obj
 428              	.LVL69:
  65:..\..\..\arduinoLCD\test\Pain Drain\libraries\lvgl\src\extra\widgets\tabview/lv_tabview.c **** 
 429              		.loc 1 65 0
 430 0016 2000     		movs	r0, r4
 431              		@ sp needed
 432              	.LVL70:
 433 0018 10BD     		pop	{r4, pc}
 434              	.L29:
 435 001a C046     		.align	2
 436              	.L28:
 437 001c 00000000 		.word	.LANCHOR0
 438 0020 00000000 		.word	.LANCHOR1
 439              		.cfi_endproc
 440              	.LFE202:
 441              		.size	lv_tabview_create, .-lv_tabview_create
 442              		.section	.text.lv_tabview_rename_tab,"ax",%progbits
 443              		.align	2
 444              		.global	lv_tabview_rename_tab
 445              		.code	16
 446              		.thumb_func
 447              		.type	lv_tabview_rename_tab, %function
 448              	lv_tabview_rename_tab:
 449              	.LFB204:
 125:..\..\..\arduinoLCD\test\Pain Drain\libraries\lvgl\src\extra\widgets\tabview/lv_tabview.c ****     LV_ASSERT_OBJ(obj, MY_CLASS);
 450              		.loc 1 125 0
 451              		.cfi_startproc
 452              		@ args = 0, pretend = 0, frame = 0
 453              		@ frame_needed = 0, uses_anonymous_args = 0
 454              	.LVL71:
 455 0000 F8B5     		push	{r3, r4, r5, r6, r7, lr}
 456              		.cfi_def_cfa_offset 24
 457              		.cfi_offset 3, -24
 458              		.cfi_offset 4, -20
 459              		.cfi_offset 5, -16
ARM GAS  C:\Users\haske\AppData\Local\Temp\cc65HANE.s 			page 15


 460              		.cfi_offset 6, -12
 461              		.cfi_offset 7, -8
 462              		.cfi_offset 14, -4
 463 0002 0500     		movs	r5, r0
 464 0004 1600     		movs	r6, r2
 465              	.LVL72:
 129:..\..\..\arduinoLCD\test\Pain Drain\libraries\lvgl\src\extra\widgets\tabview/lv_tabview.c ****     if(tabview->tab_pos & LV_DIR_HOR) id *= 2;
 466              		.loc 1 129 0
 467 0006 038D     		ldrh	r3, [r0, #40]
 468 0008 8B42     		cmp	r3, r1
 469 000a 1AD9     		bls	.L30
 130:..\..\..\arduinoLCD\test\Pain Drain\libraries\lvgl\src\extra\widgets\tabview/lv_tabview.c **** 
 470              		.loc 1 130 0
 471 000c 2C23     		movs	r3, #44
 472 000e C35C     		ldrb	r3, [r0, r3]
 473 0010 9B07     		lsls	r3, r3, #30
 474 0012 00D0     		beq	.L32
 130:..\..\..\arduinoLCD\test\Pain Drain\libraries\lvgl\src\extra\widgets\tabview/lv_tabview.c **** 
 475              		.loc 1 130 0 is_stmt 0 discriminator 1
 476 0014 4900     		lsls	r1, r1, #1
 477              	.LVL73:
 478              	.L32:
 132:..\..\..\arduinoLCD\test\Pain Drain\libraries\lvgl\src\extra\widgets\tabview/lv_tabview.c ****     tabview->map[id] = lv_mem_alloc(strlen(new_name) + 1);
 479              		.loc 1 132 0 is_stmt 1
 480 0016 8C00     		lsls	r4, r1, #2
 481 0018 6B6A     		ldr	r3, [r5, #36]
 482 001a 1859     		ldr	r0, [r3, r4]
 483              	.LVL74:
 484 001c FFF7FEFF 		bl	lv_mem_free
 485              	.LVL75:
 133:..\..\..\arduinoLCD\test\Pain Drain\libraries\lvgl\src\extra\widgets\tabview/lv_tabview.c ****     strcpy(tabview->map[id], new_name);
 486              		.loc 1 133 0
 487 0020 6B6A     		ldr	r3, [r5, #36]
 488 0022 1F19     		adds	r7, r3, r4
 489 0024 3000     		movs	r0, r6
 490 0026 FFF7FEFF 		bl	strlen
 491              	.LVL76:
 492 002a 0130     		adds	r0, r0, #1
 493 002c FFF7FEFF 		bl	lv_mem_alloc
 494              	.LVL77:
 495 0030 3860     		str	r0, [r7]
 134:..\..\..\arduinoLCD\test\Pain Drain\libraries\lvgl\src\extra\widgets\tabview/lv_tabview.c ****     lv_obj_invalidate(obj);
 496              		.loc 1 134 0
 497 0032 6B6A     		ldr	r3, [r5, #36]
 498 0034 1859     		ldr	r0, [r3, r4]
 499 0036 3100     		movs	r1, r6
 500 0038 FFF7FEFF 		bl	strcpy
 501              	.LVL78:
 135:..\..\..\arduinoLCD\test\Pain Drain\libraries\lvgl\src\extra\widgets\tabview/lv_tabview.c **** }
 502              		.loc 1 135 0
 503 003c 2800     		movs	r0, r5
 504 003e FFF7FEFF 		bl	lv_obj_invalidate
 505              	.LVL79:
 506              	.L30:
 136:..\..\..\arduinoLCD\test\Pain Drain\libraries\lvgl\src\extra\widgets\tabview/lv_tabview.c **** 
 507              		.loc 1 136 0
 508              		@ sp needed
ARM GAS  C:\Users\haske\AppData\Local\Temp\cc65HANE.s 			page 16


 509              	.LVL80:
 510              	.LVL81:
 511 0042 F8BD     		pop	{r3, r4, r5, r6, r7, pc}
 512              		.cfi_endproc
 513              	.LFE204:
 514              		.size	lv_tabview_rename_tab, .-lv_tabview_rename_tab
 515              		.section	.text.lv_tabview_get_tab_act,"ax",%progbits
 516              		.align	2
 517              		.global	lv_tabview_get_tab_act
 518              		.code	16
 519              		.thumb_func
 520              		.type	lv_tabview_get_tab_act, %function
 521              	lv_tabview_get_tab_act:
 522              	.LFB206:
 176:..\..\..\arduinoLCD\test\Pain Drain\libraries\lvgl\src\extra\widgets\tabview/lv_tabview.c ****     LV_ASSERT_OBJ(obj, MY_CLASS);
 523              		.loc 1 176 0
 524              		.cfi_startproc
 525              		@ args = 0, pretend = 0, frame = 0
 526              		@ frame_needed = 0, uses_anonymous_args = 0
 527              		@ link register save eliminated.
 528              	.LVL82:
 179:..\..\..\arduinoLCD\test\Pain Drain\libraries\lvgl\src\extra\widgets\tabview/lv_tabview.c **** }
 529              		.loc 1 179 0
 530 0000 408D     		ldrh	r0, [r0, #42]
 531              	.LVL83:
 180:..\..\..\arduinoLCD\test\Pain Drain\libraries\lvgl\src\extra\widgets\tabview/lv_tabview.c **** 
 532              		.loc 1 180 0
 533              		@ sp needed
 534 0002 7047     		bx	lr
 535              		.cfi_endproc
 536              	.LFE206:
 537              		.size	lv_tabview_get_tab_act, .-lv_tabview_get_tab_act
 538              		.section	.text.lv_tabview_get_content,"ax",%progbits
 539              		.align	2
 540              		.global	lv_tabview_get_content
 541              		.code	16
 542              		.thumb_func
 543              		.type	lv_tabview_get_content, %function
 544              	lv_tabview_get_content:
 545              	.LFB207:
 183:..\..\..\arduinoLCD\test\Pain Drain\libraries\lvgl\src\extra\widgets\tabview/lv_tabview.c ****     return lv_obj_get_child(tv, 1);
 546              		.loc 1 183 0
 547              		.cfi_startproc
 548              		@ args = 0, pretend = 0, frame = 0
 549              		@ frame_needed = 0, uses_anonymous_args = 0
 550              	.LVL84:
 551 0000 10B5     		push	{r4, lr}
 552              		.cfi_def_cfa_offset 8
 553              		.cfi_offset 4, -8
 554              		.cfi_offset 14, -4
 184:..\..\..\arduinoLCD\test\Pain Drain\libraries\lvgl\src\extra\widgets\tabview/lv_tabview.c **** }
 555              		.loc 1 184 0
 556 0002 0121     		movs	r1, #1
 557 0004 FFF7FEFF 		bl	lv_obj_get_child
 558              	.LVL85:
 185:..\..\..\arduinoLCD\test\Pain Drain\libraries\lvgl\src\extra\widgets\tabview/lv_tabview.c **** 
 559              		.loc 1 185 0
ARM GAS  C:\Users\haske\AppData\Local\Temp\cc65HANE.s 			page 17


 560              		@ sp needed
 561 0008 10BD     		pop	{r4, pc}
 562              		.cfi_endproc
 563              	.LFE207:
 564              		.size	lv_tabview_get_content, .-lv_tabview_get_content
 565 000a C046     		.section	.text.lv_tabview_get_tab_btns,"ax",%progbits
 566              		.align	2
 567              		.global	lv_tabview_get_tab_btns
 568              		.code	16
 569              		.thumb_func
 570              		.type	lv_tabview_get_tab_btns, %function
 571              	lv_tabview_get_tab_btns:
 572              	.LFB208:
 188:..\..\..\arduinoLCD\test\Pain Drain\libraries\lvgl\src\extra\widgets\tabview/lv_tabview.c ****     return lv_obj_get_child(tv, 0);
 573              		.loc 1 188 0
 574              		.cfi_startproc
 575              		@ args = 0, pretend = 0, frame = 0
 576              		@ frame_needed = 0, uses_anonymous_args = 0
 577              	.LVL86:
 578 0000 10B5     		push	{r4, lr}
 579              		.cfi_def_cfa_offset 8
 580              		.cfi_offset 4, -8
 581              		.cfi_offset 14, -4
 189:..\..\..\arduinoLCD\test\Pain Drain\libraries\lvgl\src\extra\widgets\tabview/lv_tabview.c **** }
 582              		.loc 1 189 0
 583 0002 0021     		movs	r1, #0
 584 0004 FFF7FEFF 		bl	lv_obj_get_child
 585              	.LVL87:
 190:..\..\..\arduinoLCD\test\Pain Drain\libraries\lvgl\src\extra\widgets\tabview/lv_tabview.c **** 
 586              		.loc 1 190 0
 587              		@ sp needed
 588 0008 10BD     		pop	{r4, pc}
 589              		.cfi_endproc
 590              	.LFE208:
 591              		.size	lv_tabview_get_tab_btns, .-lv_tabview_get_tab_btns
 592 000a C046     		.section	.text.lv_tabview_set_act,"ax",%progbits
 593              		.align	2
 594              		.global	lv_tabview_set_act
 595              		.code	16
 596              		.thumb_func
 597              		.type	lv_tabview_set_act, %function
 598              	lv_tabview_set_act:
 599              	.LFB205:
 139:..\..\..\arduinoLCD\test\Pain Drain\libraries\lvgl\src\extra\widgets\tabview/lv_tabview.c ****     LV_ASSERT_OBJ(obj, MY_CLASS);
 600              		.loc 1 139 0
 601              		.cfi_startproc
 602              		@ args = 0, pretend = 0, frame = 8
 603              		@ frame_needed = 0, uses_anonymous_args = 0
 604              	.LVL88:
 605 0000 F0B5     		push	{r4, r5, r6, r7, lr}
 606              		.cfi_def_cfa_offset 20
 607              		.cfi_offset 4, -20
 608              		.cfi_offset 5, -16
 609              		.cfi_offset 6, -12
 610              		.cfi_offset 7, -8
 611              		.cfi_offset 14, -4
 612 0002 4F46     		mov	r7, r9
ARM GAS  C:\Users\haske\AppData\Local\Temp\cc65HANE.s 			page 18


 613 0004 80B4     		push	{r7}
 614              		.cfi_def_cfa_offset 24
 615              		.cfi_offset 9, -24
 616 0006 82B0     		sub	sp, sp, #8
 617              		.cfi_def_cfa_offset 32
 618 0008 0400     		movs	r4, r0
 619 000a 0D00     		movs	r5, r1
 620 000c 0192     		str	r2, [sp, #4]
 621              	.LVL89:
 143:..\..\..\arduinoLCD\test\Pain Drain\libraries\lvgl\src\extra\widgets\tabview/lv_tabview.c ****         id = tabview->tab_cnt - 1;
 622              		.loc 1 143 0
 623 000e 038D     		ldrh	r3, [r0, #40]
 624 0010 8B42     		cmp	r3, r1
 625 0012 00D8     		bhi	.L37
 144:..\..\..\arduinoLCD\test\Pain Drain\libraries\lvgl\src\extra\widgets\tabview/lv_tabview.c ****     }
 626              		.loc 1 144 0
 627 0014 5D1E     		subs	r5, r3, #1
 628              	.LVL90:
 629              	.L37:
 148:..\..\..\arduinoLCD\test\Pain Drain\libraries\lvgl\src\extra\widgets\tabview/lv_tabview.c **** 
 630              		.loc 1 148 0
 631 0016 2000     		movs	r0, r4
 632              	.LVL91:
 633 0018 FFF7FEFF 		bl	lv_obj_update_layout
 634              	.LVL92:
 150:..\..\..\arduinoLCD\test\Pain Drain\libraries\lvgl\src\extra\widgets\tabview/lv_tabview.c ****     if(cont == NULL) return;
 635              		.loc 1 150 0
 636 001c 2000     		movs	r0, r4
 637 001e FFF7FEFF 		bl	lv_tabview_get_content
 638              	.LVL93:
 639 0022 061E     		subs	r6, r0, #0
 640              	.LVL94:
 151:..\..\..\arduinoLCD\test\Pain Drain\libraries\lvgl\src\extra\widgets\tabview/lv_tabview.c **** 
 641              		.loc 1 151 0
 642 0024 41D0     		beq	.L36
 153:..\..\..\arduinoLCD\test\Pain Drain\libraries\lvgl\src\extra\widgets\tabview/lv_tabview.c ****         lv_coord_t gap = lv_obj_get_style_pad_column(cont, LV_PART_MAIN);
 643              		.loc 1 153 0
 644 0026 2C23     		movs	r3, #44
 645 0028 E35C     		ldrb	r3, [r4, r3]
 646 002a 0C22     		movs	r2, #12
 647 002c 1A42     		tst	r2, r3
 648 002e 24D0     		beq	.L39
 649              	.LVL95:
 650              	.LBB20:
 651              	.LBB21:
 652              	.LBB22:
 653              		.file 2 "c:\\projects\\paindrain\\arduinolcd\\test\\pain drain\\libraries\\lvgl\\src/core/lv_obj_s
   1:c:\projects\paindrain\arduinolcd\test\pain drain\libraries\lvgl\src/core\lv_obj_style_gen.h **** static inline lv_coord_t lv_obj_get_style_width(const struct _lv_obj_t * obj, uint32_t part)
   2:c:\projects\paindrain\arduinolcd\test\pain drain\libraries\lvgl\src/core\lv_obj_style_gen.h **** {
   3:c:\projects\paindrain\arduinolcd\test\pain drain\libraries\lvgl\src/core\lv_obj_style_gen.h ****     lv_style_value_t v = lv_obj_get_style_prop(obj, part, LV_STYLE_WIDTH);
   4:c:\projects\paindrain\arduinolcd\test\pain drain\libraries\lvgl\src/core\lv_obj_style_gen.h ****     return (lv_coord_t)v.num;
   5:c:\projects\paindrain\arduinolcd\test\pain drain\libraries\lvgl\src/core\lv_obj_style_gen.h **** }
   6:c:\projects\paindrain\arduinolcd\test\pain drain\libraries\lvgl\src/core\lv_obj_style_gen.h **** 
   7:c:\projects\paindrain\arduinolcd\test\pain drain\libraries\lvgl\src/core\lv_obj_style_gen.h **** static inline lv_coord_t lv_obj_get_style_min_width(const struct _lv_obj_t * obj, uint32_t part)
   8:c:\projects\paindrain\arduinolcd\test\pain drain\libraries\lvgl\src/core\lv_obj_style_gen.h **** {
   9:c:\projects\paindrain\arduinolcd\test\pain drain\libraries\lvgl\src/core\lv_obj_style_gen.h ****     lv_style_value_t v = lv_obj_get_style_prop(obj, part, LV_STYLE_MIN_WIDTH);
  10:c:\projects\paindrain\arduinolcd\test\pain drain\libraries\lvgl\src/core\lv_obj_style_gen.h ****     return (lv_coord_t)v.num;
ARM GAS  C:\Users\haske\AppData\Local\Temp\cc65HANE.s 			page 19


  11:c:\projects\paindrain\arduinolcd\test\pain drain\libraries\lvgl\src/core\lv_obj_style_gen.h **** }
  12:c:\projects\paindrain\arduinolcd\test\pain drain\libraries\lvgl\src/core\lv_obj_style_gen.h **** 
  13:c:\projects\paindrain\arduinolcd\test\pain drain\libraries\lvgl\src/core\lv_obj_style_gen.h **** static inline lv_coord_t lv_obj_get_style_max_width(const struct _lv_obj_t * obj, uint32_t part)
  14:c:\projects\paindrain\arduinolcd\test\pain drain\libraries\lvgl\src/core\lv_obj_style_gen.h **** {
  15:c:\projects\paindrain\arduinolcd\test\pain drain\libraries\lvgl\src/core\lv_obj_style_gen.h ****     lv_style_value_t v = lv_obj_get_style_prop(obj, part, LV_STYLE_MAX_WIDTH);
  16:c:\projects\paindrain\arduinolcd\test\pain drain\libraries\lvgl\src/core\lv_obj_style_gen.h ****     return (lv_coord_t)v.num;
  17:c:\projects\paindrain\arduinolcd\test\pain drain\libraries\lvgl\src/core\lv_obj_style_gen.h **** }
  18:c:\projects\paindrain\arduinolcd\test\pain drain\libraries\lvgl\src/core\lv_obj_style_gen.h **** 
  19:c:\projects\paindrain\arduinolcd\test\pain drain\libraries\lvgl\src/core\lv_obj_style_gen.h **** static inline lv_coord_t lv_obj_get_style_height(const struct _lv_obj_t * obj, uint32_t part)
  20:c:\projects\paindrain\arduinolcd\test\pain drain\libraries\lvgl\src/core\lv_obj_style_gen.h **** {
  21:c:\projects\paindrain\arduinolcd\test\pain drain\libraries\lvgl\src/core\lv_obj_style_gen.h ****     lv_style_value_t v = lv_obj_get_style_prop(obj, part, LV_STYLE_HEIGHT);
  22:c:\projects\paindrain\arduinolcd\test\pain drain\libraries\lvgl\src/core\lv_obj_style_gen.h ****     return (lv_coord_t)v.num;
  23:c:\projects\paindrain\arduinolcd\test\pain drain\libraries\lvgl\src/core\lv_obj_style_gen.h **** }
  24:c:\projects\paindrain\arduinolcd\test\pain drain\libraries\lvgl\src/core\lv_obj_style_gen.h **** 
  25:c:\projects\paindrain\arduinolcd\test\pain drain\libraries\lvgl\src/core\lv_obj_style_gen.h **** static inline lv_coord_t lv_obj_get_style_min_height(const struct _lv_obj_t * obj, uint32_t part)
  26:c:\projects\paindrain\arduinolcd\test\pain drain\libraries\lvgl\src/core\lv_obj_style_gen.h **** {
  27:c:\projects\paindrain\arduinolcd\test\pain drain\libraries\lvgl\src/core\lv_obj_style_gen.h ****     lv_style_value_t v = lv_obj_get_style_prop(obj, part, LV_STYLE_MIN_HEIGHT);
  28:c:\projects\paindrain\arduinolcd\test\pain drain\libraries\lvgl\src/core\lv_obj_style_gen.h ****     return (lv_coord_t)v.num;
  29:c:\projects\paindrain\arduinolcd\test\pain drain\libraries\lvgl\src/core\lv_obj_style_gen.h **** }
  30:c:\projects\paindrain\arduinolcd\test\pain drain\libraries\lvgl\src/core\lv_obj_style_gen.h **** 
  31:c:\projects\paindrain\arduinolcd\test\pain drain\libraries\lvgl\src/core\lv_obj_style_gen.h **** static inline lv_coord_t lv_obj_get_style_max_height(const struct _lv_obj_t * obj, uint32_t part)
  32:c:\projects\paindrain\arduinolcd\test\pain drain\libraries\lvgl\src/core\lv_obj_style_gen.h **** {
  33:c:\projects\paindrain\arduinolcd\test\pain drain\libraries\lvgl\src/core\lv_obj_style_gen.h ****     lv_style_value_t v = lv_obj_get_style_prop(obj, part, LV_STYLE_MAX_HEIGHT);
  34:c:\projects\paindrain\arduinolcd\test\pain drain\libraries\lvgl\src/core\lv_obj_style_gen.h ****     return (lv_coord_t)v.num;
  35:c:\projects\paindrain\arduinolcd\test\pain drain\libraries\lvgl\src/core\lv_obj_style_gen.h **** }
  36:c:\projects\paindrain\arduinolcd\test\pain drain\libraries\lvgl\src/core\lv_obj_style_gen.h **** 
  37:c:\projects\paindrain\arduinolcd\test\pain drain\libraries\lvgl\src/core\lv_obj_style_gen.h **** static inline lv_coord_t lv_obj_get_style_x(const struct _lv_obj_t * obj, uint32_t part)
  38:c:\projects\paindrain\arduinolcd\test\pain drain\libraries\lvgl\src/core\lv_obj_style_gen.h **** {
  39:c:\projects\paindrain\arduinolcd\test\pain drain\libraries\lvgl\src/core\lv_obj_style_gen.h ****     lv_style_value_t v = lv_obj_get_style_prop(obj, part, LV_STYLE_X);
  40:c:\projects\paindrain\arduinolcd\test\pain drain\libraries\lvgl\src/core\lv_obj_style_gen.h ****     return (lv_coord_t)v.num;
  41:c:\projects\paindrain\arduinolcd\test\pain drain\libraries\lvgl\src/core\lv_obj_style_gen.h **** }
  42:c:\projects\paindrain\arduinolcd\test\pain drain\libraries\lvgl\src/core\lv_obj_style_gen.h **** 
  43:c:\projects\paindrain\arduinolcd\test\pain drain\libraries\lvgl\src/core\lv_obj_style_gen.h **** static inline lv_coord_t lv_obj_get_style_y(const struct _lv_obj_t * obj, uint32_t part)
  44:c:\projects\paindrain\arduinolcd\test\pain drain\libraries\lvgl\src/core\lv_obj_style_gen.h **** {
  45:c:\projects\paindrain\arduinolcd\test\pain drain\libraries\lvgl\src/core\lv_obj_style_gen.h ****     lv_style_value_t v = lv_obj_get_style_prop(obj, part, LV_STYLE_Y);
  46:c:\projects\paindrain\arduinolcd\test\pain drain\libraries\lvgl\src/core\lv_obj_style_gen.h ****     return (lv_coord_t)v.num;
  47:c:\projects\paindrain\arduinolcd\test\pain drain\libraries\lvgl\src/core\lv_obj_style_gen.h **** }
  48:c:\projects\paindrain\arduinolcd\test\pain drain\libraries\lvgl\src/core\lv_obj_style_gen.h **** 
  49:c:\projects\paindrain\arduinolcd\test\pain drain\libraries\lvgl\src/core\lv_obj_style_gen.h **** static inline lv_align_t lv_obj_get_style_align(const struct _lv_obj_t * obj, uint32_t part)
  50:c:\projects\paindrain\arduinolcd\test\pain drain\libraries\lvgl\src/core\lv_obj_style_gen.h **** {
  51:c:\projects\paindrain\arduinolcd\test\pain drain\libraries\lvgl\src/core\lv_obj_style_gen.h ****     lv_style_value_t v = lv_obj_get_style_prop(obj, part, LV_STYLE_ALIGN);
  52:c:\projects\paindrain\arduinolcd\test\pain drain\libraries\lvgl\src/core\lv_obj_style_gen.h ****     return (lv_align_t)v.num;
  53:c:\projects\paindrain\arduinolcd\test\pain drain\libraries\lvgl\src/core\lv_obj_style_gen.h **** }
  54:c:\projects\paindrain\arduinolcd\test\pain drain\libraries\lvgl\src/core\lv_obj_style_gen.h **** 
  55:c:\projects\paindrain\arduinolcd\test\pain drain\libraries\lvgl\src/core\lv_obj_style_gen.h **** static inline lv_coord_t lv_obj_get_style_transform_width(const struct _lv_obj_t * obj, uint32_t pa
  56:c:\projects\paindrain\arduinolcd\test\pain drain\libraries\lvgl\src/core\lv_obj_style_gen.h **** {
  57:c:\projects\paindrain\arduinolcd\test\pain drain\libraries\lvgl\src/core\lv_obj_style_gen.h ****     lv_style_value_t v = lv_obj_get_style_prop(obj, part, LV_STYLE_TRANSFORM_WIDTH);
  58:c:\projects\paindrain\arduinolcd\test\pain drain\libraries\lvgl\src/core\lv_obj_style_gen.h ****     return (lv_coord_t)v.num;
  59:c:\projects\paindrain\arduinolcd\test\pain drain\libraries\lvgl\src/core\lv_obj_style_gen.h **** }
  60:c:\projects\paindrain\arduinolcd\test\pain drain\libraries\lvgl\src/core\lv_obj_style_gen.h **** 
  61:c:\projects\paindrain\arduinolcd\test\pain drain\libraries\lvgl\src/core\lv_obj_style_gen.h **** static inline lv_coord_t lv_obj_get_style_transform_height(const struct _lv_obj_t * obj, uint32_t p
  62:c:\projects\paindrain\arduinolcd\test\pain drain\libraries\lvgl\src/core\lv_obj_style_gen.h **** {
  63:c:\projects\paindrain\arduinolcd\test\pain drain\libraries\lvgl\src/core\lv_obj_style_gen.h ****     lv_style_value_t v = lv_obj_get_style_prop(obj, part, LV_STYLE_TRANSFORM_HEIGHT);
  64:c:\projects\paindrain\arduinolcd\test\pain drain\libraries\lvgl\src/core\lv_obj_style_gen.h ****     return (lv_coord_t)v.num;
  65:c:\projects\paindrain\arduinolcd\test\pain drain\libraries\lvgl\src/core\lv_obj_style_gen.h **** }
  66:c:\projects\paindrain\arduinolcd\test\pain drain\libraries\lvgl\src/core\lv_obj_style_gen.h **** 
  67:c:\projects\paindrain\arduinolcd\test\pain drain\libraries\lvgl\src/core\lv_obj_style_gen.h **** static inline lv_coord_t lv_obj_get_style_translate_x(const struct _lv_obj_t * obj, uint32_t part)
ARM GAS  C:\Users\haske\AppData\Local\Temp\cc65HANE.s 			page 20


  68:c:\projects\paindrain\arduinolcd\test\pain drain\libraries\lvgl\src/core\lv_obj_style_gen.h **** {
  69:c:\projects\paindrain\arduinolcd\test\pain drain\libraries\lvgl\src/core\lv_obj_style_gen.h ****     lv_style_value_t v = lv_obj_get_style_prop(obj, part, LV_STYLE_TRANSLATE_X);
  70:c:\projects\paindrain\arduinolcd\test\pain drain\libraries\lvgl\src/core\lv_obj_style_gen.h ****     return (lv_coord_t)v.num;
  71:c:\projects\paindrain\arduinolcd\test\pain drain\libraries\lvgl\src/core\lv_obj_style_gen.h **** }
  72:c:\projects\paindrain\arduinolcd\test\pain drain\libraries\lvgl\src/core\lv_obj_style_gen.h **** 
  73:c:\projects\paindrain\arduinolcd\test\pain drain\libraries\lvgl\src/core\lv_obj_style_gen.h **** static inline lv_coord_t lv_obj_get_style_translate_y(const struct _lv_obj_t * obj, uint32_t part)
  74:c:\projects\paindrain\arduinolcd\test\pain drain\libraries\lvgl\src/core\lv_obj_style_gen.h **** {
  75:c:\projects\paindrain\arduinolcd\test\pain drain\libraries\lvgl\src/core\lv_obj_style_gen.h ****     lv_style_value_t v = lv_obj_get_style_prop(obj, part, LV_STYLE_TRANSLATE_Y);
  76:c:\projects\paindrain\arduinolcd\test\pain drain\libraries\lvgl\src/core\lv_obj_style_gen.h ****     return (lv_coord_t)v.num;
  77:c:\projects\paindrain\arduinolcd\test\pain drain\libraries\lvgl\src/core\lv_obj_style_gen.h **** }
  78:c:\projects\paindrain\arduinolcd\test\pain drain\libraries\lvgl\src/core\lv_obj_style_gen.h **** 
  79:c:\projects\paindrain\arduinolcd\test\pain drain\libraries\lvgl\src/core\lv_obj_style_gen.h **** static inline lv_coord_t lv_obj_get_style_transform_zoom(const struct _lv_obj_t * obj, uint32_t par
  80:c:\projects\paindrain\arduinolcd\test\pain drain\libraries\lvgl\src/core\lv_obj_style_gen.h **** {
  81:c:\projects\paindrain\arduinolcd\test\pain drain\libraries\lvgl\src/core\lv_obj_style_gen.h ****     lv_style_value_t v = lv_obj_get_style_prop(obj, part, LV_STYLE_TRANSFORM_ZOOM);
  82:c:\projects\paindrain\arduinolcd\test\pain drain\libraries\lvgl\src/core\lv_obj_style_gen.h ****     return (lv_coord_t)v.num;
  83:c:\projects\paindrain\arduinolcd\test\pain drain\libraries\lvgl\src/core\lv_obj_style_gen.h **** }
  84:c:\projects\paindrain\arduinolcd\test\pain drain\libraries\lvgl\src/core\lv_obj_style_gen.h **** 
  85:c:\projects\paindrain\arduinolcd\test\pain drain\libraries\lvgl\src/core\lv_obj_style_gen.h **** static inline lv_coord_t lv_obj_get_style_transform_angle(const struct _lv_obj_t * obj, uint32_t pa
  86:c:\projects\paindrain\arduinolcd\test\pain drain\libraries\lvgl\src/core\lv_obj_style_gen.h **** {
  87:c:\projects\paindrain\arduinolcd\test\pain drain\libraries\lvgl\src/core\lv_obj_style_gen.h ****     lv_style_value_t v = lv_obj_get_style_prop(obj, part, LV_STYLE_TRANSFORM_ANGLE);
  88:c:\projects\paindrain\arduinolcd\test\pain drain\libraries\lvgl\src/core\lv_obj_style_gen.h ****     return (lv_coord_t)v.num;
  89:c:\projects\paindrain\arduinolcd\test\pain drain\libraries\lvgl\src/core\lv_obj_style_gen.h **** }
  90:c:\projects\paindrain\arduinolcd\test\pain drain\libraries\lvgl\src/core\lv_obj_style_gen.h **** 
  91:c:\projects\paindrain\arduinolcd\test\pain drain\libraries\lvgl\src/core\lv_obj_style_gen.h **** static inline lv_coord_t lv_obj_get_style_transform_pivot_x(const struct _lv_obj_t * obj, uint32_t 
  92:c:\projects\paindrain\arduinolcd\test\pain drain\libraries\lvgl\src/core\lv_obj_style_gen.h **** {
  93:c:\projects\paindrain\arduinolcd\test\pain drain\libraries\lvgl\src/core\lv_obj_style_gen.h ****     lv_style_value_t v = lv_obj_get_style_prop(obj, part, LV_STYLE_TRANSFORM_PIVOT_X);
  94:c:\projects\paindrain\arduinolcd\test\pain drain\libraries\lvgl\src/core\lv_obj_style_gen.h ****     return (lv_coord_t)v.num;
  95:c:\projects\paindrain\arduinolcd\test\pain drain\libraries\lvgl\src/core\lv_obj_style_gen.h **** }
  96:c:\projects\paindrain\arduinolcd\test\pain drain\libraries\lvgl\src/core\lv_obj_style_gen.h **** 
  97:c:\projects\paindrain\arduinolcd\test\pain drain\libraries\lvgl\src/core\lv_obj_style_gen.h **** static inline lv_coord_t lv_obj_get_style_transform_pivot_y(const struct _lv_obj_t * obj, uint32_t 
  98:c:\projects\paindrain\arduinolcd\test\pain drain\libraries\lvgl\src/core\lv_obj_style_gen.h **** {
  99:c:\projects\paindrain\arduinolcd\test\pain drain\libraries\lvgl\src/core\lv_obj_style_gen.h ****     lv_style_value_t v = lv_obj_get_style_prop(obj, part, LV_STYLE_TRANSFORM_PIVOT_Y);
 100:c:\projects\paindrain\arduinolcd\test\pain drain\libraries\lvgl\src/core\lv_obj_style_gen.h ****     return (lv_coord_t)v.num;
 101:c:\projects\paindrain\arduinolcd\test\pain drain\libraries\lvgl\src/core\lv_obj_style_gen.h **** }
 102:c:\projects\paindrain\arduinolcd\test\pain drain\libraries\lvgl\src/core\lv_obj_style_gen.h **** 
 103:c:\projects\paindrain\arduinolcd\test\pain drain\libraries\lvgl\src/core\lv_obj_style_gen.h **** static inline lv_coord_t lv_obj_get_style_pad_top(const struct _lv_obj_t * obj, uint32_t part)
 104:c:\projects\paindrain\arduinolcd\test\pain drain\libraries\lvgl\src/core\lv_obj_style_gen.h **** {
 105:c:\projects\paindrain\arduinolcd\test\pain drain\libraries\lvgl\src/core\lv_obj_style_gen.h ****     lv_style_value_t v = lv_obj_get_style_prop(obj, part, LV_STYLE_PAD_TOP);
 106:c:\projects\paindrain\arduinolcd\test\pain drain\libraries\lvgl\src/core\lv_obj_style_gen.h ****     return (lv_coord_t)v.num;
 107:c:\projects\paindrain\arduinolcd\test\pain drain\libraries\lvgl\src/core\lv_obj_style_gen.h **** }
 108:c:\projects\paindrain\arduinolcd\test\pain drain\libraries\lvgl\src/core\lv_obj_style_gen.h **** 
 109:c:\projects\paindrain\arduinolcd\test\pain drain\libraries\lvgl\src/core\lv_obj_style_gen.h **** static inline lv_coord_t lv_obj_get_style_pad_bottom(const struct _lv_obj_t * obj, uint32_t part)
 110:c:\projects\paindrain\arduinolcd\test\pain drain\libraries\lvgl\src/core\lv_obj_style_gen.h **** {
 111:c:\projects\paindrain\arduinolcd\test\pain drain\libraries\lvgl\src/core\lv_obj_style_gen.h ****     lv_style_value_t v = lv_obj_get_style_prop(obj, part, LV_STYLE_PAD_BOTTOM);
 112:c:\projects\paindrain\arduinolcd\test\pain drain\libraries\lvgl\src/core\lv_obj_style_gen.h ****     return (lv_coord_t)v.num;
 113:c:\projects\paindrain\arduinolcd\test\pain drain\libraries\lvgl\src/core\lv_obj_style_gen.h **** }
 114:c:\projects\paindrain\arduinolcd\test\pain drain\libraries\lvgl\src/core\lv_obj_style_gen.h **** 
 115:c:\projects\paindrain\arduinolcd\test\pain drain\libraries\lvgl\src/core\lv_obj_style_gen.h **** static inline lv_coord_t lv_obj_get_style_pad_left(const struct _lv_obj_t * obj, uint32_t part)
 116:c:\projects\paindrain\arduinolcd\test\pain drain\libraries\lvgl\src/core\lv_obj_style_gen.h **** {
 117:c:\projects\paindrain\arduinolcd\test\pain drain\libraries\lvgl\src/core\lv_obj_style_gen.h ****     lv_style_value_t v = lv_obj_get_style_prop(obj, part, LV_STYLE_PAD_LEFT);
 118:c:\projects\paindrain\arduinolcd\test\pain drain\libraries\lvgl\src/core\lv_obj_style_gen.h ****     return (lv_coord_t)v.num;
 119:c:\projects\paindrain\arduinolcd\test\pain drain\libraries\lvgl\src/core\lv_obj_style_gen.h **** }
 120:c:\projects\paindrain\arduinolcd\test\pain drain\libraries\lvgl\src/core\lv_obj_style_gen.h **** 
 121:c:\projects\paindrain\arduinolcd\test\pain drain\libraries\lvgl\src/core\lv_obj_style_gen.h **** static inline lv_coord_t lv_obj_get_style_pad_right(const struct _lv_obj_t * obj, uint32_t part)
 122:c:\projects\paindrain\arduinolcd\test\pain drain\libraries\lvgl\src/core\lv_obj_style_gen.h **** {
 123:c:\projects\paindrain\arduinolcd\test\pain drain\libraries\lvgl\src/core\lv_obj_style_gen.h ****     lv_style_value_t v = lv_obj_get_style_prop(obj, part, LV_STYLE_PAD_RIGHT);
 124:c:\projects\paindrain\arduinolcd\test\pain drain\libraries\lvgl\src/core\lv_obj_style_gen.h ****     return (lv_coord_t)v.num;
ARM GAS  C:\Users\haske\AppData\Local\Temp\cc65HANE.s 			page 21


 125:c:\projects\paindrain\arduinolcd\test\pain drain\libraries\lvgl\src/core\lv_obj_style_gen.h **** }
 126:c:\projects\paindrain\arduinolcd\test\pain drain\libraries\lvgl\src/core\lv_obj_style_gen.h **** 
 127:c:\projects\paindrain\arduinolcd\test\pain drain\libraries\lvgl\src/core\lv_obj_style_gen.h **** static inline lv_coord_t lv_obj_get_style_pad_row(const struct _lv_obj_t * obj, uint32_t part)
 128:c:\projects\paindrain\arduinolcd\test\pain drain\libraries\lvgl\src/core\lv_obj_style_gen.h **** {
 129:c:\projects\paindrain\arduinolcd\test\pain drain\libraries\lvgl\src/core\lv_obj_style_gen.h ****     lv_style_value_t v = lv_obj_get_style_prop(obj, part, LV_STYLE_PAD_ROW);
 130:c:\projects\paindrain\arduinolcd\test\pain drain\libraries\lvgl\src/core\lv_obj_style_gen.h ****     return (lv_coord_t)v.num;
 131:c:\projects\paindrain\arduinolcd\test\pain drain\libraries\lvgl\src/core\lv_obj_style_gen.h **** }
 132:c:\projects\paindrain\arduinolcd\test\pain drain\libraries\lvgl\src/core\lv_obj_style_gen.h **** 
 133:c:\projects\paindrain\arduinolcd\test\pain drain\libraries\lvgl\src/core\lv_obj_style_gen.h **** static inline lv_coord_t lv_obj_get_style_pad_column(const struct _lv_obj_t * obj, uint32_t part)
 134:c:\projects\paindrain\arduinolcd\test\pain drain\libraries\lvgl\src/core\lv_obj_style_gen.h **** {
 135:c:\projects\paindrain\arduinolcd\test\pain drain\libraries\lvgl\src/core\lv_obj_style_gen.h ****     lv_style_value_t v = lv_obj_get_style_prop(obj, part, LV_STYLE_PAD_COLUMN);
 654              		.loc 2 135 0
 655 0030 0932     		adds	r2, r2, #9
 656 0032 0021     		movs	r1, #0
 657 0034 FFF7FEFF 		bl	lv_obj_get_style_prop
 658              	.LVL96:
 136:c:\projects\paindrain\arduinolcd\test\pain drain\libraries\lvgl\src/core\lv_obj_style_gen.h ****     return (lv_coord_t)v.num;
 659              		.loc 2 136 0
 660 0038 03B2     		sxth	r3, r0
 661 003a 9946     		mov	r9, r3
 662              	.LVL97:
 663              	.LBE22:
 664              	.LBE21:
 155:..\..\..\arduinoLCD\test\Pain Drain\libraries\lvgl\src\extra\widgets\tabview/lv_tabview.c ****         if(lv_obj_get_style_base_dir(obj, LV_PART_MAIN) != LV_BASE_DIR_RTL) {
 665              		.loc 1 155 0
 666 003c 3000     		movs	r0, r6
 667 003e FFF7FEFF 		bl	lv_obj_get_content_width
 668              	.LVL98:
 669 0042 0700     		movs	r7, r0
 670              	.LVL99:
 671              	.LBB23:
 672              	.LBB24:
 137:c:\projects\paindrain\arduinolcd\test\pain drain\libraries\lvgl\src/core\lv_obj_style_gen.h **** }
 138:c:\projects\paindrain\arduinolcd\test\pain drain\libraries\lvgl\src/core\lv_obj_style_gen.h **** 
 139:c:\projects\paindrain\arduinolcd\test\pain drain\libraries\lvgl\src/core\lv_obj_style_gen.h **** static inline lv_color_t lv_obj_get_style_bg_color(const struct _lv_obj_t * obj, uint32_t part)
 140:c:\projects\paindrain\arduinolcd\test\pain drain\libraries\lvgl\src/core\lv_obj_style_gen.h **** {
 141:c:\projects\paindrain\arduinolcd\test\pain drain\libraries\lvgl\src/core\lv_obj_style_gen.h ****     lv_style_value_t v = lv_obj_get_style_prop(obj, part, LV_STYLE_BG_COLOR);
 142:c:\projects\paindrain\arduinolcd\test\pain drain\libraries\lvgl\src/core\lv_obj_style_gen.h ****     return v.color;
 143:c:\projects\paindrain\arduinolcd\test\pain drain\libraries\lvgl\src/core\lv_obj_style_gen.h **** }
 144:c:\projects\paindrain\arduinolcd\test\pain drain\libraries\lvgl\src/core\lv_obj_style_gen.h **** 
 145:c:\projects\paindrain\arduinolcd\test\pain drain\libraries\lvgl\src/core\lv_obj_style_gen.h **** static inline lv_color_t lv_obj_get_style_bg_color_filtered(const struct _lv_obj_t * obj, uint32_t 
 146:c:\projects\paindrain\arduinolcd\test\pain drain\libraries\lvgl\src/core\lv_obj_style_gen.h **** {
 147:c:\projects\paindrain\arduinolcd\test\pain drain\libraries\lvgl\src/core\lv_obj_style_gen.h ****     lv_style_value_t v = _lv_obj_style_apply_color_filter(obj, part, lv_obj_get_style_prop(obj, par
 148:c:\projects\paindrain\arduinolcd\test\pain drain\libraries\lvgl\src/core\lv_obj_style_gen.h ****     return v.color;
 149:c:\projects\paindrain\arduinolcd\test\pain drain\libraries\lvgl\src/core\lv_obj_style_gen.h **** }
 150:c:\projects\paindrain\arduinolcd\test\pain drain\libraries\lvgl\src/core\lv_obj_style_gen.h **** 
 151:c:\projects\paindrain\arduinolcd\test\pain drain\libraries\lvgl\src/core\lv_obj_style_gen.h **** static inline lv_opa_t lv_obj_get_style_bg_opa(const struct _lv_obj_t * obj, uint32_t part)
 152:c:\projects\paindrain\arduinolcd\test\pain drain\libraries\lvgl\src/core\lv_obj_style_gen.h **** {
 153:c:\projects\paindrain\arduinolcd\test\pain drain\libraries\lvgl\src/core\lv_obj_style_gen.h ****     lv_style_value_t v = lv_obj_get_style_prop(obj, part, LV_STYLE_BG_OPA);
 154:c:\projects\paindrain\arduinolcd\test\pain drain\libraries\lvgl\src/core\lv_obj_style_gen.h ****     return (lv_opa_t)v.num;
 155:c:\projects\paindrain\arduinolcd\test\pain drain\libraries\lvgl\src/core\lv_obj_style_gen.h **** }
 156:c:\projects\paindrain\arduinolcd\test\pain drain\libraries\lvgl\src/core\lv_obj_style_gen.h **** 
 157:c:\projects\paindrain\arduinolcd\test\pain drain\libraries\lvgl\src/core\lv_obj_style_gen.h **** static inline lv_color_t lv_obj_get_style_bg_grad_color(const struct _lv_obj_t * obj, uint32_t part
 158:c:\projects\paindrain\arduinolcd\test\pain drain\libraries\lvgl\src/core\lv_obj_style_gen.h **** {
 159:c:\projects\paindrain\arduinolcd\test\pain drain\libraries\lvgl\src/core\lv_obj_style_gen.h ****     lv_style_value_t v = lv_obj_get_style_prop(obj, part, LV_STYLE_BG_GRAD_COLOR);
 160:c:\projects\paindrain\arduinolcd\test\pain drain\libraries\lvgl\src/core\lv_obj_style_gen.h ****     return v.color;
 161:c:\projects\paindrain\arduinolcd\test\pain drain\libraries\lvgl\src/core\lv_obj_style_gen.h **** }
ARM GAS  C:\Users\haske\AppData\Local\Temp\cc65HANE.s 			page 22


 162:c:\projects\paindrain\arduinolcd\test\pain drain\libraries\lvgl\src/core\lv_obj_style_gen.h **** 
 163:c:\projects\paindrain\arduinolcd\test\pain drain\libraries\lvgl\src/core\lv_obj_style_gen.h **** static inline lv_color_t lv_obj_get_style_bg_grad_color_filtered(const struct _lv_obj_t * obj, uint
 164:c:\projects\paindrain\arduinolcd\test\pain drain\libraries\lvgl\src/core\lv_obj_style_gen.h **** {
 165:c:\projects\paindrain\arduinolcd\test\pain drain\libraries\lvgl\src/core\lv_obj_style_gen.h ****     lv_style_value_t v = _lv_obj_style_apply_color_filter(obj, part, lv_obj_get_style_prop(obj, par
 166:c:\projects\paindrain\arduinolcd\test\pain drain\libraries\lvgl\src/core\lv_obj_style_gen.h ****     return v.color;
 167:c:\projects\paindrain\arduinolcd\test\pain drain\libraries\lvgl\src/core\lv_obj_style_gen.h **** }
 168:c:\projects\paindrain\arduinolcd\test\pain drain\libraries\lvgl\src/core\lv_obj_style_gen.h **** 
 169:c:\projects\paindrain\arduinolcd\test\pain drain\libraries\lvgl\src/core\lv_obj_style_gen.h **** static inline lv_grad_dir_t lv_obj_get_style_bg_grad_dir(const struct _lv_obj_t * obj, uint32_t par
 170:c:\projects\paindrain\arduinolcd\test\pain drain\libraries\lvgl\src/core\lv_obj_style_gen.h **** {
 171:c:\projects\paindrain\arduinolcd\test\pain drain\libraries\lvgl\src/core\lv_obj_style_gen.h ****     lv_style_value_t v = lv_obj_get_style_prop(obj, part, LV_STYLE_BG_GRAD_DIR);
 172:c:\projects\paindrain\arduinolcd\test\pain drain\libraries\lvgl\src/core\lv_obj_style_gen.h ****     return (lv_grad_dir_t)v.num;
 173:c:\projects\paindrain\arduinolcd\test\pain drain\libraries\lvgl\src/core\lv_obj_style_gen.h **** }
 174:c:\projects\paindrain\arduinolcd\test\pain drain\libraries\lvgl\src/core\lv_obj_style_gen.h **** 
 175:c:\projects\paindrain\arduinolcd\test\pain drain\libraries\lvgl\src/core\lv_obj_style_gen.h **** static inline lv_coord_t lv_obj_get_style_bg_main_stop(const struct _lv_obj_t * obj, uint32_t part)
 176:c:\projects\paindrain\arduinolcd\test\pain drain\libraries\lvgl\src/core\lv_obj_style_gen.h **** {
 177:c:\projects\paindrain\arduinolcd\test\pain drain\libraries\lvgl\src/core\lv_obj_style_gen.h ****     lv_style_value_t v = lv_obj_get_style_prop(obj, part, LV_STYLE_BG_MAIN_STOP);
 178:c:\projects\paindrain\arduinolcd\test\pain drain\libraries\lvgl\src/core\lv_obj_style_gen.h ****     return (lv_coord_t)v.num;
 179:c:\projects\paindrain\arduinolcd\test\pain drain\libraries\lvgl\src/core\lv_obj_style_gen.h **** }
 180:c:\projects\paindrain\arduinolcd\test\pain drain\libraries\lvgl\src/core\lv_obj_style_gen.h **** 
 181:c:\projects\paindrain\arduinolcd\test\pain drain\libraries\lvgl\src/core\lv_obj_style_gen.h **** static inline lv_coord_t lv_obj_get_style_bg_grad_stop(const struct _lv_obj_t * obj, uint32_t part)
 182:c:\projects\paindrain\arduinolcd\test\pain drain\libraries\lvgl\src/core\lv_obj_style_gen.h **** {
 183:c:\projects\paindrain\arduinolcd\test\pain drain\libraries\lvgl\src/core\lv_obj_style_gen.h ****     lv_style_value_t v = lv_obj_get_style_prop(obj, part, LV_STYLE_BG_GRAD_STOP);
 184:c:\projects\paindrain\arduinolcd\test\pain drain\libraries\lvgl\src/core\lv_obj_style_gen.h ****     return (lv_coord_t)v.num;
 185:c:\projects\paindrain\arduinolcd\test\pain drain\libraries\lvgl\src/core\lv_obj_style_gen.h **** }
 186:c:\projects\paindrain\arduinolcd\test\pain drain\libraries\lvgl\src/core\lv_obj_style_gen.h **** 
 187:c:\projects\paindrain\arduinolcd\test\pain drain\libraries\lvgl\src/core\lv_obj_style_gen.h **** static inline const lv_grad_dsc_t * lv_obj_get_style_bg_grad(const struct _lv_obj_t * obj, uint32_t
 188:c:\projects\paindrain\arduinolcd\test\pain drain\libraries\lvgl\src/core\lv_obj_style_gen.h **** {
 189:c:\projects\paindrain\arduinolcd\test\pain drain\libraries\lvgl\src/core\lv_obj_style_gen.h ****     lv_style_value_t v = lv_obj_get_style_prop(obj, part, LV_STYLE_BG_GRAD);
 190:c:\projects\paindrain\arduinolcd\test\pain drain\libraries\lvgl\src/core\lv_obj_style_gen.h ****     return (const lv_grad_dsc_t *)v.ptr;
 191:c:\projects\paindrain\arduinolcd\test\pain drain\libraries\lvgl\src/core\lv_obj_style_gen.h **** }
 192:c:\projects\paindrain\arduinolcd\test\pain drain\libraries\lvgl\src/core\lv_obj_style_gen.h **** 
 193:c:\projects\paindrain\arduinolcd\test\pain drain\libraries\lvgl\src/core\lv_obj_style_gen.h **** static inline lv_dither_mode_t lv_obj_get_style_bg_dither_mode(const struct _lv_obj_t * obj, uint32
 194:c:\projects\paindrain\arduinolcd\test\pain drain\libraries\lvgl\src/core\lv_obj_style_gen.h **** {
 195:c:\projects\paindrain\arduinolcd\test\pain drain\libraries\lvgl\src/core\lv_obj_style_gen.h ****     lv_style_value_t v = lv_obj_get_style_prop(obj, part, LV_STYLE_BG_DITHER_MODE);
 196:c:\projects\paindrain\arduinolcd\test\pain drain\libraries\lvgl\src/core\lv_obj_style_gen.h ****     return (lv_dither_mode_t)v.num;
 197:c:\projects\paindrain\arduinolcd\test\pain drain\libraries\lvgl\src/core\lv_obj_style_gen.h **** }
 198:c:\projects\paindrain\arduinolcd\test\pain drain\libraries\lvgl\src/core\lv_obj_style_gen.h **** 
 199:c:\projects\paindrain\arduinolcd\test\pain drain\libraries\lvgl\src/core\lv_obj_style_gen.h **** static inline const void * lv_obj_get_style_bg_img_src(const struct _lv_obj_t * obj, uint32_t part)
 200:c:\projects\paindrain\arduinolcd\test\pain drain\libraries\lvgl\src/core\lv_obj_style_gen.h **** {
 201:c:\projects\paindrain\arduinolcd\test\pain drain\libraries\lvgl\src/core\lv_obj_style_gen.h ****     lv_style_value_t v = lv_obj_get_style_prop(obj, part, LV_STYLE_BG_IMG_SRC);
 202:c:\projects\paindrain\arduinolcd\test\pain drain\libraries\lvgl\src/core\lv_obj_style_gen.h ****     return (const void *)v.ptr;
 203:c:\projects\paindrain\arduinolcd\test\pain drain\libraries\lvgl\src/core\lv_obj_style_gen.h **** }
 204:c:\projects\paindrain\arduinolcd\test\pain drain\libraries\lvgl\src/core\lv_obj_style_gen.h **** 
 205:c:\projects\paindrain\arduinolcd\test\pain drain\libraries\lvgl\src/core\lv_obj_style_gen.h **** static inline lv_opa_t lv_obj_get_style_bg_img_opa(const struct _lv_obj_t * obj, uint32_t part)
 206:c:\projects\paindrain\arduinolcd\test\pain drain\libraries\lvgl\src/core\lv_obj_style_gen.h **** {
 207:c:\projects\paindrain\arduinolcd\test\pain drain\libraries\lvgl\src/core\lv_obj_style_gen.h ****     lv_style_value_t v = lv_obj_get_style_prop(obj, part, LV_STYLE_BG_IMG_OPA);
 208:c:\projects\paindrain\arduinolcd\test\pain drain\libraries\lvgl\src/core\lv_obj_style_gen.h ****     return (lv_opa_t)v.num;
 209:c:\projects\paindrain\arduinolcd\test\pain drain\libraries\lvgl\src/core\lv_obj_style_gen.h **** }
 210:c:\projects\paindrain\arduinolcd\test\pain drain\libraries\lvgl\src/core\lv_obj_style_gen.h **** 
 211:c:\projects\paindrain\arduinolcd\test\pain drain\libraries\lvgl\src/core\lv_obj_style_gen.h **** static inline lv_color_t lv_obj_get_style_bg_img_recolor(const struct _lv_obj_t * obj, uint32_t par
 212:c:\projects\paindrain\arduinolcd\test\pain drain\libraries\lvgl\src/core\lv_obj_style_gen.h **** {
 213:c:\projects\paindrain\arduinolcd\test\pain drain\libraries\lvgl\src/core\lv_obj_style_gen.h ****     lv_style_value_t v = lv_obj_get_style_prop(obj, part, LV_STYLE_BG_IMG_RECOLOR);
 214:c:\projects\paindrain\arduinolcd\test\pain drain\libraries\lvgl\src/core\lv_obj_style_gen.h ****     return v.color;
 215:c:\projects\paindrain\arduinolcd\test\pain drain\libraries\lvgl\src/core\lv_obj_style_gen.h **** }
 216:c:\projects\paindrain\arduinolcd\test\pain drain\libraries\lvgl\src/core\lv_obj_style_gen.h **** 
 217:c:\projects\paindrain\arduinolcd\test\pain drain\libraries\lvgl\src/core\lv_obj_style_gen.h **** static inline lv_color_t lv_obj_get_style_bg_img_recolor_filtered(const struct _lv_obj_t * obj, uin
 218:c:\projects\paindrain\arduinolcd\test\pain drain\libraries\lvgl\src/core\lv_obj_style_gen.h **** {
ARM GAS  C:\Users\haske\AppData\Local\Temp\cc65HANE.s 			page 23


 219:c:\projects\paindrain\arduinolcd\test\pain drain\libraries\lvgl\src/core\lv_obj_style_gen.h ****     lv_style_value_t v = _lv_obj_style_apply_color_filter(obj, part, lv_obj_get_style_prop(obj, par
 220:c:\projects\paindrain\arduinolcd\test\pain drain\libraries\lvgl\src/core\lv_obj_style_gen.h ****     return v.color;
 221:c:\projects\paindrain\arduinolcd\test\pain drain\libraries\lvgl\src/core\lv_obj_style_gen.h **** }
 222:c:\projects\paindrain\arduinolcd\test\pain drain\libraries\lvgl\src/core\lv_obj_style_gen.h **** 
 223:c:\projects\paindrain\arduinolcd\test\pain drain\libraries\lvgl\src/core\lv_obj_style_gen.h **** static inline lv_opa_t lv_obj_get_style_bg_img_recolor_opa(const struct _lv_obj_t * obj, uint32_t p
 224:c:\projects\paindrain\arduinolcd\test\pain drain\libraries\lvgl\src/core\lv_obj_style_gen.h **** {
 225:c:\projects\paindrain\arduinolcd\test\pain drain\libraries\lvgl\src/core\lv_obj_style_gen.h ****     lv_style_value_t v = lv_obj_get_style_prop(obj, part, LV_STYLE_BG_IMG_RECOLOR_OPA);
 226:c:\projects\paindrain\arduinolcd\test\pain drain\libraries\lvgl\src/core\lv_obj_style_gen.h ****     return (lv_opa_t)v.num;
 227:c:\projects\paindrain\arduinolcd\test\pain drain\libraries\lvgl\src/core\lv_obj_style_gen.h **** }
 228:c:\projects\paindrain\arduinolcd\test\pain drain\libraries\lvgl\src/core\lv_obj_style_gen.h **** 
 229:c:\projects\paindrain\arduinolcd\test\pain drain\libraries\lvgl\src/core\lv_obj_style_gen.h **** static inline bool lv_obj_get_style_bg_img_tiled(const struct _lv_obj_t * obj, uint32_t part)
 230:c:\projects\paindrain\arduinolcd\test\pain drain\libraries\lvgl\src/core\lv_obj_style_gen.h **** {
 231:c:\projects\paindrain\arduinolcd\test\pain drain\libraries\lvgl\src/core\lv_obj_style_gen.h ****     lv_style_value_t v = lv_obj_get_style_prop(obj, part, LV_STYLE_BG_IMG_TILED);
 232:c:\projects\paindrain\arduinolcd\test\pain drain\libraries\lvgl\src/core\lv_obj_style_gen.h ****     return (bool)v.num;
 233:c:\projects\paindrain\arduinolcd\test\pain drain\libraries\lvgl\src/core\lv_obj_style_gen.h **** }
 234:c:\projects\paindrain\arduinolcd\test\pain drain\libraries\lvgl\src/core\lv_obj_style_gen.h **** 
 235:c:\projects\paindrain\arduinolcd\test\pain drain\libraries\lvgl\src/core\lv_obj_style_gen.h **** static inline lv_color_t lv_obj_get_style_border_color(const struct _lv_obj_t * obj, uint32_t part)
 236:c:\projects\paindrain\arduinolcd\test\pain drain\libraries\lvgl\src/core\lv_obj_style_gen.h **** {
 237:c:\projects\paindrain\arduinolcd\test\pain drain\libraries\lvgl\src/core\lv_obj_style_gen.h ****     lv_style_value_t v = lv_obj_get_style_prop(obj, part, LV_STYLE_BORDER_COLOR);
 238:c:\projects\paindrain\arduinolcd\test\pain drain\libraries\lvgl\src/core\lv_obj_style_gen.h ****     return v.color;
 239:c:\projects\paindrain\arduinolcd\test\pain drain\libraries\lvgl\src/core\lv_obj_style_gen.h **** }
 240:c:\projects\paindrain\arduinolcd\test\pain drain\libraries\lvgl\src/core\lv_obj_style_gen.h **** 
 241:c:\projects\paindrain\arduinolcd\test\pain drain\libraries\lvgl\src/core\lv_obj_style_gen.h **** static inline lv_color_t lv_obj_get_style_border_color_filtered(const struct _lv_obj_t * obj, uint3
 242:c:\projects\paindrain\arduinolcd\test\pain drain\libraries\lvgl\src/core\lv_obj_style_gen.h **** {
 243:c:\projects\paindrain\arduinolcd\test\pain drain\libraries\lvgl\src/core\lv_obj_style_gen.h ****     lv_style_value_t v = _lv_obj_style_apply_color_filter(obj, part, lv_obj_get_style_prop(obj, par
 244:c:\projects\paindrain\arduinolcd\test\pain drain\libraries\lvgl\src/core\lv_obj_style_gen.h ****     return v.color;
 245:c:\projects\paindrain\arduinolcd\test\pain drain\libraries\lvgl\src/core\lv_obj_style_gen.h **** }
 246:c:\projects\paindrain\arduinolcd\test\pain drain\libraries\lvgl\src/core\lv_obj_style_gen.h **** 
 247:c:\projects\paindrain\arduinolcd\test\pain drain\libraries\lvgl\src/core\lv_obj_style_gen.h **** static inline lv_opa_t lv_obj_get_style_border_opa(const struct _lv_obj_t * obj, uint32_t part)
 248:c:\projects\paindrain\arduinolcd\test\pain drain\libraries\lvgl\src/core\lv_obj_style_gen.h **** {
 249:c:\projects\paindrain\arduinolcd\test\pain drain\libraries\lvgl\src/core\lv_obj_style_gen.h ****     lv_style_value_t v = lv_obj_get_style_prop(obj, part, LV_STYLE_BORDER_OPA);
 250:c:\projects\paindrain\arduinolcd\test\pain drain\libraries\lvgl\src/core\lv_obj_style_gen.h ****     return (lv_opa_t)v.num;
 251:c:\projects\paindrain\arduinolcd\test\pain drain\libraries\lvgl\src/core\lv_obj_style_gen.h **** }
 252:c:\projects\paindrain\arduinolcd\test\pain drain\libraries\lvgl\src/core\lv_obj_style_gen.h **** 
 253:c:\projects\paindrain\arduinolcd\test\pain drain\libraries\lvgl\src/core\lv_obj_style_gen.h **** static inline lv_coord_t lv_obj_get_style_border_width(const struct _lv_obj_t * obj, uint32_t part)
 254:c:\projects\paindrain\arduinolcd\test\pain drain\libraries\lvgl\src/core\lv_obj_style_gen.h **** {
 255:c:\projects\paindrain\arduinolcd\test\pain drain\libraries\lvgl\src/core\lv_obj_style_gen.h ****     lv_style_value_t v = lv_obj_get_style_prop(obj, part, LV_STYLE_BORDER_WIDTH);
 256:c:\projects\paindrain\arduinolcd\test\pain drain\libraries\lvgl\src/core\lv_obj_style_gen.h ****     return (lv_coord_t)v.num;
 257:c:\projects\paindrain\arduinolcd\test\pain drain\libraries\lvgl\src/core\lv_obj_style_gen.h **** }
 258:c:\projects\paindrain\arduinolcd\test\pain drain\libraries\lvgl\src/core\lv_obj_style_gen.h **** 
 259:c:\projects\paindrain\arduinolcd\test\pain drain\libraries\lvgl\src/core\lv_obj_style_gen.h **** static inline lv_border_side_t lv_obj_get_style_border_side(const struct _lv_obj_t * obj, uint32_t 
 260:c:\projects\paindrain\arduinolcd\test\pain drain\libraries\lvgl\src/core\lv_obj_style_gen.h **** {
 261:c:\projects\paindrain\arduinolcd\test\pain drain\libraries\lvgl\src/core\lv_obj_style_gen.h ****     lv_style_value_t v = lv_obj_get_style_prop(obj, part, LV_STYLE_BORDER_SIDE);
 262:c:\projects\paindrain\arduinolcd\test\pain drain\libraries\lvgl\src/core\lv_obj_style_gen.h ****     return (lv_border_side_t)v.num;
 263:c:\projects\paindrain\arduinolcd\test\pain drain\libraries\lvgl\src/core\lv_obj_style_gen.h **** }
 264:c:\projects\paindrain\arduinolcd\test\pain drain\libraries\lvgl\src/core\lv_obj_style_gen.h **** 
 265:c:\projects\paindrain\arduinolcd\test\pain drain\libraries\lvgl\src/core\lv_obj_style_gen.h **** static inline bool lv_obj_get_style_border_post(const struct _lv_obj_t * obj, uint32_t part)
 266:c:\projects\paindrain\arduinolcd\test\pain drain\libraries\lvgl\src/core\lv_obj_style_gen.h **** {
 267:c:\projects\paindrain\arduinolcd\test\pain drain\libraries\lvgl\src/core\lv_obj_style_gen.h ****     lv_style_value_t v = lv_obj_get_style_prop(obj, part, LV_STYLE_BORDER_POST);
 268:c:\projects\paindrain\arduinolcd\test\pain drain\libraries\lvgl\src/core\lv_obj_style_gen.h ****     return (bool)v.num;
 269:c:\projects\paindrain\arduinolcd\test\pain drain\libraries\lvgl\src/core\lv_obj_style_gen.h **** }
 270:c:\projects\paindrain\arduinolcd\test\pain drain\libraries\lvgl\src/core\lv_obj_style_gen.h **** 
 271:c:\projects\paindrain\arduinolcd\test\pain drain\libraries\lvgl\src/core\lv_obj_style_gen.h **** static inline lv_coord_t lv_obj_get_style_outline_width(const struct _lv_obj_t * obj, uint32_t part
 272:c:\projects\paindrain\arduinolcd\test\pain drain\libraries\lvgl\src/core\lv_obj_style_gen.h **** {
 273:c:\projects\paindrain\arduinolcd\test\pain drain\libraries\lvgl\src/core\lv_obj_style_gen.h ****     lv_style_value_t v = lv_obj_get_style_prop(obj, part, LV_STYLE_OUTLINE_WIDTH);
 274:c:\projects\paindrain\arduinolcd\test\pain drain\libraries\lvgl\src/core\lv_obj_style_gen.h ****     return (lv_coord_t)v.num;
 275:c:\projects\paindrain\arduinolcd\test\pain drain\libraries\lvgl\src/core\lv_obj_style_gen.h **** }
ARM GAS  C:\Users\haske\AppData\Local\Temp\cc65HANE.s 			page 24


 276:c:\projects\paindrain\arduinolcd\test\pain drain\libraries\lvgl\src/core\lv_obj_style_gen.h **** 
 277:c:\projects\paindrain\arduinolcd\test\pain drain\libraries\lvgl\src/core\lv_obj_style_gen.h **** static inline lv_color_t lv_obj_get_style_outline_color(const struct _lv_obj_t * obj, uint32_t part
 278:c:\projects\paindrain\arduinolcd\test\pain drain\libraries\lvgl\src/core\lv_obj_style_gen.h **** {
 279:c:\projects\paindrain\arduinolcd\test\pain drain\libraries\lvgl\src/core\lv_obj_style_gen.h ****     lv_style_value_t v = lv_obj_get_style_prop(obj, part, LV_STYLE_OUTLINE_COLOR);
 280:c:\projects\paindrain\arduinolcd\test\pain drain\libraries\lvgl\src/core\lv_obj_style_gen.h ****     return v.color;
 281:c:\projects\paindrain\arduinolcd\test\pain drain\libraries\lvgl\src/core\lv_obj_style_gen.h **** }
 282:c:\projects\paindrain\arduinolcd\test\pain drain\libraries\lvgl\src/core\lv_obj_style_gen.h **** 
 283:c:\projects\paindrain\arduinolcd\test\pain drain\libraries\lvgl\src/core\lv_obj_style_gen.h **** static inline lv_color_t lv_obj_get_style_outline_color_filtered(const struct _lv_obj_t * obj, uint
 284:c:\projects\paindrain\arduinolcd\test\pain drain\libraries\lvgl\src/core\lv_obj_style_gen.h **** {
 285:c:\projects\paindrain\arduinolcd\test\pain drain\libraries\lvgl\src/core\lv_obj_style_gen.h ****     lv_style_value_t v = _lv_obj_style_apply_color_filter(obj, part, lv_obj_get_style_prop(obj, par
 286:c:\projects\paindrain\arduinolcd\test\pain drain\libraries\lvgl\src/core\lv_obj_style_gen.h ****     return v.color;
 287:c:\projects\paindrain\arduinolcd\test\pain drain\libraries\lvgl\src/core\lv_obj_style_gen.h **** }
 288:c:\projects\paindrain\arduinolcd\test\pain drain\libraries\lvgl\src/core\lv_obj_style_gen.h **** 
 289:c:\projects\paindrain\arduinolcd\test\pain drain\libraries\lvgl\src/core\lv_obj_style_gen.h **** static inline lv_opa_t lv_obj_get_style_outline_opa(const struct _lv_obj_t * obj, uint32_t part)
 290:c:\projects\paindrain\arduinolcd\test\pain drain\libraries\lvgl\src/core\lv_obj_style_gen.h **** {
 291:c:\projects\paindrain\arduinolcd\test\pain drain\libraries\lvgl\src/core\lv_obj_style_gen.h ****     lv_style_value_t v = lv_obj_get_style_prop(obj, part, LV_STYLE_OUTLINE_OPA);
 292:c:\projects\paindrain\arduinolcd\test\pain drain\libraries\lvgl\src/core\lv_obj_style_gen.h ****     return (lv_opa_t)v.num;
 293:c:\projects\paindrain\arduinolcd\test\pain drain\libraries\lvgl\src/core\lv_obj_style_gen.h **** }
 294:c:\projects\paindrain\arduinolcd\test\pain drain\libraries\lvgl\src/core\lv_obj_style_gen.h **** 
 295:c:\projects\paindrain\arduinolcd\test\pain drain\libraries\lvgl\src/core\lv_obj_style_gen.h **** static inline lv_coord_t lv_obj_get_style_outline_pad(const struct _lv_obj_t * obj, uint32_t part)
 296:c:\projects\paindrain\arduinolcd\test\pain drain\libraries\lvgl\src/core\lv_obj_style_gen.h **** {
 297:c:\projects\paindrain\arduinolcd\test\pain drain\libraries\lvgl\src/core\lv_obj_style_gen.h ****     lv_style_value_t v = lv_obj_get_style_prop(obj, part, LV_STYLE_OUTLINE_PAD);
 298:c:\projects\paindrain\arduinolcd\test\pain drain\libraries\lvgl\src/core\lv_obj_style_gen.h ****     return (lv_coord_t)v.num;
 299:c:\projects\paindrain\arduinolcd\test\pain drain\libraries\lvgl\src/core\lv_obj_style_gen.h **** }
 300:c:\projects\paindrain\arduinolcd\test\pain drain\libraries\lvgl\src/core\lv_obj_style_gen.h **** 
 301:c:\projects\paindrain\arduinolcd\test\pain drain\libraries\lvgl\src/core\lv_obj_style_gen.h **** static inline lv_coord_t lv_obj_get_style_shadow_width(const struct _lv_obj_t * obj, uint32_t part)
 302:c:\projects\paindrain\arduinolcd\test\pain drain\libraries\lvgl\src/core\lv_obj_style_gen.h **** {
 303:c:\projects\paindrain\arduinolcd\test\pain drain\libraries\lvgl\src/core\lv_obj_style_gen.h ****     lv_style_value_t v = lv_obj_get_style_prop(obj, part, LV_STYLE_SHADOW_WIDTH);
 304:c:\projects\paindrain\arduinolcd\test\pain drain\libraries\lvgl\src/core\lv_obj_style_gen.h ****     return (lv_coord_t)v.num;
 305:c:\projects\paindrain\arduinolcd\test\pain drain\libraries\lvgl\src/core\lv_obj_style_gen.h **** }
 306:c:\projects\paindrain\arduinolcd\test\pain drain\libraries\lvgl\src/core\lv_obj_style_gen.h **** 
 307:c:\projects\paindrain\arduinolcd\test\pain drain\libraries\lvgl\src/core\lv_obj_style_gen.h **** static inline lv_coord_t lv_obj_get_style_shadow_ofs_x(const struct _lv_obj_t * obj, uint32_t part)
 308:c:\projects\paindrain\arduinolcd\test\pain drain\libraries\lvgl\src/core\lv_obj_style_gen.h **** {
 309:c:\projects\paindrain\arduinolcd\test\pain drain\libraries\lvgl\src/core\lv_obj_style_gen.h ****     lv_style_value_t v = lv_obj_get_style_prop(obj, part, LV_STYLE_SHADOW_OFS_X);
 310:c:\projects\paindrain\arduinolcd\test\pain drain\libraries\lvgl\src/core\lv_obj_style_gen.h ****     return (lv_coord_t)v.num;
 311:c:\projects\paindrain\arduinolcd\test\pain drain\libraries\lvgl\src/core\lv_obj_style_gen.h **** }
 312:c:\projects\paindrain\arduinolcd\test\pain drain\libraries\lvgl\src/core\lv_obj_style_gen.h **** 
 313:c:\projects\paindrain\arduinolcd\test\pain drain\libraries\lvgl\src/core\lv_obj_style_gen.h **** static inline lv_coord_t lv_obj_get_style_shadow_ofs_y(const struct _lv_obj_t * obj, uint32_t part)
 314:c:\projects\paindrain\arduinolcd\test\pain drain\libraries\lvgl\src/core\lv_obj_style_gen.h **** {
 315:c:\projects\paindrain\arduinolcd\test\pain drain\libraries\lvgl\src/core\lv_obj_style_gen.h ****     lv_style_value_t v = lv_obj_get_style_prop(obj, part, LV_STYLE_SHADOW_OFS_Y);
 316:c:\projects\paindrain\arduinolcd\test\pain drain\libraries\lvgl\src/core\lv_obj_style_gen.h ****     return (lv_coord_t)v.num;
 317:c:\projects\paindrain\arduinolcd\test\pain drain\libraries\lvgl\src/core\lv_obj_style_gen.h **** }
 318:c:\projects\paindrain\arduinolcd\test\pain drain\libraries\lvgl\src/core\lv_obj_style_gen.h **** 
 319:c:\projects\paindrain\arduinolcd\test\pain drain\libraries\lvgl\src/core\lv_obj_style_gen.h **** static inline lv_coord_t lv_obj_get_style_shadow_spread(const struct _lv_obj_t * obj, uint32_t part
 320:c:\projects\paindrain\arduinolcd\test\pain drain\libraries\lvgl\src/core\lv_obj_style_gen.h **** {
 321:c:\projects\paindrain\arduinolcd\test\pain drain\libraries\lvgl\src/core\lv_obj_style_gen.h ****     lv_style_value_t v = lv_obj_get_style_prop(obj, part, LV_STYLE_SHADOW_SPREAD);
 322:c:\projects\paindrain\arduinolcd\test\pain drain\libraries\lvgl\src/core\lv_obj_style_gen.h ****     return (lv_coord_t)v.num;
 323:c:\projects\paindrain\arduinolcd\test\pain drain\libraries\lvgl\src/core\lv_obj_style_gen.h **** }
 324:c:\projects\paindrain\arduinolcd\test\pain drain\libraries\lvgl\src/core\lv_obj_style_gen.h **** 
 325:c:\projects\paindrain\arduinolcd\test\pain drain\libraries\lvgl\src/core\lv_obj_style_gen.h **** static inline lv_color_t lv_obj_get_style_shadow_color(const struct _lv_obj_t * obj, uint32_t part)
 326:c:\projects\paindrain\arduinolcd\test\pain drain\libraries\lvgl\src/core\lv_obj_style_gen.h **** {
 327:c:\projects\paindrain\arduinolcd\test\pain drain\libraries\lvgl\src/core\lv_obj_style_gen.h ****     lv_style_value_t v = lv_obj_get_style_prop(obj, part, LV_STYLE_SHADOW_COLOR);
 328:c:\projects\paindrain\arduinolcd\test\pain drain\libraries\lvgl\src/core\lv_obj_style_gen.h ****     return v.color;
 329:c:\projects\paindrain\arduinolcd\test\pain drain\libraries\lvgl\src/core\lv_obj_style_gen.h **** }
 330:c:\projects\paindrain\arduinolcd\test\pain drain\libraries\lvgl\src/core\lv_obj_style_gen.h **** 
 331:c:\projects\paindrain\arduinolcd\test\pain drain\libraries\lvgl\src/core\lv_obj_style_gen.h **** static inline lv_color_t lv_obj_get_style_shadow_color_filtered(const struct _lv_obj_t * obj, uint3
 332:c:\projects\paindrain\arduinolcd\test\pain drain\libraries\lvgl\src/core\lv_obj_style_gen.h **** {
ARM GAS  C:\Users\haske\AppData\Local\Temp\cc65HANE.s 			page 25


 333:c:\projects\paindrain\arduinolcd\test\pain drain\libraries\lvgl\src/core\lv_obj_style_gen.h ****     lv_style_value_t v = _lv_obj_style_apply_color_filter(obj, part, lv_obj_get_style_prop(obj, par
 334:c:\projects\paindrain\arduinolcd\test\pain drain\libraries\lvgl\src/core\lv_obj_style_gen.h ****     return v.color;
 335:c:\projects\paindrain\arduinolcd\test\pain drain\libraries\lvgl\src/core\lv_obj_style_gen.h **** }
 336:c:\projects\paindrain\arduinolcd\test\pain drain\libraries\lvgl\src/core\lv_obj_style_gen.h **** 
 337:c:\projects\paindrain\arduinolcd\test\pain drain\libraries\lvgl\src/core\lv_obj_style_gen.h **** static inline lv_opa_t lv_obj_get_style_shadow_opa(const struct _lv_obj_t * obj, uint32_t part)
 338:c:\projects\paindrain\arduinolcd\test\pain drain\libraries\lvgl\src/core\lv_obj_style_gen.h **** {
 339:c:\projects\paindrain\arduinolcd\test\pain drain\libraries\lvgl\src/core\lv_obj_style_gen.h ****     lv_style_value_t v = lv_obj_get_style_prop(obj, part, LV_STYLE_SHADOW_OPA);
 340:c:\projects\paindrain\arduinolcd\test\pain drain\libraries\lvgl\src/core\lv_obj_style_gen.h ****     return (lv_opa_t)v.num;
 341:c:\projects\paindrain\arduinolcd\test\pain drain\libraries\lvgl\src/core\lv_obj_style_gen.h **** }
 342:c:\projects\paindrain\arduinolcd\test\pain drain\libraries\lvgl\src/core\lv_obj_style_gen.h **** 
 343:c:\projects\paindrain\arduinolcd\test\pain drain\libraries\lvgl\src/core\lv_obj_style_gen.h **** static inline lv_opa_t lv_obj_get_style_img_opa(const struct _lv_obj_t * obj, uint32_t part)
 344:c:\projects\paindrain\arduinolcd\test\pain drain\libraries\lvgl\src/core\lv_obj_style_gen.h **** {
 345:c:\projects\paindrain\arduinolcd\test\pain drain\libraries\lvgl\src/core\lv_obj_style_gen.h ****     lv_style_value_t v = lv_obj_get_style_prop(obj, part, LV_STYLE_IMG_OPA);
 346:c:\projects\paindrain\arduinolcd\test\pain drain\libraries\lvgl\src/core\lv_obj_style_gen.h ****     return (lv_opa_t)v.num;
 347:c:\projects\paindrain\arduinolcd\test\pain drain\libraries\lvgl\src/core\lv_obj_style_gen.h **** }
 348:c:\projects\paindrain\arduinolcd\test\pain drain\libraries\lvgl\src/core\lv_obj_style_gen.h **** 
 349:c:\projects\paindrain\arduinolcd\test\pain drain\libraries\lvgl\src/core\lv_obj_style_gen.h **** static inline lv_color_t lv_obj_get_style_img_recolor(const struct _lv_obj_t * obj, uint32_t part)
 350:c:\projects\paindrain\arduinolcd\test\pain drain\libraries\lvgl\src/core\lv_obj_style_gen.h **** {
 351:c:\projects\paindrain\arduinolcd\test\pain drain\libraries\lvgl\src/core\lv_obj_style_gen.h ****     lv_style_value_t v = lv_obj_get_style_prop(obj, part, LV_STYLE_IMG_RECOLOR);
 352:c:\projects\paindrain\arduinolcd\test\pain drain\libraries\lvgl\src/core\lv_obj_style_gen.h ****     return v.color;
 353:c:\projects\paindrain\arduinolcd\test\pain drain\libraries\lvgl\src/core\lv_obj_style_gen.h **** }
 354:c:\projects\paindrain\arduinolcd\test\pain drain\libraries\lvgl\src/core\lv_obj_style_gen.h **** 
 355:c:\projects\paindrain\arduinolcd\test\pain drain\libraries\lvgl\src/core\lv_obj_style_gen.h **** static inline lv_color_t lv_obj_get_style_img_recolor_filtered(const struct _lv_obj_t * obj, uint32
 356:c:\projects\paindrain\arduinolcd\test\pain drain\libraries\lvgl\src/core\lv_obj_style_gen.h **** {
 357:c:\projects\paindrain\arduinolcd\test\pain drain\libraries\lvgl\src/core\lv_obj_style_gen.h ****     lv_style_value_t v = _lv_obj_style_apply_color_filter(obj, part, lv_obj_get_style_prop(obj, par
 358:c:\projects\paindrain\arduinolcd\test\pain drain\libraries\lvgl\src/core\lv_obj_style_gen.h ****     return v.color;
 359:c:\projects\paindrain\arduinolcd\test\pain drain\libraries\lvgl\src/core\lv_obj_style_gen.h **** }
 360:c:\projects\paindrain\arduinolcd\test\pain drain\libraries\lvgl\src/core\lv_obj_style_gen.h **** 
 361:c:\projects\paindrain\arduinolcd\test\pain drain\libraries\lvgl\src/core\lv_obj_style_gen.h **** static inline lv_opa_t lv_obj_get_style_img_recolor_opa(const struct _lv_obj_t * obj, uint32_t part
 362:c:\projects\paindrain\arduinolcd\test\pain drain\libraries\lvgl\src/core\lv_obj_style_gen.h **** {
 363:c:\projects\paindrain\arduinolcd\test\pain drain\libraries\lvgl\src/core\lv_obj_style_gen.h ****     lv_style_value_t v = lv_obj_get_style_prop(obj, part, LV_STYLE_IMG_RECOLOR_OPA);
 364:c:\projects\paindrain\arduinolcd\test\pain drain\libraries\lvgl\src/core\lv_obj_style_gen.h ****     return (lv_opa_t)v.num;
 365:c:\projects\paindrain\arduinolcd\test\pain drain\libraries\lvgl\src/core\lv_obj_style_gen.h **** }
 366:c:\projects\paindrain\arduinolcd\test\pain drain\libraries\lvgl\src/core\lv_obj_style_gen.h **** 
 367:c:\projects\paindrain\arduinolcd\test\pain drain\libraries\lvgl\src/core\lv_obj_style_gen.h **** static inline lv_coord_t lv_obj_get_style_line_width(const struct _lv_obj_t * obj, uint32_t part)
 368:c:\projects\paindrain\arduinolcd\test\pain drain\libraries\lvgl\src/core\lv_obj_style_gen.h **** {
 369:c:\projects\paindrain\arduinolcd\test\pain drain\libraries\lvgl\src/core\lv_obj_style_gen.h ****     lv_style_value_t v = lv_obj_get_style_prop(obj, part, LV_STYLE_LINE_WIDTH);
 370:c:\projects\paindrain\arduinolcd\test\pain drain\libraries\lvgl\src/core\lv_obj_style_gen.h ****     return (lv_coord_t)v.num;
 371:c:\projects\paindrain\arduinolcd\test\pain drain\libraries\lvgl\src/core\lv_obj_style_gen.h **** }
 372:c:\projects\paindrain\arduinolcd\test\pain drain\libraries\lvgl\src/core\lv_obj_style_gen.h **** 
 373:c:\projects\paindrain\arduinolcd\test\pain drain\libraries\lvgl\src/core\lv_obj_style_gen.h **** static inline lv_coord_t lv_obj_get_style_line_dash_width(const struct _lv_obj_t * obj, uint32_t pa
 374:c:\projects\paindrain\arduinolcd\test\pain drain\libraries\lvgl\src/core\lv_obj_style_gen.h **** {
 375:c:\projects\paindrain\arduinolcd\test\pain drain\libraries\lvgl\src/core\lv_obj_style_gen.h ****     lv_style_value_t v = lv_obj_get_style_prop(obj, part, LV_STYLE_LINE_DASH_WIDTH);
 376:c:\projects\paindrain\arduinolcd\test\pain drain\libraries\lvgl\src/core\lv_obj_style_gen.h ****     return (lv_coord_t)v.num;
 377:c:\projects\paindrain\arduinolcd\test\pain drain\libraries\lvgl\src/core\lv_obj_style_gen.h **** }
 378:c:\projects\paindrain\arduinolcd\test\pain drain\libraries\lvgl\src/core\lv_obj_style_gen.h **** 
 379:c:\projects\paindrain\arduinolcd\test\pain drain\libraries\lvgl\src/core\lv_obj_style_gen.h **** static inline lv_coord_t lv_obj_get_style_line_dash_gap(const struct _lv_obj_t * obj, uint32_t part
 380:c:\projects\paindrain\arduinolcd\test\pain drain\libraries\lvgl\src/core\lv_obj_style_gen.h **** {
 381:c:\projects\paindrain\arduinolcd\test\pain drain\libraries\lvgl\src/core\lv_obj_style_gen.h ****     lv_style_value_t v = lv_obj_get_style_prop(obj, part, LV_STYLE_LINE_DASH_GAP);
 382:c:\projects\paindrain\arduinolcd\test\pain drain\libraries\lvgl\src/core\lv_obj_style_gen.h ****     return (lv_coord_t)v.num;
 383:c:\projects\paindrain\arduinolcd\test\pain drain\libraries\lvgl\src/core\lv_obj_style_gen.h **** }
 384:c:\projects\paindrain\arduinolcd\test\pain drain\libraries\lvgl\src/core\lv_obj_style_gen.h **** 
 385:c:\projects\paindrain\arduinolcd\test\pain drain\libraries\lvgl\src/core\lv_obj_style_gen.h **** static inline bool lv_obj_get_style_line_rounded(const struct _lv_obj_t * obj, uint32_t part)
 386:c:\projects\paindrain\arduinolcd\test\pain drain\libraries\lvgl\src/core\lv_obj_style_gen.h **** {
 387:c:\projects\paindrain\arduinolcd\test\pain drain\libraries\lvgl\src/core\lv_obj_style_gen.h ****     lv_style_value_t v = lv_obj_get_style_prop(obj, part, LV_STYLE_LINE_ROUNDED);
 388:c:\projects\paindrain\arduinolcd\test\pain drain\libraries\lvgl\src/core\lv_obj_style_gen.h ****     return (bool)v.num;
 389:c:\projects\paindrain\arduinolcd\test\pain drain\libraries\lvgl\src/core\lv_obj_style_gen.h **** }
ARM GAS  C:\Users\haske\AppData\Local\Temp\cc65HANE.s 			page 26


 390:c:\projects\paindrain\arduinolcd\test\pain drain\libraries\lvgl\src/core\lv_obj_style_gen.h **** 
 391:c:\projects\paindrain\arduinolcd\test\pain drain\libraries\lvgl\src/core\lv_obj_style_gen.h **** static inline lv_color_t lv_obj_get_style_line_color(const struct _lv_obj_t * obj, uint32_t part)
 392:c:\projects\paindrain\arduinolcd\test\pain drain\libraries\lvgl\src/core\lv_obj_style_gen.h **** {
 393:c:\projects\paindrain\arduinolcd\test\pain drain\libraries\lvgl\src/core\lv_obj_style_gen.h ****     lv_style_value_t v = lv_obj_get_style_prop(obj, part, LV_STYLE_LINE_COLOR);
 394:c:\projects\paindrain\arduinolcd\test\pain drain\libraries\lvgl\src/core\lv_obj_style_gen.h ****     return v.color;
 395:c:\projects\paindrain\arduinolcd\test\pain drain\libraries\lvgl\src/core\lv_obj_style_gen.h **** }
 396:c:\projects\paindrain\arduinolcd\test\pain drain\libraries\lvgl\src/core\lv_obj_style_gen.h **** 
 397:c:\projects\paindrain\arduinolcd\test\pain drain\libraries\lvgl\src/core\lv_obj_style_gen.h **** static inline lv_color_t lv_obj_get_style_line_color_filtered(const struct _lv_obj_t * obj, uint32_
 398:c:\projects\paindrain\arduinolcd\test\pain drain\libraries\lvgl\src/core\lv_obj_style_gen.h **** {
 399:c:\projects\paindrain\arduinolcd\test\pain drain\libraries\lvgl\src/core\lv_obj_style_gen.h ****     lv_style_value_t v = _lv_obj_style_apply_color_filter(obj, part, lv_obj_get_style_prop(obj, par
 400:c:\projects\paindrain\arduinolcd\test\pain drain\libraries\lvgl\src/core\lv_obj_style_gen.h ****     return v.color;
 401:c:\projects\paindrain\arduinolcd\test\pain drain\libraries\lvgl\src/core\lv_obj_style_gen.h **** }
 402:c:\projects\paindrain\arduinolcd\test\pain drain\libraries\lvgl\src/core\lv_obj_style_gen.h **** 
 403:c:\projects\paindrain\arduinolcd\test\pain drain\libraries\lvgl\src/core\lv_obj_style_gen.h **** static inline lv_opa_t lv_obj_get_style_line_opa(const struct _lv_obj_t * obj, uint32_t part)
 404:c:\projects\paindrain\arduinolcd\test\pain drain\libraries\lvgl\src/core\lv_obj_style_gen.h **** {
 405:c:\projects\paindrain\arduinolcd\test\pain drain\libraries\lvgl\src/core\lv_obj_style_gen.h ****     lv_style_value_t v = lv_obj_get_style_prop(obj, part, LV_STYLE_LINE_OPA);
 406:c:\projects\paindrain\arduinolcd\test\pain drain\libraries\lvgl\src/core\lv_obj_style_gen.h ****     return (lv_opa_t)v.num;
 407:c:\projects\paindrain\arduinolcd\test\pain drain\libraries\lvgl\src/core\lv_obj_style_gen.h **** }
 408:c:\projects\paindrain\arduinolcd\test\pain drain\libraries\lvgl\src/core\lv_obj_style_gen.h **** 
 409:c:\projects\paindrain\arduinolcd\test\pain drain\libraries\lvgl\src/core\lv_obj_style_gen.h **** static inline lv_coord_t lv_obj_get_style_arc_width(const struct _lv_obj_t * obj, uint32_t part)
 410:c:\projects\paindrain\arduinolcd\test\pain drain\libraries\lvgl\src/core\lv_obj_style_gen.h **** {
 411:c:\projects\paindrain\arduinolcd\test\pain drain\libraries\lvgl\src/core\lv_obj_style_gen.h ****     lv_style_value_t v = lv_obj_get_style_prop(obj, part, LV_STYLE_ARC_WIDTH);
 412:c:\projects\paindrain\arduinolcd\test\pain drain\libraries\lvgl\src/core\lv_obj_style_gen.h ****     return (lv_coord_t)v.num;
 413:c:\projects\paindrain\arduinolcd\test\pain drain\libraries\lvgl\src/core\lv_obj_style_gen.h **** }
 414:c:\projects\paindrain\arduinolcd\test\pain drain\libraries\lvgl\src/core\lv_obj_style_gen.h **** 
 415:c:\projects\paindrain\arduinolcd\test\pain drain\libraries\lvgl\src/core\lv_obj_style_gen.h **** static inline bool lv_obj_get_style_arc_rounded(const struct _lv_obj_t * obj, uint32_t part)
 416:c:\projects\paindrain\arduinolcd\test\pain drain\libraries\lvgl\src/core\lv_obj_style_gen.h **** {
 417:c:\projects\paindrain\arduinolcd\test\pain drain\libraries\lvgl\src/core\lv_obj_style_gen.h ****     lv_style_value_t v = lv_obj_get_style_prop(obj, part, LV_STYLE_ARC_ROUNDED);
 418:c:\projects\paindrain\arduinolcd\test\pain drain\libraries\lvgl\src/core\lv_obj_style_gen.h ****     return (bool)v.num;
 419:c:\projects\paindrain\arduinolcd\test\pain drain\libraries\lvgl\src/core\lv_obj_style_gen.h **** }
 420:c:\projects\paindrain\arduinolcd\test\pain drain\libraries\lvgl\src/core\lv_obj_style_gen.h **** 
 421:c:\projects\paindrain\arduinolcd\test\pain drain\libraries\lvgl\src/core\lv_obj_style_gen.h **** static inline lv_color_t lv_obj_get_style_arc_color(const struct _lv_obj_t * obj, uint32_t part)
 422:c:\projects\paindrain\arduinolcd\test\pain drain\libraries\lvgl\src/core\lv_obj_style_gen.h **** {
 423:c:\projects\paindrain\arduinolcd\test\pain drain\libraries\lvgl\src/core\lv_obj_style_gen.h ****     lv_style_value_t v = lv_obj_get_style_prop(obj, part, LV_STYLE_ARC_COLOR);
 424:c:\projects\paindrain\arduinolcd\test\pain drain\libraries\lvgl\src/core\lv_obj_style_gen.h ****     return v.color;
 425:c:\projects\paindrain\arduinolcd\test\pain drain\libraries\lvgl\src/core\lv_obj_style_gen.h **** }
 426:c:\projects\paindrain\arduinolcd\test\pain drain\libraries\lvgl\src/core\lv_obj_style_gen.h **** 
 427:c:\projects\paindrain\arduinolcd\test\pain drain\libraries\lvgl\src/core\lv_obj_style_gen.h **** static inline lv_color_t lv_obj_get_style_arc_color_filtered(const struct _lv_obj_t * obj, uint32_t
 428:c:\projects\paindrain\arduinolcd\test\pain drain\libraries\lvgl\src/core\lv_obj_style_gen.h **** {
 429:c:\projects\paindrain\arduinolcd\test\pain drain\libraries\lvgl\src/core\lv_obj_style_gen.h ****     lv_style_value_t v = _lv_obj_style_apply_color_filter(obj, part, lv_obj_get_style_prop(obj, par
 430:c:\projects\paindrain\arduinolcd\test\pain drain\libraries\lvgl\src/core\lv_obj_style_gen.h ****     return v.color;
 431:c:\projects\paindrain\arduinolcd\test\pain drain\libraries\lvgl\src/core\lv_obj_style_gen.h **** }
 432:c:\projects\paindrain\arduinolcd\test\pain drain\libraries\lvgl\src/core\lv_obj_style_gen.h **** 
 433:c:\projects\paindrain\arduinolcd\test\pain drain\libraries\lvgl\src/core\lv_obj_style_gen.h **** static inline lv_opa_t lv_obj_get_style_arc_opa(const struct _lv_obj_t * obj, uint32_t part)
 434:c:\projects\paindrain\arduinolcd\test\pain drain\libraries\lvgl\src/core\lv_obj_style_gen.h **** {
 435:c:\projects\paindrain\arduinolcd\test\pain drain\libraries\lvgl\src/core\lv_obj_style_gen.h ****     lv_style_value_t v = lv_obj_get_style_prop(obj, part, LV_STYLE_ARC_OPA);
 436:c:\projects\paindrain\arduinolcd\test\pain drain\libraries\lvgl\src/core\lv_obj_style_gen.h ****     return (lv_opa_t)v.num;
 437:c:\projects\paindrain\arduinolcd\test\pain drain\libraries\lvgl\src/core\lv_obj_style_gen.h **** }
 438:c:\projects\paindrain\arduinolcd\test\pain drain\libraries\lvgl\src/core\lv_obj_style_gen.h **** 
 439:c:\projects\paindrain\arduinolcd\test\pain drain\libraries\lvgl\src/core\lv_obj_style_gen.h **** static inline const void * lv_obj_get_style_arc_img_src(const struct _lv_obj_t * obj, uint32_t part
 440:c:\projects\paindrain\arduinolcd\test\pain drain\libraries\lvgl\src/core\lv_obj_style_gen.h **** {
 441:c:\projects\paindrain\arduinolcd\test\pain drain\libraries\lvgl\src/core\lv_obj_style_gen.h ****     lv_style_value_t v = lv_obj_get_style_prop(obj, part, LV_STYLE_ARC_IMG_SRC);
 442:c:\projects\paindrain\arduinolcd\test\pain drain\libraries\lvgl\src/core\lv_obj_style_gen.h ****     return (const void *)v.ptr;
 443:c:\projects\paindrain\arduinolcd\test\pain drain\libraries\lvgl\src/core\lv_obj_style_gen.h **** }
 444:c:\projects\paindrain\arduinolcd\test\pain drain\libraries\lvgl\src/core\lv_obj_style_gen.h **** 
 445:c:\projects\paindrain\arduinolcd\test\pain drain\libraries\lvgl\src/core\lv_obj_style_gen.h **** static inline lv_color_t lv_obj_get_style_text_color(const struct _lv_obj_t * obj, uint32_t part)
 446:c:\projects\paindrain\arduinolcd\test\pain drain\libraries\lvgl\src/core\lv_obj_style_gen.h **** {
ARM GAS  C:\Users\haske\AppData\Local\Temp\cc65HANE.s 			page 27


 447:c:\projects\paindrain\arduinolcd\test\pain drain\libraries\lvgl\src/core\lv_obj_style_gen.h ****     lv_style_value_t v = lv_obj_get_style_prop(obj, part, LV_STYLE_TEXT_COLOR);
 448:c:\projects\paindrain\arduinolcd\test\pain drain\libraries\lvgl\src/core\lv_obj_style_gen.h ****     return v.color;
 449:c:\projects\paindrain\arduinolcd\test\pain drain\libraries\lvgl\src/core\lv_obj_style_gen.h **** }
 450:c:\projects\paindrain\arduinolcd\test\pain drain\libraries\lvgl\src/core\lv_obj_style_gen.h **** 
 451:c:\projects\paindrain\arduinolcd\test\pain drain\libraries\lvgl\src/core\lv_obj_style_gen.h **** static inline lv_color_t lv_obj_get_style_text_color_filtered(const struct _lv_obj_t * obj, uint32_
 452:c:\projects\paindrain\arduinolcd\test\pain drain\libraries\lvgl\src/core\lv_obj_style_gen.h **** {
 453:c:\projects\paindrain\arduinolcd\test\pain drain\libraries\lvgl\src/core\lv_obj_style_gen.h ****     lv_style_value_t v = _lv_obj_style_apply_color_filter(obj, part, lv_obj_get_style_prop(obj, par
 454:c:\projects\paindrain\arduinolcd\test\pain drain\libraries\lvgl\src/core\lv_obj_style_gen.h ****     return v.color;
 455:c:\projects\paindrain\arduinolcd\test\pain drain\libraries\lvgl\src/core\lv_obj_style_gen.h **** }
 456:c:\projects\paindrain\arduinolcd\test\pain drain\libraries\lvgl\src/core\lv_obj_style_gen.h **** 
 457:c:\projects\paindrain\arduinolcd\test\pain drain\libraries\lvgl\src/core\lv_obj_style_gen.h **** static inline lv_opa_t lv_obj_get_style_text_opa(const struct _lv_obj_t * obj, uint32_t part)
 458:c:\projects\paindrain\arduinolcd\test\pain drain\libraries\lvgl\src/core\lv_obj_style_gen.h **** {
 459:c:\projects\paindrain\arduinolcd\test\pain drain\libraries\lvgl\src/core\lv_obj_style_gen.h ****     lv_style_value_t v = lv_obj_get_style_prop(obj, part, LV_STYLE_TEXT_OPA);
 460:c:\projects\paindrain\arduinolcd\test\pain drain\libraries\lvgl\src/core\lv_obj_style_gen.h ****     return (lv_opa_t)v.num;
 461:c:\projects\paindrain\arduinolcd\test\pain drain\libraries\lvgl\src/core\lv_obj_style_gen.h **** }
 462:c:\projects\paindrain\arduinolcd\test\pain drain\libraries\lvgl\src/core\lv_obj_style_gen.h **** 
 463:c:\projects\paindrain\arduinolcd\test\pain drain\libraries\lvgl\src/core\lv_obj_style_gen.h **** static inline const lv_font_t * lv_obj_get_style_text_font(const struct _lv_obj_t * obj, uint32_t p
 464:c:\projects\paindrain\arduinolcd\test\pain drain\libraries\lvgl\src/core\lv_obj_style_gen.h **** {
 465:c:\projects\paindrain\arduinolcd\test\pain drain\libraries\lvgl\src/core\lv_obj_style_gen.h ****     lv_style_value_t v = lv_obj_get_style_prop(obj, part, LV_STYLE_TEXT_FONT);
 466:c:\projects\paindrain\arduinolcd\test\pain drain\libraries\lvgl\src/core\lv_obj_style_gen.h ****     return (const lv_font_t *)v.ptr;
 467:c:\projects\paindrain\arduinolcd\test\pain drain\libraries\lvgl\src/core\lv_obj_style_gen.h **** }
 468:c:\projects\paindrain\arduinolcd\test\pain drain\libraries\lvgl\src/core\lv_obj_style_gen.h **** 
 469:c:\projects\paindrain\arduinolcd\test\pain drain\libraries\lvgl\src/core\lv_obj_style_gen.h **** static inline lv_coord_t lv_obj_get_style_text_letter_space(const struct _lv_obj_t * obj, uint32_t 
 470:c:\projects\paindrain\arduinolcd\test\pain drain\libraries\lvgl\src/core\lv_obj_style_gen.h **** {
 471:c:\projects\paindrain\arduinolcd\test\pain drain\libraries\lvgl\src/core\lv_obj_style_gen.h ****     lv_style_value_t v = lv_obj_get_style_prop(obj, part, LV_STYLE_TEXT_LETTER_SPACE);
 472:c:\projects\paindrain\arduinolcd\test\pain drain\libraries\lvgl\src/core\lv_obj_style_gen.h ****     return (lv_coord_t)v.num;
 473:c:\projects\paindrain\arduinolcd\test\pain drain\libraries\lvgl\src/core\lv_obj_style_gen.h **** }
 474:c:\projects\paindrain\arduinolcd\test\pain drain\libraries\lvgl\src/core\lv_obj_style_gen.h **** 
 475:c:\projects\paindrain\arduinolcd\test\pain drain\libraries\lvgl\src/core\lv_obj_style_gen.h **** static inline lv_coord_t lv_obj_get_style_text_line_space(const struct _lv_obj_t * obj, uint32_t pa
 476:c:\projects\paindrain\arduinolcd\test\pain drain\libraries\lvgl\src/core\lv_obj_style_gen.h **** {
 477:c:\projects\paindrain\arduinolcd\test\pain drain\libraries\lvgl\src/core\lv_obj_style_gen.h ****     lv_style_value_t v = lv_obj_get_style_prop(obj, part, LV_STYLE_TEXT_LINE_SPACE);
 478:c:\projects\paindrain\arduinolcd\test\pain drain\libraries\lvgl\src/core\lv_obj_style_gen.h ****     return (lv_coord_t)v.num;
 479:c:\projects\paindrain\arduinolcd\test\pain drain\libraries\lvgl\src/core\lv_obj_style_gen.h **** }
 480:c:\projects\paindrain\arduinolcd\test\pain drain\libraries\lvgl\src/core\lv_obj_style_gen.h **** 
 481:c:\projects\paindrain\arduinolcd\test\pain drain\libraries\lvgl\src/core\lv_obj_style_gen.h **** static inline lv_text_decor_t lv_obj_get_style_text_decor(const struct _lv_obj_t * obj, uint32_t pa
 482:c:\projects\paindrain\arduinolcd\test\pain drain\libraries\lvgl\src/core\lv_obj_style_gen.h **** {
 483:c:\projects\paindrain\arduinolcd\test\pain drain\libraries\lvgl\src/core\lv_obj_style_gen.h ****     lv_style_value_t v = lv_obj_get_style_prop(obj, part, LV_STYLE_TEXT_DECOR);
 484:c:\projects\paindrain\arduinolcd\test\pain drain\libraries\lvgl\src/core\lv_obj_style_gen.h ****     return (lv_text_decor_t)v.num;
 485:c:\projects\paindrain\arduinolcd\test\pain drain\libraries\lvgl\src/core\lv_obj_style_gen.h **** }
 486:c:\projects\paindrain\arduinolcd\test\pain drain\libraries\lvgl\src/core\lv_obj_style_gen.h **** 
 487:c:\projects\paindrain\arduinolcd\test\pain drain\libraries\lvgl\src/core\lv_obj_style_gen.h **** static inline lv_text_align_t lv_obj_get_style_text_align(const struct _lv_obj_t * obj, uint32_t pa
 488:c:\projects\paindrain\arduinolcd\test\pain drain\libraries\lvgl\src/core\lv_obj_style_gen.h **** {
 489:c:\projects\paindrain\arduinolcd\test\pain drain\libraries\lvgl\src/core\lv_obj_style_gen.h ****     lv_style_value_t v = lv_obj_get_style_prop(obj, part, LV_STYLE_TEXT_ALIGN);
 490:c:\projects\paindrain\arduinolcd\test\pain drain\libraries\lvgl\src/core\lv_obj_style_gen.h ****     return (lv_text_align_t)v.num;
 491:c:\projects\paindrain\arduinolcd\test\pain drain\libraries\lvgl\src/core\lv_obj_style_gen.h **** }
 492:c:\projects\paindrain\arduinolcd\test\pain drain\libraries\lvgl\src/core\lv_obj_style_gen.h **** 
 493:c:\projects\paindrain\arduinolcd\test\pain drain\libraries\lvgl\src/core\lv_obj_style_gen.h **** static inline lv_coord_t lv_obj_get_style_radius(const struct _lv_obj_t * obj, uint32_t part)
 494:c:\projects\paindrain\arduinolcd\test\pain drain\libraries\lvgl\src/core\lv_obj_style_gen.h **** {
 495:c:\projects\paindrain\arduinolcd\test\pain drain\libraries\lvgl\src/core\lv_obj_style_gen.h ****     lv_style_value_t v = lv_obj_get_style_prop(obj, part, LV_STYLE_RADIUS);
 496:c:\projects\paindrain\arduinolcd\test\pain drain\libraries\lvgl\src/core\lv_obj_style_gen.h ****     return (lv_coord_t)v.num;
 497:c:\projects\paindrain\arduinolcd\test\pain drain\libraries\lvgl\src/core\lv_obj_style_gen.h **** }
 498:c:\projects\paindrain\arduinolcd\test\pain drain\libraries\lvgl\src/core\lv_obj_style_gen.h **** 
 499:c:\projects\paindrain\arduinolcd\test\pain drain\libraries\lvgl\src/core\lv_obj_style_gen.h **** static inline bool lv_obj_get_style_clip_corner(const struct _lv_obj_t * obj, uint32_t part)
 500:c:\projects\paindrain\arduinolcd\test\pain drain\libraries\lvgl\src/core\lv_obj_style_gen.h **** {
 501:c:\projects\paindrain\arduinolcd\test\pain drain\libraries\lvgl\src/core\lv_obj_style_gen.h ****     lv_style_value_t v = lv_obj_get_style_prop(obj, part, LV_STYLE_CLIP_CORNER);
 502:c:\projects\paindrain\arduinolcd\test\pain drain\libraries\lvgl\src/core\lv_obj_style_gen.h ****     return (bool)v.num;
 503:c:\projects\paindrain\arduinolcd\test\pain drain\libraries\lvgl\src/core\lv_obj_style_gen.h **** }
ARM GAS  C:\Users\haske\AppData\Local\Temp\cc65HANE.s 			page 28


 504:c:\projects\paindrain\arduinolcd\test\pain drain\libraries\lvgl\src/core\lv_obj_style_gen.h **** 
 505:c:\projects\paindrain\arduinolcd\test\pain drain\libraries\lvgl\src/core\lv_obj_style_gen.h **** static inline lv_opa_t lv_obj_get_style_opa(const struct _lv_obj_t * obj, uint32_t part)
 506:c:\projects\paindrain\arduinolcd\test\pain drain\libraries\lvgl\src/core\lv_obj_style_gen.h **** {
 507:c:\projects\paindrain\arduinolcd\test\pain drain\libraries\lvgl\src/core\lv_obj_style_gen.h ****     lv_style_value_t v = lv_obj_get_style_prop(obj, part, LV_STYLE_OPA);
 508:c:\projects\paindrain\arduinolcd\test\pain drain\libraries\lvgl\src/core\lv_obj_style_gen.h ****     return (lv_opa_t)v.num;
 509:c:\projects\paindrain\arduinolcd\test\pain drain\libraries\lvgl\src/core\lv_obj_style_gen.h **** }
 510:c:\projects\paindrain\arduinolcd\test\pain drain\libraries\lvgl\src/core\lv_obj_style_gen.h **** 
 511:c:\projects\paindrain\arduinolcd\test\pain drain\libraries\lvgl\src/core\lv_obj_style_gen.h **** static inline const lv_color_filter_dsc_t * lv_obj_get_style_color_filter_dsc(const struct _lv_obj_
 512:c:\projects\paindrain\arduinolcd\test\pain drain\libraries\lvgl\src/core\lv_obj_style_gen.h **** {
 513:c:\projects\paindrain\arduinolcd\test\pain drain\libraries\lvgl\src/core\lv_obj_style_gen.h ****     lv_style_value_t v = lv_obj_get_style_prop(obj, part, LV_STYLE_COLOR_FILTER_DSC);
 514:c:\projects\paindrain\arduinolcd\test\pain drain\libraries\lvgl\src/core\lv_obj_style_gen.h ****     return (const lv_color_filter_dsc_t *)v.ptr;
 515:c:\projects\paindrain\arduinolcd\test\pain drain\libraries\lvgl\src/core\lv_obj_style_gen.h **** }
 516:c:\projects\paindrain\arduinolcd\test\pain drain\libraries\lvgl\src/core\lv_obj_style_gen.h **** 
 517:c:\projects\paindrain\arduinolcd\test\pain drain\libraries\lvgl\src/core\lv_obj_style_gen.h **** static inline lv_opa_t lv_obj_get_style_color_filter_opa(const struct _lv_obj_t * obj, uint32_t par
 518:c:\projects\paindrain\arduinolcd\test\pain drain\libraries\lvgl\src/core\lv_obj_style_gen.h **** {
 519:c:\projects\paindrain\arduinolcd\test\pain drain\libraries\lvgl\src/core\lv_obj_style_gen.h ****     lv_style_value_t v = lv_obj_get_style_prop(obj, part, LV_STYLE_COLOR_FILTER_OPA);
 520:c:\projects\paindrain\arduinolcd\test\pain drain\libraries\lvgl\src/core\lv_obj_style_gen.h ****     return (lv_opa_t)v.num;
 521:c:\projects\paindrain\arduinolcd\test\pain drain\libraries\lvgl\src/core\lv_obj_style_gen.h **** }
 522:c:\projects\paindrain\arduinolcd\test\pain drain\libraries\lvgl\src/core\lv_obj_style_gen.h **** 
 523:c:\projects\paindrain\arduinolcd\test\pain drain\libraries\lvgl\src/core\lv_obj_style_gen.h **** static inline const lv_anim_t * lv_obj_get_style_anim(const struct _lv_obj_t * obj, uint32_t part)
 524:c:\projects\paindrain\arduinolcd\test\pain drain\libraries\lvgl\src/core\lv_obj_style_gen.h **** {
 525:c:\projects\paindrain\arduinolcd\test\pain drain\libraries\lvgl\src/core\lv_obj_style_gen.h ****     lv_style_value_t v = lv_obj_get_style_prop(obj, part, LV_STYLE_ANIM);
 526:c:\projects\paindrain\arduinolcd\test\pain drain\libraries\lvgl\src/core\lv_obj_style_gen.h ****     return (const lv_anim_t *)v.ptr;
 527:c:\projects\paindrain\arduinolcd\test\pain drain\libraries\lvgl\src/core\lv_obj_style_gen.h **** }
 528:c:\projects\paindrain\arduinolcd\test\pain drain\libraries\lvgl\src/core\lv_obj_style_gen.h **** 
 529:c:\projects\paindrain\arduinolcd\test\pain drain\libraries\lvgl\src/core\lv_obj_style_gen.h **** static inline uint32_t lv_obj_get_style_anim_time(const struct _lv_obj_t * obj, uint32_t part)
 530:c:\projects\paindrain\arduinolcd\test\pain drain\libraries\lvgl\src/core\lv_obj_style_gen.h **** {
 531:c:\projects\paindrain\arduinolcd\test\pain drain\libraries\lvgl\src/core\lv_obj_style_gen.h ****     lv_style_value_t v = lv_obj_get_style_prop(obj, part, LV_STYLE_ANIM_TIME);
 532:c:\projects\paindrain\arduinolcd\test\pain drain\libraries\lvgl\src/core\lv_obj_style_gen.h ****     return (uint32_t)v.num;
 533:c:\projects\paindrain\arduinolcd\test\pain drain\libraries\lvgl\src/core\lv_obj_style_gen.h **** }
 534:c:\projects\paindrain\arduinolcd\test\pain drain\libraries\lvgl\src/core\lv_obj_style_gen.h **** 
 535:c:\projects\paindrain\arduinolcd\test\pain drain\libraries\lvgl\src/core\lv_obj_style_gen.h **** static inline uint32_t lv_obj_get_style_anim_speed(const struct _lv_obj_t * obj, uint32_t part)
 536:c:\projects\paindrain\arduinolcd\test\pain drain\libraries\lvgl\src/core\lv_obj_style_gen.h **** {
 537:c:\projects\paindrain\arduinolcd\test\pain drain\libraries\lvgl\src/core\lv_obj_style_gen.h ****     lv_style_value_t v = lv_obj_get_style_prop(obj, part, LV_STYLE_ANIM_SPEED);
 538:c:\projects\paindrain\arduinolcd\test\pain drain\libraries\lvgl\src/core\lv_obj_style_gen.h ****     return (uint32_t)v.num;
 539:c:\projects\paindrain\arduinolcd\test\pain drain\libraries\lvgl\src/core\lv_obj_style_gen.h **** }
 540:c:\projects\paindrain\arduinolcd\test\pain drain\libraries\lvgl\src/core\lv_obj_style_gen.h **** 
 541:c:\projects\paindrain\arduinolcd\test\pain drain\libraries\lvgl\src/core\lv_obj_style_gen.h **** static inline const lv_style_transition_dsc_t * lv_obj_get_style_transition(const struct _lv_obj_t 
 542:c:\projects\paindrain\arduinolcd\test\pain drain\libraries\lvgl\src/core\lv_obj_style_gen.h **** {
 543:c:\projects\paindrain\arduinolcd\test\pain drain\libraries\lvgl\src/core\lv_obj_style_gen.h ****     lv_style_value_t v = lv_obj_get_style_prop(obj, part, LV_STYLE_TRANSITION);
 544:c:\projects\paindrain\arduinolcd\test\pain drain\libraries\lvgl\src/core\lv_obj_style_gen.h ****     return (const lv_style_transition_dsc_t *)v.ptr;
 545:c:\projects\paindrain\arduinolcd\test\pain drain\libraries\lvgl\src/core\lv_obj_style_gen.h **** }
 546:c:\projects\paindrain\arduinolcd\test\pain drain\libraries\lvgl\src/core\lv_obj_style_gen.h **** 
 547:c:\projects\paindrain\arduinolcd\test\pain drain\libraries\lvgl\src/core\lv_obj_style_gen.h **** static inline lv_blend_mode_t lv_obj_get_style_blend_mode(const struct _lv_obj_t * obj, uint32_t pa
 548:c:\projects\paindrain\arduinolcd\test\pain drain\libraries\lvgl\src/core\lv_obj_style_gen.h **** {
 549:c:\projects\paindrain\arduinolcd\test\pain drain\libraries\lvgl\src/core\lv_obj_style_gen.h ****     lv_style_value_t v = lv_obj_get_style_prop(obj, part, LV_STYLE_BLEND_MODE);
 550:c:\projects\paindrain\arduinolcd\test\pain drain\libraries\lvgl\src/core\lv_obj_style_gen.h ****     return (lv_blend_mode_t)v.num;
 551:c:\projects\paindrain\arduinolcd\test\pain drain\libraries\lvgl\src/core\lv_obj_style_gen.h **** }
 552:c:\projects\paindrain\arduinolcd\test\pain drain\libraries\lvgl\src/core\lv_obj_style_gen.h **** 
 553:c:\projects\paindrain\arduinolcd\test\pain drain\libraries\lvgl\src/core\lv_obj_style_gen.h **** static inline uint16_t lv_obj_get_style_layout(const struct _lv_obj_t * obj, uint32_t part)
 554:c:\projects\paindrain\arduinolcd\test\pain drain\libraries\lvgl\src/core\lv_obj_style_gen.h **** {
 555:c:\projects\paindrain\arduinolcd\test\pain drain\libraries\lvgl\src/core\lv_obj_style_gen.h ****     lv_style_value_t v = lv_obj_get_style_prop(obj, part, LV_STYLE_LAYOUT);
 556:c:\projects\paindrain\arduinolcd\test\pain drain\libraries\lvgl\src/core\lv_obj_style_gen.h ****     return (uint16_t)v.num;
 557:c:\projects\paindrain\arduinolcd\test\pain drain\libraries\lvgl\src/core\lv_obj_style_gen.h **** }
 558:c:\projects\paindrain\arduinolcd\test\pain drain\libraries\lvgl\src/core\lv_obj_style_gen.h **** 
 559:c:\projects\paindrain\arduinolcd\test\pain drain\libraries\lvgl\src/core\lv_obj_style_gen.h **** static inline lv_base_dir_t lv_obj_get_style_base_dir(const struct _lv_obj_t * obj, uint32_t part)
 560:c:\projects\paindrain\arduinolcd\test\pain drain\libraries\lvgl\src/core\lv_obj_style_gen.h **** {
ARM GAS  C:\Users\haske\AppData\Local\Temp\cc65HANE.s 			page 29


 561:c:\projects\paindrain\arduinolcd\test\pain drain\libraries\lvgl\src/core\lv_obj_style_gen.h ****     lv_style_value_t v = lv_obj_get_style_prop(obj, part, LV_STYLE_BASE_DIR);
 673              		.loc 2 561 0
 674 0044 1622     		movs	r2, #22
 675 0046 0021     		movs	r1, #0
 676 0048 2000     		movs	r0, r4
 677 004a FFF7FEFF 		bl	lv_obj_get_style_prop
 678              	.LVL100:
 562:c:\projects\paindrain\arduinolcd\test\pain drain\libraries\lvgl\src/core\lv_obj_style_gen.h ****     return (lv_base_dir_t)v.num;
 679              		.loc 2 562 0
 680 004e C0B2     		uxtb	r0, r0
 681              	.LVL101:
 682              	.LBE24:
 683              	.LBE23:
 156:..\..\..\arduinoLCD\test\Pain Drain\libraries\lvgl\src\extra\widgets\tabview/lv_tabview.c ****             lv_obj_scroll_to_x(cont, id * (gap + w), anim_en);
 684              		.loc 1 156 0
 685 0050 0128     		cmp	r0, #1
 686 0052 08D0     		beq	.L40
 157:..\..\..\arduinoLCD\test\Pain Drain\libraries\lvgl\src\extra\widgets\tabview/lv_tabview.c ****         }
 687              		.loc 1 157 0
 688 0054 3900     		movs	r1, r7
 689 0056 4944     		add	r1, r1, r9
 690 0058 6943     		muls	r1, r5
 691 005a 09B2     		sxth	r1, r1
 692 005c 019A     		ldr	r2, [sp, #4]
 693 005e 3000     		movs	r0, r6
 694 0060 FFF7FEFF 		bl	lv_obj_scroll_to_x
 695              	.LVL102:
 696 0064 18E0     		b	.L41
 697              	.L40:
 698              	.LBB25:
 160:..\..\..\arduinoLCD\test\Pain Drain\libraries\lvgl\src\extra\widgets\tabview/lv_tabview.c ****             lv_obj_scroll_to_x(cont, (gap + w) * id_rtl, anim_en);
 699              		.loc 1 160 0
 700 0066 6842     		rsbs	r0, r5, #0
 161:..\..\..\arduinoLCD\test\Pain Drain\libraries\lvgl\src\extra\widgets\tabview/lv_tabview.c ****         }
 701              		.loc 1 161 0
 702 0068 3900     		movs	r1, r7
 703 006a 4944     		add	r1, r1, r9
 704 006c 4143     		muls	r1, r0
 705 006e 09B2     		sxth	r1, r1
 706 0070 019A     		ldr	r2, [sp, #4]
 707 0072 3000     		movs	r0, r6
 708 0074 FFF7FEFF 		bl	lv_obj_scroll_to_x
 709              	.LVL103:
 710 0078 0EE0     		b	.L41
 711              	.LVL104:
 712              	.L39:
 713              	.LBE25:
 714              	.LBE20:
 715              	.LBB26:
 716              	.LBB27:
 717              	.LBB28:
 129:c:\projects\paindrain\arduinolcd\test\pain drain\libraries\lvgl\src/core\lv_obj_style_gen.h ****     return (lv_coord_t)v.num;
 718              		.loc 2 129 0
 719 007a 1422     		movs	r2, #20
 720 007c 0021     		movs	r1, #0
 721 007e FFF7FEFF 		bl	lv_obj_get_style_prop
 722              	.LVL105:
ARM GAS  C:\Users\haske\AppData\Local\Temp\cc65HANE.s 			page 30


 130:c:\projects\paindrain\arduinolcd\test\pain drain\libraries\lvgl\src/core\lv_obj_style_gen.h **** }
 723              		.loc 2 130 0
 724 0082 07B2     		sxth	r7, r0
 725              	.LVL106:
 726              	.LBE28:
 727              	.LBE27:
 166:..\..\..\arduinoLCD\test\Pain Drain\libraries\lvgl\src\extra\widgets\tabview/lv_tabview.c ****         lv_obj_scroll_to_y(cont, id * (gap + h), anim_en);
 728              		.loc 1 166 0
 729 0084 3000     		movs	r0, r6
 730 0086 FFF7FEFF 		bl	lv_obj_get_content_height
 731              	.LVL107:
 167:..\..\..\arduinoLCD\test\Pain Drain\libraries\lvgl\src\extra\widgets\tabview/lv_tabview.c ****     }
 732              		.loc 1 167 0
 733 008a 3918     		adds	r1, r7, r0
 734 008c 6943     		muls	r1, r5
 735 008e 09B2     		sxth	r1, r1
 736 0090 019A     		ldr	r2, [sp, #4]
 737 0092 3000     		movs	r0, r6
 738              	.LVL108:
 739 0094 FFF7FEFF 		bl	lv_obj_scroll_to_y
 740              	.LVL109:
 741              	.L41:
 742              	.LBE26:
 170:..\..\..\arduinoLCD\test\Pain Drain\libraries\lvgl\src\extra\widgets\tabview/lv_tabview.c ****     lv_btnmatrix_set_btn_ctrl(btns, id, LV_BTNMATRIX_CTRL_CHECKED);
 743              		.loc 1 170 0
 744 0098 2000     		movs	r0, r4
 745 009a FFF7FEFF 		bl	lv_tabview_get_tab_btns
 746              	.LVL110:
 171:..\..\..\arduinoLCD\test\Pain Drain\libraries\lvgl\src\extra\widgets\tabview/lv_tabview.c ****     tabview->tab_cur = id;
 747              		.loc 1 171 0
 748 009e ADB2     		uxth	r5, r5
 749              	.LVL111:
 750 00a0 8022     		movs	r2, #128
 751 00a2 2900     		movs	r1, r5
 752 00a4 FFF7FEFF 		bl	lv_btnmatrix_set_btn_ctrl
 753              	.LVL112:
 172:..\..\..\arduinoLCD\test\Pain Drain\libraries\lvgl\src\extra\widgets\tabview/lv_tabview.c **** }
 754              		.loc 1 172 0
 755 00a8 6585     		strh	r5, [r4, #42]
 756              	.L36:
 173:..\..\..\arduinoLCD\test\Pain Drain\libraries\lvgl\src\extra\widgets\tabview/lv_tabview.c **** 
 757              		.loc 1 173 0
 758 00aa 02B0     		add	sp, sp, #8
 759              		@ sp needed
 760              	.LVL113:
 761              	.LVL114:
 762 00ac 04BC     		pop	{r2}
 763 00ae 9146     		mov	r9, r2
 764 00b0 F0BD     		pop	{r4, r5, r6, r7, pc}
 765              		.cfi_endproc
 766              	.LFE205:
 767              		.size	lv_tabview_set_act, .-lv_tabview_set_act
 768 00b2 C046     		.section	.text.lv_tabview_event,"ax",%progbits
 769              		.align	2
 770              		.code	16
 771              		.thumb_func
 772              		.type	lv_tabview_event, %function
ARM GAS  C:\Users\haske\AppData\Local\Temp\cc65HANE.s 			page 31


 773              	lv_tabview_event:
 774              	.LFB211:
 289:..\..\..\arduinoLCD\test\Pain Drain\libraries\lvgl\src\extra\widgets\tabview/lv_tabview.c **** 
 290:..\..\..\arduinoLCD\test\Pain Drain\libraries\lvgl\src\extra\widgets\tabview/lv_tabview.c **** static void lv_tabview_event(const lv_obj_class_t * class_p, lv_event_t * e)
 291:..\..\..\arduinoLCD\test\Pain Drain\libraries\lvgl\src\extra\widgets\tabview/lv_tabview.c **** {
 775              		.loc 1 291 0
 776              		.cfi_startproc
 777              		@ args = 0, pretend = 0, frame = 0
 778              		@ frame_needed = 0, uses_anonymous_args = 0
 779              	.LVL115:
 780 0000 70B5     		push	{r4, r5, r6, lr}
 781              		.cfi_def_cfa_offset 16
 782              		.cfi_offset 4, -16
 783              		.cfi_offset 5, -12
 784              		.cfi_offset 6, -8
 785              		.cfi_offset 14, -4
 786 0002 0C00     		movs	r4, r1
 292:..\..\..\arduinoLCD\test\Pain Drain\libraries\lvgl\src\extra\widgets\tabview/lv_tabview.c ****     LV_UNUSED(class_p);
 293:..\..\..\arduinoLCD\test\Pain Drain\libraries\lvgl\src\extra\widgets\tabview/lv_tabview.c ****     lv_res_t res = lv_obj_event_base(&lv_tabview_class, e);
 787              		.loc 1 293 0
 788 0004 0B48     		ldr	r0, .L44
 789              	.LVL116:
 790 0006 FFF7FEFF 		bl	lv_obj_event_base
 791              	.LVL117:
 294:..\..\..\arduinoLCD\test\Pain Drain\libraries\lvgl\src\extra\widgets\tabview/lv_tabview.c ****     if(res != LV_RES_OK) return;
 792              		.loc 1 294 0
 793 000a 0128     		cmp	r0, #1
 794 000c 10D1     		bne	.L42
 295:..\..\..\arduinoLCD\test\Pain Drain\libraries\lvgl\src\extra\widgets\tabview/lv_tabview.c **** 
 296:..\..\..\arduinoLCD\test\Pain Drain\libraries\lvgl\src\extra\widgets\tabview/lv_tabview.c ****     lv_event_code_t code = lv_event_get_code(e);
 795              		.loc 1 296 0
 796 000e 2000     		movs	r0, r4
 797              	.LVL118:
 798 0010 FFF7FEFF 		bl	lv_event_get_code
 799              	.LVL119:
 800 0014 0500     		movs	r5, r0
 801              	.LVL120:
 297:..\..\..\arduinoLCD\test\Pain Drain\libraries\lvgl\src\extra\widgets\tabview/lv_tabview.c ****     lv_obj_t * target = lv_event_get_target(e);
 802              		.loc 1 297 0
 803 0016 2000     		movs	r0, r4
 804 0018 FFF7FEFF 		bl	lv_event_get_target
 805              	.LVL121:
 806 001c 0400     		movs	r4, r0
 807              	.LVL122:
 298:..\..\..\arduinoLCD\test\Pain Drain\libraries\lvgl\src\extra\widgets\tabview/lv_tabview.c **** 
 299:..\..\..\arduinoLCD\test\Pain Drain\libraries\lvgl\src\extra\widgets\tabview/lv_tabview.c ****     if(code == LV_EVENT_SIZE_CHANGED) {
 808              		.loc 1 299 0
 809 001e 292D     		cmp	r5, #41
 810 0020 06D1     		bne	.L42
 300:..\..\..\arduinoLCD\test\Pain Drain\libraries\lvgl\src\extra\widgets\tabview/lv_tabview.c ****         lv_tabview_set_act(target, lv_tabview_get_tab_act(target), LV_ANIM_OFF);
 811              		.loc 1 300 0
 812 0022 FFF7FEFF 		bl	lv_tabview_get_tab_act
 813              	.LVL123:
 814 0026 0100     		movs	r1, r0
 815 0028 0022     		movs	r2, #0
 816 002a 2000     		movs	r0, r4
 817 002c FFF7FEFF 		bl	lv_tabview_set_act
ARM GAS  C:\Users\haske\AppData\Local\Temp\cc65HANE.s 			page 32


 818              	.LVL124:
 819              	.L42:
 301:..\..\..\arduinoLCD\test\Pain Drain\libraries\lvgl\src\extra\widgets\tabview/lv_tabview.c ****     }
 302:..\..\..\arduinoLCD\test\Pain Drain\libraries\lvgl\src\extra\widgets\tabview/lv_tabview.c **** }
 820              		.loc 1 302 0
 821              		@ sp needed
 822 0030 70BD     		pop	{r4, r5, r6, pc}
 823              	.L45:
 824 0032 C046     		.align	2
 825              	.L44:
 826 0034 00000000 		.word	.LANCHOR1
 827              		.cfi_endproc
 828              	.LFE211:
 829              		.size	lv_tabview_event, .-lv_tabview_event
 830              		.global	__aeabi_idiv
 831              		.section	.text.cont_scroll_end_event_cb,"ax",%progbits
 832              		.align	2
 833              		.code	16
 834              		.thumb_func
 835              		.type	cont_scroll_end_event_cb, %function
 836              	cont_scroll_end_event_cb:
 837              	.LFB213:
 303:..\..\..\arduinoLCD\test\Pain Drain\libraries\lvgl\src\extra\widgets\tabview/lv_tabview.c **** 
 304:..\..\..\arduinoLCD\test\Pain Drain\libraries\lvgl\src\extra\widgets\tabview/lv_tabview.c **** 
 305:..\..\..\arduinoLCD\test\Pain Drain\libraries\lvgl\src\extra\widgets\tabview/lv_tabview.c **** static void btns_value_changed_event_cb(lv_event_t * e)
 306:..\..\..\arduinoLCD\test\Pain Drain\libraries\lvgl\src\extra\widgets\tabview/lv_tabview.c **** {
 307:..\..\..\arduinoLCD\test\Pain Drain\libraries\lvgl\src\extra\widgets\tabview/lv_tabview.c ****     lv_obj_t * btns = lv_event_get_target(e);
 308:..\..\..\arduinoLCD\test\Pain Drain\libraries\lvgl\src\extra\widgets\tabview/lv_tabview.c **** 
 309:..\..\..\arduinoLCD\test\Pain Drain\libraries\lvgl\src\extra\widgets\tabview/lv_tabview.c ****     lv_obj_t * tv = lv_obj_get_parent(btns);
 310:..\..\..\arduinoLCD\test\Pain Drain\libraries\lvgl\src\extra\widgets\tabview/lv_tabview.c ****     uint32_t id = lv_btnmatrix_get_selected_btn(btns);
 311:..\..\..\arduinoLCD\test\Pain Drain\libraries\lvgl\src\extra\widgets\tabview/lv_tabview.c ****     lv_tabview_set_act(tv, id, LV_ANIM_ON);
 312:..\..\..\arduinoLCD\test\Pain Drain\libraries\lvgl\src\extra\widgets\tabview/lv_tabview.c **** }
 313:..\..\..\arduinoLCD\test\Pain Drain\libraries\lvgl\src\extra\widgets\tabview/lv_tabview.c **** 
 314:..\..\..\arduinoLCD\test\Pain Drain\libraries\lvgl\src\extra\widgets\tabview/lv_tabview.c **** static void cont_scroll_end_event_cb(lv_event_t * e)
 315:..\..\..\arduinoLCD\test\Pain Drain\libraries\lvgl\src\extra\widgets\tabview/lv_tabview.c **** {
 838              		.loc 1 315 0
 839              		.cfi_startproc
 840              		@ args = 0, pretend = 0, frame = 8
 841              		@ frame_needed = 0, uses_anonymous_args = 0
 842              	.LVL125:
 843 0000 70B5     		push	{r4, r5, r6, lr}
 844              		.cfi_def_cfa_offset 16
 845              		.cfi_offset 4, -16
 846              		.cfi_offset 5, -12
 847              		.cfi_offset 6, -8
 848              		.cfi_offset 14, -4
 849 0002 82B0     		sub	sp, sp, #8
 850              		.cfi_def_cfa_offset 24
 851 0004 0400     		movs	r4, r0
 316:..\..\..\arduinoLCD\test\Pain Drain\libraries\lvgl\src\extra\widgets\tabview/lv_tabview.c ****     lv_obj_t * cont = lv_event_get_target(e);
 852              		.loc 1 316 0
 853 0006 FFF7FEFF 		bl	lv_event_get_target
 854              	.LVL126:
 855 000a 0500     		movs	r5, r0
 856              	.LVL127:
 317:..\..\..\arduinoLCD\test\Pain Drain\libraries\lvgl\src\extra\widgets\tabview/lv_tabview.c ****     lv_event_code_t code = lv_event_get_code(e);
 857              		.loc 1 317 0
ARM GAS  C:\Users\haske\AppData\Local\Temp\cc65HANE.s 			page 33


 858 000c 2000     		movs	r0, r4
 859              	.LVL128:
 860 000e FFF7FEFF 		bl	lv_event_get_code
 861              	.LVL129:
 862 0012 0400     		movs	r4, r0
 863              	.LVL130:
 318:..\..\..\arduinoLCD\test\Pain Drain\libraries\lvgl\src\extra\widgets\tabview/lv_tabview.c **** 
 319:..\..\..\arduinoLCD\test\Pain Drain\libraries\lvgl\src\extra\widgets\tabview/lv_tabview.c ****     lv_obj_t * tv = lv_obj_get_parent(cont);
 864              		.loc 1 319 0
 865 0014 2800     		movs	r0, r5
 866              	.LVL131:
 867 0016 FFF7FEFF 		bl	lv_obj_get_parent
 868              	.LVL132:
 869 001a 0600     		movs	r6, r0
 870              	.LVL133:
 320:..\..\..\arduinoLCD\test\Pain Drain\libraries\lvgl\src\extra\widgets\tabview/lv_tabview.c ****     lv_tabview_t * tv_obj = (lv_tabview_t *)tv;
 321:..\..\..\arduinoLCD\test\Pain Drain\libraries\lvgl\src\extra\widgets\tabview/lv_tabview.c ****     if(code == LV_EVENT_LAYOUT_CHANGED) {
 871              		.loc 1 321 0
 872 001c 2B2C     		cmp	r4, #43
 873 001e 07D1     		bne	.L47
 322:..\..\..\arduinoLCD\test\Pain Drain\libraries\lvgl\src\extra\widgets\tabview/lv_tabview.c ****         lv_tabview_set_act(tv, lv_tabview_get_tab_act(tv), LV_ANIM_OFF);
 874              		.loc 1 322 0
 875 0020 FFF7FEFF 		bl	lv_tabview_get_tab_act
 876              	.LVL134:
 877 0024 0100     		movs	r1, r0
 878 0026 0022     		movs	r2, #0
 879 0028 3000     		movs	r0, r6
 880 002a FFF7FEFF 		bl	lv_tabview_set_act
 881              	.LVL135:
 882 002e 5DE0     		b	.L46
 883              	.LVL136:
 884              	.L47:
 323:..\..\..\arduinoLCD\test\Pain Drain\libraries\lvgl\src\extra\widgets\tabview/lv_tabview.c ****     }
 324:..\..\..\arduinoLCD\test\Pain Drain\libraries\lvgl\src\extra\widgets\tabview/lv_tabview.c ****     else if(code == LV_EVENT_SCROLL_END) {
 885              		.loc 1 324 0
 886 0030 0A2C     		cmp	r4, #10
 887 0032 5BD1     		bne	.L46
 888              	.LBB29:
 325:..\..\..\arduinoLCD\test\Pain Drain\libraries\lvgl\src\extra\widgets\tabview/lv_tabview.c ****         lv_indev_t * indev = lv_indev_get_act();
 889              		.loc 1 325 0
 890 0034 FFF7FEFF 		bl	lv_indev_get_act
 891              	.LVL137:
 326:..\..\..\arduinoLCD\test\Pain Drain\libraries\lvgl\src\extra\widgets\tabview/lv_tabview.c ****         if(indev && indev->proc.state == LV_INDEV_STATE_PRESSED) {
 892              		.loc 1 326 0
 893 0038 0028     		cmp	r0, #0
 894 003a 02D0     		beq	.L49
 895              		.loc 1 326 0 is_stmt 0 discriminator 1
 896 003c 0379     		ldrb	r3, [r0, #4]
 897 003e 012B     		cmp	r3, #1
 898 0040 54D0     		beq	.L46
 899              	.L49:
 327:..\..\..\arduinoLCD\test\Pain Drain\libraries\lvgl\src\extra\widgets\tabview/lv_tabview.c ****             return;
 328:..\..\..\arduinoLCD\test\Pain Drain\libraries\lvgl\src\extra\widgets\tabview/lv_tabview.c ****         }
 329:..\..\..\arduinoLCD\test\Pain Drain\libraries\lvgl\src\extra\widgets\tabview/lv_tabview.c **** 
 330:..\..\..\arduinoLCD\test\Pain Drain\libraries\lvgl\src\extra\widgets\tabview/lv_tabview.c ****         lv_point_t p;
 331:..\..\..\arduinoLCD\test\Pain Drain\libraries\lvgl\src\extra\widgets\tabview/lv_tabview.c ****         lv_obj_get_scroll_end(cont, &p);
 900              		.loc 1 331 0 is_stmt 1
ARM GAS  C:\Users\haske\AppData\Local\Temp\cc65HANE.s 			page 34


 901 0042 01A9     		add	r1, sp, #4
 902 0044 2800     		movs	r0, r5
 903              	.LVL138:
 904 0046 FFF7FEFF 		bl	lv_obj_get_scroll_end
 905              	.LVL139:
 332:..\..\..\arduinoLCD\test\Pain Drain\libraries\lvgl\src\extra\widgets\tabview/lv_tabview.c **** 
 333:..\..\..\arduinoLCD\test\Pain Drain\libraries\lvgl\src\extra\widgets\tabview/lv_tabview.c ****         lv_coord_t t;
 334:..\..\..\arduinoLCD\test\Pain Drain\libraries\lvgl\src\extra\widgets\tabview/lv_tabview.c ****         if((tv_obj->tab_pos & LV_DIR_VER) != 0) {
 906              		.loc 1 334 0
 907 004a 2C23     		movs	r3, #44
 908 004c F35C     		ldrb	r3, [r6, r3]
 909 004e 0C22     		movs	r2, #12
 910 0050 1A42     		tst	r2, r3
 911 0052 25D0     		beq	.L51
 912              	.LBB30:
 335:..\..\..\arduinoLCD\test\Pain Drain\libraries\lvgl\src\extra\widgets\tabview/lv_tabview.c ****             lv_coord_t w = lv_obj_get_content_width(cont);
 913              		.loc 1 335 0
 914 0054 2800     		movs	r0, r5
 915 0056 FFF7FEFF 		bl	lv_obj_get_content_width
 916              	.LVL140:
 917 005a 0400     		movs	r4, r0
 918              	.LVL141:
 919              	.LBB31:
 920              	.LBB32:
 561:c:\projects\paindrain\arduinolcd\test\pain drain\libraries\lvgl\src/core\lv_obj_style_gen.h ****     return (lv_base_dir_t)v.num;
 921              		.loc 2 561 0
 922 005c 1622     		movs	r2, #22
 923 005e 0021     		movs	r1, #0
 924 0060 3000     		movs	r0, r6
 925 0062 FFF7FEFF 		bl	lv_obj_get_style_prop
 926              	.LVL142:
 927              		.loc 2 562 0
 928 0066 C0B2     		uxtb	r0, r0
 929              	.LVL143:
 930              	.LBE32:
 931              	.LBE31:
 336:..\..\..\arduinoLCD\test\Pain Drain\libraries\lvgl\src\extra\widgets\tabview/lv_tabview.c ****             if(lv_obj_get_style_base_dir(tv, LV_PART_MAIN) == LV_BASE_DIR_RTL)  t = -(p.x - w / 2) 
 932              		.loc 1 336 0
 933 0068 0128     		cmp	r0, #1
 934 006a 0CD1     		bne	.L52
 935              		.loc 1 336 0 is_stmt 0 discriminator 1
 936 006c E00F     		lsrs	r0, r4, #31
 937 006e 0019     		adds	r0, r0, r4
 938 0070 4010     		asrs	r0, r0, #1
 939 0072 03B2     		sxth	r3, r0
 940 0074 01AA     		add	r2, sp, #4
 941 0076 0020     		movs	r0, #0
 942 0078 105E     		ldrsh	r0, [r2, r0]
 943 007a 181A     		subs	r0, r3, r0
 944 007c 2100     		movs	r1, r4
 945 007e FFF7FEFF 		bl	__aeabi_idiv
 946              	.LVL144:
 947 0082 04B2     		sxth	r4, r0
 948              	.LVL145:
 949 0084 1BE0     		b	.L53
 950              	.LVL146:
 951              	.L52:
ARM GAS  C:\Users\haske\AppData\Local\Temp\cc65HANE.s 			page 35


 337:..\..\..\arduinoLCD\test\Pain Drain\libraries\lvgl\src\extra\widgets\tabview/lv_tabview.c ****             else t = (p.x + w / 2) / w;
 952              		.loc 1 337 0 is_stmt 1
 953 0086 01AB     		add	r3, sp, #4
 954 0088 0020     		movs	r0, #0
 955 008a 185E     		ldrsh	r0, [r3, r0]
 956 008c E30F     		lsrs	r3, r4, #31
 957 008e 1B19     		adds	r3, r3, r4
 958 0090 5B10     		asrs	r3, r3, #1
 959 0092 1BB2     		sxth	r3, r3
 960 0094 C018     		adds	r0, r0, r3
 961 0096 2100     		movs	r1, r4
 962 0098 FFF7FEFF 		bl	__aeabi_idiv
 963              	.LVL147:
 964 009c 04B2     		sxth	r4, r0
 965              	.LVL148:
 966 009e 0EE0     		b	.L53
 967              	.LVL149:
 968              	.L51:
 969              	.LBE30:
 970              	.LBB33:
 338:..\..\..\arduinoLCD\test\Pain Drain\libraries\lvgl\src\extra\widgets\tabview/lv_tabview.c ****         }
 339:..\..\..\arduinoLCD\test\Pain Drain\libraries\lvgl\src\extra\widgets\tabview/lv_tabview.c ****         else {
 340:..\..\..\arduinoLCD\test\Pain Drain\libraries\lvgl\src\extra\widgets\tabview/lv_tabview.c ****             lv_coord_t h = lv_obj_get_content_height(cont);
 971              		.loc 1 340 0
 972 00a0 2800     		movs	r0, r5
 973 00a2 FFF7FEFF 		bl	lv_obj_get_content_height
 974              	.LVL150:
 975 00a6 0100     		movs	r1, r0
 976              	.LVL151:
 341:..\..\..\arduinoLCD\test\Pain Drain\libraries\lvgl\src\extra\widgets\tabview/lv_tabview.c ****             t = (p.y + h / 2) / h;
 977              		.loc 1 341 0
 978 00a8 01AB     		add	r3, sp, #4
 979 00aa 0220     		movs	r0, #2
 980 00ac 185E     		ldrsh	r0, [r3, r0]
 981 00ae CB0F     		lsrs	r3, r1, #31
 982 00b0 5B18     		adds	r3, r3, r1
 983 00b2 5B10     		asrs	r3, r3, #1
 984 00b4 1BB2     		sxth	r3, r3
 985 00b6 C018     		adds	r0, r0, r3
 986 00b8 FFF7FEFF 		bl	__aeabi_idiv
 987              	.LVL152:
 988 00bc 04B2     		sxth	r4, r0
 989              	.LVL153:
 990              	.L53:
 991              	.LBE33:
 342:..\..\..\arduinoLCD\test\Pain Drain\libraries\lvgl\src\extra\widgets\tabview/lv_tabview.c ****         }
 343:..\..\..\arduinoLCD\test\Pain Drain\libraries\lvgl\src\extra\widgets\tabview/lv_tabview.c **** 
 344:..\..\..\arduinoLCD\test\Pain Drain\libraries\lvgl\src\extra\widgets\tabview/lv_tabview.c ****         if(t < 0) t = 0;
 992              		.loc 1 344 0
 993 00be 002C     		cmp	r4, #0
 994 00c0 00DA     		bge	.L54
 995 00c2 0024     		movs	r4, #0
 996              	.LVL154:
 997              	.L54:
 345:..\..\..\arduinoLCD\test\Pain Drain\libraries\lvgl\src\extra\widgets\tabview/lv_tabview.c ****         bool new_tab = false;
 346:..\..\..\arduinoLCD\test\Pain Drain\libraries\lvgl\src\extra\widgets\tabview/lv_tabview.c ****         if(t != lv_tabview_get_tab_act(tv)) new_tab = true;
 998              		.loc 1 346 0
ARM GAS  C:\Users\haske\AppData\Local\Temp\cc65HANE.s 			page 36


 999 00c4 3000     		movs	r0, r6
 1000 00c6 FFF7FEFF 		bl	lv_tabview_get_tab_act
 1001              	.LVL155:
 1002 00ca 8442     		cmp	r4, r0
 1003 00cc 01D1     		bne	.L58
 345:..\..\..\arduinoLCD\test\Pain Drain\libraries\lvgl\src\extra\widgets\tabview/lv_tabview.c ****         bool new_tab = false;
 1004              		.loc 1 345 0
 1005 00ce 0025     		movs	r5, #0
 1006              	.LVL156:
 1007 00d0 00E0     		b	.L55
 1008              	.LVL157:
 1009              	.L58:
 1010              		.loc 1 346 0
 1011 00d2 0125     		movs	r5, #1
 1012              	.LVL158:
 1013              	.L55:
 347:..\..\..\arduinoLCD\test\Pain Drain\libraries\lvgl\src\extra\widgets\tabview/lv_tabview.c ****         lv_tabview_set_act(tv, t, LV_ANIM_ON);
 1014              		.loc 1 347 0
 1015 00d4 0122     		movs	r2, #1
 1016 00d6 2100     		movs	r1, r4
 1017 00d8 3000     		movs	r0, r6
 1018 00da FFF7FEFF 		bl	lv_tabview_set_act
 1019              	.LVL159:
 348:..\..\..\arduinoLCD\test\Pain Drain\libraries\lvgl\src\extra\widgets\tabview/lv_tabview.c **** 
 349:..\..\..\arduinoLCD\test\Pain Drain\libraries\lvgl\src\extra\widgets\tabview/lv_tabview.c ****         if(new_tab) lv_event_send(tv, LV_EVENT_VALUE_CHANGED, NULL);
 1020              		.loc 1 349 0
 1021 00de 002D     		cmp	r5, #0
 1022 00e0 04D0     		beq	.L46
 1023              		.loc 1 349 0 is_stmt 0 discriminator 1
 1024 00e2 0022     		movs	r2, #0
 1025 00e4 1C21     		movs	r1, #28
 1026 00e6 3000     		movs	r0, r6
 1027 00e8 FFF7FEFF 		bl	lv_event_send
 1028              	.LVL160:
 1029              	.L46:
 1030              	.LBE29:
 350:..\..\..\arduinoLCD\test\Pain Drain\libraries\lvgl\src\extra\widgets\tabview/lv_tabview.c ****     }
 351:..\..\..\arduinoLCD\test\Pain Drain\libraries\lvgl\src\extra\widgets\tabview/lv_tabview.c **** }
 1031              		.loc 1 351 0 is_stmt 1
 1032 00ec 02B0     		add	sp, sp, #8
 1033              		@ sp needed
 1034              	.LVL161:
 1035 00ee 70BD     		pop	{r4, r5, r6, pc}
 1036              		.cfi_endproc
 1037              	.LFE213:
 1038              		.size	cont_scroll_end_event_cb, .-cont_scroll_end_event_cb
 1039              		.section	.text.btns_value_changed_event_cb,"ax",%progbits
 1040              		.align	2
 1041              		.code	16
 1042              		.thumb_func
 1043              		.type	btns_value_changed_event_cb, %function
 1044              	btns_value_changed_event_cb:
 1045              	.LFB212:
 306:..\..\..\arduinoLCD\test\Pain Drain\libraries\lvgl\src\extra\widgets\tabview/lv_tabview.c ****     lv_obj_t * btns = lv_event_get_target(e);
 1046              		.loc 1 306 0
 1047              		.cfi_startproc
 1048              		@ args = 0, pretend = 0, frame = 0
ARM GAS  C:\Users\haske\AppData\Local\Temp\cc65HANE.s 			page 37


 1049              		@ frame_needed = 0, uses_anonymous_args = 0
 1050              	.LVL162:
 1051 0000 70B5     		push	{r4, r5, r6, lr}
 1052              		.cfi_def_cfa_offset 16
 1053              		.cfi_offset 4, -16
 1054              		.cfi_offset 5, -12
 1055              		.cfi_offset 6, -8
 1056              		.cfi_offset 14, -4
 307:..\..\..\arduinoLCD\test\Pain Drain\libraries\lvgl\src\extra\widgets\tabview/lv_tabview.c **** 
 1057              		.loc 1 307 0
 1058 0002 FFF7FEFF 		bl	lv_event_get_target
 1059              	.LVL163:
 1060 0006 0400     		movs	r4, r0
 1061              	.LVL164:
 309:..\..\..\arduinoLCD\test\Pain Drain\libraries\lvgl\src\extra\widgets\tabview/lv_tabview.c ****     uint32_t id = lv_btnmatrix_get_selected_btn(btns);
 1062              		.loc 1 309 0
 1063 0008 FFF7FEFF 		bl	lv_obj_get_parent
 1064              	.LVL165:
 1065 000c 0500     		movs	r5, r0
 1066              	.LVL166:
 310:..\..\..\arduinoLCD\test\Pain Drain\libraries\lvgl\src\extra\widgets\tabview/lv_tabview.c ****     lv_tabview_set_act(tv, id, LV_ANIM_ON);
 1067              		.loc 1 310 0
 1068 000e 2000     		movs	r0, r4
 1069              	.LVL167:
 1070 0010 FFF7FEFF 		bl	lv_btnmatrix_get_selected_btn
 1071              	.LVL168:
 1072 0014 0100     		movs	r1, r0
 1073              	.LVL169:
 311:..\..\..\arduinoLCD\test\Pain Drain\libraries\lvgl\src\extra\widgets\tabview/lv_tabview.c **** }
 1074              		.loc 1 311 0
 1075 0016 0122     		movs	r2, #1
 1076 0018 2800     		movs	r0, r5
 1077              	.LVL170:
 1078 001a FFF7FEFF 		bl	lv_tabview_set_act
 1079              	.LVL171:
 312:..\..\..\arduinoLCD\test\Pain Drain\libraries\lvgl\src\extra\widgets\tabview/lv_tabview.c **** 
 1080              		.loc 1 312 0
 1081              		@ sp needed
 1082              	.LVL172:
 1083              	.LVL173:
 1084 001e 70BD     		pop	{r4, r5, r6, pc}
 1085              		.cfi_endproc
 1086              	.LFE212:
 1087              		.size	btns_value_changed_event_cb, .-btns_value_changed_event_cb
 1088              		.section	.text.lv_tabview_add_tab,"ax",%progbits
 1089              		.align	2
 1090              		.global	lv_tabview_add_tab
 1091              		.code	16
 1092              		.thumb_func
 1093              		.type	lv_tabview_add_tab, %function
 1094              	lv_tabview_add_tab:
 1095              	.LFB203:
  68:..\..\..\arduinoLCD\test\Pain Drain\libraries\lvgl\src\extra\widgets\tabview/lv_tabview.c ****     LV_ASSERT_OBJ(obj, MY_CLASS);
 1096              		.loc 1 68 0
 1097              		.cfi_startproc
 1098              		@ args = 0, pretend = 0, frame = 16
 1099              		@ frame_needed = 0, uses_anonymous_args = 0
ARM GAS  C:\Users\haske\AppData\Local\Temp\cc65HANE.s 			page 38


 1100              	.LVL174:
 1101 0000 F0B5     		push	{r4, r5, r6, r7, lr}
 1102              		.cfi_def_cfa_offset 20
 1103              		.cfi_offset 4, -20
 1104              		.cfi_offset 5, -16
 1105              		.cfi_offset 6, -12
 1106              		.cfi_offset 7, -8
 1107              		.cfi_offset 14, -4
 1108 0002 5F46     		mov	r7, fp
 1109 0004 4E46     		mov	r6, r9
 1110 0006 4546     		mov	r5, r8
 1111 0008 E0B4     		push	{r5, r6, r7}
 1112              		.cfi_def_cfa_offset 32
 1113              		.cfi_offset 8, -32
 1114              		.cfi_offset 9, -28
 1115              		.cfi_offset 11, -24
 1116 000a 84B0     		sub	sp, sp, #16
 1117              		.cfi_def_cfa_offset 48
 1118 000c 0700     		movs	r7, r0
 1119 000e 0291     		str	r1, [sp, #8]
 1120              	.LVL175:
  71:..\..\..\arduinoLCD\test\Pain Drain\libraries\lvgl\src\extra\widgets\tabview/lv_tabview.c **** 
 1121              		.loc 1 71 0
 1122 0010 FFF7FEFF 		bl	lv_tabview_get_content
 1123              	.LVL176:
 1124 0014 0500     		movs	r5, r0
 1125              	.LVL177:
  73:..\..\..\arduinoLCD\test\Pain Drain\libraries\lvgl\src\extra\widgets\tabview/lv_tabview.c ****     lv_obj_set_size(page, LV_PCT(100), LV_PCT(100));
 1126              		.loc 1 73 0
 1127 0016 FFF7FEFF 		bl	lv_obj_create
 1128              	.LVL178:
 1129 001a 0400     		movs	r4, r0
 1130 001c 0390     		str	r0, [sp, #12]
 1131              	.LVL179:
  74:..\..\..\arduinoLCD\test\Pain Drain\libraries\lvgl\src\extra\widgets\tabview/lv_tabview.c ****     lv_obj_clear_flag(page, LV_OBJ_FLAG_CLICK_FOCUSABLE);
 1132              		.loc 1 74 0
 1133 001e 4F49     		ldr	r1, .L69
 1134 0020 0A00     		movs	r2, r1
 1135 0022 FFF7FEFF 		bl	lv_obj_set_size
 1136              	.LVL180:
  75:..\..\..\arduinoLCD\test\Pain Drain\libraries\lvgl\src\extra\widgets\tabview/lv_tabview.c ****     uint32_t tab_id = lv_obj_get_child_cnt(cont);
 1137              		.loc 1 75 0
 1138 0026 0421     		movs	r1, #4
 1139 0028 2000     		movs	r0, r4
 1140 002a FFF7FEFF 		bl	lv_obj_clear_flag
 1141              	.LVL181:
  76:..\..\..\arduinoLCD\test\Pain Drain\libraries\lvgl\src\extra\widgets\tabview/lv_tabview.c **** 
 1142              		.loc 1 76 0
 1143 002e 2800     		movs	r0, r5
 1144 0030 FFF7FEFF 		bl	lv_obj_get_child_cnt
 1145              	.LVL182:
 1146 0034 0500     		movs	r5, r0
 1147              	.LVL183:
  78:..\..\..\arduinoLCD\test\Pain Drain\libraries\lvgl\src\extra\widgets\tabview/lv_tabview.c **** 
 1148              		.loc 1 78 0
 1149 0036 3800     		movs	r0, r7
 1150              	.LVL184:
ARM GAS  C:\Users\haske\AppData\Local\Temp\cc65HANE.s 			page 39


 1151 0038 FFF7FEFF 		bl	lv_tabview_get_tab_btns
 1152              	.LVL185:
 1153 003c 0190     		str	r0, [sp, #4]
 1154              	.LVL186:
  80:..\..\..\arduinoLCD\test\Pain Drain\libraries\lvgl\src\extra\widgets\tabview/lv_tabview.c ****     char ** new_map;
 1155              		.loc 1 80 0
 1156 003e 7E6A     		ldr	r6, [r7, #36]
 1157              	.LVL187:
  84:..\..\..\arduinoLCD\test\Pain Drain\libraries\lvgl\src\extra\widgets\tabview/lv_tabview.c ****         new_map = lv_mem_alloc((tab_id + 1) * sizeof(const char *));
 1158              		.loc 1 84 0
 1159 0040 2C23     		movs	r3, #44
 1160 0042 FB5C     		ldrb	r3, [r7, r3]
 1161 0044 0C22     		movs	r2, #12
 1162 0046 1A42     		tst	r2, r3
 1163 0048 23D0     		beq	.L61
  85:..\..\..\arduinoLCD\test\Pain Drain\libraries\lvgl\src\extra\widgets\tabview/lv_tabview.c ****         lv_memcpy_small(new_map, old_map, sizeof(const char *) * (tab_id - 1));
 1164              		.loc 1 85 0
 1165 004a 681C     		adds	r0, r5, #1
 1166              	.LVL188:
 1167 004c 8000     		lsls	r0, r0, #2
 1168 004e FFF7FEFF 		bl	lv_mem_alloc
 1169              	.LVL189:
 1170 0052 0400     		movs	r4, r0
 1171              	.LVL190:
  86:..\..\..\arduinoLCD\test\Pain Drain\libraries\lvgl\src\extra\widgets\tabview/lv_tabview.c ****         new_map[tab_id - 1] = lv_mem_alloc(strlen(name) + 1);
 1172              		.loc 1 86 0
 1173 0054 424B     		ldr	r3, .L69+4
 1174 0056 EB18     		adds	r3, r5, r3
 1175 0058 9B00     		lsls	r3, r3, #2
 1176 005a 9C46     		mov	ip, r3
 1177              	.LVL191:
 1178              	.LBB34:
 1179              	.LBB35:
 1180              		.file 3 "c:\\projects\\paindrain\\arduinolcd\\test\\pain drain\\libraries\\lvgl\\src/misc/lv_mem.h
   1:c:\projects\paindrain\arduinolcd\test\pain drain\libraries\lvgl\src/misc\lv_mem.h **** /**
   2:c:\projects\paindrain\arduinolcd\test\pain drain\libraries\lvgl\src/misc\lv_mem.h ****  * @file lv_mem.h
   3:c:\projects\paindrain\arduinolcd\test\pain drain\libraries\lvgl\src/misc\lv_mem.h ****  *
   4:c:\projects\paindrain\arduinolcd\test\pain drain\libraries\lvgl\src/misc\lv_mem.h ****  */
   5:c:\projects\paindrain\arduinolcd\test\pain drain\libraries\lvgl\src/misc\lv_mem.h **** 
   6:c:\projects\paindrain\arduinolcd\test\pain drain\libraries\lvgl\src/misc\lv_mem.h **** #ifndef LV_MEM_H
   7:c:\projects\paindrain\arduinolcd\test\pain drain\libraries\lvgl\src/misc\lv_mem.h **** #define LV_MEM_H
   8:c:\projects\paindrain\arduinolcd\test\pain drain\libraries\lvgl\src/misc\lv_mem.h **** 
   9:c:\projects\paindrain\arduinolcd\test\pain drain\libraries\lvgl\src/misc\lv_mem.h **** #ifdef __cplusplus
  10:c:\projects\paindrain\arduinolcd\test\pain drain\libraries\lvgl\src/misc\lv_mem.h **** extern "C" {
  11:c:\projects\paindrain\arduinolcd\test\pain drain\libraries\lvgl\src/misc\lv_mem.h **** #endif
  12:c:\projects\paindrain\arduinolcd\test\pain drain\libraries\lvgl\src/misc\lv_mem.h **** 
  13:c:\projects\paindrain\arduinolcd\test\pain drain\libraries\lvgl\src/misc\lv_mem.h **** /*********************
  14:c:\projects\paindrain\arduinolcd\test\pain drain\libraries\lvgl\src/misc\lv_mem.h ****  *      INCLUDES
  15:c:\projects\paindrain\arduinolcd\test\pain drain\libraries\lvgl\src/misc\lv_mem.h ****  *********************/
  16:c:\projects\paindrain\arduinolcd\test\pain drain\libraries\lvgl\src/misc\lv_mem.h **** #include "../lv_conf_internal.h"
  17:c:\projects\paindrain\arduinolcd\test\pain drain\libraries\lvgl\src/misc\lv_mem.h **** 
  18:c:\projects\paindrain\arduinolcd\test\pain drain\libraries\lvgl\src/misc\lv_mem.h **** #include <stdint.h>
  19:c:\projects\paindrain\arduinolcd\test\pain drain\libraries\lvgl\src/misc\lv_mem.h **** #include <stddef.h>
  20:c:\projects\paindrain\arduinolcd\test\pain drain\libraries\lvgl\src/misc\lv_mem.h **** #include <string.h>
  21:c:\projects\paindrain\arduinolcd\test\pain drain\libraries\lvgl\src/misc\lv_mem.h **** 
  22:c:\projects\paindrain\arduinolcd\test\pain drain\libraries\lvgl\src/misc\lv_mem.h **** #include "lv_types.h"
  23:c:\projects\paindrain\arduinolcd\test\pain drain\libraries\lvgl\src/misc\lv_mem.h **** 
ARM GAS  C:\Users\haske\AppData\Local\Temp\cc65HANE.s 			page 40


  24:c:\projects\paindrain\arduinolcd\test\pain drain\libraries\lvgl\src/misc\lv_mem.h **** /*********************
  25:c:\projects\paindrain\arduinolcd\test\pain drain\libraries\lvgl\src/misc\lv_mem.h ****  *      DEFINES
  26:c:\projects\paindrain\arduinolcd\test\pain drain\libraries\lvgl\src/misc\lv_mem.h ****  *********************/
  27:c:\projects\paindrain\arduinolcd\test\pain drain\libraries\lvgl\src/misc\lv_mem.h **** 
  28:c:\projects\paindrain\arduinolcd\test\pain drain\libraries\lvgl\src/misc\lv_mem.h **** /**********************
  29:c:\projects\paindrain\arduinolcd\test\pain drain\libraries\lvgl\src/misc\lv_mem.h ****  *      TYPEDEFS
  30:c:\projects\paindrain\arduinolcd\test\pain drain\libraries\lvgl\src/misc\lv_mem.h ****  **********************/
  31:c:\projects\paindrain\arduinolcd\test\pain drain\libraries\lvgl\src/misc\lv_mem.h **** 
  32:c:\projects\paindrain\arduinolcd\test\pain drain\libraries\lvgl\src/misc\lv_mem.h **** /**
  33:c:\projects\paindrain\arduinolcd\test\pain drain\libraries\lvgl\src/misc\lv_mem.h ****  * Heap information structure.
  34:c:\projects\paindrain\arduinolcd\test\pain drain\libraries\lvgl\src/misc\lv_mem.h ****  */
  35:c:\projects\paindrain\arduinolcd\test\pain drain\libraries\lvgl\src/misc\lv_mem.h **** typedef struct {
  36:c:\projects\paindrain\arduinolcd\test\pain drain\libraries\lvgl\src/misc\lv_mem.h ****     uint32_t total_size; /**< Total heap size*/
  37:c:\projects\paindrain\arduinolcd\test\pain drain\libraries\lvgl\src/misc\lv_mem.h ****     uint32_t free_cnt;
  38:c:\projects\paindrain\arduinolcd\test\pain drain\libraries\lvgl\src/misc\lv_mem.h ****     uint32_t free_size; /**< Size of available memory*/
  39:c:\projects\paindrain\arduinolcd\test\pain drain\libraries\lvgl\src/misc\lv_mem.h ****     uint32_t free_biggest_size;
  40:c:\projects\paindrain\arduinolcd\test\pain drain\libraries\lvgl\src/misc\lv_mem.h ****     uint32_t used_cnt;
  41:c:\projects\paindrain\arduinolcd\test\pain drain\libraries\lvgl\src/misc\lv_mem.h ****     uint32_t max_used; /**< Max size of Heap memory used*/
  42:c:\projects\paindrain\arduinolcd\test\pain drain\libraries\lvgl\src/misc\lv_mem.h ****     uint8_t used_pct; /**< Percentage used*/
  43:c:\projects\paindrain\arduinolcd\test\pain drain\libraries\lvgl\src/misc\lv_mem.h ****     uint8_t frag_pct; /**< Amount of fragmentation*/
  44:c:\projects\paindrain\arduinolcd\test\pain drain\libraries\lvgl\src/misc\lv_mem.h **** } lv_mem_monitor_t;
  45:c:\projects\paindrain\arduinolcd\test\pain drain\libraries\lvgl\src/misc\lv_mem.h **** 
  46:c:\projects\paindrain\arduinolcd\test\pain drain\libraries\lvgl\src/misc\lv_mem.h **** typedef struct {
  47:c:\projects\paindrain\arduinolcd\test\pain drain\libraries\lvgl\src/misc\lv_mem.h ****     void * p;
  48:c:\projects\paindrain\arduinolcd\test\pain drain\libraries\lvgl\src/misc\lv_mem.h ****     uint16_t size;
  49:c:\projects\paindrain\arduinolcd\test\pain drain\libraries\lvgl\src/misc\lv_mem.h ****     uint8_t used : 1;
  50:c:\projects\paindrain\arduinolcd\test\pain drain\libraries\lvgl\src/misc\lv_mem.h **** } lv_mem_buf_t;
  51:c:\projects\paindrain\arduinolcd\test\pain drain\libraries\lvgl\src/misc\lv_mem.h **** 
  52:c:\projects\paindrain\arduinolcd\test\pain drain\libraries\lvgl\src/misc\lv_mem.h **** typedef lv_mem_buf_t lv_mem_buf_arr_t[LV_MEM_BUF_MAX_NUM];
  53:c:\projects\paindrain\arduinolcd\test\pain drain\libraries\lvgl\src/misc\lv_mem.h **** 
  54:c:\projects\paindrain\arduinolcd\test\pain drain\libraries\lvgl\src/misc\lv_mem.h **** /**********************
  55:c:\projects\paindrain\arduinolcd\test\pain drain\libraries\lvgl\src/misc\lv_mem.h ****  * GLOBAL PROTOTYPES
  56:c:\projects\paindrain\arduinolcd\test\pain drain\libraries\lvgl\src/misc\lv_mem.h ****  **********************/
  57:c:\projects\paindrain\arduinolcd\test\pain drain\libraries\lvgl\src/misc\lv_mem.h **** 
  58:c:\projects\paindrain\arduinolcd\test\pain drain\libraries\lvgl\src/misc\lv_mem.h **** /**
  59:c:\projects\paindrain\arduinolcd\test\pain drain\libraries\lvgl\src/misc\lv_mem.h ****  * Initialize the dyn_mem module (work memory and other variables)
  60:c:\projects\paindrain\arduinolcd\test\pain drain\libraries\lvgl\src/misc\lv_mem.h ****  */
  61:c:\projects\paindrain\arduinolcd\test\pain drain\libraries\lvgl\src/misc\lv_mem.h **** void lv_mem_init(void);
  62:c:\projects\paindrain\arduinolcd\test\pain drain\libraries\lvgl\src/misc\lv_mem.h **** 
  63:c:\projects\paindrain\arduinolcd\test\pain drain\libraries\lvgl\src/misc\lv_mem.h **** /**
  64:c:\projects\paindrain\arduinolcd\test\pain drain\libraries\lvgl\src/misc\lv_mem.h ****  * Clean up the memory buffer which frees all the allocated memories.
  65:c:\projects\paindrain\arduinolcd\test\pain drain\libraries\lvgl\src/misc\lv_mem.h ****  * @note It work only if `LV_MEM_CUSTOM == 0`
  66:c:\projects\paindrain\arduinolcd\test\pain drain\libraries\lvgl\src/misc\lv_mem.h ****  */
  67:c:\projects\paindrain\arduinolcd\test\pain drain\libraries\lvgl\src/misc\lv_mem.h **** void lv_mem_deinit(void);
  68:c:\projects\paindrain\arduinolcd\test\pain drain\libraries\lvgl\src/misc\lv_mem.h **** 
  69:c:\projects\paindrain\arduinolcd\test\pain drain\libraries\lvgl\src/misc\lv_mem.h **** /**
  70:c:\projects\paindrain\arduinolcd\test\pain drain\libraries\lvgl\src/misc\lv_mem.h ****  * Allocate a memory dynamically
  71:c:\projects\paindrain\arduinolcd\test\pain drain\libraries\lvgl\src/misc\lv_mem.h ****  * @param size size of the memory to allocate in bytes
  72:c:\projects\paindrain\arduinolcd\test\pain drain\libraries\lvgl\src/misc\lv_mem.h ****  * @return pointer to the allocated memory
  73:c:\projects\paindrain\arduinolcd\test\pain drain\libraries\lvgl\src/misc\lv_mem.h ****  */
  74:c:\projects\paindrain\arduinolcd\test\pain drain\libraries\lvgl\src/misc\lv_mem.h **** void * lv_mem_alloc(size_t size);
  75:c:\projects\paindrain\arduinolcd\test\pain drain\libraries\lvgl\src/misc\lv_mem.h **** 
  76:c:\projects\paindrain\arduinolcd\test\pain drain\libraries\lvgl\src/misc\lv_mem.h **** /**
  77:c:\projects\paindrain\arduinolcd\test\pain drain\libraries\lvgl\src/misc\lv_mem.h ****  * Free an allocated data
  78:c:\projects\paindrain\arduinolcd\test\pain drain\libraries\lvgl\src/misc\lv_mem.h ****  * @param data pointer to an allocated memory
  79:c:\projects\paindrain\arduinolcd\test\pain drain\libraries\lvgl\src/misc\lv_mem.h ****  */
  80:c:\projects\paindrain\arduinolcd\test\pain drain\libraries\lvgl\src/misc\lv_mem.h **** void lv_mem_free(void * data);
ARM GAS  C:\Users\haske\AppData\Local\Temp\cc65HANE.s 			page 41


  81:c:\projects\paindrain\arduinolcd\test\pain drain\libraries\lvgl\src/misc\lv_mem.h **** 
  82:c:\projects\paindrain\arduinolcd\test\pain drain\libraries\lvgl\src/misc\lv_mem.h **** /**
  83:c:\projects\paindrain\arduinolcd\test\pain drain\libraries\lvgl\src/misc\lv_mem.h ****  * Reallocate a memory with a new size. The old content will be kept.
  84:c:\projects\paindrain\arduinolcd\test\pain drain\libraries\lvgl\src/misc\lv_mem.h ****  * @param data pointer to an allocated memory.
  85:c:\projects\paindrain\arduinolcd\test\pain drain\libraries\lvgl\src/misc\lv_mem.h ****  * Its content will be copied to the new memory block and freed
  86:c:\projects\paindrain\arduinolcd\test\pain drain\libraries\lvgl\src/misc\lv_mem.h ****  * @param new_size the desired new size in byte
  87:c:\projects\paindrain\arduinolcd\test\pain drain\libraries\lvgl\src/misc\lv_mem.h ****  * @return pointer to the new memory, NULL on failure
  88:c:\projects\paindrain\arduinolcd\test\pain drain\libraries\lvgl\src/misc\lv_mem.h ****  */
  89:c:\projects\paindrain\arduinolcd\test\pain drain\libraries\lvgl\src/misc\lv_mem.h **** void * lv_mem_realloc(void * data_p, size_t new_size);
  90:c:\projects\paindrain\arduinolcd\test\pain drain\libraries\lvgl\src/misc\lv_mem.h **** 
  91:c:\projects\paindrain\arduinolcd\test\pain drain\libraries\lvgl\src/misc\lv_mem.h **** /**
  92:c:\projects\paindrain\arduinolcd\test\pain drain\libraries\lvgl\src/misc\lv_mem.h ****  *
  93:c:\projects\paindrain\arduinolcd\test\pain drain\libraries\lvgl\src/misc\lv_mem.h ****  * @return
  94:c:\projects\paindrain\arduinolcd\test\pain drain\libraries\lvgl\src/misc\lv_mem.h ****  */
  95:c:\projects\paindrain\arduinolcd\test\pain drain\libraries\lvgl\src/misc\lv_mem.h **** lv_res_t lv_mem_test(void);
  96:c:\projects\paindrain\arduinolcd\test\pain drain\libraries\lvgl\src/misc\lv_mem.h **** 
  97:c:\projects\paindrain\arduinolcd\test\pain drain\libraries\lvgl\src/misc\lv_mem.h **** /**
  98:c:\projects\paindrain\arduinolcd\test\pain drain\libraries\lvgl\src/misc\lv_mem.h ****  * Give information about the work memory of dynamic allocation
  99:c:\projects\paindrain\arduinolcd\test\pain drain\libraries\lvgl\src/misc\lv_mem.h ****  * @param mon_p pointer to a lv_mem_monitor_t variable,
 100:c:\projects\paindrain\arduinolcd\test\pain drain\libraries\lvgl\src/misc\lv_mem.h ****  *              the result of the analysis will be stored here
 101:c:\projects\paindrain\arduinolcd\test\pain drain\libraries\lvgl\src/misc\lv_mem.h ****  */
 102:c:\projects\paindrain\arduinolcd\test\pain drain\libraries\lvgl\src/misc\lv_mem.h **** void lv_mem_monitor(lv_mem_monitor_t * mon_p);
 103:c:\projects\paindrain\arduinolcd\test\pain drain\libraries\lvgl\src/misc\lv_mem.h **** 
 104:c:\projects\paindrain\arduinolcd\test\pain drain\libraries\lvgl\src/misc\lv_mem.h **** 
 105:c:\projects\paindrain\arduinolcd\test\pain drain\libraries\lvgl\src/misc\lv_mem.h **** /**
 106:c:\projects\paindrain\arduinolcd\test\pain drain\libraries\lvgl\src/misc\lv_mem.h ****  * Get a temporal buffer with the given size.
 107:c:\projects\paindrain\arduinolcd\test\pain drain\libraries\lvgl\src/misc\lv_mem.h ****  * @param size the required size
 108:c:\projects\paindrain\arduinolcd\test\pain drain\libraries\lvgl\src/misc\lv_mem.h ****  */
 109:c:\projects\paindrain\arduinolcd\test\pain drain\libraries\lvgl\src/misc\lv_mem.h **** void * lv_mem_buf_get(uint32_t size);
 110:c:\projects\paindrain\arduinolcd\test\pain drain\libraries\lvgl\src/misc\lv_mem.h **** 
 111:c:\projects\paindrain\arduinolcd\test\pain drain\libraries\lvgl\src/misc\lv_mem.h **** /**
 112:c:\projects\paindrain\arduinolcd\test\pain drain\libraries\lvgl\src/misc\lv_mem.h ****  * Release a memory buffer
 113:c:\projects\paindrain\arduinolcd\test\pain drain\libraries\lvgl\src/misc\lv_mem.h ****  * @param p buffer to release
 114:c:\projects\paindrain\arduinolcd\test\pain drain\libraries\lvgl\src/misc\lv_mem.h ****  */
 115:c:\projects\paindrain\arduinolcd\test\pain drain\libraries\lvgl\src/misc\lv_mem.h **** void lv_mem_buf_release(void * p);
 116:c:\projects\paindrain\arduinolcd\test\pain drain\libraries\lvgl\src/misc\lv_mem.h **** 
 117:c:\projects\paindrain\arduinolcd\test\pain drain\libraries\lvgl\src/misc\lv_mem.h **** /**
 118:c:\projects\paindrain\arduinolcd\test\pain drain\libraries\lvgl\src/misc\lv_mem.h ****  * Free all memory buffers
 119:c:\projects\paindrain\arduinolcd\test\pain drain\libraries\lvgl\src/misc\lv_mem.h ****  */
 120:c:\projects\paindrain\arduinolcd\test\pain drain\libraries\lvgl\src/misc\lv_mem.h **** void lv_mem_buf_free_all(void);
 121:c:\projects\paindrain\arduinolcd\test\pain drain\libraries\lvgl\src/misc\lv_mem.h **** 
 122:c:\projects\paindrain\arduinolcd\test\pain drain\libraries\lvgl\src/misc\lv_mem.h **** //! @cond Doxygen_Suppress
 123:c:\projects\paindrain\arduinolcd\test\pain drain\libraries\lvgl\src/misc\lv_mem.h **** 
 124:c:\projects\paindrain\arduinolcd\test\pain drain\libraries\lvgl\src/misc\lv_mem.h **** #if LV_MEMCPY_MEMSET_STD
 125:c:\projects\paindrain\arduinolcd\test\pain drain\libraries\lvgl\src/misc\lv_mem.h **** 
 126:c:\projects\paindrain\arduinolcd\test\pain drain\libraries\lvgl\src/misc\lv_mem.h **** /**
 127:c:\projects\paindrain\arduinolcd\test\pain drain\libraries\lvgl\src/misc\lv_mem.h ****  * Wrapper for the standard memcpy
 128:c:\projects\paindrain\arduinolcd\test\pain drain\libraries\lvgl\src/misc\lv_mem.h ****  * @param dst pointer to the destination buffer
 129:c:\projects\paindrain\arduinolcd\test\pain drain\libraries\lvgl\src/misc\lv_mem.h ****  * @param src pointer to the source buffer
 130:c:\projects\paindrain\arduinolcd\test\pain drain\libraries\lvgl\src/misc\lv_mem.h ****  * @param len number of byte to copy
 131:c:\projects\paindrain\arduinolcd\test\pain drain\libraries\lvgl\src/misc\lv_mem.h ****  */
 132:c:\projects\paindrain\arduinolcd\test\pain drain\libraries\lvgl\src/misc\lv_mem.h **** static inline void * lv_memcpy(void * dst, const void * src, size_t len)
 133:c:\projects\paindrain\arduinolcd\test\pain drain\libraries\lvgl\src/misc\lv_mem.h **** {
 134:c:\projects\paindrain\arduinolcd\test\pain drain\libraries\lvgl\src/misc\lv_mem.h ****     return memcpy(dst, src, len);
 135:c:\projects\paindrain\arduinolcd\test\pain drain\libraries\lvgl\src/misc\lv_mem.h **** }
 136:c:\projects\paindrain\arduinolcd\test\pain drain\libraries\lvgl\src/misc\lv_mem.h **** 
 137:c:\projects\paindrain\arduinolcd\test\pain drain\libraries\lvgl\src/misc\lv_mem.h **** /**
ARM GAS  C:\Users\haske\AppData\Local\Temp\cc65HANE.s 			page 42


 138:c:\projects\paindrain\arduinolcd\test\pain drain\libraries\lvgl\src/misc\lv_mem.h ****  * Wrapper for the standard memcpy
 139:c:\projects\paindrain\arduinolcd\test\pain drain\libraries\lvgl\src/misc\lv_mem.h ****  * @param dst pointer to the destination buffer
 140:c:\projects\paindrain\arduinolcd\test\pain drain\libraries\lvgl\src/misc\lv_mem.h ****  * @param src pointer to the source buffer
 141:c:\projects\paindrain\arduinolcd\test\pain drain\libraries\lvgl\src/misc\lv_mem.h ****  * @param len number of byte to copy
 142:c:\projects\paindrain\arduinolcd\test\pain drain\libraries\lvgl\src/misc\lv_mem.h ****  */
 143:c:\projects\paindrain\arduinolcd\test\pain drain\libraries\lvgl\src/misc\lv_mem.h **** static inline void * lv_memcpy_small(void * dst, const void * src, size_t len)
 144:c:\projects\paindrain\arduinolcd\test\pain drain\libraries\lvgl\src/misc\lv_mem.h **** {
 145:c:\projects\paindrain\arduinolcd\test\pain drain\libraries\lvgl\src/misc\lv_mem.h ****     return memcpy(dst, src, len);
 146:c:\projects\paindrain\arduinolcd\test\pain drain\libraries\lvgl\src/misc\lv_mem.h **** }
 147:c:\projects\paindrain\arduinolcd\test\pain drain\libraries\lvgl\src/misc\lv_mem.h **** 
 148:c:\projects\paindrain\arduinolcd\test\pain drain\libraries\lvgl\src/misc\lv_mem.h **** /**
 149:c:\projects\paindrain\arduinolcd\test\pain drain\libraries\lvgl\src/misc\lv_mem.h ****  * Wrapper for the standard memset
 150:c:\projects\paindrain\arduinolcd\test\pain drain\libraries\lvgl\src/misc\lv_mem.h ****  * @param dst pointer to the destination buffer
 151:c:\projects\paindrain\arduinolcd\test\pain drain\libraries\lvgl\src/misc\lv_mem.h ****  * @param v value to set [0..255]
 152:c:\projects\paindrain\arduinolcd\test\pain drain\libraries\lvgl\src/misc\lv_mem.h ****  * @param len number of byte to set
 153:c:\projects\paindrain\arduinolcd\test\pain drain\libraries\lvgl\src/misc\lv_mem.h ****  */
 154:c:\projects\paindrain\arduinolcd\test\pain drain\libraries\lvgl\src/misc\lv_mem.h **** static inline void lv_memset(void * dst, uint8_t v, size_t len)
 155:c:\projects\paindrain\arduinolcd\test\pain drain\libraries\lvgl\src/misc\lv_mem.h **** {
 156:c:\projects\paindrain\arduinolcd\test\pain drain\libraries\lvgl\src/misc\lv_mem.h ****     memset(dst, v, len);
 157:c:\projects\paindrain\arduinolcd\test\pain drain\libraries\lvgl\src/misc\lv_mem.h **** }
 158:c:\projects\paindrain\arduinolcd\test\pain drain\libraries\lvgl\src/misc\lv_mem.h **** 
 159:c:\projects\paindrain\arduinolcd\test\pain drain\libraries\lvgl\src/misc\lv_mem.h **** /**
 160:c:\projects\paindrain\arduinolcd\test\pain drain\libraries\lvgl\src/misc\lv_mem.h ****  * Wrapper for the standard memset with fixed 0x00 value
 161:c:\projects\paindrain\arduinolcd\test\pain drain\libraries\lvgl\src/misc\lv_mem.h ****  * @param dst pointer to the destination buffer
 162:c:\projects\paindrain\arduinolcd\test\pain drain\libraries\lvgl\src/misc\lv_mem.h ****  * @param len number of byte to set
 163:c:\projects\paindrain\arduinolcd\test\pain drain\libraries\lvgl\src/misc\lv_mem.h ****  */
 164:c:\projects\paindrain\arduinolcd\test\pain drain\libraries\lvgl\src/misc\lv_mem.h **** static inline void lv_memset_00(void * dst, size_t len)
 165:c:\projects\paindrain\arduinolcd\test\pain drain\libraries\lvgl\src/misc\lv_mem.h **** {
 166:c:\projects\paindrain\arduinolcd\test\pain drain\libraries\lvgl\src/misc\lv_mem.h ****     memset(dst, 0x00, len);
 167:c:\projects\paindrain\arduinolcd\test\pain drain\libraries\lvgl\src/misc\lv_mem.h **** }
 168:c:\projects\paindrain\arduinolcd\test\pain drain\libraries\lvgl\src/misc\lv_mem.h **** 
 169:c:\projects\paindrain\arduinolcd\test\pain drain\libraries\lvgl\src/misc\lv_mem.h **** /**
 170:c:\projects\paindrain\arduinolcd\test\pain drain\libraries\lvgl\src/misc\lv_mem.h ****  * Wrapper for the standard memset with fixed 0xFF value
 171:c:\projects\paindrain\arduinolcd\test\pain drain\libraries\lvgl\src/misc\lv_mem.h ****  * @param dst pointer to the destination buffer
 172:c:\projects\paindrain\arduinolcd\test\pain drain\libraries\lvgl\src/misc\lv_mem.h ****  * @param len number of byte to set
 173:c:\projects\paindrain\arduinolcd\test\pain drain\libraries\lvgl\src/misc\lv_mem.h ****  */
 174:c:\projects\paindrain\arduinolcd\test\pain drain\libraries\lvgl\src/misc\lv_mem.h **** static inline void lv_memset_ff(void * dst, size_t len)
 175:c:\projects\paindrain\arduinolcd\test\pain drain\libraries\lvgl\src/misc\lv_mem.h **** {
 176:c:\projects\paindrain\arduinolcd\test\pain drain\libraries\lvgl\src/misc\lv_mem.h ****     memset(dst, 0xFF, len);
 177:c:\projects\paindrain\arduinolcd\test\pain drain\libraries\lvgl\src/misc\lv_mem.h **** }
 178:c:\projects\paindrain\arduinolcd\test\pain drain\libraries\lvgl\src/misc\lv_mem.h **** 
 179:c:\projects\paindrain\arduinolcd\test\pain drain\libraries\lvgl\src/misc\lv_mem.h **** #else
 180:c:\projects\paindrain\arduinolcd\test\pain drain\libraries\lvgl\src/misc\lv_mem.h **** /**
 181:c:\projects\paindrain\arduinolcd\test\pain drain\libraries\lvgl\src/misc\lv_mem.h ****  * Same as `memcpy` but optimized for 4 byte operation.
 182:c:\projects\paindrain\arduinolcd\test\pain drain\libraries\lvgl\src/misc\lv_mem.h ****  * @param dst pointer to the destination buffer
 183:c:\projects\paindrain\arduinolcd\test\pain drain\libraries\lvgl\src/misc\lv_mem.h ****  * @param src pointer to the source buffer
 184:c:\projects\paindrain\arduinolcd\test\pain drain\libraries\lvgl\src/misc\lv_mem.h ****  * @param len number of byte to copy
 185:c:\projects\paindrain\arduinolcd\test\pain drain\libraries\lvgl\src/misc\lv_mem.h ****  */
 186:c:\projects\paindrain\arduinolcd\test\pain drain\libraries\lvgl\src/misc\lv_mem.h **** LV_ATTRIBUTE_FAST_MEM void * lv_memcpy(void * dst, const void * src, size_t len);
 187:c:\projects\paindrain\arduinolcd\test\pain drain\libraries\lvgl\src/misc\lv_mem.h **** 
 188:c:\projects\paindrain\arduinolcd\test\pain drain\libraries\lvgl\src/misc\lv_mem.h **** /**
 189:c:\projects\paindrain\arduinolcd\test\pain drain\libraries\lvgl\src/misc\lv_mem.h ****  * Same as `memcpy` but optimized to copy only a few bytes.
 190:c:\projects\paindrain\arduinolcd\test\pain drain\libraries\lvgl\src/misc\lv_mem.h ****  * @param dst pointer to the destination buffer
 191:c:\projects\paindrain\arduinolcd\test\pain drain\libraries\lvgl\src/misc\lv_mem.h ****  * @param src pointer to the source buffer
 192:c:\projects\paindrain\arduinolcd\test\pain drain\libraries\lvgl\src/misc\lv_mem.h ****  * @param len number of byte to copy
 193:c:\projects\paindrain\arduinolcd\test\pain drain\libraries\lvgl\src/misc\lv_mem.h ****  */
 194:c:\projects\paindrain\arduinolcd\test\pain drain\libraries\lvgl\src/misc\lv_mem.h **** LV_ATTRIBUTE_FAST_MEM static inline void * lv_memcpy_small(void * dst, const void * src, size_t len
ARM GAS  C:\Users\haske\AppData\Local\Temp\cc65HANE.s 			page 43


 195:c:\projects\paindrain\arduinolcd\test\pain drain\libraries\lvgl\src/misc\lv_mem.h **** {
 196:c:\projects\paindrain\arduinolcd\test\pain drain\libraries\lvgl\src/misc\lv_mem.h ****     uint8_t * d8 = (uint8_t *)dst;
 197:c:\projects\paindrain\arduinolcd\test\pain drain\libraries\lvgl\src/misc\lv_mem.h ****     const uint8_t * s8 = (const uint8_t *)src;
 1181              		.loc 3 197 0
 1182 005c 3100     		movs	r1, r6
 196:c:\projects\paindrain\arduinolcd\test\pain drain\libraries\lvgl\src/misc\lv_mem.h ****     const uint8_t * s8 = (const uint8_t *)src;
 1183              		.loc 3 196 0
 1184 005e 0200     		movs	r2, r0
 1185 0060 04E0     		b	.L62
 1186              	.LVL192:
 1187              	.L63:
 198:c:\projects\paindrain\arduinolcd\test\pain drain\libraries\lvgl\src/misc\lv_mem.h **** 
 199:c:\projects\paindrain\arduinolcd\test\pain drain\libraries\lvgl\src/misc\lv_mem.h ****     while(len) {
 200:c:\projects\paindrain\arduinolcd\test\pain drain\libraries\lvgl\src/misc\lv_mem.h ****         *d8 = *s8;
 1188              		.loc 3 200 0
 1189 0062 0878     		ldrb	r0, [r1]
 1190 0064 1070     		strb	r0, [r2]
 201:c:\projects\paindrain\arduinolcd\test\pain drain\libraries\lvgl\src/misc\lv_mem.h ****         d8++;
 1191              		.loc 3 201 0
 1192 0066 0132     		adds	r2, r2, #1
 1193              	.LVL193:
 202:c:\projects\paindrain\arduinolcd\test\pain drain\libraries\lvgl\src/misc\lv_mem.h ****         s8++;
 1194              		.loc 3 202 0
 1195 0068 0131     		adds	r1, r1, #1
 1196              	.LVL194:
 203:c:\projects\paindrain\arduinolcd\test\pain drain\libraries\lvgl\src/misc\lv_mem.h ****         len--;
 1197              		.loc 3 203 0
 1198 006a 013B     		subs	r3, r3, #1
 1199              	.LVL195:
 1200              	.L62:
 199:c:\projects\paindrain\arduinolcd\test\pain drain\libraries\lvgl\src/misc\lv_mem.h ****         *d8 = *s8;
 1201              		.loc 3 199 0
 1202 006c 002B     		cmp	r3, #0
 1203 006e F8D1     		bne	.L63
 1204              	.LVL196:
 1205              	.LBE35:
 1206              	.LBE34:
  87:..\..\..\arduinoLCD\test\Pain Drain\libraries\lvgl\src\extra\widgets\tabview/lv_tabview.c ****         strcpy((char *)new_map[tab_id - 1], name);
 1207              		.loc 1 87 0
 1208 0070 A444     		add	ip, ip, r4
 1209 0072 E346     		mov	fp, ip
 1210 0074 0298     		ldr	r0, [sp, #8]
 1211 0076 FFF7FEFF 		bl	strlen
 1212              	.LVL197:
 1213 007a 0130     		adds	r0, r0, #1
 1214 007c FFF7FEFF 		bl	lv_mem_alloc
 1215              	.LVL198:
 1216 0080 5B46     		mov	r3, fp
 1217 0082 1860     		str	r0, [r3]
  88:..\..\..\arduinoLCD\test\Pain Drain\libraries\lvgl\src\extra\widgets\tabview/lv_tabview.c ****         new_map[tab_id] = "";
 1218              		.loc 1 88 0
 1219 0084 0299     		ldr	r1, [sp, #8]
 1220 0086 FFF7FEFF 		bl	strcpy
 1221              	.LVL199:
  89:..\..\..\arduinoLCD\test\Pain Drain\libraries\lvgl\src\extra\widgets\tabview/lv_tabview.c ****     }
 1222              		.loc 1 89 0
 1223 008a AB00     		lsls	r3, r5, #2
ARM GAS  C:\Users\haske\AppData\Local\Temp\cc65HANE.s 			page 44


 1224 008c 354A     		ldr	r2, .L69+8
 1225 008e E250     		str	r2, [r4, r3]
 1226 0090 3EE0     		b	.L64
 1227              	.LVL200:
 1228              	.L61:
  93:..\..\..\arduinoLCD\test\Pain Drain\libraries\lvgl\src\extra\widgets\tabview/lv_tabview.c ****         lv_memcpy_small(new_map, old_map, sizeof(const char *) * (tab_id - 1) * 2);
 1229              		.loc 1 93 0
 1230 0092 EB00     		lsls	r3, r5, #3
 1231 0094 9846     		mov	r8, r3
 1232 0096 1800     		movs	r0, r3
 1233              	.LVL201:
 1234 0098 FFF7FEFF 		bl	lv_mem_alloc
 1235              	.LVL202:
 1236 009c 0400     		movs	r4, r0
 1237              	.LVL203:
  94:..\..\..\arduinoLCD\test\Pain Drain\libraries\lvgl\src\extra\widgets\tabview/lv_tabview.c ****         if(tabview->tab_cnt == 0) {
 1238              		.loc 1 94 0
 1239 009e 304B     		ldr	r3, .L69+4
 1240 00a0 EB18     		adds	r3, r5, r3
 1241 00a2 DB00     		lsls	r3, r3, #3
 1242              	.LVL204:
 1243              	.LBB36:
 1244              	.LBB37:
 197:c:\projects\paindrain\arduinolcd\test\pain drain\libraries\lvgl\src/misc\lv_mem.h **** 
 1245              		.loc 3 197 0
 1246 00a4 3100     		movs	r1, r6
 196:c:\projects\paindrain\arduinolcd\test\pain drain\libraries\lvgl\src/misc\lv_mem.h ****     const uint8_t * s8 = (const uint8_t *)src;
 1247              		.loc 3 196 0
 1248 00a6 0200     		movs	r2, r0
 1249 00a8 04E0     		b	.L65
 1250              	.LVL205:
 1251              	.L66:
 200:c:\projects\paindrain\arduinolcd\test\pain drain\libraries\lvgl\src/misc\lv_mem.h ****         d8++;
 1252              		.loc 3 200 0
 1253 00aa 0878     		ldrb	r0, [r1]
 1254 00ac 1070     		strb	r0, [r2]
 201:c:\projects\paindrain\arduinolcd\test\pain drain\libraries\lvgl\src/misc\lv_mem.h ****         s8++;
 1255              		.loc 3 201 0
 1256 00ae 0132     		adds	r2, r2, #1
 1257              	.LVL206:
 202:c:\projects\paindrain\arduinolcd\test\pain drain\libraries\lvgl\src/misc\lv_mem.h ****         len--;
 1258              		.loc 3 202 0
 1259 00b0 0131     		adds	r1, r1, #1
 1260              	.LVL207:
 1261              		.loc 3 203 0
 1262 00b2 013B     		subs	r3, r3, #1
 1263              	.LVL208:
 1264              	.L65:
 199:c:\projects\paindrain\arduinolcd\test\pain drain\libraries\lvgl\src/misc\lv_mem.h ****         *d8 = *s8;
 1265              		.loc 3 199 0
 1266 00b4 002B     		cmp	r3, #0
 1267 00b6 F8D1     		bne	.L66
 1268              	.LVL209:
 1269              	.LBE37:
 1270              	.LBE36:
  95:..\..\..\arduinoLCD\test\Pain Drain\libraries\lvgl\src\extra\widgets\tabview/lv_tabview.c ****             new_map[0] = lv_mem_alloc(strlen(name) + 1);
 1271              		.loc 1 95 0
ARM GAS  C:\Users\haske\AppData\Local\Temp\cc65HANE.s 			page 45


 1272 00b8 3B8D     		ldrh	r3, [r7, #40]
 1273 00ba 002B     		cmp	r3, #0
 1274 00bc 0DD1     		bne	.L67
  96:..\..\..\arduinoLCD\test\Pain Drain\libraries\lvgl\src\extra\widgets\tabview/lv_tabview.c ****             strcpy((char *)new_map[0], name);
 1275              		.loc 1 96 0
 1276 00be 029D     		ldr	r5, [sp, #8]
 1277              	.LVL210:
 1278 00c0 2800     		movs	r0, r5
 1279 00c2 FFF7FEFF 		bl	strlen
 1280              	.LVL211:
 1281 00c6 0130     		adds	r0, r0, #1
 1282 00c8 FFF7FEFF 		bl	lv_mem_alloc
 1283              	.LVL212:
 1284 00cc 2060     		str	r0, [r4]
  97:..\..\..\arduinoLCD\test\Pain Drain\libraries\lvgl\src\extra\widgets\tabview/lv_tabview.c ****             new_map[1] = "";
 1285              		.loc 1 97 0
 1286 00ce 2900     		movs	r1, r5
 1287 00d0 FFF7FEFF 		bl	strcpy
 1288              	.LVL213:
  98:..\..\..\arduinoLCD\test\Pain Drain\libraries\lvgl\src\extra\widgets\tabview/lv_tabview.c ****         }
 1289              		.loc 1 98 0
 1290 00d4 234B     		ldr	r3, .L69+8
 1291 00d6 6360     		str	r3, [r4, #4]
 1292 00d8 1AE0     		b	.L64
 1293              	.LVL214:
 1294              	.L67:
 101:..\..\..\arduinoLCD\test\Pain Drain\libraries\lvgl\src\extra\widgets\tabview/lv_tabview.c ****             new_map[tab_id * 2 - 2] = lv_mem_alloc(strlen(name) + 1);
 1295              		.loc 1 101 0
 1296 00da 4346     		mov	r3, r8
 1297 00dc 0C3B     		subs	r3, r3, #12
 1298 00de 224A     		ldr	r2, .L69+12
 1299              	.LVL215:
 1300 00e0 E250     		str	r2, [r4, r3]
 102:..\..\..\arduinoLCD\test\Pain Drain\libraries\lvgl\src\extra\widgets\tabview/lv_tabview.c ****             new_map[tab_id * 2 - 1] = "";
 1301              		.loc 1 102 0
 1302 00e2 224B     		ldr	r3, .L69+16
 1303 00e4 EB18     		adds	r3, r5, r3
 1304 00e6 DB00     		lsls	r3, r3, #3
 1305 00e8 9946     		mov	r9, r3
 1306 00ea A144     		add	r9, r9, r4
 1307 00ec 029D     		ldr	r5, [sp, #8]
 1308              	.LVL216:
 1309 00ee 2800     		movs	r0, r5
 1310 00f0 FFF7FEFF 		bl	strlen
 1311              	.LVL217:
 1312 00f4 0130     		adds	r0, r0, #1
 1313 00f6 FFF7FEFF 		bl	lv_mem_alloc
 1314              	.LVL218:
 1315 00fa 4B46     		mov	r3, r9
 1316 00fc 1860     		str	r0, [r3]
 103:..\..\..\arduinoLCD\test\Pain Drain\libraries\lvgl\src\extra\widgets\tabview/lv_tabview.c ****             strcpy((char *)new_map[(tab_id * 2) - 2], name);
 1317              		.loc 1 103 0
 1318 00fe 4346     		mov	r3, r8
 1319 0100 043B     		subs	r3, r3, #4
 1320 0102 184A     		ldr	r2, .L69+8
 1321 0104 E250     		str	r2, [r4, r3]
 104:..\..\..\arduinoLCD\test\Pain Drain\libraries\lvgl\src\extra\widgets\tabview/lv_tabview.c ****         }
ARM GAS  C:\Users\haske\AppData\Local\Temp\cc65HANE.s 			page 46


 1322              		.loc 1 104 0
 1323 0106 4B46     		mov	r3, r9
 1324 0108 1868     		ldr	r0, [r3]
 1325 010a 2900     		movs	r1, r5
 1326 010c FFF7FEFF 		bl	strcpy
 1327              	.LVL219:
 1328              	.L64:
 107:..\..\..\arduinoLCD\test\Pain Drain\libraries\lvgl\src\extra\widgets\tabview/lv_tabview.c ****     lv_btnmatrix_set_map(btns, (const char **)new_map);
 1329              		.loc 1 107 0
 1330 0110 7C62     		str	r4, [r7, #36]
 108:..\..\..\arduinoLCD\test\Pain Drain\libraries\lvgl\src\extra\widgets\tabview/lv_tabview.c ****     lv_mem_free(old_map);
 1331              		.loc 1 108 0
 1332 0112 2100     		movs	r1, r4
 1333 0114 019C     		ldr	r4, [sp, #4]
 1334              	.LVL220:
 1335 0116 2000     		movs	r0, r4
 1336 0118 FFF7FEFF 		bl	lv_btnmatrix_set_map
 1337              	.LVL221:
 109:..\..\..\arduinoLCD\test\Pain Drain\libraries\lvgl\src\extra\widgets\tabview/lv_tabview.c **** 
 1338              		.loc 1 109 0
 1339 011c 3000     		movs	r0, r6
 1340 011e FFF7FEFF 		bl	lv_mem_free
 1341              	.LVL222:
 111:..\..\..\arduinoLCD\test\Pain Drain\libraries\lvgl\src\extra\widgets\tabview/lv_tabview.c ****                                   LV_BTNMATRIX_CTRL_NO_REPEAT);
 1342              		.loc 1 111 0
 1343 0122 A821     		movs	r1, #168
 1344 0124 4900     		lsls	r1, r1, #1
 1345 0126 2000     		movs	r0, r4
 1346 0128 FFF7FEFF 		bl	lv_btnmatrix_set_btn_ctrl_all
 1347              	.LVL223:
 114:..\..\..\arduinoLCD\test\Pain Drain\libraries\lvgl\src\extra\widgets\tabview/lv_tabview.c ****     if(tabview->tab_cnt == 1) {
 1348              		.loc 1 114 0
 1349 012c 3B8D     		ldrh	r3, [r7, #40]
 1350 012e 0133     		adds	r3, r3, #1
 1351 0130 9BB2     		uxth	r3, r3
 1352 0132 3B85     		strh	r3, [r7, #40]
 115:..\..\..\arduinoLCD\test\Pain Drain\libraries\lvgl\src\extra\widgets\tabview/lv_tabview.c ****         lv_tabview_set_act(obj, 0, LV_ANIM_OFF);
 1353              		.loc 1 115 0
 1354 0134 012B     		cmp	r3, #1
 1355 0136 04D1     		bne	.L68
 116:..\..\..\arduinoLCD\test\Pain Drain\libraries\lvgl\src\extra\widgets\tabview/lv_tabview.c ****     }
 1356              		.loc 1 116 0
 1357 0138 0022     		movs	r2, #0
 1358 013a 0021     		movs	r1, #0
 1359 013c 3800     		movs	r0, r7
 1360 013e FFF7FEFF 		bl	lv_tabview_set_act
 1361              	.LVL224:
 1362              	.L68:
 119:..\..\..\arduinoLCD\test\Pain Drain\libraries\lvgl\src\extra\widgets\tabview/lv_tabview.c **** 
 1363              		.loc 1 119 0
 1364 0142 798D     		ldrh	r1, [r7, #42]
 1365 0144 8022     		movs	r2, #128
 1366 0146 0198     		ldr	r0, [sp, #4]
 1367 0148 FFF7FEFF 		bl	lv_btnmatrix_set_btn_ctrl
 1368              	.LVL225:
 122:..\..\..\arduinoLCD\test\Pain Drain\libraries\lvgl\src\extra\widgets\tabview/lv_tabview.c **** 
 1369              		.loc 1 122 0
ARM GAS  C:\Users\haske\AppData\Local\Temp\cc65HANE.s 			page 47


 1370 014c 0398     		ldr	r0, [sp, #12]
 1371 014e 04B0     		add	sp, sp, #16
 1372              		@ sp needed
 1373              	.LVL226:
 1374              	.LVL227:
 1375 0150 1CBC     		pop	{r2, r3, r4}
 1376 0152 9046     		mov	r8, r2
 1377 0154 9946     		mov	r9, r3
 1378 0156 A346     		mov	fp, r4
 1379 0158 F0BD     		pop	{r4, r5, r6, r7, pc}
 1380              	.L70:
 1381 015a C046     		.align	2
 1382              	.L69:
 1383 015c 64200000 		.word	8292
 1384 0160 FFFFFF3F 		.word	1073741823
 1385 0164 00000000 		.word	.LC1
 1386 0168 04000000 		.word	.LC9
 1387 016c FFFFFF1F 		.word	536870911
 1388              		.cfi_endproc
 1389              	.LFE203:
 1390              		.size	lv_tabview_add_tab, .-lv_tabview_add_tab
 1391              		.global	lv_tabview_class
 1392              		.section	.rodata
 1393              		.align	2
 1394              		.set	.LANCHOR1,. + 0
 1395              		.type	lv_tabview_class, %object
 1396              		.size	lv_tabview_class, 28
 1397              	lv_tabview_class:
 1398 0000 00000000 		.word	lv_obj_class
 1399 0004 00000000 		.word	lv_tabview_constructor
 1400 0008 00000000 		.word	lv_tabview_destructor
 1401 000c 00000000 		.space	4
 1402 0010 00000000 		.word	lv_tabview_event
 1403 0014 6420     		.short	8292
 1404 0016 6420     		.short	8292
 1405 0018 00       		.byte	0
 1406 0019 03       		.byte	3
 1407 001a 00       		.byte	0
 1408 001b 00       		.space	1
 1409              		.section	.rodata.str1.4,"aMS",%progbits,1
 1410              		.align	2
 1411              	.LC1:
 1412 0000 00       		.ascii	"\000"
 1413 0001 000000   		.space	3
 1414              	.LC9:
 1415 0004 0A00     		.ascii	"\012\000"
 1416              		.bss
 1417              		.align	1
 1418              		.set	.LANCHOR0,. + 0
 1419              		.type	tabpos_create, %object
 1420              		.size	tabpos_create, 1
 1421              	tabpos_create:
 1422 0000 00       		.space	1
 1423 0001 00       		.space	1
 1424              		.type	tabsize_create, %object
 1425              		.size	tabsize_create, 2
 1426              	tabsize_create:
ARM GAS  C:\Users\haske\AppData\Local\Temp\cc65HANE.s 			page 48


 1427 0002 0000     		.space	2
 1428              		.text
 1429              	.Letext0:
 1430              		.file 4 "c:\\program files (x86)\\cypress\\psoc creator\\4.4\\psoc creator\\import\\gnu\\arm\\5.4.
 1431              		.file 5 "c:\\program files (x86)\\cypress\\psoc creator\\4.4\\psoc creator\\import\\gnu\\arm\\5.4.
 1432              		.file 6 "c:\\projects\\paindrain\\arduinolcd\\test\\pain drain\\libraries\\lvgl\\src/misc/lv_types
 1433              		.file 7 "c:\\projects\\paindrain\\arduinolcd\\test\\pain drain\\libraries\\lvgl\\src/misc/lv_timer
 1434              		.file 8 "c:\\program files (x86)\\cypress\\psoc creator\\4.4\\psoc creator\\import\\gnu\\arm\\5.4.
 1435              		.file 9 "c:\\projects\\paindrain\\arduinolcd\\test\\pain drain\\libraries\\lvgl\\src/misc/lv_anim.
 1436              		.file 10 "c:\\projects\\paindrain\\arduinolcd\\test\\pain drain\\libraries\\lvgl\\src\\misc\\lv_ar
 1437              		.file 11 "c:\\projects\\paindrain\\arduinolcd\\test\\pain drain\\libraries\\lvgl\\src\\font\\lv_fo
 1438              		.file 12 "c:\\projects\\paindrain\\arduinolcd\\test\\pain drain\\libraries\\lvgl\\src\\misc\\lv_co
 1439              		.file 13 "c:\\projects\\paindrain\\arduinolcd\\test\\pain drain\\libraries\\lvgl\\src\\misc\\lv_tx
 1440              		.file 14 "c:\\projects\\paindrain\\arduinolcd\\test\\pain drain\\libraries\\lvgl\\src\\misc\\lv_bi
 1441              		.file 15 "c:\\projects\\paindrain\\arduinolcd\\test\\pain drain\\libraries\\lvgl\\src\\misc\\lv_st
 1442              		.file 16 "c:\\projects\\paindrain\\arduinolcd\\test\\pain drain\\libraries\\lvgl\\src\\draw\\lv_im
 1443              		.file 17 "c:\\projects\\paindrain\\arduinolcd\\test\\pain drain\\libraries\\lvgl\\src/core/lv_obj.
 1444              		.file 18 "c:\\projects\\paindrain\\arduinolcd\\test\\pain drain\\libraries\\lvgl\\src\\draw\\lv_dr
 1445              		.file 19 "c:\\projects\\paindrain\\arduinolcd\\test\\pain drain\\libraries\\lvgl\\src\\draw\\lv_dr
 1446              		.file 20 "c:\\projects\\paindrain\\arduinolcd\\test\\pain drain\\libraries\\lvgl\\src\\draw\\lv_dr
 1447              		.file 21 "c:\\projects\\paindrain\\arduinolcd\\test\\pain drain\\libraries\\lvgl\\src\\draw\\lv_dr
 1448              		.file 22 "c:\\projects\\paindrain\\arduinolcd\\test\\pain drain\\libraries\\lvgl\\src\\draw\\lv_dr
 1449              		.file 23 "c:\\projects\\paindrain\\arduinolcd\\test\\pain drain\\libraries\\lvgl\\src\\draw\\lv_dr
 1450              		.file 24 "c:\\projects\\paindrain\\arduinolcd\\test\\pain drain\\libraries\\lvgl\\src\\draw\\lv_dr
 1451              		.file 25 "c:\\projects\\paindrain\\arduinolcd\\test\\pain drain\\libraries\\lvgl\\src\\misc\\lv_ll
 1452              		.file 26 "c:\\projects\\paindrain\\arduinolcd\\test\\pain drain\\libraries\\lvgl\\src/hal/lv_hal_d
 1453              		.file 27 "c:\\projects\\paindrain\\arduinolcd\\test\\pain drain\\libraries\\lvgl\\src/core/lv_them
 1454              		.file 28 "c:\\projects\\paindrain\\arduinolcd\\test\\pain drain\\libraries\\lvgl\\src/hal/lv_hal_i
 1455              		.file 29 "c:\\projects\\paindrain\\arduinolcd\\test\\pain drain\\libraries\\lvgl\\src/core/lv_grou
 1456              		.file 30 "c:\\projects\\paindrain\\arduinolcd\\test\\pain drain\\libraries\\lvgl\\src/core/lv_obj_
 1457              		.file 31 "c:\\projects\\paindrain\\arduinolcd\\test\\pain drain\\libraries\\lvgl\\src/core/lv_obj_
 1458              		.file 32 "c:\\projects\\paindrain\\arduinolcd\\test\\pain drain\\libraries\\lvgl\\src/core/lv_obj_
 1459              		.file 33 "c:\\projects\\paindrain\\arduinolcd\\test\\pain drain\\libraries\\lvgl\\src/core/lv_even
 1460              		.file 34 "c:\\projects\\paindrain\\arduinolcd\\test\\pain drain\\libraries\\lvgl\\src/widgets/lv_b
 1461              		.file 35 "c:\\projects\\paindrain\\arduinolcd\\test\\pain drain\\libraries\\lvgl\\src/widgets/lv_b
 1462              		.file 36 "c:\\projects\\paindrain\\arduinolcd\\test\\pain drain\\libraries\\lvgl\\src/extra/layout
 1463              		.file 37 "c:\\projects\\paindrain\\arduinolcd\\test\\pain drain\\libraries\\lvgl\\src/extra/widget
 1464              		.file 38 "..\\..\\..\\arduinoLCD\\test\\Pain Drain\\libraries\\lvgl\\src\\extra\\widgets\\tabview\
 1465              		.file 39 "c:\\projects\\paindrain\\arduinolcd\\test\\pain drain\\libraries\\lvgl\\src/extra/layout
 1466              		.file 40 "c:\\projects\\paindrain\\arduinolcd\\test\\pain drain\\libraries\\lvgl\\src\\core\\lv_ob
 1467              		.file 41 "c:\\program files (x86)\\cypress\\psoc creator\\4.4\\psoc creator\\import\\gnu\\arm\\5.4
 1468              		.file 42 "c:\\projects\\paindrain\\arduinolcd\\test\\pain drain\\libraries\\lvgl\\src/core/lv_obj_
 1469              		.file 43 "c:\\projects\\paindrain\\arduinolcd\\test\\pain drain\\libraries\\lvgl\\src/core/lv_inde
 1470              		.section	.debug_info,"",%progbits
 1471              	.Ldebug_info0:
 1472 0000 1F340000 		.4byte	0x341f
 1473 0004 0400     		.2byte	0x4
 1474 0006 00000000 		.4byte	.Ldebug_abbrev0
 1475 000a 04       		.byte	0x4
 1476 000b 01       		.uleb128 0x1
 1477 000c 7C230000 		.4byte	.LASF716
 1478 0010 0C       		.byte	0xc
 1479 0011 11030000 		.4byte	.LASF717
 1480 0015 39180000 		.4byte	.LASF718
 1481 0019 00000000 		.4byte	.Ldebug_ranges0+0
 1482 001d 00000000 		.4byte	0
 1483 0021 00000000 		.4byte	.Ldebug_line0
ARM GAS  C:\Users\haske\AppData\Local\Temp\cc65HANE.s 			page 49


 1484 0025 02       		.uleb128 0x2
 1485 0026 D92A0000 		.4byte	.LASF0
 1486 002a 04       		.byte	0x4
 1487 002b 1B       		.byte	0x1b
 1488 002c 30000000 		.4byte	0x30
 1489 0030 03       		.uleb128 0x3
 1490 0031 01       		.byte	0x1
 1491 0032 06       		.byte	0x6
 1492 0033 9D170000 		.4byte	.LASF2
 1493 0037 02       		.uleb128 0x2
 1494 0038 F1000000 		.4byte	.LASF1
 1495 003c 04       		.byte	0x4
 1496 003d 1D       		.byte	0x1d
 1497 003e 42000000 		.4byte	0x42
 1498 0042 03       		.uleb128 0x3
 1499 0043 01       		.byte	0x1
 1500 0044 08       		.byte	0x8
 1501 0045 570A0000 		.4byte	.LASF3
 1502 0049 02       		.uleb128 0x2
 1503 004a 2A090000 		.4byte	.LASF4
 1504 004e 04       		.byte	0x4
 1505 004f 29       		.byte	0x29
 1506 0050 54000000 		.4byte	0x54
 1507 0054 03       		.uleb128 0x3
 1508 0055 02       		.byte	0x2
 1509 0056 05       		.byte	0x5
 1510 0057 152C0000 		.4byte	.LASF5
 1511 005b 02       		.uleb128 0x2
 1512 005c 34090000 		.4byte	.LASF6
 1513 0060 04       		.byte	0x4
 1514 0061 2B       		.byte	0x2b
 1515 0062 66000000 		.4byte	0x66
 1516 0066 03       		.uleb128 0x3
 1517 0067 02       		.byte	0x2
 1518 0068 07       		.byte	0x7
 1519 0069 80170000 		.4byte	.LASF7
 1520 006d 02       		.uleb128 0x2
 1521 006e 04230000 		.4byte	.LASF8
 1522 0072 04       		.byte	0x4
 1523 0073 3F       		.byte	0x3f
 1524 0074 78000000 		.4byte	0x78
 1525 0078 03       		.uleb128 0x3
 1526 0079 04       		.byte	0x4
 1527 007a 05       		.byte	0x5
 1528 007b 7E1B0000 		.4byte	.LASF9
 1529 007f 02       		.uleb128 0x2
 1530 0080 0E230000 		.4byte	.LASF10
 1531 0084 04       		.byte	0x4
 1532 0085 41       		.byte	0x41
 1533 0086 8A000000 		.4byte	0x8a
 1534 008a 03       		.uleb128 0x3
 1535 008b 04       		.byte	0x4
 1536 008c 07       		.byte	0x7
 1537 008d E11D0000 		.4byte	.LASF11
 1538 0091 03       		.uleb128 0x3
 1539 0092 08       		.byte	0x8
 1540 0093 05       		.byte	0x5
ARM GAS  C:\Users\haske\AppData\Local\Temp\cc65HANE.s 			page 50


 1541 0094 BF280000 		.4byte	.LASF12
 1542 0098 03       		.uleb128 0x3
 1543 0099 08       		.byte	0x8
 1544 009a 07       		.byte	0x7
 1545 009b C4250000 		.4byte	.LASF13
 1546 009f 04       		.uleb128 0x4
 1547 00a0 04       		.byte	0x4
 1548 00a1 05       		.byte	0x5
 1549 00a2 696E7400 		.ascii	"int\000"
 1550 00a6 03       		.uleb128 0x3
 1551 00a7 04       		.byte	0x4
 1552 00a8 07       		.byte	0x7
 1553 00a9 5D2B0000 		.4byte	.LASF14
 1554 00ad 02       		.uleb128 0x2
 1555 00ae D5150000 		.4byte	.LASF15
 1556 00b2 05       		.byte	0x5
 1557 00b3 14       		.byte	0x14
 1558 00b4 25000000 		.4byte	0x25
 1559 00b8 02       		.uleb128 0x2
 1560 00b9 3A0F0000 		.4byte	.LASF16
 1561 00bd 05       		.byte	0x5
 1562 00be 18       		.byte	0x18
 1563 00bf 37000000 		.4byte	0x37
 1564 00c3 02       		.uleb128 0x2
 1565 00c4 53170000 		.4byte	.LASF17
 1566 00c8 05       		.byte	0x5
 1567 00c9 20       		.byte	0x20
 1568 00ca 49000000 		.4byte	0x49
 1569 00ce 02       		.uleb128 0x2
 1570 00cf 90020000 		.4byte	.LASF18
 1571 00d3 05       		.byte	0x5
 1572 00d4 24       		.byte	0x24
 1573 00d5 5B000000 		.4byte	0x5b
 1574 00d9 02       		.uleb128 0x2
 1575 00da 47050000 		.4byte	.LASF19
 1576 00de 05       		.byte	0x5
 1577 00df 2C       		.byte	0x2c
 1578 00e0 6D000000 		.4byte	0x6d
 1579 00e4 02       		.uleb128 0x2
 1580 00e5 141D0000 		.4byte	.LASF20
 1581 00e9 05       		.byte	0x5
 1582 00ea 30       		.byte	0x30
 1583 00eb 7F000000 		.4byte	0x7f
 1584 00ef 05       		.uleb128 0x5
 1585 00f0 01       		.byte	0x1
 1586 00f1 42000000 		.4byte	0x42
 1587 00f5 06       		.byte	0x6
 1588 00f6 2A       		.byte	0x2a
 1589 00f7 08010000 		.4byte	0x108
 1590 00fb 06       		.uleb128 0x6
 1591 00fc 7F240000 		.4byte	.LASF21
 1592 0100 00       		.byte	0
 1593 0101 06       		.uleb128 0x6
 1594 0102 0E240000 		.4byte	.LASF22
 1595 0106 01       		.byte	0x1
 1596 0107 00       		.byte	0
 1597 0108 02       		.uleb128 0x2
ARM GAS  C:\Users\haske\AppData\Local\Temp\cc65HANE.s 			page 51


 1598 0109 7E000000 		.4byte	.LASF23
 1599 010d 06       		.byte	0x6
 1600 010e 2F       		.byte	0x2f
 1601 010f B8000000 		.4byte	0xb8
 1602 0113 02       		.uleb128 0x2
 1603 0114 B30E0000 		.4byte	.LASF24
 1604 0118 07       		.byte	0x7
 1605 0119 27       		.byte	0x27
 1606 011a 1E010000 		.4byte	0x11e
 1607 011e 07       		.uleb128 0x7
 1608 011f 04       		.byte	0x4
 1609 0120 24010000 		.4byte	0x124
 1610 0124 08       		.uleb128 0x8
 1611 0125 2F010000 		.4byte	0x12f
 1612 0129 09       		.uleb128 0x9
 1613 012a 2F010000 		.4byte	0x12f
 1614 012e 00       		.byte	0
 1615 012f 07       		.uleb128 0x7
 1616 0130 04       		.byte	0x4
 1617 0131 35010000 		.4byte	0x135
 1618 0135 0A       		.uleb128 0xa
 1619 0136 F9280000 		.4byte	.LASF58
 1620 013a 18       		.byte	0x18
 1621 013b 07       		.byte	0x7
 1622 013c 2C       		.byte	0x2c
 1623 013d 8D010000 		.4byte	0x18d
 1624 0141 0B       		.uleb128 0xb
 1625 0142 5F150000 		.4byte	.LASF25
 1626 0146 07       		.byte	0x7
 1627 0147 2D       		.byte	0x2d
 1628 0148 E4000000 		.4byte	0xe4
 1629 014c 00       		.byte	0
 1630 014d 0B       		.uleb128 0xb
 1631 014e C4120000 		.4byte	.LASF26
 1632 0152 07       		.byte	0x7
 1633 0153 2E       		.byte	0x2e
 1634 0154 E4000000 		.4byte	0xe4
 1635 0158 04       		.byte	0x4
 1636 0159 0B       		.uleb128 0xb
 1637 015a A20C0000 		.4byte	.LASF27
 1638 015e 07       		.byte	0x7
 1639 015f 2F       		.byte	0x2f
 1640 0160 13010000 		.4byte	0x113
 1641 0164 08       		.byte	0x8
 1642 0165 0B       		.uleb128 0xb
 1643 0166 EC1C0000 		.4byte	.LASF28
 1644 016a 07       		.byte	0x7
 1645 016b 30       		.byte	0x30
 1646 016c 8D010000 		.4byte	0x18d
 1647 0170 0C       		.byte	0xc
 1648 0171 0B       		.uleb128 0xb
 1649 0172 05180000 		.4byte	.LASF29
 1650 0176 07       		.byte	0x7
 1651 0177 31       		.byte	0x31
 1652 0178 D9000000 		.4byte	0xd9
 1653 017c 10       		.byte	0x10
 1654 017d 0C       		.uleb128 0xc
ARM GAS  C:\Users\haske\AppData\Local\Temp\cc65HANE.s 			page 52


 1655 017e 21150000 		.4byte	.LASF56
 1656 0182 07       		.byte	0x7
 1657 0183 32       		.byte	0x32
 1658 0184 E4000000 		.4byte	0xe4
 1659 0188 04       		.byte	0x4
 1660 0189 01       		.byte	0x1
 1661 018a 1F       		.byte	0x1f
 1662 018b 14       		.byte	0x14
 1663 018c 00       		.byte	0
 1664 018d 0D       		.uleb128 0xd
 1665 018e 04       		.byte	0x4
 1666 018f 02       		.uleb128 0x2
 1667 0190 6B010000 		.4byte	.LASF30
 1668 0194 07       		.byte	0x7
 1669 0195 33       		.byte	0x33
 1670 0196 35010000 		.4byte	0x135
 1671 019a 02       		.uleb128 0x2
 1672 019b 1A0F0000 		.4byte	.LASF31
 1673 019f 08       		.byte	0x8
 1674 01a0 D8       		.byte	0xd8
 1675 01a1 A6000000 		.4byte	0xa6
 1676 01a5 03       		.uleb128 0x3
 1677 01a6 08       		.byte	0x8
 1678 01a7 04       		.byte	0x4
 1679 01a8 8B1D0000 		.4byte	.LASF32
 1680 01ac 03       		.uleb128 0x3
 1681 01ad 04       		.byte	0x4
 1682 01ae 07       		.byte	0x7
 1683 01af 0B170000 		.4byte	.LASF33
 1684 01b3 07       		.uleb128 0x7
 1685 01b4 04       		.byte	0x4
 1686 01b5 B9010000 		.4byte	0x1b9
 1687 01b9 03       		.uleb128 0x3
 1688 01ba 01       		.byte	0x1
 1689 01bb 08       		.byte	0x8
 1690 01bc B91E0000 		.4byte	.LASF34
 1691 01c0 07       		.uleb128 0x7
 1692 01c1 04       		.byte	0x4
 1693 01c2 C6010000 		.4byte	0x1c6
 1694 01c6 0E       		.uleb128 0xe
 1695 01c7 B9010000 		.4byte	0x1b9
 1696 01cb 05       		.uleb128 0x5
 1697 01cc 01       		.byte	0x1
 1698 01cd 42000000 		.4byte	0x42
 1699 01d1 09       		.byte	0x9
 1700 01d2 25       		.byte	0x25
 1701 01d3 E4010000 		.4byte	0x1e4
 1702 01d7 06       		.uleb128 0x6
 1703 01d8 1B200000 		.4byte	.LASF35
 1704 01dc 00       		.byte	0
 1705 01dd 06       		.uleb128 0x6
 1706 01de 23250000 		.4byte	.LASF36
 1707 01e2 01       		.byte	0x1
 1708 01e3 00       		.byte	0
 1709 01e4 02       		.uleb128 0x2
 1710 01e5 61220000 		.4byte	.LASF37
 1711 01e9 09       		.byte	0x9
ARM GAS  C:\Users\haske\AppData\Local\Temp\cc65HANE.s 			page 53


 1712 01ea 28       		.byte	0x28
 1713 01eb CB010000 		.4byte	0x1cb
 1714 01ef 02       		.uleb128 0x2
 1715 01f0 810D0000 		.4byte	.LASF38
 1716 01f4 0A       		.byte	0xa
 1717 01f5 1B       		.byte	0x1b
 1718 01f6 C3000000 		.4byte	0xc3
 1719 01fa 0F       		.uleb128 0xf
 1720 01fb 04       		.byte	0x4
 1721 01fc 0A       		.byte	0xa
 1722 01fd 25       		.byte	0x25
 1723 01fe 17020000 		.4byte	0x217
 1724 0202 10       		.uleb128 0x10
 1725 0203 7800     		.ascii	"x\000"
 1726 0205 0A       		.byte	0xa
 1727 0206 26       		.byte	0x26
 1728 0207 EF010000 		.4byte	0x1ef
 1729 020b 00       		.byte	0
 1730 020c 10       		.uleb128 0x10
 1731 020d 7900     		.ascii	"y\000"
 1732 020f 0A       		.byte	0xa
 1733 0210 27       		.byte	0x27
 1734 0211 EF010000 		.4byte	0x1ef
 1735 0215 02       		.byte	0x2
 1736 0216 00       		.byte	0
 1737 0217 02       		.uleb128 0x2
 1738 0218 480B0000 		.4byte	.LASF39
 1739 021c 0A       		.byte	0xa
 1740 021d 28       		.byte	0x28
 1741 021e FA010000 		.4byte	0x1fa
 1742 0222 0F       		.uleb128 0xf
 1743 0223 08       		.byte	0x8
 1744 0224 0A       		.byte	0xa
 1745 0225 2B       		.byte	0x2b
 1746 0226 57020000 		.4byte	0x257
 1747 022a 10       		.uleb128 0x10
 1748 022b 783100   		.ascii	"x1\000"
 1749 022e 0A       		.byte	0xa
 1750 022f 2C       		.byte	0x2c
 1751 0230 EF010000 		.4byte	0x1ef
 1752 0234 00       		.byte	0
 1753 0235 10       		.uleb128 0x10
 1754 0236 793100   		.ascii	"y1\000"
 1755 0239 0A       		.byte	0xa
 1756 023a 2D       		.byte	0x2d
 1757 023b EF010000 		.4byte	0x1ef
 1758 023f 02       		.byte	0x2
 1759 0240 10       		.uleb128 0x10
 1760 0241 783200   		.ascii	"x2\000"
 1761 0244 0A       		.byte	0xa
 1762 0245 2E       		.byte	0x2e
 1763 0246 EF010000 		.4byte	0x1ef
 1764 024a 04       		.byte	0x4
 1765 024b 10       		.uleb128 0x10
 1766 024c 793200   		.ascii	"y2\000"
 1767 024f 0A       		.byte	0xa
 1768 0250 2F       		.byte	0x2f
ARM GAS  C:\Users\haske\AppData\Local\Temp\cc65HANE.s 			page 54


 1769 0251 EF010000 		.4byte	0x1ef
 1770 0255 06       		.byte	0x6
 1771 0256 00       		.byte	0
 1772 0257 02       		.uleb128 0x2
 1773 0258 E4180000 		.4byte	.LASF40
 1774 025c 0A       		.byte	0xa
 1775 025d 30       		.byte	0x30
 1776 025e 22020000 		.4byte	0x222
 1777 0262 05       		.uleb128 0x5
 1778 0263 01       		.byte	0x1
 1779 0264 42000000 		.4byte	0x42
 1780 0268 0A       		.byte	0xa
 1781 0269 4E       		.byte	0x4e
 1782 026a 9F020000 		.4byte	0x29f
 1783 026e 06       		.uleb128 0x6
 1784 026f 34140000 		.4byte	.LASF41
 1785 0273 00       		.byte	0
 1786 0274 06       		.uleb128 0x6
 1787 0275 41110000 		.4byte	.LASF42
 1788 0279 01       		.byte	0x1
 1789 027a 06       		.uleb128 0x6
 1790 027b CE240000 		.4byte	.LASF43
 1791 027f 02       		.byte	0x2
 1792 0280 06       		.uleb128 0x6
 1793 0281 48170000 		.4byte	.LASF44
 1794 0285 04       		.byte	0x4
 1795 0286 06       		.uleb128 0x6
 1796 0287 F0220000 		.4byte	.LASF45
 1797 028b 08       		.byte	0x8
 1798 028c 06       		.uleb128 0x6
 1799 028d 0A100000 		.4byte	.LASF46
 1800 0291 03       		.byte	0x3
 1801 0292 06       		.uleb128 0x6
 1802 0293 3F190000 		.4byte	.LASF47
 1803 0297 0C       		.byte	0xc
 1804 0298 06       		.uleb128 0x6
 1805 0299 1D1D0000 		.4byte	.LASF48
 1806 029d 0F       		.byte	0xf
 1807 029e 00       		.byte	0
 1808 029f 02       		.uleb128 0x2
 1809 02a0 DE000000 		.4byte	.LASF49
 1810 02a4 0A       		.byte	0xa
 1811 02a5 59       		.byte	0x59
 1812 02a6 B8000000 		.4byte	0xb8
 1813 02aa 0F       		.uleb128 0xf
 1814 02ab 10       		.byte	0x10
 1815 02ac 0B       		.byte	0xb
 1816 02ad 29       		.byte	0x29
 1817 02ae 19030000 		.4byte	0x319
 1818 02b2 0B       		.uleb128 0xb
 1819 02b3 98050000 		.4byte	.LASF50
 1820 02b7 0B       		.byte	0xb
 1821 02b8 2B       		.byte	0x2b
 1822 02b9 A1030000 		.4byte	0x3a1
 1823 02bd 00       		.byte	0
 1824 02be 0B       		.uleb128 0xb
 1825 02bf 76140000 		.4byte	.LASF51
ARM GAS  C:\Users\haske\AppData\Local\Temp\cc65HANE.s 			page 55


 1826 02c3 0B       		.byte	0xb
 1827 02c4 2C       		.byte	0x2c
 1828 02c5 CE000000 		.4byte	0xce
 1829 02c9 04       		.byte	0x4
 1830 02ca 0B       		.uleb128 0xb
 1831 02cb 6B0C0000 		.4byte	.LASF52
 1832 02cf 0B       		.byte	0xb
 1833 02d0 2D       		.byte	0x2d
 1834 02d1 CE000000 		.4byte	0xce
 1835 02d5 06       		.byte	0x6
 1836 02d6 0B       		.uleb128 0xb
 1837 02d7 420C0000 		.4byte	.LASF53
 1838 02db 0B       		.byte	0xb
 1839 02dc 2E       		.byte	0x2e
 1840 02dd CE000000 		.4byte	0xce
 1841 02e1 08       		.byte	0x8
 1842 02e2 0B       		.uleb128 0xb
 1843 02e3 3C170000 		.4byte	.LASF54
 1844 02e7 0B       		.byte	0xb
 1845 02e8 2F       		.byte	0x2f
 1846 02e9 C3000000 		.4byte	0xc3
 1847 02ed 0A       		.byte	0xa
 1848 02ee 0B       		.uleb128 0xb
 1849 02ef 42170000 		.4byte	.LASF55
 1850 02f3 0B       		.byte	0xb
 1851 02f4 30       		.byte	0x30
 1852 02f5 C3000000 		.4byte	0xc3
 1853 02f9 0C       		.byte	0xc
 1854 02fa 11       		.uleb128 0x11
 1855 02fb 62707000 		.ascii	"bpp\000"
 1856 02ff 0B       		.byte	0xb
 1857 0300 31       		.byte	0x31
 1858 0301 B8000000 		.4byte	0xb8
 1859 0305 01       		.byte	0x1
 1860 0306 04       		.byte	0x4
 1861 0307 04       		.byte	0x4
 1862 0308 0E       		.byte	0xe
 1863 0309 0C       		.uleb128 0xc
 1864 030a AE1C0000 		.4byte	.LASF57
 1865 030e 0B       		.byte	0xb
 1866 030f 32       		.byte	0x32
 1867 0310 B8000000 		.4byte	0xb8
 1868 0314 01       		.byte	0x1
 1869 0315 01       		.byte	0x1
 1870 0316 03       		.byte	0x3
 1871 0317 0E       		.byte	0xe
 1872 0318 00       		.byte	0
 1873 0319 0A       		.uleb128 0xa
 1874 031a 25240000 		.4byte	.LASF59
 1875 031e 1C       		.byte	0x1c
 1876 031f 0B       		.byte	0xb
 1877 0320 40       		.byte	0x40
 1878 0321 A1030000 		.4byte	0x3a1
 1879 0325 0B       		.uleb128 0xb
 1880 0326 03220000 		.4byte	.LASF60
 1881 032a 0B       		.byte	0xb
 1882 032b 42       		.byte	0x42
ARM GAS  C:\Users\haske\AppData\Local\Temp\cc65HANE.s 			page 56


 1883 032c E2030000 		.4byte	0x3e2
 1884 0330 00       		.byte	0
 1885 0331 0B       		.uleb128 0xb
 1886 0332 801C0000 		.4byte	.LASF61
 1887 0336 0B       		.byte	0xb
 1888 0337 45       		.byte	0x45
 1889 0338 07040000 		.4byte	0x407
 1890 033c 04       		.byte	0x4
 1891 033d 0B       		.uleb128 0xb
 1892 033e 0C1A0000 		.4byte	.LASF62
 1893 0342 0B       		.byte	0xb
 1894 0343 48       		.byte	0x48
 1895 0344 EF010000 		.4byte	0x1ef
 1896 0348 08       		.byte	0x8
 1897 0349 0B       		.uleb128 0xb
 1898 034a 851F0000 		.4byte	.LASF63
 1899 034e 0B       		.byte	0xb
 1900 034f 49       		.byte	0x49
 1901 0350 EF010000 		.4byte	0x1ef
 1902 0354 0A       		.byte	0xa
 1903 0355 0C       		.uleb128 0xc
 1904 0356 46040000 		.4byte	.LASF64
 1905 035a 0B       		.byte	0xb
 1906 035b 4A       		.byte	0x4a
 1907 035c B8000000 		.4byte	0xb8
 1908 0360 01       		.byte	0x1
 1909 0361 02       		.byte	0x2
 1910 0362 06       		.byte	0x6
 1911 0363 0C       		.byte	0xc
 1912 0364 0B       		.uleb128 0xb
 1913 0365 760A0000 		.4byte	.LASF65
 1914 0369 0B       		.byte	0xb
 1915 036a 4C       		.byte	0x4c
 1916 036b AD000000 		.4byte	0xad
 1917 036f 0D       		.byte	0xd
 1918 0370 0B       		.uleb128 0xb
 1919 0371 9C010000 		.4byte	.LASF66
 1920 0375 0B       		.byte	0xb
 1921 0376 4D       		.byte	0x4d
 1922 0377 AD000000 		.4byte	0xad
 1923 037b 0E       		.byte	0xe
 1924 037c 10       		.uleb128 0x10
 1925 037d 64736300 		.ascii	"dsc\000"
 1926 0381 0B       		.byte	0xb
 1927 0382 4F       		.byte	0x4f
 1928 0383 0D040000 		.4byte	0x40d
 1929 0387 10       		.byte	0x10
 1930 0388 0B       		.uleb128 0xb
 1931 0389 31040000 		.4byte	.LASF67
 1932 038d 0B       		.byte	0xb
 1933 038e 50       		.byte	0x50
 1934 038f A1030000 		.4byte	0x3a1
 1935 0393 14       		.byte	0x14
 1936 0394 0B       		.uleb128 0xb
 1937 0395 EC1C0000 		.4byte	.LASF28
 1938 0399 0B       		.byte	0xb
 1939 039a 52       		.byte	0x52
ARM GAS  C:\Users\haske\AppData\Local\Temp\cc65HANE.s 			page 57


 1940 039b 8D010000 		.4byte	0x18d
 1941 039f 18       		.byte	0x18
 1942 03a0 00       		.byte	0
 1943 03a1 07       		.uleb128 0x7
 1944 03a2 04       		.byte	0x4
 1945 03a3 A7030000 		.4byte	0x3a7
 1946 03a7 0E       		.uleb128 0xe
 1947 03a8 19030000 		.4byte	0x319
 1948 03ac 02       		.uleb128 0x2
 1949 03ad 4C020000 		.4byte	.LASF68
 1950 03b1 0B       		.byte	0xb
 1951 03b2 33       		.byte	0x33
 1952 03b3 AA020000 		.4byte	0x2aa
 1953 03b7 12       		.uleb128 0x12
 1954 03b8 D5030000 		.4byte	0x3d5
 1955 03bc D5030000 		.4byte	0x3d5
 1956 03c0 09       		.uleb128 0x9
 1957 03c1 A1030000 		.4byte	0x3a1
 1958 03c5 09       		.uleb128 0x9
 1959 03c6 DC030000 		.4byte	0x3dc
 1960 03ca 09       		.uleb128 0x9
 1961 03cb E4000000 		.4byte	0xe4
 1962 03cf 09       		.uleb128 0x9
 1963 03d0 E4000000 		.4byte	0xe4
 1964 03d4 00       		.byte	0
 1965 03d5 03       		.uleb128 0x3
 1966 03d6 01       		.byte	0x1
 1967 03d7 02       		.byte	0x2
 1968 03d8 24010000 		.4byte	.LASF69
 1969 03dc 07       		.uleb128 0x7
 1970 03dd 04       		.byte	0x4
 1971 03de AC030000 		.4byte	0x3ac
 1972 03e2 07       		.uleb128 0x7
 1973 03e3 04       		.byte	0x4
 1974 03e4 B7030000 		.4byte	0x3b7
 1975 03e8 12       		.uleb128 0x12
 1976 03e9 FC030000 		.4byte	0x3fc
 1977 03ed FC030000 		.4byte	0x3fc
 1978 03f1 09       		.uleb128 0x9
 1979 03f2 A1030000 		.4byte	0x3a1
 1980 03f6 09       		.uleb128 0x9
 1981 03f7 E4000000 		.4byte	0xe4
 1982 03fb 00       		.byte	0
 1983 03fc 07       		.uleb128 0x7
 1984 03fd 04       		.byte	0x4
 1985 03fe 02040000 		.4byte	0x402
 1986 0402 0E       		.uleb128 0xe
 1987 0403 B8000000 		.4byte	0xb8
 1988 0407 07       		.uleb128 0x7
 1989 0408 04       		.byte	0x4
 1990 0409 E8030000 		.4byte	0x3e8
 1991 040d 07       		.uleb128 0x7
 1992 040e 04       		.byte	0x4
 1993 040f 13040000 		.4byte	0x413
 1994 0413 13       		.uleb128 0x13
 1995 0414 02       		.uleb128 0x2
 1996 0415 C21A0000 		.4byte	.LASF70
ARM GAS  C:\Users\haske\AppData\Local\Temp\cc65HANE.s 			page 58


 1997 0419 0B       		.byte	0xb
 1998 041a 54       		.byte	0x54
 1999 041b 19030000 		.4byte	0x319
 2000 041f 0F       		.uleb128 0xf
 2001 0420 02       		.byte	0x2
 2002 0421 0C       		.byte	0xc
 2003 0422 D1       		.byte	0xd1
 2004 0423 55040000 		.4byte	0x455
 2005 0427 0C       		.uleb128 0xc
 2006 0428 3A290000 		.4byte	.LASF71
 2007 042c 0C       		.byte	0xc
 2008 042d D3       		.byte	0xd3
 2009 042e CE000000 		.4byte	0xce
 2010 0432 02       		.byte	0x2
 2011 0433 05       		.byte	0x5
 2012 0434 0B       		.byte	0xb
 2013 0435 00       		.byte	0
 2014 0436 0C       		.uleb128 0xc
 2015 0437 DE180000 		.4byte	.LASF72
 2016 043b 0C       		.byte	0xc
 2017 043c D4       		.byte	0xd4
 2018 043d CE000000 		.4byte	0xce
 2019 0441 02       		.byte	0x2
 2020 0442 06       		.byte	0x6
 2021 0443 05       		.byte	0x5
 2022 0444 00       		.byte	0
 2023 0445 11       		.uleb128 0x11
 2024 0446 72656400 		.ascii	"red\000"
 2025 044a 0C       		.byte	0xc
 2026 044b D5       		.byte	0xd5
 2027 044c CE000000 		.4byte	0xce
 2028 0450 02       		.byte	0x2
 2029 0451 05       		.byte	0x5
 2030 0452 00       		.byte	0
 2031 0453 00       		.byte	0
 2032 0454 00       		.byte	0
 2033 0455 14       		.uleb128 0x14
 2034 0456 02       		.byte	0x2
 2035 0457 0C       		.byte	0xc
 2036 0458 D0       		.byte	0xd0
 2037 0459 73040000 		.4byte	0x473
 2038 045d 15       		.uleb128 0x15
 2039 045e 636800   		.ascii	"ch\000"
 2040 0461 0C       		.byte	0xc
 2041 0462 DC       		.byte	0xdc
 2042 0463 1F040000 		.4byte	0x41f
 2043 0467 16       		.uleb128 0x16
 2044 0468 3A190000 		.4byte	.LASF73
 2045 046c 0C       		.byte	0xc
 2046 046d DD       		.byte	0xdd
 2047 046e CE000000 		.4byte	0xce
 2048 0472 00       		.byte	0
 2049 0473 02       		.uleb128 0x2
 2050 0474 950C0000 		.4byte	.LASF74
 2051 0478 0C       		.byte	0xc
 2052 0479 DE       		.byte	0xde
 2053 047a 55040000 		.4byte	0x455
ARM GAS  C:\Users\haske\AppData\Local\Temp\cc65HANE.s 			page 59


 2054 047e 02       		.uleb128 0x2
 2055 047f 370C0000 		.4byte	.LASF75
 2056 0483 0C       		.byte	0xc
 2057 0484 EB       		.byte	0xeb
 2058 0485 73040000 		.4byte	0x473
 2059 0489 02       		.uleb128 0x2
 2060 048a F61C0000 		.4byte	.LASF76
 2061 048e 0C       		.byte	0xc
 2062 048f F5       		.byte	0xf5
 2063 0490 B8000000 		.4byte	0xb8
 2064 0494 02       		.uleb128 0x2
 2065 0495 710C0000 		.4byte	.LASF77
 2066 0499 0D       		.byte	0xd
 2067 049a 30       		.byte	0x30
 2068 049b B8000000 		.4byte	0xb8
 2069 049f 02       		.uleb128 0x2
 2070 04a0 B7000000 		.4byte	.LASF78
 2071 04a4 0D       		.byte	0xd
 2072 04a5 42       		.byte	0x42
 2073 04a6 B8000000 		.4byte	0xb8
 2074 04aa 05       		.uleb128 0x5
 2075 04ab 01       		.byte	0x1
 2076 04ac 42000000 		.4byte	0x42
 2077 04b0 0E       		.byte	0xe
 2078 04b1 21       		.byte	0x21
 2079 04b2 D5040000 		.4byte	0x4d5
 2080 04b6 06       		.uleb128 0x6
 2081 04b7 5B1F0000 		.4byte	.LASF79
 2082 04bb 00       		.byte	0
 2083 04bc 06       		.uleb128 0x6
 2084 04bd 1B0C0000 		.4byte	.LASF80
 2085 04c1 01       		.byte	0x1
 2086 04c2 06       		.uleb128 0x6
 2087 04c3 A91F0000 		.4byte	.LASF81
 2088 04c7 02       		.byte	0x2
 2089 04c8 06       		.uleb128 0x6
 2090 04c9 E5150000 		.4byte	.LASF82
 2091 04cd 20       		.byte	0x20
 2092 04ce 06       		.uleb128 0x6
 2093 04cf 7C130000 		.4byte	.LASF83
 2094 04d3 21       		.byte	0x21
 2095 04d4 00       		.byte	0
 2096 04d5 02       		.uleb128 0x2
 2097 04d6 1F210000 		.4byte	.LASF84
 2098 04da 0E       		.byte	0xe
 2099 04db 2A       		.byte	0x2a
 2100 04dc B8000000 		.4byte	0xb8
 2101 04e0 02       		.uleb128 0x2
 2102 04e1 4C280000 		.4byte	.LASF85
 2103 04e5 0F       		.byte	0xf
 2104 04e6 5E       		.byte	0x5e
 2105 04e7 B8000000 		.4byte	0xb8
 2106 04eb 02       		.uleb128 0x2
 2107 04ec EF0A0000 		.4byte	.LASF86
 2108 04f0 0F       		.byte	0xf
 2109 04f1 6A       		.byte	0x6a
 2110 04f2 B8000000 		.4byte	0xb8
ARM GAS  C:\Users\haske\AppData\Local\Temp\cc65HANE.s 			page 60


 2111 04f6 02       		.uleb128 0x2
 2112 04f7 650A0000 		.4byte	.LASF87
 2113 04fb 0F       		.byte	0xf
 2114 04fc 79       		.byte	0x79
 2115 04fd B8000000 		.4byte	0xb8
 2116 0501 02       		.uleb128 0x2
 2117 0502 C4080000 		.4byte	.LASF88
 2118 0506 0F       		.byte	0xf
 2119 0507 84       		.byte	0x84
 2120 0508 B8000000 		.4byte	0xb8
 2121 050c 02       		.uleb128 0x2
 2122 050d 2D210000 		.4byte	.LASF89
 2123 0511 0F       		.byte	0xf
 2124 0512 90       		.byte	0x90
 2125 0513 B8000000 		.4byte	0xb8
 2126 0517 0F       		.uleb128 0xf
 2127 0518 04       		.byte	0x4
 2128 0519 0F       		.byte	0xf
 2129 051a 95       		.byte	0x95
 2130 051b 38050000 		.4byte	0x538
 2131 051f 0B       		.uleb128 0xb
 2132 0520 551F0000 		.4byte	.LASF90
 2133 0524 0F       		.byte	0xf
 2134 0525 96       		.byte	0x96
 2135 0526 7E040000 		.4byte	0x47e
 2136 052a 00       		.byte	0
 2137 052b 0B       		.uleb128 0xb
 2138 052c 3A040000 		.4byte	.LASF91
 2139 0530 0F       		.byte	0xf
 2140 0531 97       		.byte	0x97
 2141 0532 B8000000 		.4byte	0xb8
 2142 0536 02       		.byte	0x2
 2143 0537 00       		.byte	0
 2144 0538 02       		.uleb128 0x2
 2145 0539 26180000 		.4byte	.LASF92
 2146 053d 0F       		.byte	0xf
 2147 053e 98       		.byte	0x98
 2148 053f 17050000 		.4byte	0x517
 2149 0543 0F       		.uleb128 0xf
 2150 0544 0A       		.byte	0xa
 2151 0545 0F       		.byte	0xf
 2152 0546 9B       		.byte	0x9b
 2153 0547 82050000 		.4byte	0x582
 2154 054b 0B       		.uleb128 0xb
 2155 054c 9E260000 		.4byte	.LASF93
 2156 0550 0F       		.byte	0xf
 2157 0551 9C       		.byte	0x9c
 2158 0552 82050000 		.4byte	0x582
 2159 0556 00       		.byte	0
 2160 0557 0B       		.uleb128 0xb
 2161 0558 37130000 		.4byte	.LASF94
 2162 055c 0F       		.byte	0xf
 2163 055d 9D       		.byte	0x9d
 2164 055e B8000000 		.4byte	0xb8
 2165 0562 08       		.byte	0x8
 2166 0563 11       		.uleb128 0x11
 2167 0564 64697200 		.ascii	"dir\000"
ARM GAS  C:\Users\haske\AppData\Local\Temp\cc65HANE.s 			page 61


 2168 0568 0F       		.byte	0xf
 2169 0569 9E       		.byte	0x9e
 2170 056a 01050000 		.4byte	0x501
 2171 056e 01       		.byte	0x1
 2172 056f 03       		.byte	0x3
 2173 0570 05       		.byte	0x5
 2174 0571 09       		.byte	0x9
 2175 0572 0C       		.uleb128 0xc
 2176 0573 4E270000 		.4byte	.LASF95
 2177 0577 0F       		.byte	0xf
 2178 0578 A0       		.byte	0xa0
 2179 0579 0C050000 		.4byte	0x50c
 2180 057d 01       		.byte	0x1
 2181 057e 03       		.byte	0x3
 2182 057f 02       		.byte	0x2
 2183 0580 09       		.byte	0x9
 2184 0581 00       		.byte	0
 2185 0582 17       		.uleb128 0x17
 2186 0583 38050000 		.4byte	0x538
 2187 0587 92050000 		.4byte	0x592
 2188 058b 18       		.uleb128 0x18
 2189 058c AC010000 		.4byte	0x1ac
 2190 0590 01       		.byte	0x1
 2191 0591 00       		.byte	0
 2192 0592 02       		.uleb128 0x2
 2193 0593 5A190000 		.4byte	.LASF96
 2194 0597 0F       		.byte	0xf
 2195 0598 A2       		.byte	0xa2
 2196 0599 43050000 		.4byte	0x543
 2197 059d 14       		.uleb128 0x14
 2198 059e 04       		.byte	0x4
 2199 059f 0F       		.byte	0xf
 2200 05a0 A7       		.byte	0xa7
 2201 05a1 C7050000 		.4byte	0x5c7
 2202 05a5 15       		.uleb128 0x15
 2203 05a6 6E756D00 		.ascii	"num\000"
 2204 05aa 0F       		.byte	0xf
 2205 05ab A8       		.byte	0xa8
 2206 05ac D9000000 		.4byte	0xd9
 2207 05b0 15       		.uleb128 0x15
 2208 05b1 70747200 		.ascii	"ptr\000"
 2209 05b5 0F       		.byte	0xf
 2210 05b6 A9       		.byte	0xa9
 2211 05b7 0D040000 		.4byte	0x40d
 2212 05bb 16       		.uleb128 0x16
 2213 05bc 551F0000 		.4byte	.LASF90
 2214 05c0 0F       		.byte	0xf
 2215 05c1 AA       		.byte	0xaa
 2216 05c2 7E040000 		.4byte	0x47e
 2217 05c6 00       		.byte	0
 2218 05c7 02       		.uleb128 0x2
 2219 05c8 89290000 		.4byte	.LASF97
 2220 05cc 0F       		.byte	0xf
 2221 05cd AB       		.byte	0xab
 2222 05ce 9D050000 		.4byte	0x59d
 2223 05d2 05       		.uleb128 0x5
 2224 05d3 02       		.byte	0x2
ARM GAS  C:\Users\haske\AppData\Local\Temp\cc65HANE.s 			page 62


 2225 05d4 66000000 		.4byte	0x66
 2226 05d8 0F       		.byte	0xf
 2227 05d9 B2       		.byte	0xb2
 2228 05da F7070000 		.4byte	0x7f7
 2229 05de 06       		.uleb128 0x6
 2230 05df 412A0000 		.4byte	.LASF98
 2231 05e3 00       		.byte	0
 2232 05e4 06       		.uleb128 0x6
 2233 05e5 0F1F0000 		.4byte	.LASF99
 2234 05e9 01       		.byte	0x1
 2235 05ea 06       		.uleb128 0x6
 2236 05eb C7060000 		.4byte	.LASF100
 2237 05ef 02       		.byte	0x2
 2238 05f0 06       		.uleb128 0x6
 2239 05f1 AB040000 		.4byte	.LASF101
 2240 05f5 03       		.byte	0x3
 2241 05f6 06       		.uleb128 0x6
 2242 05f7 F9070000 		.4byte	.LASF102
 2243 05fb 04       		.byte	0x4
 2244 05fc 06       		.uleb128 0x6
 2245 05fd 5C2C0000 		.4byte	.LASF103
 2246 0601 05       		.byte	0x5
 2247 0602 06       		.uleb128 0x6
 2248 0603 0B1C0000 		.4byte	.LASF104
 2249 0607 06       		.byte	0x6
 2250 0608 06       		.uleb128 0x6
 2251 0609 57070000 		.4byte	.LASF105
 2252 060d 07       		.byte	0x7
 2253 060e 06       		.uleb128 0x6
 2254 060f 62070000 		.4byte	.LASF106
 2255 0613 08       		.byte	0x8
 2256 0614 06       		.uleb128 0x6
 2257 0615 D1160000 		.4byte	.LASF107
 2258 0619 09       		.byte	0x9
 2259 061a 06       		.uleb128 0x6
 2260 061b 6E000000 		.4byte	.LASF108
 2261 061f 0A       		.byte	0xa
 2262 0620 06       		.uleb128 0x6
 2263 0621 51220000 		.4byte	.LASF109
 2264 0625 0B       		.byte	0xb
 2265 0626 06       		.uleb128 0x6
 2266 0627 4A200000 		.4byte	.LASF110
 2267 062b 10       		.byte	0x10
 2268 062c 06       		.uleb128 0x6
 2269 062d 73260000 		.4byte	.LASF111
 2270 0631 11       		.byte	0x11
 2271 0632 06       		.uleb128 0x6
 2272 0633 74210000 		.4byte	.LASF112
 2273 0637 12       		.byte	0x12
 2274 0638 06       		.uleb128 0x6
 2275 0639 C2150000 		.4byte	.LASF113
 2276 063d 13       		.byte	0x13
 2277 063e 06       		.uleb128 0x6
 2278 063f FA160000 		.4byte	.LASF114
 2279 0643 14       		.byte	0x14
 2280 0644 06       		.uleb128 0x6
 2281 0645 22020000 		.4byte	.LASF115
ARM GAS  C:\Users\haske\AppData\Local\Temp\cc65HANE.s 			page 63


 2282 0649 15       		.byte	0x15
 2283 064a 06       		.uleb128 0x6
 2284 064b AB150000 		.4byte	.LASF116
 2285 064f 16       		.byte	0x16
 2286 0650 06       		.uleb128 0x6
 2287 0651 59240000 		.4byte	.LASF117
 2288 0655 17       		.byte	0x17
 2289 0656 06       		.uleb128 0x6
 2290 0657 7C270000 		.4byte	.LASF118
 2291 065b 20       		.byte	0x20
 2292 065c 06       		.uleb128 0x6
 2293 065d 21170000 		.4byte	.LASF119
 2294 0661 21       		.byte	0x21
 2295 0662 06       		.uleb128 0x6
 2296 0663 78070000 		.4byte	.LASF120
 2297 0667 22       		.byte	0x22
 2298 0668 06       		.uleb128 0x6
 2299 0669 3C080000 		.4byte	.LASF121
 2300 066d 23       		.byte	0x23
 2301 066e 06       		.uleb128 0x6
 2302 066f E6010000 		.4byte	.LASF122
 2303 0673 24       		.byte	0x24
 2304 0674 06       		.uleb128 0x6
 2305 0675 E5110000 		.4byte	.LASF123
 2306 0679 25       		.byte	0x25
 2307 067a 06       		.uleb128 0x6
 2308 067b CC170000 		.4byte	.LASF124
 2309 067f 26       		.byte	0x26
 2310 0680 06       		.uleb128 0x6
 2311 0681 6C0F0000 		.4byte	.LASF125
 2312 0685 27       		.byte	0x27
 2313 0686 06       		.uleb128 0x6
 2314 0687 38150000 		.4byte	.LASF126
 2315 068b 28       		.byte	0x28
 2316 068c 06       		.uleb128 0x6
 2317 068d E0020000 		.4byte	.LASF127
 2318 0691 29       		.byte	0x29
 2319 0692 06       		.uleb128 0x6
 2320 0693 D70A0000 		.4byte	.LASF128
 2321 0697 2A       		.byte	0x2a
 2322 0698 06       		.uleb128 0x6
 2323 0699 C6270000 		.4byte	.LASF129
 2324 069d 2B       		.byte	0x2b
 2325 069e 06       		.uleb128 0x6
 2326 069f 0B150000 		.4byte	.LASF130
 2327 06a3 2C       		.byte	0x2c
 2328 06a4 06       		.uleb128 0x6
 2329 06a5 55270000 		.4byte	.LASF131
 2330 06a9 30       		.byte	0x30
 2331 06aa 06       		.uleb128 0x6
 2332 06ab 12180000 		.4byte	.LASF132
 2333 06af 31       		.byte	0x31
 2334 06b0 06       		.uleb128 0x6
 2335 06b1 B2180000 		.4byte	.LASF133
 2336 06b5 32       		.byte	0x32
 2337 06b6 06       		.uleb128 0x6
 2338 06b7 230E0000 		.4byte	.LASF134
ARM GAS  C:\Users\haske\AppData\Local\Temp\cc65HANE.s 			page 64


 2339 06bb 33       		.byte	0x33
 2340 06bc 06       		.uleb128 0x6
 2341 06bd CE1F0000 		.4byte	.LASF135
 2342 06c1 34       		.byte	0x34
 2343 06c2 06       		.uleb128 0x6
 2344 06c3 8D130000 		.4byte	.LASF136
 2345 06c7 35       		.byte	0x35
 2346 06c8 06       		.uleb128 0x6
 2347 06c9 D9220000 		.4byte	.LASF137
 2348 06cd 36       		.byte	0x36
 2349 06ce 06       		.uleb128 0x6
 2350 06cf DB2B0000 		.4byte	.LASF138
 2351 06d3 37       		.byte	0x37
 2352 06d4 06       		.uleb128 0x6
 2353 06d5 3A250000 		.4byte	.LASF139
 2354 06d9 38       		.byte	0x38
 2355 06da 06       		.uleb128 0x6
 2356 06db 832C0000 		.4byte	.LASF140
 2357 06df 40       		.byte	0x40
 2358 06e0 06       		.uleb128 0x6
 2359 06e1 3C1E0000 		.4byte	.LASF141
 2360 06e5 41       		.byte	0x41
 2361 06e6 06       		.uleb128 0x6
 2362 06e7 521E0000 		.4byte	.LASF142
 2363 06eb 42       		.byte	0x42
 2364 06ec 06       		.uleb128 0x6
 2365 06ed 251F0000 		.4byte	.LASF143
 2366 06f1 43       		.byte	0x43
 2367 06f2 06       		.uleb128 0x6
 2368 06f3 6B0D0000 		.4byte	.LASF144
 2369 06f7 44       		.byte	0x44
 2370 06f8 06       		.uleb128 0x6
 2371 06f9 6C1C0000 		.4byte	.LASF145
 2372 06fd 45       		.byte	0x45
 2373 06fe 06       		.uleb128 0x6
 2374 06ff 77250000 		.4byte	.LASF146
 2375 0703 46       		.byte	0x46
 2376 0704 06       		.uleb128 0x6
 2377 0705 420A0000 		.4byte	.LASF147
 2378 0709 47       		.byte	0x47
 2379 070a 06       		.uleb128 0x6
 2380 070b 30260000 		.4byte	.LASF148
 2381 070f 48       		.byte	0x48
 2382 0710 06       		.uleb128 0x6
 2383 0711 88040000 		.4byte	.LASF149
 2384 0715 49       		.byte	0x49
 2385 0716 06       		.uleb128 0x6
 2386 0717 530F0000 		.4byte	.LASF150
 2387 071b 4A       		.byte	0x4a
 2388 071c 06       		.uleb128 0x6
 2389 071d 93210000 		.4byte	.LASF151
 2390 0721 4B       		.byte	0x4b
 2391 0722 06       		.uleb128 0x6
 2392 0723 D2040000 		.4byte	.LASF152
 2393 0727 4C       		.byte	0x4c
 2394 0728 06       		.uleb128 0x6
 2395 0729 36120000 		.4byte	.LASF153
ARM GAS  C:\Users\haske\AppData\Local\Temp\cc65HANE.s 			page 65


 2396 072d 4D       		.byte	0x4d
 2397 072e 06       		.uleb128 0x6
 2398 072f 921E0000 		.4byte	.LASF154
 2399 0733 4E       		.byte	0x4e
 2400 0734 06       		.uleb128 0x6
 2401 0735 BB2B0000 		.4byte	.LASF155
 2402 0739 50       		.byte	0x50
 2403 073a 06       		.uleb128 0x6
 2404 073b 271E0000 		.4byte	.LASF156
 2405 073f 51       		.byte	0x51
 2406 0740 06       		.uleb128 0x6
 2407 0741 CB0C0000 		.4byte	.LASF157
 2408 0745 52       		.byte	0x52
 2409 0746 06       		.uleb128 0x6
 2410 0747 310A0000 		.4byte	.LASF158
 2411 074b 53       		.byte	0x53
 2412 074c 06       		.uleb128 0x6
 2413 074d 04250000 		.4byte	.LASF159
 2414 0751 54       		.byte	0x54
 2415 0752 06       		.uleb128 0x6
 2416 0753 BA1F0000 		.4byte	.LASF160
 2417 0757 55       		.byte	0x55
 2418 0758 06       		.uleb128 0x6
 2419 0759 240D0000 		.4byte	.LASF161
 2420 075d 56       		.byte	0x56
 2421 075e 06       		.uleb128 0x6
 2422 075f E2030000 		.4byte	.LASF162
 2423 0763 57       		.byte	0x57
 2424 0764 06       		.uleb128 0x6
 2425 0765 26110000 		.4byte	.LASF163
 2426 0769 58       		.byte	0x58
 2427 076a 06       		.uleb128 0x6
 2428 076b F9290000 		.4byte	.LASF164
 2429 076f 59       		.byte	0x59
 2430 0770 06       		.uleb128 0x6
 2431 0771 380E0000 		.4byte	.LASF165
 2432 0775 5A       		.byte	0x5a
 2433 0776 06       		.uleb128 0x6
 2434 0777 4D090000 		.4byte	.LASF166
 2435 077b 5B       		.byte	0x5b
 2436 077c 06       		.uleb128 0x6
 2437 077d 7D050000 		.4byte	.LASF167
 2438 0781 60       		.byte	0x60
 2439 0782 06       		.uleb128 0x6
 2440 0783 E22A0000 		.4byte	.LASF168
 2441 0787 61       		.byte	0x61
 2442 0788 06       		.uleb128 0x6
 2443 0789 6A2B0000 		.4byte	.LASF169
 2444 078d 62       		.byte	0x62
 2445 078e 06       		.uleb128 0x6
 2446 078f B5210000 		.4byte	.LASF170
 2447 0793 63       		.byte	0x63
 2448 0794 06       		.uleb128 0x6
 2449 0795 D2110000 		.4byte	.LASF171
 2450 0799 64       		.byte	0x64
 2451 079a 06       		.uleb128 0x6
 2452 079b E6050000 		.4byte	.LASF172
ARM GAS  C:\Users\haske\AppData\Local\Temp\cc65HANE.s 			page 66


 2453 079f 65       		.byte	0x65
 2454 07a0 06       		.uleb128 0x6
 2455 07a1 97150000 		.4byte	.LASF173
 2456 07a5 66       		.byte	0x66
 2457 07a6 06       		.uleb128 0x6
 2458 07a7 DA060000 		.4byte	.LASF174
 2459 07ab 67       		.byte	0x67
 2460 07ac 06       		.uleb128 0x6
 2461 07ad 5E040000 		.4byte	.LASF175
 2462 07b1 68       		.byte	0x68
 2463 07b2 06       		.uleb128 0x6
 2464 07b3 60020000 		.4byte	.LASF176
 2465 07b7 69       		.byte	0x69
 2466 07b8 06       		.uleb128 0x6
 2467 07b9 D4100000 		.4byte	.LASF177
 2468 07bd 6A       		.byte	0x6a
 2469 07be 06       		.uleb128 0x6
 2470 07bf E9100000 		.4byte	.LASF178
 2471 07c3 6B       		.byte	0x6b
 2472 07c4 06       		.uleb128 0x6
 2473 07c5 32200000 		.4byte	.LASF179
 2474 07c9 6C       		.byte	0x6c
 2475 07ca 06       		.uleb128 0x6
 2476 07cb 77220000 		.4byte	.LASF180
 2477 07cf 6D       		.byte	0x6d
 2478 07d0 06       		.uleb128 0x6
 2479 07d1 B5200000 		.4byte	.LASF181
 2480 07d5 6E       		.byte	0x6e
 2481 07d6 06       		.uleb128 0x6
 2482 07d7 D0200000 		.4byte	.LASF182
 2483 07db 6F       		.byte	0x6f
 2484 07dc 06       		.uleb128 0x6
 2485 07dd FF0A0000 		.4byte	.LASF183
 2486 07e1 6F       		.byte	0x6f
 2487 07e2 06       		.uleb128 0x6
 2488 07e3 B5110000 		.4byte	.LASF184
 2489 07e7 70       		.byte	0x70
 2490 07e8 19       		.uleb128 0x19
 2491 07e9 A6070000 		.4byte	.LASF185
 2492 07ed FFFF     		.2byte	0xffff
 2493 07ef 19       		.uleb128 0x19
 2494 07f0 60050000 		.4byte	.LASF186
 2495 07f4 FFFF     		.2byte	0xffff
 2496 07f6 00       		.byte	0
 2497 07f7 1A       		.uleb128 0x1a
 2498 07f8 961B0000 		.4byte	.LASF187
 2499 07fc 0F       		.byte	0xf
 2500 07fd 1C01     		.2byte	0x11c
 2501 07ff D2050000 		.4byte	0x5d2
 2502 0803 1B       		.uleb128 0x1b
 2503 0804 08       		.byte	0x8
 2504 0805 0F       		.byte	0xf
 2505 0806 3601     		.2byte	0x136
 2506 0808 27080000 		.4byte	0x827
 2507 080c 1C       		.uleb128 0x1c
 2508 080d 7C060000 		.4byte	.LASF188
 2509 0811 0F       		.byte	0xf
ARM GAS  C:\Users\haske\AppData\Local\Temp\cc65HANE.s 			page 67


 2510 0812 3701     		.2byte	0x137
 2511 0814 F7070000 		.4byte	0x7f7
 2512 0818 00       		.byte	0
 2513 0819 1C       		.uleb128 0x1c
 2514 081a 72120000 		.4byte	.LASF189
 2515 081e 0F       		.byte	0xf
 2516 081f 3801     		.2byte	0x138
 2517 0821 C7050000 		.4byte	0x5c7
 2518 0825 04       		.byte	0x4
 2519 0826 00       		.byte	0
 2520 0827 1A       		.uleb128 0x1a
 2521 0828 5E160000 		.4byte	.LASF190
 2522 082c 0F       		.byte	0xf
 2523 082d 3901     		.2byte	0x139
 2524 082f 03080000 		.4byte	0x803
 2525 0833 1D       		.uleb128 0x1d
 2526 0834 04       		.byte	0x4
 2527 0835 0F       		.byte	0xf
 2528 0836 4601     		.2byte	0x146
 2529 0838 61080000 		.4byte	0x861
 2530 083c 1E       		.uleb128 0x1e
 2531 083d 59050000 		.4byte	.LASF191
 2532 0841 0F       		.byte	0xf
 2533 0842 4701     		.2byte	0x147
 2534 0844 C7050000 		.4byte	0x5c7
 2535 0848 1E       		.uleb128 0x1e
 2536 0849 29190000 		.4byte	.LASF192
 2537 084d 0F       		.byte	0xf
 2538 084e 4801     		.2byte	0x148
 2539 0850 61080000 		.4byte	0x861
 2540 0854 1E       		.uleb128 0x1e
 2541 0855 1F2C0000 		.4byte	.LASF193
 2542 0859 0F       		.byte	0xf
 2543 085a 4901     		.2byte	0x149
 2544 085c 67080000 		.4byte	0x867
 2545 0860 00       		.byte	0
 2546 0861 07       		.uleb128 0x7
 2547 0862 04       		.byte	0x4
 2548 0863 B8000000 		.4byte	0xb8
 2549 0867 07       		.uleb128 0x7
 2550 0868 04       		.byte	0x4
 2551 0869 6D080000 		.4byte	0x86d
 2552 086d 0E       		.uleb128 0xe
 2553 086e 27080000 		.4byte	0x827
 2554 0872 1B       		.uleb128 0x1b
 2555 0873 08       		.byte	0x8
 2556 0874 0F       		.byte	0xf
 2557 0875 3E01     		.2byte	0x13e
 2558 0877 B0080000 		.4byte	0x8b0
 2559 087b 1F       		.uleb128 0x1f
 2560 087c 765F7000 		.ascii	"v_p\000"
 2561 0880 0F       		.byte	0xf
 2562 0881 4A01     		.2byte	0x14a
 2563 0883 33080000 		.4byte	0x833
 2564 0887 00       		.byte	0
 2565 0888 1C       		.uleb128 0x1c
 2566 0889 04160000 		.4byte	.LASF194
ARM GAS  C:\Users\haske\AppData\Local\Temp\cc65HANE.s 			page 68


 2567 088d 0F       		.byte	0xf
 2568 088e 4C01     		.2byte	0x14c
 2569 0890 CE000000 		.4byte	0xce
 2570 0894 04       		.byte	0x4
 2571 0895 1C       		.uleb128 0x1c
 2572 0896 E7000000 		.4byte	.LASF195
 2573 089a 0F       		.byte	0xf
 2574 089b 4D01     		.2byte	0x14d
 2575 089d B8000000 		.4byte	0xb8
 2576 08a1 06       		.byte	0x6
 2577 08a2 1C       		.uleb128 0x1c
 2578 08a3 7A100000 		.4byte	.LASF196
 2579 08a7 0F       		.byte	0xf
 2580 08a8 4E01     		.2byte	0x14e
 2581 08aa B8000000 		.4byte	0xb8
 2582 08ae 07       		.byte	0x7
 2583 08af 00       		.byte	0
 2584 08b0 1A       		.uleb128 0x1a
 2585 08b1 6B1F0000 		.4byte	.LASF197
 2586 08b5 0F       		.byte	0xf
 2587 08b6 4F01     		.2byte	0x14f
 2588 08b8 72080000 		.4byte	0x872
 2589 08bc 02       		.uleb128 0x2
 2590 08bd 982A0000 		.4byte	.LASF198
 2591 08c1 10       		.byte	0x10
 2592 08c2 69       		.byte	0x69
 2593 08c3 B8000000 		.4byte	0xb8
 2594 08c7 07       		.uleb128 0x7
 2595 08c8 04       		.byte	0x4
 2596 08c9 CD080000 		.4byte	0x8cd
 2597 08cd 0A       		.uleb128 0xa
 2598 08ce 93170000 		.4byte	.LASF199
 2599 08d2 24       		.byte	0x24
 2600 08d3 11       		.byte	0x11
 2601 08d4 AE       		.byte	0xae
 2602 08d5 94090000 		.4byte	0x994
 2603 08d9 0B       		.uleb128 0xb
 2604 08da A61C0000 		.4byte	.LASF200
 2605 08de 11       		.byte	0x11
 2606 08df AF       		.byte	0xaf
 2607 08e0 3F200000 		.4byte	0x203f
 2608 08e4 00       		.byte	0
 2609 08e5 0B       		.uleb128 0xb
 2610 08e6 DB250000 		.4byte	.LASF201
 2611 08ea 11       		.byte	0x11
 2612 08eb B0       		.byte	0xb0
 2613 08ec C7080000 		.4byte	0x8c7
 2614 08f0 04       		.byte	0x4
 2615 08f1 0B       		.uleb128 0xb
 2616 08f2 A12C0000 		.4byte	.LASF202
 2617 08f6 11       		.byte	0x11
 2618 08f7 B1       		.byte	0xb1
 2619 08f8 4A200000 		.4byte	0x204a
 2620 08fc 08       		.byte	0x8
 2621 08fd 0B       		.uleb128 0xb
 2622 08fe 3F040000 		.4byte	.LASF203
 2623 0902 11       		.byte	0x11
ARM GAS  C:\Users\haske\AppData\Local\Temp\cc65HANE.s 			page 69


 2624 0903 B2       		.byte	0xb2
 2625 0904 50200000 		.4byte	0x2050
 2626 0908 0C       		.byte	0xc
 2627 0909 0B       		.uleb128 0xb
 2628 090a EC1C0000 		.4byte	.LASF28
 2629 090e 11       		.byte	0x11
 2630 090f B4       		.byte	0xb4
 2631 0910 8D010000 		.4byte	0x18d
 2632 0914 10       		.byte	0x10
 2633 0915 0B       		.uleb128 0xb
 2634 0916 640D0000 		.4byte	.LASF204
 2635 091a 11       		.byte	0x11
 2636 091b B6       		.byte	0xb6
 2637 091c 57020000 		.4byte	0x257
 2638 0920 14       		.byte	0x14
 2639 0921 0B       		.uleb128 0xb
 2640 0922 B42C0000 		.4byte	.LASF205
 2641 0926 11       		.byte	0x11
 2642 0927 B7       		.byte	0xb7
 2643 0928 CB1B0000 		.4byte	0x1bcb
 2644 092c 1C       		.byte	0x1c
 2645 092d 0B       		.uleb128 0xb
 2646 092e CB190000 		.4byte	.LASF206
 2647 0932 11       		.byte	0x11
 2648 0933 B8       		.byte	0xb8
 2649 0934 741A0000 		.4byte	0x1a74
 2650 0938 20       		.byte	0x20
 2651 0939 0C       		.uleb128 0xc
 2652 093a 99020000 		.4byte	.LASF207
 2653 093e 11       		.byte	0x11
 2654 093f B9       		.byte	0xb9
 2655 0940 CE000000 		.4byte	0xce
 2656 0944 02       		.byte	0x2
 2657 0945 01       		.byte	0x1
 2658 0946 0F       		.byte	0xf
 2659 0947 22       		.byte	0x22
 2660 0948 0C       		.uleb128 0xc
 2661 0949 C40D0000 		.4byte	.LASF208
 2662 094d 11       		.byte	0x11
 2663 094e BA       		.byte	0xba
 2664 094f CE000000 		.4byte	0xce
 2665 0953 02       		.byte	0x2
 2666 0954 01       		.byte	0x1
 2667 0955 0E       		.byte	0xe
 2668 0956 22       		.byte	0x22
 2669 0957 0C       		.uleb128 0xc
 2670 0958 0A2C0000 		.4byte	.LASF209
 2671 095c 11       		.byte	0x11
 2672 095d BB       		.byte	0xbb
 2673 095e CE000000 		.4byte	0xce
 2674 0962 02       		.byte	0x2
 2675 0963 01       		.byte	0x1
 2676 0964 0D       		.byte	0xd
 2677 0965 22       		.byte	0x22
 2678 0966 0C       		.uleb128 0xc
 2679 0967 7C190000 		.4byte	.LASF210
 2680 096b 11       		.byte	0x11
ARM GAS  C:\Users\haske\AppData\Local\Temp\cc65HANE.s 			page 70


 2681 096c BC       		.byte	0xbc
 2682 096d CE000000 		.4byte	0xce
 2683 0971 02       		.byte	0x2
 2684 0972 06       		.byte	0x6
 2685 0973 07       		.byte	0x7
 2686 0974 22       		.byte	0x22
 2687 0975 0C       		.uleb128 0xc
 2688 0976 29000000 		.4byte	.LASF211
 2689 097a 11       		.byte	0x11
 2690 097b BD       		.byte	0xbd
 2691 097c CE000000 		.4byte	0xce
 2692 0980 02       		.byte	0x2
 2693 0981 01       		.byte	0x1
 2694 0982 06       		.byte	0x6
 2695 0983 22       		.byte	0x22
 2696 0984 0C       		.uleb128 0xc
 2697 0985 D0220000 		.4byte	.LASF212
 2698 0989 11       		.byte	0x11
 2699 098a BE       		.byte	0xbe
 2700 098b CE000000 		.4byte	0xce
 2701 098f 02       		.byte	0x2
 2702 0990 01       		.byte	0x1
 2703 0991 05       		.byte	0x5
 2704 0992 22       		.byte	0x22
 2705 0993 00       		.byte	0
 2706 0994 07       		.uleb128 0x7
 2707 0995 04       		.byte	0x4
 2708 0996 7E040000 		.4byte	0x47e
 2709 099a 0F       		.uleb128 0xf
 2710 099b 38       		.byte	0x38
 2711 099c 12       		.byte	0x12
 2712 099d 20       		.byte	0x20
 2713 099e E10A0000 		.4byte	0xae1
 2714 09a2 0B       		.uleb128 0xb
 2715 09a3 BA2C0000 		.4byte	.LASF213
 2716 09a7 12       		.byte	0x12
 2717 09a8 21       		.byte	0x21
 2718 09a9 EF010000 		.4byte	0x1ef
 2719 09ad 00       		.byte	0
 2720 09ae 0B       		.uleb128 0xb
 2721 09af 1B110000 		.4byte	.LASF214
 2722 09b3 12       		.byte	0x12
 2723 09b4 22       		.byte	0x22
 2724 09b5 E0040000 		.4byte	0x4e0
 2725 09b9 02       		.byte	0x2
 2726 09ba 0B       		.uleb128 0xb
 2727 09bb 00000000 		.4byte	.LASF215
 2728 09bf 12       		.byte	0x12
 2729 09c0 25       		.byte	0x25
 2730 09c1 89040000 		.4byte	0x489
 2731 09c5 03       		.byte	0x3
 2732 09c6 0B       		.uleb128 0xb
 2733 09c7 AB2C0000 		.4byte	.LASF216
 2734 09cb 12       		.byte	0x12
 2735 09cc 26       		.byte	0x26
 2736 09cd 7E040000 		.4byte	0x47e
 2737 09d1 04       		.byte	0x4
ARM GAS  C:\Users\haske\AppData\Local\Temp\cc65HANE.s 			page 71


 2738 09d2 0B       		.uleb128 0xb
 2739 09d3 40060000 		.4byte	.LASF217
 2740 09d7 12       		.byte	0x12
 2741 09d8 27       		.byte	0x27
 2742 09d9 92050000 		.4byte	0x592
 2743 09dd 06       		.byte	0x6
 2744 09de 0B       		.uleb128 0xb
 2745 09df 0B0D0000 		.4byte	.LASF218
 2746 09e3 12       		.byte	0x12
 2747 09e4 2A       		.byte	0x2a
 2748 09e5 0D040000 		.4byte	0x40d
 2749 09e9 10       		.byte	0x10
 2750 09ea 0B       		.uleb128 0xb
 2751 09eb ED190000 		.4byte	.LASF219
 2752 09ef 12       		.byte	0x12
 2753 09f0 2B       		.byte	0x2b
 2754 09f1 0D040000 		.4byte	0x40d
 2755 09f5 14       		.byte	0x14
 2756 09f6 0B       		.uleb128 0xb
 2757 09f7 0C070000 		.4byte	.LASF220
 2758 09fb 12       		.byte	0x12
 2759 09fc 2C       		.byte	0x2c
 2760 09fd 7E040000 		.4byte	0x47e
 2761 0a01 18       		.byte	0x18
 2762 0a02 0B       		.uleb128 0xb
 2763 0a03 8E270000 		.4byte	.LASF221
 2764 0a07 12       		.byte	0x12
 2765 0a08 2D       		.byte	0x2d
 2766 0a09 89040000 		.4byte	0x489
 2767 0a0d 1A       		.byte	0x1a
 2768 0a0e 0B       		.uleb128 0xb
 2769 0a0f 21140000 		.4byte	.LASF222
 2770 0a13 12       		.byte	0x12
 2771 0a14 2E       		.byte	0x2e
 2772 0a15 89040000 		.4byte	0x489
 2773 0a19 1B       		.byte	0x1b
 2774 0a1a 0B       		.uleb128 0xb
 2775 0a1b 98160000 		.4byte	.LASF223
 2776 0a1f 12       		.byte	0x12
 2777 0a20 2F       		.byte	0x2f
 2778 0a21 B8000000 		.4byte	0xb8
 2779 0a25 1C       		.byte	0x1c
 2780 0a26 0B       		.uleb128 0xb
 2781 0a27 18240000 		.4byte	.LASF224
 2782 0a2b 12       		.byte	0x12
 2783 0a2c 32       		.byte	0x32
 2784 0a2d 7E040000 		.4byte	0x47e
 2785 0a31 1E       		.byte	0x1e
 2786 0a32 0B       		.uleb128 0xb
 2787 0a33 40140000 		.4byte	.LASF225
 2788 0a37 12       		.byte	0x12
 2789 0a38 33       		.byte	0x33
 2790 0a39 EF010000 		.4byte	0x1ef
 2791 0a3d 20       		.byte	0x20
 2792 0a3e 0B       		.uleb128 0xb
 2793 0a3f AF100000 		.4byte	.LASF226
 2794 0a43 12       		.byte	0x12
ARM GAS  C:\Users\haske\AppData\Local\Temp\cc65HANE.s 			page 72


 2795 0a44 34       		.byte	0x34
 2796 0a45 89040000 		.4byte	0x489
 2797 0a49 22       		.byte	0x22
 2798 0a4a 0C       		.uleb128 0xc
 2799 0a4b C2240000 		.4byte	.LASF227
 2800 0a4f 12       		.byte	0x12
 2801 0a50 35       		.byte	0x35
 2802 0a51 B8000000 		.4byte	0xb8
 2803 0a55 01       		.byte	0x1
 2804 0a56 01       		.byte	0x1
 2805 0a57 07       		.byte	0x7
 2806 0a58 23       		.byte	0x23
 2807 0a59 0C       		.uleb128 0xc
 2808 0a5a A5120000 		.4byte	.LASF228
 2809 0a5e 12       		.byte	0x12
 2810 0a5f 36       		.byte	0x36
 2811 0a60 F6040000 		.4byte	0x4f6
 2812 0a64 01       		.byte	0x1
 2813 0a65 05       		.byte	0x5
 2814 0a66 02       		.byte	0x2
 2815 0a67 23       		.byte	0x23
 2816 0a68 0B       		.uleb128 0xb
 2817 0a69 DE1C0000 		.4byte	.LASF229
 2818 0a6d 12       		.byte	0x12
 2819 0a6e 39       		.byte	0x39
 2820 0a6f 7E040000 		.4byte	0x47e
 2821 0a73 24       		.byte	0x24
 2822 0a74 0B       		.uleb128 0xb
 2823 0a75 8C0D0000 		.4byte	.LASF230
 2824 0a79 12       		.byte	0x12
 2825 0a7a 3A       		.byte	0x3a
 2826 0a7b EF010000 		.4byte	0x1ef
 2827 0a7f 26       		.byte	0x26
 2828 0a80 0B       		.uleb128 0xb
 2829 0a81 E0160000 		.4byte	.LASF231
 2830 0a85 12       		.byte	0x12
 2831 0a86 3B       		.byte	0x3b
 2832 0a87 EF010000 		.4byte	0x1ef
 2833 0a8b 28       		.byte	0x28
 2834 0a8c 0B       		.uleb128 0xb
 2835 0a8d 681E0000 		.4byte	.LASF232
 2836 0a91 12       		.byte	0x12
 2837 0a92 3C       		.byte	0x3c
 2838 0a93 89040000 		.4byte	0x489
 2839 0a97 2A       		.byte	0x2a
 2840 0a98 0B       		.uleb128 0xb
 2841 0a99 19230000 		.4byte	.LASF233
 2842 0a9d 12       		.byte	0x12
 2843 0a9e 3F       		.byte	0x3f
 2844 0a9f 7E040000 		.4byte	0x47e
 2845 0aa3 2C       		.byte	0x2c
 2846 0aa4 0B       		.uleb128 0xb
 2847 0aa5 F9130000 		.4byte	.LASF234
 2848 0aa9 12       		.byte	0x12
 2849 0aaa 40       		.byte	0x40
 2850 0aab EF010000 		.4byte	0x1ef
 2851 0aaf 2E       		.byte	0x2e
ARM GAS  C:\Users\haske\AppData\Local\Temp\cc65HANE.s 			page 73


 2852 0ab0 0B       		.uleb128 0xb
 2853 0ab1 D81B0000 		.4byte	.LASF235
 2854 0ab5 12       		.byte	0x12
 2855 0ab6 41       		.byte	0x41
 2856 0ab7 EF010000 		.4byte	0x1ef
 2857 0abb 30       		.byte	0x30
 2858 0abc 0B       		.uleb128 0xb
 2859 0abd E51B0000 		.4byte	.LASF236
 2860 0ac1 12       		.byte	0x12
 2861 0ac2 42       		.byte	0x42
 2862 0ac3 EF010000 		.4byte	0x1ef
 2863 0ac7 32       		.byte	0x32
 2864 0ac8 0B       		.uleb128 0xb
 2865 0ac9 850E0000 		.4byte	.LASF237
 2866 0acd 12       		.byte	0x12
 2867 0ace 43       		.byte	0x43
 2868 0acf EF010000 		.4byte	0x1ef
 2869 0ad3 34       		.byte	0x34
 2870 0ad4 0B       		.uleb128 0xb
 2871 0ad5 6B140000 		.4byte	.LASF238
 2872 0ad9 12       		.byte	0x12
 2873 0ada 44       		.byte	0x44
 2874 0adb 89040000 		.4byte	0x489
 2875 0adf 36       		.byte	0x36
 2876 0ae0 00       		.byte	0
 2877 0ae1 02       		.uleb128 0x2
 2878 0ae2 E60B0000 		.4byte	.LASF239
 2879 0ae6 12       		.byte	0x12
 2880 0ae7 45       		.byte	0x45
 2881 0ae8 9A090000 		.4byte	0x99a
 2882 0aec 0F       		.uleb128 0xf
 2883 0aed 20       		.byte	0x20
 2884 0aee 13       		.byte	0x13
 2885 0aef 1E       		.byte	0x1e
 2886 0af0 BB0B0000 		.4byte	0xbbb
 2887 0af4 0B       		.uleb128 0xb
 2888 0af5 87000000 		.4byte	.LASF240
 2889 0af9 13       		.byte	0x13
 2890 0afa 1F       		.byte	0x1f
 2891 0afb BB0B0000 		.4byte	0xbbb
 2892 0aff 00       		.byte	0
 2893 0b00 0B       		.uleb128 0xb
 2894 0b01 61090000 		.4byte	.LASF241
 2895 0b05 13       		.byte	0x13
 2896 0b06 20       		.byte	0x20
 2897 0b07 E4000000 		.4byte	0xe4
 2898 0b0b 04       		.byte	0x4
 2899 0b0c 0B       		.uleb128 0xb
 2900 0b0d BA100000 		.4byte	.LASF242
 2901 0b11 13       		.byte	0x13
 2902 0b12 21       		.byte	0x21
 2903 0b13 E4000000 		.4byte	0xe4
 2904 0b17 08       		.byte	0x8
 2905 0b18 0B       		.uleb128 0xb
 2906 0b19 551F0000 		.4byte	.LASF90
 2907 0b1d 13       		.byte	0x13
 2908 0b1e 22       		.byte	0x22
ARM GAS  C:\Users\haske\AppData\Local\Temp\cc65HANE.s 			page 74


 2909 0b1f 7E040000 		.4byte	0x47e
 2910 0b23 0C       		.byte	0xc
 2911 0b24 0B       		.uleb128 0xb
 2912 0b25 68190000 		.4byte	.LASF243
 2913 0b29 13       		.byte	0x13
 2914 0b2a 23       		.byte	0x23
 2915 0b2b 7E040000 		.4byte	0x47e
 2916 0b2f 0E       		.byte	0xe
 2917 0b30 0B       		.uleb128 0xb
 2918 0b31 352C0000 		.4byte	.LASF244
 2919 0b35 13       		.byte	0x13
 2920 0b36 24       		.byte	0x24
 2921 0b37 7E040000 		.4byte	0x47e
 2922 0b3b 10       		.byte	0x10
 2923 0b3c 0B       		.uleb128 0xb
 2924 0b3d A7000000 		.4byte	.LASF245
 2925 0b41 13       		.byte	0x13
 2926 0b42 25       		.byte	0x25
 2927 0b43 EF010000 		.4byte	0x1ef
 2928 0b47 12       		.byte	0x12
 2929 0b48 0B       		.uleb128 0xb
 2930 0b49 86190000 		.4byte	.LASF246
 2931 0b4d 13       		.byte	0x13
 2932 0b4e 26       		.byte	0x26
 2933 0b4f EF010000 		.4byte	0x1ef
 2934 0b53 14       		.byte	0x14
 2935 0b54 0B       		.uleb128 0xb
 2936 0b55 3C170000 		.4byte	.LASF54
 2937 0b59 13       		.byte	0x13
 2938 0b5a 27       		.byte	0x27
 2939 0b5b EF010000 		.4byte	0x1ef
 2940 0b5f 16       		.byte	0x16
 2941 0b60 0B       		.uleb128 0xb
 2942 0b61 42170000 		.4byte	.LASF55
 2943 0b65 13       		.byte	0x13
 2944 0b66 28       		.byte	0x28
 2945 0b67 EF010000 		.4byte	0x1ef
 2946 0b6b 18       		.byte	0x18
 2947 0b6c 10       		.uleb128 0x10
 2948 0b6d 6F706100 		.ascii	"opa\000"
 2949 0b71 13       		.byte	0x13
 2950 0b72 29       		.byte	0x29
 2951 0b73 89040000 		.4byte	0x489
 2952 0b77 1A       		.byte	0x1a
 2953 0b78 0B       		.uleb128 0xb
 2954 0b79 6C200000 		.4byte	.LASF247
 2955 0b7d 13       		.byte	0x13
 2956 0b7e 2A       		.byte	0x2a
 2957 0b7f D5040000 		.4byte	0x4d5
 2958 0b83 1B       		.byte	0x1b
 2959 0b84 0B       		.uleb128 0xb
 2960 0b85 F5080000 		.4byte	.LASF248
 2961 0b89 13       		.byte	0x13
 2962 0b8a 2B       		.byte	0x2b
 2963 0b8b 9F040000 		.4byte	0x49f
 2964 0b8f 1C       		.byte	0x1c
 2965 0b90 0B       		.uleb128 0xb
ARM GAS  C:\Users\haske\AppData\Local\Temp\cc65HANE.s 			page 75


 2966 0b91 42160000 		.4byte	.LASF249
 2967 0b95 13       		.byte	0x13
 2968 0b96 2C       		.byte	0x2c
 2969 0b97 94040000 		.4byte	0x494
 2970 0b9b 1D       		.byte	0x1d
 2971 0b9c 0C       		.uleb128 0xc
 2972 0b9d BE0D0000 		.4byte	.LASF250
 2973 0ba1 13       		.byte	0x13
 2974 0ba2 2D       		.byte	0x2d
 2975 0ba3 EB040000 		.4byte	0x4eb
 2976 0ba7 01       		.byte	0x1
 2977 0ba8 03       		.byte	0x3
 2978 0ba9 05       		.byte	0x5
 2979 0baa 1E       		.byte	0x1e
 2980 0bab 0C       		.uleb128 0xc
 2981 0bac 1B110000 		.4byte	.LASF214
 2982 0bb0 13       		.byte	0x13
 2983 0bb1 2E       		.byte	0x2e
 2984 0bb2 E0040000 		.4byte	0x4e0
 2985 0bb6 01       		.byte	0x1
 2986 0bb7 03       		.byte	0x3
 2987 0bb8 02       		.byte	0x2
 2988 0bb9 1E       		.byte	0x1e
 2989 0bba 00       		.byte	0
 2990 0bbb 07       		.uleb128 0x7
 2991 0bbc 04       		.byte	0x4
 2992 0bbd C10B0000 		.4byte	0xbc1
 2993 0bc1 0E       		.uleb128 0xe
 2994 0bc2 14040000 		.4byte	0x414
 2995 0bc6 02       		.uleb128 0x2
 2996 0bc7 0A160000 		.4byte	.LASF251
 2997 0bcb 13       		.byte	0x13
 2998 0bcc 2F       		.byte	0x2f
 2999 0bcd EC0A0000 		.4byte	0xaec
 3000 0bd1 0F       		.uleb128 0xf
 3001 0bd2 18       		.byte	0x18
 3002 0bd3 14       		.byte	0x14
 3003 0bd4 20       		.byte	0x20
 3004 0bd5 4C0C0000 		.4byte	0xc4c
 3005 0bd9 0B       		.uleb128 0xb
 3006 0bda 1C020000 		.4byte	.LASF252
 3007 0bde 14       		.byte	0x14
 3008 0bdf 22       		.byte	0x22
 3009 0be0 C3000000 		.4byte	0xc3
 3010 0be4 00       		.byte	0
 3011 0be5 0B       		.uleb128 0xb
 3012 0be6 72180000 		.4byte	.LASF253
 3013 0bea 14       		.byte	0x14
 3014 0beb 23       		.byte	0x23
 3015 0bec CE000000 		.4byte	0xce
 3016 0bf0 02       		.byte	0x2
 3017 0bf1 0B       		.uleb128 0xb
 3018 0bf2 22260000 		.4byte	.LASF254
 3019 0bf6 14       		.byte	0x14
 3020 0bf7 24       		.byte	0x24
 3021 0bf8 17020000 		.4byte	0x217
 3022 0bfc 04       		.byte	0x4
ARM GAS  C:\Users\haske\AppData\Local\Temp\cc65HANE.s 			page 76


 3023 0bfd 0B       		.uleb128 0xb
 3024 0bfe B3220000 		.4byte	.LASF255
 3025 0c02 14       		.byte	0x14
 3026 0c03 26       		.byte	0x26
 3027 0c04 7E040000 		.4byte	0x47e
 3028 0c08 08       		.byte	0x8
 3029 0c09 0B       		.uleb128 0xb
 3030 0c0a 401A0000 		.4byte	.LASF256
 3031 0c0e 14       		.byte	0x14
 3032 0c0f 27       		.byte	0x27
 3033 0c10 89040000 		.4byte	0x489
 3034 0c14 0A       		.byte	0xa
 3035 0c15 10       		.uleb128 0x10
 3036 0c16 6F706100 		.ascii	"opa\000"
 3037 0c1a 14       		.byte	0x14
 3038 0c1b 29       		.byte	0x29
 3039 0c1c 89040000 		.4byte	0x489
 3040 0c20 0B       		.byte	0xb
 3041 0c21 0C       		.uleb128 0xc
 3042 0c22 1B110000 		.4byte	.LASF214
 3043 0c26 14       		.byte	0x14
 3044 0c27 2A       		.byte	0x2a
 3045 0c28 E0040000 		.4byte	0x4e0
 3046 0c2c 01       		.byte	0x1
 3047 0c2d 04       		.byte	0x4
 3048 0c2e 04       		.byte	0x4
 3049 0c2f 0C       		.byte	0xc
 3050 0c30 0B       		.uleb128 0xb
 3051 0c31 76090000 		.4byte	.LASF257
 3052 0c35 14       		.byte	0x14
 3053 0c36 2C       		.byte	0x2c
 3054 0c37 D9000000 		.4byte	0xd9
 3055 0c3b 10       		.byte	0x10
 3056 0c3c 0C       		.uleb128 0xc
 3057 0c3d 31270000 		.4byte	.LASF258
 3058 0c41 14       		.byte	0x14
 3059 0c42 2D       		.byte	0x2d
 3060 0c43 B8000000 		.4byte	0xb8
 3061 0c47 01       		.byte	0x1
 3062 0c48 01       		.byte	0x1
 3063 0c49 07       		.byte	0x7
 3064 0c4a 14       		.byte	0x14
 3065 0c4b 00       		.byte	0
 3066 0c4c 02       		.uleb128 0x2
 3067 0c4d 9F240000 		.4byte	.LASF259
 3068 0c51 14       		.byte	0x14
 3069 0c52 2E       		.byte	0x2e
 3070 0c53 D10B0000 		.4byte	0xbd1
 3071 0c57 0F       		.uleb128 0xf
 3072 0c58 0A       		.byte	0xa
 3073 0c59 15       		.byte	0x15
 3074 0c5a 1C       		.byte	0x1c
 3075 0c5b D80C0000 		.4byte	0xcd8
 3076 0c5f 0B       		.uleb128 0xb
 3077 0c60 551F0000 		.4byte	.LASF90
 3078 0c64 15       		.byte	0x15
 3079 0c65 1D       		.byte	0x1d
ARM GAS  C:\Users\haske\AppData\Local\Temp\cc65HANE.s 			page 77


 3080 0c66 7E040000 		.4byte	0x47e
 3081 0c6a 00       		.byte	0
 3082 0c6b 0B       		.uleb128 0xb
 3083 0c6c B1240000 		.4byte	.LASF260
 3084 0c70 15       		.byte	0x15
 3085 0c71 1E       		.byte	0x1e
 3086 0c72 EF010000 		.4byte	0x1ef
 3087 0c76 02       		.byte	0x2
 3088 0c77 0B       		.uleb128 0xb
 3089 0c78 83010000 		.4byte	.LASF261
 3090 0c7c 15       		.byte	0x15
 3091 0c7d 1F       		.byte	0x1f
 3092 0c7e EF010000 		.4byte	0x1ef
 3093 0c82 04       		.byte	0x4
 3094 0c83 0B       		.uleb128 0xb
 3095 0c84 151E0000 		.4byte	.LASF262
 3096 0c88 15       		.byte	0x15
 3097 0c89 20       		.byte	0x20
 3098 0c8a EF010000 		.4byte	0x1ef
 3099 0c8e 06       		.byte	0x6
 3100 0c8f 10       		.uleb128 0x10
 3101 0c90 6F706100 		.ascii	"opa\000"
 3102 0c94 15       		.byte	0x15
 3103 0c95 21       		.byte	0x21
 3104 0c96 89040000 		.4byte	0x489
 3105 0c9a 08       		.byte	0x8
 3106 0c9b 0C       		.uleb128 0xc
 3107 0c9c 1B110000 		.4byte	.LASF214
 3108 0ca0 15       		.byte	0x15
 3109 0ca1 22       		.byte	0x22
 3110 0ca2 E0040000 		.4byte	0x4e0
 3111 0ca6 01       		.byte	0x1
 3112 0ca7 02       		.byte	0x2
 3113 0ca8 06       		.byte	0x6
 3114 0ca9 09       		.byte	0x9
 3115 0caa 0C       		.uleb128 0xc
 3116 0cab C12C0000 		.4byte	.LASF263
 3117 0caf 15       		.byte	0x15
 3118 0cb0 23       		.byte	0x23
 3119 0cb1 B8000000 		.4byte	0xb8
 3120 0cb5 01       		.byte	0x1
 3121 0cb6 01       		.byte	0x1
 3122 0cb7 05       		.byte	0x5
 3123 0cb8 09       		.byte	0x9
 3124 0cb9 0C       		.uleb128 0xc
 3125 0cba 55130000 		.4byte	.LASF264
 3126 0cbe 15       		.byte	0x15
 3127 0cbf 24       		.byte	0x24
 3128 0cc0 B8000000 		.4byte	0xb8
 3129 0cc4 01       		.byte	0x1
 3130 0cc5 01       		.byte	0x1
 3131 0cc6 04       		.byte	0x4
 3132 0cc7 09       		.byte	0x9
 3133 0cc8 0C       		.uleb128 0xc
 3134 0cc9 431C0000 		.4byte	.LASF265
 3135 0ccd 15       		.byte	0x15
 3136 0cce 25       		.byte	0x25
ARM GAS  C:\Users\haske\AppData\Local\Temp\cc65HANE.s 			page 78


 3137 0ccf B8000000 		.4byte	0xb8
 3138 0cd3 01       		.byte	0x1
 3139 0cd4 01       		.byte	0x1
 3140 0cd5 03       		.byte	0x3
 3141 0cd6 09       		.byte	0x9
 3142 0cd7 00       		.byte	0
 3143 0cd8 02       		.uleb128 0x2
 3144 0cd9 FC1E0000 		.4byte	.LASF266
 3145 0cdd 15       		.byte	0x15
 3146 0cde 26       		.byte	0x26
 3147 0cdf 570C0000 		.4byte	0xc57
 3148 0ce3 0F       		.uleb128 0xf
 3149 0ce4 10       		.byte	0x10
 3150 0ce5 16       		.byte	0x16
 3151 0ce6 1C       		.byte	0x1c
 3152 0ce7 520D0000 		.4byte	0xd52
 3153 0ceb 0B       		.uleb128 0xb
 3154 0cec 551F0000 		.4byte	.LASF90
 3155 0cf0 16       		.byte	0x16
 3156 0cf1 1D       		.byte	0x1d
 3157 0cf2 7E040000 		.4byte	0x47e
 3158 0cf6 00       		.byte	0
 3159 0cf7 0B       		.uleb128 0xb
 3160 0cf8 B1240000 		.4byte	.LASF260
 3161 0cfc 16       		.byte	0x16
 3162 0cfd 1E       		.byte	0x1e
 3163 0cfe EF010000 		.4byte	0x1ef
 3164 0d02 02       		.byte	0x2
 3165 0d03 0B       		.uleb128 0xb
 3166 0d04 B8070000 		.4byte	.LASF267
 3167 0d08 16       		.byte	0x16
 3168 0d09 1F       		.byte	0x1f
 3169 0d0a CE000000 		.4byte	0xce
 3170 0d0e 04       		.byte	0x4
 3171 0d0f 0B       		.uleb128 0xb
 3172 0d10 19250000 		.4byte	.LASF268
 3173 0d14 16       		.byte	0x16
 3174 0d15 20       		.byte	0x20
 3175 0d16 CE000000 		.4byte	0xce
 3176 0d1a 06       		.byte	0x6
 3177 0d1b 0B       		.uleb128 0xb
 3178 0d1c 1D270000 		.4byte	.LASF269
 3179 0d20 16       		.byte	0x16
 3180 0d21 21       		.byte	0x21
 3181 0d22 0D040000 		.4byte	0x40d
 3182 0d26 08       		.byte	0x8
 3183 0d27 10       		.uleb128 0x10
 3184 0d28 6F706100 		.ascii	"opa\000"
 3185 0d2c 16       		.byte	0x16
 3186 0d2d 22       		.byte	0x22
 3187 0d2e 89040000 		.4byte	0x489
 3188 0d32 0C       		.byte	0xc
 3189 0d33 0C       		.uleb128 0xc
 3190 0d34 1B110000 		.4byte	.LASF214
 3191 0d38 16       		.byte	0x16
 3192 0d39 23       		.byte	0x23
 3193 0d3a E0040000 		.4byte	0x4e0
ARM GAS  C:\Users\haske\AppData\Local\Temp\cc65HANE.s 			page 79


 3194 0d3e 01       		.byte	0x1
 3195 0d3f 02       		.byte	0x2
 3196 0d40 06       		.byte	0x6
 3197 0d41 0D       		.byte	0xd
 3198 0d42 0C       		.uleb128 0xc
 3199 0d43 1B070000 		.4byte	.LASF270
 3200 0d47 16       		.byte	0x16
 3201 0d48 24       		.byte	0x24
 3202 0d49 B8000000 		.4byte	0xb8
 3203 0d4d 01       		.byte	0x1
 3204 0d4e 01       		.byte	0x1
 3205 0d4f 05       		.byte	0x5
 3206 0d50 0D       		.byte	0xd
 3207 0d51 00       		.byte	0
 3208 0d52 02       		.uleb128 0x2
 3209 0d53 F9140000 		.4byte	.LASF271
 3210 0d57 16       		.byte	0x16
 3211 0d58 25       		.byte	0x25
 3212 0d59 E30C0000 		.4byte	0xce3
 3213 0d5d 07       		.uleb128 0x7
 3214 0d5e 04       		.byte	0x4
 3215 0d5f 89040000 		.4byte	0x489
 3216 0d63 05       		.uleb128 0x5
 3217 0d64 01       		.byte	0x1
 3218 0d65 42000000 		.4byte	0x42
 3219 0d69 17       		.byte	0x17
 3220 0d6a 1C       		.byte	0x1c
 3221 0d6b 820D0000 		.4byte	0xd82
 3222 0d6f 06       		.uleb128 0x6
 3223 0d70 99140000 		.4byte	.LASF272
 3224 0d74 00       		.byte	0
 3225 0d75 06       		.uleb128 0x6
 3226 0d76 C9050000 		.4byte	.LASF273
 3227 0d7a 01       		.byte	0x1
 3228 0d7b 06       		.uleb128 0x6
 3229 0d7c 4D000000 		.4byte	.LASF274
 3230 0d80 02       		.byte	0x2
 3231 0d81 00       		.byte	0
 3232 0d82 02       		.uleb128 0x2
 3233 0d83 BD1C0000 		.4byte	.LASF275
 3234 0d87 17       		.byte	0x17
 3235 0d88 20       		.byte	0x20
 3236 0d89 630D0000 		.4byte	0xd63
 3237 0d8d 0F       		.uleb128 0xf
 3238 0d8e 10       		.byte	0x10
 3239 0d8f 18       		.byte	0x18
 3240 0d90 33       		.byte	0x33
 3241 0d91 C60D0000 		.4byte	0xdc6
 3242 0d95 0B       		.uleb128 0xb
 3243 0d96 4F250000 		.4byte	.LASF276
 3244 0d9a 18       		.byte	0x18
 3245 0d9b 34       		.byte	0x34
 3246 0d9c C60D0000 		.4byte	0xdc6
 3247 0da0 00       		.byte	0
 3248 0da1 0B       		.uleb128 0xb
 3249 0da2 871A0000 		.4byte	.LASF277
 3250 0da6 18       		.byte	0x18
ARM GAS  C:\Users\haske\AppData\Local\Temp\cc65HANE.s 			page 80


 3251 0da7 35       		.byte	0x35
 3252 0da8 D10D0000 		.4byte	0xdd1
 3253 0dac 04       		.byte	0x4
 3254 0dad 10       		.uleb128 0x10
 3255 0dae 62756600 		.ascii	"buf\000"
 3256 0db2 18       		.byte	0x18
 3257 0db3 36       		.byte	0x36
 3258 0db4 8D010000 		.4byte	0x18d
 3259 0db8 08       		.byte	0x8
 3260 0db9 0B       		.uleb128 0xb
 3261 0dba 8A050000 		.4byte	.LASF278
 3262 0dbe 18       		.byte	0x18
 3263 0dbf 37       		.byte	0x37
 3264 0dc0 D5030000 		.4byte	0x3d5
 3265 0dc4 0C       		.byte	0xc
 3266 0dc5 00       		.byte	0
 3267 0dc6 07       		.uleb128 0x7
 3268 0dc7 04       		.byte	0x4
 3269 0dc8 CC0D0000 		.4byte	0xdcc
 3270 0dcc 0E       		.uleb128 0xe
 3271 0dcd 57020000 		.4byte	0x257
 3272 0dd1 07       		.uleb128 0x7
 3273 0dd2 04       		.byte	0x4
 3274 0dd3 57020000 		.4byte	0x257
 3275 0dd7 0A       		.uleb128 0xa
 3276 0dd8 25100000 		.4byte	.LASF279
 3277 0ddc 28       		.byte	0x28
 3278 0ddd 18       		.byte	0x18
 3279 0dde 2D       		.byte	0x2d
 3280 0ddf 2C0E0000 		.4byte	0xe2c
 3281 0de3 0B       		.uleb128 0xb
 3282 0de4 C2100000 		.4byte	.LASF280
 3283 0de8 18       		.byte	0x18
 3284 0de9 2E       		.byte	0x2e
 3285 0dea 57020000 		.4byte	0x257
 3286 0dee 00       		.byte	0
 3287 0def 0B       		.uleb128 0xb
 3288 0df0 122A0000 		.4byte	.LASF281
 3289 0df4 18       		.byte	0x18
 3290 0df5 2F       		.byte	0x2f
 3291 0df6 57020000 		.4byte	0x257
 3292 0dfa 08       		.byte	0x8
 3293 0dfb 0B       		.uleb128 0xb
 3294 0dfc 3B270000 		.4byte	.LASF282
 3295 0e00 18       		.byte	0x18
 3296 0e01 30       		.byte	0x30
 3297 0e02 EF010000 		.4byte	0x1ef
 3298 0e06 10       		.byte	0x10
 3299 0e07 0B       		.uleb128 0xb
 3300 0e08 72110000 		.4byte	.LASF283
 3301 0e0c 18       		.byte	0x18
 3302 0e0d 31       		.byte	0x31
 3303 0e0e EF010000 		.4byte	0x1ef
 3304 0e12 12       		.byte	0x12
 3305 0e13 10       		.uleb128 0x10
 3306 0e14 62756600 		.ascii	"buf\000"
 3307 0e18 18       		.byte	0x18
ARM GAS  C:\Users\haske\AppData\Local\Temp\cc65HANE.s 			page 81


 3308 0e19 32       		.byte	0x32
 3309 0e1a 8D010000 		.4byte	0x18d
 3310 0e1e 14       		.byte	0x14
 3311 0e1f 0B       		.uleb128 0xb
 3312 0e20 A4130000 		.4byte	.LASF284
 3313 0e24 18       		.byte	0x18
 3314 0e25 38       		.byte	0x38
 3315 0e26 8D0D0000 		.4byte	0xd8d
 3316 0e2a 18       		.byte	0x18
 3317 0e2b 00       		.byte	0
 3318 0e2c 02       		.uleb128 0x2
 3319 0e2d E5140000 		.4byte	.LASF285
 3320 0e31 18       		.byte	0x18
 3321 0e32 39       		.byte	0x39
 3322 0e33 D70D0000 		.4byte	0xdd7
 3323 0e37 0A       		.uleb128 0xa
 3324 0e38 9C040000 		.4byte	.LASF286
 3325 0e3c 54       		.byte	0x54
 3326 0e3d 18       		.byte	0x18
 3327 0e3e 3B       		.byte	0x3b
 3328 0e3f 400F0000 		.4byte	0xf40
 3329 0e43 10       		.uleb128 0x10
 3330 0e44 62756600 		.ascii	"buf\000"
 3331 0e48 18       		.byte	0x18
 3332 0e49 3F       		.byte	0x3f
 3333 0e4a 8D010000 		.4byte	0x18d
 3334 0e4e 00       		.byte	0
 3335 0e4f 0B       		.uleb128 0xb
 3336 0e50 871A0000 		.4byte	.LASF277
 3337 0e54 18       		.byte	0x18
 3338 0e55 44       		.byte	0x44
 3339 0e56 D10D0000 		.4byte	0xdd1
 3340 0e5a 04       		.byte	0x4
 3341 0e5b 0B       		.uleb128 0xb
 3342 0e5c 4F250000 		.4byte	.LASF276
 3343 0e60 18       		.byte	0x18
 3344 0e61 49       		.byte	0x49
 3345 0e62 C60D0000 		.4byte	0xdc6
 3346 0e66 08       		.byte	0x8
 3347 0e67 0B       		.uleb128 0xb
 3348 0e68 FB110000 		.4byte	.LASF287
 3349 0e6c 18       		.byte	0x18
 3350 0e6d 4B       		.byte	0x4b
 3351 0e6e 510F0000 		.4byte	0xf51
 3352 0e72 0C       		.byte	0xc
 3353 0e73 0B       		.uleb128 0xb
 3354 0e74 8E2A0000 		.4byte	.LASF288
 3355 0e78 18       		.byte	0x18
 3356 0e79 4D       		.byte	0x4d
 3357 0e7a 770F0000 		.4byte	0xf77
 3358 0e7e 10       		.byte	0x10
 3359 0e7f 0B       		.uleb128 0xb
 3360 0e80 E9210000 		.4byte	.LASF289
 3361 0e84 18       		.byte	0x18
 3362 0e85 4F       		.byte	0x4f
 3363 0e86 B70F0000 		.4byte	0xfb7
 3364 0e8a 14       		.byte	0x14
ARM GAS  C:\Users\haske\AppData\Local\Temp\cc65HANE.s 			page 82


 3365 0e8b 0B       		.uleb128 0xb
 3366 0e8c A60F0000 		.4byte	.LASF290
 3367 0e90 18       		.byte	0x18
 3368 0e91 52       		.byte	0x52
 3369 0e92 E70F0000 		.4byte	0xfe7
 3370 0e96 18       		.byte	0x18
 3371 0e97 0B       		.uleb128 0xb
 3372 0e98 43130000 		.4byte	.LASF291
 3373 0e9c 18       		.byte	0x18
 3374 0e9d 55       		.byte	0x55
 3375 0e9e 0B100000 		.4byte	0x100b
 3376 0ea2 1C       		.byte	0x1c
 3377 0ea3 0B       		.uleb128 0xb
 3378 0ea4 5F130000 		.4byte	.LASF292
 3379 0ea8 18       		.byte	0x18
 3380 0ea9 58       		.byte	0x58
 3381 0eaa 36100000 		.4byte	0x1036
 3382 0eae 20       		.byte	0x20
 3383 0eaf 0B       		.uleb128 0xb
 3384 0eb0 CE1B0000 		.4byte	.LASF293
 3385 0eb4 18       		.byte	0x18
 3386 0eb5 5C       		.byte	0x5c
 3387 0eb6 61100000 		.4byte	0x1061
 3388 0eba 24       		.byte	0x24
 3389 0ebb 0B       		.uleb128 0xb
 3390 0ebc 3E1D0000 		.4byte	.LASF294
 3391 0ec0 18       		.byte	0x18
 3392 0ec1 60       		.byte	0x60
 3393 0ec2 81100000 		.4byte	0x1081
 3394 0ec6 28       		.byte	0x28
 3395 0ec7 0B       		.uleb128 0xb
 3396 0ec8 35240000 		.4byte	.LASF295
 3397 0ecc 18       		.byte	0x18
 3398 0ecd 71       		.byte	0x71
 3399 0ece BF100000 		.4byte	0x10bf
 3400 0ed2 2C       		.byte	0x2c
 3401 0ed3 0B       		.uleb128 0xb
 3402 0ed4 8A1E0000 		.4byte	.LASF296
 3403 0ed8 18       		.byte	0x18
 3404 0ed9 78       		.byte	0x78
 3405 0eda 770F0000 		.4byte	0xf77
 3406 0ede 30       		.byte	0x30
 3407 0edf 0B       		.uleb128 0xb
 3408 0ee0 79290000 		.4byte	.LASF297
 3409 0ee4 18       		.byte	0x18
 3410 0ee5 7D       		.byte	0x7d
 3411 0ee6 510F0000 		.4byte	0xf51
 3412 0eea 34       		.byte	0x34
 3413 0eeb 0B       		.uleb128 0xb
 3414 0eec 651A0000 		.4byte	.LASF298
 3415 0ef0 18       		.byte	0x18
 3416 0ef1 8D       		.byte	0x8d
 3417 0ef2 EE100000 		.4byte	0x10ee
 3418 0ef6 38       		.byte	0x38
 3419 0ef7 0B       		.uleb128 0xb
 3420 0ef8 AA210000 		.4byte	.LASF299
 3421 0efc 18       		.byte	0x18
ARM GAS  C:\Users\haske\AppData\Local\Temp\cc65HANE.s 			page 83


 3422 0efd 99       		.byte	0x99
 3423 0efe 13110000 		.4byte	0x1113
 3424 0f02 3C       		.byte	0x3c
 3425 0f03 0B       		.uleb128 0xb
 3426 0f04 FC010000 		.4byte	.LASF300
 3427 0f08 18       		.byte	0x18
 3428 0f09 A3       		.byte	0xa3
 3429 0f0a 2E110000 		.4byte	0x112e
 3430 0f0e 40       		.byte	0x40
 3431 0f0f 0B       		.uleb128 0xb
 3432 0f10 9A0D0000 		.4byte	.LASF301
 3433 0f14 18       		.byte	0x18
 3434 0f15 AC       		.byte	0xac
 3435 0f16 49110000 		.4byte	0x1149
 3436 0f1a 44       		.byte	0x44
 3437 0f1b 0B       		.uleb128 0xb
 3438 0f1c 160D0000 		.4byte	.LASF302
 3439 0f20 18       		.byte	0x18
 3440 0f21 B5       		.byte	0xb5
 3441 0f22 65110000 		.4byte	0x1165
 3442 0f26 48       		.byte	0x48
 3443 0f27 0B       		.uleb128 0xb
 3444 0f28 7F090000 		.4byte	.LASF303
 3445 0f2c 18       		.byte	0x18
 3446 0f2d BA       		.byte	0xba
 3447 0f2e 9A010000 		.4byte	0x19a
 3448 0f32 4C       		.byte	0x4c
 3449 0f33 0B       		.uleb128 0xb
 3450 0f34 EC1C0000 		.4byte	.LASF28
 3451 0f38 18       		.byte	0x18
 3452 0f39 BD       		.byte	0xbd
 3453 0f3a 8D010000 		.4byte	0x18d
 3454 0f3e 50       		.byte	0x50
 3455 0f3f 00       		.byte	0
 3456 0f40 08       		.uleb128 0x8
 3457 0f41 4B0F0000 		.4byte	0xf4b
 3458 0f45 09       		.uleb128 0x9
 3459 0f46 4B0F0000 		.4byte	0xf4b
 3460 0f4a 00       		.byte	0
 3461 0f4b 07       		.uleb128 0x7
 3462 0f4c 04       		.byte	0x4
 3463 0f4d 370E0000 		.4byte	0xe37
 3464 0f51 07       		.uleb128 0x7
 3465 0f52 04       		.byte	0x4
 3466 0f53 400F0000 		.4byte	0xf40
 3467 0f57 08       		.uleb128 0x8
 3468 0f58 6C0F0000 		.4byte	0xf6c
 3469 0f5c 09       		.uleb128 0x9
 3470 0f5d 4B0F0000 		.4byte	0xf4b
 3471 0f61 09       		.uleb128 0x9
 3472 0f62 6C0F0000 		.4byte	0xf6c
 3473 0f66 09       		.uleb128 0x9
 3474 0f67 C60D0000 		.4byte	0xdc6
 3475 0f6b 00       		.byte	0
 3476 0f6c 07       		.uleb128 0x7
 3477 0f6d 04       		.byte	0x4
 3478 0f6e 720F0000 		.4byte	0xf72
ARM GAS  C:\Users\haske\AppData\Local\Temp\cc65HANE.s 			page 84


 3479 0f72 0E       		.uleb128 0xe
 3480 0f73 E10A0000 		.4byte	0xae1
 3481 0f77 07       		.uleb128 0x7
 3482 0f78 04       		.byte	0x4
 3483 0f79 570F0000 		.4byte	0xf57
 3484 0f7d 08       		.uleb128 0x8
 3485 0f7e A10F0000 		.4byte	0xfa1
 3486 0f82 09       		.uleb128 0x9
 3487 0f83 4B0F0000 		.4byte	0xf4b
 3488 0f87 09       		.uleb128 0x9
 3489 0f88 A10F0000 		.4byte	0xfa1
 3490 0f8c 09       		.uleb128 0x9
 3491 0f8d AC0F0000 		.4byte	0xfac
 3492 0f91 09       		.uleb128 0x9
 3493 0f92 CE000000 		.4byte	0xce
 3494 0f96 09       		.uleb128 0x9
 3495 0f97 CE000000 		.4byte	0xce
 3496 0f9b 09       		.uleb128 0x9
 3497 0f9c CE000000 		.4byte	0xce
 3498 0fa0 00       		.byte	0
 3499 0fa1 07       		.uleb128 0x7
 3500 0fa2 04       		.byte	0x4
 3501 0fa3 A70F0000 		.4byte	0xfa7
 3502 0fa7 0E       		.uleb128 0xe
 3503 0fa8 520D0000 		.4byte	0xd52
 3504 0fac 07       		.uleb128 0x7
 3505 0fad 04       		.byte	0x4
 3506 0fae B20F0000 		.4byte	0xfb2
 3507 0fb2 0E       		.uleb128 0xe
 3508 0fb3 17020000 		.4byte	0x217
 3509 0fb7 07       		.uleb128 0x7
 3510 0fb8 04       		.byte	0x4
 3511 0fb9 7D0F0000 		.4byte	0xf7d
 3512 0fbd 08       		.uleb128 0x8
 3513 0fbe DC0F0000 		.4byte	0xfdc
 3514 0fc2 09       		.uleb128 0x9
 3515 0fc3 4B0F0000 		.4byte	0xf4b
 3516 0fc7 09       		.uleb128 0x9
 3517 0fc8 DC0F0000 		.4byte	0xfdc
 3518 0fcc 09       		.uleb128 0x9
 3519 0fcd C60D0000 		.4byte	0xdc6
 3520 0fd1 09       		.uleb128 0x9
 3521 0fd2 FC030000 		.4byte	0x3fc
 3522 0fd6 09       		.uleb128 0x9
 3523 0fd7 BC080000 		.4byte	0x8bc
 3524 0fdb 00       		.byte	0
 3525 0fdc 07       		.uleb128 0x7
 3526 0fdd 04       		.byte	0x4
 3527 0fde E20F0000 		.4byte	0xfe2
 3528 0fe2 0E       		.uleb128 0xe
 3529 0fe3 4C0C0000 		.4byte	0xc4c
 3530 0fe7 07       		.uleb128 0x7
 3531 0fe8 04       		.byte	0x4
 3532 0fe9 BD0F0000 		.4byte	0xfbd
 3533 0fed 12       		.uleb128 0x12
 3534 0fee 08010000 		.4byte	0x108
 3535 0ff2 0B100000 		.4byte	0x100b
ARM GAS  C:\Users\haske\AppData\Local\Temp\cc65HANE.s 			page 85


 3536 0ff6 09       		.uleb128 0x9
 3537 0ff7 4B0F0000 		.4byte	0xf4b
 3538 0ffb 09       		.uleb128 0x9
 3539 0ffc DC0F0000 		.4byte	0xfdc
 3540 1000 09       		.uleb128 0x9
 3541 1001 C60D0000 		.4byte	0xdc6
 3542 1005 09       		.uleb128 0x9
 3543 1006 0D040000 		.4byte	0x40d
 3544 100a 00       		.byte	0
 3545 100b 07       		.uleb128 0x7
 3546 100c 04       		.byte	0x4
 3547 100d ED0F0000 		.4byte	0xfed
 3548 1011 08       		.uleb128 0x8
 3549 1012 2B100000 		.4byte	0x102b
 3550 1016 09       		.uleb128 0x9
 3551 1017 4B0F0000 		.4byte	0xf4b
 3552 101b 09       		.uleb128 0x9
 3553 101c 2B100000 		.4byte	0x102b
 3554 1020 09       		.uleb128 0x9
 3555 1021 AC0F0000 		.4byte	0xfac
 3556 1025 09       		.uleb128 0x9
 3557 1026 E4000000 		.4byte	0xe4
 3558 102a 00       		.byte	0
 3559 102b 07       		.uleb128 0x7
 3560 102c 04       		.byte	0x4
 3561 102d 31100000 		.4byte	0x1031
 3562 1031 0E       		.uleb128 0xe
 3563 1032 C60B0000 		.4byte	0xbc6
 3564 1036 07       		.uleb128 0x7
 3565 1037 04       		.byte	0x4
 3566 1038 11100000 		.4byte	0x1011
 3567 103c 08       		.uleb128 0x8
 3568 103d 56100000 		.4byte	0x1056
 3569 1041 09       		.uleb128 0x9
 3570 1042 4B0F0000 		.4byte	0xf4b
 3571 1046 09       		.uleb128 0x9
 3572 1047 56100000 		.4byte	0x1056
 3573 104b 09       		.uleb128 0x9
 3574 104c AC0F0000 		.4byte	0xfac
 3575 1050 09       		.uleb128 0x9
 3576 1051 AC0F0000 		.4byte	0xfac
 3577 1055 00       		.byte	0
 3578 1056 07       		.uleb128 0x7
 3579 1057 04       		.byte	0x4
 3580 1058 5C100000 		.4byte	0x105c
 3581 105c 0E       		.uleb128 0xe
 3582 105d D80C0000 		.4byte	0xcd8
 3583 1061 07       		.uleb128 0x7
 3584 1062 04       		.byte	0x4
 3585 1063 3C100000 		.4byte	0x103c
 3586 1067 08       		.uleb128 0x8
 3587 1068 81100000 		.4byte	0x1081
 3588 106c 09       		.uleb128 0x9
 3589 106d 4B0F0000 		.4byte	0xf4b
 3590 1071 09       		.uleb128 0x9
 3591 1072 6C0F0000 		.4byte	0xf6c
 3592 1076 09       		.uleb128 0x9
ARM GAS  C:\Users\haske\AppData\Local\Temp\cc65HANE.s 			page 86


 3593 1077 AC0F0000 		.4byte	0xfac
 3594 107b 09       		.uleb128 0x9
 3595 107c CE000000 		.4byte	0xce
 3596 1080 00       		.byte	0
 3597 1081 07       		.uleb128 0x7
 3598 1082 04       		.byte	0x4
 3599 1083 67100000 		.4byte	0x1067
 3600 1087 08       		.uleb128 0x8
 3601 1088 BF100000 		.4byte	0x10bf
 3602 108c 09       		.uleb128 0x9
 3603 108d 4B0F0000 		.4byte	0xf4b
 3604 1091 09       		.uleb128 0x9
 3605 1092 C60D0000 		.4byte	0xdc6
 3606 1096 09       		.uleb128 0x9
 3607 1097 0D040000 		.4byte	0x40d
 3608 109b 09       		.uleb128 0x9
 3609 109c EF010000 		.4byte	0x1ef
 3610 10a0 09       		.uleb128 0x9
 3611 10a1 EF010000 		.4byte	0x1ef
 3612 10a5 09       		.uleb128 0x9
 3613 10a6 EF010000 		.4byte	0x1ef
 3614 10aa 09       		.uleb128 0x9
 3615 10ab DC0F0000 		.4byte	0xfdc
 3616 10af 09       		.uleb128 0x9
 3617 10b0 BC080000 		.4byte	0x8bc
 3618 10b4 09       		.uleb128 0x9
 3619 10b5 94090000 		.4byte	0x994
 3620 10b9 09       		.uleb128 0x9
 3621 10ba 5D0D0000 		.4byte	0xd5d
 3622 10be 00       		.byte	0
 3623 10bf 07       		.uleb128 0x7
 3624 10c0 04       		.byte	0x4
 3625 10c1 87100000 		.4byte	0x1087
 3626 10c5 08       		.uleb128 0x8
 3627 10c6 EE100000 		.4byte	0x10ee
 3628 10ca 09       		.uleb128 0x9
 3629 10cb 4B0F0000 		.4byte	0xf4b
 3630 10cf 09       		.uleb128 0x9
 3631 10d0 8D010000 		.4byte	0x18d
 3632 10d4 09       		.uleb128 0x9
 3633 10d5 EF010000 		.4byte	0x1ef
 3634 10d9 09       		.uleb128 0x9
 3635 10da C60D0000 		.4byte	0xdc6
 3636 10de 09       		.uleb128 0x9
 3637 10df 8D010000 		.4byte	0x18d
 3638 10e3 09       		.uleb128 0x9
 3639 10e4 EF010000 		.4byte	0x1ef
 3640 10e8 09       		.uleb128 0x9
 3641 10e9 C60D0000 		.4byte	0xdc6
 3642 10ed 00       		.byte	0
 3643 10ee 07       		.uleb128 0x7
 3644 10ef 04       		.byte	0x4
 3645 10f0 C5100000 		.4byte	0x10c5
 3646 10f4 12       		.uleb128 0x12
 3647 10f5 0D110000 		.4byte	0x110d
 3648 10f9 0D110000 		.4byte	0x110d
 3649 10fd 09       		.uleb128 0x9
ARM GAS  C:\Users\haske\AppData\Local\Temp\cc65HANE.s 			page 87


 3650 10fe 4B0F0000 		.4byte	0xf4b
 3651 1102 09       		.uleb128 0x9
 3652 1103 0D110000 		.4byte	0x110d
 3653 1107 09       		.uleb128 0x9
 3654 1108 820D0000 		.4byte	0xd82
 3655 110c 00       		.byte	0
 3656 110d 07       		.uleb128 0x7
 3657 110e 04       		.byte	0x4
 3658 110f D70D0000 		.4byte	0xdd7
 3659 1113 07       		.uleb128 0x7
 3660 1114 04       		.byte	0x4
 3661 1115 F4100000 		.4byte	0x10f4
 3662 1119 08       		.uleb128 0x8
 3663 111a 2E110000 		.4byte	0x112e
 3664 111e 09       		.uleb128 0x9
 3665 111f 4B0F0000 		.4byte	0xf4b
 3666 1123 09       		.uleb128 0x9
 3667 1124 0D110000 		.4byte	0x110d
 3668 1128 09       		.uleb128 0x9
 3669 1129 820D0000 		.4byte	0xd82
 3670 112d 00       		.byte	0
 3671 112e 07       		.uleb128 0x7
 3672 112f 04       		.byte	0x4
 3673 1130 19110000 		.4byte	0x1119
 3674 1134 08       		.uleb128 0x8
 3675 1135 49110000 		.4byte	0x1149
 3676 1139 09       		.uleb128 0x9
 3677 113a 4B0F0000 		.4byte	0xf4b
 3678 113e 09       		.uleb128 0x9
 3679 113f 0D110000 		.4byte	0x110d
 3680 1143 09       		.uleb128 0x9
 3681 1144 DC0F0000 		.4byte	0xfdc
 3682 1148 00       		.byte	0
 3683 1149 07       		.uleb128 0x7
 3684 114a 04       		.byte	0x4
 3685 114b 34110000 		.4byte	0x1134
 3686 114f 08       		.uleb128 0x8
 3687 1150 5F110000 		.4byte	0x115f
 3688 1154 09       		.uleb128 0x9
 3689 1155 4B0F0000 		.4byte	0xf4b
 3690 1159 09       		.uleb128 0x9
 3691 115a 5F110000 		.4byte	0x115f
 3692 115e 00       		.byte	0
 3693 115f 07       		.uleb128 0x7
 3694 1160 04       		.byte	0x4
 3695 1161 2C0E0000 		.4byte	0xe2c
 3696 1165 07       		.uleb128 0x7
 3697 1166 04       		.byte	0x4
 3698 1167 4F110000 		.4byte	0x114f
 3699 116b 02       		.uleb128 0x2
 3700 116c E31F0000 		.4byte	.LASF304
 3701 1170 18       		.byte	0x18
 3702 1171 C0       		.byte	0xc0
 3703 1172 370E0000 		.4byte	0xe37
 3704 1176 02       		.uleb128 0x2
 3705 1177 AF0B0000 		.4byte	.LASF305
 3706 117b 19       		.byte	0x19
ARM GAS  C:\Users\haske\AppData\Local\Temp\cc65HANE.s 			page 88


 3707 117c 1D       		.byte	0x1d
 3708 117d B8000000 		.4byte	0xb8
 3709 1181 0F       		.uleb128 0xf
 3710 1182 0C       		.byte	0xc
 3711 1183 19       		.byte	0x19
 3712 1184 20       		.byte	0x20
 3713 1185 AE110000 		.4byte	0x11ae
 3714 1189 0B       		.uleb128 0xb
 3715 118a C2260000 		.4byte	.LASF306
 3716 118e 19       		.byte	0x19
 3717 118f 21       		.byte	0x21
 3718 1190 E4000000 		.4byte	0xe4
 3719 1194 00       		.byte	0
 3720 1195 0B       		.uleb128 0xb
 3721 1196 30240000 		.4byte	.LASF307
 3722 119a 19       		.byte	0x19
 3723 119b 22       		.byte	0x22
 3724 119c AE110000 		.4byte	0x11ae
 3725 11a0 04       		.byte	0x4
 3726 11a1 0B       		.uleb128 0xb
 3727 11a2 72220000 		.4byte	.LASF308
 3728 11a6 19       		.byte	0x19
 3729 11a7 23       		.byte	0x23
 3730 11a8 AE110000 		.4byte	0x11ae
 3731 11ac 08       		.byte	0x8
 3732 11ad 00       		.byte	0
 3733 11ae 07       		.uleb128 0x7
 3734 11af 04       		.byte	0x4
 3735 11b0 76110000 		.4byte	0x1176
 3736 11b4 02       		.uleb128 0x2
 3737 11b5 7C140000 		.4byte	.LASF309
 3738 11b9 19       		.byte	0x19
 3739 11ba 24       		.byte	0x24
 3740 11bb 81110000 		.4byte	0x1181
 3741 11bf 0A       		.uleb128 0xa
 3742 11c0 F81F0000 		.4byte	.LASF310
 3743 11c4 1C       		.byte	0x1c
 3744 11c5 1A       		.byte	0x1a
 3745 11c6 32       		.byte	0x32
 3746 11c7 32120000 		.4byte	0x1232
 3747 11cb 0B       		.uleb128 0xb
 3748 11cc CC160000 		.4byte	.LASF311
 3749 11d0 1A       		.byte	0x1a
 3750 11d1 33       		.byte	0x33
 3751 11d2 8D010000 		.4byte	0x18d
 3752 11d6 00       		.byte	0
 3753 11d7 0B       		.uleb128 0xb
 3754 11d8 F9150000 		.4byte	.LASF312
 3755 11dc 1A       		.byte	0x1a
 3756 11dd 34       		.byte	0x34
 3757 11de 8D010000 		.4byte	0x18d
 3758 11e2 04       		.byte	0x4
 3759 11e3 0B       		.uleb128 0xb
 3760 11e4 28260000 		.4byte	.LASF313
 3761 11e8 1A       		.byte	0x1a
 3762 11e9 37       		.byte	0x37
 3763 11ea 8D010000 		.4byte	0x18d
ARM GAS  C:\Users\haske\AppData\Local\Temp\cc65HANE.s 			page 89


 3764 11ee 08       		.byte	0x8
 3765 11ef 0B       		.uleb128 0xb
 3766 11f0 C10E0000 		.4byte	.LASF314
 3767 11f4 1A       		.byte	0x1a
 3768 11f5 38       		.byte	0x38
 3769 11f6 E4000000 		.4byte	0xe4
 3770 11fa 0C       		.byte	0xc
 3771 11fb 0B       		.uleb128 0xb
 3772 11fc A81D0000 		.4byte	.LASF315
 3773 1200 1A       		.byte	0x1a
 3774 1201 3A       		.byte	0x3a
 3775 1202 32120000 		.4byte	0x1232
 3776 1206 10       		.byte	0x10
 3777 1207 0B       		.uleb128 0xb
 3778 1208 8E0B0000 		.4byte	.LASF316
 3779 120c 1A       		.byte	0x1a
 3780 120d 3C       		.byte	0x3c
 3781 120e 32120000 		.4byte	0x1232
 3782 1212 14       		.byte	0x14
 3783 1213 0C       		.uleb128 0xc
 3784 1214 4F050000 		.4byte	.LASF317
 3785 1218 1A       		.byte	0x1a
 3786 1219 3D       		.byte	0x3d
 3787 121a 37120000 		.4byte	0x1237
 3788 121e 04       		.byte	0x4
 3789 121f 01       		.byte	0x1
 3790 1220 1F       		.byte	0x1f
 3791 1221 18       		.byte	0x18
 3792 1222 0C       		.uleb128 0xc
 3793 1223 B3290000 		.4byte	.LASF318
 3794 1227 1A       		.byte	0x1a
 3795 1228 3E       		.byte	0x3e
 3796 1229 37120000 		.4byte	0x1237
 3797 122d 04       		.byte	0x4
 3798 122e 01       		.byte	0x1
 3799 122f 1E       		.byte	0x1e
 3800 1230 18       		.byte	0x18
 3801 1231 00       		.byte	0
 3802 1232 20       		.uleb128 0x20
 3803 1233 9F000000 		.4byte	0x9f
 3804 1237 20       		.uleb128 0x20
 3805 1238 E4000000 		.4byte	0xe4
 3806 123c 02       		.uleb128 0x2
 3807 123d 23280000 		.4byte	.LASF319
 3808 1241 1A       		.byte	0x1a
 3809 1242 3F       		.byte	0x3f
 3810 1243 BF110000 		.4byte	0x11bf
 3811 1247 0A       		.uleb128 0xa
 3812 1248 211A0000 		.4byte	.LASF320
 3813 124c 50       		.byte	0x50
 3814 124d 1A       		.byte	0x1a
 3815 124e 4D       		.byte	0x4d
 3816 124f C5130000 		.4byte	0x13c5
 3817 1253 0B       		.uleb128 0xb
 3818 1254 90220000 		.4byte	.LASF321
 3819 1258 1A       		.byte	0x1a
 3820 1259 4F       		.byte	0x4f
ARM GAS  C:\Users\haske\AppData\Local\Temp\cc65HANE.s 			page 90


 3821 125a EF010000 		.4byte	0x1ef
 3822 125e 00       		.byte	0
 3823 125f 0B       		.uleb128 0xb
 3824 1260 02100000 		.4byte	.LASF322
 3825 1264 1A       		.byte	0x1a
 3826 1265 50       		.byte	0x50
 3827 1266 EF010000 		.4byte	0x1ef
 3828 126a 02       		.byte	0x2
 3829 126b 0B       		.uleb128 0xb
 3830 126c 5A0C0000 		.4byte	.LASF323
 3831 1270 1A       		.byte	0x1a
 3832 1271 53       		.byte	0x53
 3833 1272 EF010000 		.4byte	0x1ef
 3834 1276 04       		.byte	0x4
 3835 1277 0B       		.uleb128 0xb
 3836 1278 FE100000 		.4byte	.LASF324
 3837 127c 1A       		.byte	0x1a
 3838 127d 55       		.byte	0x55
 3839 127e EF010000 		.4byte	0x1ef
 3840 1282 06       		.byte	0x6
 3841 1283 0B       		.uleb128 0xb
 3842 1284 4A120000 		.4byte	.LASF325
 3843 1288 1A       		.byte	0x1a
 3844 1289 57       		.byte	0x57
 3845 128a EF010000 		.4byte	0x1ef
 3846 128e 08       		.byte	0x8
 3847 128f 0B       		.uleb128 0xb
 3848 1290 53120000 		.4byte	.LASF326
 3849 1294 1A       		.byte	0x1a
 3850 1295 58       		.byte	0x58
 3851 1296 EF010000 		.4byte	0x1ef
 3852 129a 0A       		.byte	0xa
 3853 129b 0B       		.uleb128 0xb
 3854 129c AE280000 		.4byte	.LASF327
 3855 12a0 1A       		.byte	0x1a
 3856 12a1 5C       		.byte	0x5c
 3857 12a2 C5130000 		.4byte	0x13c5
 3858 12a6 0C       		.byte	0xc
 3859 12a7 0C       		.uleb128 0xc
 3860 12a8 840F0000 		.4byte	.LASF328
 3861 12ac 1A       		.byte	0x1a
 3862 12ad 5E       		.byte	0x5e
 3863 12ae E4000000 		.4byte	0xe4
 3864 12b2 04       		.byte	0x4
 3865 12b3 01       		.byte	0x1
 3866 12b4 1F       		.byte	0x1f
 3867 12b5 10       		.byte	0x10
 3868 12b6 0C       		.uleb128 0xc
 3869 12b7 0D0F0000 		.4byte	.LASF329
 3870 12bb 1A       		.byte	0x1a
 3871 12bc 5F       		.byte	0x5f
 3872 12bd E4000000 		.4byte	0xe4
 3873 12c1 04       		.byte	0x4
 3874 12c2 01       		.byte	0x1
 3875 12c3 1E       		.byte	0x1e
 3876 12c4 10       		.byte	0x10
 3877 12c5 0C       		.uleb128 0xc
ARM GAS  C:\Users\haske\AppData\Local\Temp\cc65HANE.s 			page 91


 3878 12c6 CD070000 		.4byte	.LASF330
 3879 12ca 1A       		.byte	0x1a
 3880 12cb 60       		.byte	0x60
 3881 12cc E4000000 		.4byte	0xe4
 3882 12d0 04       		.byte	0x4
 3883 12d1 01       		.byte	0x1
 3884 12d2 1D       		.byte	0x1d
 3885 12d3 10       		.byte	0x10
 3886 12d4 0C       		.uleb128 0xc
 3887 12d5 360D0000 		.4byte	.LASF331
 3888 12d9 1A       		.byte	0x1a
 3889 12da 61       		.byte	0x61
 3890 12db E4000000 		.4byte	0xe4
 3891 12df 04       		.byte	0x4
 3892 12e0 01       		.byte	0x1
 3893 12e1 1C       		.byte	0x1c
 3894 12e2 10       		.byte	0x10
 3895 12e3 0C       		.uleb128 0xc
 3896 12e4 75050000 		.4byte	.LASF332
 3897 12e8 1A       		.byte	0x1a
 3898 12e9 62       		.byte	0x62
 3899 12ea E4000000 		.4byte	0xe4
 3900 12ee 04       		.byte	0x4
 3901 12ef 02       		.byte	0x2
 3902 12f0 1A       		.byte	0x1a
 3903 12f1 10       		.byte	0x10
 3904 12f2 0C       		.uleb128 0xc
 3905 12f3 8A050000 		.4byte	.LASF278
 3906 12f7 1A       		.byte	0x1a
 3907 12f8 63       		.byte	0x63
 3908 12f9 E4000000 		.4byte	0xe4
 3909 12fd 04       		.byte	0x4
 3910 12fe 01       		.byte	0x1
 3911 12ff 19       		.byte	0x19
 3912 1300 10       		.byte	0x10
 3913 1301 11       		.uleb128 0x11
 3914 1302 64706900 		.ascii	"dpi\000"
 3915 1306 1A       		.byte	0x1a
 3916 1307 66       		.byte	0x66
 3917 1308 E4000000 		.4byte	0xe4
 3918 130c 04       		.byte	0x4
 3919 130d 0A       		.byte	0xa
 3920 130e 0F       		.byte	0xf
 3921 130f 10       		.byte	0x10
 3922 1310 0B       		.uleb128 0xb
 3923 1311 DC150000 		.4byte	.LASF333
 3924 1315 1A       		.byte	0x1a
 3925 1316 6A       		.byte	0x6a
 3926 1317 E6130000 		.4byte	0x13e6
 3927 131b 14       		.byte	0x14
 3928 131c 0B       		.uleb128 0xb
 3929 131d E8040000 		.4byte	.LASF334
 3930 1321 1A       		.byte	0x1a
 3931 1322 6E       		.byte	0x6e
 3932 1323 FC130000 		.4byte	0x13fc
 3933 1327 18       		.byte	0x18
 3934 1328 0B       		.uleb128 0xb
ARM GAS  C:\Users\haske\AppData\Local\Temp\cc65HANE.s 			page 92


 3935 1329 FD1D0000 		.4byte	.LASF335
 3936 132d 1A       		.byte	0x1a
 3937 132e 73       		.byte	0x73
 3938 132f 2B140000 		.4byte	0x142b
 3939 1333 1C       		.byte	0x1c
 3940 1334 0B       		.uleb128 0xb
 3941 1335 1E1E0000 		.4byte	.LASF336
 3942 1339 1A       		.byte	0x1a
 3943 133a 76       		.byte	0x76
 3944 133b 46140000 		.4byte	0x1446
 3945 133f 20       		.byte	0x20
 3946 1340 0B       		.uleb128 0xb
 3947 1341 E30E0000 		.4byte	.LASF337
 3948 1345 1A       		.byte	0x1a
 3949 1346 7B       		.byte	0x7b
 3950 1347 61140000 		.4byte	0x1461
 3951 134b 24       		.byte	0x24
 3952 134c 0B       		.uleb128 0xb
 3953 134d 800C0000 		.4byte	.LASF338
 3954 1351 1A       		.byte	0x1a
 3955 1352 80       		.byte	0x80
 3956 1353 72140000 		.4byte	0x1472
 3957 1357 28       		.byte	0x28
 3958 1358 0B       		.uleb128 0xb
 3959 1359 301A0000 		.4byte	.LASF339
 3960 135d 1A       		.byte	0x1a
 3961 135e 83       		.byte	0x83
 3962 135f 72140000 		.4byte	0x1472
 3963 1363 2C       		.byte	0x2c
 3964 1364 0B       		.uleb128 0xb
 3965 1365 351C0000 		.4byte	.LASF340
 3966 1369 1A       		.byte	0x1a
 3967 136a 86       		.byte	0x86
 3968 136b 72140000 		.4byte	0x1472
 3969 136f 30       		.byte	0x30
 3970 1370 0B       		.uleb128 0xb
 3971 1371 451B0000 		.4byte	.LASF341
 3972 1375 1A       		.byte	0x1a
 3973 1376 89       		.byte	0x89
 3974 1377 72140000 		.4byte	0x1472
 3975 137b 34       		.byte	0x34
 3976 137c 0B       		.uleb128 0xb
 3977 137d BB160000 		.4byte	.LASF342
 3978 1381 1A       		.byte	0x1a
 3979 1382 8D       		.byte	0x8d
 3980 1383 7E040000 		.4byte	0x47e
 3981 1387 38       		.byte	0x38
 3982 1388 0B       		.uleb128 0xb
 3983 1389 382A0000 		.4byte	.LASF343
 3984 138d 1A       		.byte	0x1a
 3985 138e 8F       		.byte	0x8f
 3986 138f 78140000 		.4byte	0x1478
 3987 1393 3C       		.byte	0x3c
 3988 1394 0B       		.uleb128 0xb
 3989 1395 80120000 		.4byte	.LASF344
 3990 1399 1A       		.byte	0x1a
 3991 139a 90       		.byte	0x90
ARM GAS  C:\Users\haske\AppData\Local\Temp\cc65HANE.s 			page 93


 3992 139b 8E140000 		.4byte	0x148e
 3993 139f 40       		.byte	0x40
 3994 13a0 0B       		.uleb128 0xb
 3995 13a1 0D270000 		.4byte	.LASF345
 3996 13a5 1A       		.byte	0x1a
 3997 13a6 91       		.byte	0x91
 3998 13a7 8E140000 		.4byte	0x148e
 3999 13ab 44       		.byte	0x44
 4000 13ac 0B       		.uleb128 0xb
 4001 13ad 8E010000 		.4byte	.LASF346
 4002 13b1 1A       		.byte	0x1a
 4003 13b2 92       		.byte	0x92
 4004 13b3 9A010000 		.4byte	0x19a
 4005 13b7 48       		.byte	0x48
 4006 13b8 0B       		.uleb128 0xb
 4007 13b9 EC1C0000 		.4byte	.LASF28
 4008 13bd 1A       		.byte	0x1a
 4009 13be 95       		.byte	0x95
 4010 13bf 8D010000 		.4byte	0x18d
 4011 13c3 4C       		.byte	0x4c
 4012 13c4 00       		.byte	0
 4013 13c5 07       		.uleb128 0x7
 4014 13c6 04       		.byte	0x4
 4015 13c7 3C120000 		.4byte	0x123c
 4016 13cb 08       		.uleb128 0x8
 4017 13cc E0130000 		.4byte	0x13e0
 4018 13d0 09       		.uleb128 0x9
 4019 13d1 E0130000 		.4byte	0x13e0
 4020 13d5 09       		.uleb128 0x9
 4021 13d6 C60D0000 		.4byte	0xdc6
 4022 13da 09       		.uleb128 0x9
 4023 13db 94090000 		.4byte	0x994
 4024 13df 00       		.byte	0
 4025 13e0 07       		.uleb128 0x7
 4026 13e1 04       		.byte	0x4
 4027 13e2 47120000 		.4byte	0x1247
 4028 13e6 07       		.uleb128 0x7
 4029 13e7 04       		.byte	0x4
 4030 13e8 CB130000 		.4byte	0x13cb
 4031 13ec 08       		.uleb128 0x8
 4032 13ed FC130000 		.4byte	0x13fc
 4033 13f1 09       		.uleb128 0x9
 4034 13f2 E0130000 		.4byte	0x13e0
 4035 13f6 09       		.uleb128 0x9
 4036 13f7 D10D0000 		.4byte	0xdd1
 4037 13fb 00       		.byte	0
 4038 13fc 07       		.uleb128 0x7
 4039 13fd 04       		.byte	0x4
 4040 13fe EC130000 		.4byte	0x13ec
 4041 1402 08       		.uleb128 0x8
 4042 1403 2B140000 		.4byte	0x142b
 4043 1407 09       		.uleb128 0x9
 4044 1408 E0130000 		.4byte	0x13e0
 4045 140c 09       		.uleb128 0x9
 4046 140d 61080000 		.4byte	0x861
 4047 1411 09       		.uleb128 0x9
 4048 1412 EF010000 		.4byte	0x1ef
ARM GAS  C:\Users\haske\AppData\Local\Temp\cc65HANE.s 			page 94


 4049 1416 09       		.uleb128 0x9
 4050 1417 EF010000 		.4byte	0x1ef
 4051 141b 09       		.uleb128 0x9
 4052 141c EF010000 		.4byte	0x1ef
 4053 1420 09       		.uleb128 0x9
 4054 1421 7E040000 		.4byte	0x47e
 4055 1425 09       		.uleb128 0x9
 4056 1426 89040000 		.4byte	0x489
 4057 142a 00       		.byte	0
 4058 142b 07       		.uleb128 0x7
 4059 142c 04       		.byte	0x4
 4060 142d 02140000 		.4byte	0x1402
 4061 1431 08       		.uleb128 0x8
 4062 1432 46140000 		.4byte	0x1446
 4063 1436 09       		.uleb128 0x9
 4064 1437 E0130000 		.4byte	0x13e0
 4065 143b 09       		.uleb128 0x9
 4066 143c 61080000 		.4byte	0x861
 4067 1440 09       		.uleb128 0x9
 4068 1441 E4000000 		.4byte	0xe4
 4069 1445 00       		.byte	0
 4070 1446 07       		.uleb128 0x7
 4071 1447 04       		.byte	0x4
 4072 1448 31140000 		.4byte	0x1431
 4073 144c 08       		.uleb128 0x8
 4074 144d 61140000 		.4byte	0x1461
 4075 1451 09       		.uleb128 0x9
 4076 1452 E0130000 		.4byte	0x13e0
 4077 1456 09       		.uleb128 0x9
 4078 1457 E4000000 		.4byte	0xe4
 4079 145b 09       		.uleb128 0x9
 4080 145c E4000000 		.4byte	0xe4
 4081 1460 00       		.byte	0
 4082 1461 07       		.uleb128 0x7
 4083 1462 04       		.byte	0x4
 4084 1463 4C140000 		.4byte	0x144c
 4085 1467 08       		.uleb128 0x8
 4086 1468 72140000 		.4byte	0x1472
 4087 146c 09       		.uleb128 0x9
 4088 146d E0130000 		.4byte	0x13e0
 4089 1471 00       		.byte	0
 4090 1472 07       		.uleb128 0x7
 4091 1473 04       		.byte	0x4
 4092 1474 67140000 		.4byte	0x1467
 4093 1478 07       		.uleb128 0x7
 4094 1479 04       		.byte	0x4
 4095 147a 6B110000 		.4byte	0x116b
 4096 147e 08       		.uleb128 0x8
 4097 147f 8E140000 		.4byte	0x148e
 4098 1483 09       		.uleb128 0x9
 4099 1484 E0130000 		.4byte	0x13e0
 4100 1488 09       		.uleb128 0x9
 4101 1489 78140000 		.4byte	0x1478
 4102 148d 00       		.byte	0
 4103 148e 07       		.uleb128 0x7
 4104 148f 04       		.byte	0x4
 4105 1490 7E140000 		.4byte	0x147e
ARM GAS  C:\Users\haske\AppData\Local\Temp\cc65HANE.s 			page 95


 4106 1494 21       		.uleb128 0x21
 4107 1495 31170000 		.4byte	.LASF347
 4108 1499 5C01     		.2byte	0x15c
 4109 149b 1A       		.byte	0x1a
 4110 149c 9E       		.byte	0x9e
 4111 149d AB150000 		.4byte	0x15ab
 4112 14a1 0B       		.uleb128 0xb
 4113 14a2 5A210000 		.4byte	.LASF348
 4114 14a6 1A       		.byte	0x1a
 4115 14a7 A0       		.byte	0xa0
 4116 14a8 E0130000 		.4byte	0x13e0
 4117 14ac 00       		.byte	0
 4118 14ad 0B       		.uleb128 0xb
 4119 14ae B7240000 		.4byte	.LASF349
 4120 14b2 1A       		.byte	0x1a
 4121 14b3 A3       		.byte	0xa3
 4122 14b4 AB150000 		.4byte	0x15ab
 4123 14b8 04       		.byte	0x4
 4124 14b9 0B       		.uleb128 0xb
 4125 14ba FC0F0000 		.4byte	.LASF350
 4126 14be 1A       		.byte	0x1a
 4127 14bf A6       		.byte	0xa6
 4128 14c0 36160000 		.4byte	0x1636
 4129 14c4 08       		.byte	0x8
 4130 14c5 0B       		.uleb128 0xb
 4131 14c6 28220000 		.4byte	.LASF351
 4132 14ca 1A       		.byte	0x1a
 4133 14cb A9       		.byte	0xa9
 4134 14cc 3C160000 		.4byte	0x163c
 4135 14d0 0C       		.byte	0xc
 4136 14d1 0B       		.uleb128 0xb
 4137 14d2 CC100000 		.4byte	.LASF352
 4138 14d6 1A       		.byte	0x1a
 4139 14d7 AA       		.byte	0xaa
 4140 14d8 C7080000 		.4byte	0x8c7
 4141 14dc 10       		.byte	0x10
 4142 14dd 0B       		.uleb128 0xb
 4143 14de 84140000 		.4byte	.LASF353
 4144 14e2 1A       		.byte	0x1a
 4145 14e3 AB       		.byte	0xab
 4146 14e4 C7080000 		.4byte	0x8c7
 4147 14e8 14       		.byte	0x14
 4148 14e9 0B       		.uleb128 0xb
 4149 14ea DC1E0000 		.4byte	.LASF354
 4150 14ee 1A       		.byte	0x1a
 4151 14ef AC       		.byte	0xac
 4152 14f0 C7080000 		.4byte	0x8c7
 4153 14f4 18       		.byte	0x18
 4154 14f5 0B       		.uleb128 0xb
 4155 14f6 D21E0000 		.4byte	.LASF355
 4156 14fa 1A       		.byte	0x1a
 4157 14fb AD       		.byte	0xad
 4158 14fc C7080000 		.4byte	0x8c7
 4159 1500 1C       		.byte	0x1c
 4160 1501 0B       		.uleb128 0xb
 4161 1502 2B2C0000 		.4byte	.LASF356
 4162 1506 1A       		.byte	0x1a
ARM GAS  C:\Users\haske\AppData\Local\Temp\cc65HANE.s 			page 96


 4163 1507 AE       		.byte	0xae
 4164 1508 C7080000 		.4byte	0x8c7
 4165 150c 20       		.byte	0x20
 4166 150d 0B       		.uleb128 0xb
 4167 150e DE210000 		.4byte	.LASF357
 4168 1512 1A       		.byte	0x1a
 4169 1513 AF       		.byte	0xaf
 4170 1514 E4000000 		.4byte	0xe4
 4171 1518 24       		.byte	0x24
 4172 1519 0C       		.uleb128 0xc
 4173 151a 9C0B0000 		.4byte	.LASF358
 4174 151e 1A       		.byte	0x1a
 4175 151f B0       		.byte	0xb0
 4176 1520 B8000000 		.4byte	0xb8
 4177 1524 01       		.byte	0x1
 4178 1525 01       		.byte	0x1
 4179 1526 07       		.byte	0x7
 4180 1527 28       		.byte	0x28
 4181 1528 0C       		.uleb128 0xc
 4182 1529 3F0B0000 		.4byte	.LASF359
 4183 152d 1A       		.byte	0x1a
 4184 152e B2       		.byte	0xb2
 4185 152f B8000000 		.4byte	0xb8
 4186 1533 01       		.byte	0x1
 4187 1534 01       		.byte	0x1
 4188 1535 06       		.byte	0x6
 4189 1536 28       		.byte	0x28
 4190 1537 0C       		.uleb128 0xc
 4191 1538 5C120000 		.4byte	.LASF360
 4192 153c 1A       		.byte	0x1a
 4193 153d B4       		.byte	0xb4
 4194 153e B8000000 		.4byte	0xb8
 4195 1542 01       		.byte	0x1
 4196 1543 01       		.byte	0x1
 4197 1544 05       		.byte	0x5
 4198 1545 28       		.byte	0x28
 4199 1546 0B       		.uleb128 0xb
 4200 1547 00000000 		.4byte	.LASF215
 4201 154b 1A       		.byte	0x1a
 4202 154c B6       		.byte	0xb6
 4203 154d 89040000 		.4byte	0x489
 4204 1551 29       		.byte	0x29
 4205 1552 0B       		.uleb128 0xb
 4206 1553 AB2C0000 		.4byte	.LASF216
 4207 1557 1A       		.byte	0x1a
 4208 1558 B7       		.byte	0xb7
 4209 1559 7E040000 		.4byte	0x47e
 4210 155d 2A       		.byte	0x2a
 4211 155e 0B       		.uleb128 0xb
 4212 155f 3A100000 		.4byte	.LASF361
 4213 1563 1A       		.byte	0x1a
 4214 1564 B8       		.byte	0xb8
 4215 1565 0D040000 		.4byte	0x40d
 4216 1569 2C       		.byte	0x2c
 4217 156a 0B       		.uleb128 0xb
 4218 156b F31D0000 		.4byte	.LASF362
 4219 156f 1A       		.byte	0x1a
ARM GAS  C:\Users\haske\AppData\Local\Temp\cc65HANE.s 			page 97


 4220 1570 BB       		.byte	0xbb
 4221 1571 42160000 		.4byte	0x1642
 4222 1575 30       		.byte	0x30
 4223 1576 22       		.uleb128 0x22
 4224 1577 282A0000 		.4byte	.LASF363
 4225 157b 1A       		.byte	0x1a
 4226 157c BC       		.byte	0xbc
 4227 157d 52160000 		.4byte	0x1652
 4228 1581 3001     		.2byte	0x130
 4229 1583 22       		.uleb128 0x22
 4230 1584 53240000 		.4byte	.LASF364
 4231 1588 1A       		.byte	0x1a
 4232 1589 BD       		.byte	0xbd
 4233 158a CE000000 		.4byte	0xce
 4234 158e 5001     		.2byte	0x150
 4235 1590 22       		.uleb128 0x22
 4236 1591 F4090000 		.4byte	.LASF365
 4237 1595 1A       		.byte	0x1a
 4238 1596 BE       		.byte	0xbe
 4239 1597 D9000000 		.4byte	0xd9
 4240 159b 5401     		.2byte	0x154
 4241 159d 22       		.uleb128 0x22
 4242 159e 09020000 		.4byte	.LASF366
 4243 15a2 1A       		.byte	0x1a
 4244 15a3 C1       		.byte	0xc1
 4245 15a4 E4000000 		.4byte	0xe4
 4246 15a8 5801     		.2byte	0x158
 4247 15aa 00       		.byte	0
 4248 15ab 07       		.uleb128 0x7
 4249 15ac 04       		.byte	0x4
 4250 15ad 8F010000 		.4byte	0x18f
 4251 15b1 0A       		.uleb128 0xa
 4252 15b2 001A0000 		.4byte	.LASF367
 4253 15b6 24       		.byte	0x24
 4254 15b7 1B       		.byte	0x1b
 4255 15b8 1F       		.byte	0x1f
 4256 15b9 36160000 		.4byte	0x1636
 4257 15bd 0B       		.uleb128 0xb
 4258 15be 4C130000 		.4byte	.LASF368
 4259 15c2 1B       		.byte	0x1b
 4260 15c3 20       		.byte	0x20
 4261 15c4 61200000 		.4byte	0x2061
 4262 15c8 00       		.byte	0
 4263 15c9 0B       		.uleb128 0xb
 4264 15ca DB250000 		.4byte	.LASF201
 4265 15ce 1B       		.byte	0x1b
 4266 15cf 21       		.byte	0x21
 4267 15d0 36160000 		.4byte	0x1636
 4268 15d4 04       		.byte	0x4
 4269 15d5 0B       		.uleb128 0xb
 4270 15d6 EC1C0000 		.4byte	.LASF28
 4271 15da 1B       		.byte	0x1b
 4272 15db 22       		.byte	0x22
 4273 15dc 8D010000 		.4byte	0x18d
 4274 15e0 08       		.byte	0x8
 4275 15e1 0B       		.uleb128 0xb
 4276 15e2 98180000 		.4byte	.LASF369
ARM GAS  C:\Users\haske\AppData\Local\Temp\cc65HANE.s 			page 98


 4277 15e6 1B       		.byte	0x1b
 4278 15e7 23       		.byte	0x23
 4279 15e8 ED170000 		.4byte	0x17ed
 4280 15ec 0C       		.byte	0xc
 4281 15ed 0B       		.uleb128 0xb
 4282 15ee 11220000 		.4byte	.LASF370
 4283 15f2 1B       		.byte	0x1b
 4284 15f3 24       		.byte	0x24
 4285 15f4 7E040000 		.4byte	0x47e
 4286 15f8 10       		.byte	0x10
 4287 15f9 0B       		.uleb128 0xb
 4288 15fa 9D2B0000 		.4byte	.LASF371
 4289 15fe 1B       		.byte	0x1b
 4290 15ff 25       		.byte	0x25
 4291 1600 7E040000 		.4byte	0x47e
 4292 1604 12       		.byte	0x12
 4293 1605 0B       		.uleb128 0xb
 4294 1606 A5200000 		.4byte	.LASF372
 4295 160a 1B       		.byte	0x1b
 4296 160b 26       		.byte	0x26
 4297 160c BB0B0000 		.4byte	0xbbb
 4298 1610 14       		.byte	0x14
 4299 1611 0B       		.uleb128 0xb
 4300 1612 D4020000 		.4byte	.LASF373
 4301 1616 1B       		.byte	0x1b
 4302 1617 27       		.byte	0x27
 4303 1618 BB0B0000 		.4byte	0xbbb
 4304 161c 18       		.byte	0x18
 4305 161d 0B       		.uleb128 0xb
 4306 161e 430D0000 		.4byte	.LASF374
 4307 1622 1B       		.byte	0x1b
 4308 1623 28       		.byte	0x28
 4309 1624 BB0B0000 		.4byte	0xbbb
 4310 1628 1C       		.byte	0x1c
 4311 1629 0B       		.uleb128 0xb
 4312 162a B42C0000 		.4byte	.LASF205
 4313 162e 1B       		.byte	0x1b
 4314 162f 29       		.byte	0x29
 4315 1630 E4000000 		.4byte	0xe4
 4316 1634 20       		.byte	0x20
 4317 1635 00       		.byte	0
 4318 1636 07       		.uleb128 0x7
 4319 1637 04       		.byte	0x4
 4320 1638 B1150000 		.4byte	0x15b1
 4321 163c 07       		.uleb128 0x7
 4322 163d 04       		.byte	0x4
 4323 163e C7080000 		.4byte	0x8c7
 4324 1642 17       		.uleb128 0x17
 4325 1643 57020000 		.4byte	0x257
 4326 1647 52160000 		.4byte	0x1652
 4327 164b 18       		.uleb128 0x18
 4328 164c AC010000 		.4byte	0x1ac
 4329 1650 1F       		.byte	0x1f
 4330 1651 00       		.byte	0
 4331 1652 17       		.uleb128 0x17
 4332 1653 B8000000 		.4byte	0xb8
 4333 1657 62160000 		.4byte	0x1662
ARM GAS  C:\Users\haske\AppData\Local\Temp\cc65HANE.s 			page 99


 4334 165b 18       		.uleb128 0x18
 4335 165c AC010000 		.4byte	0x1ac
 4336 1660 1F       		.byte	0x1f
 4337 1661 00       		.byte	0
 4338 1662 05       		.uleb128 0x5
 4339 1663 01       		.byte	0x1
 4340 1664 42000000 		.4byte	0x42
 4341 1668 1C       		.byte	0x1c
 4342 1669 3E       		.byte	0x3e
 4343 166a 8D160000 		.4byte	0x168d
 4344 166e 06       		.uleb128 0x6
 4345 166f 1E0A0000 		.4byte	.LASF375
 4346 1673 00       		.byte	0
 4347 1674 06       		.uleb128 0x6
 4348 1675 C30B0000 		.4byte	.LASF376
 4349 1679 01       		.byte	0x1
 4350 167a 06       		.uleb128 0x6
 4351 167b BB220000 		.4byte	.LASF377
 4352 167f 02       		.byte	0x2
 4353 1680 06       		.uleb128 0x6
 4354 1681 DB240000 		.4byte	.LASF378
 4355 1685 03       		.byte	0x3
 4356 1686 06       		.uleb128 0x6
 4357 1687 C8180000 		.4byte	.LASF379
 4358 168b 04       		.byte	0x4
 4359 168c 00       		.byte	0
 4360 168d 02       		.uleb128 0x2
 4361 168e 5B170000 		.4byte	.LASF380
 4362 1692 1C       		.byte	0x1c
 4363 1693 44       		.byte	0x44
 4364 1694 62160000 		.4byte	0x1662
 4365 1698 05       		.uleb128 0x5
 4366 1699 01       		.byte	0x1
 4367 169a 42000000 		.4byte	0x42
 4368 169e 1C       		.byte	0x1c
 4369 169f 47       		.byte	0x47
 4370 16a0 B1160000 		.4byte	0x16b1
 4371 16a4 06       		.uleb128 0x6
 4372 16a5 09190000 		.4byte	.LASF381
 4373 16a9 00       		.byte	0
 4374 16aa 06       		.uleb128 0x6
 4375 16ab 551B0000 		.4byte	.LASF382
 4376 16af 01       		.byte	0x1
 4377 16b0 00       		.byte	0
 4378 16b1 02       		.uleb128 0x2
 4379 16b2 09080000 		.4byte	.LASF383
 4380 16b6 1C       		.byte	0x1c
 4381 16b7 4A       		.byte	0x4a
 4382 16b8 98160000 		.4byte	0x1698
 4383 16bc 0F       		.uleb128 0xf
 4384 16bd 10       		.byte	0x10
 4385 16be 1C       		.byte	0x1c
 4386 16bf 4D       		.byte	0x4d
 4387 16c0 0D170000 		.4byte	0x170d
 4388 16c4 0B       		.uleb128 0xb
 4389 16c5 CE130000 		.4byte	.LASF384
 4390 16c9 1C       		.byte	0x1c
ARM GAS  C:\Users\haske\AppData\Local\Temp\cc65HANE.s 			page 100


 4391 16ca 4E       		.byte	0x4e
 4392 16cb 17020000 		.4byte	0x217
 4393 16cf 00       		.byte	0
 4394 16d0 10       		.uleb128 0x10
 4395 16d1 6B657900 		.ascii	"key\000"
 4396 16d5 1C       		.byte	0x1c
 4397 16d6 4F       		.byte	0x4f
 4398 16d7 E4000000 		.4byte	0xe4
 4399 16db 04       		.byte	0x4
 4400 16dc 0B       		.uleb128 0xb
 4401 16dd 741D0000 		.4byte	.LASF385
 4402 16e1 1C       		.byte	0x1c
 4403 16e2 50       		.byte	0x50
 4404 16e3 E4000000 		.4byte	0xe4
 4405 16e7 08       		.byte	0x8
 4406 16e8 0B       		.uleb128 0xb
 4407 16e9 F30F0000 		.4byte	.LASF386
 4408 16ed 1C       		.byte	0x1c
 4409 16ee 51       		.byte	0x51
 4410 16ef C3000000 		.4byte	0xc3
 4411 16f3 0C       		.byte	0xc
 4412 16f4 0B       		.uleb128 0xb
 4413 16f5 CB190000 		.4byte	.LASF206
 4414 16f9 1C       		.byte	0x1c
 4415 16fa 53       		.byte	0x53
 4416 16fb B1160000 		.4byte	0x16b1
 4417 16ff 0E       		.byte	0xe
 4418 1700 0B       		.uleb128 0xb
 4419 1701 B0020000 		.4byte	.LASF387
 4420 1705 1C       		.byte	0x1c
 4421 1706 54       		.byte	0x54
 4422 1707 D5030000 		.4byte	0x3d5
 4423 170b 0F       		.byte	0xf
 4424 170c 00       		.byte	0
 4425 170d 02       		.uleb128 0x2
 4426 170e 031B0000 		.4byte	.LASF388
 4427 1712 1C       		.byte	0x1c
 4428 1713 55       		.byte	0x55
 4429 1714 BC160000 		.4byte	0x16bc
 4430 1718 0A       		.uleb128 0xa
 4431 1719 7B1D0000 		.4byte	.LASF389
 4432 171d 20       		.byte	0x20
 4433 171e 1C       		.byte	0x1c
 4434 171f 58       		.byte	0x58
 4435 1720 B5170000 		.4byte	0x17b5
 4436 1724 0B       		.uleb128 0xb
 4437 1725 A5160000 		.4byte	.LASF390
 4438 1729 1C       		.byte	0x1c
 4439 172a 5B       		.byte	0x5b
 4440 172b 8D160000 		.4byte	0x168d
 4441 172f 00       		.byte	0
 4442 1730 0B       		.uleb128 0xb
 4443 1731 56100000 		.4byte	.LASF391
 4444 1735 1C       		.byte	0x1c
 4445 1736 5E       		.byte	0x5e
 4446 1737 D1170000 		.4byte	0x17d1
 4447 173b 04       		.byte	0x4
ARM GAS  C:\Users\haske\AppData\Local\Temp\cc65HANE.s 			page 101


 4448 173c 0B       		.uleb128 0xb
 4449 173d A4020000 		.4byte	.LASF392
 4450 1741 1C       		.byte	0x1c
 4451 1742 62       		.byte	0x62
 4452 1743 E7170000 		.4byte	0x17e7
 4453 1747 08       		.byte	0x8
 4454 1748 0B       		.uleb128 0xb
 4455 1749 EC1C0000 		.4byte	.LASF28
 4456 174d 1C       		.byte	0x1c
 4457 174e 65       		.byte	0x65
 4458 174f 8D010000 		.4byte	0x18d
 4459 1753 0C       		.byte	0xc
 4460 1754 0B       		.uleb128 0xb
 4461 1755 98180000 		.4byte	.LASF369
 4462 1759 1C       		.byte	0x1c
 4463 175a 69       		.byte	0x69
 4464 175b ED170000 		.4byte	0x17ed
 4465 175f 10       		.byte	0x10
 4466 1760 0B       		.uleb128 0xb
 4467 1761 FE250000 		.4byte	.LASF393
 4468 1765 1C       		.byte	0x1c
 4469 1766 6C       		.byte	0x6c
 4470 1767 AB150000 		.4byte	0x15ab
 4471 176b 14       		.byte	0x14
 4472 176c 0B       		.uleb128 0xb
 4473 176d F3120000 		.4byte	.LASF394
 4474 1771 1C       		.byte	0x1c
 4475 1772 6F       		.byte	0x6f
 4476 1773 B8000000 		.4byte	0xb8
 4477 1777 18       		.byte	0x18
 4478 1778 0B       		.uleb128 0xb
 4479 1779 76010000 		.4byte	.LASF395
 4480 177d 1C       		.byte	0x1c
 4481 177e 72       		.byte	0x72
 4482 177f B8000000 		.4byte	0xb8
 4483 1783 19       		.byte	0x19
 4484 1784 0B       		.uleb128 0xb
 4485 1785 090A0000 		.4byte	.LASF396
 4486 1789 1C       		.byte	0x1c
 4487 178a 75       		.byte	0x75
 4488 178b B8000000 		.4byte	0xb8
 4489 178f 1A       		.byte	0x1a
 4490 1790 0B       		.uleb128 0xb
 4491 1791 F7170000 		.4byte	.LASF397
 4492 1795 1C       		.byte	0x1c
 4493 1796 78       		.byte	0x78
 4494 1797 B8000000 		.4byte	0xb8
 4495 179b 1B       		.byte	0x1b
 4496 179c 0B       		.uleb128 0xb
 4497 179d C7000000 		.4byte	.LASF398
 4498 17a1 1C       		.byte	0x1c
 4499 17a2 7B       		.byte	0x7b
 4500 17a3 CE000000 		.4byte	0xce
 4501 17a7 1C       		.byte	0x1c
 4502 17a8 0B       		.uleb128 0xb
 4503 17a9 BD290000 		.4byte	.LASF399
 4504 17ad 1C       		.byte	0x1c
ARM GAS  C:\Users\haske\AppData\Local\Temp\cc65HANE.s 			page 102


 4505 17ae 7E       		.byte	0x7e
 4506 17af CE000000 		.4byte	0xce
 4507 17b3 1E       		.byte	0x1e
 4508 17b4 00       		.byte	0
 4509 17b5 08       		.uleb128 0x8
 4510 17b6 C5170000 		.4byte	0x17c5
 4511 17ba 09       		.uleb128 0x9
 4512 17bb C5170000 		.4byte	0x17c5
 4513 17bf 09       		.uleb128 0x9
 4514 17c0 CB170000 		.4byte	0x17cb
 4515 17c4 00       		.byte	0
 4516 17c5 07       		.uleb128 0x7
 4517 17c6 04       		.byte	0x4
 4518 17c7 18170000 		.4byte	0x1718
 4519 17cb 07       		.uleb128 0x7
 4520 17cc 04       		.byte	0x4
 4521 17cd 0D170000 		.4byte	0x170d
 4522 17d1 07       		.uleb128 0x7
 4523 17d2 04       		.byte	0x4
 4524 17d3 B5170000 		.4byte	0x17b5
 4525 17d7 08       		.uleb128 0x8
 4526 17d8 E7170000 		.4byte	0x17e7
 4527 17dc 09       		.uleb128 0x9
 4528 17dd C5170000 		.4byte	0x17c5
 4529 17e1 09       		.uleb128 0x9
 4530 17e2 B8000000 		.4byte	0xb8
 4531 17e6 00       		.byte	0
 4532 17e7 07       		.uleb128 0x7
 4533 17e8 04       		.byte	0x4
 4534 17e9 D7170000 		.4byte	0x17d7
 4535 17ed 07       		.uleb128 0x7
 4536 17ee 04       		.byte	0x4
 4537 17ef 94140000 		.4byte	0x1494
 4538 17f3 0F       		.uleb128 0xf
 4539 17f4 40       		.byte	0x40
 4540 17f5 1C       		.byte	0x1c
 4541 17f6 8D       		.byte	0x8d
 4542 17f7 D1180000 		.4byte	0x18d1
 4543 17fb 0B       		.uleb128 0xb
 4544 17fc 6D2A0000 		.4byte	.LASF400
 4545 1800 1C       		.byte	0x1c
 4546 1801 8F       		.byte	0x8f
 4547 1802 17020000 		.4byte	0x217
 4548 1806 00       		.byte	0
 4549 1807 0B       		.uleb128 0xb
 4550 1808 8D140000 		.4byte	.LASF401
 4551 180c 1C       		.byte	0x1c
 4552 180d 90       		.byte	0x90
 4553 180e 17020000 		.4byte	0x217
 4554 1812 04       		.byte	0x4
 4555 1813 0B       		.uleb128 0xb
 4556 1814 27200000 		.4byte	.LASF402
 4557 1818 1C       		.byte	0x1c
 4558 1819 91       		.byte	0x91
 4559 181a 17020000 		.4byte	0x217
 4560 181e 08       		.byte	0x8
 4561 181f 0B       		.uleb128 0xb
ARM GAS  C:\Users\haske\AppData\Local\Temp\cc65HANE.s 			page 103


 4562 1820 890A0000 		.4byte	.LASF403
 4563 1824 1C       		.byte	0x1c
 4564 1825 92       		.byte	0x92
 4565 1826 17020000 		.4byte	0x217
 4566 182a 0C       		.byte	0xc
 4567 182b 0B       		.uleb128 0xb
 4568 182c B2000000 		.4byte	.LASF404
 4569 1830 1C       		.byte	0x1c
 4570 1831 93       		.byte	0x93
 4571 1832 17020000 		.4byte	0x217
 4572 1836 10       		.byte	0x10
 4573 1837 0B       		.uleb128 0xb
 4574 1838 BE050000 		.4byte	.LASF405
 4575 183c 1C       		.byte	0x1c
 4576 183d 94       		.byte	0x94
 4577 183e 17020000 		.4byte	0x217
 4578 1842 14       		.byte	0x14
 4579 1843 0B       		.uleb128 0xb
 4580 1844 3F230000 		.4byte	.LASF406
 4581 1848 1C       		.byte	0x1c
 4582 1849 95       		.byte	0x95
 4583 184a 17020000 		.4byte	0x217
 4584 184e 18       		.byte	0x18
 4585 184f 0B       		.uleb128 0xb
 4586 1850 B11D0000 		.4byte	.LASF407
 4587 1854 1C       		.byte	0x1c
 4588 1855 96       		.byte	0x96
 4589 1856 17020000 		.4byte	0x217
 4590 185a 1C       		.byte	0x1c
 4591 185b 0B       		.uleb128 0xb
 4592 185c 992C0000 		.4byte	.LASF408
 4593 1860 1C       		.byte	0x1c
 4594 1861 97       		.byte	0x97
 4595 1862 C7080000 		.4byte	0x8c7
 4596 1866 20       		.byte	0x20
 4597 1867 0B       		.uleb128 0xb
 4598 1868 6E250000 		.4byte	.LASF409
 4599 186c 1C       		.byte	0x1c
 4600 186d 98       		.byte	0x98
 4601 186e C7080000 		.4byte	0x8c7
 4602 1872 24       		.byte	0x24
 4603 1873 0B       		.uleb128 0xb
 4604 1874 07000000 		.4byte	.LASF410
 4605 1878 1C       		.byte	0x1c
 4606 1879 99       		.byte	0x99
 4607 187a C7080000 		.4byte	0x8c7
 4608 187e 28       		.byte	0x28
 4609 187f 0B       		.uleb128 0xb
 4610 1880 1B2A0000 		.4byte	.LASF411
 4611 1884 1C       		.byte	0x1c
 4612 1885 9A       		.byte	0x9a
 4613 1886 C7080000 		.4byte	0x8c7
 4614 188a 2C       		.byte	0x2c
 4615 188b 0B       		.uleb128 0xb
 4616 188c B1120000 		.4byte	.LASF412
 4617 1890 1C       		.byte	0x1c
 4618 1891 9B       		.byte	0x9b
ARM GAS  C:\Users\haske\AppData\Local\Temp\cc65HANE.s 			page 104


 4619 1892 57020000 		.4byte	0x257
 4620 1896 30       		.byte	0x30
 4621 1897 0B       		.uleb128 0xb
 4622 1898 2B0C0000 		.4byte	.LASF413
 4623 189c 1C       		.byte	0x1c
 4624 189d 9D       		.byte	0x9d
 4625 189e 17020000 		.4byte	0x217
 4626 18a2 38       		.byte	0x38
 4627 18a3 0C       		.uleb128 0xc
 4628 18a4 C3140000 		.4byte	.LASF414
 4629 18a8 1C       		.byte	0x1c
 4630 18a9 9F       		.byte	0x9f
 4631 18aa 9F020000 		.4byte	0x29f
 4632 18ae 01       		.byte	0x1
 4633 18af 04       		.byte	0x4
 4634 18b0 04       		.byte	0x4
 4635 18b1 3C       		.byte	0x3c
 4636 18b2 0C       		.uleb128 0xc
 4637 18b3 18010000 		.4byte	.LASF415
 4638 18b7 1C       		.byte	0x1c
 4639 18b8 A0       		.byte	0xa0
 4640 18b9 9F020000 		.4byte	0x29f
 4641 18bd 01       		.byte	0x1
 4642 18be 04       		.byte	0x4
 4643 18bf 00       		.byte	0
 4644 18c0 3C       		.byte	0x3c
 4645 18c1 0C       		.uleb128 0xc
 4646 18c2 880C0000 		.4byte	.LASF416
 4647 18c6 1C       		.byte	0x1c
 4648 18c7 A1       		.byte	0xa1
 4649 18c8 B8000000 		.4byte	0xb8
 4650 18cc 01       		.byte	0x1
 4651 18cd 01       		.byte	0x1
 4652 18ce 07       		.byte	0x7
 4653 18cf 3D       		.byte	0x3d
 4654 18d0 00       		.byte	0
 4655 18d1 0F       		.uleb128 0xf
 4656 18d2 08       		.byte	0x8
 4657 18d3 1C       		.byte	0x1c
 4658 18d4 A3       		.byte	0xa3
 4659 18d5 F2180000 		.4byte	0x18f2
 4660 18d9 0B       		.uleb128 0xb
 4661 18da 83100000 		.4byte	.LASF417
 4662 18de 1C       		.byte	0x1c
 4663 18df A5       		.byte	0xa5
 4664 18e0 B1160000 		.4byte	0x16b1
 4665 18e4 00       		.byte	0
 4666 18e5 0B       		.uleb128 0xb
 4667 18e6 8E150000 		.4byte	.LASF418
 4668 18ea 1C       		.byte	0x1c
 4669 18eb A6       		.byte	0xa6
 4670 18ec E4000000 		.4byte	0xe4
 4671 18f0 04       		.byte	0x4
 4672 18f1 00       		.byte	0
 4673 18f2 14       		.uleb128 0x14
 4674 18f3 40       		.byte	0x40
 4675 18f4 1C       		.byte	0x1c
ARM GAS  C:\Users\haske\AppData\Local\Temp\cc65HANE.s 			page 105


 4676 18f5 8C       		.byte	0x8c
 4677 18f6 11190000 		.4byte	0x1911
 4678 18fa 16       		.uleb128 0x16
 4679 18fb A61B0000 		.4byte	.LASF419
 4680 18ff 1C       		.byte	0x1c
 4681 1900 A2       		.byte	0xa2
 4682 1901 F3170000 		.4byte	0x17f3
 4683 1905 16       		.uleb128 0x16
 4684 1906 D22A0000 		.4byte	.LASF420
 4685 190a 1C       		.byte	0x1c
 4686 190b A7       		.byte	0xa7
 4687 190c D1180000 		.4byte	0x18d1
 4688 1910 00       		.byte	0
 4689 1911 0A       		.uleb128 0xa
 4690 1912 2E0B0000 		.4byte	.LASF421
 4691 1916 4C       		.byte	0x4c
 4692 1917 1C       		.byte	0x1c
 4693 1918 84       		.byte	0x84
 4694 1919 8A190000 		.4byte	0x198a
 4695 191d 0B       		.uleb128 0xb
 4696 191e CB190000 		.4byte	.LASF206
 4697 1922 1C       		.byte	0x1c
 4698 1923 85       		.byte	0x85
 4699 1924 B1160000 		.4byte	0x16b1
 4700 1928 00       		.byte	0
 4701 1929 0C       		.uleb128 0xc
 4702 192a 86210000 		.4byte	.LASF422
 4703 192e 1C       		.byte	0x1c
 4704 192f 87       		.byte	0x87
 4705 1930 B8000000 		.4byte	0xb8
 4706 1934 01       		.byte	0x1
 4707 1935 01       		.byte	0x1
 4708 1936 07       		.byte	0x7
 4709 1937 01       		.byte	0x1
 4710 1938 0C       		.uleb128 0xc
 4711 1939 C3030000 		.4byte	.LASF423
 4712 193d 1C       		.byte	0x1c
 4713 193e 88       		.byte	0x88
 4714 193f B8000000 		.4byte	0xb8
 4715 1943 01       		.byte	0x1
 4716 1944 01       		.byte	0x1
 4717 1945 06       		.byte	0x6
 4718 1946 01       		.byte	0x1
 4719 1947 0C       		.uleb128 0xc
 4720 1948 C4070000 		.4byte	.LASF424
 4721 194c 1C       		.byte	0x1c
 4722 194d 89       		.byte	0x89
 4723 194e B8000000 		.4byte	0xb8
 4724 1952 01       		.byte	0x1
 4725 1953 01       		.byte	0x1
 4726 1954 05       		.byte	0x5
 4727 1955 01       		.byte	0x1
 4728 1956 0C       		.uleb128 0xc
 4729 1957 C1020000 		.4byte	.LASF425
 4730 195b 1C       		.byte	0x1c
 4731 195c 8A       		.byte	0x8a
 4732 195d B8000000 		.4byte	0xb8
ARM GAS  C:\Users\haske\AppData\Local\Temp\cc65HANE.s 			page 106


 4733 1961 01       		.byte	0x1
 4734 1962 01       		.byte	0x1
 4735 1963 04       		.byte	0x4
 4736 1964 01       		.byte	0x1
 4737 1965 0B       		.uleb128 0xb
 4738 1966 FE150000 		.4byte	.LASF426
 4739 196a 1C       		.byte	0x1c
 4740 196b A8       		.byte	0xa8
 4741 196c F2180000 		.4byte	0x18f2
 4742 1970 04       		.byte	0x4
 4743 1971 0B       		.uleb128 0xb
 4744 1972 7F200000 		.4byte	.LASF427
 4745 1976 1C       		.byte	0x1c
 4746 1977 AA       		.byte	0xaa
 4747 1978 E4000000 		.4byte	0xe4
 4748 197c 44       		.byte	0x44
 4749 197d 0B       		.uleb128 0xb
 4750 197e 59250000 		.4byte	.LASF428
 4751 1982 1C       		.byte	0x1c
 4752 1983 AB       		.byte	0xab
 4753 1984 E4000000 		.4byte	0xe4
 4754 1988 48       		.byte	0x48
 4755 1989 00       		.byte	0
 4756 198a 02       		.uleb128 0x2
 4757 198b 2E0B0000 		.4byte	.LASF421
 4758 198f 1C       		.byte	0x1c
 4759 1990 AC       		.byte	0xac
 4760 1991 11190000 		.4byte	0x1911
 4761 1995 0A       		.uleb128 0xa
 4762 1996 66150000 		.4byte	.LASF429
 4763 199a 5C       		.byte	0x5c
 4764 199b 1C       		.byte	0x1c
 4765 199c B0       		.byte	0xb0
 4766 199d DE190000 		.4byte	0x19de
 4767 19a1 0B       		.uleb128 0xb
 4768 19a2 5A210000 		.4byte	.LASF348
 4769 19a6 1C       		.byte	0x1c
 4770 19a7 B1       		.byte	0xb1
 4771 19a8 C5170000 		.4byte	0x17c5
 4772 19ac 00       		.byte	0
 4773 19ad 0B       		.uleb128 0xb
 4774 19ae 77060000 		.4byte	.LASF430
 4775 19b2 1C       		.byte	0x1c
 4776 19b3 B2       		.byte	0xb2
 4777 19b4 8A190000 		.4byte	0x198a
 4778 19b8 04       		.byte	0x4
 4779 19b9 0B       		.uleb128 0xb
 4780 19ba 5B290000 		.4byte	.LASF431
 4781 19be 1C       		.byte	0x1c
 4782 19bf B3       		.byte	0xb3
 4783 19c0 C7080000 		.4byte	0x8c7
 4784 19c4 50       		.byte	0x50
 4785 19c5 0B       		.uleb128 0xb
 4786 19c6 FE220000 		.4byte	.LASF432
 4787 19ca 1C       		.byte	0x1c
 4788 19cb B4       		.byte	0xb4
 4789 19cc 631A0000 		.4byte	0x1a63
ARM GAS  C:\Users\haske\AppData\Local\Temp\cc65HANE.s 			page 107


 4790 19d0 54       		.byte	0x54
 4791 19d1 0B       		.uleb128 0xb
 4792 19d2 31080000 		.4byte	.LASF433
 4793 19d6 1C       		.byte	0x1c
 4794 19d7 B5       		.byte	0xb5
 4795 19d8 AC0F0000 		.4byte	0xfac
 4796 19dc 58       		.byte	0x58
 4797 19dd 00       		.byte	0
 4798 19de 0A       		.uleb128 0xa
 4799 19df FB000000 		.4byte	.LASF434
 4800 19e3 20       		.byte	0x20
 4801 19e4 1D       		.byte	0x1d
 4802 19e5 3B       		.byte	0x3b
 4803 19e6 631A0000 		.4byte	0x1a63
 4804 19ea 0B       		.uleb128 0xb
 4805 19eb 1E1F0000 		.4byte	.LASF435
 4806 19ef 1D       		.byte	0x1d
 4807 19f0 3C       		.byte	0x3c
 4808 19f1 B4110000 		.4byte	0x11b4
 4809 19f5 00       		.byte	0
 4810 19f6 0B       		.uleb128 0xb
 4811 19f7 FF090000 		.4byte	.LASF436
 4812 19fb 1D       		.byte	0x1d
 4813 19fc 3D       		.byte	0x3d
 4814 19fd 3C160000 		.4byte	0x163c
 4815 1a01 0C       		.byte	0xc
 4816 1a02 0B       		.uleb128 0xb
 4817 1a03 EE060000 		.4byte	.LASF437
 4818 1a07 1D       		.byte	0x1d
 4819 1a08 3F       		.byte	0x3f
 4820 1a09 241F0000 		.4byte	0x1f24
 4821 1a0d 10       		.byte	0x10
 4822 1a0e 0B       		.uleb128 0xb
 4823 1a0f 90180000 		.4byte	.LASF438
 4824 1a13 1D       		.byte	0x1d
 4825 1a14 40       		.byte	0x40
 4826 1a15 401F0000 		.4byte	0x1f40
 4827 1a19 14       		.byte	0x14
 4828 1a1a 0B       		.uleb128 0xb
 4829 1a1b EC1C0000 		.4byte	.LASF28
 4830 1a1f 1D       		.byte	0x1d
 4831 1a20 45       		.byte	0x45
 4832 1a21 8D010000 		.4byte	0x18d
 4833 1a25 18       		.byte	0x18
 4834 1a26 0C       		.uleb128 0xc
 4835 1a27 BD120000 		.4byte	.LASF439
 4836 1a2b 1D       		.byte	0x1d
 4837 1a2c 48       		.byte	0x48
 4838 1a2d B8000000 		.4byte	0xb8
 4839 1a31 01       		.byte	0x1
 4840 1a32 01       		.byte	0x1
 4841 1a33 07       		.byte	0x7
 4842 1a34 1C       		.byte	0x1c
 4843 1a35 0C       		.uleb128 0xc
 4844 1a36 21190000 		.4byte	.LASF440
 4845 1a3a 1D       		.byte	0x1d
 4846 1a3b 49       		.byte	0x49
ARM GAS  C:\Users\haske\AppData\Local\Temp\cc65HANE.s 			page 108


 4847 1a3c B8000000 		.4byte	0xb8
 4848 1a40 01       		.byte	0x1
 4849 1a41 01       		.byte	0x1
 4850 1a42 06       		.byte	0x6
 4851 1a43 1C       		.byte	0x1c
 4852 1a44 0C       		.uleb128 0xc
 4853 1a45 44240000 		.4byte	.LASF441
 4854 1a49 1D       		.byte	0x1d
 4855 1a4a 4A       		.byte	0x4a
 4856 1a4b B8000000 		.4byte	0xb8
 4857 1a4f 01       		.byte	0x1
 4858 1a50 01       		.byte	0x1
 4859 1a51 05       		.byte	0x5
 4860 1a52 1C       		.byte	0x1c
 4861 1a53 0C       		.uleb128 0xc
 4862 1a54 B0200000 		.4byte	.LASF442
 4863 1a58 1D       		.byte	0x1d
 4864 1a59 4C       		.byte	0x4c
 4865 1a5a B8000000 		.4byte	0xb8
 4866 1a5e 01       		.byte	0x1
 4867 1a5f 01       		.byte	0x1
 4868 1a60 04       		.byte	0x4
 4869 1a61 1C       		.byte	0x1c
 4870 1a62 00       		.byte	0
 4871 1a63 07       		.uleb128 0x7
 4872 1a64 04       		.byte	0x4
 4873 1a65 DE190000 		.4byte	0x19de
 4874 1a69 02       		.uleb128 0x2
 4875 1a6a 9B1C0000 		.4byte	.LASF443
 4876 1a6e 1C       		.byte	0x1c
 4877 1a6f B7       		.byte	0xb7
 4878 1a70 95190000 		.4byte	0x1995
 4879 1a74 02       		.uleb128 0x2
 4880 1a75 D31C0000 		.4byte	.LASF444
 4881 1a79 11       		.byte	0x11
 4882 1a7a 3C       		.byte	0x3c
 4883 1a7b CE000000 		.4byte	0xce
 4884 1a7f 05       		.uleb128 0x5
 4885 1a80 04       		.byte	0x4
 4886 1a81 A6000000 		.4byte	0xa6
 4887 1a85 11       		.byte	0x11
 4888 1a86 44       		.byte	0x44
 4889 1a87 E31A0000 		.4byte	0x1ae3
 4890 1a8b 06       		.uleb128 0x6
 4891 1a8c 9A030000 		.4byte	.LASF445
 4892 1a90 00       		.byte	0
 4893 1a91 23       		.uleb128 0x23
 4894 1a92 6C1B0000 		.4byte	.LASF446
 4895 1a96 00000100 		.4byte	0x10000
 4896 1a9a 23       		.uleb128 0x23
 4897 1a9b FB0E0000 		.4byte	.LASF447
 4898 1a9f 00000200 		.4byte	0x20000
 4899 1aa3 23       		.uleb128 0x23
 4900 1aa4 D4130000 		.4byte	.LASF448
 4901 1aa8 00000300 		.4byte	0x30000
 4902 1aac 23       		.uleb128 0x23
 4903 1aad 420F0000 		.4byte	.LASF449
ARM GAS  C:\Users\haske\AppData\Local\Temp\cc65HANE.s 			page 109


 4904 1ab1 00000400 		.4byte	0x40000
 4905 1ab5 23       		.uleb128 0x23
 4906 1ab6 AB0C0000 		.4byte	.LASF450
 4907 1aba 00000500 		.4byte	0x50000
 4908 1abe 23       		.uleb128 0x23
 4909 1abf 3F090000 		.4byte	.LASF451
 4910 1ac3 00000600 		.4byte	0x60000
 4911 1ac7 23       		.uleb128 0x23
 4912 1ac8 C32A0000 		.4byte	.LASF452
 4913 1acc 00000700 		.4byte	0x70000
 4914 1ad0 23       		.uleb128 0x23
 4915 1ad1 56010000 		.4byte	.LASF453
 4916 1ad5 00000800 		.4byte	0x80000
 4917 1ad9 23       		.uleb128 0x23
 4918 1ada 25270000 		.4byte	.LASF454
 4919 1ade 00000F00 		.4byte	0xf0000
 4920 1ae2 00       		.byte	0
 4921 1ae3 05       		.uleb128 0x5
 4922 1ae4 04       		.byte	0x4
 4923 1ae5 A6000000 		.4byte	0xa6
 4924 1ae9 11       		.byte	0x11
 4925 1aea 59       		.byte	0x59
 4926 1aeb CB1B0000 		.4byte	0x1bcb
 4927 1aef 06       		.uleb128 0x6
 4928 1af0 1B2B0000 		.4byte	.LASF455
 4929 1af4 01       		.byte	0x1
 4930 1af5 06       		.uleb128 0x6
 4931 1af6 1F1C0000 		.4byte	.LASF456
 4932 1afa 02       		.byte	0x2
 4933 1afb 06       		.uleb128 0x6
 4934 1afc 00130000 		.4byte	.LASF457
 4935 1b00 04       		.byte	0x4
 4936 1b01 06       		.uleb128 0x6
 4937 1b02 AD0A0000 		.4byte	.LASF458
 4938 1b06 08       		.byte	0x8
 4939 1b07 06       		.uleb128 0x6
 4940 1b08 8F070000 		.4byte	.LASF459
 4941 1b0c 10       		.byte	0x10
 4942 1b0d 06       		.uleb128 0x6
 4943 1b0e 080E0000 		.4byte	.LASF460
 4944 1b12 20       		.byte	0x20
 4945 1b13 06       		.uleb128 0x6
 4946 1b14 72150000 		.4byte	.LASF461
 4947 1b18 40       		.byte	0x40
 4948 1b19 06       		.uleb128 0x6
 4949 1b1a D4290000 		.4byte	.LASF462
 4950 1b1e 80       		.byte	0x80
 4951 1b1f 19       		.uleb128 0x19
 4952 1b20 55110000 		.4byte	.LASF463
 4953 1b24 0001     		.2byte	0x100
 4954 1b26 19       		.uleb128 0x19
 4955 1b27 CC1A0000 		.4byte	.LASF464
 4956 1b2b 0002     		.2byte	0x200
 4957 1b2d 19       		.uleb128 0x19
 4958 1b2e F4260000 		.4byte	.LASF465
 4959 1b32 0003     		.2byte	0x300
 4960 1b34 19       		.uleb128 0x19
ARM GAS  C:\Users\haske\AppData\Local\Temp\cc65HANE.s 			page 110


 4961 1b35 E2250000 		.4byte	.LASF466
 4962 1b39 0004     		.2byte	0x400
 4963 1b3b 19       		.uleb128 0x19
 4964 1b3c A6250000 		.4byte	.LASF467
 4965 1b40 0008     		.2byte	0x800
 4966 1b42 19       		.uleb128 0x19
 4967 1b43 48060000 		.4byte	.LASF468
 4968 1b47 0010     		.2byte	0x1000
 4969 1b49 19       		.uleb128 0x19
 4970 1b4a DC0F0000 		.4byte	.LASF469
 4971 1b4e 0020     		.2byte	0x2000
 4972 1b50 19       		.uleb128 0x19
 4973 1b51 9A290000 		.4byte	.LASF470
 4974 1b55 0040     		.2byte	0x4000
 4975 1b57 19       		.uleb128 0x19
 4976 1b58 1B120000 		.4byte	.LASF471
 4977 1b5c 0080     		.2byte	0x8000
 4978 1b5e 23       		.uleb128 0x23
 4979 1b5f EB200000 		.4byte	.LASF472
 4980 1b63 00000100 		.4byte	0x10000
 4981 1b67 23       		.uleb128 0x23
 4982 1b68 C71D0000 		.4byte	.LASF473
 4983 1b6c 00000200 		.4byte	0x20000
 4984 1b70 23       		.uleb128 0x23
 4985 1b71 9D180000 		.4byte	.LASF474
 4986 1b75 00000400 		.4byte	0x40000
 4987 1b79 23       		.uleb128 0x23
 4988 1b7a 901A0000 		.4byte	.LASF475
 4989 1b7e 00000800 		.4byte	0x80000
 4990 1b82 23       		.uleb128 0x23
 4991 1b83 F7060000 		.4byte	.LASF476
 4992 1b87 00008000 		.4byte	0x800000
 4993 1b8b 23       		.uleb128 0x23
 4994 1b8c 422C0000 		.4byte	.LASF477
 4995 1b90 00000001 		.4byte	0x1000000
 4996 1b94 23       		.uleb128 0x23
 4997 1b95 CD2C0000 		.4byte	.LASF478
 4998 1b99 00000002 		.4byte	0x2000000
 4999 1b9d 23       		.uleb128 0x23
 5000 1b9e E22C0000 		.4byte	.LASF479
 5001 1ba2 00000004 		.4byte	0x4000000
 5002 1ba6 23       		.uleb128 0x23
 5003 1ba7 E6280000 		.4byte	.LASF480
 5004 1bab 00000008 		.4byte	0x8000000
 5005 1baf 23       		.uleb128 0x23
 5006 1bb0 61210000 		.4byte	.LASF481
 5007 1bb4 00000010 		.4byte	0x10000000
 5008 1bb8 23       		.uleb128 0x23
 5009 1bb9 05290000 		.4byte	.LASF482
 5010 1bbd 00000020 		.4byte	0x20000000
 5011 1bc1 23       		.uleb128 0x23
 5012 1bc2 18290000 		.4byte	.LASF483
 5013 1bc6 00000040 		.4byte	0x40000000
 5014 1bca 00       		.byte	0
 5015 1bcb 02       		.uleb128 0x2
 5016 1bcc 13040000 		.4byte	.LASF484
 5017 1bd0 11       		.byte	0x11
ARM GAS  C:\Users\haske\AppData\Local\Temp\cc65HANE.s 			page 111


 5018 1bd1 7D       		.byte	0x7d
 5019 1bd2 E4000000 		.4byte	0xe4
 5020 1bd6 05       		.uleb128 0x5
 5021 1bd7 01       		.byte	0x1
 5022 1bd8 42000000 		.4byte	0x42
 5023 1bdc 1E       		.byte	0x1e
 5024 1bdd 20       		.byte	0x20
 5025 1bde FB1B0000 		.4byte	0x1bfb
 5026 1be2 06       		.uleb128 0x6
 5027 1be3 281D0000 		.4byte	.LASF485
 5028 1be7 00       		.byte	0
 5029 1be8 06       		.uleb128 0x6
 5030 1be9 B1270000 		.4byte	.LASF486
 5031 1bed 01       		.byte	0x1
 5032 1bee 06       		.uleb128 0x6
 5033 1bef 020C0000 		.4byte	.LASF487
 5034 1bf3 02       		.byte	0x2
 5035 1bf4 06       		.uleb128 0x6
 5036 1bf5 FB080000 		.4byte	.LASF488
 5037 1bf9 03       		.byte	0x3
 5038 1bfa 00       		.byte	0
 5039 1bfb 02       		.uleb128 0x2
 5040 1bfc BE1E0000 		.4byte	.LASF489
 5041 1c00 1E       		.byte	0x1e
 5042 1c01 26       		.byte	0x26
 5043 1c02 B8000000 		.4byte	0xb8
 5044 1c06 05       		.uleb128 0x5
 5045 1c07 01       		.byte	0x1
 5046 1c08 42000000 		.4byte	0x42
 5047 1c0c 1E       		.byte	0x1e
 5048 1c0d 2A       		.byte	0x2a
 5049 1c0e 2B1C0000 		.4byte	0x1c2b
 5050 1c12 06       		.uleb128 0x6
 5051 1c13 42010000 		.4byte	.LASF490
 5052 1c17 00       		.byte	0
 5053 1c18 06       		.uleb128 0x6
 5054 1c19 A41E0000 		.4byte	.LASF491
 5055 1c1d 01       		.byte	0x1
 5056 1c1e 06       		.uleb128 0x6
 5057 1c1f 94000000 		.4byte	.LASF492
 5058 1c23 02       		.byte	0x2
 5059 1c24 06       		.uleb128 0x6
 5060 1c25 36280000 		.4byte	.LASF493
 5061 1c29 03       		.byte	0x3
 5062 1c2a 00       		.byte	0
 5063 1c2b 02       		.uleb128 0x2
 5064 1c2c 6B130000 		.4byte	.LASF494
 5065 1c30 1E       		.byte	0x1e
 5066 1c31 30       		.byte	0x30
 5067 1c32 B8000000 		.4byte	0xb8
 5068 1c36 0F       		.uleb128 0xf
 5069 1c37 08       		.byte	0x8
 5070 1c38 1F       		.byte	0x1f
 5071 1c39 27       		.byte	0x27
 5072 1c3a 781C0000 		.4byte	0x1c78
 5073 1c3e 0B       		.uleb128 0xb
 5074 1c3f 4B220000 		.4byte	.LASF495
ARM GAS  C:\Users\haske\AppData\Local\Temp\cc65HANE.s 			page 112


 5075 1c43 1F       		.byte	0x1f
 5076 1c44 28       		.byte	0x28
 5077 1c45 781C0000 		.4byte	0x1c78
 5078 1c49 00       		.byte	0
 5079 1c4a 0C       		.uleb128 0xc
 5080 1c4b B90C0000 		.4byte	.LASF496
 5081 1c4f 1F       		.byte	0x1f
 5082 1c50 29       		.byte	0x29
 5083 1c51 E4000000 		.4byte	0xe4
 5084 1c55 04       		.byte	0x4
 5085 1c56 18       		.byte	0x18
 5086 1c57 08       		.byte	0x8
 5087 1c58 04       		.byte	0x4
 5088 1c59 0C       		.uleb128 0xc
 5089 1c5a C20C0000 		.4byte	.LASF497
 5090 1c5e 1F       		.byte	0x1f
 5091 1c5f 2A       		.byte	0x2a
 5092 1c60 E4000000 		.4byte	0xe4
 5093 1c64 04       		.byte	0x4
 5094 1c65 01       		.byte	0x1
 5095 1c66 07       		.byte	0x7
 5096 1c67 04       		.byte	0x4
 5097 1c68 0C       		.uleb128 0xc
 5098 1c69 F90B0000 		.4byte	.LASF498
 5099 1c6d 1F       		.byte	0x1f
 5100 1c6e 2B       		.byte	0x2b
 5101 1c6f E4000000 		.4byte	0xe4
 5102 1c73 04       		.byte	0x4
 5103 1c74 01       		.byte	0x1
 5104 1c75 06       		.byte	0x6
 5105 1c76 04       		.byte	0x4
 5106 1c77 00       		.byte	0
 5107 1c78 07       		.uleb128 0x7
 5108 1c79 04       		.byte	0x4
 5109 1c7a B0080000 		.4byte	0x8b0
 5110 1c7e 02       		.uleb128 0x2
 5111 1c7f AE1B0000 		.4byte	.LASF499
 5112 1c83 1F       		.byte	0x1f
 5113 1c84 2C       		.byte	0x2c
 5114 1c85 361C0000 		.4byte	0x1c36
 5115 1c89 0A       		.uleb128 0xa
 5116 1c8a 9D090000 		.4byte	.LASF500
 5117 1c8e 1C       		.byte	0x1c
 5118 1c8f 20       		.byte	0x20
 5119 1c90 31       		.byte	0x31
 5120 1c91 171D0000 		.4byte	0x1d17
 5121 1c95 0B       		.uleb128 0xb
 5122 1c96 1E160000 		.4byte	.LASF501
 5123 1c9a 20       		.byte	0x20
 5124 1c9b 32       		.byte	0x32
 5125 1c9c 171D0000 		.4byte	0x1d17
 5126 1ca0 00       		.byte	0
 5127 1ca1 0B       		.uleb128 0xb
 5128 1ca2 871B0000 		.4byte	.LASF502
 5129 1ca6 20       		.byte	0x20
 5130 1ca7 33       		.byte	0x33
 5131 1ca8 BA1D0000 		.4byte	0x1dba
ARM GAS  C:\Users\haske\AppData\Local\Temp\cc65HANE.s 			page 113


 5132 1cac 04       		.byte	0x4
 5133 1cad 0B       		.uleb128 0xb
 5134 1cae 0D2B0000 		.4byte	.LASF503
 5135 1cb2 20       		.byte	0x20
 5136 1cb3 34       		.byte	0x34
 5137 1cb4 BA1D0000 		.4byte	0x1dba
 5138 1cb8 08       		.byte	0x8
 5139 1cb9 0B       		.uleb128 0xb
 5140 1cba EC1C0000 		.4byte	.LASF28
 5141 1cbe 20       		.byte	0x20
 5142 1cbf 36       		.byte	0x36
 5143 1cc0 8D010000 		.4byte	0x18d
 5144 1cc4 0C       		.byte	0xc
 5145 1cc5 0B       		.uleb128 0xb
 5146 1cc6 A60D0000 		.4byte	.LASF504
 5147 1cca 20       		.byte	0x20
 5148 1ccb 38       		.byte	0x38
 5149 1ccc D01D0000 		.4byte	0x1dd0
 5150 1cd0 10       		.byte	0x10
 5151 1cd1 0B       		.uleb128 0xb
 5152 1cd2 911C0000 		.4byte	.LASF505
 5153 1cd6 20       		.byte	0x20
 5154 1cd7 3A       		.byte	0x3a
 5155 1cd8 EF010000 		.4byte	0x1ef
 5156 1cdc 14       		.byte	0x14
 5157 1cdd 0B       		.uleb128 0xb
 5158 1cde 6B090000 		.4byte	.LASF506
 5159 1ce2 20       		.byte	0x20
 5160 1ce3 3B       		.byte	0x3b
 5161 1ce4 EF010000 		.4byte	0x1ef
 5162 1ce8 16       		.byte	0x16
 5163 1ce9 0C       		.uleb128 0xc
 5164 1cea 181A0000 		.4byte	.LASF507
 5165 1cee 20       		.byte	0x20
 5166 1cef 3C       		.byte	0x3c
 5167 1cf0 E4000000 		.4byte	0xe4
 5168 1cf4 04       		.byte	0x4
 5169 1cf5 02       		.byte	0x2
 5170 1cf6 1E       		.byte	0x1e
 5171 1cf7 18       		.byte	0x18
 5172 1cf8 0C       		.uleb128 0xc
 5173 1cf9 6A1D0000 		.4byte	.LASF508
 5174 1cfd 20       		.byte	0x20
 5175 1cfe 3D       		.byte	0x3d
 5176 1cff E4000000 		.4byte	0xe4
 5177 1d03 04       		.byte	0x4
 5178 1d04 02       		.byte	0x2
 5179 1d05 1C       		.byte	0x1c
 5180 1d06 18       		.byte	0x18
 5181 1d07 0C       		.uleb128 0xc
 5182 1d08 74160000 		.4byte	.LASF509
 5183 1d0c 20       		.byte	0x20
 5184 1d0d 3E       		.byte	0x3e
 5185 1d0e E4000000 		.4byte	0xe4
 5186 1d12 04       		.byte	0x4
 5187 1d13 10       		.byte	0x10
 5188 1d14 0C       		.byte	0xc
ARM GAS  C:\Users\haske\AppData\Local\Temp\cc65HANE.s 			page 114


 5189 1d15 18       		.byte	0x18
 5190 1d16 00       		.byte	0
 5191 1d17 07       		.uleb128 0x7
 5192 1d18 04       		.byte	0x4
 5193 1d19 1D1D0000 		.4byte	0x1d1d
 5194 1d1d 0E       		.uleb128 0xe
 5195 1d1e 891C0000 		.4byte	0x1c89
 5196 1d22 07       		.uleb128 0x7
 5197 1d23 04       		.byte	0x4
 5198 1d24 281D0000 		.4byte	0x1d28
 5199 1d28 0A       		.uleb128 0xa
 5200 1d29 67260000 		.4byte	.LASF510
 5201 1d2d 1C       		.byte	0x1c
 5202 1d2e 21       		.byte	0x21
 5203 1d2f 5E       		.byte	0x5e
 5204 1d30 AA1D0000 		.4byte	0x1daa
 5205 1d34 0B       		.uleb128 0xb
 5206 1d35 BC0B0000 		.4byte	.LASF511
 5207 1d39 21       		.byte	0x21
 5208 1d3a 5F       		.byte	0x5f
 5209 1d3b C7080000 		.4byte	0x8c7
 5210 1d3f 00       		.byte	0
 5211 1d40 0B       		.uleb128 0xb
 5212 1d41 0C200000 		.4byte	.LASF512
 5213 1d45 21       		.byte	0x21
 5214 1d46 60       		.byte	0x60
 5215 1d47 C7080000 		.4byte	0x8c7
 5216 1d4b 04       		.byte	0x4
 5217 1d4c 0B       		.uleb128 0xb
 5218 1d4d 16110000 		.4byte	.LASF513
 5219 1d51 21       		.byte	0x21
 5220 1d52 61       		.byte	0x61
 5221 1d53 081F0000 		.4byte	0x1f08
 5222 1d57 08       		.byte	0x8
 5223 1d58 0B       		.uleb128 0xb
 5224 1d59 EC1C0000 		.4byte	.LASF28
 5225 1d5d 21       		.byte	0x21
 5226 1d5e 62       		.byte	0x62
 5227 1d5f 8D010000 		.4byte	0x18d
 5228 1d63 0C       		.byte	0xc
 5229 1d64 0B       		.uleb128 0xb
 5230 1d65 D60F0000 		.4byte	.LASF514
 5231 1d69 21       		.byte	0x21
 5232 1d6a 63       		.byte	0x63
 5233 1d6b 8D010000 		.4byte	0x18d
 5234 1d6f 10       		.byte	0x10
 5235 1d70 0B       		.uleb128 0xb
 5236 1d71 572C0000 		.4byte	.LASF515
 5237 1d75 21       		.byte	0x21
 5238 1d76 64       		.byte	0x64
 5239 1d77 221D0000 		.4byte	0x1d22
 5240 1d7b 14       		.byte	0x14
 5241 1d7c 0C       		.uleb128 0xc
 5242 1d7d 2E2B0000 		.4byte	.LASF516
 5243 1d81 21       		.byte	0x21
 5244 1d82 65       		.byte	0x65
 5245 1d83 B8000000 		.4byte	0xb8
ARM GAS  C:\Users\haske\AppData\Local\Temp\cc65HANE.s 			page 115


 5246 1d87 01       		.byte	0x1
 5247 1d88 01       		.byte	0x1
 5248 1d89 07       		.byte	0x7
 5249 1d8a 18       		.byte	0x18
 5250 1d8b 0C       		.uleb128 0xc
 5251 1d8c 51080000 		.4byte	.LASF517
 5252 1d90 21       		.byte	0x21
 5253 1d91 66       		.byte	0x66
 5254 1d92 B8000000 		.4byte	0xb8
 5255 1d96 01       		.byte	0x1
 5256 1d97 01       		.byte	0x1
 5257 1d98 06       		.byte	0x6
 5258 1d99 18       		.byte	0x18
 5259 1d9a 0C       		.uleb128 0xc
 5260 1d9b EC160000 		.4byte	.LASF518
 5261 1d9f 21       		.byte	0x21
 5262 1da0 67       		.byte	0x67
 5263 1da1 B8000000 		.4byte	0xb8
 5264 1da5 01       		.byte	0x1
 5265 1da6 01       		.byte	0x1
 5266 1da7 05       		.byte	0x5
 5267 1da8 18       		.byte	0x18
 5268 1da9 00       		.byte	0
 5269 1daa 08       		.uleb128 0x8
 5270 1dab BA1D0000 		.4byte	0x1dba
 5271 1daf 09       		.uleb128 0x9
 5272 1db0 171D0000 		.4byte	0x1d17
 5273 1db4 09       		.uleb128 0x9
 5274 1db5 C7080000 		.4byte	0x8c7
 5275 1db9 00       		.byte	0
 5276 1dba 07       		.uleb128 0x7
 5277 1dbb 04       		.byte	0x4
 5278 1dbc AA1D0000 		.4byte	0x1daa
 5279 1dc0 08       		.uleb128 0x8
 5280 1dc1 D01D0000 		.4byte	0x1dd0
 5281 1dc5 09       		.uleb128 0x9
 5282 1dc6 171D0000 		.4byte	0x1d17
 5283 1dca 09       		.uleb128 0x9
 5284 1dcb 221D0000 		.4byte	0x1d22
 5285 1dcf 00       		.byte	0
 5286 1dd0 07       		.uleb128 0x7
 5287 1dd1 04       		.byte	0x4
 5288 1dd2 C01D0000 		.4byte	0x1dc0
 5289 1dd6 02       		.uleb128 0x2
 5290 1dd7 F90D0000 		.4byte	.LASF519
 5291 1ddb 20       		.byte	0x20
 5292 1ddc 3F       		.byte	0x3f
 5293 1ddd 891C0000 		.4byte	0x1c89
 5294 1de1 05       		.uleb128 0x5
 5295 1de2 01       		.byte	0x1
 5296 1de3 42000000 		.4byte	0x42
 5297 1de7 21       		.byte	0x21
 5298 1de8 20       		.byte	0x20
 5299 1de9 081F0000 		.4byte	0x1f08
 5300 1ded 06       		.uleb128 0x6
 5301 1dee D90B0000 		.4byte	.LASF520
 5302 1df2 00       		.byte	0
ARM GAS  C:\Users\haske\AppData\Local\Temp\cc65HANE.s 			page 116


 5303 1df3 06       		.uleb128 0x6
 5304 1df4 F2210000 		.4byte	.LASF521
 5305 1df8 01       		.byte	0x1
 5306 1df9 06       		.uleb128 0x6
 5307 1dfa B1140000 		.4byte	.LASF522
 5308 1dfe 02       		.byte	0x2
 5309 1dff 06       		.uleb128 0x6
 5310 1e00 E81E0000 		.4byte	.LASF523
 5311 1e04 03       		.byte	0x3
 5312 1e05 06       		.uleb128 0x6
 5313 1e06 04120000 		.4byte	.LASF524
 5314 1e0a 04       		.byte	0x4
 5315 1e0b 06       		.uleb128 0x6
 5316 1e0c 472B0000 		.4byte	.LASF525
 5317 1e10 05       		.byte	0x5
 5318 1e11 06       		.uleb128 0x6
 5319 1e12 23070000 		.4byte	.LASF526
 5320 1e16 06       		.byte	0x6
 5321 1e17 06       		.uleb128 0x6
 5322 1e18 362B0000 		.4byte	.LASF527
 5323 1e1c 07       		.byte	0x7
 5324 1e1d 06       		.uleb128 0x6
 5325 1e1e 480C0000 		.4byte	.LASF528
 5326 1e22 08       		.byte	0x8
 5327 1e23 06       		.uleb128 0x6
 5328 1e24 741E0000 		.4byte	.LASF529
 5329 1e28 09       		.byte	0x9
 5330 1e29 06       		.uleb128 0x6
 5331 1e2a 23130000 		.4byte	.LASF530
 5332 1e2e 0A       		.byte	0xa
 5333 1e2f 06       		.uleb128 0x6
 5334 1e30 D9090000 		.4byte	.LASF531
 5335 1e34 0B       		.byte	0xb
 5336 1e35 06       		.uleb128 0x6
 5337 1e36 AA160000 		.4byte	.LASF532
 5338 1e3a 0C       		.byte	0xc
 5339 1e3b 06       		.uleb128 0x6
 5340 1e3c CE2B0000 		.4byte	.LASF533
 5341 1e40 0D       		.byte	0xd
 5342 1e41 06       		.uleb128 0x6
 5343 1e42 40070000 		.4byte	.LASF534
 5344 1e46 0E       		.byte	0xe
 5345 1e47 06       		.uleb128 0x6
 5346 1e48 D3010000 		.4byte	.LASF535
 5347 1e4c 0F       		.byte	0xf
 5348 1e4d 06       		.uleb128 0x6
 5349 1e4e 25050000 		.4byte	.LASF536
 5350 1e52 10       		.byte	0x10
 5351 1e53 06       		.uleb128 0x6
 5352 1e54 30220000 		.4byte	.LASF537
 5353 1e58 11       		.byte	0x11
 5354 1e59 06       		.uleb128 0x6
 5355 1e5a 6B170000 		.4byte	.LASF538
 5356 1e5e 12       		.byte	0x12
 5357 1e5f 06       		.uleb128 0x6
 5358 1e60 D2080000 		.4byte	.LASF539
 5359 1e64 13       		.byte	0x13
ARM GAS  C:\Users\haske\AppData\Local\Temp\cc65HANE.s 			page 117


 5360 1e65 06       		.uleb128 0x6
 5361 1e66 26230000 		.4byte	.LASF540
 5362 1e6a 14       		.byte	0x14
 5363 1e6b 06       		.uleb128 0x6
 5364 1e6c B4060000 		.4byte	.LASF541
 5365 1e70 15       		.byte	0x15
 5366 1e71 06       		.uleb128 0x6
 5367 1e72 772A0000 		.4byte	.LASF542
 5368 1e76 16       		.byte	0x16
 5369 1e77 06       		.uleb128 0x6
 5370 1e78 CD280000 		.4byte	.LASF543
 5371 1e7c 17       		.byte	0x17
 5372 1e7d 06       		.uleb128 0x6
 5373 1e7e 34050000 		.4byte	.LASF544
 5374 1e82 18       		.byte	0x18
 5375 1e83 06       		.uleb128 0x6
 5376 1e84 62290000 		.4byte	.LASF545
 5377 1e88 19       		.byte	0x19
 5378 1e89 06       		.uleb128 0x6
 5379 1e8a 09260000 		.4byte	.LASF546
 5380 1e8e 1A       		.byte	0x1a
 5381 1e8f 06       		.uleb128 0x6
 5382 1e90 47160000 		.4byte	.LASF547
 5383 1e94 1B       		.byte	0x1b
 5384 1e95 06       		.uleb128 0x6
 5385 1e96 12000000 		.4byte	.LASF548
 5386 1e9a 1C       		.byte	0x1c
 5387 1e9b 06       		.uleb128 0x6
 5388 1e9c BE1B0000 		.4byte	.LASF549
 5389 1ea0 1D       		.byte	0x1d
 5390 1ea1 06       		.uleb128 0x6
 5391 1ea2 971D0000 		.4byte	.LASF550
 5392 1ea6 1E       		.byte	0x1e
 5393 1ea7 06       		.uleb128 0x6
 5394 1ea8 761F0000 		.4byte	.LASF551
 5395 1eac 1F       		.byte	0x1f
 5396 1ead 06       		.uleb128 0x6
 5397 1eae 15100000 		.4byte	.LASF552
 5398 1eb2 20       		.byte	0x20
 5399 1eb3 06       		.uleb128 0x6
 5400 1eb4 21040000 		.4byte	.LASF553
 5401 1eb8 21       		.byte	0x21
 5402 1eb9 06       		.uleb128 0x6
 5403 1eba 93190000 		.4byte	.LASF554
 5404 1ebe 22       		.byte	0x22
 5405 1ebf 06       		.uleb128 0x6
 5406 1ec0 9E110000 		.4byte	.LASF555
 5407 1ec4 23       		.byte	0x23
 5408 1ec5 06       		.uleb128 0x6
 5409 1ec6 61080000 		.4byte	.LASF556
 5410 1eca 24       		.byte	0x24
 5411 1ecb 06       		.uleb128 0x6
 5412 1ecc F4020000 		.4byte	.LASF557
 5413 1ed0 25       		.byte	0x25
 5414 1ed1 06       		.uleb128 0x6
 5415 1ed2 D8120000 		.4byte	.LASF558
 5416 1ed6 26       		.byte	0x26
ARM GAS  C:\Users\haske\AppData\Local\Temp\cc65HANE.s 			page 118


 5417 1ed7 06       		.uleb128 0x6
 5418 1ed8 1A080000 		.4byte	.LASF559
 5419 1edc 27       		.byte	0x27
 5420 1edd 06       		.uleb128 0x6
 5421 1ede F21B0000 		.4byte	.LASF560
 5422 1ee2 28       		.byte	0x28
 5423 1ee3 06       		.uleb128 0x6
 5424 1ee4 A42A0000 		.4byte	.LASF561
 5425 1ee8 29       		.byte	0x29
 5426 1ee9 06       		.uleb128 0x6
 5427 1eea CE140000 		.4byte	.LASF562
 5428 1eee 2A       		.byte	0x2a
 5429 1eef 06       		.uleb128 0x6
 5430 1ef0 A6050000 		.4byte	.LASF563
 5431 1ef4 2B       		.byte	0x2b
 5432 1ef5 06       		.uleb128 0x6
 5433 1ef6 87260000 		.4byte	.LASF564
 5434 1efa 2C       		.byte	0x2c
 5435 1efb 06       		.uleb128 0x6
 5436 1efc 2B290000 		.4byte	.LASF565
 5437 1f00 2D       		.byte	0x2d
 5438 1f01 06       		.uleb128 0x6
 5439 1f02 F70C0000 		.4byte	.LASF566
 5440 1f06 80       		.byte	0x80
 5441 1f07 00       		.byte	0
 5442 1f08 02       		.uleb128 0x2
 5443 1f09 4C1A0000 		.4byte	.LASF567
 5444 1f0d 21       		.byte	0x21
 5445 1f0e 5C       		.byte	0x5c
 5446 1f0f E11D0000 		.4byte	0x1de1
 5447 1f13 02       		.uleb128 0x2
 5448 1f14 CD120000 		.4byte	.LASF568
 5449 1f18 21       		.byte	0x21
 5450 1f19 68       		.byte	0x68
 5451 1f1a 281D0000 		.4byte	0x1d28
 5452 1f1e 07       		.uleb128 0x7
 5453 1f1f 04       		.byte	0x4
 5454 1f20 131F0000 		.4byte	0x1f13
 5455 1f24 02       		.uleb128 0x2
 5456 1f25 7C180000 		.4byte	.LASF569
 5457 1f29 1D       		.byte	0x1d
 5458 1f2a 34       		.byte	0x34
 5459 1f2b 2F1F0000 		.4byte	0x1f2f
 5460 1f2f 07       		.uleb128 0x7
 5461 1f30 04       		.byte	0x4
 5462 1f31 351F0000 		.4byte	0x1f35
 5463 1f35 08       		.uleb128 0x8
 5464 1f36 401F0000 		.4byte	0x1f40
 5465 1f3a 09       		.uleb128 0x9
 5466 1f3b 631A0000 		.4byte	0x1a63
 5467 1f3f 00       		.byte	0
 5468 1f40 02       		.uleb128 0x2
 5469 1f41 D30D0000 		.4byte	.LASF570
 5470 1f45 1D       		.byte	0x1d
 5471 1f46 35       		.byte	0x35
 5472 1f47 4B1F0000 		.4byte	0x1f4b
 5473 1f4b 07       		.uleb128 0x7
ARM GAS  C:\Users\haske\AppData\Local\Temp\cc65HANE.s 			page 119


 5474 1f4c 04       		.byte	0x4
 5475 1f4d 511F0000 		.4byte	0x1f51
 5476 1f51 08       		.uleb128 0x8
 5477 1f52 611F0000 		.4byte	0x1f61
 5478 1f56 09       		.uleb128 0x9
 5479 1f57 631A0000 		.4byte	0x1a63
 5480 1f5b 09       		.uleb128 0x9
 5481 1f5c D5030000 		.4byte	0x3d5
 5482 1f60 00       		.byte	0
 5483 1f61 02       		.uleb128 0x2
 5484 1f62 6D070000 		.4byte	.LASF571
 5485 1f66 1D       		.byte	0x1d
 5486 1f67 4E       		.byte	0x4e
 5487 1f68 DE190000 		.4byte	0x19de
 5488 1f6c 0F       		.uleb128 0xf
 5489 1f6d 1C       		.byte	0x1c
 5490 1f6e 11       		.byte	0x11
 5491 1f6f 9B       		.byte	0x9b
 5492 1f70 23200000 		.4byte	0x2023
 5493 1f74 0B       		.uleb128 0xb
 5494 1f75 42220000 		.4byte	.LASF572
 5495 1f79 11       		.byte	0x11
 5496 1f7a 9C       		.byte	0x9c
 5497 1f7b 3C160000 		.4byte	0x163c
 5498 1f7f 00       		.byte	0
 5499 1f80 0B       		.uleb128 0xb
 5500 1f81 93090000 		.4byte	.LASF573
 5501 1f85 11       		.byte	0x11
 5502 1f86 9D       		.byte	0x9d
 5503 1f87 E4000000 		.4byte	0xe4
 5504 1f8b 04       		.byte	0x4
 5505 1f8c 0B       		.uleb128 0xb
 5506 1f8d 690E0000 		.4byte	.LASF574
 5507 1f91 11       		.byte	0x11
 5508 1f92 9E       		.byte	0x9e
 5509 1f93 23200000 		.4byte	0x2023
 5510 1f97 08       		.byte	0x8
 5511 1f98 0B       		.uleb128 0xb
 5512 1f99 75200000 		.4byte	.LASF575
 5513 1f9d 11       		.byte	0x11
 5514 1f9e A0       		.byte	0xa0
 5515 1f9f 2E200000 		.4byte	0x202e
 5516 1fa3 0C       		.byte	0xc
 5517 1fa4 0B       		.uleb128 0xb
 5518 1fa5 1C130000 		.4byte	.LASF576
 5519 1fa9 11       		.byte	0x11
 5520 1faa A1       		.byte	0xa1
 5521 1fab 17020000 		.4byte	0x217
 5522 1faf 10       		.byte	0x10
 5523 1fb0 0B       		.uleb128 0xb
 5524 1fb1 A9170000 		.4byte	.LASF577
 5525 1fb5 11       		.byte	0x11
 5526 1fb6 A3       		.byte	0xa3
 5527 1fb7 EF010000 		.4byte	0x1ef
 5528 1fbb 14       		.byte	0x14
 5529 1fbc 0B       		.uleb128 0xb
 5530 1fbd EB290000 		.4byte	.LASF578
ARM GAS  C:\Users\haske\AppData\Local\Temp\cc65HANE.s 			page 120


 5531 1fc1 11       		.byte	0x11
 5532 1fc2 A4       		.byte	0xa4
 5533 1fc3 EF010000 		.4byte	0x1ef
 5534 1fc7 16       		.byte	0x16
 5535 1fc8 0C       		.uleb128 0xc
 5536 1fc9 C9260000 		.4byte	.LASF579
 5537 1fcd 11       		.byte	0x11
 5538 1fce A6       		.byte	0xa6
 5539 1fcf FB1B0000 		.4byte	0x1bfb
 5540 1fd3 01       		.byte	0x1
 5541 1fd4 02       		.byte	0x2
 5542 1fd5 06       		.byte	0x6
 5543 1fd6 18       		.byte	0x18
 5544 1fd7 0C       		.uleb128 0xc
 5545 1fd8 3E210000 		.4byte	.LASF580
 5546 1fdc 11       		.byte	0x11
 5547 1fdd A7       		.byte	0xa7
 5548 1fde 2B1C0000 		.4byte	0x1c2b
 5549 1fe2 01       		.byte	0x1
 5550 1fe3 02       		.byte	0x2
 5551 1fe4 04       		.byte	0x4
 5552 1fe5 18       		.byte	0x18
 5553 1fe6 0C       		.uleb128 0xc
 5554 1fe7 4C210000 		.4byte	.LASF581
 5555 1feb 11       		.byte	0x11
 5556 1fec A8       		.byte	0xa8
 5557 1fed 2B1C0000 		.4byte	0x1c2b
 5558 1ff1 01       		.byte	0x1
 5559 1ff2 02       		.byte	0x2
 5560 1ff3 02       		.byte	0x2
 5561 1ff4 18       		.byte	0x18
 5562 1ff5 0C       		.uleb128 0xc
 5563 1ff6 C3140000 		.4byte	.LASF414
 5564 1ffa 11       		.byte	0x11
 5565 1ffb A9       		.byte	0xa9
 5566 1ffc 9F020000 		.4byte	0x29f
 5567 2000 01       		.byte	0x1
 5568 2001 04       		.byte	0x4
 5569 2002 04       		.byte	0x4
 5570 2003 19       		.byte	0x19
 5571 2004 0C       		.uleb128 0xc
 5572 2005 071E0000 		.4byte	.LASF582
 5573 2009 11       		.byte	0x11
 5574 200a AA       		.byte	0xaa
 5575 200b B8000000 		.4byte	0xb8
 5576 200f 01       		.byte	0x1
 5577 2010 06       		.byte	0x6
 5578 2011 02       		.byte	0x2
 5579 2012 1A       		.byte	0x1a
 5580 2013 0C       		.uleb128 0xc
 5581 2014 E9090000 		.4byte	.LASF583
 5582 2018 11       		.byte	0x11
 5583 2019 AB       		.byte	0xab
 5584 201a B8000000 		.4byte	0xb8
 5585 201e 01       		.byte	0x1
 5586 201f 02       		.byte	0x2
 5587 2020 00       		.byte	0
ARM GAS  C:\Users\haske\AppData\Local\Temp\cc65HANE.s 			page 121


 5588 2021 1A       		.byte	0x1a
 5589 2022 00       		.byte	0
 5590 2023 07       		.uleb128 0x7
 5591 2024 04       		.byte	0x4
 5592 2025 611F0000 		.4byte	0x1f61
 5593 2029 24       		.uleb128 0x24
 5594 202a 28150000 		.4byte	.LASF719
 5595 202e 07       		.uleb128 0x7
 5596 202f 04       		.byte	0x4
 5597 2030 29200000 		.4byte	0x2029
 5598 2034 02       		.uleb128 0x2
 5599 2035 BE040000 		.4byte	.LASF584
 5600 2039 11       		.byte	0x11
 5601 203a AC       		.byte	0xac
 5602 203b 6C1F0000 		.4byte	0x1f6c
 5603 203f 07       		.uleb128 0x7
 5604 2040 04       		.byte	0x4
 5605 2041 45200000 		.4byte	0x2045
 5606 2045 0E       		.uleb128 0xe
 5607 2046 D61D0000 		.4byte	0x1dd6
 5608 204a 07       		.uleb128 0x7
 5609 204b 04       		.byte	0x4
 5610 204c 34200000 		.4byte	0x2034
 5611 2050 07       		.uleb128 0x7
 5612 2051 04       		.byte	0x4
 5613 2052 7E1C0000 		.4byte	0x1c7e
 5614 2056 02       		.uleb128 0x2
 5615 2057 1F220000 		.4byte	.LASF585
 5616 205b 11       		.byte	0x11
 5617 205c BF       		.byte	0xbf
 5618 205d CD080000 		.4byte	0x8cd
 5619 2061 02       		.uleb128 0x2
 5620 2062 C30A0000 		.4byte	.LASF586
 5621 2066 1B       		.byte	0x1b
 5622 2067 1D       		.byte	0x1d
 5623 2068 6C200000 		.4byte	0x206c
 5624 206c 07       		.uleb128 0x7
 5625 206d 04       		.byte	0x4
 5626 206e 72200000 		.4byte	0x2072
 5627 2072 08       		.uleb128 0x8
 5628 2073 82200000 		.4byte	0x2082
 5629 2077 09       		.uleb128 0x9
 5630 2078 36160000 		.4byte	0x1636
 5631 207c 09       		.uleb128 0x9
 5632 207d 82200000 		.4byte	0x2082
 5633 2081 00       		.byte	0
 5634 2082 07       		.uleb128 0x7
 5635 2083 04       		.byte	0x4
 5636 2084 56200000 		.4byte	0x2056
 5637 2088 07       		.uleb128 0x7
 5638 2089 04       		.byte	0x4
 5639 208a B3010000 		.4byte	0x1b3
 5640 208e 05       		.uleb128 0x5
 5641 208f 01       		.byte	0x1
 5642 2090 42000000 		.4byte	0x42
 5643 2094 22       		.byte	0x22
 5644 2095 21       		.byte	0x21
ARM GAS  C:\Users\haske\AppData\Local\Temp\cc65HANE.s 			page 122


 5645 2096 AD200000 		.4byte	0x20ad
 5646 209a 06       		.uleb128 0x6
 5647 209b 3A000000 		.4byte	.LASF587
 5648 209f 00       		.byte	0
 5649 20a0 06       		.uleb128 0x6
 5650 20a1 2A010000 		.4byte	.LASF588
 5651 20a5 01       		.byte	0x1
 5652 20a6 06       		.uleb128 0x6
 5653 20a7 A2060000 		.4byte	.LASF589
 5654 20ab 02       		.byte	0x2
 5655 20ac 00       		.byte	0
 5656 20ad 05       		.uleb128 0x5
 5657 20ae 02       		.byte	0x2
 5658 20af 66000000 		.4byte	0x66
 5659 20b3 23       		.byte	0x23
 5660 20b4 22       		.byte	0x22
 5661 20b5 08210000 		.4byte	0x2108
 5662 20b9 06       		.uleb128 0x6
 5663 20ba AD130000 		.4byte	.LASF590
 5664 20be 07       		.byte	0x7
 5665 20bf 06       		.uleb128 0x6
 5666 20c0 5E060000 		.4byte	.LASF591
 5667 20c4 08       		.byte	0x8
 5668 20c5 06       		.uleb128 0x6
 5669 20c6 3F290000 		.4byte	.LASF592
 5670 20ca 10       		.byte	0x10
 5671 20cb 06       		.uleb128 0x6
 5672 20cc 78080000 		.4byte	.LASF593
 5673 20d0 20       		.byte	0x20
 5674 20d1 06       		.uleb128 0x6
 5675 20d2 D8260000 		.4byte	.LASF594
 5676 20d6 40       		.byte	0x40
 5677 20d7 06       		.uleb128 0x6
 5678 20d8 BC0F0000 		.4byte	.LASF595
 5679 20dc 80       		.byte	0x80
 5680 20dd 19       		.uleb128 0x19
 5681 20de C60E0000 		.4byte	.LASF596
 5682 20e2 0001     		.2byte	0x100
 5683 20e4 19       		.uleb128 0x19
 5684 20e5 8F1F0000 		.4byte	.LASF597
 5685 20e9 0002     		.2byte	0x200
 5686 20eb 19       		.uleb128 0x19
 5687 20ec BF090000 		.4byte	.LASF598
 5688 20f0 0010     		.2byte	0x1000
 5689 20f2 19       		.uleb128 0x19
 5690 20f3 03210000 		.4byte	.LASF599
 5691 20f7 0020     		.2byte	0x2000
 5692 20f9 19       		.uleb128 0x19
 5693 20fa 5C280000 		.4byte	.LASF600
 5694 20fe 0040     		.2byte	0x4000
 5695 2100 19       		.uleb128 0x19
 5696 2101 77280000 		.4byte	.LASF601
 5697 2105 0080     		.2byte	0x8000
 5698 2107 00       		.byte	0
 5699 2108 05       		.uleb128 0x5
 5700 2109 01       		.byte	0x1
 5701 210a 42000000 		.4byte	0x42
ARM GAS  C:\Users\haske\AppData\Local\Temp\cc65HANE.s 			page 123


 5702 210e 24       		.byte	0x24
 5703 210f 2E       		.byte	0x2e
 5704 2110 45210000 		.4byte	0x2145
 5705 2114 06       		.uleb128 0x6
 5706 2115 6B270000 		.4byte	.LASF602
 5707 2119 00       		.byte	0
 5708 211a 06       		.uleb128 0x6
 5709 211b 2C060000 		.4byte	.LASF603
 5710 211f 01       		.byte	0x1
 5711 2120 06       		.uleb128 0x6
 5712 2121 82160000 		.4byte	.LASF604
 5713 2125 04       		.byte	0x4
 5714 2126 06       		.uleb128 0x6
 5715 2127 842B0000 		.4byte	.LASF605
 5716 212b 08       		.byte	0x8
 5717 212c 06       		.uleb128 0x6
 5718 212d 49260000 		.4byte	.LASF606
 5719 2131 0C       		.byte	0xc
 5720 2132 06       		.uleb128 0x6
 5721 2133 210F0000 		.4byte	.LASF607
 5722 2137 05       		.byte	0x5
 5723 2138 06       		.uleb128 0x6
 5724 2139 5E100000 		.4byte	.LASF608
 5725 213d 09       		.byte	0x9
 5726 213e 06       		.uleb128 0x6
 5727 213f 4B1C0000 		.4byte	.LASF609
 5728 2143 0D       		.byte	0xd
 5729 2144 00       		.byte	0
 5730 2145 05       		.uleb128 0x5
 5731 2146 01       		.byte	0x1
 5732 2147 42000000 		.4byte	0x42
 5733 214b 25       		.byte	0x25
 5734 214c 17       		.byte	0x17
 5735 214d 7C210000 		.4byte	0x217c
 5736 2151 06       		.uleb128 0x6
 5737 2152 DE0C0000 		.4byte	.LASF610
 5738 2156 00       		.byte	0
 5739 2157 06       		.uleb128 0x6
 5740 2158 12090000 		.4byte	.LASF611
 5741 215c 01       		.byte	0x1
 5742 215d 06       		.uleb128 0x6
 5743 215e 8C200000 		.4byte	.LASF612
 5744 2162 02       		.byte	0x2
 5745 2163 06       		.uleb128 0x6
 5746 2164 81060000 		.4byte	.LASF613
 5747 2168 03       		.byte	0x3
 5748 2169 06       		.uleb128 0x6
 5749 216a 930E0000 		.4byte	.LASF614
 5750 216e 04       		.byte	0x4
 5751 216f 06       		.uleb128 0x6
 5752 2170 AA190000 		.4byte	.LASF615
 5753 2174 05       		.byte	0x5
 5754 2175 06       		.uleb128 0x6
 5755 2176 AD1A0000 		.4byte	.LASF616
 5756 217a 06       		.byte	0x6
 5757 217b 00       		.byte	0
 5758 217c 0F       		.uleb128 0xf
ARM GAS  C:\Users\haske\AppData\Local\Temp\cc65HANE.s 			page 124


 5759 217d 30       		.byte	0x30
 5760 217e 26       		.byte	0x26
 5761 217f 1C       		.byte	0x1c
 5762 2180 C1210000 		.4byte	0x21c1
 5763 2184 10       		.uleb128 0x10
 5764 2185 6F626A00 		.ascii	"obj\000"
 5765 2189 26       		.byte	0x26
 5766 218a 1D       		.byte	0x1d
 5767 218b 56200000 		.4byte	0x2056
 5768 218f 00       		.byte	0
 5769 2190 10       		.uleb128 0x10
 5770 2191 6D617000 		.ascii	"map\000"
 5771 2195 26       		.byte	0x26
 5772 2196 1E       		.byte	0x1e
 5773 2197 88200000 		.4byte	0x2088
 5774 219b 24       		.byte	0x24
 5775 219c 0B       		.uleb128 0xb
 5776 219d B7280000 		.4byte	.LASF617
 5777 21a1 26       		.byte	0x26
 5778 21a2 1F       		.byte	0x1f
 5779 21a3 CE000000 		.4byte	0xce
 5780 21a7 28       		.byte	0x28
 5781 21a8 0B       		.uleb128 0xb
 5782 21a9 8C000000 		.4byte	.LASF618
 5783 21ad 26       		.byte	0x26
 5784 21ae 20       		.byte	0x20
 5785 21af CE000000 		.4byte	0xce
 5786 21b3 2A       		.byte	0x2a
 5787 21b4 0B       		.uleb128 0xb
 5788 21b5 D7070000 		.4byte	.LASF619
 5789 21b9 26       		.byte	0x26
 5790 21ba 21       		.byte	0x21
 5791 21bb 9F020000 		.4byte	0x29f
 5792 21bf 2C       		.byte	0x2c
 5793 21c0 00       		.byte	0
 5794 21c1 02       		.uleb128 0x2
 5795 21c2 EE0E0000 		.4byte	.LASF620
 5796 21c6 26       		.byte	0x26
 5797 21c7 22       		.byte	0x22
 5798 21c8 7C210000 		.4byte	0x217c
 5799 21cc 25       		.uleb128 0x25
 5800 21cd DF070000 		.4byte	.LASF622
 5801 21d1 02       		.byte	0x2
 5802 21d2 2F02     		.2byte	0x22f
 5803 21d4 D5040000 		.4byte	0x4d5
 5804 21d8 03       		.byte	0x3
 5805 21d9 00220000 		.4byte	0x2200
 5806 21dd 26       		.uleb128 0x26
 5807 21de 6F626A00 		.ascii	"obj\000"
 5808 21e2 02       		.byte	0x2
 5809 21e3 2F02     		.2byte	0x22f
 5810 21e5 00220000 		.4byte	0x2200
 5811 21e9 27       		.uleb128 0x27
 5812 21ea 77180000 		.4byte	.LASF621
 5813 21ee 02       		.byte	0x2
 5814 21ef 2F02     		.2byte	0x22f
 5815 21f1 E4000000 		.4byte	0xe4
ARM GAS  C:\Users\haske\AppData\Local\Temp\cc65HANE.s 			page 125


 5816 21f5 28       		.uleb128 0x28
 5817 21f6 7600     		.ascii	"v\000"
 5818 21f8 02       		.byte	0x2
 5819 21f9 3102     		.2byte	0x231
 5820 21fb C7050000 		.4byte	0x5c7
 5821 21ff 00       		.byte	0
 5822 2200 07       		.uleb128 0x7
 5823 2201 04       		.byte	0x4
 5824 2202 06220000 		.4byte	0x2206
 5825 2206 0E       		.uleb128 0xe
 5826 2207 CD080000 		.4byte	0x8cd
 5827 220b 29       		.uleb128 0x29
 5828 220c 10060000 		.4byte	.LASF623
 5829 2210 02       		.byte	0x2
 5830 2211 85       		.byte	0x85
 5831 2212 EF010000 		.4byte	0x1ef
 5832 2216 03       		.byte	0x3
 5833 2217 3B220000 		.4byte	0x223b
 5834 221b 2A       		.uleb128 0x2a
 5835 221c 6F626A00 		.ascii	"obj\000"
 5836 2220 02       		.byte	0x2
 5837 2221 85       		.byte	0x85
 5838 2222 00220000 		.4byte	0x2200
 5839 2226 2B       		.uleb128 0x2b
 5840 2227 77180000 		.4byte	.LASF621
 5841 222b 02       		.byte	0x2
 5842 222c 85       		.byte	0x85
 5843 222d E4000000 		.4byte	0xe4
 5844 2231 2C       		.uleb128 0x2c
 5845 2232 7600     		.ascii	"v\000"
 5846 2234 02       		.byte	0x2
 5847 2235 87       		.byte	0x87
 5848 2236 C7050000 		.4byte	0x5c7
 5849 223a 00       		.byte	0
 5850 223b 29       		.uleb128 0x29
 5851 223c 29160000 		.4byte	.LASF624
 5852 2240 02       		.byte	0x2
 5853 2241 7F       		.byte	0x7f
 5854 2242 EF010000 		.4byte	0x1ef
 5855 2246 03       		.byte	0x3
 5856 2247 6B220000 		.4byte	0x226b
 5857 224b 2A       		.uleb128 0x2a
 5858 224c 6F626A00 		.ascii	"obj\000"
 5859 2250 02       		.byte	0x2
 5860 2251 7F       		.byte	0x7f
 5861 2252 00220000 		.4byte	0x2200
 5862 2256 2B       		.uleb128 0x2b
 5863 2257 77180000 		.4byte	.LASF621
 5864 225b 02       		.byte	0x2
 5865 225c 7F       		.byte	0x7f
 5866 225d E4000000 		.4byte	0xe4
 5867 2261 2C       		.uleb128 0x2c
 5868 2262 7600     		.ascii	"v\000"
 5869 2264 02       		.byte	0x2
 5870 2265 81       		.byte	0x81
 5871 2266 C7050000 		.4byte	0x5c7
 5872 226a 00       		.byte	0
ARM GAS  C:\Users\haske\AppData\Local\Temp\cc65HANE.s 			page 126


 5873 226b 29       		.uleb128 0x29
 5874 226c 15050000 		.4byte	.LASF625
 5875 2270 03       		.byte	0x3
 5876 2271 C2       		.byte	0xc2
 5877 2272 8D010000 		.4byte	0x18d
 5878 2276 03       		.byte	0x3
 5879 2277 B1220000 		.4byte	0x22b1
 5880 227b 2A       		.uleb128 0x2a
 5881 227c 64737400 		.ascii	"dst\000"
 5882 2280 03       		.byte	0x3
 5883 2281 C2       		.byte	0xc2
 5884 2282 8D010000 		.4byte	0x18d
 5885 2286 2A       		.uleb128 0x2a
 5886 2287 73726300 		.ascii	"src\000"
 5887 228b 03       		.byte	0x3
 5888 228c C2       		.byte	0xc2
 5889 228d 0D040000 		.4byte	0x40d
 5890 2291 2A       		.uleb128 0x2a
 5891 2292 6C656E00 		.ascii	"len\000"
 5892 2296 03       		.byte	0x3
 5893 2297 C2       		.byte	0xc2
 5894 2298 9A010000 		.4byte	0x19a
 5895 229c 2C       		.uleb128 0x2c
 5896 229d 643800   		.ascii	"d8\000"
 5897 22a0 03       		.byte	0x3
 5898 22a1 C4       		.byte	0xc4
 5899 22a2 61080000 		.4byte	0x861
 5900 22a6 2C       		.uleb128 0x2c
 5901 22a7 733800   		.ascii	"s8\000"
 5902 22aa 03       		.byte	0x3
 5903 22ab C5       		.byte	0xc5
 5904 22ac FC030000 		.4byte	0x3fc
 5905 22b0 00       		.byte	0
 5906 22b1 2D       		.uleb128 0x2d
 5907 22b2 36020000 		.4byte	.LASF627
 5908 22b6 01       		.byte	0x1
 5909 22b7 0A01     		.2byte	0x10a
 5910 22b9 00000000 		.4byte	.LFB210
 5911 22bd 66000000 		.4byte	.LFE210-.LFB210
 5912 22c1 01       		.uleb128 0x1
 5913 22c2 9C       		.byte	0x9c
 5914 22c3 21230000 		.4byte	0x2321
 5915 22c7 2E       		.uleb128 0x2e
 5916 22c8 A61C0000 		.4byte	.LASF200
 5917 22cc 01       		.byte	0x1
 5918 22cd 0A01     		.2byte	0x10a
 5919 22cf 3F200000 		.4byte	0x203f
 5920 22d3 00000000 		.4byte	.LLST0
 5921 22d7 2F       		.uleb128 0x2f
 5922 22d8 6F626A00 		.ascii	"obj\000"
 5923 22dc 01       		.byte	0x1
 5924 22dd 0A01     		.2byte	0x10a
 5925 22df 82200000 		.4byte	0x2082
 5926 22e3 3A000000 		.4byte	.LLST1
 5927 22e7 30       		.uleb128 0x30
 5928 22e8 78120000 		.4byte	.LASF626
 5929 22ec 01       		.byte	0x1
ARM GAS  C:\Users\haske\AppData\Local\Temp\cc65HANE.s 			page 127


 5930 22ed 0D01     		.2byte	0x10d
 5931 22ef 21230000 		.4byte	0x2321
 5932 22f3 7C000000 		.4byte	.LLST2
 5933 22f7 31       		.uleb128 0x31
 5934 22f8 6900     		.ascii	"i\000"
 5935 22fa 01       		.byte	0x1
 5936 22fb 0F01     		.2byte	0x10f
 5937 22fd E4000000 		.4byte	0xe4
 5938 2301 BE000000 		.4byte	.LLST3
 5939 2305 32       		.uleb128 0x32
 5940 2306 1A000000 		.4byte	.LVL3
 5941 230a 51320000 		.4byte	0x3251
 5942 230e 32       		.uleb128 0x32
 5943 230f 44000000 		.4byte	.LVL9
 5944 2313 51320000 		.4byte	0x3251
 5945 2317 32       		.uleb128 0x32
 5946 2318 60000000 		.4byte	.LVL14
 5947 231c 51320000 		.4byte	0x3251
 5948 2320 00       		.byte	0
 5949 2321 07       		.uleb128 0x7
 5950 2322 04       		.byte	0x4
 5951 2323 C1210000 		.4byte	0x21c1
 5952 2327 33       		.uleb128 0x33
 5953 2328 88250000 		.4byte	.LASF628
 5954 232c 01       		.byte	0x1
 5955 232d C4       		.byte	0xc4
 5956 232e 00000000 		.4byte	.LFB209
 5957 2332 64010000 		.4byte	.LFE209-.LFB209
 5958 2336 01       		.uleb128 0x1
 5959 2337 9C       		.byte	0x9c
 5960 2338 51260000 		.4byte	0x2651
 5961 233c 34       		.uleb128 0x34
 5962 233d A61C0000 		.4byte	.LASF200
 5963 2341 01       		.byte	0x1
 5964 2342 C4       		.byte	0xc4
 5965 2343 3F200000 		.4byte	0x203f
 5966 2347 F2000000 		.4byte	.LLST4
 5967 234b 35       		.uleb128 0x35
 5968 234c 6F626A00 		.ascii	"obj\000"
 5969 2350 01       		.byte	0x1
 5970 2351 C4       		.byte	0xc4
 5971 2352 82200000 		.4byte	0x2082
 5972 2356 5E010000 		.4byte	.LLST5
 5973 235a 36       		.uleb128 0x36
 5974 235b 78120000 		.4byte	.LASF626
 5975 235f 01       		.byte	0x1
 5976 2360 C7       		.byte	0xc7
 5977 2361 21230000 		.4byte	0x2321
 5978 2365 CC010000 		.4byte	.LLST6
 5979 2369 36       		.uleb128 0x36
 5980 236a 72190000 		.4byte	.LASF629
 5981 236e 01       		.byte	0x1
 5982 236f DC       		.byte	0xdc
 5983 2370 82200000 		.4byte	0x2082
 5984 2374 3A020000 		.4byte	.LLST7
 5985 2378 36       		.uleb128 0x36
 5986 2379 77190000 		.4byte	.LASF630
ARM GAS  C:\Users\haske\AppData\Local\Temp\cc65HANE.s 			page 128


 5987 237d 01       		.byte	0x1
 5988 237e DD       		.byte	0xdd
 5989 237f 82200000 		.4byte	0x2082
 5990 2383 58020000 		.4byte	.LLST8
 5991 2387 37       		.uleb128 0x37
 5992 2388 6700     		.ascii	"g\000"
 5993 238a 01       		.byte	0x1
 5994 238b FB       		.byte	0xfb
 5995 238c 23200000 		.4byte	0x2023
 5996 2390 76020000 		.4byte	.LLST9
 5997 2394 38       		.uleb128 0x38
 5998 2395 2A000000 		.4byte	.LVL20
 5999 2399 5C320000 		.4byte	0x325c
 6000 239d AD230000 		.4byte	0x23ad
 6001 23a1 39       		.uleb128 0x39
 6002 23a2 01       		.uleb128 0x1
 6003 23a3 50       		.byte	0x50
 6004 23a4 02       		.uleb128 0x2
 6005 23a5 74       		.byte	0x74
 6006 23a6 00       		.sleb128 0
 6007 23a7 39       		.uleb128 0x39
 6008 23a8 01       		.uleb128 0x1
 6009 23a9 51       		.byte	0x51
 6010 23aa 01       		.uleb128 0x1
 6011 23ab 31       		.byte	0x31
 6012 23ac 00       		.byte	0
 6013 23ad 38       		.uleb128 0x38
 6014 23ae 34000000 		.4byte	.LVL24
 6015 23b2 5C320000 		.4byte	0x325c
 6016 23b6 C6230000 		.4byte	0x23c6
 6017 23ba 39       		.uleb128 0x39
 6018 23bb 01       		.uleb128 0x1
 6019 23bc 50       		.byte	0x50
 6020 23bd 02       		.uleb128 0x2
 6021 23be 74       		.byte	0x74
 6022 23bf 00       		.sleb128 0
 6023 23c0 39       		.uleb128 0x39
 6024 23c1 01       		.uleb128 0x1
 6025 23c2 51       		.byte	0x51
 6026 23c3 01       		.uleb128 0x1
 6027 23c4 39       		.byte	0x39
 6028 23c5 00       		.byte	0
 6029 23c6 38       		.uleb128 0x38
 6030 23c7 3E000000 		.4byte	.LVL28
 6031 23cb 5C320000 		.4byte	0x325c
 6032 23cf DF230000 		.4byte	0x23df
 6033 23d3 39       		.uleb128 0x39
 6034 23d4 01       		.uleb128 0x1
 6035 23d5 50       		.byte	0x50
 6036 23d6 02       		.uleb128 0x2
 6037 23d7 74       		.byte	0x74
 6038 23d8 00       		.sleb128 0
 6039 23d9 39       		.uleb128 0x39
 6040 23da 01       		.uleb128 0x1
 6041 23db 51       		.byte	0x51
 6042 23dc 01       		.uleb128 0x1
 6043 23dd 30       		.byte	0x30
ARM GAS  C:\Users\haske\AppData\Local\Temp\cc65HANE.s 			page 129


 6044 23de 00       		.byte	0
 6045 23df 38       		.uleb128 0x38
 6046 23e0 48000000 		.4byte	.LVL32
 6047 23e4 5C320000 		.4byte	0x325c
 6048 23e8 F8230000 		.4byte	0x23f8
 6049 23ec 39       		.uleb128 0x39
 6050 23ed 01       		.uleb128 0x1
 6051 23ee 50       		.byte	0x50
 6052 23ef 02       		.uleb128 0x2
 6053 23f0 74       		.byte	0x74
 6054 23f1 00       		.sleb128 0
 6055 23f2 39       		.uleb128 0x39
 6056 23f3 01       		.uleb128 0x1
 6057 23f4 51       		.byte	0x51
 6058 23f5 01       		.uleb128 0x1
 6059 23f6 38       		.byte	0x38
 6060 23f7 00       		.byte	0
 6061 23f8 38       		.uleb128 0x38
 6062 23f9 52000000 		.4byte	.LVL33
 6063 23fd 67320000 		.4byte	0x3267
 6064 2401 1A240000 		.4byte	0x241a
 6065 2405 39       		.uleb128 0x39
 6066 2406 01       		.uleb128 0x1
 6067 2407 50       		.byte	0x50
 6068 2408 02       		.uleb128 0x2
 6069 2409 74       		.byte	0x74
 6070 240a 00       		.sleb128 0
 6071 240b 39       		.uleb128 0x39
 6072 240c 01       		.uleb128 0x1
 6073 240d 51       		.byte	0x51
 6074 240e 03       		.uleb128 0x3
 6075 240f 0A       		.byte	0xa
 6076 2410 6420     		.2byte	0x2064
 6077 2412 39       		.uleb128 0x39
 6078 2413 01       		.uleb128 0x1
 6079 2414 52       		.byte	0x52
 6080 2415 03       		.uleb128 0x3
 6081 2416 0A       		.byte	0xa
 6082 2417 6420     		.2byte	0x2064
 6083 2419 00       		.byte	0
 6084 241a 38       		.uleb128 0x38
 6085 241b 58000000 		.4byte	.LVL34
 6086 241f 72320000 		.4byte	0x3272
 6087 2423 2E240000 		.4byte	0x242e
 6088 2427 39       		.uleb128 0x39
 6089 2428 01       		.uleb128 0x1
 6090 2429 50       		.byte	0x50
 6091 242a 02       		.uleb128 0x2
 6092 242b 74       		.byte	0x74
 6093 242c 00       		.sleb128 0
 6094 242d 00       		.byte	0
 6095 242e 38       		.uleb128 0x38
 6096 242f 60000000 		.4byte	.LVL37
 6097 2433 7D320000 		.4byte	0x327d
 6098 2437 42240000 		.4byte	0x2442
 6099 243b 39       		.uleb128 0x39
 6100 243c 01       		.uleb128 0x1
ARM GAS  C:\Users\haske\AppData\Local\Temp\cc65HANE.s 			page 130


 6101 243d 50       		.byte	0x50
 6102 243e 02       		.uleb128 0x2
 6103 243f 74       		.byte	0x74
 6104 2440 00       		.sleb128 0
 6105 2441 00       		.byte	0
 6106 2442 38       		.uleb128 0x38
 6107 2443 6A000000 		.4byte	.LVL40
 6108 2447 88320000 		.4byte	0x3288
 6109 244b 5B240000 		.4byte	0x245b
 6110 244f 39       		.uleb128 0x39
 6111 2450 01       		.uleb128 0x1
 6112 2451 50       		.byte	0x50
 6113 2452 02       		.uleb128 0x2
 6114 2453 76       		.byte	0x76
 6115 2454 00       		.sleb128 0
 6116 2455 39       		.uleb128 0x39
 6117 2456 01       		.uleb128 0x1
 6118 2457 51       		.byte	0x51
 6119 2458 01       		.uleb128 0x1
 6120 2459 31       		.byte	0x31
 6121 245a 00       		.byte	0
 6122 245b 38       		.uleb128 0x38
 6123 245c 70000000 		.4byte	.LVL41
 6124 2460 93320000 		.4byte	0x3293
 6125 2464 6E240000 		.4byte	0x246e
 6126 2468 39       		.uleb128 0x39
 6127 2469 01       		.uleb128 0x1
 6128 246a 50       		.byte	0x50
 6129 246b 01       		.uleb128 0x1
 6130 246c 34       		.byte	0x34
 6131 246d 00       		.byte	0
 6132 246e 38       		.uleb128 0x38
 6133 246f 7E000000 		.4byte	.LVL42
 6134 2473 9E320000 		.4byte	0x329e
 6135 2477 82240000 		.4byte	0x2482
 6136 247b 39       		.uleb128 0x39
 6137 247c 01       		.uleb128 0x1
 6138 247d 50       		.byte	0x50
 6139 247e 02       		.uleb128 0x2
 6140 247f 76       		.byte	0x76
 6141 2480 00       		.sleb128 0
 6142 2481 00       		.byte	0
 6143 2482 38       		.uleb128 0x38
 6144 2483 8A000000 		.4byte	.LVL43
 6145 2487 A9320000 		.4byte	0x32a9
 6146 248b A9240000 		.4byte	0x24a9
 6147 248f 39       		.uleb128 0x39
 6148 2490 01       		.uleb128 0x1
 6149 2491 50       		.byte	0x50
 6150 2492 02       		.uleb128 0x2
 6151 2493 76       		.byte	0x76
 6152 2494 00       		.sleb128 0
 6153 2495 39       		.uleb128 0x39
 6154 2496 01       		.uleb128 0x1
 6155 2497 51       		.byte	0x51
 6156 2498 05       		.uleb128 0x5
 6157 2499 03       		.byte	0x3
ARM GAS  C:\Users\haske\AppData\Local\Temp\cc65HANE.s 			page 131


 6158 249a 00000000 		.4byte	btns_value_changed_event_cb
 6159 249e 39       		.uleb128 0x39
 6160 249f 01       		.uleb128 0x1
 6161 24a0 52       		.byte	0x52
 6162 24a1 01       		.uleb128 0x1
 6163 24a2 4C       		.byte	0x4c
 6164 24a3 39       		.uleb128 0x39
 6165 24a4 01       		.uleb128 0x1
 6166 24a5 53       		.byte	0x53
 6167 24a6 01       		.uleb128 0x1
 6168 24a7 30       		.byte	0x30
 6169 24a8 00       		.byte	0
 6170 24a9 38       		.uleb128 0x38
 6171 24aa 94000000 		.4byte	.LVL44
 6172 24ae B4320000 		.4byte	0x32b4
 6173 24b2 C4240000 		.4byte	0x24c4
 6174 24b6 39       		.uleb128 0x39
 6175 24b7 01       		.uleb128 0x1
 6176 24b8 50       		.byte	0x50
 6177 24b9 02       		.uleb128 0x2
 6178 24ba 76       		.byte	0x76
 6179 24bb 00       		.sleb128 0
 6180 24bc 39       		.uleb128 0x39
 6181 24bd 01       		.uleb128 0x1
 6182 24be 51       		.byte	0x51
 6183 24bf 03       		.uleb128 0x3
 6184 24c0 0A       		.byte	0xa
 6185 24c1 0040     		.2byte	0x4000
 6186 24c3 00       		.byte	0
 6187 24c4 38       		.uleb128 0x38
 6188 24c5 A0000000 		.4byte	.LVL45
 6189 24c9 A9320000 		.4byte	0x32a9
 6190 24cd EB240000 		.4byte	0x24eb
 6191 24d1 39       		.uleb128 0x39
 6192 24d2 01       		.uleb128 0x1
 6193 24d3 50       		.byte	0x50
 6194 24d4 02       		.uleb128 0x2
 6195 24d5 75       		.byte	0x75
 6196 24d6 00       		.sleb128 0
 6197 24d7 39       		.uleb128 0x39
 6198 24d8 01       		.uleb128 0x1
 6199 24d9 51       		.byte	0x51
 6200 24da 05       		.uleb128 0x5
 6201 24db 03       		.byte	0x3
 6202 24dc 00000000 		.4byte	cont_scroll_end_event_cb
 6203 24e0 39       		.uleb128 0x39
 6204 24e1 01       		.uleb128 0x1
 6205 24e2 52       		.byte	0x52
 6206 24e3 01       		.uleb128 0x1
 6207 24e4 30       		.byte	0x30
 6208 24e5 39       		.uleb128 0x39
 6209 24e6 01       		.uleb128 0x1
 6210 24e7 53       		.byte	0x53
 6211 24e8 01       		.uleb128 0x1
 6212 24e9 30       		.byte	0x30
 6213 24ea 00       		.byte	0
 6214 24eb 38       		.uleb128 0x38
ARM GAS  C:\Users\haske\AppData\Local\Temp\cc65HANE.s 			page 132


 6215 24ec A8000000 		.4byte	.LVL46
 6216 24f0 BF320000 		.4byte	0x32bf
 6217 24f4 04250000 		.4byte	0x2504
 6218 24f8 39       		.uleb128 0x39
 6219 24f9 01       		.uleb128 0x1
 6220 24fa 50       		.byte	0x50
 6221 24fb 02       		.uleb128 0x2
 6222 24fc 75       		.byte	0x75
 6223 24fd 00       		.sleb128 0
 6224 24fe 39       		.uleb128 0x39
 6225 24ff 01       		.uleb128 0x1
 6226 2500 51       		.byte	0x51
 6227 2501 01       		.uleb128 0x1
 6228 2502 30       		.byte	0x30
 6229 2503 00       		.byte	0
 6230 2504 38       		.uleb128 0x38
 6231 2505 D0000000 		.4byte	.LVL47
 6232 2509 67320000 		.4byte	0x3267
 6233 250d 1E250000 		.4byte	0x251e
 6234 2511 39       		.uleb128 0x39
 6235 2512 01       		.uleb128 0x1
 6236 2513 50       		.byte	0x50
 6237 2514 02       		.uleb128 0x2
 6238 2515 76       		.byte	0x76
 6239 2516 00       		.sleb128 0
 6240 2517 39       		.uleb128 0x39
 6241 2518 01       		.uleb128 0x1
 6242 2519 51       		.byte	0x51
 6243 251a 02       		.uleb128 0x2
 6244 251b 77       		.byte	0x77
 6245 251c 00       		.sleb128 0
 6246 251d 00       		.byte	0
 6247 251e 38       		.uleb128 0x38
 6248 251f D8000000 		.4byte	.LVL48
 6249 2523 CA320000 		.4byte	0x32ca
 6250 2527 38250000 		.4byte	0x2538
 6251 252b 39       		.uleb128 0x39
 6252 252c 01       		.uleb128 0x1
 6253 252d 50       		.byte	0x50
 6254 252e 02       		.uleb128 0x2
 6255 252f 75       		.byte	0x75
 6256 2530 00       		.sleb128 0
 6257 2531 39       		.uleb128 0x39
 6258 2532 01       		.uleb128 0x1
 6259 2533 51       		.byte	0x51
 6260 2534 02       		.uleb128 0x2
 6261 2535 77       		.byte	0x77
 6262 2536 00       		.sleb128 0
 6263 2537 00       		.byte	0
 6264 2538 38       		.uleb128 0x38
 6265 2539 E0000000 		.4byte	.LVL49
 6266 253d D5320000 		.4byte	0x32d5
 6267 2541 51250000 		.4byte	0x2551
 6268 2545 39       		.uleb128 0x39
 6269 2546 01       		.uleb128 0x1
 6270 2547 50       		.byte	0x50
 6271 2548 02       		.uleb128 0x2
ARM GAS  C:\Users\haske\AppData\Local\Temp\cc65HANE.s 			page 133


 6272 2549 75       		.byte	0x75
 6273 254a 00       		.sleb128 0
 6274 254b 39       		.uleb128 0x39
 6275 254c 01       		.uleb128 0x1
 6276 254d 51       		.byte	0x51
 6277 254e 01       		.uleb128 0x1
 6278 254f 31       		.byte	0x31
 6279 2550 00       		.byte	0
 6280 2551 38       		.uleb128 0x38
 6281 2552 F2000000 		.4byte	.LVL50
 6282 2556 67320000 		.4byte	0x3267
 6283 255a 6B250000 		.4byte	0x256b
 6284 255e 39       		.uleb128 0x39
 6285 255f 01       		.uleb128 0x1
 6286 2560 50       		.byte	0x50
 6287 2561 02       		.uleb128 0x2
 6288 2562 76       		.byte	0x76
 6289 2563 00       		.sleb128 0
 6290 2564 39       		.uleb128 0x39
 6291 2565 01       		.uleb128 0x1
 6292 2566 52       		.byte	0x52
 6293 2567 02       		.uleb128 0x2
 6294 2568 77       		.byte	0x77
 6295 2569 00       		.sleb128 0
 6296 256a 00       		.byte	0
 6297 256b 38       		.uleb128 0x38
 6298 256c FA000000 		.4byte	.LVL51
 6299 2570 E0320000 		.4byte	0x32e0
 6300 2574 85250000 		.4byte	0x2585
 6301 2578 39       		.uleb128 0x39
 6302 2579 01       		.uleb128 0x1
 6303 257a 50       		.byte	0x50
 6304 257b 02       		.uleb128 0x2
 6305 257c 75       		.byte	0x75
 6306 257d 00       		.sleb128 0
 6307 257e 39       		.uleb128 0x39
 6308 257f 01       		.uleb128 0x1
 6309 2580 51       		.byte	0x51
 6310 2581 02       		.uleb128 0x2
 6311 2582 77       		.byte	0x77
 6312 2583 00       		.sleb128 0
 6313 2584 00       		.byte	0
 6314 2585 38       		.uleb128 0x38
 6315 2586 02010000 		.4byte	.LVL52
 6316 258a D5320000 		.4byte	0x32d5
 6317 258e 9E250000 		.4byte	0x259e
 6318 2592 39       		.uleb128 0x39
 6319 2593 01       		.uleb128 0x1
 6320 2594 50       		.byte	0x50
 6321 2595 02       		.uleb128 0x2
 6322 2596 75       		.byte	0x75
 6323 2597 00       		.sleb128 0
 6324 2598 39       		.uleb128 0x39
 6325 2599 01       		.uleb128 0x1
 6326 259a 51       		.byte	0x51
 6327 259b 01       		.uleb128 0x1
 6328 259c 31       		.byte	0x31
ARM GAS  C:\Users\haske\AppData\Local\Temp\cc65HANE.s 			page 134


 6329 259d 00       		.byte	0
 6330 259e 32       		.uleb128 0x32
 6331 259f 06010000 		.4byte	.LVL53
 6332 25a3 EB320000 		.4byte	0x32eb
 6333 25a7 38       		.uleb128 0x38
 6334 25a8 10010000 		.4byte	.LVL54
 6335 25ac F6320000 		.4byte	0x32f6
 6336 25b0 BB250000 		.4byte	0x25bb
 6337 25b4 39       		.uleb128 0x39
 6338 25b5 01       		.uleb128 0x1
 6339 25b6 51       		.byte	0x51
 6340 25b7 02       		.uleb128 0x2
 6341 25b8 76       		.byte	0x76
 6342 25b9 00       		.sleb128 0
 6343 25ba 00       		.byte	0
 6344 25bb 38       		.uleb128 0x38
 6345 25bc 22010000 		.4byte	.LVL55
 6346 25c0 5C320000 		.4byte	0x325c
 6347 25c4 D4250000 		.4byte	0x25d4
 6348 25c8 39       		.uleb128 0x39
 6349 25c9 01       		.uleb128 0x1
 6350 25ca 50       		.byte	0x50
 6351 25cb 02       		.uleb128 0x2
 6352 25cc 75       		.byte	0x75
 6353 25cd 00       		.sleb128 0
 6354 25ce 39       		.uleb128 0x39
 6355 25cf 01       		.uleb128 0x1
 6356 25d0 51       		.byte	0x51
 6357 25d1 01       		.uleb128 0x1
 6358 25d2 30       		.byte	0x30
 6359 25d3 00       		.byte	0
 6360 25d4 38       		.uleb128 0x38
 6361 25d5 2A010000 		.4byte	.LVL56
 6362 25d9 01330000 		.4byte	0x3301
 6363 25dd ED250000 		.4byte	0x25ed
 6364 25e1 39       		.uleb128 0x39
 6365 25e2 01       		.uleb128 0x1
 6366 25e3 50       		.byte	0x50
 6367 25e4 02       		.uleb128 0x2
 6368 25e5 75       		.byte	0x75
 6369 25e6 00       		.sleb128 0
 6370 25e7 39       		.uleb128 0x39
 6371 25e8 01       		.uleb128 0x1
 6372 25e9 51       		.byte	0x51
 6373 25ea 01       		.uleb128 0x1
 6374 25eb 33       		.byte	0x33
 6375 25ec 00       		.byte	0
 6376 25ed 38       		.uleb128 0x38
 6377 25ee 34010000 		.4byte	.LVL57
 6378 25f2 5C320000 		.4byte	0x325c
 6379 25f6 06260000 		.4byte	0x2606
 6380 25fa 39       		.uleb128 0x39
 6381 25fb 01       		.uleb128 0x1
 6382 25fc 50       		.byte	0x50
 6383 25fd 02       		.uleb128 0x2
 6384 25fe 75       		.byte	0x75
 6385 25ff 00       		.sleb128 0
ARM GAS  C:\Users\haske\AppData\Local\Temp\cc65HANE.s 			page 135


 6386 2600 39       		.uleb128 0x39
 6387 2601 01       		.uleb128 0x1
 6388 2602 51       		.byte	0x51
 6389 2603 01       		.uleb128 0x1
 6390 2604 31       		.byte	0x31
 6391 2605 00       		.byte	0
 6392 2606 38       		.uleb128 0x38
 6393 2607 3C010000 		.4byte	.LVL58
 6394 260b 0C330000 		.4byte	0x330c
 6395 260f 1F260000 		.4byte	0x261f
 6396 2613 39       		.uleb128 0x39
 6397 2614 01       		.uleb128 0x1
 6398 2615 50       		.byte	0x50
 6399 2616 02       		.uleb128 0x2
 6400 2617 75       		.byte	0x75
 6401 2618 00       		.sleb128 0
 6402 2619 39       		.uleb128 0x39
 6403 261a 01       		.uleb128 0x1
 6404 261b 51       		.byte	0x51
 6405 261c 01       		.uleb128 0x1
 6406 261d 33       		.byte	0x33
 6407 261e 00       		.byte	0
 6408 261f 38       		.uleb128 0x38
 6409 2620 44010000 		.4byte	.LVL59
 6410 2624 B4320000 		.4byte	0x32b4
 6411 2628 39260000 		.4byte	0x2639
 6412 262c 39       		.uleb128 0x39
 6413 262d 01       		.uleb128 0x1
 6414 262e 50       		.byte	0x50
 6415 262f 02       		.uleb128 0x2
 6416 2630 75       		.byte	0x75
 6417 2631 00       		.sleb128 0
 6418 2632 39       		.uleb128 0x39
 6419 2633 01       		.uleb128 0x1
 6420 2634 51       		.byte	0x51
 6421 2635 02       		.uleb128 0x2
 6422 2636 08       		.byte	0x8
 6423 2637 80       		.byte	0x80
 6424 2638 00       		.byte	0
 6425 2639 3A       		.uleb128 0x3a
 6426 263a 4E010000 		.4byte	.LVL60
 6427 263e 17330000 		.4byte	0x3317
 6428 2642 39       		.uleb128 0x39
 6429 2643 01       		.uleb128 0x1
 6430 2644 50       		.byte	0x50
 6431 2645 02       		.uleb128 0x2
 6432 2646 75       		.byte	0x75
 6433 2647 00       		.sleb128 0
 6434 2648 39       		.uleb128 0x39
 6435 2649 01       		.uleb128 0x1
 6436 264a 51       		.byte	0x51
 6437 264b 03       		.uleb128 0x3
 6438 264c 0A       		.byte	0xa
 6439 264d 0004     		.2byte	0x400
 6440 264f 00       		.byte	0
 6441 2650 00       		.byte	0
 6442 2651 3B       		.uleb128 0x3b
ARM GAS  C:\Users\haske\AppData\Local\Temp\cc65HANE.s 			page 136


 6443 2652 B0010000 		.4byte	.LASF633
 6444 2656 01       		.byte	0x1
 6445 2657 38       		.byte	0x38
 6446 2658 82200000 		.4byte	0x2082
 6447 265c 00000000 		.4byte	.LFB202
 6448 2660 24000000 		.4byte	.LFE202-.LFB202
 6449 2664 01       		.uleb128 0x1
 6450 2665 9C       		.byte	0x9c
 6451 2666 D5260000 		.4byte	0x26d5
 6452 266a 34       		.uleb128 0x34
 6453 266b DB250000 		.4byte	.LASF201
 6454 266f 01       		.byte	0x1
 6455 2670 38       		.byte	0x38
 6456 2671 82200000 		.4byte	0x2082
 6457 2675 89020000 		.4byte	.LLST10
 6458 2679 34       		.uleb128 0x34
 6459 267a D7070000 		.4byte	.LASF619
 6460 267e 01       		.byte	0x1
 6461 267f 38       		.byte	0x38
 6462 2680 9F020000 		.4byte	0x29f
 6463 2684 B5020000 		.4byte	.LLST11
 6464 2688 34       		.uleb128 0x34
 6465 2689 BA2A0000 		.4byte	.LASF631
 6466 268d 01       		.byte	0x1
 6467 268e 38       		.byte	0x38
 6468 268f EF010000 		.4byte	0x1ef
 6469 2693 E5020000 		.4byte	.LLST12
 6470 2697 37       		.uleb128 0x37
 6471 2698 6F626A00 		.ascii	"obj\000"
 6472 269c 01       		.byte	0x1
 6473 269d 3E       		.byte	0x3e
 6474 269e 82200000 		.4byte	0x2082
 6475 26a2 06030000 		.4byte	.LLST13
 6476 26a6 38       		.uleb128 0x38
 6477 26a7 10000000 		.4byte	.LVL67
 6478 26ab 22330000 		.4byte	0x3322
 6479 26af C4260000 		.4byte	0x26c4
 6480 26b3 39       		.uleb128 0x39
 6481 26b4 01       		.uleb128 0x1
 6482 26b5 50       		.byte	0x50
 6483 26b6 05       		.uleb128 0x5
 6484 26b7 03       		.byte	0x3
 6485 26b8 00000000 		.4byte	.LANCHOR1
 6486 26bc 39       		.uleb128 0x39
 6487 26bd 01       		.uleb128 0x1
 6488 26be 51       		.byte	0x51
 6489 26bf 03       		.uleb128 0x3
 6490 26c0 F3       		.byte	0xf3
 6491 26c1 01       		.uleb128 0x1
 6492 26c2 50       		.byte	0x50
 6493 26c3 00       		.byte	0
 6494 26c4 3A       		.uleb128 0x3a
 6495 26c5 16000000 		.4byte	.LVL69
 6496 26c9 2D330000 		.4byte	0x332d
 6497 26cd 39       		.uleb128 0x39
 6498 26ce 01       		.uleb128 0x1
 6499 26cf 50       		.byte	0x50
ARM GAS  C:\Users\haske\AppData\Local\Temp\cc65HANE.s 			page 137


 6500 26d0 02       		.uleb128 0x2
 6501 26d1 74       		.byte	0x74
 6502 26d2 00       		.sleb128 0
 6503 26d3 00       		.byte	0
 6504 26d4 00       		.byte	0
 6505 26d5 3C       		.uleb128 0x3c
 6506 26d6 FA050000 		.4byte	.LASF637
 6507 26da 01       		.byte	0x1
 6508 26db 7C       		.byte	0x7c
 6509 26dc 00000000 		.4byte	.LFB204
 6510 26e0 44000000 		.4byte	.LFE204-.LFB204
 6511 26e4 01       		.uleb128 0x1
 6512 26e5 9C       		.byte	0x9c
 6513 26e6 70270000 		.4byte	0x2770
 6514 26ea 35       		.uleb128 0x35
 6515 26eb 6F626A00 		.ascii	"obj\000"
 6516 26ef 01       		.byte	0x1
 6517 26f0 7C       		.byte	0x7c
 6518 26f1 82200000 		.4byte	0x2082
 6519 26f5 2F030000 		.4byte	.LLST14
 6520 26f9 35       		.uleb128 0x35
 6521 26fa 696400   		.ascii	"id\000"
 6522 26fd 01       		.byte	0x1
 6523 26fe 7C       		.byte	0x7c
 6524 26ff E4000000 		.4byte	0xe4
 6525 2703 5B030000 		.4byte	.LLST15
 6526 2707 34       		.uleb128 0x34
 6527 2708 5C1A0000 		.4byte	.LASF632
 6528 270c 01       		.byte	0x1
 6529 270d 7C       		.byte	0x7c
 6530 270e C0010000 		.4byte	0x1c0
 6531 2712 79030000 		.4byte	.LLST16
 6532 2716 36       		.uleb128 0x36
 6533 2717 78120000 		.4byte	.LASF626
 6534 271b 01       		.byte	0x1
 6535 271c 7F       		.byte	0x7f
 6536 271d 21230000 		.4byte	0x2321
 6537 2721 A5030000 		.4byte	.LLST17
 6538 2725 32       		.uleb128 0x32
 6539 2726 20000000 		.4byte	.LVL75
 6540 272a 51320000 		.4byte	0x3251
 6541 272e 38       		.uleb128 0x38
 6542 272f 2A000000 		.4byte	.LVL76
 6543 2733 38330000 		.4byte	0x3338
 6544 2737 42270000 		.4byte	0x2742
 6545 273b 39       		.uleb128 0x39
 6546 273c 01       		.uleb128 0x1
 6547 273d 50       		.byte	0x50
 6548 273e 02       		.uleb128 0x2
 6549 273f 76       		.byte	0x76
 6550 2740 00       		.sleb128 0
 6551 2741 00       		.byte	0
 6552 2742 32       		.uleb128 0x32
 6553 2743 30000000 		.4byte	.LVL77
 6554 2747 93320000 		.4byte	0x3293
 6555 274b 38       		.uleb128 0x38
 6556 274c 3C000000 		.4byte	.LVL78
ARM GAS  C:\Users\haske\AppData\Local\Temp\cc65HANE.s 			page 138


 6557 2750 43330000 		.4byte	0x3343
 6558 2754 5F270000 		.4byte	0x275f
 6559 2758 39       		.uleb128 0x39
 6560 2759 01       		.uleb128 0x1
 6561 275a 51       		.byte	0x51
 6562 275b 02       		.uleb128 0x2
 6563 275c 76       		.byte	0x76
 6564 275d 00       		.sleb128 0
 6565 275e 00       		.byte	0
 6566 275f 3A       		.uleb128 0x3a
 6567 2760 42000000 		.4byte	.LVL79
 6568 2764 4E330000 		.4byte	0x334e
 6569 2768 39       		.uleb128 0x39
 6570 2769 01       		.uleb128 0x1
 6571 276a 50       		.byte	0x50
 6572 276b 02       		.uleb128 0x2
 6573 276c 75       		.byte	0x75
 6574 276d 00       		.sleb128 0
 6575 276e 00       		.byte	0
 6576 276f 00       		.byte	0
 6577 2770 3B       		.uleb128 0x3b
 6578 2771 83030000 		.4byte	.LASF634
 6579 2775 01       		.byte	0x1
 6580 2776 AF       		.byte	0xaf
 6581 2777 CE000000 		.4byte	0xce
 6582 277b 00000000 		.4byte	.LFB206
 6583 277f 04000000 		.4byte	.LFE206-.LFB206
 6584 2783 01       		.uleb128 0x1
 6585 2784 9C       		.byte	0x9c
 6586 2785 A8270000 		.4byte	0x27a8
 6587 2789 35       		.uleb128 0x35
 6588 278a 6F626A00 		.ascii	"obj\000"
 6589 278e 01       		.byte	0x1
 6590 278f AF       		.byte	0xaf
 6591 2790 82200000 		.4byte	0x2082
 6592 2794 D1030000 		.4byte	.LLST18
 6593 2798 36       		.uleb128 0x36
 6594 2799 78120000 		.4byte	.LASF626
 6595 279d 01       		.byte	0x1
 6596 279e B2       		.byte	0xb2
 6597 279f 21230000 		.4byte	0x2321
 6598 27a3 F2030000 		.4byte	.LLST19
 6599 27a7 00       		.byte	0
 6600 27a8 3B       		.uleb128 0x3b
 6601 27a9 8E120000 		.4byte	.LASF635
 6602 27ad 01       		.byte	0x1
 6603 27ae B6       		.byte	0xb6
 6604 27af 82200000 		.4byte	0x2082
 6605 27b3 00000000 		.4byte	.LFB207
 6606 27b7 0A000000 		.4byte	.LFE207-.LFB207
 6607 27bb 01       		.uleb128 0x1
 6608 27bc 9C       		.byte	0x9c
 6609 27bd E6270000 		.4byte	0x27e6
 6610 27c1 35       		.uleb128 0x35
 6611 27c2 747600   		.ascii	"tv\000"
 6612 27c5 01       		.byte	0x1
 6613 27c6 B6       		.byte	0xb6
ARM GAS  C:\Users\haske\AppData\Local\Temp\cc65HANE.s 			page 139


 6614 27c7 82200000 		.4byte	0x2082
 6615 27cb 13040000 		.4byte	.LLST20
 6616 27cf 3A       		.uleb128 0x3a
 6617 27d0 08000000 		.4byte	.LVL85
 6618 27d4 5A330000 		.4byte	0x335a
 6619 27d8 39       		.uleb128 0x39
 6620 27d9 01       		.uleb128 0x1
 6621 27da 50       		.byte	0x50
 6622 27db 03       		.uleb128 0x3
 6623 27dc F3       		.byte	0xf3
 6624 27dd 01       		.uleb128 0x1
 6625 27de 50       		.byte	0x50
 6626 27df 39       		.uleb128 0x39
 6627 27e0 01       		.uleb128 0x1
 6628 27e1 51       		.byte	0x51
 6629 27e2 01       		.uleb128 0x1
 6630 27e3 31       		.byte	0x31
 6631 27e4 00       		.byte	0
 6632 27e5 00       		.byte	0
 6633 27e6 3B       		.uleb128 0x3b
 6634 27e7 99270000 		.4byte	.LASF636
 6635 27eb 01       		.byte	0x1
 6636 27ec BB       		.byte	0xbb
 6637 27ed 82200000 		.4byte	0x2082
 6638 27f1 00000000 		.4byte	.LFB208
 6639 27f5 0A000000 		.4byte	.LFE208-.LFB208
 6640 27f9 01       		.uleb128 0x1
 6641 27fa 9C       		.byte	0x9c
 6642 27fb 24280000 		.4byte	0x2824
 6643 27ff 35       		.uleb128 0x35
 6644 2800 747600   		.ascii	"tv\000"
 6645 2803 01       		.byte	0x1
 6646 2804 BB       		.byte	0xbb
 6647 2805 82200000 		.4byte	0x2082
 6648 2809 34040000 		.4byte	.LLST21
 6649 280d 3A       		.uleb128 0x3a
 6650 280e 08000000 		.4byte	.LVL87
 6651 2812 5A330000 		.4byte	0x335a
 6652 2816 39       		.uleb128 0x39
 6653 2817 01       		.uleb128 0x1
 6654 2818 50       		.byte	0x50
 6655 2819 03       		.uleb128 0x3
 6656 281a F3       		.byte	0xf3
 6657 281b 01       		.uleb128 0x1
 6658 281c 50       		.byte	0x50
 6659 281d 39       		.uleb128 0x39
 6660 281e 01       		.uleb128 0x1
 6661 281f 51       		.byte	0x51
 6662 2820 01       		.uleb128 0x1
 6663 2821 30       		.byte	0x30
 6664 2822 00       		.byte	0
 6665 2823 00       		.byte	0
 6666 2824 3C       		.uleb128 0x3c
 6667 2825 702C0000 		.4byte	.LASF638
 6668 2829 01       		.byte	0x1
 6669 282a 8A       		.byte	0x8a
 6670 282b 00000000 		.4byte	.LFB205
ARM GAS  C:\Users\haske\AppData\Local\Temp\cc65HANE.s 			page 140


 6671 282f B2000000 		.4byte	.LFE205-.LFB205
 6672 2833 01       		.uleb128 0x1
 6673 2834 9C       		.byte	0x9c
 6674 2835 C22A0000 		.4byte	0x2ac2
 6675 2839 35       		.uleb128 0x35
 6676 283a 6F626A00 		.ascii	"obj\000"
 6677 283e 01       		.byte	0x1
 6678 283f 8A       		.byte	0x8a
 6679 2840 82200000 		.4byte	0x2082
 6680 2844 55040000 		.4byte	.LLST22
 6681 2848 35       		.uleb128 0x35
 6682 2849 696400   		.ascii	"id\000"
 6683 284c 01       		.byte	0x1
 6684 284d 8A       		.byte	0x8a
 6685 284e E4000000 		.4byte	0xe4
 6686 2852 81040000 		.4byte	.LLST23
 6687 2856 34       		.uleb128 0x34
 6688 2857 A7100000 		.4byte	.LASF639
 6689 285b 01       		.byte	0x1
 6690 285c 8A       		.byte	0x8a
 6691 285d E4010000 		.4byte	0x1e4
 6692 2861 9F040000 		.4byte	.LLST24
 6693 2865 36       		.uleb128 0x36
 6694 2866 78120000 		.4byte	.LASF626
 6695 286a 01       		.byte	0x1
 6696 286b 8D       		.byte	0x8d
 6697 286c 21230000 		.4byte	0x2321
 6698 2870 C0040000 		.4byte	.LLST25
 6699 2874 36       		.uleb128 0x36
 6700 2875 77190000 		.4byte	.LASF630
 6701 2879 01       		.byte	0x1
 6702 287a 96       		.byte	0x96
 6703 287b 82200000 		.4byte	0x2082
 6704 287f EC040000 		.4byte	.LLST26
 6705 2883 36       		.uleb128 0x36
 6706 2884 FE1A0000 		.4byte	.LASF640
 6707 2888 01       		.byte	0x1
 6708 2889 AA       		.byte	0xaa
 6709 288a 82200000 		.4byte	0x2082
 6710 288e 20050000 		.4byte	.LLST27
 6711 2892 3D       		.uleb128 0x3d
 6712 2893 30000000 		.4byte	.LBB20
 6713 2897 4A000000 		.4byte	.LBE20-.LBB20
 6714 289b CE290000 		.4byte	0x29ce
 6715 289f 2C       		.uleb128 0x2c
 6716 28a0 67617000 		.ascii	"gap\000"
 6717 28a4 01       		.byte	0x1
 6718 28a5 9A       		.byte	0x9a
 6719 28a6 EF010000 		.4byte	0x1ef
 6720 28aa 37       		.uleb128 0x37
 6721 28ab 7700     		.ascii	"w\000"
 6722 28ad 01       		.byte	0x1
 6723 28ae 9B       		.byte	0x9b
 6724 28af EF010000 		.4byte	0x1ef
 6725 28b3 33050000 		.4byte	.LLST28
 6726 28b7 3E       		.uleb128 0x3e
 6727 28b8 0B220000 		.4byte	0x220b
ARM GAS  C:\Users\haske\AppData\Local\Temp\cc65HANE.s 			page 141


 6728 28bc 30000000 		.4byte	.LBB21
 6729 28c0 0C000000 		.4byte	.LBE21-.LBB21
 6730 28c4 01       		.byte	0x1
 6731 28c5 9A       		.byte	0x9a
 6732 28c6 06290000 		.4byte	0x2906
 6733 28ca 3F       		.uleb128 0x3f
 6734 28cb 26220000 		.4byte	0x2226
 6735 28cf 46050000 		.4byte	.LLST29
 6736 28d3 3F       		.uleb128 0x3f
 6737 28d4 1B220000 		.4byte	0x221b
 6738 28d8 5A050000 		.4byte	.LLST30
 6739 28dc 40       		.uleb128 0x40
 6740 28dd 30000000 		.4byte	.LBB22
 6741 28e1 0C000000 		.4byte	.LBE22-.LBB22
 6742 28e5 41       		.uleb128 0x41
 6743 28e6 31220000 		.4byte	0x2231
 6744 28ea 3A       		.uleb128 0x3a
 6745 28eb 38000000 		.4byte	.LVL96
 6746 28ef 65330000 		.4byte	0x3365
 6747 28f3 39       		.uleb128 0x39
 6748 28f4 01       		.uleb128 0x1
 6749 28f5 50       		.byte	0x50
 6750 28f6 02       		.uleb128 0x2
 6751 28f7 76       		.byte	0x76
 6752 28f8 00       		.sleb128 0
 6753 28f9 39       		.uleb128 0x39
 6754 28fa 01       		.uleb128 0x1
 6755 28fb 51       		.byte	0x51
 6756 28fc 01       		.uleb128 0x1
 6757 28fd 30       		.byte	0x30
 6758 28fe 39       		.uleb128 0x39
 6759 28ff 01       		.uleb128 0x1
 6760 2900 52       		.byte	0x52
 6761 2901 01       		.uleb128 0x1
 6762 2902 45       		.byte	0x45
 6763 2903 00       		.byte	0
 6764 2904 00       		.byte	0
 6765 2905 00       		.byte	0
 6766 2906 3E       		.uleb128 0x3e
 6767 2907 CC210000 		.4byte	0x21cc
 6768 290b 44000000 		.4byte	.LBB23
 6769 290f 0C000000 		.4byte	.LBE23-.LBB23
 6770 2913 01       		.byte	0x1
 6771 2914 9C       		.byte	0x9c
 6772 2915 55290000 		.4byte	0x2955
 6773 2919 3F       		.uleb128 0x3f
 6774 291a E9210000 		.4byte	0x21e9
 6775 291e 78050000 		.4byte	.LLST31
 6776 2922 3F       		.uleb128 0x3f
 6777 2923 DD210000 		.4byte	0x21dd
 6778 2927 8C050000 		.4byte	.LLST32
 6779 292b 40       		.uleb128 0x40
 6780 292c 44000000 		.4byte	.LBB24
 6781 2930 0C000000 		.4byte	.LBE24-.LBB24
 6782 2934 41       		.uleb128 0x41
 6783 2935 F5210000 		.4byte	0x21f5
 6784 2939 3A       		.uleb128 0x3a
ARM GAS  C:\Users\haske\AppData\Local\Temp\cc65HANE.s 			page 142


 6785 293a 4E000000 		.4byte	.LVL100
 6786 293e 65330000 		.4byte	0x3365
 6787 2942 39       		.uleb128 0x39
 6788 2943 01       		.uleb128 0x1
 6789 2944 50       		.byte	0x50
 6790 2945 02       		.uleb128 0x2
 6791 2946 74       		.byte	0x74
 6792 2947 00       		.sleb128 0
 6793 2948 39       		.uleb128 0x39
 6794 2949 01       		.uleb128 0x1
 6795 294a 51       		.byte	0x51
 6796 294b 01       		.uleb128 0x1
 6797 294c 30       		.byte	0x30
 6798 294d 39       		.uleb128 0x39
 6799 294e 01       		.uleb128 0x1
 6800 294f 52       		.byte	0x52
 6801 2950 01       		.uleb128 0x1
 6802 2951 46       		.byte	0x46
 6803 2952 00       		.byte	0
 6804 2953 00       		.byte	0
 6805 2954 00       		.byte	0
 6806 2955 3D       		.uleb128 0x3d
 6807 2956 66000000 		.4byte	.LBB25
 6808 295a 14000000 		.4byte	.LBE25-.LBB25
 6809 295e 95290000 		.4byte	0x2995
 6810 2962 42       		.uleb128 0x42
 6811 2963 EE080000 		.4byte	.LASF641
 6812 2967 01       		.byte	0x1
 6813 2968 A0       		.byte	0xa0
 6814 2969 D9000000 		.4byte	0xd9
 6815 296d 01       		.uleb128 0x1
 6816 296e 50       		.byte	0x50
 6817 296f 3A       		.uleb128 0x3a
 6818 2970 78000000 		.4byte	.LVL103
 6819 2974 70330000 		.4byte	0x3370
 6820 2978 39       		.uleb128 0x39
 6821 2979 01       		.uleb128 0x1
 6822 297a 50       		.byte	0x50
 6823 297b 02       		.uleb128 0x2
 6824 297c 76       		.byte	0x76
 6825 297d 00       		.sleb128 0
 6826 297e 39       		.uleb128 0x39
 6827 297f 01       		.uleb128 0x1
 6828 2980 51       		.byte	0x51
 6829 2981 09       		.uleb128 0x9
 6830 2982 77       		.byte	0x77
 6831 2983 00       		.sleb128 0
 6832 2984 1F       		.byte	0x1f
 6833 2985 79       		.byte	0x79
 6834 2986 00       		.sleb128 0
 6835 2987 1C       		.byte	0x1c
 6836 2988 75       		.byte	0x75
 6837 2989 00       		.sleb128 0
 6838 298a 1E       		.byte	0x1e
 6839 298b 39       		.uleb128 0x39
 6840 298c 01       		.uleb128 0x1
 6841 298d 52       		.byte	0x52
ARM GAS  C:\Users\haske\AppData\Local\Temp\cc65HANE.s 			page 143


 6842 298e 04       		.uleb128 0x4
 6843 298f 91       		.byte	0x91
 6844 2990 64       		.sleb128 -28
 6845 2991 94       		.byte	0x94
 6846 2992 01       		.byte	0x1
 6847 2993 00       		.byte	0
 6848 2994 00       		.byte	0
 6849 2995 38       		.uleb128 0x38
 6850 2996 42000000 		.4byte	.LVL98
 6851 299a 7B330000 		.4byte	0x337b
 6852 299e A9290000 		.4byte	0x29a9
 6853 29a2 39       		.uleb128 0x39
 6854 29a3 01       		.uleb128 0x1
 6855 29a4 50       		.byte	0x50
 6856 29a5 02       		.uleb128 0x2
 6857 29a6 76       		.byte	0x76
 6858 29a7 00       		.sleb128 0
 6859 29a8 00       		.byte	0
 6860 29a9 3A       		.uleb128 0x3a
 6861 29aa 64000000 		.4byte	.LVL102
 6862 29ae 70330000 		.4byte	0x3370
 6863 29b2 39       		.uleb128 0x39
 6864 29b3 01       		.uleb128 0x1
 6865 29b4 50       		.byte	0x50
 6866 29b5 02       		.uleb128 0x2
 6867 29b6 76       		.byte	0x76
 6868 29b7 00       		.sleb128 0
 6869 29b8 39       		.uleb128 0x39
 6870 29b9 01       		.uleb128 0x1
 6871 29ba 51       		.byte	0x51
 6872 29bb 08       		.uleb128 0x8
 6873 29bc 77       		.byte	0x77
 6874 29bd 00       		.sleb128 0
 6875 29be 79       		.byte	0x79
 6876 29bf 00       		.sleb128 0
 6877 29c0 22       		.byte	0x22
 6878 29c1 75       		.byte	0x75
 6879 29c2 00       		.sleb128 0
 6880 29c3 1E       		.byte	0x1e
 6881 29c4 39       		.uleb128 0x39
 6882 29c5 01       		.uleb128 0x1
 6883 29c6 52       		.byte	0x52
 6884 29c7 04       		.uleb128 0x4
 6885 29c8 91       		.byte	0x91
 6886 29c9 64       		.sleb128 -28
 6887 29ca 94       		.byte	0x94
 6888 29cb 01       		.byte	0x1
 6889 29cc 00       		.byte	0
 6890 29cd 00       		.byte	0
 6891 29ce 3D       		.uleb128 0x3d
 6892 29cf 7A000000 		.4byte	.LBB26
 6893 29d3 1E000000 		.4byte	.LBE26-.LBB26
 6894 29d7 6F2A0000 		.4byte	0x2a6f
 6895 29db 2C       		.uleb128 0x2c
 6896 29dc 67617000 		.ascii	"gap\000"
 6897 29e0 01       		.byte	0x1
 6898 29e1 A5       		.byte	0xa5
ARM GAS  C:\Users\haske\AppData\Local\Temp\cc65HANE.s 			page 144


 6899 29e2 EF010000 		.4byte	0x1ef
 6900 29e6 37       		.uleb128 0x37
 6901 29e7 6800     		.ascii	"h\000"
 6902 29e9 01       		.byte	0x1
 6903 29ea A6       		.byte	0xa6
 6904 29eb EF010000 		.4byte	0x1ef
 6905 29ef 9F050000 		.4byte	.LLST33
 6906 29f3 3E       		.uleb128 0x3e
 6907 29f4 3B220000 		.4byte	0x223b
 6908 29f8 7A000000 		.4byte	.LBB27
 6909 29fc 0A000000 		.4byte	.LBE27-.LBB27
 6910 2a00 01       		.byte	0x1
 6911 2a01 A5       		.byte	0xa5
 6912 2a02 422A0000 		.4byte	0x2a42
 6913 2a06 3F       		.uleb128 0x3f
 6914 2a07 56220000 		.4byte	0x2256
 6915 2a0b B2050000 		.4byte	.LLST34
 6916 2a0f 3F       		.uleb128 0x3f
 6917 2a10 4B220000 		.4byte	0x224b
 6918 2a14 C6050000 		.4byte	.LLST35
 6919 2a18 40       		.uleb128 0x40
 6920 2a19 7A000000 		.4byte	.LBB28
 6921 2a1d 0A000000 		.4byte	.LBE28-.LBB28
 6922 2a21 41       		.uleb128 0x41
 6923 2a22 61220000 		.4byte	0x2261
 6924 2a26 3A       		.uleb128 0x3a
 6925 2a27 82000000 		.4byte	.LVL105
 6926 2a2b 65330000 		.4byte	0x3365
 6927 2a2f 39       		.uleb128 0x39
 6928 2a30 01       		.uleb128 0x1
 6929 2a31 50       		.byte	0x50
 6930 2a32 02       		.uleb128 0x2
 6931 2a33 76       		.byte	0x76
 6932 2a34 00       		.sleb128 0
 6933 2a35 39       		.uleb128 0x39
 6934 2a36 01       		.uleb128 0x1
 6935 2a37 51       		.byte	0x51
 6936 2a38 01       		.uleb128 0x1
 6937 2a39 30       		.byte	0x30
 6938 2a3a 39       		.uleb128 0x39
 6939 2a3b 01       		.uleb128 0x1
 6940 2a3c 52       		.byte	0x52
 6941 2a3d 01       		.uleb128 0x1
 6942 2a3e 44       		.byte	0x44
 6943 2a3f 00       		.byte	0
 6944 2a40 00       		.byte	0
 6945 2a41 00       		.byte	0
 6946 2a42 38       		.uleb128 0x38
 6947 2a43 8A000000 		.4byte	.LVL107
 6948 2a47 87330000 		.4byte	0x3387
 6949 2a4b 562A0000 		.4byte	0x2a56
 6950 2a4f 39       		.uleb128 0x39
 6951 2a50 01       		.uleb128 0x1
 6952 2a51 50       		.byte	0x50
 6953 2a52 02       		.uleb128 0x2
 6954 2a53 76       		.byte	0x76
 6955 2a54 00       		.sleb128 0
ARM GAS  C:\Users\haske\AppData\Local\Temp\cc65HANE.s 			page 145


 6956 2a55 00       		.byte	0
 6957 2a56 3A       		.uleb128 0x3a
 6958 2a57 98000000 		.4byte	.LVL109
 6959 2a5b 93330000 		.4byte	0x3393
 6960 2a5f 39       		.uleb128 0x39
 6961 2a60 01       		.uleb128 0x1
 6962 2a61 50       		.byte	0x50
 6963 2a62 02       		.uleb128 0x2
 6964 2a63 76       		.byte	0x76
 6965 2a64 00       		.sleb128 0
 6966 2a65 39       		.uleb128 0x39
 6967 2a66 01       		.uleb128 0x1
 6968 2a67 52       		.byte	0x52
 6969 2a68 04       		.uleb128 0x4
 6970 2a69 91       		.byte	0x91
 6971 2a6a 64       		.sleb128 -28
 6972 2a6b 94       		.byte	0x94
 6973 2a6c 01       		.byte	0x1
 6974 2a6d 00       		.byte	0
 6975 2a6e 00       		.byte	0
 6976 2a6f 38       		.uleb128 0x38
 6977 2a70 1C000000 		.4byte	.LVL92
 6978 2a74 9E330000 		.4byte	0x339e
 6979 2a78 832A0000 		.4byte	0x2a83
 6980 2a7c 39       		.uleb128 0x39
 6981 2a7d 01       		.uleb128 0x1
 6982 2a7e 50       		.byte	0x50
 6983 2a7f 02       		.uleb128 0x2
 6984 2a80 74       		.byte	0x74
 6985 2a81 00       		.sleb128 0
 6986 2a82 00       		.byte	0
 6987 2a83 38       		.uleb128 0x38
 6988 2a84 22000000 		.4byte	.LVL93
 6989 2a88 A8270000 		.4byte	0x27a8
 6990 2a8c 972A0000 		.4byte	0x2a97
 6991 2a90 39       		.uleb128 0x39
 6992 2a91 01       		.uleb128 0x1
 6993 2a92 50       		.byte	0x50
 6994 2a93 02       		.uleb128 0x2
 6995 2a94 74       		.byte	0x74
 6996 2a95 00       		.sleb128 0
 6997 2a96 00       		.byte	0
 6998 2a97 38       		.uleb128 0x38
 6999 2a98 9E000000 		.4byte	.LVL110
 7000 2a9c E6270000 		.4byte	0x27e6
 7001 2aa0 AB2A0000 		.4byte	0x2aab
 7002 2aa4 39       		.uleb128 0x39
 7003 2aa5 01       		.uleb128 0x1
 7004 2aa6 50       		.byte	0x50
 7005 2aa7 02       		.uleb128 0x2
 7006 2aa8 74       		.byte	0x74
 7007 2aa9 00       		.sleb128 0
 7008 2aaa 00       		.byte	0
 7009 2aab 3A       		.uleb128 0x3a
 7010 2aac A8000000 		.4byte	.LVL112
 7011 2ab0 A9330000 		.4byte	0x33a9
 7012 2ab4 39       		.uleb128 0x39
ARM GAS  C:\Users\haske\AppData\Local\Temp\cc65HANE.s 			page 146


 7013 2ab5 01       		.uleb128 0x1
 7014 2ab6 51       		.byte	0x51
 7015 2ab7 02       		.uleb128 0x2
 7016 2ab8 75       		.byte	0x75
 7017 2ab9 00       		.sleb128 0
 7018 2aba 39       		.uleb128 0x39
 7019 2abb 01       		.uleb128 0x1
 7020 2abc 52       		.byte	0x52
 7021 2abd 02       		.uleb128 0x2
 7022 2abe 08       		.byte	0x8
 7023 2abf 80       		.byte	0x80
 7024 2ac0 00       		.byte	0
 7025 2ac1 00       		.byte	0
 7026 2ac2 2D       		.uleb128 0x2d
 7027 2ac3 6E240000 		.4byte	.LASF642
 7028 2ac7 01       		.byte	0x1
 7029 2ac8 2201     		.2byte	0x122
 7030 2aca 00000000 		.4byte	.LFB211
 7031 2ace 38000000 		.4byte	.LFE211-.LFB211
 7032 2ad2 01       		.uleb128 0x1
 7033 2ad3 9C       		.byte	0x9c
 7034 2ad4 952B0000 		.4byte	0x2b95
 7035 2ad8 2E       		.uleb128 0x2e
 7036 2ad9 A61C0000 		.4byte	.LASF200
 7037 2add 01       		.byte	0x1
 7038 2ade 2201     		.2byte	0x122
 7039 2ae0 3F200000 		.4byte	0x203f
 7040 2ae4 E4050000 		.4byte	.LLST36
 7041 2ae8 2F       		.uleb128 0x2f
 7042 2ae9 6500     		.ascii	"e\000"
 7043 2aeb 01       		.byte	0x1
 7044 2aec 2201     		.2byte	0x122
 7045 2aee 1E1F0000 		.4byte	0x1f1e
 7046 2af2 05060000 		.4byte	.LLST37
 7047 2af6 31       		.uleb128 0x31
 7048 2af7 72657300 		.ascii	"res\000"
 7049 2afb 01       		.byte	0x1
 7050 2afc 2501     		.2byte	0x125
 7051 2afe 08010000 		.4byte	0x108
 7052 2b02 31060000 		.4byte	.LLST38
 7053 2b06 30       		.uleb128 0x30
 7054 2b07 16110000 		.4byte	.LASF513
 7055 2b0b 01       		.byte	0x1
 7056 2b0c 2801     		.2byte	0x128
 7057 2b0e 081F0000 		.4byte	0x1f08
 7058 2b12 44060000 		.4byte	.LLST39
 7059 2b16 30       		.uleb128 0x30
 7060 2b17 BC0B0000 		.4byte	.LASF511
 7061 2b1b 01       		.byte	0x1
 7062 2b1c 2901     		.2byte	0x129
 7063 2b1e 82200000 		.4byte	0x2082
 7064 2b22 57060000 		.4byte	.LLST40
 7065 2b26 38       		.uleb128 0x38
 7066 2b27 0A000000 		.4byte	.LVL117
 7067 2b2b B4330000 		.4byte	0x33b4
 7068 2b2f 432B0000 		.4byte	0x2b43
 7069 2b33 39       		.uleb128 0x39
ARM GAS  C:\Users\haske\AppData\Local\Temp\cc65HANE.s 			page 147


 7070 2b34 01       		.uleb128 0x1
 7071 2b35 50       		.byte	0x50
 7072 2b36 05       		.uleb128 0x5
 7073 2b37 03       		.byte	0x3
 7074 2b38 00000000 		.4byte	.LANCHOR1
 7075 2b3c 39       		.uleb128 0x39
 7076 2b3d 01       		.uleb128 0x1
 7077 2b3e 51       		.byte	0x51
 7078 2b3f 02       		.uleb128 0x2
 7079 2b40 74       		.byte	0x74
 7080 2b41 00       		.sleb128 0
 7081 2b42 00       		.byte	0
 7082 2b43 38       		.uleb128 0x38
 7083 2b44 14000000 		.4byte	.LVL119
 7084 2b48 BF330000 		.4byte	0x33bf
 7085 2b4c 572B0000 		.4byte	0x2b57
 7086 2b50 39       		.uleb128 0x39
 7087 2b51 01       		.uleb128 0x1
 7088 2b52 50       		.byte	0x50
 7089 2b53 02       		.uleb128 0x2
 7090 2b54 74       		.byte	0x74
 7091 2b55 00       		.sleb128 0
 7092 2b56 00       		.byte	0
 7093 2b57 38       		.uleb128 0x38
 7094 2b58 1C000000 		.4byte	.LVL121
 7095 2b5c CA330000 		.4byte	0x33ca
 7096 2b60 6B2B0000 		.4byte	0x2b6b
 7097 2b64 39       		.uleb128 0x39
 7098 2b65 01       		.uleb128 0x1
 7099 2b66 50       		.byte	0x50
 7100 2b67 02       		.uleb128 0x2
 7101 2b68 74       		.byte	0x74
 7102 2b69 00       		.sleb128 0
 7103 2b6a 00       		.byte	0
 7104 2b6b 38       		.uleb128 0x38
 7105 2b6c 26000000 		.4byte	.LVL123
 7106 2b70 70270000 		.4byte	0x2770
 7107 2b74 7F2B0000 		.4byte	0x2b7f
 7108 2b78 39       		.uleb128 0x39
 7109 2b79 01       		.uleb128 0x1
 7110 2b7a 50       		.byte	0x50
 7111 2b7b 02       		.uleb128 0x2
 7112 2b7c 74       		.byte	0x74
 7113 2b7d 00       		.sleb128 0
 7114 2b7e 00       		.byte	0
 7115 2b7f 3A       		.uleb128 0x3a
 7116 2b80 30000000 		.4byte	.LVL124
 7117 2b84 24280000 		.4byte	0x2824
 7118 2b88 39       		.uleb128 0x39
 7119 2b89 01       		.uleb128 0x1
 7120 2b8a 50       		.byte	0x50
 7121 2b8b 02       		.uleb128 0x2
 7122 2b8c 74       		.byte	0x74
 7123 2b8d 00       		.sleb128 0
 7124 2b8e 39       		.uleb128 0x39
 7125 2b8f 01       		.uleb128 0x1
 7126 2b90 52       		.byte	0x52
ARM GAS  C:\Users\haske\AppData\Local\Temp\cc65HANE.s 			page 148


 7127 2b91 01       		.uleb128 0x1
 7128 2b92 30       		.byte	0x30
 7129 2b93 00       		.byte	0
 7130 2b94 00       		.byte	0
 7131 2b95 43       		.uleb128 0x43
 7132 2b96 51230000 		.4byte	.LASF643
 7133 2b9a 01       		.byte	0x1
 7134 2b9b 3A01     		.2byte	0x13a
 7135 2b9d 00000000 		.4byte	.LFB213
 7136 2ba1 F0000000 		.4byte	.LFE213-.LFB213
 7137 2ba5 01       		.uleb128 0x1
 7138 2ba6 9C       		.byte	0x9c
 7139 2ba7 BF2D0000 		.4byte	0x2dbf
 7140 2bab 2F       		.uleb128 0x2f
 7141 2bac 6500     		.ascii	"e\000"
 7142 2bae 01       		.byte	0x1
 7143 2baf 3A01     		.2byte	0x13a
 7144 2bb1 1E1F0000 		.4byte	0x1f1e
 7145 2bb5 75060000 		.4byte	.LLST41
 7146 2bb9 30       		.uleb128 0x30
 7147 2bba 77190000 		.4byte	.LASF630
 7148 2bbe 01       		.byte	0x1
 7149 2bbf 3C01     		.2byte	0x13c
 7150 2bc1 82200000 		.4byte	0x2082
 7151 2bc5 A1060000 		.4byte	.LLST42
 7152 2bc9 30       		.uleb128 0x30
 7153 2bca 16110000 		.4byte	.LASF513
 7154 2bce 01       		.byte	0x1
 7155 2bcf 3D01     		.2byte	0x13d
 7156 2bd1 081F0000 		.4byte	0x1f08
 7157 2bd5 CA060000 		.4byte	.LLST43
 7158 2bd9 31       		.uleb128 0x31
 7159 2bda 747600   		.ascii	"tv\000"
 7160 2bdd 01       		.byte	0x1
 7161 2bde 3F01     		.2byte	0x13f
 7162 2be0 82200000 		.4byte	0x2082
 7163 2be4 F3060000 		.4byte	.LLST44
 7164 2be8 30       		.uleb128 0x30
 7165 2be9 0F110000 		.4byte	.LASF644
 7166 2bed 01       		.byte	0x1
 7167 2bee 4001     		.2byte	0x140
 7168 2bf0 21230000 		.4byte	0x2321
 7169 2bf4 F3060000 		.4byte	.LLST44
 7170 2bf8 3D       		.uleb128 0x3d
 7171 2bf9 34000000 		.4byte	.LBB29
 7172 2bfd B8000000 		.4byte	.LBE29-.LBB29
 7173 2c01 592D0000 		.4byte	0x2d59
 7174 2c05 30       		.uleb128 0x30
 7175 2c06 51070000 		.4byte	.LASF645
 7176 2c0a 01       		.byte	0x1
 7177 2c0b 4501     		.2byte	0x145
 7178 2c0d BF2D0000 		.4byte	0x2dbf
 7179 2c11 27070000 		.4byte	.LLST46
 7180 2c15 44       		.uleb128 0x44
 7181 2c16 7000     		.ascii	"p\000"
 7182 2c18 01       		.byte	0x1
 7183 2c19 4A01     		.2byte	0x14a
ARM GAS  C:\Users\haske\AppData\Local\Temp\cc65HANE.s 			page 149


 7184 2c1b 17020000 		.4byte	0x217
 7185 2c1f 02       		.uleb128 0x2
 7186 2c20 91       		.byte	0x91
 7187 2c21 6C       		.sleb128 -20
 7188 2c22 31       		.uleb128 0x31
 7189 2c23 7400     		.ascii	"t\000"
 7190 2c25 01       		.byte	0x1
 7191 2c26 4D01     		.2byte	0x14d
 7192 2c28 EF010000 		.4byte	0x1ef
 7193 2c2c 3A070000 		.4byte	.LLST47
 7194 2c30 30       		.uleb128 0x30
 7195 2c31 32000000 		.4byte	.LASF646
 7196 2c35 01       		.byte	0x1
 7197 2c36 5901     		.2byte	0x159
 7198 2c38 D5030000 		.4byte	0x3d5
 7199 2c3c 63070000 		.4byte	.LLST48
 7200 2c40 3D       		.uleb128 0x3d
 7201 2c41 54000000 		.4byte	.LBB30
 7202 2c45 4C000000 		.4byte	.LBE30-.LBB30
 7203 2c49 BC2C0000 		.4byte	0x2cbc
 7204 2c4d 31       		.uleb128 0x31
 7205 2c4e 7700     		.ascii	"w\000"
 7206 2c50 01       		.byte	0x1
 7207 2c51 4F01     		.2byte	0x14f
 7208 2c53 EF010000 		.4byte	0x1ef
 7209 2c57 82070000 		.4byte	.LLST49
 7210 2c5b 45       		.uleb128 0x45
 7211 2c5c CC210000 		.4byte	0x21cc
 7212 2c60 5C000000 		.4byte	.LBB31
 7213 2c64 0C000000 		.4byte	.LBE31-.LBB31
 7214 2c68 01       		.byte	0x1
 7215 2c69 5001     		.2byte	0x150
 7216 2c6b AB2C0000 		.4byte	0x2cab
 7217 2c6f 3F       		.uleb128 0x3f
 7218 2c70 E9210000 		.4byte	0x21e9
 7219 2c74 A0070000 		.4byte	.LLST50
 7220 2c78 3F       		.uleb128 0x3f
 7221 2c79 DD210000 		.4byte	0x21dd
 7222 2c7d B4070000 		.4byte	.LLST51
 7223 2c81 40       		.uleb128 0x40
 7224 2c82 5C000000 		.4byte	.LBB32
 7225 2c86 0C000000 		.4byte	.LBE32-.LBB32
 7226 2c8a 41       		.uleb128 0x41
 7227 2c8b F5210000 		.4byte	0x21f5
 7228 2c8f 3A       		.uleb128 0x3a
 7229 2c90 66000000 		.4byte	.LVL142
 7230 2c94 65330000 		.4byte	0x3365
 7231 2c98 39       		.uleb128 0x39
 7232 2c99 01       		.uleb128 0x1
 7233 2c9a 50       		.byte	0x50
 7234 2c9b 02       		.uleb128 0x2
 7235 2c9c 76       		.byte	0x76
 7236 2c9d 00       		.sleb128 0
 7237 2c9e 39       		.uleb128 0x39
 7238 2c9f 01       		.uleb128 0x1
 7239 2ca0 51       		.byte	0x51
 7240 2ca1 01       		.uleb128 0x1
ARM GAS  C:\Users\haske\AppData\Local\Temp\cc65HANE.s 			page 150


 7241 2ca2 30       		.byte	0x30
 7242 2ca3 39       		.uleb128 0x39
 7243 2ca4 01       		.uleb128 0x1
 7244 2ca5 52       		.byte	0x52
 7245 2ca6 01       		.uleb128 0x1
 7246 2ca7 46       		.byte	0x46
 7247 2ca8 00       		.byte	0
 7248 2ca9 00       		.byte	0
 7249 2caa 00       		.byte	0
 7250 2cab 3A       		.uleb128 0x3a
 7251 2cac 5A000000 		.4byte	.LVL140
 7252 2cb0 7B330000 		.4byte	0x337b
 7253 2cb4 39       		.uleb128 0x39
 7254 2cb5 01       		.uleb128 0x1
 7255 2cb6 50       		.byte	0x50
 7256 2cb7 02       		.uleb128 0x2
 7257 2cb8 75       		.byte	0x75
 7258 2cb9 00       		.sleb128 0
 7259 2cba 00       		.byte	0
 7260 2cbb 00       		.byte	0
 7261 2cbc 3D       		.uleb128 0x3d
 7262 2cbd A0000000 		.4byte	.LBB33
 7263 2cc1 1E000000 		.4byte	.LBE33-.LBB33
 7264 2cc5 E82C0000 		.4byte	0x2ce8
 7265 2cc9 31       		.uleb128 0x31
 7266 2cca 6800     		.ascii	"h\000"
 7267 2ccc 01       		.byte	0x1
 7268 2ccd 5401     		.2byte	0x154
 7269 2ccf EF010000 		.4byte	0x1ef
 7270 2cd3 C7070000 		.4byte	.LLST52
 7271 2cd7 3A       		.uleb128 0x3a
 7272 2cd8 A6000000 		.4byte	.LVL150
 7273 2cdc 87330000 		.4byte	0x3387
 7274 2ce0 39       		.uleb128 0x39
 7275 2ce1 01       		.uleb128 0x1
 7276 2ce2 50       		.byte	0x50
 7277 2ce3 02       		.uleb128 0x2
 7278 2ce4 75       		.byte	0x75
 7279 2ce5 00       		.sleb128 0
 7280 2ce6 00       		.byte	0
 7281 2ce7 00       		.byte	0
 7282 2ce8 32       		.uleb128 0x32
 7283 2ce9 38000000 		.4byte	.LVL137
 7284 2ced D5330000 		.4byte	0x33d5
 7285 2cf1 38       		.uleb128 0x38
 7286 2cf2 4A000000 		.4byte	.LVL139
 7287 2cf6 E0330000 		.4byte	0x33e0
 7288 2cfa 0B2D0000 		.4byte	0x2d0b
 7289 2cfe 39       		.uleb128 0x39
 7290 2cff 01       		.uleb128 0x1
 7291 2d00 50       		.byte	0x50
 7292 2d01 02       		.uleb128 0x2
 7293 2d02 75       		.byte	0x75
 7294 2d03 00       		.sleb128 0
 7295 2d04 39       		.uleb128 0x39
 7296 2d05 01       		.uleb128 0x1
 7297 2d06 51       		.byte	0x51
ARM GAS  C:\Users\haske\AppData\Local\Temp\cc65HANE.s 			page 151


 7298 2d07 02       		.uleb128 0x2
 7299 2d08 91       		.byte	0x91
 7300 2d09 6C       		.sleb128 -20
 7301 2d0a 00       		.byte	0
 7302 2d0b 38       		.uleb128 0x38
 7303 2d0c CA000000 		.4byte	.LVL155
 7304 2d10 70270000 		.4byte	0x2770
 7305 2d14 1F2D0000 		.4byte	0x2d1f
 7306 2d18 39       		.uleb128 0x39
 7307 2d19 01       		.uleb128 0x1
 7308 2d1a 50       		.byte	0x50
 7309 2d1b 02       		.uleb128 0x2
 7310 2d1c 76       		.byte	0x76
 7311 2d1d 00       		.sleb128 0
 7312 2d1e 00       		.byte	0
 7313 2d1f 38       		.uleb128 0x38
 7314 2d20 DE000000 		.4byte	.LVL159
 7315 2d24 24280000 		.4byte	0x2824
 7316 2d28 3E2D0000 		.4byte	0x2d3e
 7317 2d2c 39       		.uleb128 0x39
 7318 2d2d 01       		.uleb128 0x1
 7319 2d2e 50       		.byte	0x50
 7320 2d2f 02       		.uleb128 0x2
 7321 2d30 76       		.byte	0x76
 7322 2d31 00       		.sleb128 0
 7323 2d32 39       		.uleb128 0x39
 7324 2d33 01       		.uleb128 0x1
 7325 2d34 51       		.byte	0x51
 7326 2d35 02       		.uleb128 0x2
 7327 2d36 74       		.byte	0x74
 7328 2d37 00       		.sleb128 0
 7329 2d38 39       		.uleb128 0x39
 7330 2d39 01       		.uleb128 0x1
 7331 2d3a 52       		.byte	0x52
 7332 2d3b 01       		.uleb128 0x1
 7333 2d3c 31       		.byte	0x31
 7334 2d3d 00       		.byte	0
 7335 2d3e 3A       		.uleb128 0x3a
 7336 2d3f EC000000 		.4byte	.LVL160
 7337 2d43 EB330000 		.4byte	0x33eb
 7338 2d47 39       		.uleb128 0x39
 7339 2d48 01       		.uleb128 0x1
 7340 2d49 50       		.byte	0x50
 7341 2d4a 02       		.uleb128 0x2
 7342 2d4b 76       		.byte	0x76
 7343 2d4c 00       		.sleb128 0
 7344 2d4d 39       		.uleb128 0x39
 7345 2d4e 01       		.uleb128 0x1
 7346 2d4f 51       		.byte	0x51
 7347 2d50 01       		.uleb128 0x1
 7348 2d51 4C       		.byte	0x4c
 7349 2d52 39       		.uleb128 0x39
 7350 2d53 01       		.uleb128 0x1
 7351 2d54 52       		.byte	0x52
 7352 2d55 01       		.uleb128 0x1
 7353 2d56 30       		.byte	0x30
 7354 2d57 00       		.byte	0
ARM GAS  C:\Users\haske\AppData\Local\Temp\cc65HANE.s 			page 152


 7355 2d58 00       		.byte	0
 7356 2d59 38       		.uleb128 0x38
 7357 2d5a 0A000000 		.4byte	.LVL126
 7358 2d5e CA330000 		.4byte	0x33ca
 7359 2d62 6D2D0000 		.4byte	0x2d6d
 7360 2d66 39       		.uleb128 0x39
 7361 2d67 01       		.uleb128 0x1
 7362 2d68 50       		.byte	0x50
 7363 2d69 02       		.uleb128 0x2
 7364 2d6a 74       		.byte	0x74
 7365 2d6b 00       		.sleb128 0
 7366 2d6c 00       		.byte	0
 7367 2d6d 38       		.uleb128 0x38
 7368 2d6e 12000000 		.4byte	.LVL129
 7369 2d72 BF330000 		.4byte	0x33bf
 7370 2d76 812D0000 		.4byte	0x2d81
 7371 2d7a 39       		.uleb128 0x39
 7372 2d7b 01       		.uleb128 0x1
 7373 2d7c 50       		.byte	0x50
 7374 2d7d 02       		.uleb128 0x2
 7375 2d7e 74       		.byte	0x74
 7376 2d7f 00       		.sleb128 0
 7377 2d80 00       		.byte	0
 7378 2d81 38       		.uleb128 0x38
 7379 2d82 1A000000 		.4byte	.LVL132
 7380 2d86 F6330000 		.4byte	0x33f6
 7381 2d8a 952D0000 		.4byte	0x2d95
 7382 2d8e 39       		.uleb128 0x39
 7383 2d8f 01       		.uleb128 0x1
 7384 2d90 50       		.byte	0x50
 7385 2d91 02       		.uleb128 0x2
 7386 2d92 75       		.byte	0x75
 7387 2d93 00       		.sleb128 0
 7388 2d94 00       		.byte	0
 7389 2d95 38       		.uleb128 0x38
 7390 2d96 24000000 		.4byte	.LVL134
 7391 2d9a 70270000 		.4byte	0x2770
 7392 2d9e A92D0000 		.4byte	0x2da9
 7393 2da2 39       		.uleb128 0x39
 7394 2da3 01       		.uleb128 0x1
 7395 2da4 50       		.byte	0x50
 7396 2da5 02       		.uleb128 0x2
 7397 2da6 76       		.byte	0x76
 7398 2da7 00       		.sleb128 0
 7399 2da8 00       		.byte	0
 7400 2da9 3A       		.uleb128 0x3a
 7401 2daa 2E000000 		.4byte	.LVL135
 7402 2dae 24280000 		.4byte	0x2824
 7403 2db2 39       		.uleb128 0x39
 7404 2db3 01       		.uleb128 0x1
 7405 2db4 50       		.byte	0x50
 7406 2db5 02       		.uleb128 0x2
 7407 2db6 76       		.byte	0x76
 7408 2db7 00       		.sleb128 0
 7409 2db8 39       		.uleb128 0x39
 7410 2db9 01       		.uleb128 0x1
 7411 2dba 52       		.byte	0x52
ARM GAS  C:\Users\haske\AppData\Local\Temp\cc65HANE.s 			page 153


 7412 2dbb 01       		.uleb128 0x1
 7413 2dbc 30       		.byte	0x30
 7414 2dbd 00       		.byte	0
 7415 2dbe 00       		.byte	0
 7416 2dbf 07       		.uleb128 0x7
 7417 2dc0 04       		.byte	0x4
 7418 2dc1 691A0000 		.4byte	0x1a69
 7419 2dc5 2D       		.uleb128 0x2d
 7420 2dc6 92280000 		.4byte	.LASF647
 7421 2dca 01       		.byte	0x1
 7422 2dcb 3101     		.2byte	0x131
 7423 2dcd 00000000 		.4byte	.LFB212
 7424 2dd1 20000000 		.4byte	.LFE212-.LFB212
 7425 2dd5 01       		.uleb128 0x1
 7426 2dd6 9C       		.byte	0x9c
 7427 2dd7 6A2E0000 		.4byte	0x2e6a
 7428 2ddb 2F       		.uleb128 0x2f
 7429 2ddc 6500     		.ascii	"e\000"
 7430 2dde 01       		.byte	0x1
 7431 2ddf 3101     		.2byte	0x131
 7432 2de1 1E1F0000 		.4byte	0x1f1e
 7433 2de5 DA070000 		.4byte	.LLST53
 7434 2de9 30       		.uleb128 0x30
 7435 2dea FE1A0000 		.4byte	.LASF640
 7436 2dee 01       		.byte	0x1
 7437 2def 3301     		.2byte	0x133
 7438 2df1 82200000 		.4byte	0x2082
 7439 2df5 FB070000 		.4byte	.LLST54
 7440 2df9 31       		.uleb128 0x31
 7441 2dfa 747600   		.ascii	"tv\000"
 7442 2dfd 01       		.byte	0x1
 7443 2dfe 3501     		.2byte	0x135
 7444 2e00 82200000 		.4byte	0x2082
 7445 2e04 19080000 		.4byte	.LLST55
 7446 2e08 31       		.uleb128 0x31
 7447 2e09 696400   		.ascii	"id\000"
 7448 2e0c 01       		.byte	0x1
 7449 2e0d 3601     		.2byte	0x136
 7450 2e0f E4000000 		.4byte	0xe4
 7451 2e13 37080000 		.4byte	.LLST56
 7452 2e17 38       		.uleb128 0x38
 7453 2e18 06000000 		.4byte	.LVL163
 7454 2e1c CA330000 		.4byte	0x33ca
 7455 2e20 2C2E0000 		.4byte	0x2e2c
 7456 2e24 39       		.uleb128 0x39
 7457 2e25 01       		.uleb128 0x1
 7458 2e26 50       		.byte	0x50
 7459 2e27 03       		.uleb128 0x3
 7460 2e28 F3       		.byte	0xf3
 7461 2e29 01       		.uleb128 0x1
 7462 2e2a 50       		.byte	0x50
 7463 2e2b 00       		.byte	0
 7464 2e2c 38       		.uleb128 0x38
 7465 2e2d 0C000000 		.4byte	.LVL165
 7466 2e31 F6330000 		.4byte	0x33f6
 7467 2e35 402E0000 		.4byte	0x2e40
 7468 2e39 39       		.uleb128 0x39
ARM GAS  C:\Users\haske\AppData\Local\Temp\cc65HANE.s 			page 154


 7469 2e3a 01       		.uleb128 0x1
 7470 2e3b 50       		.byte	0x50
 7471 2e3c 02       		.uleb128 0x2
 7472 2e3d 74       		.byte	0x74
 7473 2e3e 00       		.sleb128 0
 7474 2e3f 00       		.byte	0
 7475 2e40 38       		.uleb128 0x38
 7476 2e41 14000000 		.4byte	.LVL168
 7477 2e45 01340000 		.4byte	0x3401
 7478 2e49 542E0000 		.4byte	0x2e54
 7479 2e4d 39       		.uleb128 0x39
 7480 2e4e 01       		.uleb128 0x1
 7481 2e4f 50       		.byte	0x50
 7482 2e50 02       		.uleb128 0x2
 7483 2e51 74       		.byte	0x74
 7484 2e52 00       		.sleb128 0
 7485 2e53 00       		.byte	0
 7486 2e54 3A       		.uleb128 0x3a
 7487 2e55 1E000000 		.4byte	.LVL171
 7488 2e59 24280000 		.4byte	0x2824
 7489 2e5d 39       		.uleb128 0x39
 7490 2e5e 01       		.uleb128 0x1
 7491 2e5f 50       		.byte	0x50
 7492 2e60 02       		.uleb128 0x2
 7493 2e61 75       		.byte	0x75
 7494 2e62 00       		.sleb128 0
 7495 2e63 39       		.uleb128 0x39
 7496 2e64 01       		.uleb128 0x1
 7497 2e65 52       		.byte	0x52
 7498 2e66 01       		.uleb128 0x1
 7499 2e67 31       		.byte	0x31
 7500 2e68 00       		.byte	0
 7501 2e69 00       		.byte	0
 7502 2e6a 3B       		.uleb128 0x3b
 7503 2e6b CF030000 		.4byte	.LASF648
 7504 2e6f 01       		.byte	0x1
 7505 2e70 43       		.byte	0x43
 7506 2e71 82200000 		.4byte	0x2082
 7507 2e75 00000000 		.4byte	.LFB203
 7508 2e79 70010000 		.4byte	.LFE203-.LFB203
 7509 2e7d 01       		.uleb128 0x1
 7510 2e7e 9C       		.byte	0x9c
 7511 2e7f 63310000 		.4byte	0x3163
 7512 2e83 35       		.uleb128 0x35
 7513 2e84 6F626A00 		.ascii	"obj\000"
 7514 2e88 01       		.byte	0x1
 7515 2e89 43       		.byte	0x43
 7516 2e8a 82200000 		.4byte	0x2082
 7517 2e8e 55080000 		.4byte	.LLST57
 7518 2e92 34       		.uleb128 0x34
 7519 2e93 BD150000 		.4byte	.LASF649
 7520 2e97 01       		.byte	0x1
 7521 2e98 43       		.byte	0x43
 7522 2e99 C0010000 		.4byte	0x1c0
 7523 2e9d 81080000 		.4byte	.LLST58
 7524 2ea1 36       		.uleb128 0x36
 7525 2ea2 78120000 		.4byte	.LASF626
ARM GAS  C:\Users\haske\AppData\Local\Temp\cc65HANE.s 			page 155


 7526 2ea6 01       		.byte	0x1
 7527 2ea7 46       		.byte	0x46
 7528 2ea8 21230000 		.4byte	0x2321
 7529 2eac A0080000 		.4byte	.LLST59
 7530 2eb0 36       		.uleb128 0x36
 7531 2eb1 77190000 		.4byte	.LASF630
 7532 2eb5 01       		.byte	0x1
 7533 2eb6 47       		.byte	0x47
 7534 2eb7 82200000 		.4byte	0x2082
 7535 2ebb CC080000 		.4byte	.LLST60
 7536 2ebf 36       		.uleb128 0x36
 7537 2ec0 B70F0000 		.4byte	.LASF650
 7538 2ec4 01       		.byte	0x1
 7539 2ec5 49       		.byte	0x49
 7540 2ec6 82200000 		.4byte	0x2082
 7541 2eca EA080000 		.4byte	.LLST61
 7542 2ece 36       		.uleb128 0x36
 7543 2ecf 9F250000 		.4byte	.LASF651
 7544 2ed3 01       		.byte	0x1
 7545 2ed4 4C       		.byte	0x4c
 7546 2ed5 E4000000 		.4byte	0xe4
 7547 2ed9 2B090000 		.4byte	.LLST62
 7548 2edd 36       		.uleb128 0x36
 7549 2ede FE1A0000 		.4byte	.LASF640
 7550 2ee2 01       		.byte	0x1
 7551 2ee3 4E       		.byte	0x4e
 7552 2ee4 82200000 		.4byte	0x2082
 7553 2ee8 54090000 		.4byte	.LLST63
 7554 2eec 36       		.uleb128 0x36
 7555 2eed 4D110000 		.4byte	.LASF652
 7556 2ef1 01       		.byte	0x1
 7557 2ef2 50       		.byte	0x50
 7558 2ef3 88200000 		.4byte	0x2088
 7559 2ef7 8A090000 		.4byte	.LLST64
 7560 2efb 36       		.uleb128 0x36
 7561 2efc 7A020000 		.4byte	.LASF653
 7562 2f00 01       		.byte	0x1
 7563 2f01 51       		.byte	0x51
 7564 2f02 88200000 		.4byte	0x2088
 7565 2f06 9D090000 		.4byte	.LLST65
 7566 2f0a 3E       		.uleb128 0x3e
 7567 2f0b 6B220000 		.4byte	0x226b
 7568 2f0f 5C000000 		.4byte	.LBB34
 7569 2f13 14000000 		.4byte	.LBE34-.LBB34
 7570 2f17 01       		.byte	0x1
 7571 2f18 56       		.byte	0x56
 7572 2f19 552F0000 		.4byte	0x2f55
 7573 2f1d 3F       		.uleb128 0x3f
 7574 2f1e 91220000 		.4byte	0x2291
 7575 2f22 DC090000 		.4byte	.LLST66
 7576 2f26 3F       		.uleb128 0x3f
 7577 2f27 86220000 		.4byte	0x2286
 7578 2f2b EF090000 		.4byte	.LLST67
 7579 2f2f 3F       		.uleb128 0x3f
 7580 2f30 7B220000 		.4byte	0x227b
 7581 2f34 020A0000 		.4byte	.LLST68
 7582 2f38 40       		.uleb128 0x40
ARM GAS  C:\Users\haske\AppData\Local\Temp\cc65HANE.s 			page 156


 7583 2f39 5C000000 		.4byte	.LBB35
 7584 2f3d 14000000 		.4byte	.LBE35-.LBB35
 7585 2f41 46       		.uleb128 0x46
 7586 2f42 9C220000 		.4byte	0x229c
 7587 2f46 200A0000 		.4byte	.LLST69
 7588 2f4a 46       		.uleb128 0x46
 7589 2f4b A6220000 		.4byte	0x22a6
 7590 2f4f 3E0A0000 		.4byte	.LLST70
 7591 2f53 00       		.byte	0
 7592 2f54 00       		.byte	0
 7593 2f55 3E       		.uleb128 0x3e
 7594 2f56 6B220000 		.4byte	0x226b
 7595 2f5a A4000000 		.4byte	.LBB36
 7596 2f5e 14000000 		.4byte	.LBE36-.LBB36
 7597 2f62 01       		.byte	0x1
 7598 2f63 5E       		.byte	0x5e
 7599 2f64 A02F0000 		.4byte	0x2fa0
 7600 2f68 3F       		.uleb128 0x3f
 7601 2f69 91220000 		.4byte	0x2291
 7602 2f6d 5C0A0000 		.4byte	.LLST71
 7603 2f71 3F       		.uleb128 0x3f
 7604 2f72 86220000 		.4byte	0x2286
 7605 2f76 6F0A0000 		.4byte	.LLST72
 7606 2f7a 3F       		.uleb128 0x3f
 7607 2f7b 7B220000 		.4byte	0x227b
 7608 2f7f 820A0000 		.4byte	.LLST73
 7609 2f83 40       		.uleb128 0x40
 7610 2f84 A4000000 		.4byte	.LBB37
 7611 2f88 14000000 		.4byte	.LBE37-.LBB37
 7612 2f8c 46       		.uleb128 0x46
 7613 2f8d 9C220000 		.4byte	0x229c
 7614 2f91 A00A0000 		.4byte	.LLST74
 7615 2f95 46       		.uleb128 0x46
 7616 2f96 A6220000 		.4byte	0x22a6
 7617 2f9a C90A0000 		.4byte	.LLST75
 7618 2f9e 00       		.byte	0
 7619 2f9f 00       		.byte	0
 7620 2fa0 38       		.uleb128 0x38
 7621 2fa1 14000000 		.4byte	.LVL176
 7622 2fa5 A8270000 		.4byte	0x27a8
 7623 2fa9 B42F0000 		.4byte	0x2fb4
 7624 2fad 39       		.uleb128 0x39
 7625 2fae 01       		.uleb128 0x1
 7626 2faf 50       		.byte	0x50
 7627 2fb0 02       		.uleb128 0x2
 7628 2fb1 77       		.byte	0x77
 7629 2fb2 00       		.sleb128 0
 7630 2fb3 00       		.byte	0
 7631 2fb4 38       		.uleb128 0x38
 7632 2fb5 1A000000 		.4byte	.LVL178
 7633 2fb9 7D320000 		.4byte	0x327d
 7634 2fbd C82F0000 		.4byte	0x2fc8
 7635 2fc1 39       		.uleb128 0x39
 7636 2fc2 01       		.uleb128 0x1
 7637 2fc3 50       		.byte	0x50
 7638 2fc4 02       		.uleb128 0x2
 7639 2fc5 75       		.byte	0x75
ARM GAS  C:\Users\haske\AppData\Local\Temp\cc65HANE.s 			page 157


 7640 2fc6 00       		.sleb128 0
 7641 2fc7 00       		.byte	0
 7642 2fc8 38       		.uleb128 0x38
 7643 2fc9 26000000 		.4byte	.LVL180
 7644 2fcd 67320000 		.4byte	0x3267
 7645 2fd1 EA2F0000 		.4byte	0x2fea
 7646 2fd5 39       		.uleb128 0x39
 7647 2fd6 01       		.uleb128 0x1
 7648 2fd7 50       		.byte	0x50
 7649 2fd8 02       		.uleb128 0x2
 7650 2fd9 74       		.byte	0x74
 7651 2fda 00       		.sleb128 0
 7652 2fdb 39       		.uleb128 0x39
 7653 2fdc 01       		.uleb128 0x1
 7654 2fdd 51       		.byte	0x51
 7655 2fde 03       		.uleb128 0x3
 7656 2fdf 0A       		.byte	0xa
 7657 2fe0 6420     		.2byte	0x2064
 7658 2fe2 39       		.uleb128 0x39
 7659 2fe3 01       		.uleb128 0x1
 7660 2fe4 52       		.byte	0x52
 7661 2fe5 03       		.uleb128 0x3
 7662 2fe6 0A       		.byte	0xa
 7663 2fe7 6420     		.2byte	0x2064
 7664 2fe9 00       		.byte	0
 7665 2fea 38       		.uleb128 0x38
 7666 2feb 2E000000 		.4byte	.LVL181
 7667 2fef 17330000 		.4byte	0x3317
 7668 2ff3 03300000 		.4byte	0x3003
 7669 2ff7 39       		.uleb128 0x39
 7670 2ff8 01       		.uleb128 0x1
 7671 2ff9 50       		.byte	0x50
 7672 2ffa 02       		.uleb128 0x2
 7673 2ffb 74       		.byte	0x74
 7674 2ffc 00       		.sleb128 0
 7675 2ffd 39       		.uleb128 0x39
 7676 2ffe 01       		.uleb128 0x1
 7677 2fff 51       		.byte	0x51
 7678 3000 01       		.uleb128 0x1
 7679 3001 34       		.byte	0x34
 7680 3002 00       		.byte	0
 7681 3003 38       		.uleb128 0x38
 7682 3004 34000000 		.4byte	.LVL182
 7683 3008 0C340000 		.4byte	0x340c
 7684 300c 17300000 		.4byte	0x3017
 7685 3010 39       		.uleb128 0x39
 7686 3011 01       		.uleb128 0x1
 7687 3012 50       		.byte	0x50
 7688 3013 02       		.uleb128 0x2
 7689 3014 75       		.byte	0x75
 7690 3015 00       		.sleb128 0
 7691 3016 00       		.byte	0
 7692 3017 38       		.uleb128 0x38
 7693 3018 3C000000 		.4byte	.LVL185
 7694 301c E6270000 		.4byte	0x27e6
 7695 3020 2B300000 		.4byte	0x302b
 7696 3024 39       		.uleb128 0x39
ARM GAS  C:\Users\haske\AppData\Local\Temp\cc65HANE.s 			page 158


 7697 3025 01       		.uleb128 0x1
 7698 3026 50       		.byte	0x50
 7699 3027 02       		.uleb128 0x2
 7700 3028 77       		.byte	0x77
 7701 3029 00       		.sleb128 0
 7702 302a 00       		.byte	0
 7703 302b 38       		.uleb128 0x38
 7704 302c 52000000 		.4byte	.LVL189
 7705 3030 93320000 		.4byte	0x3293
 7706 3034 41300000 		.4byte	0x3041
 7707 3038 39       		.uleb128 0x39
 7708 3039 01       		.uleb128 0x1
 7709 303a 50       		.byte	0x50
 7710 303b 04       		.uleb128 0x4
 7711 303c 75       		.byte	0x75
 7712 303d 01       		.sleb128 1
 7713 303e 32       		.byte	0x32
 7714 303f 24       		.byte	0x24
 7715 3040 00       		.byte	0
 7716 3041 38       		.uleb128 0x38
 7717 3042 7A000000 		.4byte	.LVL197
 7718 3046 38330000 		.4byte	0x3338
 7719 304a 56300000 		.4byte	0x3056
 7720 304e 39       		.uleb128 0x39
 7721 304f 01       		.uleb128 0x1
 7722 3050 50       		.byte	0x50
 7723 3051 03       		.uleb128 0x3
 7724 3052 91       		.byte	0x91
 7725 3053 58       		.sleb128 -40
 7726 3054 06       		.byte	0x6
 7727 3055 00       		.byte	0
 7728 3056 32       		.uleb128 0x32
 7729 3057 80000000 		.4byte	.LVL198
 7730 305b 93320000 		.4byte	0x3293
 7731 305f 38       		.uleb128 0x38
 7732 3060 8A000000 		.4byte	.LVL199
 7733 3064 43330000 		.4byte	0x3343
 7734 3068 74300000 		.4byte	0x3074
 7735 306c 39       		.uleb128 0x39
 7736 306d 01       		.uleb128 0x1
 7737 306e 51       		.byte	0x51
 7738 306f 03       		.uleb128 0x3
 7739 3070 91       		.byte	0x91
 7740 3071 58       		.sleb128 -40
 7741 3072 06       		.byte	0x6
 7742 3073 00       		.byte	0
 7743 3074 38       		.uleb128 0x38
 7744 3075 9C000000 		.4byte	.LVL202
 7745 3079 93320000 		.4byte	0x3293
 7746 307d 88300000 		.4byte	0x3088
 7747 3081 39       		.uleb128 0x39
 7748 3082 01       		.uleb128 0x1
 7749 3083 50       		.byte	0x50
 7750 3084 02       		.uleb128 0x2
 7751 3085 78       		.byte	0x78
 7752 3086 00       		.sleb128 0
 7753 3087 00       		.byte	0
ARM GAS  C:\Users\haske\AppData\Local\Temp\cc65HANE.s 			page 159


 7754 3088 38       		.uleb128 0x38
 7755 3089 C6000000 		.4byte	.LVL211
 7756 308d 38330000 		.4byte	0x3338
 7757 3091 9C300000 		.4byte	0x309c
 7758 3095 39       		.uleb128 0x39
 7759 3096 01       		.uleb128 0x1
 7760 3097 50       		.byte	0x50
 7761 3098 02       		.uleb128 0x2
 7762 3099 75       		.byte	0x75
 7763 309a 00       		.sleb128 0
 7764 309b 00       		.byte	0
 7765 309c 32       		.uleb128 0x32
 7766 309d CC000000 		.4byte	.LVL212
 7767 30a1 93320000 		.4byte	0x3293
 7768 30a5 38       		.uleb128 0x38
 7769 30a6 D4000000 		.4byte	.LVL213
 7770 30aa 43330000 		.4byte	0x3343
 7771 30ae B9300000 		.4byte	0x30b9
 7772 30b2 39       		.uleb128 0x39
 7773 30b3 01       		.uleb128 0x1
 7774 30b4 51       		.byte	0x51
 7775 30b5 02       		.uleb128 0x2
 7776 30b6 75       		.byte	0x75
 7777 30b7 00       		.sleb128 0
 7778 30b8 00       		.byte	0
 7779 30b9 38       		.uleb128 0x38
 7780 30ba F4000000 		.4byte	.LVL217
 7781 30be 38330000 		.4byte	0x3338
 7782 30c2 CD300000 		.4byte	0x30cd
 7783 30c6 39       		.uleb128 0x39
 7784 30c7 01       		.uleb128 0x1
 7785 30c8 50       		.byte	0x50
 7786 30c9 02       		.uleb128 0x2
 7787 30ca 75       		.byte	0x75
 7788 30cb 00       		.sleb128 0
 7789 30cc 00       		.byte	0
 7790 30cd 32       		.uleb128 0x32
 7791 30ce FA000000 		.4byte	.LVL218
 7792 30d2 93320000 		.4byte	0x3293
 7793 30d6 38       		.uleb128 0x38
 7794 30d7 10010000 		.4byte	.LVL219
 7795 30db 43330000 		.4byte	0x3343
 7796 30df EA300000 		.4byte	0x30ea
 7797 30e3 39       		.uleb128 0x39
 7798 30e4 01       		.uleb128 0x1
 7799 30e5 51       		.byte	0x51
 7800 30e6 02       		.uleb128 0x2
 7801 30e7 75       		.byte	0x75
 7802 30e8 00       		.sleb128 0
 7803 30e9 00       		.byte	0
 7804 30ea 38       		.uleb128 0x38
 7805 30eb 1C010000 		.4byte	.LVL221
 7806 30ef 9E320000 		.4byte	0x329e
 7807 30f3 FE300000 		.4byte	0x30fe
 7808 30f7 39       		.uleb128 0x39
 7809 30f8 01       		.uleb128 0x1
 7810 30f9 50       		.byte	0x50
ARM GAS  C:\Users\haske\AppData\Local\Temp\cc65HANE.s 			page 160


 7811 30fa 02       		.uleb128 0x2
 7812 30fb 74       		.byte	0x74
 7813 30fc 00       		.sleb128 0
 7814 30fd 00       		.byte	0
 7815 30fe 38       		.uleb128 0x38
 7816 30ff 22010000 		.4byte	.LVL222
 7817 3103 51320000 		.4byte	0x3251
 7818 3107 12310000 		.4byte	0x3112
 7819 310b 39       		.uleb128 0x39
 7820 310c 01       		.uleb128 0x1
 7821 310d 50       		.byte	0x50
 7822 310e 02       		.uleb128 0x2
 7823 310f 76       		.byte	0x76
 7824 3110 00       		.sleb128 0
 7825 3111 00       		.byte	0
 7826 3112 38       		.uleb128 0x38
 7827 3113 2C010000 		.4byte	.LVL223
 7828 3117 17340000 		.4byte	0x3417
 7829 311b 2D310000 		.4byte	0x312d
 7830 311f 39       		.uleb128 0x39
 7831 3120 01       		.uleb128 0x1
 7832 3121 50       		.byte	0x50
 7833 3122 02       		.uleb128 0x2
 7834 3123 74       		.byte	0x74
 7835 3124 00       		.sleb128 0
 7836 3125 39       		.uleb128 0x39
 7837 3126 01       		.uleb128 0x1
 7838 3127 51       		.byte	0x51
 7839 3128 03       		.uleb128 0x3
 7840 3129 0A       		.byte	0xa
 7841 312a 5001     		.2byte	0x150
 7842 312c 00       		.byte	0
 7843 312d 38       		.uleb128 0x38
 7844 312e 42010000 		.4byte	.LVL224
 7845 3132 24280000 		.4byte	0x2824
 7846 3136 4B310000 		.4byte	0x314b
 7847 313a 39       		.uleb128 0x39
 7848 313b 01       		.uleb128 0x1
 7849 313c 50       		.byte	0x50
 7850 313d 02       		.uleb128 0x2
 7851 313e 77       		.byte	0x77
 7852 313f 00       		.sleb128 0
 7853 3140 39       		.uleb128 0x39
 7854 3141 01       		.uleb128 0x1
 7855 3142 51       		.byte	0x51
 7856 3143 01       		.uleb128 0x1
 7857 3144 30       		.byte	0x30
 7858 3145 39       		.uleb128 0x39
 7859 3146 01       		.uleb128 0x1
 7860 3147 52       		.byte	0x52
 7861 3148 01       		.uleb128 0x1
 7862 3149 30       		.byte	0x30
 7863 314a 00       		.byte	0
 7864 314b 3A       		.uleb128 0x3a
 7865 314c 4C010000 		.4byte	.LVL225
 7866 3150 A9330000 		.4byte	0x33a9
 7867 3154 39       		.uleb128 0x39
ARM GAS  C:\Users\haske\AppData\Local\Temp\cc65HANE.s 			page 161


 7868 3155 01       		.uleb128 0x1
 7869 3156 50       		.byte	0x50
 7870 3157 03       		.uleb128 0x3
 7871 3158 91       		.byte	0x91
 7872 3159 54       		.sleb128 -44
 7873 315a 06       		.byte	0x6
 7874 315b 39       		.uleb128 0x39
 7875 315c 01       		.uleb128 0x1
 7876 315d 52       		.byte	0x52
 7877 315e 02       		.uleb128 0x2
 7878 315f 08       		.byte	0x8
 7879 3160 80       		.byte	0x80
 7880 3161 00       		.byte	0
 7881 3162 00       		.byte	0
 7882 3163 42       		.uleb128 0x42
 7883 3164 AD2B0000 		.4byte	.LASF654
 7884 3168 01       		.byte	0x1
 7885 3169 2D       		.byte	0x2d
 7886 316a 9F020000 		.4byte	0x29f
 7887 316e 05       		.uleb128 0x5
 7888 316f 03       		.byte	0x3
 7889 3170 00000000 		.4byte	tabpos_create
 7890 3174 42       		.uleb128 0x42
 7891 3175 AF0D0000 		.4byte	.LASF655
 7892 3179 01       		.byte	0x1
 7893 317a 2E       		.byte	0x2e
 7894 317b EF010000 		.4byte	0x1ef
 7895 317f 05       		.uleb128 0x5
 7896 3180 03       		.byte	0x3
 7897 3181 02000000 		.4byte	tabsize_create
 7898 3185 47       		.uleb128 0x47
 7899 3186 711A0000 		.4byte	.LASF656
 7900 318a 0B       		.byte	0xb
 7901 318b 94       		.byte	0x94
 7902 318c C10B0000 		.4byte	0xbc1
 7903 3190 47       		.uleb128 0x47
 7904 3191 C1130000 		.4byte	.LASF657
 7905 3195 11       		.byte	0x11
 7906 3196 95       		.byte	0x95
 7907 3197 45200000 		.4byte	0x2045
 7908 319b 47       		.uleb128 0x47
 7909 319c 7B0B0000 		.4byte	.LASF658
 7910 31a0 24       		.byte	0x24
 7911 31a1 3D       		.byte	0x3d
 7912 31a2 F7070000 		.4byte	0x7f7
 7913 31a6 47       		.uleb128 0x47
 7914 31a7 131B0000 		.4byte	.LASF659
 7915 31ab 24       		.byte	0x24
 7916 31ac 3E       		.byte	0x3e
 7917 31ad F7070000 		.4byte	0x7f7
 7918 31b1 47       		.uleb128 0x47
 7919 31b2 530B0000 		.4byte	.LASF660
 7920 31b6 24       		.byte	0x24
 7921 31b7 3F       		.byte	0x3f
 7922 31b8 F7070000 		.4byte	0x7f7
 7923 31bc 47       		.uleb128 0x47
 7924 31bd F02B0000 		.4byte	.LASF661
ARM GAS  C:\Users\haske\AppData\Local\Temp\cc65HANE.s 			page 162


 7925 31c1 24       		.byte	0x24
 7926 31c2 40       		.byte	0x40
 7927 31c3 F7070000 		.4byte	0x7f7
 7928 31c7 47       		.uleb128 0x47
 7929 31c8 E60D0000 		.4byte	.LASF662
 7930 31cc 24       		.byte	0x24
 7931 31cd 41       		.byte	0x41
 7932 31ce F7070000 		.4byte	0x7f7
 7933 31d2 47       		.uleb128 0x47
 7934 31d3 93080000 		.4byte	.LASF663
 7935 31d7 27       		.byte	0x27
 7936 31d8 39       		.byte	0x39
 7937 31d9 F7070000 		.4byte	0x7f7
 7938 31dd 47       		.uleb128 0x47
 7939 31de 06140000 		.4byte	.LASF664
 7940 31e2 27       		.byte	0x27
 7941 31e3 3A       		.byte	0x3a
 7942 31e4 F7070000 		.4byte	0x7f7
 7943 31e8 47       		.uleb128 0x47
 7944 31e9 A7030000 		.4byte	.LASF665
 7945 31ed 27       		.byte	0x27
 7946 31ee 3B       		.byte	0x3b
 7947 31ef F7070000 		.4byte	0x7f7
 7948 31f3 47       		.uleb128 0x47
 7949 31f4 6B030000 		.4byte	.LASF666
 7950 31f8 27       		.byte	0x27
 7951 31f9 3C       		.byte	0x3c
 7952 31fa F7070000 		.4byte	0x7f7
 7953 31fe 47       		.uleb128 0x47
 7954 31ff 4D140000 		.4byte	.LASF667
 7955 3203 27       		.byte	0x27
 7956 3204 3D       		.byte	0x3d
 7957 3205 F7070000 		.4byte	0x7f7
 7958 3209 47       		.uleb128 0x47
 7959 320a 4B1D0000 		.4byte	.LASF668
 7960 320e 27       		.byte	0x27
 7961 320f 3E       		.byte	0x3e
 7962 3210 F7070000 		.4byte	0x7f7
 7963 3214 47       		.uleb128 0x47
 7964 3215 EE180000 		.4byte	.LASF669
 7965 3219 27       		.byte	0x27
 7966 321a 3F       		.byte	0x3f
 7967 321b F7070000 		.4byte	0x7f7
 7968 321f 47       		.uleb128 0x47
 7969 3220 C3210000 		.4byte	.LASF670
 7970 3224 27       		.byte	0x27
 7971 3225 40       		.byte	0x40
 7972 3226 F7070000 		.4byte	0x7f7
 7973 322a 47       		.uleb128 0x47
 7974 322b D1190000 		.4byte	.LASF671
 7975 322f 27       		.byte	0x27
 7976 3230 41       		.byte	0x41
 7977 3231 F7070000 		.4byte	0x7f7
 7978 3235 47       		.uleb128 0x47
 7979 3236 98220000 		.4byte	.LASF672
 7980 323a 27       		.byte	0x27
 7981 323b 42       		.byte	0x42
ARM GAS  C:\Users\haske\AppData\Local\Temp\cc65HANE.s 			page 163


 7982 323c F7070000 		.4byte	0x7f7
 7983 3240 48       		.uleb128 0x48
 7984 3241 C2010000 		.4byte	.LASF673
 7985 3245 01       		.byte	0x1
 7986 3246 23       		.byte	0x23
 7987 3247 45200000 		.4byte	0x2045
 7988 324b 05       		.uleb128 0x5
 7989 324c 03       		.byte	0x3
 7990 324d 00000000 		.4byte	lv_tabview_class
 7991 3251 49       		.uleb128 0x49
 7992 3252 2E250000 		.4byte	.LASF674
 7993 3256 2E250000 		.4byte	.LASF674
 7994 325a 03       		.byte	0x3
 7995 325b 50       		.byte	0x50
 7996 325c 49       		.uleb128 0x49
 7997 325d B7170000 		.4byte	.LASF675
 7998 3261 B7170000 		.4byte	.LASF675
 7999 3265 24       		.byte	0x24
 8000 3266 52       		.byte	0x52
 8001 3267 49       		.uleb128 0x49
 8002 3268 F3040000 		.4byte	.LASF676
 8003 326c F3040000 		.4byte	.LASF676
 8004 3270 28       		.byte	0x28
 8005 3271 52       		.byte	0x52
 8006 3272 49       		.uleb128 0x49
 8007 3273 F5270000 		.4byte	.LASF677
 8008 3277 F5270000 		.4byte	.LASF677
 8009 327b 23       		.byte	0x23
 8010 327c 55       		.byte	0x55
 8011 327d 49       		.uleb128 0x49
 8012 327e 6D0B0000 		.4byte	.LASF678
 8013 3282 6D0B0000 		.4byte	.LASF678
 8014 3286 11       		.byte	0x11
 8015 3287 E0       		.byte	0xe0
 8016 3288 49       		.uleb128 0x49
 8017 3289 4C0E0000 		.4byte	.LASF679
 8018 328d 4C0E0000 		.4byte	.LASF679
 8019 3291 23       		.byte	0x23
 8020 3292 AA       		.byte	0xaa
 8021 3293 49       		.uleb128 0x49
 8022 3294 14170000 		.4byte	.LASF680
 8023 3298 14170000 		.4byte	.LASF680
 8024 329c 03       		.byte	0x3
 8025 329d 4A       		.byte	0x4a
 8026 329e 49       		.uleb128 0x49
 8027 329f 980A0000 		.4byte	.LASF681
 8028 32a3 980A0000 		.4byte	.LASF681
 8029 32a7 23       		.byte	0x23
 8030 32a8 62       		.byte	0x62
 8031 32a9 49       		.uleb128 0x49
 8032 32aa F0240000 		.4byte	.LASF682
 8033 32ae F0240000 		.4byte	.LASF682
 8034 32b2 21       		.byte	0x21
 8035 32b3 ED       		.byte	0xed
 8036 32b4 49       		.uleb128 0x49
 8037 32b5 4A190000 		.4byte	.LASF683
 8038 32b9 4A190000 		.4byte	.LASF683
ARM GAS  C:\Users\haske\AppData\Local\Temp\cc65HANE.s 			page 164


 8039 32bd 11       		.byte	0x11
 8040 32be EC       		.byte	0xec
 8041 32bf 49       		.uleb128 0x49
 8042 32c0 09280000 		.4byte	.LASF684
 8043 32c4 09280000 		.4byte	.LASF684
 8044 32c8 1E       		.byte	0x1e
 8045 32c9 3F       		.byte	0x3f
 8046 32ca 49       		.uleb128 0x49
 8047 32cb 77040000 		.4byte	.LASF685
 8048 32cf 77040000 		.4byte	.LASF685
 8049 32d3 28       		.byte	0x28
 8050 32d4 65       		.byte	0x65
 8051 32d5 49       		.uleb128 0x49
 8052 32d6 E91A0000 		.4byte	.LASF686
 8053 32da E91A0000 		.4byte	.LASF686
 8054 32de 24       		.byte	0x24
 8055 32df 63       		.byte	0x63
 8056 32e0 49       		.uleb128 0x49
 8057 32e1 6A230000 		.4byte	.LASF687
 8058 32e5 6A230000 		.4byte	.LASF687
 8059 32e9 28       		.byte	0x28
 8060 32ea 71       		.byte	0x71
 8061 32eb 49       		.uleb128 0x49
 8062 32ec 8A240000 		.4byte	.LASF688
 8063 32f0 8A240000 		.4byte	.LASF688
 8064 32f4 1D       		.byte	0x1d
 8065 32f5 76       		.byte	0x76
 8066 32f6 49       		.uleb128 0x49
 8067 32f7 07010000 		.4byte	.LASF689
 8068 32fb 07010000 		.4byte	.LASF689
 8069 32ff 1D       		.byte	0x1d
 8070 3300 7D       		.byte	0x7d
 8071 3301 49       		.uleb128 0x49
 8072 3302 8E100000 		.4byte	.LASF690
 8073 3306 8E100000 		.4byte	.LASF690
 8074 330a 1E       		.byte	0x1e
 8075 330b 4D       		.byte	0x4d
 8076 330c 49       		.uleb128 0x49
 8077 330d 2C1B0000 		.4byte	.LASF691
 8078 3311 2C1B0000 		.4byte	.LASF691
 8079 3315 1E       		.byte	0x1e
 8080 3316 54       		.byte	0x54
 8081 3317 49       		.uleb128 0x49
 8082 3318 AD090000 		.4byte	.LASF692
 8083 331c AD090000 		.4byte	.LASF692
 8084 3320 11       		.byte	0x11
 8085 3321 F3       		.byte	0xf3
 8086 3322 49       		.uleb128 0x49
 8087 3323 E1130000 		.4byte	.LASF693
 8088 3327 E1130000 		.4byte	.LASF693
 8089 332b 20       		.byte	0x20
 8090 332c 4B       		.byte	0x4b
 8091 332d 49       		.uleb128 0x49
 8092 332e 900F0000 		.4byte	.LASF694
 8093 3332 900F0000 		.4byte	.LASF694
 8094 3336 20       		.byte	0x20
 8095 3337 4D       		.byte	0x4d
ARM GAS  C:\Users\haske\AppData\Local\Temp\cc65HANE.s 			page 165


 8096 3338 49       		.uleb128 0x49
 8097 3339 F11F0000 		.4byte	.LASF695
 8098 333d F11F0000 		.4byte	.LASF695
 8099 3341 29       		.byte	0x29
 8100 3342 21       		.byte	0x21
 8101 3343 49       		.uleb128 0x49
 8102 3344 D7000000 		.4byte	.LASF696
 8103 3348 D7000000 		.4byte	.LASF696
 8104 334c 29       		.byte	0x29
 8105 334d 1E       		.byte	0x1e
 8106 334e 4A       		.uleb128 0x4a
 8107 334f B2080000 		.4byte	.LASF697
 8108 3353 B2080000 		.4byte	.LASF697
 8109 3357 28       		.byte	0x28
 8110 3358 7D01     		.2byte	0x17d
 8111 335a 49       		.uleb128 0x49
 8112 335b FC2A0000 		.4byte	.LASF698
 8113 335f FC2A0000 		.4byte	.LASF698
 8114 3363 2A       		.byte	0x2a
 8115 3364 8A       		.byte	0x8a
 8116 3365 49       		.uleb128 0x49
 8117 3366 88110000 		.4byte	.LASF699
 8118 336a 88110000 		.4byte	.LASF699
 8119 336e 1F       		.byte	0x1f
 8120 336f 83       		.byte	0x83
 8121 3370 49       		.uleb128 0x49
 8122 3371 4C150000 		.4byte	.LASF700
 8123 3375 4C150000 		.4byte	.LASF700
 8124 3379 1E       		.byte	0x1e
 8125 337a E1       		.byte	0xe1
 8126 337b 4A       		.uleb128 0x4a
 8127 337c 3C1F0000 		.4byte	.LASF701
 8128 3380 3C1F0000 		.4byte	.LASF701
 8129 3384 28       		.byte	0x28
 8130 3385 2B01     		.2byte	0x12b
 8131 3387 4A       		.uleb128 0x4a
 8132 3388 532A0000 		.4byte	.LASF702
 8133 338c 532A0000 		.4byte	.LASF702
 8134 3390 28       		.byte	0x28
 8135 3391 3401     		.2byte	0x134
 8136 3393 49       		.uleb128 0x49
 8137 3394 E2270000 		.4byte	.LASF703
 8138 3398 E2270000 		.4byte	.LASF703
 8139 339c 1E       		.byte	0x1e
 8140 339d EA       		.byte	0xea
 8141 339e 49       		.uleb128 0x49
 8142 339f FF1C0000 		.4byte	.LASF704
 8143 33a3 FF1C0000 		.4byte	.LASF704
 8144 33a7 28       		.byte	0x28
 8145 33a8 99       		.byte	0x99
 8146 33a9 49       		.uleb128 0x49
 8147 33aa DD170000 		.4byte	.LASF705
 8148 33ae DD170000 		.4byte	.LASF705
 8149 33b2 23       		.byte	0x23
 8150 33b3 7F       		.byte	0x7f
 8151 33b4 49       		.uleb128 0x49
 8152 33b5 4C040000 		.4byte	.LASF706
ARM GAS  C:\Users\haske\AppData\Local\Temp\cc65HANE.s 			page 166


 8153 33b9 4C040000 		.4byte	.LASF706
 8154 33bd 21       		.byte	0x21
 8155 33be 9A       		.byte	0x9a
 8156 33bf 49       		.uleb128 0x49
 8157 33c0 03050000 		.4byte	.LASF707
 8158 33c4 03050000 		.4byte	.LASF707
 8159 33c8 21       		.byte	0x21
 8160 33c9 B0       		.byte	0xb0
 8161 33ca 49       		.uleb128 0x49
 8162 33cb 710E0000 		.4byte	.LASF708
 8163 33cf 710E0000 		.4byte	.LASF708
 8164 33d3 21       		.byte	0x21
 8165 33d4 A1       		.byte	0xa1
 8166 33d5 49       		.uleb128 0x49
 8167 33d6 5B200000 		.4byte	.LASF709
 8168 33da 5B200000 		.4byte	.LASF709
 8169 33de 2B       		.byte	0x2b
 8170 33df 32       		.byte	0x32
 8171 33e0 49       		.uleb128 0x49
 8172 33e1 4E0D0000 		.4byte	.LASF710
 8173 33e5 4E0D0000 		.4byte	.LASF710
 8174 33e9 1E       		.byte	0x1e
 8175 33ea B4       		.byte	0xb4
 8176 33eb 49       		.uleb128 0x49
 8177 33ec 82020000 		.4byte	.LASF711
 8178 33f0 82020000 		.4byte	.LASF711
 8179 33f4 21       		.byte	0x21
 8180 33f5 92       		.byte	0x92
 8181 33f6 49       		.uleb128 0x49
 8182 33f7 1C0B0000 		.4byte	.LASF712
 8183 33fb 1C0B0000 		.4byte	.LASF712
 8184 33ff 2A       		.byte	0x2a
 8185 3400 7D       		.byte	0x7d
 8186 3401 49       		.uleb128 0x49
 8187 3402 F5030000 		.4byte	.LASF713
 8188 3406 F5030000 		.4byte	.LASF713
 8189 340a 23       		.byte	0x23
 8190 340b BD       		.byte	0xbd
 8191 340c 49       		.uleb128 0x49
 8192 340d 41100000 		.4byte	.LASF714
 8193 3411 41100000 		.4byte	.LASF714
 8194 3415 2A       		.byte	0x2a
 8195 3416 91       		.byte	0x91
 8196 3417 49       		.uleb128 0x49
 8197 3418 A4260000 		.4byte	.LASF715
 8198 341c A4260000 		.4byte	.LASF715
 8199 3420 23       		.byte	0x23
 8200 3421 8E       		.byte	0x8e
 8201 3422 00       		.byte	0
 8202              		.section	.debug_abbrev,"",%progbits
 8203              	.Ldebug_abbrev0:
 8204 0000 01       		.uleb128 0x1
 8205 0001 11       		.uleb128 0x11
 8206 0002 01       		.byte	0x1
 8207 0003 25       		.uleb128 0x25
 8208 0004 0E       		.uleb128 0xe
 8209 0005 13       		.uleb128 0x13
ARM GAS  C:\Users\haske\AppData\Local\Temp\cc65HANE.s 			page 167


 8210 0006 0B       		.uleb128 0xb
 8211 0007 03       		.uleb128 0x3
 8212 0008 0E       		.uleb128 0xe
 8213 0009 1B       		.uleb128 0x1b
 8214 000a 0E       		.uleb128 0xe
 8215 000b 55       		.uleb128 0x55
 8216 000c 17       		.uleb128 0x17
 8217 000d 11       		.uleb128 0x11
 8218 000e 01       		.uleb128 0x1
 8219 000f 10       		.uleb128 0x10
 8220 0010 17       		.uleb128 0x17
 8221 0011 00       		.byte	0
 8222 0012 00       		.byte	0
 8223 0013 02       		.uleb128 0x2
 8224 0014 16       		.uleb128 0x16
 8225 0015 00       		.byte	0
 8226 0016 03       		.uleb128 0x3
 8227 0017 0E       		.uleb128 0xe
 8228 0018 3A       		.uleb128 0x3a
 8229 0019 0B       		.uleb128 0xb
 8230 001a 3B       		.uleb128 0x3b
 8231 001b 0B       		.uleb128 0xb
 8232 001c 49       		.uleb128 0x49
 8233 001d 13       		.uleb128 0x13
 8234 001e 00       		.byte	0
 8235 001f 00       		.byte	0
 8236 0020 03       		.uleb128 0x3
 8237 0021 24       		.uleb128 0x24
 8238 0022 00       		.byte	0
 8239 0023 0B       		.uleb128 0xb
 8240 0024 0B       		.uleb128 0xb
 8241 0025 3E       		.uleb128 0x3e
 8242 0026 0B       		.uleb128 0xb
 8243 0027 03       		.uleb128 0x3
 8244 0028 0E       		.uleb128 0xe
 8245 0029 00       		.byte	0
 8246 002a 00       		.byte	0
 8247 002b 04       		.uleb128 0x4
 8248 002c 24       		.uleb128 0x24
 8249 002d 00       		.byte	0
 8250 002e 0B       		.uleb128 0xb
 8251 002f 0B       		.uleb128 0xb
 8252 0030 3E       		.uleb128 0x3e
 8253 0031 0B       		.uleb128 0xb
 8254 0032 03       		.uleb128 0x3
 8255 0033 08       		.uleb128 0x8
 8256 0034 00       		.byte	0
 8257 0035 00       		.byte	0
 8258 0036 05       		.uleb128 0x5
 8259 0037 04       		.uleb128 0x4
 8260 0038 01       		.byte	0x1
 8261 0039 0B       		.uleb128 0xb
 8262 003a 0B       		.uleb128 0xb
 8263 003b 49       		.uleb128 0x49
 8264 003c 13       		.uleb128 0x13
 8265 003d 3A       		.uleb128 0x3a
 8266 003e 0B       		.uleb128 0xb
ARM GAS  C:\Users\haske\AppData\Local\Temp\cc65HANE.s 			page 168


 8267 003f 3B       		.uleb128 0x3b
 8268 0040 0B       		.uleb128 0xb
 8269 0041 01       		.uleb128 0x1
 8270 0042 13       		.uleb128 0x13
 8271 0043 00       		.byte	0
 8272 0044 00       		.byte	0
 8273 0045 06       		.uleb128 0x6
 8274 0046 28       		.uleb128 0x28
 8275 0047 00       		.byte	0
 8276 0048 03       		.uleb128 0x3
 8277 0049 0E       		.uleb128 0xe
 8278 004a 1C       		.uleb128 0x1c
 8279 004b 0B       		.uleb128 0xb
 8280 004c 00       		.byte	0
 8281 004d 00       		.byte	0
 8282 004e 07       		.uleb128 0x7
 8283 004f 0F       		.uleb128 0xf
 8284 0050 00       		.byte	0
 8285 0051 0B       		.uleb128 0xb
 8286 0052 0B       		.uleb128 0xb
 8287 0053 49       		.uleb128 0x49
 8288 0054 13       		.uleb128 0x13
 8289 0055 00       		.byte	0
 8290 0056 00       		.byte	0
 8291 0057 08       		.uleb128 0x8
 8292 0058 15       		.uleb128 0x15
 8293 0059 01       		.byte	0x1
 8294 005a 27       		.uleb128 0x27
 8295 005b 19       		.uleb128 0x19
 8296 005c 01       		.uleb128 0x1
 8297 005d 13       		.uleb128 0x13
 8298 005e 00       		.byte	0
 8299 005f 00       		.byte	0
 8300 0060 09       		.uleb128 0x9
 8301 0061 05       		.uleb128 0x5
 8302 0062 00       		.byte	0
 8303 0063 49       		.uleb128 0x49
 8304 0064 13       		.uleb128 0x13
 8305 0065 00       		.byte	0
 8306 0066 00       		.byte	0
 8307 0067 0A       		.uleb128 0xa
 8308 0068 13       		.uleb128 0x13
 8309 0069 01       		.byte	0x1
 8310 006a 03       		.uleb128 0x3
 8311 006b 0E       		.uleb128 0xe
 8312 006c 0B       		.uleb128 0xb
 8313 006d 0B       		.uleb128 0xb
 8314 006e 3A       		.uleb128 0x3a
 8315 006f 0B       		.uleb128 0xb
 8316 0070 3B       		.uleb128 0x3b
 8317 0071 0B       		.uleb128 0xb
 8318 0072 01       		.uleb128 0x1
 8319 0073 13       		.uleb128 0x13
 8320 0074 00       		.byte	0
 8321 0075 00       		.byte	0
 8322 0076 0B       		.uleb128 0xb
 8323 0077 0D       		.uleb128 0xd
ARM GAS  C:\Users\haske\AppData\Local\Temp\cc65HANE.s 			page 169


 8324 0078 00       		.byte	0
 8325 0079 03       		.uleb128 0x3
 8326 007a 0E       		.uleb128 0xe
 8327 007b 3A       		.uleb128 0x3a
 8328 007c 0B       		.uleb128 0xb
 8329 007d 3B       		.uleb128 0x3b
 8330 007e 0B       		.uleb128 0xb
 8331 007f 49       		.uleb128 0x49
 8332 0080 13       		.uleb128 0x13
 8333 0081 38       		.uleb128 0x38
 8334 0082 0B       		.uleb128 0xb
 8335 0083 00       		.byte	0
 8336 0084 00       		.byte	0
 8337 0085 0C       		.uleb128 0xc
 8338 0086 0D       		.uleb128 0xd
 8339 0087 00       		.byte	0
 8340 0088 03       		.uleb128 0x3
 8341 0089 0E       		.uleb128 0xe
 8342 008a 3A       		.uleb128 0x3a
 8343 008b 0B       		.uleb128 0xb
 8344 008c 3B       		.uleb128 0x3b
 8345 008d 0B       		.uleb128 0xb
 8346 008e 49       		.uleb128 0x49
 8347 008f 13       		.uleb128 0x13
 8348 0090 0B       		.uleb128 0xb
 8349 0091 0B       		.uleb128 0xb
 8350 0092 0D       		.uleb128 0xd
 8351 0093 0B       		.uleb128 0xb
 8352 0094 0C       		.uleb128 0xc
 8353 0095 0B       		.uleb128 0xb
 8354 0096 38       		.uleb128 0x38
 8355 0097 0B       		.uleb128 0xb
 8356 0098 00       		.byte	0
 8357 0099 00       		.byte	0
 8358 009a 0D       		.uleb128 0xd
 8359 009b 0F       		.uleb128 0xf
 8360 009c 00       		.byte	0
 8361 009d 0B       		.uleb128 0xb
 8362 009e 0B       		.uleb128 0xb
 8363 009f 00       		.byte	0
 8364 00a0 00       		.byte	0
 8365 00a1 0E       		.uleb128 0xe
 8366 00a2 26       		.uleb128 0x26
 8367 00a3 00       		.byte	0
 8368 00a4 49       		.uleb128 0x49
 8369 00a5 13       		.uleb128 0x13
 8370 00a6 00       		.byte	0
 8371 00a7 00       		.byte	0
 8372 00a8 0F       		.uleb128 0xf
 8373 00a9 13       		.uleb128 0x13
 8374 00aa 01       		.byte	0x1
 8375 00ab 0B       		.uleb128 0xb
 8376 00ac 0B       		.uleb128 0xb
 8377 00ad 3A       		.uleb128 0x3a
 8378 00ae 0B       		.uleb128 0xb
 8379 00af 3B       		.uleb128 0x3b
 8380 00b0 0B       		.uleb128 0xb
ARM GAS  C:\Users\haske\AppData\Local\Temp\cc65HANE.s 			page 170


 8381 00b1 01       		.uleb128 0x1
 8382 00b2 13       		.uleb128 0x13
 8383 00b3 00       		.byte	0
 8384 00b4 00       		.byte	0
 8385 00b5 10       		.uleb128 0x10
 8386 00b6 0D       		.uleb128 0xd
 8387 00b7 00       		.byte	0
 8388 00b8 03       		.uleb128 0x3
 8389 00b9 08       		.uleb128 0x8
 8390 00ba 3A       		.uleb128 0x3a
 8391 00bb 0B       		.uleb128 0xb
 8392 00bc 3B       		.uleb128 0x3b
 8393 00bd 0B       		.uleb128 0xb
 8394 00be 49       		.uleb128 0x49
 8395 00bf 13       		.uleb128 0x13
 8396 00c0 38       		.uleb128 0x38
 8397 00c1 0B       		.uleb128 0xb
 8398 00c2 00       		.byte	0
 8399 00c3 00       		.byte	0
 8400 00c4 11       		.uleb128 0x11
 8401 00c5 0D       		.uleb128 0xd
 8402 00c6 00       		.byte	0
 8403 00c7 03       		.uleb128 0x3
 8404 00c8 08       		.uleb128 0x8
 8405 00c9 3A       		.uleb128 0x3a
 8406 00ca 0B       		.uleb128 0xb
 8407 00cb 3B       		.uleb128 0x3b
 8408 00cc 0B       		.uleb128 0xb
 8409 00cd 49       		.uleb128 0x49
 8410 00ce 13       		.uleb128 0x13
 8411 00cf 0B       		.uleb128 0xb
 8412 00d0 0B       		.uleb128 0xb
 8413 00d1 0D       		.uleb128 0xd
 8414 00d2 0B       		.uleb128 0xb
 8415 00d3 0C       		.uleb128 0xc
 8416 00d4 0B       		.uleb128 0xb
 8417 00d5 38       		.uleb128 0x38
 8418 00d6 0B       		.uleb128 0xb
 8419 00d7 00       		.byte	0
 8420 00d8 00       		.byte	0
 8421 00d9 12       		.uleb128 0x12
 8422 00da 15       		.uleb128 0x15
 8423 00db 01       		.byte	0x1
 8424 00dc 27       		.uleb128 0x27
 8425 00dd 19       		.uleb128 0x19
 8426 00de 49       		.uleb128 0x49
 8427 00df 13       		.uleb128 0x13
 8428 00e0 01       		.uleb128 0x1
 8429 00e1 13       		.uleb128 0x13
 8430 00e2 00       		.byte	0
 8431 00e3 00       		.byte	0
 8432 00e4 13       		.uleb128 0x13
 8433 00e5 26       		.uleb128 0x26
 8434 00e6 00       		.byte	0
 8435 00e7 00       		.byte	0
 8436 00e8 00       		.byte	0
 8437 00e9 14       		.uleb128 0x14
ARM GAS  C:\Users\haske\AppData\Local\Temp\cc65HANE.s 			page 171


 8438 00ea 17       		.uleb128 0x17
 8439 00eb 01       		.byte	0x1
 8440 00ec 0B       		.uleb128 0xb
 8441 00ed 0B       		.uleb128 0xb
 8442 00ee 3A       		.uleb128 0x3a
 8443 00ef 0B       		.uleb128 0xb
 8444 00f0 3B       		.uleb128 0x3b
 8445 00f1 0B       		.uleb128 0xb
 8446 00f2 01       		.uleb128 0x1
 8447 00f3 13       		.uleb128 0x13
 8448 00f4 00       		.byte	0
 8449 00f5 00       		.byte	0
 8450 00f6 15       		.uleb128 0x15
 8451 00f7 0D       		.uleb128 0xd
 8452 00f8 00       		.byte	0
 8453 00f9 03       		.uleb128 0x3
 8454 00fa 08       		.uleb128 0x8
 8455 00fb 3A       		.uleb128 0x3a
 8456 00fc 0B       		.uleb128 0xb
 8457 00fd 3B       		.uleb128 0x3b
 8458 00fe 0B       		.uleb128 0xb
 8459 00ff 49       		.uleb128 0x49
 8460 0100 13       		.uleb128 0x13
 8461 0101 00       		.byte	0
 8462 0102 00       		.byte	0
 8463 0103 16       		.uleb128 0x16
 8464 0104 0D       		.uleb128 0xd
 8465 0105 00       		.byte	0
 8466 0106 03       		.uleb128 0x3
 8467 0107 0E       		.uleb128 0xe
 8468 0108 3A       		.uleb128 0x3a
 8469 0109 0B       		.uleb128 0xb
 8470 010a 3B       		.uleb128 0x3b
 8471 010b 0B       		.uleb128 0xb
 8472 010c 49       		.uleb128 0x49
 8473 010d 13       		.uleb128 0x13
 8474 010e 00       		.byte	0
 8475 010f 00       		.byte	0
 8476 0110 17       		.uleb128 0x17
 8477 0111 01       		.uleb128 0x1
 8478 0112 01       		.byte	0x1
 8479 0113 49       		.uleb128 0x49
 8480 0114 13       		.uleb128 0x13
 8481 0115 01       		.uleb128 0x1
 8482 0116 13       		.uleb128 0x13
 8483 0117 00       		.byte	0
 8484 0118 00       		.byte	0
 8485 0119 18       		.uleb128 0x18
 8486 011a 21       		.uleb128 0x21
 8487 011b 00       		.byte	0
 8488 011c 49       		.uleb128 0x49
 8489 011d 13       		.uleb128 0x13
 8490 011e 2F       		.uleb128 0x2f
 8491 011f 0B       		.uleb128 0xb
 8492 0120 00       		.byte	0
 8493 0121 00       		.byte	0
 8494 0122 19       		.uleb128 0x19
ARM GAS  C:\Users\haske\AppData\Local\Temp\cc65HANE.s 			page 172


 8495 0123 28       		.uleb128 0x28
 8496 0124 00       		.byte	0
 8497 0125 03       		.uleb128 0x3
 8498 0126 0E       		.uleb128 0xe
 8499 0127 1C       		.uleb128 0x1c
 8500 0128 05       		.uleb128 0x5
 8501 0129 00       		.byte	0
 8502 012a 00       		.byte	0
 8503 012b 1A       		.uleb128 0x1a
 8504 012c 16       		.uleb128 0x16
 8505 012d 00       		.byte	0
 8506 012e 03       		.uleb128 0x3
 8507 012f 0E       		.uleb128 0xe
 8508 0130 3A       		.uleb128 0x3a
 8509 0131 0B       		.uleb128 0xb
 8510 0132 3B       		.uleb128 0x3b
 8511 0133 05       		.uleb128 0x5
 8512 0134 49       		.uleb128 0x49
 8513 0135 13       		.uleb128 0x13
 8514 0136 00       		.byte	0
 8515 0137 00       		.byte	0
 8516 0138 1B       		.uleb128 0x1b
 8517 0139 13       		.uleb128 0x13
 8518 013a 01       		.byte	0x1
 8519 013b 0B       		.uleb128 0xb
 8520 013c 0B       		.uleb128 0xb
 8521 013d 3A       		.uleb128 0x3a
 8522 013e 0B       		.uleb128 0xb
 8523 013f 3B       		.uleb128 0x3b
 8524 0140 05       		.uleb128 0x5
 8525 0141 01       		.uleb128 0x1
 8526 0142 13       		.uleb128 0x13
 8527 0143 00       		.byte	0
 8528 0144 00       		.byte	0
 8529 0145 1C       		.uleb128 0x1c
 8530 0146 0D       		.uleb128 0xd
 8531 0147 00       		.byte	0
 8532 0148 03       		.uleb128 0x3
 8533 0149 0E       		.uleb128 0xe
 8534 014a 3A       		.uleb128 0x3a
 8535 014b 0B       		.uleb128 0xb
 8536 014c 3B       		.uleb128 0x3b
 8537 014d 05       		.uleb128 0x5
 8538 014e 49       		.uleb128 0x49
 8539 014f 13       		.uleb128 0x13
 8540 0150 38       		.uleb128 0x38
 8541 0151 0B       		.uleb128 0xb
 8542 0152 00       		.byte	0
 8543 0153 00       		.byte	0
 8544 0154 1D       		.uleb128 0x1d
 8545 0155 17       		.uleb128 0x17
 8546 0156 01       		.byte	0x1
 8547 0157 0B       		.uleb128 0xb
 8548 0158 0B       		.uleb128 0xb
 8549 0159 3A       		.uleb128 0x3a
 8550 015a 0B       		.uleb128 0xb
 8551 015b 3B       		.uleb128 0x3b
ARM GAS  C:\Users\haske\AppData\Local\Temp\cc65HANE.s 			page 173


 8552 015c 05       		.uleb128 0x5
 8553 015d 01       		.uleb128 0x1
 8554 015e 13       		.uleb128 0x13
 8555 015f 00       		.byte	0
 8556 0160 00       		.byte	0
 8557 0161 1E       		.uleb128 0x1e
 8558 0162 0D       		.uleb128 0xd
 8559 0163 00       		.byte	0
 8560 0164 03       		.uleb128 0x3
 8561 0165 0E       		.uleb128 0xe
 8562 0166 3A       		.uleb128 0x3a
 8563 0167 0B       		.uleb128 0xb
 8564 0168 3B       		.uleb128 0x3b
 8565 0169 05       		.uleb128 0x5
 8566 016a 49       		.uleb128 0x49
 8567 016b 13       		.uleb128 0x13
 8568 016c 00       		.byte	0
 8569 016d 00       		.byte	0
 8570 016e 1F       		.uleb128 0x1f
 8571 016f 0D       		.uleb128 0xd
 8572 0170 00       		.byte	0
 8573 0171 03       		.uleb128 0x3
 8574 0172 08       		.uleb128 0x8
 8575 0173 3A       		.uleb128 0x3a
 8576 0174 0B       		.uleb128 0xb
 8577 0175 3B       		.uleb128 0x3b
 8578 0176 05       		.uleb128 0x5
 8579 0177 49       		.uleb128 0x49
 8580 0178 13       		.uleb128 0x13
 8581 0179 38       		.uleb128 0x38
 8582 017a 0B       		.uleb128 0xb
 8583 017b 00       		.byte	0
 8584 017c 00       		.byte	0
 8585 017d 20       		.uleb128 0x20
 8586 017e 35       		.uleb128 0x35
 8587 017f 00       		.byte	0
 8588 0180 49       		.uleb128 0x49
 8589 0181 13       		.uleb128 0x13
 8590 0182 00       		.byte	0
 8591 0183 00       		.byte	0
 8592 0184 21       		.uleb128 0x21
 8593 0185 13       		.uleb128 0x13
 8594 0186 01       		.byte	0x1
 8595 0187 03       		.uleb128 0x3
 8596 0188 0E       		.uleb128 0xe
 8597 0189 0B       		.uleb128 0xb
 8598 018a 05       		.uleb128 0x5
 8599 018b 3A       		.uleb128 0x3a
 8600 018c 0B       		.uleb128 0xb
 8601 018d 3B       		.uleb128 0x3b
 8602 018e 0B       		.uleb128 0xb
 8603 018f 01       		.uleb128 0x1
 8604 0190 13       		.uleb128 0x13
 8605 0191 00       		.byte	0
 8606 0192 00       		.byte	0
 8607 0193 22       		.uleb128 0x22
 8608 0194 0D       		.uleb128 0xd
ARM GAS  C:\Users\haske\AppData\Local\Temp\cc65HANE.s 			page 174


 8609 0195 00       		.byte	0
 8610 0196 03       		.uleb128 0x3
 8611 0197 0E       		.uleb128 0xe
 8612 0198 3A       		.uleb128 0x3a
 8613 0199 0B       		.uleb128 0xb
 8614 019a 3B       		.uleb128 0x3b
 8615 019b 0B       		.uleb128 0xb
 8616 019c 49       		.uleb128 0x49
 8617 019d 13       		.uleb128 0x13
 8618 019e 38       		.uleb128 0x38
 8619 019f 05       		.uleb128 0x5
 8620 01a0 00       		.byte	0
 8621 01a1 00       		.byte	0
 8622 01a2 23       		.uleb128 0x23
 8623 01a3 28       		.uleb128 0x28
 8624 01a4 00       		.byte	0
 8625 01a5 03       		.uleb128 0x3
 8626 01a6 0E       		.uleb128 0xe
 8627 01a7 1C       		.uleb128 0x1c
 8628 01a8 06       		.uleb128 0x6
 8629 01a9 00       		.byte	0
 8630 01aa 00       		.byte	0
 8631 01ab 24       		.uleb128 0x24
 8632 01ac 13       		.uleb128 0x13
 8633 01ad 00       		.byte	0
 8634 01ae 03       		.uleb128 0x3
 8635 01af 0E       		.uleb128 0xe
 8636 01b0 3C       		.uleb128 0x3c
 8637 01b1 19       		.uleb128 0x19
 8638 01b2 00       		.byte	0
 8639 01b3 00       		.byte	0
 8640 01b4 25       		.uleb128 0x25
 8641 01b5 2E       		.uleb128 0x2e
 8642 01b6 01       		.byte	0x1
 8643 01b7 03       		.uleb128 0x3
 8644 01b8 0E       		.uleb128 0xe
 8645 01b9 3A       		.uleb128 0x3a
 8646 01ba 0B       		.uleb128 0xb
 8647 01bb 3B       		.uleb128 0x3b
 8648 01bc 05       		.uleb128 0x5
 8649 01bd 27       		.uleb128 0x27
 8650 01be 19       		.uleb128 0x19
 8651 01bf 49       		.uleb128 0x49
 8652 01c0 13       		.uleb128 0x13
 8653 01c1 20       		.uleb128 0x20
 8654 01c2 0B       		.uleb128 0xb
 8655 01c3 01       		.uleb128 0x1
 8656 01c4 13       		.uleb128 0x13
 8657 01c5 00       		.byte	0
 8658 01c6 00       		.byte	0
 8659 01c7 26       		.uleb128 0x26
 8660 01c8 05       		.uleb128 0x5
 8661 01c9 00       		.byte	0
 8662 01ca 03       		.uleb128 0x3
 8663 01cb 08       		.uleb128 0x8
 8664 01cc 3A       		.uleb128 0x3a
 8665 01cd 0B       		.uleb128 0xb
ARM GAS  C:\Users\haske\AppData\Local\Temp\cc65HANE.s 			page 175


 8666 01ce 3B       		.uleb128 0x3b
 8667 01cf 05       		.uleb128 0x5
 8668 01d0 49       		.uleb128 0x49
 8669 01d1 13       		.uleb128 0x13
 8670 01d2 00       		.byte	0
 8671 01d3 00       		.byte	0
 8672 01d4 27       		.uleb128 0x27
 8673 01d5 05       		.uleb128 0x5
 8674 01d6 00       		.byte	0
 8675 01d7 03       		.uleb128 0x3
 8676 01d8 0E       		.uleb128 0xe
 8677 01d9 3A       		.uleb128 0x3a
 8678 01da 0B       		.uleb128 0xb
 8679 01db 3B       		.uleb128 0x3b
 8680 01dc 05       		.uleb128 0x5
 8681 01dd 49       		.uleb128 0x49
 8682 01de 13       		.uleb128 0x13
 8683 01df 00       		.byte	0
 8684 01e0 00       		.byte	0
 8685 01e1 28       		.uleb128 0x28
 8686 01e2 34       		.uleb128 0x34
 8687 01e3 00       		.byte	0
 8688 01e4 03       		.uleb128 0x3
 8689 01e5 08       		.uleb128 0x8
 8690 01e6 3A       		.uleb128 0x3a
 8691 01e7 0B       		.uleb128 0xb
 8692 01e8 3B       		.uleb128 0x3b
 8693 01e9 05       		.uleb128 0x5
 8694 01ea 49       		.uleb128 0x49
 8695 01eb 13       		.uleb128 0x13
 8696 01ec 00       		.byte	0
 8697 01ed 00       		.byte	0
 8698 01ee 29       		.uleb128 0x29
 8699 01ef 2E       		.uleb128 0x2e
 8700 01f0 01       		.byte	0x1
 8701 01f1 03       		.uleb128 0x3
 8702 01f2 0E       		.uleb128 0xe
 8703 01f3 3A       		.uleb128 0x3a
 8704 01f4 0B       		.uleb128 0xb
 8705 01f5 3B       		.uleb128 0x3b
 8706 01f6 0B       		.uleb128 0xb
 8707 01f7 27       		.uleb128 0x27
 8708 01f8 19       		.uleb128 0x19
 8709 01f9 49       		.uleb128 0x49
 8710 01fa 13       		.uleb128 0x13
 8711 01fb 20       		.uleb128 0x20
 8712 01fc 0B       		.uleb128 0xb
 8713 01fd 01       		.uleb128 0x1
 8714 01fe 13       		.uleb128 0x13
 8715 01ff 00       		.byte	0
 8716 0200 00       		.byte	0
 8717 0201 2A       		.uleb128 0x2a
 8718 0202 05       		.uleb128 0x5
 8719 0203 00       		.byte	0
 8720 0204 03       		.uleb128 0x3
 8721 0205 08       		.uleb128 0x8
 8722 0206 3A       		.uleb128 0x3a
ARM GAS  C:\Users\haske\AppData\Local\Temp\cc65HANE.s 			page 176


 8723 0207 0B       		.uleb128 0xb
 8724 0208 3B       		.uleb128 0x3b
 8725 0209 0B       		.uleb128 0xb
 8726 020a 49       		.uleb128 0x49
 8727 020b 13       		.uleb128 0x13
 8728 020c 00       		.byte	0
 8729 020d 00       		.byte	0
 8730 020e 2B       		.uleb128 0x2b
 8731 020f 05       		.uleb128 0x5
 8732 0210 00       		.byte	0
 8733 0211 03       		.uleb128 0x3
 8734 0212 0E       		.uleb128 0xe
 8735 0213 3A       		.uleb128 0x3a
 8736 0214 0B       		.uleb128 0xb
 8737 0215 3B       		.uleb128 0x3b
 8738 0216 0B       		.uleb128 0xb
 8739 0217 49       		.uleb128 0x49
 8740 0218 13       		.uleb128 0x13
 8741 0219 00       		.byte	0
 8742 021a 00       		.byte	0
 8743 021b 2C       		.uleb128 0x2c
 8744 021c 34       		.uleb128 0x34
 8745 021d 00       		.byte	0
 8746 021e 03       		.uleb128 0x3
 8747 021f 08       		.uleb128 0x8
 8748 0220 3A       		.uleb128 0x3a
 8749 0221 0B       		.uleb128 0xb
 8750 0222 3B       		.uleb128 0x3b
 8751 0223 0B       		.uleb128 0xb
 8752 0224 49       		.uleb128 0x49
 8753 0225 13       		.uleb128 0x13
 8754 0226 00       		.byte	0
 8755 0227 00       		.byte	0
 8756 0228 2D       		.uleb128 0x2d
 8757 0229 2E       		.uleb128 0x2e
 8758 022a 01       		.byte	0x1
 8759 022b 03       		.uleb128 0x3
 8760 022c 0E       		.uleb128 0xe
 8761 022d 3A       		.uleb128 0x3a
 8762 022e 0B       		.uleb128 0xb
 8763 022f 3B       		.uleb128 0x3b
 8764 0230 05       		.uleb128 0x5
 8765 0231 27       		.uleb128 0x27
 8766 0232 19       		.uleb128 0x19
 8767 0233 11       		.uleb128 0x11
 8768 0234 01       		.uleb128 0x1
 8769 0235 12       		.uleb128 0x12
 8770 0236 06       		.uleb128 0x6
 8771 0237 40       		.uleb128 0x40
 8772 0238 18       		.uleb128 0x18
 8773 0239 9742     		.uleb128 0x2117
 8774 023b 19       		.uleb128 0x19
 8775 023c 01       		.uleb128 0x1
 8776 023d 13       		.uleb128 0x13
 8777 023e 00       		.byte	0
 8778 023f 00       		.byte	0
 8779 0240 2E       		.uleb128 0x2e
ARM GAS  C:\Users\haske\AppData\Local\Temp\cc65HANE.s 			page 177


 8780 0241 05       		.uleb128 0x5
 8781 0242 00       		.byte	0
 8782 0243 03       		.uleb128 0x3
 8783 0244 0E       		.uleb128 0xe
 8784 0245 3A       		.uleb128 0x3a
 8785 0246 0B       		.uleb128 0xb
 8786 0247 3B       		.uleb128 0x3b
 8787 0248 05       		.uleb128 0x5
 8788 0249 49       		.uleb128 0x49
 8789 024a 13       		.uleb128 0x13
 8790 024b 02       		.uleb128 0x2
 8791 024c 17       		.uleb128 0x17
 8792 024d 00       		.byte	0
 8793 024e 00       		.byte	0
 8794 024f 2F       		.uleb128 0x2f
 8795 0250 05       		.uleb128 0x5
 8796 0251 00       		.byte	0
 8797 0252 03       		.uleb128 0x3
 8798 0253 08       		.uleb128 0x8
 8799 0254 3A       		.uleb128 0x3a
 8800 0255 0B       		.uleb128 0xb
 8801 0256 3B       		.uleb128 0x3b
 8802 0257 05       		.uleb128 0x5
 8803 0258 49       		.uleb128 0x49
 8804 0259 13       		.uleb128 0x13
 8805 025a 02       		.uleb128 0x2
 8806 025b 17       		.uleb128 0x17
 8807 025c 00       		.byte	0
 8808 025d 00       		.byte	0
 8809 025e 30       		.uleb128 0x30
 8810 025f 34       		.uleb128 0x34
 8811 0260 00       		.byte	0
 8812 0261 03       		.uleb128 0x3
 8813 0262 0E       		.uleb128 0xe
 8814 0263 3A       		.uleb128 0x3a
 8815 0264 0B       		.uleb128 0xb
 8816 0265 3B       		.uleb128 0x3b
 8817 0266 05       		.uleb128 0x5
 8818 0267 49       		.uleb128 0x49
 8819 0268 13       		.uleb128 0x13
 8820 0269 02       		.uleb128 0x2
 8821 026a 17       		.uleb128 0x17
 8822 026b 00       		.byte	0
 8823 026c 00       		.byte	0
 8824 026d 31       		.uleb128 0x31
 8825 026e 34       		.uleb128 0x34
 8826 026f 00       		.byte	0
 8827 0270 03       		.uleb128 0x3
 8828 0271 08       		.uleb128 0x8
 8829 0272 3A       		.uleb128 0x3a
 8830 0273 0B       		.uleb128 0xb
 8831 0274 3B       		.uleb128 0x3b
 8832 0275 05       		.uleb128 0x5
 8833 0276 49       		.uleb128 0x49
 8834 0277 13       		.uleb128 0x13
 8835 0278 02       		.uleb128 0x2
 8836 0279 17       		.uleb128 0x17
ARM GAS  C:\Users\haske\AppData\Local\Temp\cc65HANE.s 			page 178


 8837 027a 00       		.byte	0
 8838 027b 00       		.byte	0
 8839 027c 32       		.uleb128 0x32
 8840 027d 898201   		.uleb128 0x4109
 8841 0280 00       		.byte	0
 8842 0281 11       		.uleb128 0x11
 8843 0282 01       		.uleb128 0x1
 8844 0283 31       		.uleb128 0x31
 8845 0284 13       		.uleb128 0x13
 8846 0285 00       		.byte	0
 8847 0286 00       		.byte	0
 8848 0287 33       		.uleb128 0x33
 8849 0288 2E       		.uleb128 0x2e
 8850 0289 01       		.byte	0x1
 8851 028a 03       		.uleb128 0x3
 8852 028b 0E       		.uleb128 0xe
 8853 028c 3A       		.uleb128 0x3a
 8854 028d 0B       		.uleb128 0xb
 8855 028e 3B       		.uleb128 0x3b
 8856 028f 0B       		.uleb128 0xb
 8857 0290 27       		.uleb128 0x27
 8858 0291 19       		.uleb128 0x19
 8859 0292 11       		.uleb128 0x11
 8860 0293 01       		.uleb128 0x1
 8861 0294 12       		.uleb128 0x12
 8862 0295 06       		.uleb128 0x6
 8863 0296 40       		.uleb128 0x40
 8864 0297 18       		.uleb128 0x18
 8865 0298 9742     		.uleb128 0x2117
 8866 029a 19       		.uleb128 0x19
 8867 029b 01       		.uleb128 0x1
 8868 029c 13       		.uleb128 0x13
 8869 029d 00       		.byte	0
 8870 029e 00       		.byte	0
 8871 029f 34       		.uleb128 0x34
 8872 02a0 05       		.uleb128 0x5
 8873 02a1 00       		.byte	0
 8874 02a2 03       		.uleb128 0x3
 8875 02a3 0E       		.uleb128 0xe
 8876 02a4 3A       		.uleb128 0x3a
 8877 02a5 0B       		.uleb128 0xb
 8878 02a6 3B       		.uleb128 0x3b
 8879 02a7 0B       		.uleb128 0xb
 8880 02a8 49       		.uleb128 0x49
 8881 02a9 13       		.uleb128 0x13
 8882 02aa 02       		.uleb128 0x2
 8883 02ab 17       		.uleb128 0x17
 8884 02ac 00       		.byte	0
 8885 02ad 00       		.byte	0
 8886 02ae 35       		.uleb128 0x35
 8887 02af 05       		.uleb128 0x5
 8888 02b0 00       		.byte	0
 8889 02b1 03       		.uleb128 0x3
 8890 02b2 08       		.uleb128 0x8
 8891 02b3 3A       		.uleb128 0x3a
 8892 02b4 0B       		.uleb128 0xb
 8893 02b5 3B       		.uleb128 0x3b
ARM GAS  C:\Users\haske\AppData\Local\Temp\cc65HANE.s 			page 179


 8894 02b6 0B       		.uleb128 0xb
 8895 02b7 49       		.uleb128 0x49
 8896 02b8 13       		.uleb128 0x13
 8897 02b9 02       		.uleb128 0x2
 8898 02ba 17       		.uleb128 0x17
 8899 02bb 00       		.byte	0
 8900 02bc 00       		.byte	0
 8901 02bd 36       		.uleb128 0x36
 8902 02be 34       		.uleb128 0x34
 8903 02bf 00       		.byte	0
 8904 02c0 03       		.uleb128 0x3
 8905 02c1 0E       		.uleb128 0xe
 8906 02c2 3A       		.uleb128 0x3a
 8907 02c3 0B       		.uleb128 0xb
 8908 02c4 3B       		.uleb128 0x3b
 8909 02c5 0B       		.uleb128 0xb
 8910 02c6 49       		.uleb128 0x49
 8911 02c7 13       		.uleb128 0x13
 8912 02c8 02       		.uleb128 0x2
 8913 02c9 17       		.uleb128 0x17
 8914 02ca 00       		.byte	0
 8915 02cb 00       		.byte	0
 8916 02cc 37       		.uleb128 0x37
 8917 02cd 34       		.uleb128 0x34
 8918 02ce 00       		.byte	0
 8919 02cf 03       		.uleb128 0x3
 8920 02d0 08       		.uleb128 0x8
 8921 02d1 3A       		.uleb128 0x3a
 8922 02d2 0B       		.uleb128 0xb
 8923 02d3 3B       		.uleb128 0x3b
 8924 02d4 0B       		.uleb128 0xb
 8925 02d5 49       		.uleb128 0x49
 8926 02d6 13       		.uleb128 0x13
 8927 02d7 02       		.uleb128 0x2
 8928 02d8 17       		.uleb128 0x17
 8929 02d9 00       		.byte	0
 8930 02da 00       		.byte	0
 8931 02db 38       		.uleb128 0x38
 8932 02dc 898201   		.uleb128 0x4109
 8933 02df 01       		.byte	0x1
 8934 02e0 11       		.uleb128 0x11
 8935 02e1 01       		.uleb128 0x1
 8936 02e2 31       		.uleb128 0x31
 8937 02e3 13       		.uleb128 0x13
 8938 02e4 01       		.uleb128 0x1
 8939 02e5 13       		.uleb128 0x13
 8940 02e6 00       		.byte	0
 8941 02e7 00       		.byte	0
 8942 02e8 39       		.uleb128 0x39
 8943 02e9 8A8201   		.uleb128 0x410a
 8944 02ec 00       		.byte	0
 8945 02ed 02       		.uleb128 0x2
 8946 02ee 18       		.uleb128 0x18
 8947 02ef 9142     		.uleb128 0x2111
 8948 02f1 18       		.uleb128 0x18
 8949 02f2 00       		.byte	0
 8950 02f3 00       		.byte	0
ARM GAS  C:\Users\haske\AppData\Local\Temp\cc65HANE.s 			page 180


 8951 02f4 3A       		.uleb128 0x3a
 8952 02f5 898201   		.uleb128 0x4109
 8953 02f8 01       		.byte	0x1
 8954 02f9 11       		.uleb128 0x11
 8955 02fa 01       		.uleb128 0x1
 8956 02fb 31       		.uleb128 0x31
 8957 02fc 13       		.uleb128 0x13
 8958 02fd 00       		.byte	0
 8959 02fe 00       		.byte	0
 8960 02ff 3B       		.uleb128 0x3b
 8961 0300 2E       		.uleb128 0x2e
 8962 0301 01       		.byte	0x1
 8963 0302 3F       		.uleb128 0x3f
 8964 0303 19       		.uleb128 0x19
 8965 0304 03       		.uleb128 0x3
 8966 0305 0E       		.uleb128 0xe
 8967 0306 3A       		.uleb128 0x3a
 8968 0307 0B       		.uleb128 0xb
 8969 0308 3B       		.uleb128 0x3b
 8970 0309 0B       		.uleb128 0xb
 8971 030a 27       		.uleb128 0x27
 8972 030b 19       		.uleb128 0x19
 8973 030c 49       		.uleb128 0x49
 8974 030d 13       		.uleb128 0x13
 8975 030e 11       		.uleb128 0x11
 8976 030f 01       		.uleb128 0x1
 8977 0310 12       		.uleb128 0x12
 8978 0311 06       		.uleb128 0x6
 8979 0312 40       		.uleb128 0x40
 8980 0313 18       		.uleb128 0x18
 8981 0314 9742     		.uleb128 0x2117
 8982 0316 19       		.uleb128 0x19
 8983 0317 01       		.uleb128 0x1
 8984 0318 13       		.uleb128 0x13
 8985 0319 00       		.byte	0
 8986 031a 00       		.byte	0
 8987 031b 3C       		.uleb128 0x3c
 8988 031c 2E       		.uleb128 0x2e
 8989 031d 01       		.byte	0x1
 8990 031e 3F       		.uleb128 0x3f
 8991 031f 19       		.uleb128 0x19
 8992 0320 03       		.uleb128 0x3
 8993 0321 0E       		.uleb128 0xe
 8994 0322 3A       		.uleb128 0x3a
 8995 0323 0B       		.uleb128 0xb
 8996 0324 3B       		.uleb128 0x3b
 8997 0325 0B       		.uleb128 0xb
 8998 0326 27       		.uleb128 0x27
 8999 0327 19       		.uleb128 0x19
 9000 0328 11       		.uleb128 0x11
 9001 0329 01       		.uleb128 0x1
 9002 032a 12       		.uleb128 0x12
 9003 032b 06       		.uleb128 0x6
 9004 032c 40       		.uleb128 0x40
 9005 032d 18       		.uleb128 0x18
 9006 032e 9742     		.uleb128 0x2117
 9007 0330 19       		.uleb128 0x19
ARM GAS  C:\Users\haske\AppData\Local\Temp\cc65HANE.s 			page 181


 9008 0331 01       		.uleb128 0x1
 9009 0332 13       		.uleb128 0x13
 9010 0333 00       		.byte	0
 9011 0334 00       		.byte	0
 9012 0335 3D       		.uleb128 0x3d
 9013 0336 0B       		.uleb128 0xb
 9014 0337 01       		.byte	0x1
 9015 0338 11       		.uleb128 0x11
 9016 0339 01       		.uleb128 0x1
 9017 033a 12       		.uleb128 0x12
 9018 033b 06       		.uleb128 0x6
 9019 033c 01       		.uleb128 0x1
 9020 033d 13       		.uleb128 0x13
 9021 033e 00       		.byte	0
 9022 033f 00       		.byte	0
 9023 0340 3E       		.uleb128 0x3e
 9024 0341 1D       		.uleb128 0x1d
 9025 0342 01       		.byte	0x1
 9026 0343 31       		.uleb128 0x31
 9027 0344 13       		.uleb128 0x13
 9028 0345 11       		.uleb128 0x11
 9029 0346 01       		.uleb128 0x1
 9030 0347 12       		.uleb128 0x12
 9031 0348 06       		.uleb128 0x6
 9032 0349 58       		.uleb128 0x58
 9033 034a 0B       		.uleb128 0xb
 9034 034b 59       		.uleb128 0x59
 9035 034c 0B       		.uleb128 0xb
 9036 034d 01       		.uleb128 0x1
 9037 034e 13       		.uleb128 0x13
 9038 034f 00       		.byte	0
 9039 0350 00       		.byte	0
 9040 0351 3F       		.uleb128 0x3f
 9041 0352 05       		.uleb128 0x5
 9042 0353 00       		.byte	0
 9043 0354 31       		.uleb128 0x31
 9044 0355 13       		.uleb128 0x13
 9045 0356 02       		.uleb128 0x2
 9046 0357 17       		.uleb128 0x17
 9047 0358 00       		.byte	0
 9048 0359 00       		.byte	0
 9049 035a 40       		.uleb128 0x40
 9050 035b 0B       		.uleb128 0xb
 9051 035c 01       		.byte	0x1
 9052 035d 11       		.uleb128 0x11
 9053 035e 01       		.uleb128 0x1
 9054 035f 12       		.uleb128 0x12
 9055 0360 06       		.uleb128 0x6
 9056 0361 00       		.byte	0
 9057 0362 00       		.byte	0
 9058 0363 41       		.uleb128 0x41
 9059 0364 34       		.uleb128 0x34
 9060 0365 00       		.byte	0
 9061 0366 31       		.uleb128 0x31
 9062 0367 13       		.uleb128 0x13
 9063 0368 00       		.byte	0
 9064 0369 00       		.byte	0
ARM GAS  C:\Users\haske\AppData\Local\Temp\cc65HANE.s 			page 182


 9065 036a 42       		.uleb128 0x42
 9066 036b 34       		.uleb128 0x34
 9067 036c 00       		.byte	0
 9068 036d 03       		.uleb128 0x3
 9069 036e 0E       		.uleb128 0xe
 9070 036f 3A       		.uleb128 0x3a
 9071 0370 0B       		.uleb128 0xb
 9072 0371 3B       		.uleb128 0x3b
 9073 0372 0B       		.uleb128 0xb
 9074 0373 49       		.uleb128 0x49
 9075 0374 13       		.uleb128 0x13
 9076 0375 02       		.uleb128 0x2
 9077 0376 18       		.uleb128 0x18
 9078 0377 00       		.byte	0
 9079 0378 00       		.byte	0
 9080 0379 43       		.uleb128 0x43
 9081 037a 2E       		.uleb128 0x2e
 9082 037b 01       		.byte	0x1
 9083 037c 03       		.uleb128 0x3
 9084 037d 0E       		.uleb128 0xe
 9085 037e 3A       		.uleb128 0x3a
 9086 037f 0B       		.uleb128 0xb
 9087 0380 3B       		.uleb128 0x3b
 9088 0381 05       		.uleb128 0x5
 9089 0382 27       		.uleb128 0x27
 9090 0383 19       		.uleb128 0x19
 9091 0384 11       		.uleb128 0x11
 9092 0385 01       		.uleb128 0x1
 9093 0386 12       		.uleb128 0x12
 9094 0387 06       		.uleb128 0x6
 9095 0388 40       		.uleb128 0x40
 9096 0389 18       		.uleb128 0x18
 9097 038a 9642     		.uleb128 0x2116
 9098 038c 19       		.uleb128 0x19
 9099 038d 01       		.uleb128 0x1
 9100 038e 13       		.uleb128 0x13
 9101 038f 00       		.byte	0
 9102 0390 00       		.byte	0
 9103 0391 44       		.uleb128 0x44
 9104 0392 34       		.uleb128 0x34
 9105 0393 00       		.byte	0
 9106 0394 03       		.uleb128 0x3
 9107 0395 08       		.uleb128 0x8
 9108 0396 3A       		.uleb128 0x3a
 9109 0397 0B       		.uleb128 0xb
 9110 0398 3B       		.uleb128 0x3b
 9111 0399 05       		.uleb128 0x5
 9112 039a 49       		.uleb128 0x49
 9113 039b 13       		.uleb128 0x13
 9114 039c 02       		.uleb128 0x2
 9115 039d 18       		.uleb128 0x18
 9116 039e 00       		.byte	0
 9117 039f 00       		.byte	0
 9118 03a0 45       		.uleb128 0x45
 9119 03a1 1D       		.uleb128 0x1d
 9120 03a2 01       		.byte	0x1
 9121 03a3 31       		.uleb128 0x31
ARM GAS  C:\Users\haske\AppData\Local\Temp\cc65HANE.s 			page 183


 9122 03a4 13       		.uleb128 0x13
 9123 03a5 11       		.uleb128 0x11
 9124 03a6 01       		.uleb128 0x1
 9125 03a7 12       		.uleb128 0x12
 9126 03a8 06       		.uleb128 0x6
 9127 03a9 58       		.uleb128 0x58
 9128 03aa 0B       		.uleb128 0xb
 9129 03ab 59       		.uleb128 0x59
 9130 03ac 05       		.uleb128 0x5
 9131 03ad 01       		.uleb128 0x1
 9132 03ae 13       		.uleb128 0x13
 9133 03af 00       		.byte	0
 9134 03b0 00       		.byte	0
 9135 03b1 46       		.uleb128 0x46
 9136 03b2 34       		.uleb128 0x34
 9137 03b3 00       		.byte	0
 9138 03b4 31       		.uleb128 0x31
 9139 03b5 13       		.uleb128 0x13
 9140 03b6 02       		.uleb128 0x2
 9141 03b7 17       		.uleb128 0x17
 9142 03b8 00       		.byte	0
 9143 03b9 00       		.byte	0
 9144 03ba 47       		.uleb128 0x47
 9145 03bb 34       		.uleb128 0x34
 9146 03bc 00       		.byte	0
 9147 03bd 03       		.uleb128 0x3
 9148 03be 0E       		.uleb128 0xe
 9149 03bf 3A       		.uleb128 0x3a
 9150 03c0 0B       		.uleb128 0xb
 9151 03c1 3B       		.uleb128 0x3b
 9152 03c2 0B       		.uleb128 0xb
 9153 03c3 49       		.uleb128 0x49
 9154 03c4 13       		.uleb128 0x13
 9155 03c5 3F       		.uleb128 0x3f
 9156 03c6 19       		.uleb128 0x19
 9157 03c7 3C       		.uleb128 0x3c
 9158 03c8 19       		.uleb128 0x19
 9159 03c9 00       		.byte	0
 9160 03ca 00       		.byte	0
 9161 03cb 48       		.uleb128 0x48
 9162 03cc 34       		.uleb128 0x34
 9163 03cd 00       		.byte	0
 9164 03ce 03       		.uleb128 0x3
 9165 03cf 0E       		.uleb128 0xe
 9166 03d0 3A       		.uleb128 0x3a
 9167 03d1 0B       		.uleb128 0xb
 9168 03d2 3B       		.uleb128 0x3b
 9169 03d3 0B       		.uleb128 0xb
 9170 03d4 49       		.uleb128 0x49
 9171 03d5 13       		.uleb128 0x13
 9172 03d6 3F       		.uleb128 0x3f
 9173 03d7 19       		.uleb128 0x19
 9174 03d8 02       		.uleb128 0x2
 9175 03d9 18       		.uleb128 0x18
 9176 03da 00       		.byte	0
 9177 03db 00       		.byte	0
 9178 03dc 49       		.uleb128 0x49
ARM GAS  C:\Users\haske\AppData\Local\Temp\cc65HANE.s 			page 184


 9179 03dd 2E       		.uleb128 0x2e
 9180 03de 00       		.byte	0
 9181 03df 3F       		.uleb128 0x3f
 9182 03e0 19       		.uleb128 0x19
 9183 03e1 3C       		.uleb128 0x3c
 9184 03e2 19       		.uleb128 0x19
 9185 03e3 6E       		.uleb128 0x6e
 9186 03e4 0E       		.uleb128 0xe
 9187 03e5 03       		.uleb128 0x3
 9188 03e6 0E       		.uleb128 0xe
 9189 03e7 3A       		.uleb128 0x3a
 9190 03e8 0B       		.uleb128 0xb
 9191 03e9 3B       		.uleb128 0x3b
 9192 03ea 0B       		.uleb128 0xb
 9193 03eb 00       		.byte	0
 9194 03ec 00       		.byte	0
 9195 03ed 4A       		.uleb128 0x4a
 9196 03ee 2E       		.uleb128 0x2e
 9197 03ef 00       		.byte	0
 9198 03f0 3F       		.uleb128 0x3f
 9199 03f1 19       		.uleb128 0x19
 9200 03f2 3C       		.uleb128 0x3c
 9201 03f3 19       		.uleb128 0x19
 9202 03f4 6E       		.uleb128 0x6e
 9203 03f5 0E       		.uleb128 0xe
 9204 03f6 03       		.uleb128 0x3
 9205 03f7 0E       		.uleb128 0xe
 9206 03f8 3A       		.uleb128 0x3a
 9207 03f9 0B       		.uleb128 0xb
 9208 03fa 3B       		.uleb128 0x3b
 9209 03fb 05       		.uleb128 0x5
 9210 03fc 00       		.byte	0
 9211 03fd 00       		.byte	0
 9212 03fe 00       		.byte	0
 9213              		.section	.debug_loc,"",%progbits
 9214              	.Ldebug_loc0:
 9215              	.LLST0:
 9216 0000 00000000 		.4byte	.LVL0
 9217 0004 10000000 		.4byte	.LVL2
 9218 0008 0100     		.2byte	0x1
 9219 000a 50       		.byte	0x50
 9220 000b 10000000 		.4byte	.LVL2
 9221 000f 28000000 		.4byte	.LVL5
 9222 0013 0400     		.2byte	0x4
 9223 0015 F3       		.byte	0xf3
 9224 0016 01       		.uleb128 0x1
 9225 0017 50       		.byte	0x50
 9226 0018 9F       		.byte	0x9f
 9227 0019 28000000 		.4byte	.LVL5
 9228 001d 2A000000 		.4byte	.LVL6
 9229 0021 0100     		.2byte	0x1
 9230 0023 50       		.byte	0x50
 9231 0024 2A000000 		.4byte	.LVL6
 9232 0028 66000000 		.4byte	.LFE210
 9233 002c 0400     		.2byte	0x4
 9234 002e F3       		.byte	0xf3
 9235 002f 01       		.uleb128 0x1
ARM GAS  C:\Users\haske\AppData\Local\Temp\cc65HANE.s 			page 185


 9236 0030 50       		.byte	0x50
 9237 0031 9F       		.byte	0x9f
 9238 0032 00000000 		.4byte	0
 9239 0036 00000000 		.4byte	0
 9240              	.LLST1:
 9241 003a 00000000 		.4byte	.LVL0
 9242 003e 10000000 		.4byte	.LVL2
 9243 0042 0100     		.2byte	0x1
 9244 0044 51       		.byte	0x51
 9245 0045 10000000 		.4byte	.LVL2
 9246 0049 28000000 		.4byte	.LVL5
 9247 004d 0100     		.2byte	0x1
 9248 004f 54       		.byte	0x54
 9249 0050 28000000 		.4byte	.LVL5
 9250 0054 2A000000 		.4byte	.LVL6
 9251 0058 0100     		.2byte	0x1
 9252 005a 51       		.byte	0x51
 9253 005b 2A000000 		.4byte	.LVL6
 9254 005f 64000000 		.4byte	.LVL15
 9255 0063 0100     		.2byte	0x1
 9256 0065 54       		.byte	0x54
 9257 0066 64000000 		.4byte	.LVL15
 9258 006a 66000000 		.4byte	.LFE210
 9259 006e 0400     		.2byte	0x4
 9260 0070 F3       		.byte	0xf3
 9261 0071 01       		.uleb128 0x1
 9262 0072 51       		.byte	0x51
 9263 0073 9F       		.byte	0x9f
 9264 0074 00000000 		.4byte	0
 9265 0078 00000000 		.4byte	0
 9266              	.LLST2:
 9267 007c 04000000 		.4byte	.LVL1
 9268 0080 10000000 		.4byte	.LVL2
 9269 0084 0100     		.2byte	0x1
 9270 0086 51       		.byte	0x51
 9271 0087 10000000 		.4byte	.LVL2
 9272 008b 28000000 		.4byte	.LVL5
 9273 008f 0100     		.2byte	0x1
 9274 0091 54       		.byte	0x54
 9275 0092 28000000 		.4byte	.LVL5
 9276 0096 2A000000 		.4byte	.LVL6
 9277 009a 0100     		.2byte	0x1
 9278 009c 51       		.byte	0x51
 9279 009d 2A000000 		.4byte	.LVL6
 9280 00a1 64000000 		.4byte	.LVL15
 9281 00a5 0100     		.2byte	0x1
 9282 00a7 54       		.byte	0x54
 9283 00a8 64000000 		.4byte	.LVL15
 9284 00ac 66000000 		.4byte	.LFE210
 9285 00b0 0400     		.2byte	0x4
 9286 00b2 F3       		.byte	0xf3
 9287 00b3 01       		.uleb128 0x1
 9288 00b4 51       		.byte	0x51
 9289 00b5 9F       		.byte	0x9f
 9290 00b6 00000000 		.4byte	0
 9291 00ba 00000000 		.4byte	0
 9292              	.LLST3:
ARM GAS  C:\Users\haske\AppData\Local\Temp\cc65HANE.s 			page 186


 9293 00be 10000000 		.4byte	.LVL2
 9294 00c2 28000000 		.4byte	.LVL5
 9295 00c6 0100     		.2byte	0x1
 9296 00c8 56       		.byte	0x56
 9297 00c9 2A000000 		.4byte	.LVL6
 9298 00cd 30000000 		.4byte	.LVL7
 9299 00d1 0100     		.2byte	0x1
 9300 00d3 56       		.byte	0x56
 9301 00d4 3A000000 		.4byte	.LVL8
 9302 00d8 52000000 		.4byte	.LVL11
 9303 00dc 0100     		.2byte	0x1
 9304 00de 56       		.byte	0x56
 9305 00df 54000000 		.4byte	.LVL12
 9306 00e3 5A000000 		.4byte	.LVL13
 9307 00e7 0100     		.2byte	0x1
 9308 00e9 56       		.byte	0x56
 9309 00ea 00000000 		.4byte	0
 9310 00ee 00000000 		.4byte	0
 9311              	.LLST4:
 9312 00f2 00000000 		.4byte	.LVL16
 9313 00f6 26000000 		.4byte	.LVL19
 9314 00fa 0100     		.2byte	0x1
 9315 00fc 50       		.byte	0x50
 9316 00fd 26000000 		.4byte	.LVL19
 9317 0101 2C000000 		.4byte	.LVL21
 9318 0105 0400     		.2byte	0x4
 9319 0107 F3       		.byte	0xf3
 9320 0108 01       		.uleb128 0x1
 9321 0109 50       		.byte	0x50
 9322 010a 9F       		.byte	0x9f
 9323 010b 2C000000 		.4byte	.LVL21
 9324 010f 30000000 		.4byte	.LVL23
 9325 0113 0100     		.2byte	0x1
 9326 0115 50       		.byte	0x50
 9327 0116 30000000 		.4byte	.LVL23
 9328 011a 36000000 		.4byte	.LVL25
 9329 011e 0400     		.2byte	0x4
 9330 0120 F3       		.byte	0xf3
 9331 0121 01       		.uleb128 0x1
 9332 0122 50       		.byte	0x50
 9333 0123 9F       		.byte	0x9f
 9334 0124 36000000 		.4byte	.LVL25
 9335 0128 3A000000 		.4byte	.LVL27
 9336 012c 0100     		.2byte	0x1
 9337 012e 50       		.byte	0x50
 9338 012f 3A000000 		.4byte	.LVL27
 9339 0133 40000000 		.4byte	.LVL29
 9340 0137 0400     		.2byte	0x4
 9341 0139 F3       		.byte	0xf3
 9342 013a 01       		.uleb128 0x1
 9343 013b 50       		.byte	0x50
 9344 013c 9F       		.byte	0x9f
 9345 013d 40000000 		.4byte	.LVL29
 9346 0141 44000000 		.4byte	.LVL31
 9347 0145 0100     		.2byte	0x1
 9348 0147 50       		.byte	0x50
 9349 0148 44000000 		.4byte	.LVL31
ARM GAS  C:\Users\haske\AppData\Local\Temp\cc65HANE.s 			page 187


 9350 014c 64010000 		.4byte	.LFE209
 9351 0150 0400     		.2byte	0x4
 9352 0152 F3       		.byte	0xf3
 9353 0153 01       		.uleb128 0x1
 9354 0154 50       		.byte	0x50
 9355 0155 9F       		.byte	0x9f
 9356 0156 00000000 		.4byte	0
 9357 015a 00000000 		.4byte	0
 9358              	.LLST5:
 9359 015e 00000000 		.4byte	.LVL16
 9360 0162 24000000 		.4byte	.LVL18
 9361 0166 0100     		.2byte	0x1
 9362 0168 51       		.byte	0x51
 9363 0169 24000000 		.4byte	.LVL18
 9364 016d 2C000000 		.4byte	.LVL21
 9365 0171 0100     		.2byte	0x1
 9366 0173 54       		.byte	0x54
 9367 0174 2C000000 		.4byte	.LVL21
 9368 0178 2E000000 		.4byte	.LVL22
 9369 017c 0100     		.2byte	0x1
 9370 017e 51       		.byte	0x51
 9371 017f 2E000000 		.4byte	.LVL22
 9372 0183 36000000 		.4byte	.LVL25
 9373 0187 0100     		.2byte	0x1
 9374 0189 54       		.byte	0x54
 9375 018a 36000000 		.4byte	.LVL25
 9376 018e 38000000 		.4byte	.LVL26
 9377 0192 0100     		.2byte	0x1
 9378 0194 51       		.byte	0x51
 9379 0195 38000000 		.4byte	.LVL26
 9380 0199 40000000 		.4byte	.LVL29
 9381 019d 0100     		.2byte	0x1
 9382 019f 54       		.byte	0x54
 9383 01a0 40000000 		.4byte	.LVL29
 9384 01a4 42000000 		.4byte	.LVL30
 9385 01a8 0100     		.2byte	0x1
 9386 01aa 51       		.byte	0x51
 9387 01ab 42000000 		.4byte	.LVL30
 9388 01af 4E010000 		.4byte	.LVL61
 9389 01b3 0100     		.2byte	0x1
 9390 01b5 54       		.byte	0x54
 9391 01b6 4E010000 		.4byte	.LVL61
 9392 01ba 64010000 		.4byte	.LFE209
 9393 01be 0400     		.2byte	0x4
 9394 01c0 F3       		.byte	0xf3
 9395 01c1 01       		.uleb128 0x1
 9396 01c2 51       		.byte	0x51
 9397 01c3 9F       		.byte	0x9f
 9398 01c4 00000000 		.4byte	0
 9399 01c8 00000000 		.4byte	0
 9400              	.LLST6:
 9401 01cc 04000000 		.4byte	.LVL17
 9402 01d0 24000000 		.4byte	.LVL18
 9403 01d4 0100     		.2byte	0x1
 9404 01d6 51       		.byte	0x51
 9405 01d7 24000000 		.4byte	.LVL18
 9406 01db 2C000000 		.4byte	.LVL21
ARM GAS  C:\Users\haske\AppData\Local\Temp\cc65HANE.s 			page 188


 9407 01df 0100     		.2byte	0x1
 9408 01e1 54       		.byte	0x54
 9409 01e2 2C000000 		.4byte	.LVL21
 9410 01e6 2E000000 		.4byte	.LVL22
 9411 01ea 0100     		.2byte	0x1
 9412 01ec 51       		.byte	0x51
 9413 01ed 2E000000 		.4byte	.LVL22
 9414 01f1 36000000 		.4byte	.LVL25
 9415 01f5 0100     		.2byte	0x1
 9416 01f7 54       		.byte	0x54
 9417 01f8 36000000 		.4byte	.LVL25
 9418 01fc 38000000 		.4byte	.LVL26
 9419 0200 0100     		.2byte	0x1
 9420 0202 51       		.byte	0x51
 9421 0203 38000000 		.4byte	.LVL26
 9422 0207 40000000 		.4byte	.LVL29
 9423 020b 0100     		.2byte	0x1
 9424 020d 54       		.byte	0x54
 9425 020e 40000000 		.4byte	.LVL29
 9426 0212 42000000 		.4byte	.LVL30
 9427 0216 0100     		.2byte	0x1
 9428 0218 51       		.byte	0x51
 9429 0219 42000000 		.4byte	.LVL30
 9430 021d 4E010000 		.4byte	.LVL61
 9431 0221 0100     		.2byte	0x1
 9432 0223 54       		.byte	0x54
 9433 0224 4E010000 		.4byte	.LVL61
 9434 0228 64010000 		.4byte	.LFE209
 9435 022c 0400     		.2byte	0x4
 9436 022e F3       		.byte	0xf3
 9437 022f 01       		.uleb128 0x1
 9438 0230 51       		.byte	0x51
 9439 0231 9F       		.byte	0x9f
 9440 0232 00000000 		.4byte	0
 9441 0236 00000000 		.4byte	0
 9442              	.LLST7:
 9443 023a 5A000000 		.4byte	.LVL35
 9444 023e 5C000000 		.4byte	.LVL36
 9445 0242 0100     		.2byte	0x1
 9446 0244 50       		.byte	0x50
 9447 0245 5C000000 		.4byte	.LVL36
 9448 0249 4E010000 		.4byte	.LVL63
 9449 024d 0100     		.2byte	0x1
 9450 024f 56       		.byte	0x56
 9451 0250 00000000 		.4byte	0
 9452 0254 00000000 		.4byte	0
 9453              	.LLST8:
 9454 0258 62000000 		.4byte	.LVL38
 9455 025c 66000000 		.4byte	.LVL39
 9456 0260 0100     		.2byte	0x1
 9457 0262 50       		.byte	0x50
 9458 0263 66000000 		.4byte	.LVL39
 9459 0267 4E010000 		.4byte	.LVL62
 9460 026b 0100     		.2byte	0x1
 9461 026d 55       		.byte	0x55
 9462 026e 00000000 		.4byte	0
 9463 0272 00000000 		.4byte	0
ARM GAS  C:\Users\haske\AppData\Local\Temp\cc65HANE.s 			page 189


 9464              	.LLST9:
 9465 0276 06010000 		.4byte	.LVL53
 9466 027a 0F010000 		.4byte	.LVL54-1
 9467 027e 0100     		.2byte	0x1
 9468 0280 50       		.byte	0x50
 9469 0281 00000000 		.4byte	0
 9470 0285 00000000 		.4byte	0
 9471              	.LLST10:
 9472 0289 00000000 		.4byte	.LVL64
 9473 028d 0C000000 		.4byte	.LVL66
 9474 0291 0100     		.2byte	0x1
 9475 0293 50       		.byte	0x50
 9476 0294 0C000000 		.4byte	.LVL66
 9477 0298 0F000000 		.4byte	.LVL67-1
 9478 029c 0100     		.2byte	0x1
 9479 029e 51       		.byte	0x51
 9480 029f 0F000000 		.4byte	.LVL67-1
 9481 02a3 24000000 		.4byte	.LFE202
 9482 02a7 0400     		.2byte	0x4
 9483 02a9 F3       		.byte	0xf3
 9484 02aa 01       		.uleb128 0x1
 9485 02ab 50       		.byte	0x50
 9486 02ac 9F       		.byte	0x9f
 9487 02ad 00000000 		.4byte	0
 9488 02b1 00000000 		.4byte	0
 9489              	.LLST11:
 9490 02b5 00000000 		.4byte	.LVL64
 9491 02b9 0A000000 		.4byte	.LVL65
 9492 02bd 0100     		.2byte	0x1
 9493 02bf 51       		.byte	0x51
 9494 02c0 0A000000 		.4byte	.LVL65
 9495 02c4 0F000000 		.4byte	.LVL67-1
 9496 02c8 0500     		.2byte	0x5
 9497 02ca 03       		.byte	0x3
 9498 02cb 00000000 		.4byte	tabpos_create
 9499 02cf 0F000000 		.4byte	.LVL67-1
 9500 02d3 24000000 		.4byte	.LFE202
 9501 02d7 0400     		.2byte	0x4
 9502 02d9 F3       		.byte	0xf3
 9503 02da 01       		.uleb128 0x1
 9504 02db 51       		.byte	0x51
 9505 02dc 9F       		.byte	0x9f
 9506 02dd 00000000 		.4byte	0
 9507 02e1 00000000 		.4byte	0
 9508              	.LLST12:
 9509 02e5 00000000 		.4byte	.LVL64
 9510 02e9 0F000000 		.4byte	.LVL67-1
 9511 02ed 0100     		.2byte	0x1
 9512 02ef 52       		.byte	0x52
 9513 02f0 0F000000 		.4byte	.LVL67-1
 9514 02f4 24000000 		.4byte	.LFE202
 9515 02f8 0400     		.2byte	0x4
 9516 02fa F3       		.byte	0xf3
 9517 02fb 01       		.uleb128 0x1
 9518 02fc 52       		.byte	0x52
 9519 02fd 9F       		.byte	0x9f
 9520 02fe 00000000 		.4byte	0
ARM GAS  C:\Users\haske\AppData\Local\Temp\cc65HANE.s 			page 190


 9521 0302 00000000 		.4byte	0
 9522              	.LLST13:
 9523 0306 12000000 		.4byte	.LVL68
 9524 030a 15000000 		.4byte	.LVL69-1
 9525 030e 0100     		.2byte	0x1
 9526 0310 50       		.byte	0x50
 9527 0311 15000000 		.4byte	.LVL69-1
 9528 0315 18000000 		.4byte	.LVL70
 9529 0319 0100     		.2byte	0x1
 9530 031b 54       		.byte	0x54
 9531 031c 18000000 		.4byte	.LVL70
 9532 0320 24000000 		.4byte	.LFE202
 9533 0324 0100     		.2byte	0x1
 9534 0326 50       		.byte	0x50
 9535 0327 00000000 		.4byte	0
 9536 032b 00000000 		.4byte	0
 9537              	.LLST14:
 9538 032f 00000000 		.4byte	.LVL71
 9539 0333 1C000000 		.4byte	.LVL74
 9540 0337 0100     		.2byte	0x1
 9541 0339 50       		.byte	0x50
 9542 033a 1C000000 		.4byte	.LVL74
 9543 033e 42000000 		.4byte	.LVL80
 9544 0342 0100     		.2byte	0x1
 9545 0344 55       		.byte	0x55
 9546 0345 42000000 		.4byte	.LVL80
 9547 0349 44000000 		.4byte	.LFE204
 9548 034d 0400     		.2byte	0x4
 9549 034f F3       		.byte	0xf3
 9550 0350 01       		.uleb128 0x1
 9551 0351 50       		.byte	0x50
 9552 0352 9F       		.byte	0x9f
 9553 0353 00000000 		.4byte	0
 9554 0357 00000000 		.4byte	0
 9555              	.LLST15:
 9556 035b 00000000 		.4byte	.LVL71
 9557 035f 16000000 		.4byte	.LVL73
 9558 0363 0100     		.2byte	0x1
 9559 0365 51       		.byte	0x51
 9560 0366 16000000 		.4byte	.LVL73
 9561 036a 1F000000 		.4byte	.LVL75-1
 9562 036e 0100     		.2byte	0x1
 9563 0370 51       		.byte	0x51
 9564 0371 00000000 		.4byte	0
 9565 0375 00000000 		.4byte	0
 9566              	.LLST16:
 9567 0379 00000000 		.4byte	.LVL71
 9568 037d 1F000000 		.4byte	.LVL75-1
 9569 0381 0100     		.2byte	0x1
 9570 0383 52       		.byte	0x52
 9571 0384 1F000000 		.4byte	.LVL75-1
 9572 0388 42000000 		.4byte	.LVL81
 9573 038c 0100     		.2byte	0x1
 9574 038e 56       		.byte	0x56
 9575 038f 42000000 		.4byte	.LVL81
 9576 0393 44000000 		.4byte	.LFE204
 9577 0397 0400     		.2byte	0x4
ARM GAS  C:\Users\haske\AppData\Local\Temp\cc65HANE.s 			page 191


 9578 0399 F3       		.byte	0xf3
 9579 039a 01       		.uleb128 0x1
 9580 039b 52       		.byte	0x52
 9581 039c 9F       		.byte	0x9f
 9582 039d 00000000 		.4byte	0
 9583 03a1 00000000 		.4byte	0
 9584              	.LLST17:
 9585 03a5 06000000 		.4byte	.LVL72
 9586 03a9 1C000000 		.4byte	.LVL74
 9587 03ad 0100     		.2byte	0x1
 9588 03af 50       		.byte	0x50
 9589 03b0 1C000000 		.4byte	.LVL74
 9590 03b4 42000000 		.4byte	.LVL80
 9591 03b8 0100     		.2byte	0x1
 9592 03ba 55       		.byte	0x55
 9593 03bb 42000000 		.4byte	.LVL80
 9594 03bf 44000000 		.4byte	.LFE204
 9595 03c3 0400     		.2byte	0x4
 9596 03c5 F3       		.byte	0xf3
 9597 03c6 01       		.uleb128 0x1
 9598 03c7 50       		.byte	0x50
 9599 03c8 9F       		.byte	0x9f
 9600 03c9 00000000 		.4byte	0
 9601 03cd 00000000 		.4byte	0
 9602              	.LLST18:
 9603 03d1 00000000 		.4byte	.LVL82
 9604 03d5 02000000 		.4byte	.LVL83
 9605 03d9 0100     		.2byte	0x1
 9606 03db 50       		.byte	0x50
 9607 03dc 02000000 		.4byte	.LVL83
 9608 03e0 04000000 		.4byte	.LFE206
 9609 03e4 0400     		.2byte	0x4
 9610 03e6 F3       		.byte	0xf3
 9611 03e7 01       		.uleb128 0x1
 9612 03e8 50       		.byte	0x50
 9613 03e9 9F       		.byte	0x9f
 9614 03ea 00000000 		.4byte	0
 9615 03ee 00000000 		.4byte	0
 9616              	.LLST19:
 9617 03f2 00000000 		.4byte	.LVL82
 9618 03f6 02000000 		.4byte	.LVL83
 9619 03fa 0100     		.2byte	0x1
 9620 03fc 50       		.byte	0x50
 9621 03fd 02000000 		.4byte	.LVL83
 9622 0401 04000000 		.4byte	.LFE206
 9623 0405 0400     		.2byte	0x4
 9624 0407 F3       		.byte	0xf3
 9625 0408 01       		.uleb128 0x1
 9626 0409 50       		.byte	0x50
 9627 040a 9F       		.byte	0x9f
 9628 040b 00000000 		.4byte	0
 9629 040f 00000000 		.4byte	0
 9630              	.LLST20:
 9631 0413 00000000 		.4byte	.LVL84
 9632 0417 07000000 		.4byte	.LVL85-1
 9633 041b 0100     		.2byte	0x1
 9634 041d 50       		.byte	0x50
ARM GAS  C:\Users\haske\AppData\Local\Temp\cc65HANE.s 			page 192


 9635 041e 07000000 		.4byte	.LVL85-1
 9636 0422 0A000000 		.4byte	.LFE207
 9637 0426 0400     		.2byte	0x4
 9638 0428 F3       		.byte	0xf3
 9639 0429 01       		.uleb128 0x1
 9640 042a 50       		.byte	0x50
 9641 042b 9F       		.byte	0x9f
 9642 042c 00000000 		.4byte	0
 9643 0430 00000000 		.4byte	0
 9644              	.LLST21:
 9645 0434 00000000 		.4byte	.LVL86
 9646 0438 07000000 		.4byte	.LVL87-1
 9647 043c 0100     		.2byte	0x1
 9648 043e 50       		.byte	0x50
 9649 043f 07000000 		.4byte	.LVL87-1
 9650 0443 0A000000 		.4byte	.LFE208
 9651 0447 0400     		.2byte	0x4
 9652 0449 F3       		.byte	0xf3
 9653 044a 01       		.uleb128 0x1
 9654 044b 50       		.byte	0x50
 9655 044c 9F       		.byte	0x9f
 9656 044d 00000000 		.4byte	0
 9657 0451 00000000 		.4byte	0
 9658              	.LLST22:
 9659 0455 00000000 		.4byte	.LVL88
 9660 0459 18000000 		.4byte	.LVL91
 9661 045d 0100     		.2byte	0x1
 9662 045f 50       		.byte	0x50
 9663 0460 18000000 		.4byte	.LVL91
 9664 0464 AC000000 		.4byte	.LVL113
 9665 0468 0100     		.2byte	0x1
 9666 046a 54       		.byte	0x54
 9667 046b AC000000 		.4byte	.LVL113
 9668 046f B2000000 		.4byte	.LFE205
 9669 0473 0400     		.2byte	0x4
 9670 0475 F3       		.byte	0xf3
 9671 0476 01       		.uleb128 0x1
 9672 0477 50       		.byte	0x50
 9673 0478 9F       		.byte	0x9f
 9674 0479 00000000 		.4byte	0
 9675 047d 00000000 		.4byte	0
 9676              	.LLST23:
 9677 0481 00000000 		.4byte	.LVL88
 9678 0485 16000000 		.4byte	.LVL90
 9679 0489 0100     		.2byte	0x1
 9680 048b 51       		.byte	0x51
 9681 048c 16000000 		.4byte	.LVL90
 9682 0490 A0000000 		.4byte	.LVL111
 9683 0494 0100     		.2byte	0x1
 9684 0496 55       		.byte	0x55
 9685 0497 00000000 		.4byte	0
 9686 049b 00000000 		.4byte	0
 9687              	.LLST24:
 9688 049f 00000000 		.4byte	.LVL88
 9689 04a3 1B000000 		.4byte	.LVL92-1
 9690 04a7 0100     		.2byte	0x1
 9691 04a9 52       		.byte	0x52
ARM GAS  C:\Users\haske\AppData\Local\Temp\cc65HANE.s 			page 193


 9692 04aa 1B000000 		.4byte	.LVL92-1
 9693 04ae B2000000 		.4byte	.LFE205
 9694 04b2 0400     		.2byte	0x4
 9695 04b4 F3       		.byte	0xf3
 9696 04b5 01       		.uleb128 0x1
 9697 04b6 52       		.byte	0x52
 9698 04b7 9F       		.byte	0x9f
 9699 04b8 00000000 		.4byte	0
 9700 04bc 00000000 		.4byte	0
 9701              	.LLST25:
 9702 04c0 0E000000 		.4byte	.LVL89
 9703 04c4 18000000 		.4byte	.LVL91
 9704 04c8 0100     		.2byte	0x1
 9705 04ca 50       		.byte	0x50
 9706 04cb 18000000 		.4byte	.LVL91
 9707 04cf AC000000 		.4byte	.LVL113
 9708 04d3 0100     		.2byte	0x1
 9709 04d5 54       		.byte	0x54
 9710 04d6 AC000000 		.4byte	.LVL113
 9711 04da B2000000 		.4byte	.LFE205
 9712 04de 0400     		.2byte	0x4
 9713 04e0 F3       		.byte	0xf3
 9714 04e1 01       		.uleb128 0x1
 9715 04e2 50       		.byte	0x50
 9716 04e3 9F       		.byte	0x9f
 9717 04e4 00000000 		.4byte	0
 9718 04e8 00000000 		.4byte	0
 9719              	.LLST26:
 9720 04ec 24000000 		.4byte	.LVL94
 9721 04f0 37000000 		.4byte	.LVL96-1
 9722 04f4 0100     		.2byte	0x1
 9723 04f6 50       		.byte	0x50
 9724 04f7 37000000 		.4byte	.LVL96-1
 9725 04fb 7A000000 		.4byte	.LVL104
 9726 04ff 0100     		.2byte	0x1
 9727 0501 56       		.byte	0x56
 9728 0502 7A000000 		.4byte	.LVL104
 9729 0506 81000000 		.4byte	.LVL105-1
 9730 050a 0100     		.2byte	0x1
 9731 050c 50       		.byte	0x50
 9732 050d 81000000 		.4byte	.LVL105-1
 9733 0511 AC000000 		.4byte	.LVL114
 9734 0515 0100     		.2byte	0x1
 9735 0517 56       		.byte	0x56
 9736 0518 00000000 		.4byte	0
 9737 051c 00000000 		.4byte	0
 9738              	.LLST27:
 9739 0520 9E000000 		.4byte	.LVL110
 9740 0524 A7000000 		.4byte	.LVL112-1
 9741 0528 0100     		.2byte	0x1
 9742 052a 50       		.byte	0x50
 9743 052b 00000000 		.4byte	0
 9744 052f 00000000 		.4byte	0
 9745              	.LLST28:
 9746 0533 44000000 		.4byte	.LVL99
 9747 0537 7A000000 		.4byte	.LVL104
 9748 053b 0100     		.2byte	0x1
ARM GAS  C:\Users\haske\AppData\Local\Temp\cc65HANE.s 			page 194


 9749 053d 57       		.byte	0x57
 9750 053e 00000000 		.4byte	0
 9751 0542 00000000 		.4byte	0
 9752              	.LLST29:
 9753 0546 30000000 		.4byte	.LVL95
 9754 054a 3C000000 		.4byte	.LVL97
 9755 054e 0200     		.2byte	0x2
 9756 0550 30       		.byte	0x30
 9757 0551 9F       		.byte	0x9f
 9758 0552 00000000 		.4byte	0
 9759 0556 00000000 		.4byte	0
 9760              	.LLST30:
 9761 055a 30000000 		.4byte	.LVL95
 9762 055e 37000000 		.4byte	.LVL96-1
 9763 0562 0100     		.2byte	0x1
 9764 0564 50       		.byte	0x50
 9765 0565 37000000 		.4byte	.LVL96-1
 9766 0569 3C000000 		.4byte	.LVL97
 9767 056d 0100     		.2byte	0x1
 9768 056f 56       		.byte	0x56
 9769 0570 00000000 		.4byte	0
 9770 0574 00000000 		.4byte	0
 9771              	.LLST31:
 9772 0578 44000000 		.4byte	.LVL99
 9773 057c 50000000 		.4byte	.LVL101
 9774 0580 0200     		.2byte	0x2
 9775 0582 30       		.byte	0x30
 9776 0583 9F       		.byte	0x9f
 9777 0584 00000000 		.4byte	0
 9778 0588 00000000 		.4byte	0
 9779              	.LLST32:
 9780 058c 44000000 		.4byte	.LVL99
 9781 0590 50000000 		.4byte	.LVL101
 9782 0594 0100     		.2byte	0x1
 9783 0596 54       		.byte	0x54
 9784 0597 00000000 		.4byte	0
 9785 059b 00000000 		.4byte	0
 9786              	.LLST33:
 9787 059f 8A000000 		.4byte	.LVL107
 9788 05a3 94000000 		.4byte	.LVL108
 9789 05a7 0100     		.2byte	0x1
 9790 05a9 50       		.byte	0x50
 9791 05aa 00000000 		.4byte	0
 9792 05ae 00000000 		.4byte	0
 9793              	.LLST34:
 9794 05b2 7A000000 		.4byte	.LVL104
 9795 05b6 84000000 		.4byte	.LVL106
 9796 05ba 0200     		.2byte	0x2
 9797 05bc 30       		.byte	0x30
 9798 05bd 9F       		.byte	0x9f
 9799 05be 00000000 		.4byte	0
 9800 05c2 00000000 		.4byte	0
 9801              	.LLST35:
 9802 05c6 7A000000 		.4byte	.LVL104
 9803 05ca 81000000 		.4byte	.LVL105-1
 9804 05ce 0100     		.2byte	0x1
 9805 05d0 50       		.byte	0x50
ARM GAS  C:\Users\haske\AppData\Local\Temp\cc65HANE.s 			page 195


 9806 05d1 81000000 		.4byte	.LVL105-1
 9807 05d5 84000000 		.4byte	.LVL106
 9808 05d9 0100     		.2byte	0x1
 9809 05db 56       		.byte	0x56
 9810 05dc 00000000 		.4byte	0
 9811 05e0 00000000 		.4byte	0
 9812              	.LLST36:
 9813 05e4 00000000 		.4byte	.LVL115
 9814 05e8 06000000 		.4byte	.LVL116
 9815 05ec 0100     		.2byte	0x1
 9816 05ee 50       		.byte	0x50
 9817 05ef 06000000 		.4byte	.LVL116
 9818 05f3 38000000 		.4byte	.LFE211
 9819 05f7 0400     		.2byte	0x4
 9820 05f9 F3       		.byte	0xf3
 9821 05fa 01       		.uleb128 0x1
 9822 05fb 50       		.byte	0x50
 9823 05fc 9F       		.byte	0x9f
 9824 05fd 00000000 		.4byte	0
 9825 0601 00000000 		.4byte	0
 9826              	.LLST37:
 9827 0605 00000000 		.4byte	.LVL115
 9828 0609 09000000 		.4byte	.LVL117-1
 9829 060d 0100     		.2byte	0x1
 9830 060f 51       		.byte	0x51
 9831 0610 09000000 		.4byte	.LVL117-1
 9832 0614 1E000000 		.4byte	.LVL122
 9833 0618 0100     		.2byte	0x1
 9834 061a 54       		.byte	0x54
 9835 061b 1E000000 		.4byte	.LVL122
 9836 061f 38000000 		.4byte	.LFE211
 9837 0623 0400     		.2byte	0x4
 9838 0625 F3       		.byte	0xf3
 9839 0626 01       		.uleb128 0x1
 9840 0627 51       		.byte	0x51
 9841 0628 9F       		.byte	0x9f
 9842 0629 00000000 		.4byte	0
 9843 062d 00000000 		.4byte	0
 9844              	.LLST38:
 9845 0631 0A000000 		.4byte	.LVL117
 9846 0635 10000000 		.4byte	.LVL118
 9847 0639 0100     		.2byte	0x1
 9848 063b 50       		.byte	0x50
 9849 063c 00000000 		.4byte	0
 9850 0640 00000000 		.4byte	0
 9851              	.LLST39:
 9852 0644 16000000 		.4byte	.LVL120
 9853 0648 30000000 		.4byte	.LVL124
 9854 064c 0100     		.2byte	0x1
 9855 064e 55       		.byte	0x55
 9856 064f 00000000 		.4byte	0
 9857 0653 00000000 		.4byte	0
 9858              	.LLST40:
 9859 0657 1E000000 		.4byte	.LVL122
 9860 065b 25000000 		.4byte	.LVL123-1
 9861 065f 0100     		.2byte	0x1
 9862 0661 50       		.byte	0x50
ARM GAS  C:\Users\haske\AppData\Local\Temp\cc65HANE.s 			page 196


 9863 0662 25000000 		.4byte	.LVL123-1
 9864 0666 30000000 		.4byte	.LVL124
 9865 066a 0100     		.2byte	0x1
 9866 066c 54       		.byte	0x54
 9867 066d 00000000 		.4byte	0
 9868 0671 00000000 		.4byte	0
 9869              	.LLST41:
 9870 0675 00000000 		.4byte	.LVL125
 9871 0679 09000000 		.4byte	.LVL126-1
 9872 067d 0100     		.2byte	0x1
 9873 067f 50       		.byte	0x50
 9874 0680 09000000 		.4byte	.LVL126-1
 9875 0684 14000000 		.4byte	.LVL130
 9876 0688 0100     		.2byte	0x1
 9877 068a 54       		.byte	0x54
 9878 068b 14000000 		.4byte	.LVL130
 9879 068f F0000000 		.4byte	.LFE213
 9880 0693 0400     		.2byte	0x4
 9881 0695 F3       		.byte	0xf3
 9882 0696 01       		.uleb128 0x1
 9883 0697 50       		.byte	0x50
 9884 0698 9F       		.byte	0x9f
 9885 0699 00000000 		.4byte	0
 9886 069d 00000000 		.4byte	0
 9887              	.LLST42:
 9888 06a1 0C000000 		.4byte	.LVL127
 9889 06a5 0E000000 		.4byte	.LVL128
 9890 06a9 0100     		.2byte	0x1
 9891 06ab 50       		.byte	0x50
 9892 06ac 0E000000 		.4byte	.LVL128
 9893 06b0 D0000000 		.4byte	.LVL156
 9894 06b4 0100     		.2byte	0x1
 9895 06b6 55       		.byte	0x55
 9896 06b7 D2000000 		.4byte	.LVL157
 9897 06bb D4000000 		.4byte	.LVL158
 9898 06bf 0100     		.2byte	0x1
 9899 06c1 55       		.byte	0x55
 9900 06c2 00000000 		.4byte	0
 9901 06c6 00000000 		.4byte	0
 9902              	.LLST43:
 9903 06ca 14000000 		.4byte	.LVL130
 9904 06ce 16000000 		.4byte	.LVL131
 9905 06d2 0100     		.2byte	0x1
 9906 06d4 50       		.byte	0x50
 9907 06d5 16000000 		.4byte	.LVL131
 9908 06d9 5C000000 		.4byte	.LVL141
 9909 06dd 0100     		.2byte	0x1
 9910 06df 54       		.byte	0x54
 9911 06e0 A0000000 		.4byte	.LVL149
 9912 06e4 BE000000 		.4byte	.LVL153
 9913 06e8 0100     		.2byte	0x1
 9914 06ea 54       		.byte	0x54
 9915 06eb 00000000 		.4byte	0
 9916 06ef 00000000 		.4byte	0
 9917              	.LLST44:
 9918 06f3 1C000000 		.4byte	.LVL133
 9919 06f7 23000000 		.4byte	.LVL134-1
ARM GAS  C:\Users\haske\AppData\Local\Temp\cc65HANE.s 			page 197


 9920 06fb 0100     		.2byte	0x1
 9921 06fd 50       		.byte	0x50
 9922 06fe 23000000 		.4byte	.LVL134-1
 9923 0702 30000000 		.4byte	.LVL136
 9924 0706 0100     		.2byte	0x1
 9925 0708 56       		.byte	0x56
 9926 0709 30000000 		.4byte	.LVL136
 9927 070d 37000000 		.4byte	.LVL137-1
 9928 0711 0100     		.2byte	0x1
 9929 0713 50       		.byte	0x50
 9930 0714 37000000 		.4byte	.LVL137-1
 9931 0718 EE000000 		.4byte	.LVL161
 9932 071c 0100     		.2byte	0x1
 9933 071e 56       		.byte	0x56
 9934 071f 00000000 		.4byte	0
 9935 0723 00000000 		.4byte	0
 9936              	.LLST46:
 9937 0727 38000000 		.4byte	.LVL137
 9938 072b 46000000 		.4byte	.LVL138
 9939 072f 0100     		.2byte	0x1
 9940 0731 50       		.byte	0x50
 9941 0732 00000000 		.4byte	0
 9942 0736 00000000 		.4byte	0
 9943              	.LLST47:
 9944 073a 84000000 		.4byte	.LVL145
 9945 073e 86000000 		.4byte	.LVL146
 9946 0742 0100     		.2byte	0x1
 9947 0744 54       		.byte	0x54
 9948 0745 9E000000 		.4byte	.LVL148
 9949 0749 A0000000 		.4byte	.LVL149
 9950 074d 0100     		.2byte	0x1
 9951 074f 54       		.byte	0x54
 9952 0750 BE000000 		.4byte	.LVL153
 9953 0754 EC000000 		.4byte	.LVL160
 9954 0758 0100     		.2byte	0x1
 9955 075a 54       		.byte	0x54
 9956 075b 00000000 		.4byte	0
 9957 075f 00000000 		.4byte	0
 9958              	.LLST48:
 9959 0763 C4000000 		.4byte	.LVL154
 9960 0767 D4000000 		.4byte	.LVL158
 9961 076b 0200     		.2byte	0x2
 9962 076d 30       		.byte	0x30
 9963 076e 9F       		.byte	0x9f
 9964 076f D4000000 		.4byte	.LVL158
 9965 0773 EC000000 		.4byte	.LVL160
 9966 0777 0100     		.2byte	0x1
 9967 0779 55       		.byte	0x55
 9968 077a 00000000 		.4byte	0
 9969 077e 00000000 		.4byte	0
 9970              	.LLST49:
 9971 0782 5C000000 		.4byte	.LVL141
 9972 0786 84000000 		.4byte	.LVL145
 9973 078a 0100     		.2byte	0x1
 9974 078c 54       		.byte	0x54
 9975 078d 86000000 		.4byte	.LVL146
 9976 0791 9E000000 		.4byte	.LVL148
ARM GAS  C:\Users\haske\AppData\Local\Temp\cc65HANE.s 			page 198


 9977 0795 0100     		.2byte	0x1
 9978 0797 54       		.byte	0x54
 9979 0798 00000000 		.4byte	0
 9980 079c 00000000 		.4byte	0
 9981              	.LLST50:
 9982 07a0 5C000000 		.4byte	.LVL141
 9983 07a4 68000000 		.4byte	.LVL143
 9984 07a8 0200     		.2byte	0x2
 9985 07aa 30       		.byte	0x30
 9986 07ab 9F       		.byte	0x9f
 9987 07ac 00000000 		.4byte	0
 9988 07b0 00000000 		.4byte	0
 9989              	.LLST51:
 9990 07b4 5C000000 		.4byte	.LVL141
 9991 07b8 68000000 		.4byte	.LVL143
 9992 07bc 0100     		.2byte	0x1
 9993 07be 56       		.byte	0x56
 9994 07bf 00000000 		.4byte	0
 9995 07c3 00000000 		.4byte	0
 9996              	.LLST52:
 9997 07c7 A8000000 		.4byte	.LVL151
 9998 07cb BB000000 		.4byte	.LVL152-1
 9999 07cf 0100     		.2byte	0x1
 10000 07d1 51       		.byte	0x51
 10001 07d2 00000000 		.4byte	0
 10002 07d6 00000000 		.4byte	0
 10003              	.LLST53:
 10004 07da 00000000 		.4byte	.LVL162
 10005 07de 05000000 		.4byte	.LVL163-1
 10006 07e2 0100     		.2byte	0x1
 10007 07e4 50       		.byte	0x50
 10008 07e5 05000000 		.4byte	.LVL163-1
 10009 07e9 20000000 		.4byte	.LFE212
 10010 07ed 0400     		.2byte	0x4
 10011 07ef F3       		.byte	0xf3
 10012 07f0 01       		.uleb128 0x1
 10013 07f1 50       		.byte	0x50
 10014 07f2 9F       		.byte	0x9f
 10015 07f3 00000000 		.4byte	0
 10016 07f7 00000000 		.4byte	0
 10017              	.LLST54:
 10018 07fb 08000000 		.4byte	.LVL164
 10019 07ff 0B000000 		.4byte	.LVL165-1
 10020 0803 0100     		.2byte	0x1
 10021 0805 50       		.byte	0x50
 10022 0806 0B000000 		.4byte	.LVL165-1
 10023 080a 1E000000 		.4byte	.LVL172
 10024 080e 0100     		.2byte	0x1
 10025 0810 54       		.byte	0x54
 10026 0811 00000000 		.4byte	0
 10027 0815 00000000 		.4byte	0
 10028              	.LLST55:
 10029 0819 0E000000 		.4byte	.LVL166
 10030 081d 10000000 		.4byte	.LVL167
 10031 0821 0100     		.2byte	0x1
 10032 0823 50       		.byte	0x50
 10033 0824 10000000 		.4byte	.LVL167
ARM GAS  C:\Users\haske\AppData\Local\Temp\cc65HANE.s 			page 199


 10034 0828 1E000000 		.4byte	.LVL173
 10035 082c 0100     		.2byte	0x1
 10036 082e 55       		.byte	0x55
 10037 082f 00000000 		.4byte	0
 10038 0833 00000000 		.4byte	0
 10039              	.LLST56:
 10040 0837 16000000 		.4byte	.LVL169
 10041 083b 1A000000 		.4byte	.LVL170
 10042 083f 0100     		.2byte	0x1
 10043 0841 50       		.byte	0x50
 10044 0842 1A000000 		.4byte	.LVL170
 10045 0846 1D000000 		.4byte	.LVL171-1
 10046 084a 0100     		.2byte	0x1
 10047 084c 51       		.byte	0x51
 10048 084d 00000000 		.4byte	0
 10049 0851 00000000 		.4byte	0
 10050              	.LLST57:
 10051 0855 00000000 		.4byte	.LVL174
 10052 0859 13000000 		.4byte	.LVL176-1
 10053 085d 0100     		.2byte	0x1
 10054 085f 50       		.byte	0x50
 10055 0860 13000000 		.4byte	.LVL176-1
 10056 0864 50010000 		.4byte	.LVL227
 10057 0868 0100     		.2byte	0x1
 10058 086a 57       		.byte	0x57
 10059 086b 50010000 		.4byte	.LVL227
 10060 086f 70010000 		.4byte	.LFE203
 10061 0873 0400     		.2byte	0x4
 10062 0875 F3       		.byte	0xf3
 10063 0876 01       		.uleb128 0x1
 10064 0877 50       		.byte	0x50
 10065 0878 9F       		.byte	0x9f
 10066 0879 00000000 		.4byte	0
 10067 087d 00000000 		.4byte	0
 10068              	.LLST58:
 10069 0881 00000000 		.4byte	.LVL174
 10070 0885 13000000 		.4byte	.LVL176-1
 10071 0889 0100     		.2byte	0x1
 10072 088b 51       		.byte	0x51
 10073 088c 13000000 		.4byte	.LVL176-1
 10074 0890 70010000 		.4byte	.LFE203
 10075 0894 0200     		.2byte	0x2
 10076 0896 91       		.byte	0x91
 10077 0897 58       		.sleb128 -40
 10078 0898 00000000 		.4byte	0
 10079 089c 00000000 		.4byte	0
 10080              	.LLST59:
 10081 08a0 10000000 		.4byte	.LVL175
 10082 08a4 13000000 		.4byte	.LVL176-1
 10083 08a8 0100     		.2byte	0x1
 10084 08aa 50       		.byte	0x50
 10085 08ab 13000000 		.4byte	.LVL176-1
 10086 08af 50010000 		.4byte	.LVL227
 10087 08b3 0100     		.2byte	0x1
 10088 08b5 57       		.byte	0x57
 10089 08b6 50010000 		.4byte	.LVL227
 10090 08ba 70010000 		.4byte	.LFE203
ARM GAS  C:\Users\haske\AppData\Local\Temp\cc65HANE.s 			page 200


 10091 08be 0400     		.2byte	0x4
 10092 08c0 F3       		.byte	0xf3
 10093 08c1 01       		.uleb128 0x1
 10094 08c2 50       		.byte	0x50
 10095 08c3 9F       		.byte	0x9f
 10096 08c4 00000000 		.4byte	0
 10097 08c8 00000000 		.4byte	0
 10098              	.LLST60:
 10099 08cc 16000000 		.4byte	.LVL177
 10100 08d0 19000000 		.4byte	.LVL178-1
 10101 08d4 0100     		.2byte	0x1
 10102 08d6 50       		.byte	0x50
 10103 08d7 19000000 		.4byte	.LVL178-1
 10104 08db 36000000 		.4byte	.LVL183
 10105 08df 0100     		.2byte	0x1
 10106 08e1 55       		.byte	0x55
 10107 08e2 00000000 		.4byte	0
 10108 08e6 00000000 		.4byte	0
 10109              	.LLST61:
 10110 08ea 1E000000 		.4byte	.LVL179
 10111 08ee 25000000 		.4byte	.LVL180-1
 10112 08f2 0100     		.2byte	0x1
 10113 08f4 50       		.byte	0x50
 10114 08f5 25000000 		.4byte	.LVL180-1
 10115 08f9 54000000 		.4byte	.LVL190
 10116 08fd 0100     		.2byte	0x1
 10117 08ff 54       		.byte	0x54
 10118 0900 54000000 		.4byte	.LVL190
 10119 0904 92000000 		.4byte	.LVL200
 10120 0908 0200     		.2byte	0x2
 10121 090a 91       		.byte	0x91
 10122 090b 5C       		.sleb128 -36
 10123 090c 92000000 		.4byte	.LVL200
 10124 0910 9E000000 		.4byte	.LVL203
 10125 0914 0100     		.2byte	0x1
 10126 0916 54       		.byte	0x54
 10127 0917 9E000000 		.4byte	.LVL203
 10128 091b 70010000 		.4byte	.LFE203
 10129 091f 0200     		.2byte	0x2
 10130 0921 91       		.byte	0x91
 10131 0922 5C       		.sleb128 -36
 10132 0923 00000000 		.4byte	0
 10133 0927 00000000 		.4byte	0
 10134              	.LLST62:
 10135 092b 36000000 		.4byte	.LVL183
 10136 092f 38000000 		.4byte	.LVL184
 10137 0933 0100     		.2byte	0x1
 10138 0935 50       		.byte	0x50
 10139 0936 38000000 		.4byte	.LVL184
 10140 093a C0000000 		.4byte	.LVL210
 10141 093e 0100     		.2byte	0x1
 10142 0940 55       		.byte	0x55
 10143 0941 DA000000 		.4byte	.LVL214
 10144 0945 EE000000 		.4byte	.LVL216
 10145 0949 0100     		.2byte	0x1
 10146 094b 55       		.byte	0x55
 10147 094c 00000000 		.4byte	0
ARM GAS  C:\Users\haske\AppData\Local\Temp\cc65HANE.s 			page 201


 10148 0950 00000000 		.4byte	0
 10149              	.LLST63:
 10150 0954 3E000000 		.4byte	.LVL186
 10151 0958 4C000000 		.4byte	.LVL188
 10152 095c 0100     		.2byte	0x1
 10153 095e 50       		.byte	0x50
 10154 095f 4C000000 		.4byte	.LVL188
 10155 0963 92000000 		.4byte	.LVL200
 10156 0967 0200     		.2byte	0x2
 10157 0969 91       		.byte	0x91
 10158 096a 54       		.sleb128 -44
 10159 096b 92000000 		.4byte	.LVL200
 10160 096f 98000000 		.4byte	.LVL201
 10161 0973 0100     		.2byte	0x1
 10162 0975 50       		.byte	0x50
 10163 0976 98000000 		.4byte	.LVL201
 10164 097a 70010000 		.4byte	.LFE203
 10165 097e 0200     		.2byte	0x2
 10166 0980 91       		.byte	0x91
 10167 0981 54       		.sleb128 -44
 10168 0982 00000000 		.4byte	0
 10169 0986 00000000 		.4byte	0
 10170              	.LLST64:
 10171 098a 40000000 		.4byte	.LVL187
 10172 098e 50010000 		.4byte	.LVL226
 10173 0992 0100     		.2byte	0x1
 10174 0994 56       		.byte	0x56
 10175 0995 00000000 		.4byte	0
 10176 0999 00000000 		.4byte	0
 10177              	.LLST65:
 10178 099d 54000000 		.4byte	.LVL190
 10179 09a1 62000000 		.4byte	.LVL192
 10180 09a5 0100     		.2byte	0x1
 10181 09a7 50       		.byte	0x50
 10182 09a8 62000000 		.4byte	.LVL192
 10183 09ac 92000000 		.4byte	.LVL200
 10184 09b0 0100     		.2byte	0x1
 10185 09b2 54       		.byte	0x54
 10186 09b3 9E000000 		.4byte	.LVL203
 10187 09b7 AA000000 		.4byte	.LVL205
 10188 09bb 0100     		.2byte	0x1
 10189 09bd 50       		.byte	0x50
 10190 09be AA000000 		.4byte	.LVL205
 10191 09c2 16010000 		.4byte	.LVL220
 10192 09c6 0100     		.2byte	0x1
 10193 09c8 54       		.byte	0x54
 10194 09c9 16010000 		.4byte	.LVL220
 10195 09cd 1B010000 		.4byte	.LVL221-1
 10196 09d1 0100     		.2byte	0x1
 10197 09d3 51       		.byte	0x51
 10198 09d4 00000000 		.4byte	0
 10199 09d8 00000000 		.4byte	0
 10200              	.LLST66:
 10201 09dc 5C000000 		.4byte	.LVL191
 10202 09e0 70000000 		.4byte	.LVL196
 10203 09e4 0100     		.2byte	0x1
 10204 09e6 53       		.byte	0x53
ARM GAS  C:\Users\haske\AppData\Local\Temp\cc65HANE.s 			page 202


 10205 09e7 00000000 		.4byte	0
 10206 09eb 00000000 		.4byte	0
 10207              	.LLST67:
 10208 09ef 5C000000 		.4byte	.LVL191
 10209 09f3 70000000 		.4byte	.LVL196
 10210 09f7 0100     		.2byte	0x1
 10211 09f9 56       		.byte	0x56
 10212 09fa 00000000 		.4byte	0
 10213 09fe 00000000 		.4byte	0
 10214              	.LLST68:
 10215 0a02 5C000000 		.4byte	.LVL191
 10216 0a06 62000000 		.4byte	.LVL192
 10217 0a0a 0100     		.2byte	0x1
 10218 0a0c 50       		.byte	0x50
 10219 0a0d 62000000 		.4byte	.LVL192
 10220 0a11 70000000 		.4byte	.LVL196
 10221 0a15 0100     		.2byte	0x1
 10222 0a17 54       		.byte	0x54
 10223 0a18 00000000 		.4byte	0
 10224 0a1c 00000000 		.4byte	0
 10225              	.LLST69:
 10226 0a20 5C000000 		.4byte	.LVL191
 10227 0a24 62000000 		.4byte	.LVL192
 10228 0a28 0100     		.2byte	0x1
 10229 0a2a 50       		.byte	0x50
 10230 0a2b 62000000 		.4byte	.LVL192
 10231 0a2f 79000000 		.4byte	.LVL197-1
 10232 0a33 0100     		.2byte	0x1
 10233 0a35 52       		.byte	0x52
 10234 0a36 00000000 		.4byte	0
 10235 0a3a 00000000 		.4byte	0
 10236              	.LLST70:
 10237 0a3e 5C000000 		.4byte	.LVL191
 10238 0a42 62000000 		.4byte	.LVL192
 10239 0a46 0100     		.2byte	0x1
 10240 0a48 56       		.byte	0x56
 10241 0a49 62000000 		.4byte	.LVL192
 10242 0a4d 79000000 		.4byte	.LVL197-1
 10243 0a51 0100     		.2byte	0x1
 10244 0a53 51       		.byte	0x51
 10245 0a54 00000000 		.4byte	0
 10246 0a58 00000000 		.4byte	0
 10247              	.LLST71:
 10248 0a5c A4000000 		.4byte	.LVL204
 10249 0a60 B8000000 		.4byte	.LVL209
 10250 0a64 0100     		.2byte	0x1
 10251 0a66 53       		.byte	0x53
 10252 0a67 00000000 		.4byte	0
 10253 0a6b 00000000 		.4byte	0
 10254              	.LLST72:
 10255 0a6f A4000000 		.4byte	.LVL204
 10256 0a73 B8000000 		.4byte	.LVL209
 10257 0a77 0100     		.2byte	0x1
 10258 0a79 56       		.byte	0x56
 10259 0a7a 00000000 		.4byte	0
 10260 0a7e 00000000 		.4byte	0
 10261              	.LLST73:
ARM GAS  C:\Users\haske\AppData\Local\Temp\cc65HANE.s 			page 203


 10262 0a82 A4000000 		.4byte	.LVL204
 10263 0a86 AA000000 		.4byte	.LVL205
 10264 0a8a 0100     		.2byte	0x1
 10265 0a8c 50       		.byte	0x50
 10266 0a8d AA000000 		.4byte	.LVL205
 10267 0a91 B8000000 		.4byte	.LVL209
 10268 0a95 0100     		.2byte	0x1
 10269 0a97 54       		.byte	0x54
 10270 0a98 00000000 		.4byte	0
 10271 0a9c 00000000 		.4byte	0
 10272              	.LLST74:
 10273 0aa0 A4000000 		.4byte	.LVL204
 10274 0aa4 AA000000 		.4byte	.LVL205
 10275 0aa8 0100     		.2byte	0x1
 10276 0aaa 50       		.byte	0x50
 10277 0aab AA000000 		.4byte	.LVL205
 10278 0aaf C5000000 		.4byte	.LVL211-1
 10279 0ab3 0100     		.2byte	0x1
 10280 0ab5 52       		.byte	0x52
 10281 0ab6 DA000000 		.4byte	.LVL214
 10282 0aba E0000000 		.4byte	.LVL215
 10283 0abe 0100     		.2byte	0x1
 10284 0ac0 52       		.byte	0x52
 10285 0ac1 00000000 		.4byte	0
 10286 0ac5 00000000 		.4byte	0
 10287              	.LLST75:
 10288 0ac9 A4000000 		.4byte	.LVL204
 10289 0acd AA000000 		.4byte	.LVL205
 10290 0ad1 0100     		.2byte	0x1
 10291 0ad3 56       		.byte	0x56
 10292 0ad4 AA000000 		.4byte	.LVL205
 10293 0ad8 C5000000 		.4byte	.LVL211-1
 10294 0adc 0100     		.2byte	0x1
 10295 0ade 51       		.byte	0x51
 10296 0adf DA000000 		.4byte	.LVL214
 10297 0ae3 F3000000 		.4byte	.LVL217-1
 10298 0ae7 0100     		.2byte	0x1
 10299 0ae9 51       		.byte	0x51
 10300 0aea 00000000 		.4byte	0
 10301 0aee 00000000 		.4byte	0
 10302              		.section	.debug_aranges,"",%progbits
 10303 0000 74000000 		.4byte	0x74
 10304 0004 0200     		.2byte	0x2
 10305 0006 00000000 		.4byte	.Ldebug_info0
 10306 000a 04       		.byte	0x4
 10307 000b 00       		.byte	0
 10308 000c 0000     		.2byte	0
 10309 000e 0000     		.2byte	0
 10310 0010 00000000 		.4byte	.LFB210
 10311 0014 66000000 		.4byte	.LFE210-.LFB210
 10312 0018 00000000 		.4byte	.LFB209
 10313 001c 64010000 		.4byte	.LFE209-.LFB209
 10314 0020 00000000 		.4byte	.LFB202
 10315 0024 24000000 		.4byte	.LFE202-.LFB202
 10316 0028 00000000 		.4byte	.LFB204
 10317 002c 44000000 		.4byte	.LFE204-.LFB204
 10318 0030 00000000 		.4byte	.LFB206
ARM GAS  C:\Users\haske\AppData\Local\Temp\cc65HANE.s 			page 204


 10319 0034 04000000 		.4byte	.LFE206-.LFB206
 10320 0038 00000000 		.4byte	.LFB207
 10321 003c 0A000000 		.4byte	.LFE207-.LFB207
 10322 0040 00000000 		.4byte	.LFB208
 10323 0044 0A000000 		.4byte	.LFE208-.LFB208
 10324 0048 00000000 		.4byte	.LFB205
 10325 004c B2000000 		.4byte	.LFE205-.LFB205
 10326 0050 00000000 		.4byte	.LFB211
 10327 0054 38000000 		.4byte	.LFE211-.LFB211
 10328 0058 00000000 		.4byte	.LFB213
 10329 005c F0000000 		.4byte	.LFE213-.LFB213
 10330 0060 00000000 		.4byte	.LFB212
 10331 0064 20000000 		.4byte	.LFE212-.LFB212
 10332 0068 00000000 		.4byte	.LFB203
 10333 006c 70010000 		.4byte	.LFE203-.LFB203
 10334 0070 00000000 		.4byte	0
 10335 0074 00000000 		.4byte	0
 10336              		.section	.debug_ranges,"",%progbits
 10337              	.Ldebug_ranges0:
 10338 0000 00000000 		.4byte	.LFB210
 10339 0004 66000000 		.4byte	.LFE210
 10340 0008 00000000 		.4byte	.LFB209
 10341 000c 64010000 		.4byte	.LFE209
 10342 0010 00000000 		.4byte	.LFB202
 10343 0014 24000000 		.4byte	.LFE202
 10344 0018 00000000 		.4byte	.LFB204
 10345 001c 44000000 		.4byte	.LFE204
 10346 0020 00000000 		.4byte	.LFB206
 10347 0024 04000000 		.4byte	.LFE206
 10348 0028 00000000 		.4byte	.LFB207
 10349 002c 0A000000 		.4byte	.LFE207
 10350 0030 00000000 		.4byte	.LFB208
 10351 0034 0A000000 		.4byte	.LFE208
 10352 0038 00000000 		.4byte	.LFB205
 10353 003c B2000000 		.4byte	.LFE205
 10354 0040 00000000 		.4byte	.LFB211
 10355 0044 38000000 		.4byte	.LFE211
 10356 0048 00000000 		.4byte	.LFB213
 10357 004c F0000000 		.4byte	.LFE213
 10358 0050 00000000 		.4byte	.LFB212
 10359 0054 20000000 		.4byte	.LFE212
 10360 0058 00000000 		.4byte	.LFB203
 10361 005c 70010000 		.4byte	.LFE203
 10362 0060 00000000 		.4byte	0
 10363 0064 00000000 		.4byte	0
 10364              		.section	.debug_line,"",%progbits
 10365              	.Ldebug_line0:
 10366 0000 58090000 		.section	.debug_str,"MS",%progbits,1
 10366      02006607 
 10366      00000201 
 10366      FB0E0D00 
 10366      01010101 
 10367              	.LASF215:
 10368 0000 62675F6F 		.ascii	"bg_opa\000"
 10368      706100
 10369              	.LASF410:
 10370 0007 7363726F 		.ascii	"scroll_obj\000"
ARM GAS  C:\Users\haske\AppData\Local\Temp\cc65HANE.s 			page 205


 10370      6C6C5F6F 
 10370      626A00
 10371              	.LASF548:
 10372 0012 4C565F45 		.ascii	"LV_EVENT_VALUE_CHANGED\000"
 10372      56454E54 
 10372      5F56414C 
 10372      55455F43 
 10372      48414E47 
 10373              	.LASF211:
 10374 0029 685F6C61 		.ascii	"h_layout\000"
 10374      796F7574 
 10374      00
 10375              	.LASF646:
 10376 0032 6E65775F 		.ascii	"new_tab\000"
 10376      74616200 
 10377              	.LASF587:
 10378 003a 4C565F42 		.ascii	"LV_BAR_MODE_NORMAL\000"
 10378      41525F4D 
 10378      4F44455F 
 10378      4E4F524D 
 10378      414C00
 10379              	.LASF274:
 10380 004d 4C565F44 		.ascii	"LV_DRAW_LAYER_FLAG_CAN_SUBDIVIDE\000"
 10380      5241575F 
 10380      4C415945 
 10380      525F464C 
 10380      41475F43 
 10381              	.LASF108:
 10382 006e 4C565F53 		.ascii	"LV_STYLE_LAYOUT\000"
 10382      54594C45 
 10382      5F4C4159 
 10382      4F555400 
 10383              	.LASF23:
 10384 007e 6C765F72 		.ascii	"lv_res_t\000"
 10384      65735F74 
 10384      00
 10385              	.LASF240:
 10386 0087 666F6E74 		.ascii	"font\000"
 10386      00
 10387              	.LASF618:
 10388 008c 7461625F 		.ascii	"tab_cur\000"
 10388      63757200 
 10389              	.LASF492:
 10390 0094 4C565F53 		.ascii	"LV_SCROLL_SNAP_END\000"
 10390      43524F4C 
 10390      4C5F534E 
 10390      41505F45 
 10390      4E4400
 10391              	.LASF245:
 10392 00a7 6C696E65 		.ascii	"line_space\000"
 10392      5F737061 
 10392      636500
 10393              	.LASF404:
 10394 00b2 76656374 		.ascii	"vect\000"
 10394      00
 10395              	.LASF78:
 10396 00b7 6C765F74 		.ascii	"lv_text_align_t\000"
ARM GAS  C:\Users\haske\AppData\Local\Temp\cc65HANE.s 			page 206


 10396      6578745F 
 10396      616C6967 
 10396      6E5F7400 
 10397              	.LASF398:
 10398 00c7 6C6F6E67 		.ascii	"long_press_time\000"
 10398      5F707265 
 10398      73735F74 
 10398      696D6500 
 10399              	.LASF696:
 10400 00d7 73747263 		.ascii	"strcpy\000"
 10400      707900
 10401              	.LASF49:
 10402 00de 6C765F64 		.ascii	"lv_dir_t\000"
 10402      69725F74 
 10402      00
 10403              	.LASF195:
 10404 00e7 6861735F 		.ascii	"has_group\000"
 10404      67726F75 
 10404      7000
 10405              	.LASF1:
 10406 00f1 5F5F7569 		.ascii	"__uint8_t\000"
 10406      6E74385F 
 10406      7400
 10407              	.LASF434:
 10408 00fb 5F6C765F 		.ascii	"_lv_group_t\000"
 10408      67726F75 
 10408      705F7400 
 10409              	.LASF689:
 10410 0107 6C765F67 		.ascii	"lv_group_add_obj\000"
 10410      726F7570 
 10410      5F616464 
 10410      5F6F626A 
 10410      00
 10411              	.LASF415:
 10412 0118 67657374 		.ascii	"gesture_dir\000"
 10412      7572655F 
 10412      64697200 
 10413              	.LASF69:
 10414 0124 5F426F6F 		.ascii	"_Bool\000"
 10414      6C00
 10415              	.LASF588:
 10416 012a 4C565F42 		.ascii	"LV_BAR_MODE_SYMMETRICAL\000"
 10416      41525F4D 
 10416      4F44455F 
 10416      53594D4D 
 10416      45545249 
 10417              	.LASF490:
 10418 0142 4C565F53 		.ascii	"LV_SCROLL_SNAP_NONE\000"
 10418      43524F4C 
 10418      4C5F534E 
 10418      41505F4E 
 10418      4F4E4500 
 10419              	.LASF453:
 10420 0156 4C565F50 		.ascii	"LV_PART_CUSTOM_FIRST\000"
 10420      4152545F 
 10420      43555354 
 10420      4F4D5F46 
ARM GAS  C:\Users\haske\AppData\Local\Temp\cc65HANE.s 			page 207


 10420      49525354 
 10421              	.LASF30:
 10422 016b 6C765F74 		.ascii	"lv_timer_t\000"
 10422      696D6572 
 10422      5F7400
 10423              	.LASF395:
 10424 0176 7363726F 		.ascii	"scroll_throw\000"
 10424      6C6C5F74 
 10424      68726F77 
 10424      00
 10425              	.LASF261:
 10426 0183 64617368 		.ascii	"dash_width\000"
 10426      5F776964 
 10426      746800
 10427              	.LASF346:
 10428 018e 64726177 		.ascii	"draw_ctx_size\000"
 10428      5F637478 
 10428      5F73697A 
 10428      6500
 10429              	.LASF66:
 10430 019c 756E6465 		.ascii	"underline_thickness\000"
 10430      726C696E 
 10430      655F7468 
 10430      69636B6E 
 10430      65737300 
 10431              	.LASF633:
 10432 01b0 6C765F74 		.ascii	"lv_tabview_create\000"
 10432      61627669 
 10432      65775F63 
 10432      72656174 
 10432      6500
 10433              	.LASF673:
 10434 01c2 6C765F74 		.ascii	"lv_tabview_class\000"
 10434      61627669 
 10434      65775F63 
 10434      6C617373 
 10434      00
 10435              	.LASF535:
 10436 01d3 4C565F45 		.ascii	"LV_EVENT_DEFOCUSED\000"
 10436      56454E54 
 10436      5F444546 
 10436      4F435553 
 10436      454400
 10437              	.LASF122:
 10438 01e6 4C565F53 		.ascii	"LV_STYLE_BG_MAIN_STOP\000"
 10438      54594C45 
 10438      5F42475F 
 10438      4D41494E 
 10438      5F53544F 
 10439              	.LASF300:
 10440 01fc 6C617965 		.ascii	"layer_adjust\000"
 10440      725F6164 
 10440      6A757374 
 10440      00
 10441              	.LASF366:
 10442 0209 6C617374 		.ascii	"last_activity_time\000"
 10442      5F616374 
ARM GAS  C:\Users\haske\AppData\Local\Temp\cc65HANE.s 			page 208


 10442      69766974 
 10442      795F7469 
 10442      6D6500
 10443              	.LASF252:
 10444 021c 616E676C 		.ascii	"angle\000"
 10444      6500
 10445              	.LASF115:
 10446 0222 4C565F53 		.ascii	"LV_STYLE_PAD_COLUMN\000"
 10446      54594C45 
 10446      5F504144 
 10446      5F434F4C 
 10446      554D4E00 
 10447              	.LASF627:
 10448 0236 6C765F74 		.ascii	"lv_tabview_destructor\000"
 10448      61627669 
 10448      65775F64 
 10448      65737472 
 10448      7563746F 
 10449              	.LASF68:
 10450 024c 6C765F66 		.ascii	"lv_font_glyph_dsc_t\000"
 10450      6F6E745F 
 10450      676C7970 
 10450      685F6473 
 10450      635F7400 
 10451              	.LASF176:
 10452 0260 4C565F53 		.ascii	"LV_STYLE_TRANSFORM_HEIGHT\000"
 10452      54594C45 
 10452      5F545241 
 10452      4E53464F 
 10452      524D5F48 
 10453              	.LASF653:
 10454 027a 6E65775F 		.ascii	"new_map\000"
 10454      6D617000 
 10455              	.LASF711:
 10456 0282 6C765F65 		.ascii	"lv_event_send\000"
 10456      76656E74 
 10456      5F73656E 
 10456      6400
 10457              	.LASF18:
 10458 0290 75696E74 		.ascii	"uint16_t\000"
 10458      31365F74 
 10458      00
 10459              	.LASF207:
 10460 0299 6C61796F 		.ascii	"layout_inv\000"
 10460      75745F69 
 10460      6E7600
 10461              	.LASF392:
 10462 02a4 66656564 		.ascii	"feedback_cb\000"
 10462      6261636B 
 10462      5F636200 
 10463              	.LASF387:
 10464 02b0 636F6E74 		.ascii	"continue_reading\000"
 10464      696E7565 
 10464      5F726561 
 10464      64696E67 
 10464      00
 10465              	.LASF425:
ARM GAS  C:\Users\haske\AppData\Local\Temp\cc65HANE.s 			page 209


 10466 02c1 77616974 		.ascii	"wait_until_release\000"
 10466      5F756E74 
 10466      696C5F72 
 10466      656C6561 
 10466      736500
 10467              	.LASF373:
 10468 02d4 666F6E74 		.ascii	"font_normal\000"
 10468      5F6E6F72 
 10468      6D616C00 
 10469              	.LASF127:
 10470 02e0 4C565F53 		.ascii	"LV_STYLE_BG_IMG_OPA\000"
 10470      54594C45 
 10470      5F42475F 
 10470      494D475F 
 10470      4F504100 
 10471              	.LASF557:
 10472 02f4 4C565F45 		.ascii	"LV_EVENT_SCREEN_UNLOAD_START\000"
 10472      56454E54 
 10472      5F534352 
 10472      45454E5F 
 10472      554E4C4F 
 10473              	.LASF717:
 10474 0311 2E2E5C2E 		.ascii	"..\\..\\..\\arduinoLCD\\test\\Pain Drain\\libraries"
 10474      2E5C2E2E 
 10474      5C617264 
 10474      75696E6F 
 10474      4C43445C 
 10475 033e 5C6C7667 		.ascii	"\\lvgl\\src\\extra\\widgets\\tabview\\lv_tabview.c\000"
 10475      6C5C7372 
 10475      635C6578 
 10475      7472615C 
 10475      77696467 
 10476              	.LASF666:
 10477 036b 4C565F53 		.ascii	"LV_STYLE_GRID_ROW_ALIGN\000"
 10477      54594C45 
 10477      5F475249 
 10477      445F524F 
 10477      575F414C 
 10478              	.LASF634:
 10479 0383 6C765F74 		.ascii	"lv_tabview_get_tab_act\000"
 10479      61627669 
 10479      65775F67 
 10479      65745F74 
 10479      61625F61 
 10480              	.LASF445:
 10481 039a 4C565F50 		.ascii	"LV_PART_MAIN\000"
 10481      4152545F 
 10481      4D41494E 
 10481      00
 10482              	.LASF665:
 10483 03a7 4C565F53 		.ascii	"LV_STYLE_GRID_ROW_DSC_ARRAY\000"
 10483      54594C45 
 10483      5F475249 
 10483      445F524F 
 10483      575F4453 
 10484              	.LASF423:
 10485 03c3 72657365 		.ascii	"reset_query\000"
ARM GAS  C:\Users\haske\AppData\Local\Temp\cc65HANE.s 			page 210


 10485      745F7175 
 10485      65727900 
 10486              	.LASF648:
 10487 03cf 6C765F74 		.ascii	"lv_tabview_add_tab\000"
 10487      61627669 
 10487      65775F61 
 10487      64645F74 
 10487      616200
 10488              	.LASF162:
 10489 03e2 4C565F53 		.ascii	"LV_STYLE_TEXT_FONT\000"
 10489      54594C45 
 10489      5F544558 
 10489      545F464F 
 10489      4E5400
 10490              	.LASF713:
 10491 03f5 6C765F62 		.ascii	"lv_btnmatrix_get_selected_btn\000"
 10491      746E6D61 
 10491      74726978 
 10491      5F676574 
 10491      5F73656C 
 10492              	.LASF484:
 10493 0413 6C765F6F 		.ascii	"lv_obj_flag_t\000"
 10493      626A5F66 
 10493      6C61675F 
 10493      7400
 10494              	.LASF553:
 10495 0421 4C565F45 		.ascii	"LV_EVENT_DELETE\000"
 10495      56454E54 
 10495      5F44454C 
 10495      45544500 
 10496              	.LASF67:
 10497 0431 66616C6C 		.ascii	"fallback\000"
 10497      6261636B 
 10497      00
 10498              	.LASF91:
 10499 043a 66726163 		.ascii	"frac\000"
 10499      00
 10500              	.LASF203:
 10501 043f 7374796C 		.ascii	"styles\000"
 10501      657300
 10502              	.LASF64:
 10503 0446 73756270 		.ascii	"subpx\000"
 10503      7800
 10504              	.LASF706:
 10505 044c 6C765F6F 		.ascii	"lv_obj_event_base\000"
 10505      626A5F65 
 10505      76656E74 
 10505      5F626173 
 10505      6500
 10506              	.LASF175:
 10507 045e 4C565F53 		.ascii	"LV_STYLE_TRANSFORM_WIDTH\000"
 10507      54594C45 
 10507      5F545241 
 10507      4E53464F 
 10507      524D5F57 
 10508              	.LASF685:
 10509 0477 6C765F6F 		.ascii	"lv_obj_set_width\000"
ARM GAS  C:\Users\haske\AppData\Local\Temp\cc65HANE.s 			page 211


 10509      626A5F73 
 10509      65745F77 
 10509      69647468 
 10509      00
 10510              	.LASF149:
 10511 0488 4C565F53 		.ascii	"LV_STYLE_LINE_WIDTH\000"
 10511      54594C45 
 10511      5F4C494E 
 10511      455F5749 
 10511      44544800 
 10512              	.LASF286:
 10513 049c 5F6C765F 		.ascii	"_lv_draw_ctx_t\000"
 10513      64726177 
 10513      5F637478 
 10513      5F7400
 10514              	.LASF101:
 10515 04ab 4C565F53 		.ascii	"LV_STYLE_MAX_WIDTH\000"
 10515      54594C45 
 10515      5F4D4158 
 10515      5F574944 
 10515      544800
 10516              	.LASF584:
 10517 04be 5F6C765F 		.ascii	"_lv_obj_spec_attr_t\000"
 10517      6F626A5F 
 10517      73706563 
 10517      5F617474 
 10517      725F7400 
 10518              	.LASF152:
 10519 04d2 4C565F53 		.ascii	"LV_STYLE_LINE_ROUNDED\000"
 10519      54594C45 
 10519      5F4C494E 
 10519      455F524F 
 10519      554E4445 
 10520              	.LASF334:
 10521 04e8 726F756E 		.ascii	"rounder_cb\000"
 10521      6465725F 
 10521      636200
 10522              	.LASF676:
 10523 04f3 6C765F6F 		.ascii	"lv_obj_set_size\000"
 10523      626A5F73 
 10523      65745F73 
 10523      697A6500 
 10524              	.LASF707:
 10525 0503 6C765F65 		.ascii	"lv_event_get_code\000"
 10525      76656E74 
 10525      5F676574 
 10525      5F636F64 
 10525      6500
 10526              	.LASF625:
 10527 0515 6C765F6D 		.ascii	"lv_memcpy_small\000"
 10527      656D6370 
 10527      795F736D 
 10527      616C6C00 
 10528              	.LASF536:
 10529 0525 4C565F45 		.ascii	"LV_EVENT_LEAVE\000"
 10529      56454E54 
 10529      5F4C4541 
ARM GAS  C:\Users\haske\AppData\Local\Temp\cc65HANE.s 			page 212


 10529      564500
 10530              	.LASF544:
 10531 0534 4C565F45 		.ascii	"LV_EVENT_DRAW_POST\000"
 10531      56454E54 
 10531      5F445241 
 10531      575F504F 
 10531      535400
 10532              	.LASF19:
 10533 0547 696E7433 		.ascii	"int32_t\000"
 10533      325F7400 
 10534              	.LASF317:
 10535 054f 6C617374 		.ascii	"last_area\000"
 10535      5F617265 
 10535      6100
 10536              	.LASF191:
 10537 0559 76616C75 		.ascii	"value1\000"
 10537      653100
 10538              	.LASF186:
 10539 0560 5F4C565F 		.ascii	"_LV_STYLE_PROP_CONST\000"
 10539      5354594C 
 10539      455F5052 
 10539      4F505F43 
 10539      4F4E5354 
 10540              	.LASF332:
 10541 0575 726F7461 		.ascii	"rotated\000"
 10541      74656400 
 10542              	.LASF167:
 10543 057d 4C565F53 		.ascii	"LV_STYLE_OPA\000"
 10543      54594C45 
 10543      5F4F5041 
 10543      00
 10544              	.LASF278:
 10545 058a 73637265 		.ascii	"screen_transp\000"
 10545      656E5F74 
 10545      72616E73 
 10545      7000
 10546              	.LASF50:
 10547 0598 7265736F 		.ascii	"resolved_font\000"
 10547      6C766564 
 10547      5F666F6E 
 10547      7400
 10548              	.LASF563:
 10549 05a6 4C565F45 		.ascii	"LV_EVENT_LAYOUT_CHANGED\000"
 10549      56454E54 
 10549      5F4C4159 
 10549      4F55545F 
 10549      4348414E 
 10550              	.LASF405:
 10551 05be 7363726F 		.ascii	"scroll_sum\000"
 10551      6C6C5F73 
 10551      756D00
 10552              	.LASF273:
 10553 05c9 4C565F44 		.ascii	"LV_DRAW_LAYER_FLAG_HAS_ALPHA\000"
 10553      5241575F 
 10553      4C415945 
 10553      525F464C 
 10553      41475F48 
ARM GAS  C:\Users\haske\AppData\Local\Temp\cc65HANE.s 			page 213


 10554              	.LASF172:
 10555 05e6 4C565F53 		.ascii	"LV_STYLE_ANIM_SPEED\000"
 10555      54594C45 
 10555      5F414E49 
 10555      4D5F5350 
 10555      45454400 
 10556              	.LASF637:
 10557 05fa 6C765F74 		.ascii	"lv_tabview_rename_tab\000"
 10557      61627669 
 10557      65775F72 
 10557      656E616D 
 10557      655F7461 
 10558              	.LASF623:
 10559 0610 6C765F6F 		.ascii	"lv_obj_get_style_pad_column\000"
 10559      626A5F67 
 10559      65745F73 
 10559      74796C65 
 10559      5F706164 
 10560              	.LASF603:
 10561 062c 4C565F46 		.ascii	"LV_FLEX_FLOW_COLUMN\000"
 10561      4C45585F 
 10561      464C4F57 
 10561      5F434F4C 
 10561      554D4E00 
 10562              	.LASF217:
 10563 0640 62675F67 		.ascii	"bg_grad\000"
 10563      72616400 
 10564              	.LASF468:
 10565 0648 4C565F4F 		.ascii	"LV_OBJ_FLAG_SNAPPABLE\000"
 10565      424A5F46 
 10565      4C41475F 
 10565      534E4150 
 10565      5041424C 
 10566              	.LASF591:
 10567 065e 4C565F42 		.ascii	"LV_BTNMATRIX_CTRL_HIDDEN\000"
 10567      544E4D41 
 10567      54524958 
 10567      5F435452 
 10567      4C5F4849 
 10568              	.LASF430:
 10569 0677 70726F63 		.ascii	"proc\000"
 10569      00
 10570              	.LASF188:
 10571 067c 70726F70 		.ascii	"prop\000"
 10571      00
 10572              	.LASF613:
 10573 0681 4C565F49 		.ascii	"LV_IMGBTN_STATE_CHECKED_RELEASED\000"
 10573      4D474254 
 10573      4E5F5354 
 10573      4154455F 
 10573      43484543 
 10574              	.LASF589:
 10575 06a2 4C565F42 		.ascii	"LV_BAR_MODE_RANGE\000"
 10575      41525F4D 
 10575      4F44455F 
 10575      52414E47 
 10575      4500
ARM GAS  C:\Users\haske\AppData\Local\Temp\cc65HANE.s 			page 214


 10576              	.LASF541:
 10577 06b4 4C565F45 		.ascii	"LV_EVENT_DRAW_MAIN\000"
 10577      56454E54 
 10577      5F445241 
 10577      575F4D41 
 10577      494E00
 10578              	.LASF100:
 10579 06c7 4C565F53 		.ascii	"LV_STYLE_MIN_WIDTH\000"
 10579      54594C45 
 10579      5F4D494E 
 10579      5F574944 
 10579      544800
 10580              	.LASF174:
 10581 06da 4C565F53 		.ascii	"LV_STYLE_BLEND_MODE\000"
 10581      54594C45 
 10581      5F424C45 
 10581      4E445F4D 
 10581      4F444500 
 10582              	.LASF437:
 10583 06ee 666F6375 		.ascii	"focus_cb\000"
 10583      735F6362 
 10583      00
 10584              	.LASF476:
 10585 06f7 4C565F4F 		.ascii	"LV_OBJ_FLAG_LAYOUT_1\000"
 10585      424A5F46 
 10585      4C41475F 
 10585      4C41594F 
 10585      55545F31 
 10586              	.LASF220:
 10587 070c 62675F69 		.ascii	"bg_img_recolor\000"
 10587      6D675F72 
 10587      65636F6C 
 10587      6F7200
 10588              	.LASF270:
 10589 071b 726F756E 		.ascii	"rounded\000"
 10589      64656400 
 10590              	.LASF526:
 10591 0723 4C565F45 		.ascii	"LV_EVENT_LONG_PRESSED_REPEAT\000"
 10591      56454E54 
 10591      5F4C4F4E 
 10591      475F5052 
 10591      45535345 
 10592              	.LASF534:
 10593 0740 4C565F45 		.ascii	"LV_EVENT_FOCUSED\000"
 10593      56454E54 
 10593      5F464F43 
 10593      55534544 
 10593      00
 10594              	.LASF645:
 10595 0751 696E6465 		.ascii	"indev\000"
 10595      7600
 10596              	.LASF105:
 10597 0757 4C565F53 		.ascii	"LV_STYLE_X\000"
 10597      54594C45 
 10597      5F5800
 10598              	.LASF106:
 10599 0762 4C565F53 		.ascii	"LV_STYLE_Y\000"
ARM GAS  C:\Users\haske\AppData\Local\Temp\cc65HANE.s 			page 215


 10599      54594C45 
 10599      5F5900
 10600              	.LASF571:
 10601 076d 6C765F67 		.ascii	"lv_group_t\000"
 10601      726F7570 
 10601      5F7400
 10602              	.LASF120:
 10603 0778 4C565F53 		.ascii	"LV_STYLE_BG_GRAD_COLOR\000"
 10603      54594C45 
 10603      5F42475F 
 10603      47524144 
 10603      5F434F4C 
 10604              	.LASF459:
 10605 078f 4C565F4F 		.ascii	"LV_OBJ_FLAG_SCROLLABLE\000"
 10605      424A5F46 
 10605      4C41475F 
 10605      5343524F 
 10605      4C4C4142 
 10606              	.LASF185:
 10607 07a6 4C565F53 		.ascii	"LV_STYLE_PROP_ANY\000"
 10607      54594C45 
 10607      5F50524F 
 10607      505F414E 
 10607      5900
 10608              	.LASF267:
 10609 07b8 73746172 		.ascii	"start_angle\000"
 10609      745F616E 
 10609      676C6500 
 10610              	.LASF424:
 10611 07c4 64697361 		.ascii	"disabled\000"
 10611      626C6564 
 10611      00
 10612              	.LASF330:
 10613 07cd 73775F72 		.ascii	"sw_rotate\000"
 10613      6F746174 
 10613      6500
 10614              	.LASF619:
 10615 07d7 7461625F 		.ascii	"tab_pos\000"
 10615      706F7300 
 10616              	.LASF622:
 10617 07df 6C765F6F 		.ascii	"lv_obj_get_style_base_dir\000"
 10617      626A5F67 
 10617      65745F73 
 10617      74796C65 
 10617      5F626173 
 10618              	.LASF102:
 10619 07f9 4C565F53 		.ascii	"LV_STYLE_HEIGHT\000"
 10619      54594C45 
 10619      5F484549 
 10619      47485400 
 10620              	.LASF383:
 10621 0809 6C765F69 		.ascii	"lv_indev_state_t\000"
 10621      6E646576 
 10621      5F737461 
 10621      74655F74 
 10621      00
 10622              	.LASF559:
ARM GAS  C:\Users\haske\AppData\Local\Temp\cc65HANE.s 			page 216


 10623 081a 4C565F45 		.ascii	"LV_EVENT_SCREEN_LOADED\000"
 10623      56454E54 
 10623      5F534352 
 10623      45454E5F 
 10623      4C4F4144 
 10624              	.LASF433:
 10625 0831 62746E5F 		.ascii	"btn_points\000"
 10625      706F696E 
 10625      747300
 10626              	.LASF121:
 10627 083c 4C565F53 		.ascii	"LV_STYLE_BG_GRAD_DIR\000"
 10627      54594C45 
 10627      5F42475F 
 10627      47524144 
 10627      5F444952 
 10628              	.LASF517:
 10629 0851 73746F70 		.ascii	"stop_processing\000"
 10629      5F70726F 
 10629      63657373 
 10629      696E6700 
 10630              	.LASF556:
 10631 0861 4C565F45 		.ascii	"LV_EVENT_CHILD_DELETED\000"
 10631      56454E54 
 10631      5F434849 
 10631      4C445F44 
 10631      454C4554 
 10632              	.LASF593:
 10633 0878 4C565F42 		.ascii	"LV_BTNMATRIX_CTRL_DISABLED\000"
 10633      544E4D41 
 10633      54524958 
 10633      5F435452 
 10633      4C5F4449 
 10634              	.LASF663:
 10635 0893 4C565F53 		.ascii	"LV_STYLE_GRID_COLUMN_DSC_ARRAY\000"
 10635      54594C45 
 10635      5F475249 
 10635      445F434F 
 10635      4C554D4E 
 10636              	.LASF697:
 10637 08b2 6C765F6F 		.ascii	"lv_obj_invalidate\000"
 10637      626A5F69 
 10637      6E76616C 
 10637      69646174 
 10637      6500
 10638              	.LASF88:
 10639 08c4 6C765F67 		.ascii	"lv_grad_dir_t\000"
 10639      7261645F 
 10639      6469725F 
 10639      7400
 10640              	.LASF539:
 10641 08d2 4C565F45 		.ascii	"LV_EVENT_REFR_EXT_DRAW_SIZE\000"
 10641      56454E54 
 10641      5F524546 
 10641      525F4558 
 10641      545F4452 
 10642              	.LASF641:
 10643 08ee 69645F72 		.ascii	"id_rtl\000"
ARM GAS  C:\Users\haske\AppData\Local\Temp\cc65HANE.s 			page 217


 10643      746C00
 10644              	.LASF248:
 10645 08f5 616C6967 		.ascii	"align\000"
 10645      6E00
 10646              	.LASF488:
 10647 08fb 4C565F53 		.ascii	"LV_SCROLLBAR_MODE_AUTO\000"
 10647      43524F4C 
 10647      4C424152 
 10647      5F4D4F44 
 10647      455F4155 
 10648              	.LASF611:
 10649 0912 4C565F49 		.ascii	"LV_IMGBTN_STATE_PRESSED\000"
 10649      4D474254 
 10649      4E5F5354 
 10649      4154455F 
 10649      50524553 
 10650              	.LASF4:
 10651 092a 5F5F696E 		.ascii	"__int16_t\000"
 10651      7431365F 
 10651      7400
 10652              	.LASF6:
 10653 0934 5F5F7569 		.ascii	"__uint16_t\000"
 10653      6E743136 
 10653      5F7400
 10654              	.LASF451:
 10655 093f 4C565F50 		.ascii	"LV_PART_TICKS\000"
 10655      4152545F 
 10655      5449434B 
 10655      5300
 10656              	.LASF166:
 10657 094d 4C565F53 		.ascii	"LV_STYLE_TEXT_ALIGN\000"
 10657      54594C45 
 10657      5F544558 
 10657      545F414C 
 10657      49474E00 
 10658              	.LASF241:
 10659 0961 73656C5F 		.ascii	"sel_start\000"
 10659      73746172 
 10659      7400
 10660              	.LASF506:
 10661 096b 68656967 		.ascii	"height_def\000"
 10661      68745F64 
 10661      656600
 10662              	.LASF257:
 10663 0976 6672616D 		.ascii	"frame_id\000"
 10663      655F6964 
 10663      00
 10664              	.LASF303:
 10665 097f 6C617965 		.ascii	"layer_instance_size\000"
 10665      725F696E 
 10665      7374616E 
 10665      63655F73 
 10665      697A6500 
 10666              	.LASF573:
 10667 0993 6368696C 		.ascii	"child_cnt\000"
 10667      645F636E 
 10667      7400
ARM GAS  C:\Users\haske\AppData\Local\Temp\cc65HANE.s 			page 218


 10668              	.LASF500:
 10669 099d 5F6C765F 		.ascii	"_lv_obj_class_t\000"
 10669      6F626A5F 
 10669      636C6173 
 10669      735F7400 
 10670              	.LASF692:
 10671 09ad 6C765F6F 		.ascii	"lv_obj_clear_flag\000"
 10671      626A5F63 
 10671      6C656172 
 10671      5F666C61 
 10671      6700
 10672              	.LASF598:
 10673 09bf 4C565F42 		.ascii	"LV_BTNMATRIX_CTRL_RECOLOR\000"
 10673      544E4D41 
 10673      54524958 
 10673      5F435452 
 10673      4C5F5245 
 10674              	.LASF531:
 10675 09d9 4C565F45 		.ascii	"LV_EVENT_SCROLL\000"
 10675      56454E54 
 10675      5F534352 
 10675      4F4C4C00 
 10676              	.LASF583:
 10677 09e9 6C617965 		.ascii	"layer_type\000"
 10677      725F7479 
 10677      706500
 10678              	.LASF365:
 10679 09f4 696E765F 		.ascii	"inv_en_cnt\000"
 10679      656E5F63 
 10679      6E7400
 10680              	.LASF436:
 10681 09ff 6F626A5F 		.ascii	"obj_focus\000"
 10681      666F6375 
 10681      7300
 10682              	.LASF396:
 10683 0a09 67657374 		.ascii	"gesture_min_velocity\000"
 10683      7572655F 
 10683      6D696E5F 
 10683      76656C6F 
 10683      63697479 
 10684              	.LASF375:
 10685 0a1e 4C565F49 		.ascii	"LV_INDEV_TYPE_NONE\000"
 10685      4E444556 
 10685      5F545950 
 10685      455F4E4F 
 10685      4E4500
 10686              	.LASF158:
 10687 0a31 4C565F53 		.ascii	"LV_STYLE_ARC_OPA\000"
 10687      54594C45 
 10687      5F415243 
 10687      5F4F5041 
 10687      00
 10688              	.LASF147:
 10689 0a42 4C565F53 		.ascii	"LV_STYLE_IMG_RECOLOR\000"
 10689      54594C45 
 10689      5F494D47 
 10689      5F524543 
ARM GAS  C:\Users\haske\AppData\Local\Temp\cc65HANE.s 			page 219


 10689      4F4C4F52 
 10690              	.LASF3:
 10691 0a57 756E7369 		.ascii	"unsigned char\000"
 10691      676E6564 
 10691      20636861 
 10691      7200
 10692              	.LASF87:
 10693 0a65 6C765F62 		.ascii	"lv_border_side_t\000"
 10693      6F726465 
 10693      725F7369 
 10693      64655F74 
 10693      00
 10694              	.LASF65:
 10695 0a76 756E6465 		.ascii	"underline_position\000"
 10695      726C696E 
 10695      655F706F 
 10695      73697469 
 10695      6F6E00
 10696              	.LASF403:
 10697 0a89 6C617374 		.ascii	"last_raw_point\000"
 10697      5F726177 
 10697      5F706F69 
 10697      6E7400
 10698              	.LASF681:
 10699 0a98 6C765F62 		.ascii	"lv_btnmatrix_set_map\000"
 10699      746E6D61 
 10699      74726978 
 10699      5F736574 
 10699      5F6D6170 
 10700              	.LASF458:
 10701 0aad 4C565F4F 		.ascii	"LV_OBJ_FLAG_CHECKABLE\000"
 10701      424A5F46 
 10701      4C41475F 
 10701      43484543 
 10701      4B41424C 
 10702              	.LASF586:
 10703 0ac3 6C765F74 		.ascii	"lv_theme_apply_cb_t\000"
 10703      68656D65 
 10703      5F617070 
 10703      6C795F63 
 10703      625F7400 
 10704              	.LASF128:
 10705 0ad7 4C565F53 		.ascii	"LV_STYLE_BG_IMG_RECOLOR\000"
 10705      54594C45 
 10705      5F42475F 
 10705      494D475F 
 10705      5245434F 
 10706              	.LASF86:
 10707 0aef 6C765F74 		.ascii	"lv_text_decor_t\000"
 10707      6578745F 
 10707      6465636F 
 10707      725F7400 
 10708              	.LASF183:
 10709 0aff 5F4C565F 		.ascii	"_LV_STYLE_LAST_BUILT_IN_PROP\000"
 10709      5354594C 
 10709      455F4C41 
 10709      53545F42 
ARM GAS  C:\Users\haske\AppData\Local\Temp\cc65HANE.s 			page 220


 10709      55494C54 
 10710              	.LASF712:
 10711 0b1c 6C765F6F 		.ascii	"lv_obj_get_parent\000"
 10711      626A5F67 
 10711      65745F70 
 10711      6172656E 
 10711      7400
 10712              	.LASF421:
 10713 0b2e 5F6C765F 		.ascii	"_lv_indev_proc_t\000"
 10713      696E6465 
 10713      765F7072 
 10713      6F635F74 
 10713      00
 10714              	.LASF359:
 10715 0b3f 64656C5F 		.ascii	"del_prev\000"
 10715      70726576 
 10715      00
 10716              	.LASF39:
 10717 0b48 6C765F70 		.ascii	"lv_point_t\000"
 10717      6F696E74 
 10717      5F7400
 10718              	.LASF660:
 10719 0b53 4C565F53 		.ascii	"LV_STYLE_FLEX_CROSS_PLACE\000"
 10719      54594C45 
 10719      5F464C45 
 10719      585F4352 
 10719      4F53535F 
 10720              	.LASF678:
 10721 0b6d 6C765F6F 		.ascii	"lv_obj_create\000"
 10721      626A5F63 
 10721      72656174 
 10721      6500
 10722              	.LASF658:
 10723 0b7b 4C565F53 		.ascii	"LV_STYLE_FLEX_FLOW\000"
 10723      54594C45 
 10723      5F464C45 
 10723      585F464C 
 10723      4F5700
 10724              	.LASF316:
 10725 0b8e 666C7573 		.ascii	"flushing_last\000"
 10725      68696E67 
 10725      5F6C6173 
 10725      7400
 10726              	.LASF358:
 10727 0b9c 64726177 		.ascii	"draw_prev_over_act\000"
 10727      5F707265 
 10727      765F6F76 
 10727      65725F61 
 10727      637400
 10728              	.LASF305:
 10729 0baf 6C765F6C 		.ascii	"lv_ll_node_t\000"
 10729      6C5F6E6F 
 10729      64655F74 
 10729      00
 10730              	.LASF511:
 10731 0bbc 74617267 		.ascii	"target\000"
 10731      657400
ARM GAS  C:\Users\haske\AppData\Local\Temp\cc65HANE.s 			page 221


 10732              	.LASF376:
 10733 0bc3 4C565F49 		.ascii	"LV_INDEV_TYPE_POINTER\000"
 10733      4E444556 
 10733      5F545950 
 10733      455F504F 
 10733      494E5445 
 10734              	.LASF520:
 10735 0bd9 4C565F45 		.ascii	"LV_EVENT_ALL\000"
 10735      56454E54 
 10735      5F414C4C 
 10735      00
 10736              	.LASF239:
 10737 0be6 6C765F64 		.ascii	"lv_draw_rect_dsc_t\000"
 10737      7261775F 
 10737      72656374 
 10737      5F647363 
 10737      5F7400
 10738              	.LASF498:
 10739 0bf9 69735F74 		.ascii	"is_trans\000"
 10739      72616E73 
 10739      00
 10740              	.LASF487:
 10741 0c02 4C565F53 		.ascii	"LV_SCROLLBAR_MODE_ACTIVE\000"
 10741      43524F4C 
 10741      4C424152 
 10741      5F4D4F44 
 10741      455F4143 
 10742              	.LASF80:
 10743 0c1b 4C565F42 		.ascii	"LV_BASE_DIR_RTL\000"
 10743      4153455F 
 10743      4449525F 
 10743      52544C00 
 10744              	.LASF413:
 10745 0c2b 67657374 		.ascii	"gesture_sum\000"
 10745      7572655F 
 10745      73756D00 
 10746              	.LASF75:
 10747 0c37 6C765F63 		.ascii	"lv_color_t\000"
 10747      6F6C6F72 
 10747      5F7400
 10748              	.LASF53:
 10749 0c42 626F785F 		.ascii	"box_h\000"
 10749      6800
 10750              	.LASF528:
 10751 0c48 4C565F45 		.ascii	"LV_EVENT_RELEASED\000"
 10751      56454E54 
 10751      5F52454C 
 10751      45415345 
 10751      4400
 10752              	.LASF323:
 10753 0c5a 70687973 		.ascii	"physical_hor_res\000"
 10753      6963616C 
 10753      5F686F72 
 10753      5F726573 
 10753      00
 10754              	.LASF52:
 10755 0c6b 626F785F 		.ascii	"box_w\000"
ARM GAS  C:\Users\haske\AppData\Local\Temp\cc65HANE.s 			page 222


 10755      7700
 10756              	.LASF77:
 10757 0c71 6C765F74 		.ascii	"lv_text_flag_t\000"
 10757      6578745F 
 10757      666C6167 
 10757      5F7400
 10758              	.LASF338:
 10759 0c80 77616974 		.ascii	"wait_cb\000"
 10759      5F636200 
 10760              	.LASF416:
 10761 0c88 67657374 		.ascii	"gesture_sent\000"
 10761      7572655F 
 10761      73656E74 
 10761      00
 10762              	.LASF74:
 10763 0c95 6C765F63 		.ascii	"lv_color16_t\000"
 10763      6F6C6F72 
 10763      31365F74 
 10763      00
 10764              	.LASF27:
 10765 0ca2 74696D65 		.ascii	"timer_cb\000"
 10765      725F6362 
 10765      00
 10766              	.LASF450:
 10767 0cab 4C565F50 		.ascii	"LV_PART_ITEMS\000"
 10767      4152545F 
 10767      4954454D 
 10767      5300
 10768              	.LASF496:
 10769 0cb9 73656C65 		.ascii	"selector\000"
 10769      63746F72 
 10769      00
 10770              	.LASF497:
 10771 0cc2 69735F6C 		.ascii	"is_local\000"
 10771      6F63616C 
 10771      00
 10772              	.LASF157:
 10773 0ccb 4C565F53 		.ascii	"LV_STYLE_ARC_COLOR\000"
 10773      54594C45 
 10773      5F415243 
 10773      5F434F4C 
 10773      4F5200
 10774              	.LASF610:
 10775 0cde 4C565F49 		.ascii	"LV_IMGBTN_STATE_RELEASED\000"
 10775      4D474254 
 10775      4E5F5354 
 10775      4154455F 
 10775      52454C45 
 10776              	.LASF566:
 10777 0cf7 4C565F45 		.ascii	"LV_EVENT_PREPROCESS\000"
 10777      56454E54 
 10777      5F505245 
 10777      50524F43 
 10777      45535300 
 10778              	.LASF218:
 10779 0d0b 62675F69 		.ascii	"bg_img_src\000"
 10779      6D675F73 
ARM GAS  C:\Users\haske\AppData\Local\Temp\cc65HANE.s 			page 223


 10779      726300
 10780              	.LASF302:
 10781 0d16 6C617965 		.ascii	"layer_destroy\000"
 10781      725F6465 
 10781      7374726F 
 10781      7900
 10782              	.LASF161:
 10783 0d24 4C565F53 		.ascii	"LV_STYLE_TEXT_OPA\000"
 10783      54594C45 
 10783      5F544558 
 10783      545F4F50 
 10783      4100
 10784              	.LASF331:
 10785 0d36 616E7469 		.ascii	"antialiasing\000"
 10785      616C6961 
 10785      73696E67 
 10785      00
 10786              	.LASF374:
 10787 0d43 666F6E74 		.ascii	"font_large\000"
 10787      5F6C6172 
 10787      676500
 10788              	.LASF710:
 10789 0d4e 6C765F6F 		.ascii	"lv_obj_get_scroll_end\000"
 10789      626A5F67 
 10789      65745F73 
 10789      63726F6C 
 10789      6C5F656E 
 10790              	.LASF204:
 10791 0d64 636F6F72 		.ascii	"coords\000"
 10791      647300
 10792              	.LASF144:
 10793 0d6b 4C565F53 		.ascii	"LV_STYLE_SHADOW_COLOR\000"
 10793      54594C45 
 10793      5F534841 
 10793      444F575F 
 10793      434F4C4F 
 10794              	.LASF38:
 10795 0d81 6C765F63 		.ascii	"lv_coord_t\000"
 10795      6F6F7264 
 10795      5F7400
 10796              	.LASF230:
 10797 0d8c 6F75746C 		.ascii	"outline_width\000"
 10797      696E655F 
 10797      77696474 
 10797      6800
 10798              	.LASF301:
 10799 0d9a 6C617965 		.ascii	"layer_blend\000"
 10799      725F626C 
 10799      656E6400 
 10800              	.LASF504:
 10801 0da6 6576656E 		.ascii	"event_cb\000"
 10801      745F6362 
 10801      00
 10802              	.LASF655:
 10803 0daf 74616273 		.ascii	"tabsize_create\000"
 10803      697A655F 
 10803      63726561 
ARM GAS  C:\Users\haske\AppData\Local\Temp\cc65HANE.s 			page 224


 10803      746500
 10804              	.LASF250:
 10805 0dbe 6465636F 		.ascii	"decor\000"
 10805      7200
 10806              	.LASF208:
 10807 0dc4 7363725F 		.ascii	"scr_layout_inv\000"
 10807      6C61796F 
 10807      75745F69 
 10807      6E7600
 10808              	.LASF570:
 10809 0dd3 6C765F67 		.ascii	"lv_group_edge_cb_t\000"
 10809      726F7570 
 10809      5F656467 
 10809      655F6362 
 10809      5F7400
 10810              	.LASF662:
 10811 0de6 4C565F53 		.ascii	"LV_STYLE_FLEX_GROW\000"
 10811      54594C45 
 10811      5F464C45 
 10811      585F4752 
 10811      4F5700
 10812              	.LASF519:
 10813 0df9 6C765F6F 		.ascii	"lv_obj_class_t\000"
 10813      626A5F63 
 10813      6C617373 
 10813      5F7400
 10814              	.LASF460:
 10815 0e08 4C565F4F 		.ascii	"LV_OBJ_FLAG_SCROLL_ELASTIC\000"
 10815      424A5F46 
 10815      4C41475F 
 10815      5343524F 
 10815      4C4C5F45 
 10816              	.LASF134:
 10817 0e23 4C565F53 		.ascii	"LV_STYLE_BORDER_SIDE\000"
 10817      54594C45 
 10817      5F424F52 
 10817      4445525F 
 10817      53494445 
 10818              	.LASF165:
 10819 0e38 4C565F53 		.ascii	"LV_STYLE_TEXT_DECOR\000"
 10819      54594C45 
 10819      5F544558 
 10819      545F4445 
 10819      434F5200 
 10820              	.LASF679:
 10821 0e4c 6C765F62 		.ascii	"lv_btnmatrix_set_one_checked\000"
 10821      746E6D61 
 10821      74726978 
 10821      5F736574 
 10821      5F6F6E65 
 10822              	.LASF574:
 10823 0e69 67726F75 		.ascii	"group_p\000"
 10823      705F7000 
 10824              	.LASF708:
 10825 0e71 6C765F65 		.ascii	"lv_event_get_target\000"
 10825      76656E74 
 10825      5F676574 
ARM GAS  C:\Users\haske\AppData\Local\Temp\cc65HANE.s 			page 225


 10825      5F746172 
 10825      67657400 
 10826              	.LASF237:
 10827 0e85 73686164 		.ascii	"shadow_spread\000"
 10827      6F775F73 
 10827      70726561 
 10827      6400
 10828              	.LASF614:
 10829 0e93 4C565F49 		.ascii	"LV_IMGBTN_STATE_CHECKED_PRESSED\000"
 10829      4D474254 
 10829      4E5F5354 
 10829      4154455F 
 10829      43484543 
 10830              	.LASF24:
 10831 0eb3 6C765F74 		.ascii	"lv_timer_cb_t\000"
 10831      696D6572 
 10831      5F63625F 
 10831      7400
 10832              	.LASF314:
 10833 0ec1 73697A65 		.ascii	"size\000"
 10833      00
 10834              	.LASF596:
 10835 0ec6 4C565F42 		.ascii	"LV_BTNMATRIX_CTRL_CLICK_TRIG\000"
 10835      544E4D41 
 10835      54524958 
 10835      5F435452 
 10835      4C5F434C 
 10836              	.LASF337:
 10837 0ee3 6D6F6E69 		.ascii	"monitor_cb\000"
 10837      746F725F 
 10837      636200
 10838              	.LASF620:
 10839 0eee 6C765F74 		.ascii	"lv_tabview_t\000"
 10839      61627669 
 10839      65775F74 
 10839      00
 10840              	.LASF447:
 10841 0efb 4C565F50 		.ascii	"LV_PART_INDICATOR\000"
 10841      4152545F 
 10841      494E4449 
 10841      4341544F 
 10841      5200
 10842              	.LASF329:
 10843 0f0d 66756C6C 		.ascii	"full_refresh\000"
 10843      5F726566 
 10843      72657368 
 10843      00
 10844              	.LASF31:
 10845 0f1a 73697A65 		.ascii	"size_t\000"
 10845      5F7400
 10846              	.LASF607:
 10847 0f21 4C565F46 		.ascii	"LV_FLEX_FLOW_COLUMN_WRAP\000"
 10847      4C45585F 
 10847      464C4F57 
 10847      5F434F4C 
 10847      554D4E5F 
 10848              	.LASF16:
ARM GAS  C:\Users\haske\AppData\Local\Temp\cc65HANE.s 			page 226


 10849 0f3a 75696E74 		.ascii	"uint8_t\000"
 10849      385F7400 
 10850              	.LASF449:
 10851 0f42 4C565F50 		.ascii	"LV_PART_SELECTED\000"
 10851      4152545F 
 10851      53454C45 
 10851      43544544 
 10851      00
 10852              	.LASF150:
 10853 0f53 4C565F53 		.ascii	"LV_STYLE_LINE_DASH_WIDTH\000"
 10853      54594C45 
 10853      5F4C494E 
 10853      455F4441 
 10853      53485F57 
 10854              	.LASF125:
 10855 0f6c 4C565F53 		.ascii	"LV_STYLE_BG_DITHER_MODE\000"
 10855      54594C45 
 10855      5F42475F 
 10855      44495448 
 10855      45525F4D 
 10856              	.LASF328:
 10857 0f84 64697265 		.ascii	"direct_mode\000"
 10857      63745F6D 
 10857      6F646500 
 10858              	.LASF694:
 10859 0f90 6C765F6F 		.ascii	"lv_obj_class_init_obj\000"
 10859      626A5F63 
 10859      6C617373 
 10859      5F696E69 
 10859      745F6F62 
 10860              	.LASF290:
 10861 0fa6 64726177 		.ascii	"draw_img_decoded\000"
 10861      5F696D67 
 10861      5F646563 
 10861      6F646564 
 10861      00
 10862              	.LASF650:
 10863 0fb7 70616765 		.ascii	"page\000"
 10863      00
 10864              	.LASF595:
 10865 0fbc 4C565F42 		.ascii	"LV_BTNMATRIX_CTRL_CHECKED\000"
 10865      544E4D41 
 10865      54524958 
 10865      5F435452 
 10865      4C5F4348 
 10866              	.LASF514:
 10867 0fd6 70617261 		.ascii	"param\000"
 10867      6D00
 10868              	.LASF469:
 10869 0fdc 4C565F4F 		.ascii	"LV_OBJ_FLAG_PRESS_LOCK\000"
 10869      424A5F46 
 10869      4C41475F 
 10869      50524553 
 10869      535F4C4F 
 10870              	.LASF386:
 10871 0ff3 656E635F 		.ascii	"enc_diff\000"
 10871      64696666 
ARM GAS  C:\Users\haske\AppData\Local\Temp\cc65HANE.s 			page 227


 10871      00
 10872              	.LASF350:
 10873 0ffc 7468656D 		.ascii	"theme\000"
 10873      6500
 10874              	.LASF322:
 10875 1002 7665725F 		.ascii	"ver_res\000"
 10875      72657300 
 10876              	.LASF46:
 10877 100a 4C565F44 		.ascii	"LV_DIR_HOR\000"
 10877      49525F48 
 10877      4F5200
 10878              	.LASF552:
 10879 1015 4C565F45 		.ascii	"LV_EVENT_CANCEL\000"
 10879      56454E54 
 10879      5F43414E 
 10879      43454C00 
 10880              	.LASF279:
 10881 1025 5F6C765F 		.ascii	"_lv_draw_layer_ctx_t\000"
 10881      64726177 
 10881      5F6C6179 
 10881      65725F63 
 10881      74785F74 
 10882              	.LASF361:
 10883 103a 62675F69 		.ascii	"bg_img\000"
 10883      6D6700
 10884              	.LASF714:
 10885 1041 6C765F6F 		.ascii	"lv_obj_get_child_cnt\000"
 10885      626A5F67 
 10885      65745F63 
 10885      68696C64 
 10885      5F636E74 
 10886              	.LASF391:
 10887 1056 72656164 		.ascii	"read_cb\000"
 10887      5F636200 
 10888              	.LASF608:
 10889 105e 4C565F46 		.ascii	"LV_FLEX_FLOW_COLUMN_REVERSE\000"
 10889      4C45585F 
 10889      464C4F57 
 10889      5F434F4C 
 10889      554D4E5F 
 10890              	.LASF196:
 10891 107a 70726F70 		.ascii	"prop_cnt\000"
 10891      5F636E74 
 10891      00
 10892              	.LASF417:
 10893 1083 6C617374 		.ascii	"last_state\000"
 10893      5F737461 
 10893      746500
 10894              	.LASF690:
 10895 108e 6C765F6F 		.ascii	"lv_obj_set_scroll_snap_x\000"
 10895      626A5F73 
 10895      65745F73 
 10895      63726F6C 
 10895      6C5F736E 
 10896              	.LASF639:
 10897 10a7 616E696D 		.ascii	"anim_en\000"
 10897      5F656E00 
ARM GAS  C:\Users\haske\AppData\Local\Temp\cc65HANE.s 			page 228


 10898              	.LASF226:
 10899 10af 626F7264 		.ascii	"border_opa\000"
 10899      65725F6F 
 10899      706100
 10900              	.LASF242:
 10901 10ba 73656C5F 		.ascii	"sel_end\000"
 10901      656E6400 
 10902              	.LASF280:
 10903 10c2 61726561 		.ascii	"area_full\000"
 10903      5F66756C 
 10903      6C00
 10904              	.LASF352:
 10905 10cc 6163745F 		.ascii	"act_scr\000"
 10905      73637200 
 10906              	.LASF177:
 10907 10d4 4C565F53 		.ascii	"LV_STYLE_TRANSLATE_X\000"
 10907      54594C45 
 10907      5F545241 
 10907      4E534C41 
 10907      54455F58 
 10908              	.LASF178:
 10909 10e9 4C565F53 		.ascii	"LV_STYLE_TRANSLATE_Y\000"
 10909      54594C45 
 10909      5F545241 
 10909      4E534C41 
 10909      54455F59 
 10910              	.LASF324:
 10911 10fe 70687973 		.ascii	"physical_ver_res\000"
 10911      6963616C 
 10911      5F766572 
 10911      5F726573 
 10911      00
 10912              	.LASF644:
 10913 110f 74765F6F 		.ascii	"tv_obj\000"
 10913      626A00
 10914              	.LASF513:
 10915 1116 636F6465 		.ascii	"code\000"
 10915      00
 10916              	.LASF214:
 10917 111b 626C656E 		.ascii	"blend_mode\000"
 10917      645F6D6F 
 10917      646500
 10918              	.LASF163:
 10919 1126 4C565F53 		.ascii	"LV_STYLE_TEXT_LETTER_SPACE\000"
 10919      54594C45 
 10919      5F544558 
 10919      545F4C45 
 10919      54544552 
 10920              	.LASF42:
 10921 1141 4C565F44 		.ascii	"LV_DIR_LEFT\000"
 10921      49525F4C 
 10921      45465400 
 10922              	.LASF652:
 10923 114d 6F6C645F 		.ascii	"old_map\000"
 10923      6D617000 
 10924              	.LASF463:
 10925 1155 4C565F4F 		.ascii	"LV_OBJ_FLAG_SCROLL_CHAIN_HOR\000"
ARM GAS  C:\Users\haske\AppData\Local\Temp\cc65HANE.s 			page 229


 10925      424A5F46 
 10925      4C41475F 
 10925      5343524F 
 10925      4C4C5F43 
 10926              	.LASF283:
 10927 1172 6D61785F 		.ascii	"max_row_with_no_alpha\000"
 10927      726F775F 
 10927      77697468 
 10927      5F6E6F5F 
 10927      616C7068 
 10928              	.LASF699:
 10929 1188 6C765F6F 		.ascii	"lv_obj_get_style_prop\000"
 10929      626A5F67 
 10929      65745F73 
 10929      74796C65 
 10929      5F70726F 
 10930              	.LASF555:
 10931 119e 4C565F45 		.ascii	"LV_EVENT_CHILD_CREATED\000"
 10931      56454E54 
 10931      5F434849 
 10931      4C445F43 
 10931      52454154 
 10932              	.LASF184:
 10933 11b5 5F4C565F 		.ascii	"_LV_STYLE_NUM_BUILT_IN_PROPS\000"
 10933      5354594C 
 10933      455F4E55 
 10933      4D5F4255 
 10933      494C545F 
 10934              	.LASF171:
 10935 11d2 4C565F53 		.ascii	"LV_STYLE_ANIM_TIME\000"
 10935      54594C45 
 10935      5F414E49 
 10935      4D5F5449 
 10935      4D4500
 10936              	.LASF123:
 10937 11e5 4C565F53 		.ascii	"LV_STYLE_BG_GRAD_STOP\000"
 10937      54594C45 
 10937      5F42475F 
 10937      47524144 
 10937      5F53544F 
 10938              	.LASF287:
 10939 11fb 696E6974 		.ascii	"init_buf\000"
 10939      5F627566 
 10939      00
 10940              	.LASF524:
 10941 1204 4C565F45 		.ascii	"LV_EVENT_SHORT_CLICKED\000"
 10941      56454E54 
 10941      5F53484F 
 10941      52545F43 
 10941      4C49434B 
 10942              	.LASF471:
 10943 121b 4C565F4F 		.ascii	"LV_OBJ_FLAG_GESTURE_BUBBLE\000"
 10943      424A5F46 
 10943      4C41475F 
 10943      47455354 
 10943      5552455F 
 10944              	.LASF153:
ARM GAS  C:\Users\haske\AppData\Local\Temp\cc65HANE.s 			page 230


 10945 1236 4C565F53 		.ascii	"LV_STYLE_LINE_COLOR\000"
 10945      54594C45 
 10945      5F4C494E 
 10945      455F434F 
 10945      4C4F5200 
 10946              	.LASF325:
 10947 124a 6F666673 		.ascii	"offset_x\000"
 10947      65745F78 
 10947      00
 10948              	.LASF326:
 10949 1253 6F666673 		.ascii	"offset_y\000"
 10949      65745F79 
 10949      00
 10950              	.LASF360:
 10951 125c 72656E64 		.ascii	"rendering_in_progress\000"
 10951      6572696E 
 10951      675F696E 
 10951      5F70726F 
 10951      67726573 
 10952              	.LASF189:
 10953 1272 76616C75 		.ascii	"value\000"
 10953      6500
 10954              	.LASF626:
 10955 1278 74616276 		.ascii	"tabview\000"
 10955      69657700 
 10956              	.LASF344:
 10957 1280 64726177 		.ascii	"draw_ctx_init\000"
 10957      5F637478 
 10957      5F696E69 
 10957      7400
 10958              	.LASF635:
 10959 128e 6C765F74 		.ascii	"lv_tabview_get_content\000"
 10959      61627669 
 10959      65775F67 
 10959      65745F63 
 10959      6F6E7465 
 10960              	.LASF228:
 10961 12a5 626F7264 		.ascii	"border_side\000"
 10961      65725F73 
 10961      69646500 
 10962              	.LASF412:
 10963 12b1 7363726F 		.ascii	"scroll_area\000"
 10963      6C6C5F61 
 10963      72656100 
 10964              	.LASF439:
 10965 12bd 66726F7A 		.ascii	"frozen\000"
 10965      656E00
 10966              	.LASF26:
 10967 12c4 6C617374 		.ascii	"last_run\000"
 10967      5F72756E 
 10967      00
 10968              	.LASF568:
 10969 12cd 6C765F65 		.ascii	"lv_event_t\000"
 10969      76656E74 
 10969      5F7400
 10970              	.LASF558:
 10971 12d8 4C565F45 		.ascii	"LV_EVENT_SCREEN_LOAD_START\000"
ARM GAS  C:\Users\haske\AppData\Local\Temp\cc65HANE.s 			page 231


 10971      56454E54 
 10971      5F534352 
 10971      45454E5F 
 10971      4C4F4144 
 10972              	.LASF394:
 10973 12f3 7363726F 		.ascii	"scroll_limit\000"
 10973      6C6C5F6C 
 10973      696D6974 
 10973      00
 10974              	.LASF457:
 10975 1300 4C565F4F 		.ascii	"LV_OBJ_FLAG_CLICK_FOCUSABLE\000"
 10975      424A5F46 
 10975      4C41475F 
 10975      434C4943 
 10975      4B5F464F 
 10976              	.LASF576:
 10977 131c 7363726F 		.ascii	"scroll\000"
 10977      6C6C00
 10978              	.LASF530:
 10979 1323 4C565F45 		.ascii	"LV_EVENT_SCROLL_END\000"
 10979      56454E54 
 10979      5F534352 
 10979      4F4C4C5F 
 10979      454E4400 
 10980              	.LASF94:
 10981 1337 73746F70 		.ascii	"stops_count\000"
 10981      735F636F 
 10981      756E7400 
 10982              	.LASF291:
 10983 1343 64726177 		.ascii	"draw_img\000"
 10983      5F696D67 
 10983      00
 10984              	.LASF368:
 10985 134c 6170706C 		.ascii	"apply_cb\000"
 10985      795F6362 
 10985      00
 10986              	.LASF264:
 10987 1355 726F756E 		.ascii	"round_end\000"
 10987      645F656E 
 10987      6400
 10988              	.LASF292:
 10989 135f 64726177 		.ascii	"draw_letter\000"
 10989      5F6C6574 
 10989      74657200 
 10990              	.LASF494:
 10991 136b 6C765F73 		.ascii	"lv_scroll_snap_t\000"
 10991      63726F6C 
 10991      6C5F736E 
 10991      61705F74 
 10991      00
 10992              	.LASF83:
 10993 137c 4C565F42 		.ascii	"LV_BASE_DIR_WEAK\000"
 10993      4153455F 
 10993      4449525F 
 10993      5745414B 
 10993      00
 10994              	.LASF136:
ARM GAS  C:\Users\haske\AppData\Local\Temp\cc65HANE.s 			page 232


 10995 138d 4C565F53 		.ascii	"LV_STYLE_OUTLINE_WIDTH\000"
 10995      54594C45 
 10995      5F4F5554 
 10995      4C494E45 
 10995      5F574944 
 10996              	.LASF284:
 10997 13a4 6F726967 		.ascii	"original\000"
 10997      696E616C 
 10997      00
 10998              	.LASF590:
 10999 13ad 5F4C565F 		.ascii	"_LV_BTNMATRIX_WIDTH\000"
 10999      42544E4D 
 10999      41545249 
 10999      585F5749 
 10999      44544800 
 11000              	.LASF657:
 11001 13c1 6C765F6F 		.ascii	"lv_obj_class\000"
 11001      626A5F63 
 11001      6C617373 
 11001      00
 11002              	.LASF384:
 11003 13ce 706F696E 		.ascii	"point\000"
 11003      7400
 11004              	.LASF448:
 11005 13d4 4C565F50 		.ascii	"LV_PART_KNOB\000"
 11005      4152545F 
 11005      4B4E4F42 
 11005      00
 11006              	.LASF693:
 11007 13e1 6C765F6F 		.ascii	"lv_obj_class_create_obj\000"
 11007      626A5F63 
 11007      6C617373 
 11007      5F637265 
 11007      6174655F 
 11008              	.LASF234:
 11009 13f9 73686164 		.ascii	"shadow_width\000"
 11009      6F775F77 
 11009      69647468 
 11009      00
 11010              	.LASF664:
 11011 1406 4C565F53 		.ascii	"LV_STYLE_GRID_COLUMN_ALIGN\000"
 11011      54594C45 
 11011      5F475249 
 11011      445F434F 
 11011      4C554D4E 
 11012              	.LASF222:
 11013 1421 62675F69 		.ascii	"bg_img_recolor_opa\000"
 11013      6D675F72 
 11013      65636F6C 
 11013      6F725F6F 
 11013      706100
 11014              	.LASF41:
 11015 1434 4C565F44 		.ascii	"LV_DIR_NONE\000"
 11015      49525F4E 
 11015      4F4E4500 
 11016              	.LASF225:
 11017 1440 626F7264 		.ascii	"border_width\000"
ARM GAS  C:\Users\haske\AppData\Local\Temp\cc65HANE.s 			page 233


 11017      65725F77 
 11017      69647468 
 11017      00
 11018              	.LASF667:
 11019 144d 4C565F53 		.ascii	"LV_STYLE_GRID_CELL_COLUMN_POS\000"
 11019      54594C45 
 11019      5F475249 
 11019      445F4345 
 11019      4C4C5F43 
 11020              	.LASF238:
 11021 146b 73686164 		.ascii	"shadow_opa\000"
 11021      6F775F6F 
 11021      706100
 11022              	.LASF51:
 11023 1476 6164765F 		.ascii	"adv_w\000"
 11023      7700
 11024              	.LASF309:
 11025 147c 6C765F6C 		.ascii	"lv_ll_t\000"
 11025      6C5F7400 
 11026              	.LASF353:
 11027 1484 70726576 		.ascii	"prev_scr\000"
 11027      5F736372 
 11027      00
 11028              	.LASF401:
 11029 148d 696E6465 		.ascii	"indev_point\000"
 11029      765F706F 
 11029      696E7400 
 11030              	.LASF272:
 11031 1499 4C565F44 		.ascii	"LV_DRAW_LAYER_FLAG_NONE\000"
 11031      5241575F 
 11031      4C415945 
 11031      525F464C 
 11031      41475F4E 
 11032              	.LASF522:
 11033 14b1 4C565F45 		.ascii	"LV_EVENT_PRESSING\000"
 11033      56454E54 
 11033      5F505245 
 11033      5353494E 
 11033      4700
 11034              	.LASF414:
 11035 14c3 7363726F 		.ascii	"scroll_dir\000"
 11035      6C6C5F64 
 11035      697200
 11036              	.LASF562:
 11037 14ce 4C565F45 		.ascii	"LV_EVENT_STYLE_CHANGED\000"
 11037      56454E54 
 11037      5F535459 
 11037      4C455F43 
 11037      48414E47 
 11038              	.LASF285:
 11039 14e5 6C765F64 		.ascii	"lv_draw_layer_ctx_t\000"
 11039      7261775F 
 11039      6C617965 
 11039      725F6374 
 11039      785F7400 
 11040              	.LASF271:
 11041 14f9 6C765F64 		.ascii	"lv_draw_arc_dsc_t\000"
ARM GAS  C:\Users\haske\AppData\Local\Temp\cc65HANE.s 			page 234


 11041      7261775F 
 11041      6172635F 
 11041      6473635F 
 11041      7400
 11042              	.LASF130:
 11043 150b 4C565F53 		.ascii	"LV_STYLE_BG_IMG_TILED\000"
 11043      54594C45 
 11043      5F42475F 
 11043      494D475F 
 11043      54494C45 
 11044              	.LASF56:
 11045 1521 70617573 		.ascii	"paused\000"
 11045      656400
 11046              	.LASF719:
 11047 1528 5F6C765F 		.ascii	"_lv_event_dsc_t\000"
 11047      6576656E 
 11047      745F6473 
 11047      635F7400 
 11048              	.LASF126:
 11049 1538 4C565F53 		.ascii	"LV_STYLE_BG_IMG_SRC\000"
 11049      54594C45 
 11049      5F42475F 
 11049      494D475F 
 11049      53524300 
 11050              	.LASF700:
 11051 154c 6C765F6F 		.ascii	"lv_obj_scroll_to_x\000"
 11051      626A5F73 
 11051      63726F6C 
 11051      6C5F746F 
 11051      5F7800
 11052              	.LASF25:
 11053 155f 70657269 		.ascii	"period\000"
 11053      6F6400
 11054              	.LASF429:
 11055 1566 5F6C765F 		.ascii	"_lv_indev_t\000"
 11055      696E6465 
 11055      765F7400 
 11056              	.LASF461:
 11057 1572 4C565F4F 		.ascii	"LV_OBJ_FLAG_SCROLL_MOMENTUM\000"
 11057      424A5F46 
 11057      4C41475F 
 11057      5343524F 
 11057      4C4C5F4D 
 11058              	.LASF418:
 11059 158e 6C617374 		.ascii	"last_key\000"
 11059      5F6B6579 
 11059      00
 11060              	.LASF173:
 11061 1597 4C565F53 		.ascii	"LV_STYLE_TRANSITION\000"
 11061      54594C45 
 11061      5F545241 
 11061      4E534954 
 11061      494F4E00 
 11062              	.LASF116:
 11063 15ab 4C565F53 		.ascii	"LV_STYLE_BASE_DIR\000"
 11063      54594C45 
 11063      5F424153 
ARM GAS  C:\Users\haske\AppData\Local\Temp\cc65HANE.s 			page 235


 11063      455F4449 
 11063      5200
 11064              	.LASF649:
 11065 15bd 6E616D65 		.ascii	"name\000"
 11065      00
 11066              	.LASF113:
 11067 15c2 4C565F53 		.ascii	"LV_STYLE_PAD_RIGHT\000"
 11067      54594C45 
 11067      5F504144 
 11067      5F524947 
 11067      485400
 11068              	.LASF15:
 11069 15d5 696E7438 		.ascii	"int8_t\000"
 11069      5F7400
 11070              	.LASF333:
 11071 15dc 666C7573 		.ascii	"flush_cb\000"
 11071      685F6362 
 11071      00
 11072              	.LASF82:
 11073 15e5 4C565F42 		.ascii	"LV_BASE_DIR_NEUTRAL\000"
 11073      4153455F 
 11073      4449525F 
 11073      4E455554 
 11073      52414C00 
 11074              	.LASF312:
 11075 15f9 62756632 		.ascii	"buf2\000"
 11075      00
 11076              	.LASF426:
 11077 15fe 74797065 		.ascii	"types\000"
 11077      7300
 11078              	.LASF194:
 11079 1604 70726F70 		.ascii	"prop1\000"
 11079      3100
 11080              	.LASF251:
 11081 160a 6C765F64 		.ascii	"lv_draw_label_dsc_t\000"
 11081      7261775F 
 11081      6C616265 
 11081      6C5F6473 
 11081      635F7400 
 11082              	.LASF501:
 11083 161e 62617365 		.ascii	"base_class\000"
 11083      5F636C61 
 11083      737300
 11084              	.LASF624:
 11085 1629 6C765F6F 		.ascii	"lv_obj_get_style_pad_row\000"
 11085      626A5F67 
 11085      65745F73 
 11085      74796C65 
 11085      5F706164 
 11086              	.LASF249:
 11087 1642 666C6167 		.ascii	"flag\000"
 11087      00
 11088              	.LASF547:
 11089 1647 4C565F45 		.ascii	"LV_EVENT_DRAW_PART_END\000"
 11089      56454E54 
 11089      5F445241 
 11089      575F5041 
ARM GAS  C:\Users\haske\AppData\Local\Temp\cc65HANE.s 			page 236


 11089      52545F45 
 11090              	.LASF190:
 11091 165e 6C765F73 		.ascii	"lv_style_const_prop_t\000"
 11091      74796C65 
 11091      5F636F6E 
 11091      73745F70 
 11091      726F705F 
 11092              	.LASF509:
 11093 1674 696E7374 		.ascii	"instance_size\000"
 11093      616E6365 
 11093      5F73697A 
 11093      6500
 11094              	.LASF604:
 11095 1682 4C565F46 		.ascii	"LV_FLEX_FLOW_ROW_WRAP\000"
 11095      4C45585F 
 11095      464C4F57 
 11095      5F524F57 
 11095      5F575241 
 11096              	.LASF223:
 11097 1698 62675F69 		.ascii	"bg_img_tiled\000"
 11097      6D675F74 
 11097      696C6564 
 11097      00
 11098              	.LASF390:
 11099 16a5 74797065 		.ascii	"type\000"
 11099      00
 11100              	.LASF532:
 11101 16aa 4C565F45 		.ascii	"LV_EVENT_GESTURE\000"
 11101      56454E54 
 11101      5F474553 
 11101      54555245 
 11101      00
 11102              	.LASF342:
 11103 16bb 636F6C6F 		.ascii	"color_chroma_key\000"
 11103      725F6368 
 11103      726F6D61 
 11103      5F6B6579 
 11103      00
 11104              	.LASF311:
 11105 16cc 62756631 		.ascii	"buf1\000"
 11105      00
 11106              	.LASF107:
 11107 16d1 4C565F53 		.ascii	"LV_STYLE_ALIGN\000"
 11107      54594C45 
 11107      5F414C49 
 11107      474E00
 11108              	.LASF231:
 11109 16e0 6F75746C 		.ascii	"outline_pad\000"
 11109      696E655F 
 11109      70616400 
 11110              	.LASF518:
 11111 16ec 73746F70 		.ascii	"stop_bubbling\000"
 11111      5F627562 
 11111      626C696E 
 11111      6700
 11112              	.LASF114:
 11113 16fa 4C565F53 		.ascii	"LV_STYLE_PAD_ROW\000"
ARM GAS  C:\Users\haske\AppData\Local\Temp\cc65HANE.s 			page 237


 11113      54594C45 
 11113      5F504144 
 11113      5F524F57 
 11113      00
 11114              	.LASF33:
 11115 170b 73697A65 		.ascii	"sizetype\000"
 11115      74797065 
 11115      00
 11116              	.LASF680:
 11117 1714 6C765F6D 		.ascii	"lv_mem_alloc\000"
 11117      656D5F61 
 11117      6C6C6F63 
 11117      00
 11118              	.LASF119:
 11119 1721 4C565F53 		.ascii	"LV_STYLE_BG_OPA\000"
 11119      54594C45 
 11119      5F42475F 
 11119      4F504100 
 11120              	.LASF347:
 11121 1731 5F6C765F 		.ascii	"_lv_disp_t\000"
 11121      64697370 
 11121      5F7400
 11122              	.LASF54:
 11123 173c 6F66735F 		.ascii	"ofs_x\000"
 11123      7800
 11124              	.LASF55:
 11125 1742 6F66735F 		.ascii	"ofs_y\000"
 11125      7900
 11126              	.LASF44:
 11127 1748 4C565F44 		.ascii	"LV_DIR_TOP\000"
 11127      49525F54 
 11127      4F5000
 11128              	.LASF17:
 11129 1753 696E7431 		.ascii	"int16_t\000"
 11129      365F7400 
 11130              	.LASF380:
 11131 175b 6C765F69 		.ascii	"lv_indev_type_t\000"
 11131      6E646576 
 11131      5F747970 
 11131      655F7400 
 11132              	.LASF538:
 11133 176b 4C565F45 		.ascii	"LV_EVENT_COVER_CHECK\000"
 11133      56454E54 
 11133      5F434F56 
 11133      45525F43 
 11133      4845434B 
 11134              	.LASF7:
 11135 1780 73686F72 		.ascii	"short unsigned int\000"
 11135      7420756E 
 11135      7369676E 
 11135      65642069 
 11135      6E7400
 11136              	.LASF199:
 11137 1793 5F6C765F 		.ascii	"_lv_obj_t\000"
 11137      6F626A5F 
 11137      7400
 11138              	.LASF2:
ARM GAS  C:\Users\haske\AppData\Local\Temp\cc65HANE.s 			page 238


 11139 179d 7369676E 		.ascii	"signed char\000"
 11139      65642063 
 11139      68617200 
 11140              	.LASF577:
 11141 17a9 6578745F 		.ascii	"ext_click_pad\000"
 11141      636C6963 
 11141      6B5F7061 
 11141      6400
 11142              	.LASF675:
 11143 17b7 6C765F6F 		.ascii	"lv_obj_set_flex_flow\000"
 11143      626A5F73 
 11143      65745F66 
 11143      6C65785F 
 11143      666C6F77 
 11144              	.LASF124:
 11145 17cc 4C565F53 		.ascii	"LV_STYLE_BG_GRAD\000"
 11145      54594C45 
 11145      5F42475F 
 11145      47524144 
 11145      00
 11146              	.LASF705:
 11147 17dd 6C765F62 		.ascii	"lv_btnmatrix_set_btn_ctrl\000"
 11147      746E6D61 
 11147      74726978 
 11147      5F736574 
 11147      5F62746E 
 11148              	.LASF397:
 11149 17f7 67657374 		.ascii	"gesture_limit\000"
 11149      7572655F 
 11149      6C696D69 
 11149      7400
 11150              	.LASF29:
 11151 1805 72657065 		.ascii	"repeat_count\000"
 11151      61745F63 
 11151      6F756E74 
 11151      00
 11152              	.LASF132:
 11153 1812 4C565F53 		.ascii	"LV_STYLE_BORDER_OPA\000"
 11153      54594C45 
 11153      5F424F52 
 11153      4445525F 
 11153      4F504100 
 11154              	.LASF92:
 11155 1826 6C765F67 		.ascii	"lv_gradient_stop_t\000"
 11155      72616469 
 11155      656E745F 
 11155      73746F70 
 11155      5F7400
 11156              	.LASF718:
 11157 1839 433A5C50 		.ascii	"C:\\Projects\\PainDrain\\firmware\\PainDrain\\PainD"
 11157      726F6A65 
 11157      6374735C 
 11157      5061696E 
 11157      44726169 
 11158 1867 7261696E 		.ascii	"rain.cydsn\000"
 11158      2E637964 
 11158      736E00
ARM GAS  C:\Users\haske\AppData\Local\Temp\cc65HANE.s 			page 239


 11159              	.LASF253:
 11160 1872 7A6F6F6D 		.ascii	"zoom\000"
 11160      00
 11161              	.LASF621:
 11162 1877 70617274 		.ascii	"part\000"
 11162      00
 11163              	.LASF569:
 11164 187c 6C765F67 		.ascii	"lv_group_focus_cb_t\000"
 11164      726F7570 
 11164      5F666F63 
 11164      75735F63 
 11164      625F7400 
 11165              	.LASF438:
 11166 1890 65646765 		.ascii	"edge_cb\000"
 11166      5F636200 
 11167              	.LASF369:
 11168 1898 64697370 		.ascii	"disp\000"
 11168      00
 11169              	.LASF474:
 11170 189d 4C565F4F 		.ascii	"LV_OBJ_FLAG_FLOATING\000"
 11170      424A5F46 
 11170      4C41475F 
 11170      464C4F41 
 11170      54494E47 
 11171              	.LASF133:
 11172 18b2 4C565F53 		.ascii	"LV_STYLE_BORDER_WIDTH\000"
 11172      54594C45 
 11172      5F424F52 
 11172      4445525F 
 11172      57494454 
 11173              	.LASF379:
 11174 18c8 4C565F49 		.ascii	"LV_INDEV_TYPE_ENCODER\000"
 11174      4E444556 
 11174      5F545950 
 11174      455F454E 
 11174      434F4445 
 11175              	.LASF72:
 11176 18de 67726565 		.ascii	"green\000"
 11176      6E00
 11177              	.LASF40:
 11178 18e4 6C765F61 		.ascii	"lv_area_t\000"
 11178      7265615F 
 11178      7400
 11179              	.LASF669:
 11180 18ee 4C565F53 		.ascii	"LV_STYLE_GRID_CELL_X_ALIGN\000"
 11180      54594C45 
 11180      5F475249 
 11180      445F4345 
 11180      4C4C5F58 
 11181              	.LASF381:
 11182 1909 4C565F49 		.ascii	"LV_INDEV_STATE_RELEASED\000"
 11182      4E444556 
 11182      5F535441 
 11182      54455F52 
 11182      454C4541 
 11183              	.LASF440:
 11184 1921 65646974 		.ascii	"editing\000"
ARM GAS  C:\Users\haske\AppData\Local\Temp\cc65HANE.s 			page 240


 11184      696E6700 
 11185              	.LASF192:
 11186 1929 76616C75 		.ascii	"values_and_props\000"
 11186      65735F61 
 11186      6E645F70 
 11186      726F7073 
 11186      00
 11187              	.LASF73:
 11188 193a 66756C6C 		.ascii	"full\000"
 11188      00
 11189              	.LASF47:
 11190 193f 4C565F44 		.ascii	"LV_DIR_VER\000"
 11190      49525F56 
 11190      455200
 11191              	.LASF683:
 11192 194a 6C765F6F 		.ascii	"lv_obj_add_flag\000"
 11192      626A5F61 
 11192      64645F66 
 11192      6C616700 
 11193              	.LASF96:
 11194 195a 6C765F67 		.ascii	"lv_grad_dsc_t\000"
 11194      7261645F 
 11194      6473635F 
 11194      7400
 11195              	.LASF243:
 11196 1968 73656C5F 		.ascii	"sel_color\000"
 11196      636F6C6F 
 11196      7200
 11197              	.LASF629:
 11198 1972 62746E6D 		.ascii	"btnm\000"
 11198      00
 11199              	.LASF630:
 11200 1977 636F6E74 		.ascii	"cont\000"
 11200      00
 11201              	.LASF210:
 11202 197c 7374796C 		.ascii	"style_cnt\000"
 11202      655F636E 
 11202      7400
 11203              	.LASF246:
 11204 1986 6C657474 		.ascii	"letter_space\000"
 11204      65725F73 
 11204      70616365 
 11204      00
 11205              	.LASF554:
 11206 1993 4C565F45 		.ascii	"LV_EVENT_CHILD_CHANGED\000"
 11206      56454E54 
 11206      5F434849 
 11206      4C445F43 
 11206      48414E47 
 11207              	.LASF615:
 11208 19aa 4C565F49 		.ascii	"LV_IMGBTN_STATE_CHECKED_DISABLED\000"
 11208      4D474254 
 11208      4E5F5354 
 11208      4154455F 
 11208      43484543 
 11209              	.LASF206:
 11210 19cb 73746174 		.ascii	"state\000"
ARM GAS  C:\Users\haske\AppData\Local\Temp\cc65HANE.s 			page 241


 11210      6500
 11211              	.LASF671:
 11212 19d1 4C565F53 		.ascii	"LV_STYLE_GRID_CELL_ROW_SPAN\000"
 11212      54594C45 
 11212      5F475249 
 11212      445F4345 
 11212      4C4C5F52 
 11213              	.LASF219:
 11214 19ed 62675F69 		.ascii	"bg_img_symbol_font\000"
 11214      6D675F73 
 11214      796D626F 
 11214      6C5F666F 
 11214      6E7400
 11215              	.LASF367:
 11216 1a00 5F6C765F 		.ascii	"_lv_theme_t\000"
 11216      7468656D 
 11216      655F7400 
 11217              	.LASF62:
 11218 1a0c 6C696E65 		.ascii	"line_height\000"
 11218      5F686569 
 11218      67687400 
 11219              	.LASF507:
 11220 1a18 65646974 		.ascii	"editable\000"
 11220      61626C65 
 11220      00
 11221              	.LASF320:
 11222 1a21 5F6C765F 		.ascii	"_lv_disp_drv_t\000"
 11222      64697370 
 11222      5F647276 
 11222      5F7400
 11223              	.LASF339:
 11224 1a30 636C6561 		.ascii	"clean_dcache_cb\000"
 11224      6E5F6463 
 11224      61636865 
 11224      5F636200 
 11225              	.LASF256:
 11226 1a40 7265636F 		.ascii	"recolor_opa\000"
 11226      6C6F725F 
 11226      6F706100 
 11227              	.LASF567:
 11228 1a4c 6C765F65 		.ascii	"lv_event_code_t\000"
 11228      76656E74 
 11228      5F636F64 
 11228      655F7400 
 11229              	.LASF632:
 11230 1a5c 6E65775F 		.ascii	"new_name\000"
 11230      6E616D65 
 11230      00
 11231              	.LASF298:
 11232 1a65 62756666 		.ascii	"buffer_copy\000"
 11232      65725F63 
 11232      6F707900 
 11233              	.LASF656:
 11234 1a71 6C765F66 		.ascii	"lv_font_montserrat_14\000"
 11234      6F6E745F 
 11234      6D6F6E74 
 11234      73657272 
ARM GAS  C:\Users\haske\AppData\Local\Temp\cc65HANE.s 			page 242


 11234      61745F31 
 11235              	.LASF277:
 11236 1a87 6275665F 		.ascii	"buf_area\000"
 11236      61726561 
 11236      00
 11237              	.LASF475:
 11238 1a90 4C565F4F 		.ascii	"LV_OBJ_FLAG_OVERFLOW_VISIBLE\000"
 11238      424A5F46 
 11238      4C41475F 
 11238      4F564552 
 11238      464C4F57 
 11239              	.LASF616:
 11240 1aad 5F4C565F 		.ascii	"_LV_IMGBTN_STATE_NUM\000"
 11240      494D4742 
 11240      544E5F53 
 11240      54415445 
 11240      5F4E554D 
 11241              	.LASF70:
 11242 1ac2 6C765F66 		.ascii	"lv_font_t\000"
 11242      6F6E745F 
 11242      7400
 11243              	.LASF464:
 11244 1acc 4C565F4F 		.ascii	"LV_OBJ_FLAG_SCROLL_CHAIN_VER\000"
 11244      424A5F46 
 11244      4C41475F 
 11244      5343524F 
 11244      4C4C5F43 
 11245              	.LASF686:
 11246 1ae9 6C765F6F 		.ascii	"lv_obj_set_flex_grow\000"
 11246      626A5F73 
 11246      65745F66 
 11246      6C65785F 
 11246      67726F77 
 11247              	.LASF640:
 11248 1afe 62746E73 		.ascii	"btns\000"
 11248      00
 11249              	.LASF388:
 11250 1b03 6C765F69 		.ascii	"lv_indev_data_t\000"
 11250      6E646576 
 11250      5F646174 
 11250      615F7400 
 11251              	.LASF659:
 11252 1b13 4C565F53 		.ascii	"LV_STYLE_FLEX_MAIN_PLACE\000"
 11252      54594C45 
 11252      5F464C45 
 11252      585F4D41 
 11252      494E5F50 
 11253              	.LASF691:
 11254 1b2c 6C765F6F 		.ascii	"lv_obj_set_scroll_snap_y\000"
 11254      626A5F73 
 11254      65745F73 
 11254      63726F6C 
 11254      6C5F736E 
 11255              	.LASF341:
 11256 1b45 72656E64 		.ascii	"render_start_cb\000"
 11256      65725F73 
 11256      74617274 
ARM GAS  C:\Users\haske\AppData\Local\Temp\cc65HANE.s 			page 243


 11256      5F636200 
 11257              	.LASF382:
 11258 1b55 4C565F49 		.ascii	"LV_INDEV_STATE_PRESSED\000"
 11258      4E444556 
 11258      5F535441 
 11258      54455F50 
 11258      52455353 
 11259              	.LASF446:
 11260 1b6c 4C565F50 		.ascii	"LV_PART_SCROLLBAR\000"
 11260      4152545F 
 11260      5343524F 
 11260      4C4C4241 
 11260      5200
 11261              	.LASF9:
 11262 1b7e 6C6F6E67 		.ascii	"long int\000"
 11262      20696E74 
 11262      00
 11263              	.LASF502:
 11264 1b87 636F6E73 		.ascii	"constructor_cb\000"
 11264      74727563 
 11264      746F725F 
 11264      636200
 11265              	.LASF187:
 11266 1b96 6C765F73 		.ascii	"lv_style_prop_t\000"
 11266      74796C65 
 11266      5F70726F 
 11266      705F7400 
 11267              	.LASF419:
 11268 1ba6 706F696E 		.ascii	"pointer\000"
 11268      74657200 
 11269              	.LASF499:
 11270 1bae 5F6C765F 		.ascii	"_lv_obj_style_t\000"
 11270      6F626A5F 
 11270      7374796C 
 11270      655F7400 
 11271              	.LASF549:
 11272 1bbe 4C565F45 		.ascii	"LV_EVENT_INSERT\000"
 11272      56454E54 
 11272      5F494E53 
 11272      45525400 
 11273              	.LASF293:
 11274 1bce 64726177 		.ascii	"draw_line\000"
 11274      5F6C696E 
 11274      6500
 11275              	.LASF235:
 11276 1bd8 73686164 		.ascii	"shadow_ofs_x\000"
 11276      6F775F6F 
 11276      66735F78 
 11276      00
 11277              	.LASF236:
 11278 1be5 73686164 		.ascii	"shadow_ofs_y\000"
 11278      6F775F6F 
 11278      66735F79 
 11278      00
 11279              	.LASF560:
 11280 1bf2 4C565F45 		.ascii	"LV_EVENT_SCREEN_UNLOADED\000"
 11280      56454E54 
ARM GAS  C:\Users\haske\AppData\Local\Temp\cc65HANE.s 			page 244


 11280      5F534352 
 11280      45454E5F 
 11280      554E4C4F 
 11281              	.LASF104:
 11282 1c0b 4C565F53 		.ascii	"LV_STYLE_MAX_HEIGHT\000"
 11282      54594C45 
 11282      5F4D4158 
 11282      5F484549 
 11282      47485400 
 11283              	.LASF456:
 11284 1c1f 4C565F4F 		.ascii	"LV_OBJ_FLAG_CLICKABLE\000"
 11284      424A5F46 
 11284      4C41475F 
 11284      434C4943 
 11284      4B41424C 
 11285              	.LASF340:
 11286 1c35 6472765F 		.ascii	"drv_update_cb\000"
 11286      75706461 
 11286      74655F63 
 11286      6200
 11287              	.LASF265:
 11288 1c43 7261775F 		.ascii	"raw_end\000"
 11288      656E6400 
 11289              	.LASF609:
 11290 1c4b 4C565F46 		.ascii	"LV_FLEX_FLOW_COLUMN_WRAP_REVERSE\000"
 11290      4C45585F 
 11290      464C4F57 
 11290      5F434F4C 
 11290      554D4E5F 
 11291              	.LASF145:
 11292 1c6c 4C565F53 		.ascii	"LV_STYLE_SHADOW_OPA\000"
 11292      54594C45 
 11292      5F534841 
 11292      444F575F 
 11292      4F504100 
 11293              	.LASF61:
 11294 1c80 6765745F 		.ascii	"get_glyph_bitmap\000"
 11294      676C7970 
 11294      685F6269 
 11294      746D6170 
 11294      00
 11295              	.LASF505:
 11296 1c91 77696474 		.ascii	"width_def\000"
 11296      685F6465 
 11296      6600
 11297              	.LASF443:
 11298 1c9b 6C765F69 		.ascii	"lv_indev_t\000"
 11298      6E646576 
 11298      5F7400
 11299              	.LASF200:
 11300 1ca6 636C6173 		.ascii	"class_p\000"
 11300      735F7000 
 11301              	.LASF57:
 11302 1cae 69735F70 		.ascii	"is_placeholder\000"
 11302      6C616365 
 11302      686F6C64 
 11302      657200
ARM GAS  C:\Users\haske\AppData\Local\Temp\cc65HANE.s 			page 245


 11303              	.LASF275:
 11304 1cbd 6C765F64 		.ascii	"lv_draw_layer_flags_t\000"
 11304      7261775F 
 11304      6C617965 
 11304      725F666C 
 11304      6167735F 
 11305              	.LASF444:
 11306 1cd3 6C765F73 		.ascii	"lv_state_t\000"
 11306      74617465 
 11306      5F7400
 11307              	.LASF229:
 11308 1cde 6F75746C 		.ascii	"outline_color\000"
 11308      696E655F 
 11308      636F6C6F 
 11308      7200
 11309              	.LASF28:
 11310 1cec 75736572 		.ascii	"user_data\000"
 11310      5F646174 
 11310      6100
 11311              	.LASF76:
 11312 1cf6 6C765F6F 		.ascii	"lv_opa_t\000"
 11312      70615F74 
 11312      00
 11313              	.LASF704:
 11314 1cff 6C765F6F 		.ascii	"lv_obj_update_layout\000"
 11314      626A5F75 
 11314      70646174 
 11314      655F6C61 
 11314      796F7574 
 11315              	.LASF20:
 11316 1d14 75696E74 		.ascii	"uint32_t\000"
 11316      33325F74 
 11316      00
 11317              	.LASF48:
 11318 1d1d 4C565F44 		.ascii	"LV_DIR_ALL\000"
 11318      49525F41 
 11318      4C4C00
 11319              	.LASF485:
 11320 1d28 4C565F53 		.ascii	"LV_SCROLLBAR_MODE_OFF\000"
 11320      43524F4C 
 11320      4C424152 
 11320      5F4D4F44 
 11320      455F4F46 
 11321              	.LASF294:
 11322 1d3e 64726177 		.ascii	"draw_polygon\000"
 11322      5F706F6C 
 11322      79676F6E 
 11322      00
 11323              	.LASF668:
 11324 1d4b 4C565F53 		.ascii	"LV_STYLE_GRID_CELL_COLUMN_SPAN\000"
 11324      54594C45 
 11324      5F475249 
 11324      445F4345 
 11324      4C4C5F43 
 11325              	.LASF508:
 11326 1d6a 67726F75 		.ascii	"group_def\000"
 11326      705F6465 
ARM GAS  C:\Users\haske\AppData\Local\Temp\cc65HANE.s 			page 246


 11326      6600
 11327              	.LASF385:
 11328 1d74 62746E5F 		.ascii	"btn_id\000"
 11328      696400
 11329              	.LASF389:
 11330 1d7b 5F6C765F 		.ascii	"_lv_indev_drv_t\000"
 11330      696E6465 
 11330      765F6472 
 11330      765F7400 
 11331              	.LASF32:
 11332 1d8b 6C6F6E67 		.ascii	"long double\000"
 11332      20646F75 
 11332      626C6500 
 11333              	.LASF550:
 11334 1d97 4C565F45 		.ascii	"LV_EVENT_REFRESH\000"
 11334      56454E54 
 11334      5F524546 
 11334      52455348 
 11334      00
 11335              	.LASF315:
 11336 1da8 666C7573 		.ascii	"flushing\000"
 11336      68696E67 
 11336      00
 11337              	.LASF407:
 11338 1db1 7363726F 		.ascii	"scroll_throw_vect_ori\000"
 11338      6C6C5F74 
 11338      68726F77 
 11338      5F766563 
 11338      745F6F72 
 11339              	.LASF473:
 11340 1dc7 4C565F4F 		.ascii	"LV_OBJ_FLAG_IGNORE_LAYOUT\000"
 11340      424A5F46 
 11340      4C41475F 
 11340      49474E4F 
 11340      52455F4C 
 11341              	.LASF11:
 11342 1de1 6C6F6E67 		.ascii	"long unsigned int\000"
 11342      20756E73 
 11342      69676E65 
 11342      6420696E 
 11342      7400
 11343              	.LASF362:
 11344 1df3 696E765F 		.ascii	"inv_areas\000"
 11344      61726561 
 11344      7300
 11345              	.LASF335:
 11346 1dfd 7365745F 		.ascii	"set_px_cb\000"
 11346      70785F63 
 11346      6200
 11347              	.LASF582:
 11348 1e07 6576656E 		.ascii	"event_dsc_cnt\000"
 11348      745F6473 
 11348      635F636E 
 11348      7400
 11349              	.LASF262:
 11350 1e15 64617368 		.ascii	"dash_gap\000"
 11350      5F676170 
ARM GAS  C:\Users\haske\AppData\Local\Temp\cc65HANE.s 			page 247


 11350      00
 11351              	.LASF336:
 11352 1e1e 636C6561 		.ascii	"clear_cb\000"
 11352      725F6362 
 11352      00
 11353              	.LASF156:
 11354 1e27 4C565F53 		.ascii	"LV_STYLE_ARC_ROUNDED\000"
 11354      54594C45 
 11354      5F415243 
 11354      5F524F55 
 11354      4E444544 
 11355              	.LASF141:
 11356 1e3c 4C565F53 		.ascii	"LV_STYLE_SHADOW_OFS_X\000"
 11356      54594C45 
 11356      5F534841 
 11356      444F575F 
 11356      4F46535F 
 11357              	.LASF142:
 11358 1e52 4C565F53 		.ascii	"LV_STYLE_SHADOW_OFS_Y\000"
 11358      54594C45 
 11358      5F534841 
 11358      444F575F 
 11358      4F46535F 
 11359              	.LASF232:
 11360 1e68 6F75746C 		.ascii	"outline_opa\000"
 11360      696E655F 
 11360      6F706100 
 11361              	.LASF529:
 11362 1e74 4C565F45 		.ascii	"LV_EVENT_SCROLL_BEGIN\000"
 11362      56454E54 
 11362      5F534352 
 11362      4F4C4C5F 
 11362      42454749 
 11363              	.LASF296:
 11364 1e8a 64726177 		.ascii	"draw_bg\000"
 11364      5F626700 
 11365              	.LASF154:
 11366 1e92 4C565F53 		.ascii	"LV_STYLE_LINE_OPA\000"
 11366      54594C45 
 11366      5F4C494E 
 11366      455F4F50 
 11366      4100
 11367              	.LASF491:
 11368 1ea4 4C565F53 		.ascii	"LV_SCROLL_SNAP_START\000"
 11368      43524F4C 
 11368      4C5F534E 
 11368      41505F53 
 11368      54415254 
 11369              	.LASF34:
 11370 1eb9 63686172 		.ascii	"char\000"
 11370      00
 11371              	.LASF489:
 11372 1ebe 6C765F73 		.ascii	"lv_scrollbar_mode_t\000"
 11372      63726F6C 
 11372      6C626172 
 11372      5F6D6F64 
 11372      655F7400 
ARM GAS  C:\Users\haske\AppData\Local\Temp\cc65HANE.s 			page 248


 11373              	.LASF355:
 11374 1ed2 746F705F 		.ascii	"top_layer\000"
 11374      6C617965 
 11374      7200
 11375              	.LASF354:
 11376 1edc 7363725F 		.ascii	"scr_to_load\000"
 11376      746F5F6C 
 11376      6F616400 
 11377              	.LASF523:
 11378 1ee8 4C565F45 		.ascii	"LV_EVENT_PRESS_LOST\000"
 11378      56454E54 
 11378      5F505245 
 11378      53535F4C 
 11378      4F535400 
 11379              	.LASF266:
 11380 1efc 6C765F64 		.ascii	"lv_draw_line_dsc_t\000"
 11380      7261775F 
 11380      6C696E65 
 11380      5F647363 
 11380      5F7400
 11381              	.LASF99:
 11382 1f0f 4C565F53 		.ascii	"LV_STYLE_WIDTH\000"
 11382      54594C45 
 11382      5F574944 
 11382      544800
 11383              	.LASF435:
 11384 1f1e 6F626A5F 		.ascii	"obj_ll\000"
 11384      6C6C00
 11385              	.LASF143:
 11386 1f25 4C565F53 		.ascii	"LV_STYLE_SHADOW_SPREAD\000"
 11386      54594C45 
 11386      5F534841 
 11386      444F575F 
 11386      53505245 
 11387              	.LASF701:
 11388 1f3c 6C765F6F 		.ascii	"lv_obj_get_content_width\000"
 11388      626A5F67 
 11388      65745F63 
 11388      6F6E7465 
 11388      6E745F77 
 11389              	.LASF90:
 11390 1f55 636F6C6F 		.ascii	"color\000"
 11390      7200
 11391              	.LASF79:
 11392 1f5b 4C565F42 		.ascii	"LV_BASE_DIR_LTR\000"
 11392      4153455F 
 11392      4449525F 
 11392      4C545200 
 11393              	.LASF197:
 11394 1f6b 6C765F73 		.ascii	"lv_style_t\000"
 11394      74796C65 
 11394      5F7400
 11395              	.LASF551:
 11396 1f76 4C565F45 		.ascii	"LV_EVENT_READY\000"
 11396      56454E54 
 11396      5F524541 
 11396      445900
ARM GAS  C:\Users\haske\AppData\Local\Temp\cc65HANE.s 			page 249


 11397              	.LASF63:
 11398 1f85 62617365 		.ascii	"base_line\000"
 11398      5F6C696E 
 11398      6500
 11399              	.LASF597:
 11400 1f8f 4C565F42 		.ascii	"LV_BTNMATRIX_CTRL_POPOVER\000"
 11400      544E4D41 
 11400      54524958 
 11400      5F435452 
 11400      4C5F504F 
 11401              	.LASF81:
 11402 1fa9 4C565F42 		.ascii	"LV_BASE_DIR_AUTO\000"
 11402      4153455F 
 11402      4449525F 
 11402      4155544F 
 11402      00
 11403              	.LASF160:
 11404 1fba 4C565F53 		.ascii	"LV_STYLE_TEXT_COLOR\000"
 11404      54594C45 
 11404      5F544558 
 11404      545F434F 
 11404      4C4F5200 
 11405              	.LASF135:
 11406 1fce 4C565F53 		.ascii	"LV_STYLE_BORDER_POST\000"
 11406      54594C45 
 11406      5F424F52 
 11406      4445525F 
 11406      504F5354 
 11407              	.LASF304:
 11408 1fe3 6C765F64 		.ascii	"lv_draw_ctx_t\000"
 11408      7261775F 
 11408      6374785F 
 11408      7400
 11409              	.LASF695:
 11410 1ff1 7374726C 		.ascii	"strlen\000"
 11410      656E00
 11411              	.LASF310:
 11412 1ff8 5F6C765F 		.ascii	"_lv_disp_draw_buf_t\000"
 11412      64697370 
 11412      5F647261 
 11412      775F6275 
 11412      665F7400 
 11413              	.LASF512:
 11414 200c 63757272 		.ascii	"current_target\000"
 11414      656E745F 
 11414      74617267 
 11414      657400
 11415              	.LASF35:
 11416 201b 4C565F41 		.ascii	"LV_ANIM_OFF\000"
 11416      4E494D5F 
 11416      4F464600 
 11417              	.LASF402:
 11418 2027 6C617374 		.ascii	"last_point\000"
 11418      5F706F69 
 11418      6E7400
 11419              	.LASF179:
 11420 2032 4C565F53 		.ascii	"LV_STYLE_TRANSFORM_ZOOM\000"
ARM GAS  C:\Users\haske\AppData\Local\Temp\cc65HANE.s 			page 250


 11420      54594C45 
 11420      5F545241 
 11420      4E53464F 
 11420      524D5F5A 
 11421              	.LASF110:
 11422 204a 4C565F53 		.ascii	"LV_STYLE_PAD_TOP\000"
 11422      54594C45 
 11422      5F504144 
 11422      5F544F50 
 11422      00
 11423              	.LASF709:
 11424 205b 6C765F69 		.ascii	"lv_indev_get_act\000"
 11424      6E646576 
 11424      5F676574 
 11424      5F616374 
 11424      00
 11425              	.LASF247:
 11426 206c 62696469 		.ascii	"bidi_dir\000"
 11426      5F646972 
 11426      00
 11427              	.LASF575:
 11428 2075 6576656E 		.ascii	"event_dsc\000"
 11428      745F6473 
 11428      6300
 11429              	.LASF427:
 11430 207f 70725F74 		.ascii	"pr_timestamp\000"
 11430      696D6573 
 11430      74616D70 
 11430      00
 11431              	.LASF612:
 11432 208c 4C565F49 		.ascii	"LV_IMGBTN_STATE_DISABLED\000"
 11432      4D474254 
 11432      4E5F5354 
 11432      4154455F 
 11432      44495341 
 11433              	.LASF372:
 11434 20a5 666F6E74 		.ascii	"font_small\000"
 11434      5F736D61 
 11434      6C6C00
 11435              	.LASF442:
 11436 20b0 77726170 		.ascii	"wrap\000"
 11436      00
 11437              	.LASF181:
 11438 20b5 4C565F53 		.ascii	"LV_STYLE_TRANSFORM_PIVOT_X\000"
 11438      54594C45 
 11438      5F545241 
 11438      4E53464F 
 11438      524D5F50 
 11439              	.LASF182:
 11440 20d0 4C565F53 		.ascii	"LV_STYLE_TRANSFORM_PIVOT_Y\000"
 11440      54594C45 
 11440      5F545241 
 11440      4E53464F 
 11440      524D5F50 
 11441              	.LASF472:
 11442 20eb 4C565F4F 		.ascii	"LV_OBJ_FLAG_ADV_HITTEST\000"
 11442      424A5F46 
ARM GAS  C:\Users\haske\AppData\Local\Temp\cc65HANE.s 			page 251


 11442      4C41475F 
 11442      4144565F 
 11442      48495454 
 11443              	.LASF599:
 11444 2103 5F4C565F 		.ascii	"_LV_BTNMATRIX_CTRL_RESERVED\000"
 11444      42544E4D 
 11444      41545249 
 11444      585F4354 
 11444      524C5F52 
 11445              	.LASF84:
 11446 211f 6C765F62 		.ascii	"lv_base_dir_t\000"
 11446      6173655F 
 11446      6469725F 
 11446      7400
 11447              	.LASF89:
 11448 212d 6C765F64 		.ascii	"lv_dither_mode_t\000"
 11448      69746865 
 11448      725F6D6F 
 11448      64655F74 
 11448      00
 11449              	.LASF580:
 11450 213e 7363726F 		.ascii	"scroll_snap_x\000"
 11450      6C6C5F73 
 11450      6E61705F 
 11450      7800
 11451              	.LASF581:
 11452 214c 7363726F 		.ascii	"scroll_snap_y\000"
 11452      6C6C5F73 
 11452      6E61705F 
 11452      7900
 11453              	.LASF348:
 11454 215a 64726976 		.ascii	"driver\000"
 11454      657200
 11455              	.LASF481:
 11456 2161 4C565F4F 		.ascii	"LV_OBJ_FLAG_USER_2\000"
 11456      424A5F46 
 11456      4C41475F 
 11456      55534552 
 11456      5F3200
 11457              	.LASF112:
 11458 2174 4C565F53 		.ascii	"LV_STYLE_PAD_LEFT\000"
 11458      54594C45 
 11458      5F504144 
 11458      5F4C4546 
 11458      5400
 11459              	.LASF422:
 11460 2186 6C6F6E67 		.ascii	"long_pr_sent\000"
 11460      5F70725F 
 11460      73656E74 
 11460      00
 11461              	.LASF151:
 11462 2193 4C565F53 		.ascii	"LV_STYLE_LINE_DASH_GAP\000"
 11462      54594C45 
 11462      5F4C494E 
 11462      455F4441 
 11462      53485F47 
 11463              	.LASF299:
ARM GAS  C:\Users\haske\AppData\Local\Temp\cc65HANE.s 			page 252


 11464 21aa 6C617965 		.ascii	"layer_init\000"
 11464      725F696E 
 11464      697400
 11465              	.LASF170:
 11466 21b5 4C565F53 		.ascii	"LV_STYLE_ANIM\000"
 11466      54594C45 
 11466      5F414E49 
 11466      4D00
 11467              	.LASF670:
 11468 21c3 4C565F53 		.ascii	"LV_STYLE_GRID_CELL_ROW_POS\000"
 11468      54594C45 
 11468      5F475249 
 11468      445F4345 
 11468      4C4C5F52 
 11469              	.LASF357:
 11470 21de 73637265 		.ascii	"screen_cnt\000"
 11470      656E5F63 
 11470      6E7400
 11471              	.LASF289:
 11472 21e9 64726177 		.ascii	"draw_arc\000"
 11472      5F617263 
 11472      00
 11473              	.LASF521:
 11474 21f2 4C565F45 		.ascii	"LV_EVENT_PRESSED\000"
 11474      56454E54 
 11474      5F505245 
 11474      53534544 
 11474      00
 11475              	.LASF60:
 11476 2203 6765745F 		.ascii	"get_glyph_dsc\000"
 11476      676C7970 
 11476      685F6473 
 11476      6300
 11477              	.LASF370:
 11478 2211 636F6C6F 		.ascii	"color_primary\000"
 11478      725F7072 
 11478      696D6172 
 11478      7900
 11479              	.LASF585:
 11480 221f 6C765F6F 		.ascii	"lv_obj_t\000"
 11480      626A5F74 
 11480      00
 11481              	.LASF351:
 11482 2228 73637265 		.ascii	"screens\000"
 11482      656E7300 
 11483              	.LASF537:
 11484 2230 4C565F45 		.ascii	"LV_EVENT_HIT_TEST\000"
 11484      56454E54 
 11484      5F484954 
 11484      5F544553 
 11484      5400
 11485              	.LASF572:
 11486 2242 6368696C 		.ascii	"children\000"
 11486      6472656E 
 11486      00
 11487              	.LASF495:
 11488 224b 7374796C 		.ascii	"style\000"
ARM GAS  C:\Users\haske\AppData\Local\Temp\cc65HANE.s 			page 253


 11488      6500
 11489              	.LASF109:
 11490 2251 4C565F53 		.ascii	"LV_STYLE_RADIUS\000"
 11490      54594C45 
 11490      5F524144 
 11490      49555300 
 11491              	.LASF37:
 11492 2261 6C765F61 		.ascii	"lv_anim_enable_t\000"
 11492      6E696D5F 
 11492      656E6162 
 11492      6C655F74 
 11492      00
 11493              	.LASF308:
 11494 2272 7461696C 		.ascii	"tail\000"
 11494      00
 11495              	.LASF180:
 11496 2277 4C565F53 		.ascii	"LV_STYLE_TRANSFORM_ANGLE\000"
 11496      54594C45 
 11496      5F545241 
 11496      4E53464F 
 11496      524D5F41 
 11497              	.LASF321:
 11498 2290 686F725F 		.ascii	"hor_res\000"
 11498      72657300 
 11499              	.LASF672:
 11500 2298 4C565F53 		.ascii	"LV_STYLE_GRID_CELL_Y_ALIGN\000"
 11500      54594C45 
 11500      5F475249 
 11500      445F4345 
 11500      4C4C5F59 
 11501              	.LASF255:
 11502 22b3 7265636F 		.ascii	"recolor\000"
 11502      6C6F7200 
 11503              	.LASF377:
 11504 22bb 4C565F49 		.ascii	"LV_INDEV_TYPE_KEYPAD\000"
 11504      4E444556 
 11504      5F545950 
 11504      455F4B45 
 11504      59504144 
 11505              	.LASF212:
 11506 22d0 775F6C61 		.ascii	"w_layout\000"
 11506      796F7574 
 11506      00
 11507              	.LASF137:
 11508 22d9 4C565F53 		.ascii	"LV_STYLE_OUTLINE_COLOR\000"
 11508      54594C45 
 11508      5F4F5554 
 11508      4C494E45 
 11508      5F434F4C 
 11509              	.LASF45:
 11510 22f0 4C565F44 		.ascii	"LV_DIR_BOTTOM\000"
 11510      49525F42 
 11510      4F54544F 
 11510      4D00
 11511              	.LASF432:
 11512 22fe 67726F75 		.ascii	"group\000"
 11512      7000
ARM GAS  C:\Users\haske\AppData\Local\Temp\cc65HANE.s 			page 254


 11513              	.LASF8:
 11514 2304 5F5F696E 		.ascii	"__int32_t\000"
 11514      7433325F 
 11514      7400
 11515              	.LASF10:
 11516 230e 5F5F7569 		.ascii	"__uint32_t\000"
 11516      6E743332 
 11516      5F7400
 11517              	.LASF233:
 11518 2319 73686164 		.ascii	"shadow_color\000"
 11518      6F775F63 
 11518      6F6C6F72 
 11518      00
 11519              	.LASF540:
 11520 2326 4C565F45 		.ascii	"LV_EVENT_DRAW_MAIN_BEGIN\000"
 11520      56454E54 
 11520      5F445241 
 11520      575F4D41 
 11520      494E5F42 
 11521              	.LASF406:
 11522 233f 7363726F 		.ascii	"scroll_throw_vect\000"
 11522      6C6C5F74 
 11522      68726F77 
 11522      5F766563 
 11522      7400
 11523              	.LASF643:
 11524 2351 636F6E74 		.ascii	"cont_scroll_end_event_cb\000"
 11524      5F736372 
 11524      6F6C6C5F 
 11524      656E645F 
 11524      6576656E 
 11525              	.LASF687:
 11526 236a 6C765F6F 		.ascii	"lv_obj_set_height\000"
 11526      626A5F73 
 11526      65745F68 
 11526      65696768 
 11526      7400
 11527              	.LASF716:
 11528 237c 474E5520 		.ascii	"GNU C11 5.4.1 20160609 (release) [ARM/embedded-5-br"
 11528      43313120 
 11528      352E342E 
 11528      31203230 
 11528      31363036 
 11529 23af 616E6368 		.ascii	"anch revision 237715] -mcpu=cortex-m0plus -mthumb -"
 11529      20726576 
 11529      6973696F 
 11529      6E203233 
 11529      37373135 
 11530 23e2 67202D4F 		.ascii	"g -Og -ffunction-sections -ffat-lto-objects\000"
 11530      67202D66 
 11530      66756E63 
 11530      74696F6E 
 11530      2D736563 
 11531              	.LASF22:
 11532 240e 4C565F52 		.ascii	"LV_RES_OK\000"
 11532      45535F4F 
 11532      4B00
ARM GAS  C:\Users\haske\AppData\Local\Temp\cc65HANE.s 			page 255


 11533              	.LASF224:
 11534 2418 626F7264 		.ascii	"border_color\000"
 11534      65725F63 
 11534      6F6C6F72 
 11534      00
 11535              	.LASF59:
 11536 2425 5F6C765F 		.ascii	"_lv_font_t\000"
 11536      666F6E74 
 11536      5F7400
 11537              	.LASF307:
 11538 2430 68656164 		.ascii	"head\000"
 11538      00
 11539              	.LASF295:
 11540 2435 64726177 		.ascii	"draw_transform\000"
 11540      5F747261 
 11540      6E73666F 
 11540      726D00
 11541              	.LASF441:
 11542 2444 7265666F 		.ascii	"refocus_policy\000"
 11542      6375735F 
 11542      706F6C69 
 11542      637900
 11543              	.LASF364:
 11544 2453 696E765F 		.ascii	"inv_p\000"
 11544      7000
 11545              	.LASF117:
 11546 2459 4C565F53 		.ascii	"LV_STYLE_CLIP_CORNER\000"
 11546      54594C45 
 11546      5F434C49 
 11546      505F434F 
 11546      524E4552 
 11547              	.LASF642:
 11548 246e 6C765F74 		.ascii	"lv_tabview_event\000"
 11548      61627669 
 11548      65775F65 
 11548      76656E74 
 11548      00
 11549              	.LASF21:
 11550 247f 4C565F52 		.ascii	"LV_RES_INV\000"
 11550      45535F49 
 11550      4E5600
 11551              	.LASF688:
 11552 248a 6C765F67 		.ascii	"lv_group_get_default\000"
 11552      726F7570 
 11552      5F676574 
 11552      5F646566 
 11552      61756C74 
 11553              	.LASF259:
 11554 249f 6C765F64 		.ascii	"lv_draw_img_dsc_t\000"
 11554      7261775F 
 11554      696D675F 
 11554      6473635F 
 11554      7400
 11555              	.LASF260:
 11556 24b1 77696474 		.ascii	"width\000"
 11556      6800
 11557              	.LASF349:
ARM GAS  C:\Users\haske\AppData\Local\Temp\cc65HANE.s 			page 256


 11558 24b7 72656672 		.ascii	"refr_timer\000"
 11558      5F74696D 
 11558      657200
 11559              	.LASF227:
 11560 24c2 626F7264 		.ascii	"border_post\000"
 11560      65725F70 
 11560      6F737400 
 11561              	.LASF43:
 11562 24ce 4C565F44 		.ascii	"LV_DIR_RIGHT\000"
 11562      49525F52 
 11562      49474854 
 11562      00
 11563              	.LASF378:
 11564 24db 4C565F49 		.ascii	"LV_INDEV_TYPE_BUTTON\000"
 11564      4E444556 
 11564      5F545950 
 11564      455F4255 
 11564      54544F4E 
 11565              	.LASF682:
 11566 24f0 6C765F6F 		.ascii	"lv_obj_add_event_cb\000"
 11566      626A5F61 
 11566      64645F65 
 11566      76656E74 
 11566      5F636200 
 11567              	.LASF159:
 11568 2504 4C565F53 		.ascii	"LV_STYLE_ARC_IMG_SRC\000"
 11568      54594C45 
 11568      5F415243 
 11568      5F494D47 
 11568      5F535243 
 11569              	.LASF268:
 11570 2519 656E645F 		.ascii	"end_angle\000"
 11570      616E676C 
 11570      6500
 11571              	.LASF36:
 11572 2523 4C565F41 		.ascii	"LV_ANIM_ON\000"
 11572      4E494D5F 
 11572      4F4E00
 11573              	.LASF674:
 11574 252e 6C765F6D 		.ascii	"lv_mem_free\000"
 11574      656D5F66 
 11574      72656500 
 11575              	.LASF139:
 11576 253a 4C565F53 		.ascii	"LV_STYLE_OUTLINE_PAD\000"
 11576      54594C45 
 11576      5F4F5554 
 11576      4C494E45 
 11576      5F504144 
 11577              	.LASF276:
 11578 254f 636C6970 		.ascii	"clip_area\000"
 11578      5F617265 
 11578      6100
 11579              	.LASF428:
 11580 2559 6C6F6E67 		.ascii	"longpr_rep_timestamp\000"
 11580      70725F72 
 11580      65705F74 
 11580      696D6573 
ARM GAS  C:\Users\haske\AppData\Local\Temp\cc65HANE.s 			page 257


 11580      74616D70 
 11581              	.LASF409:
 11582 256e 6C617374 		.ascii	"last_obj\000"
 11582      5F6F626A 
 11582      00
 11583              	.LASF146:
 11584 2577 4C565F53 		.ascii	"LV_STYLE_IMG_OPA\000"
 11584      54594C45 
 11584      5F494D47 
 11584      5F4F5041 
 11584      00
 11585              	.LASF628:
 11586 2588 6C765F74 		.ascii	"lv_tabview_constructor\000"
 11586      61627669 
 11586      65775F63 
 11586      6F6E7374 
 11586      72756374 
 11587              	.LASF651:
 11588 259f 7461625F 		.ascii	"tab_id\000"
 11588      696400
 11589              	.LASF467:
 11590 25a6 4C565F4F 		.ascii	"LV_OBJ_FLAG_SCROLL_WITH_ARROW\000"
 11590      424A5F46 
 11590      4C41475F 
 11590      5343524F 
 11590      4C4C5F57 
 11591              	.LASF13:
 11592 25c4 6C6F6E67 		.ascii	"long long unsigned int\000"
 11592      206C6F6E 
 11592      6720756E 
 11592      7369676E 
 11592      65642069 
 11593              	.LASF201:
 11594 25db 70617265 		.ascii	"parent\000"
 11594      6E7400
 11595              	.LASF466:
 11596 25e2 4C565F4F 		.ascii	"LV_OBJ_FLAG_SCROLL_ON_FOCUS\000"
 11596      424A5F46 
 11596      4C41475F 
 11596      5343524F 
 11596      4C4C5F4F 
 11597              	.LASF393:
 11598 25fe 72656164 		.ascii	"read_timer\000"
 11598      5F74696D 
 11598      657200
 11599              	.LASF546:
 11600 2609 4C565F45 		.ascii	"LV_EVENT_DRAW_PART_BEGIN\000"
 11600      56454E54 
 11600      5F445241 
 11600      575F5041 
 11600      52545F42 
 11601              	.LASF254:
 11602 2622 7069766F 		.ascii	"pivot\000"
 11602      7400
 11603              	.LASF313:
 11604 2628 6275665F 		.ascii	"buf_act\000"
 11604      61637400 
ARM GAS  C:\Users\haske\AppData\Local\Temp\cc65HANE.s 			page 258


 11605              	.LASF148:
 11606 2630 4C565F53 		.ascii	"LV_STYLE_IMG_RECOLOR_OPA\000"
 11606      54594C45 
 11606      5F494D47 
 11606      5F524543 
 11606      4F4C4F52 
 11607              	.LASF606:
 11608 2649 4C565F46 		.ascii	"LV_FLEX_FLOW_ROW_WRAP_REVERSE\000"
 11608      4C45585F 
 11608      464C4F57 
 11608      5F524F57 
 11608      5F575241 
 11609              	.LASF510:
 11610 2667 5F6C765F 		.ascii	"_lv_event_t\000"
 11610      6576656E 
 11610      745F7400 
 11611              	.LASF111:
 11612 2673 4C565F53 		.ascii	"LV_STYLE_PAD_BOTTOM\000"
 11612      54594C45 
 11612      5F504144 
 11612      5F424F54 
 11612      544F4D00 
 11613              	.LASF564:
 11614 2687 4C565F45 		.ascii	"LV_EVENT_GET_SELF_SIZE\000"
 11614      56454E54 
 11614      5F474554 
 11614      5F53454C 
 11614      465F5349 
 11615              	.LASF93:
 11616 269e 73746F70 		.ascii	"stops\000"
 11616      7300
 11617              	.LASF715:
 11618 26a4 6C765F62 		.ascii	"lv_btnmatrix_set_btn_ctrl_all\000"
 11618      746E6D61 
 11618      74726978 
 11618      5F736574 
 11618      5F62746E 
 11619              	.LASF306:
 11620 26c2 6E5F7369 		.ascii	"n_size\000"
 11620      7A6500
 11621              	.LASF579:
 11622 26c9 7363726F 		.ascii	"scrollbar_mode\000"
 11622      6C6C6261 
 11622      725F6D6F 
 11622      646500
 11623              	.LASF594:
 11624 26d8 4C565F42 		.ascii	"LV_BTNMATRIX_CTRL_CHECKABLE\000"
 11624      544E4D41 
 11624      54524958 
 11624      5F435452 
 11624      4C5F4348 
 11625              	.LASF465:
 11626 26f4 4C565F4F 		.ascii	"LV_OBJ_FLAG_SCROLL_CHAIN\000"
 11626      424A5F46 
 11626      4C41475F 
 11626      5343524F 
 11626      4C4C5F43 
ARM GAS  C:\Users\haske\AppData\Local\Temp\cc65HANE.s 			page 259


 11627              	.LASF345:
 11628 270d 64726177 		.ascii	"draw_ctx_deinit\000"
 11628      5F637478 
 11628      5F646569 
 11628      6E697400 
 11629              	.LASF269:
 11630 271d 696D675F 		.ascii	"img_src\000"
 11630      73726300 
 11631              	.LASF454:
 11632 2725 4C565F50 		.ascii	"LV_PART_ANY\000"
 11632      4152545F 
 11632      414E5900 
 11633              	.LASF258:
 11634 2731 616E7469 		.ascii	"antialias\000"
 11634      616C6961 
 11634      7300
 11635              	.LASF282:
 11636 273b 6D61785F 		.ascii	"max_row_with_alpha\000"
 11636      726F775F 
 11636      77697468 
 11636      5F616C70 
 11636      686100
 11637              	.LASF95:
 11638 274e 64697468 		.ascii	"dither\000"
 11638      657200
 11639              	.LASF131:
 11640 2755 4C565F53 		.ascii	"LV_STYLE_BORDER_COLOR\000"
 11640      54594C45 
 11640      5F424F52 
 11640      4445525F 
 11640      434F4C4F 
 11641              	.LASF602:
 11642 276b 4C565F46 		.ascii	"LV_FLEX_FLOW_ROW\000"
 11642      4C45585F 
 11642      464C4F57 
 11642      5F524F57 
 11642      00
 11643              	.LASF118:
 11644 277c 4C565F53 		.ascii	"LV_STYLE_BG_COLOR\000"
 11644      54594C45 
 11644      5F42475F 
 11644      434F4C4F 
 11644      5200
 11645              	.LASF221:
 11646 278e 62675F69 		.ascii	"bg_img_opa\000"
 11646      6D675F6F 
 11646      706100
 11647              	.LASF636:
 11648 2799 6C765F74 		.ascii	"lv_tabview_get_tab_btns\000"
 11648      61627669 
 11648      65775F67 
 11648      65745F74 
 11648      61625F62 
 11649              	.LASF486:
 11650 27b1 4C565F53 		.ascii	"LV_SCROLLBAR_MODE_ON\000"
 11650      43524F4C 
 11650      4C424152 
ARM GAS  C:\Users\haske\AppData\Local\Temp\cc65HANE.s 			page 260


 11650      5F4D4F44 
 11650      455F4F4E 
 11651              	.LASF129:
 11652 27c6 4C565F53 		.ascii	"LV_STYLE_BG_IMG_RECOLOR_OPA\000"
 11652      54594C45 
 11652      5F42475F 
 11652      494D475F 
 11652      5245434F 
 11653              	.LASF703:
 11654 27e2 6C765F6F 		.ascii	"lv_obj_scroll_to_y\000"
 11654      626A5F73 
 11654      63726F6C 
 11654      6C5F746F 
 11654      5F7900
 11655              	.LASF677:
 11656 27f5 6C765F62 		.ascii	"lv_btnmatrix_create\000"
 11656      746E6D61 
 11656      74726978 
 11656      5F637265 
 11656      61746500 
 11657              	.LASF684:
 11658 2809 6C765F6F 		.ascii	"lv_obj_set_scrollbar_mode\000"
 11658      626A5F73 
 11658      65745F73 
 11658      63726F6C 
 11658      6C626172 
 11659              	.LASF319:
 11660 2823 6C765F64 		.ascii	"lv_disp_draw_buf_t\000"
 11660      6973705F 
 11660      64726177 
 11660      5F627566 
 11660      5F7400
 11661              	.LASF493:
 11662 2836 4C565F53 		.ascii	"LV_SCROLL_SNAP_CENTER\000"
 11662      43524F4C 
 11662      4C5F534E 
 11662      41505F43 
 11662      454E5445 
 11663              	.LASF85:
 11664 284c 6C765F62 		.ascii	"lv_blend_mode_t\000"
 11664      6C656E64 
 11664      5F6D6F64 
 11664      655F7400 
 11665              	.LASF600:
 11666 285c 4C565F42 		.ascii	"LV_BTNMATRIX_CTRL_CUSTOM_1\000"
 11666      544E4D41 
 11666      54524958 
 11666      5F435452 
 11666      4C5F4355 
 11667              	.LASF601:
 11668 2877 4C565F42 		.ascii	"LV_BTNMATRIX_CTRL_CUSTOM_2\000"
 11668      544E4D41 
 11668      54524958 
 11668      5F435452 
 11668      4C5F4355 
 11669              	.LASF647:
 11670 2892 62746E73 		.ascii	"btns_value_changed_event_cb\000"
ARM GAS  C:\Users\haske\AppData\Local\Temp\cc65HANE.s 			page 261


 11670      5F76616C 
 11670      75655F63 
 11670      68616E67 
 11670      65645F65 
 11671              	.LASF327:
 11672 28ae 64726177 		.ascii	"draw_buf\000"
 11672      5F627566 
 11672      00
 11673              	.LASF617:
 11674 28b7 7461625F 		.ascii	"tab_cnt\000"
 11674      636E7400 
 11675              	.LASF12:
 11676 28bf 6C6F6E67 		.ascii	"long long int\000"
 11676      206C6F6E 
 11676      6720696E 
 11676      7400
 11677              	.LASF543:
 11678 28cd 4C565F45 		.ascii	"LV_EVENT_DRAW_POST_BEGIN\000"
 11678      56454E54 
 11678      5F445241 
 11678      575F504F 
 11678      53545F42 
 11679              	.LASF480:
 11680 28e6 4C565F4F 		.ascii	"LV_OBJ_FLAG_USER_1\000"
 11680      424A5F46 
 11680      4C41475F 
 11680      55534552 
 11680      5F3100
 11681              	.LASF58:
 11682 28f9 5F6C765F 		.ascii	"_lv_timer_t\000"
 11682      74696D65 
 11682      725F7400 
 11683              	.LASF482:
 11684 2905 4C565F4F 		.ascii	"LV_OBJ_FLAG_USER_3\000"
 11684      424A5F46 
 11684      4C41475F 
 11684      55534552 
 11684      5F3300
 11685              	.LASF483:
 11686 2918 4C565F4F 		.ascii	"LV_OBJ_FLAG_USER_4\000"
 11686      424A5F46 
 11686      4C41475F 
 11686      55534552 
 11686      5F3400
 11687              	.LASF565:
 11688 292b 5F4C565F 		.ascii	"_LV_EVENT_LAST\000"
 11688      4556454E 
 11688      545F4C41 
 11688      535400
 11689              	.LASF71:
 11690 293a 626C7565 		.ascii	"blue\000"
 11690      00
 11691              	.LASF592:
 11692 293f 4C565F42 		.ascii	"LV_BTNMATRIX_CTRL_NO_REPEAT\000"
 11692      544E4D41 
 11692      54524958 
 11692      5F435452 
ARM GAS  C:\Users\haske\AppData\Local\Temp\cc65HANE.s 			page 262


 11692      4C5F4E4F 
 11693              	.LASF431:
 11694 295b 63757273 		.ascii	"cursor\000"
 11694      6F7200
 11695              	.LASF545:
 11696 2962 4C565F45 		.ascii	"LV_EVENT_DRAW_POST_END\000"
 11696      56454E54 
 11696      5F445241 
 11696      575F504F 
 11696      53545F45 
 11697              	.LASF297:
 11698 2979 77616974 		.ascii	"wait_for_finish\000"
 11698      5F666F72 
 11698      5F66696E 
 11698      69736800 
 11699              	.LASF97:
 11700 2989 6C765F73 		.ascii	"lv_style_value_t\000"
 11700      74796C65 
 11700      5F76616C 
 11700      75655F74 
 11700      00
 11701              	.LASF470:
 11702 299a 4C565F4F 		.ascii	"LV_OBJ_FLAG_EVENT_BUBBLE\000"
 11702      424A5F46 
 11702      4C41475F 
 11702      4556454E 
 11702      545F4255 
 11703              	.LASF318:
 11704 29b3 6C617374 		.ascii	"last_part\000"
 11704      5F706172 
 11704      7400
 11705              	.LASF399:
 11706 29bd 6C6F6E67 		.ascii	"long_press_repeat_time\000"
 11706      5F707265 
 11706      73735F72 
 11706      65706561 
 11706      745F7469 
 11707              	.LASF462:
 11708 29d4 4C565F4F 		.ascii	"LV_OBJ_FLAG_SCROLL_ONE\000"
 11708      424A5F46 
 11708      4C41475F 
 11708      5343524F 
 11708      4C4C5F4F 
 11709              	.LASF578:
 11710 29eb 6578745F 		.ascii	"ext_draw_size\000"
 11710      64726177 
 11710      5F73697A 
 11710      6500
 11711              	.LASF164:
 11712 29f9 4C565F53 		.ascii	"LV_STYLE_TEXT_LINE_SPACE\000"
 11712      54594C45 
 11712      5F544558 
 11712      545F4C49 
 11712      4E455F53 
 11713              	.LASF281:
 11714 2a12 61726561 		.ascii	"area_act\000"
 11714      5F616374 
ARM GAS  C:\Users\haske\AppData\Local\Temp\cc65HANE.s 			page 263


 11714      00
 11715              	.LASF411:
 11716 2a1b 6C617374 		.ascii	"last_pressed\000"
 11716      5F707265 
 11716      73736564 
 11716      00
 11717              	.LASF363:
 11718 2a28 696E765F 		.ascii	"inv_area_joined\000"
 11718      61726561 
 11718      5F6A6F69 
 11718      6E656400 
 11719              	.LASF343:
 11720 2a38 64726177 		.ascii	"draw_ctx\000"
 11720      5F637478 
 11720      00
 11721              	.LASF98:
 11722 2a41 4C565F53 		.ascii	"LV_STYLE_PROP_INV\000"
 11722      54594C45 
 11722      5F50524F 
 11722      505F494E 
 11722      5600
 11723              	.LASF702:
 11724 2a53 6C765F6F 		.ascii	"lv_obj_get_content_height\000"
 11724      626A5F67 
 11724      65745F63 
 11724      6F6E7465 
 11724      6E745F68 
 11725              	.LASF400:
 11726 2a6d 6163745F 		.ascii	"act_point\000"
 11726      706F696E 
 11726      7400
 11727              	.LASF542:
 11728 2a77 4C565F45 		.ascii	"LV_EVENT_DRAW_MAIN_END\000"
 11728      56454E54 
 11728      5F445241 
 11728      575F4D41 
 11728      494E5F45 
 11729              	.LASF288:
 11730 2a8e 64726177 		.ascii	"draw_rect\000"
 11730      5F726563 
 11730      7400
 11731              	.LASF198:
 11732 2a98 6C765F69 		.ascii	"lv_img_cf_t\000"
 11732      6D675F63 
 11732      665F7400 
 11733              	.LASF561:
 11734 2aa4 4C565F45 		.ascii	"LV_EVENT_SIZE_CHANGED\000"
 11734      56454E54 
 11734      5F53495A 
 11734      455F4348 
 11734      414E4745 
 11735              	.LASF631:
 11736 2aba 7461625F 		.ascii	"tab_size\000"
 11736      73697A65 
 11736      00
 11737              	.LASF452:
 11738 2ac3 4C565F50 		.ascii	"LV_PART_CURSOR\000"
ARM GAS  C:\Users\haske\AppData\Local\Temp\cc65HANE.s 			page 264


 11738      4152545F 
 11738      43555253 
 11738      4F5200
 11739              	.LASF420:
 11740 2ad2 6B657970 		.ascii	"keypad\000"
 11740      616400
 11741              	.LASF0:
 11742 2ad9 5F5F696E 		.ascii	"__int8_t\000"
 11742      74385F74 
 11742      00
 11743              	.LASF168:
 11744 2ae2 4C565F53 		.ascii	"LV_STYLE_COLOR_FILTER_DSC\000"
 11744      54594C45 
 11744      5F434F4C 
 11744      4F525F46 
 11744      494C5445 
 11745              	.LASF698:
 11746 2afc 6C765F6F 		.ascii	"lv_obj_get_child\000"
 11746      626A5F67 
 11746      65745F63 
 11746      68696C64 
 11746      00
 11747              	.LASF503:
 11748 2b0d 64657374 		.ascii	"destructor_cb\000"
 11748      72756374 
 11748      6F725F63 
 11748      6200
 11749              	.LASF455:
 11750 2b1b 4C565F4F 		.ascii	"LV_OBJ_FLAG_HIDDEN\000"
 11750      424A5F46 
 11750      4C41475F 
 11750      48494444 
 11750      454E00
 11751              	.LASF516:
 11752 2b2e 64656C65 		.ascii	"deleted\000"
 11752      74656400 
 11753              	.LASF527:
 11754 2b36 4C565F45 		.ascii	"LV_EVENT_CLICKED\000"
 11754      56454E54 
 11754      5F434C49 
 11754      434B4544 
 11754      00
 11755              	.LASF525:
 11756 2b47 4C565F45 		.ascii	"LV_EVENT_LONG_PRESSED\000"
 11756      56454E54 
 11756      5F4C4F4E 
 11756      475F5052 
 11756      45535345 
 11757              	.LASF14:
 11758 2b5d 756E7369 		.ascii	"unsigned int\000"
 11758      676E6564 
 11758      20696E74 
 11758      00
 11759              	.LASF169:
 11760 2b6a 4C565F53 		.ascii	"LV_STYLE_COLOR_FILTER_OPA\000"
 11760      54594C45 
 11760      5F434F4C 
ARM GAS  C:\Users\haske\AppData\Local\Temp\cc65HANE.s 			page 265


 11760      4F525F46 
 11760      494C5445 
 11761              	.LASF605:
 11762 2b84 4C565F46 		.ascii	"LV_FLEX_FLOW_ROW_REVERSE\000"
 11762      4C45585F 
 11762      464C4F57 
 11762      5F524F57 
 11762      5F524556 
 11763              	.LASF371:
 11764 2b9d 636F6C6F 		.ascii	"color_secondary\000"
 11764      725F7365 
 11764      636F6E64 
 11764      61727900 
 11765              	.LASF654:
 11766 2bad 74616270 		.ascii	"tabpos_create\000"
 11766      6F735F63 
 11766      72656174 
 11766      6500
 11767              	.LASF155:
 11768 2bbb 4C565F53 		.ascii	"LV_STYLE_ARC_WIDTH\000"
 11768      54594C45 
 11768      5F415243 
 11768      5F574944 
 11768      544800
 11769              	.LASF533:
 11770 2bce 4C565F45 		.ascii	"LV_EVENT_KEY\000"
 11770      56454E54 
 11770      5F4B4559 
 11770      00
 11771              	.LASF138:
 11772 2bdb 4C565F53 		.ascii	"LV_STYLE_OUTLINE_OPA\000"
 11772      54594C45 
 11772      5F4F5554 
 11772      4C494E45 
 11772      5F4F5041 
 11773              	.LASF661:
 11774 2bf0 4C565F53 		.ascii	"LV_STYLE_FLEX_TRACK_PLACE\000"
 11774      54594C45 
 11774      5F464C45 
 11774      585F5452 
 11774      41434B5F 
 11775              	.LASF209:
 11776 2c0a 736B6970 		.ascii	"skip_trans\000"
 11776      5F747261 
 11776      6E7300
 11777              	.LASF5:
 11778 2c15 73686F72 		.ascii	"short int\000"
 11778      7420696E 
 11778      7400
 11779              	.LASF193:
 11780 2c1f 636F6E73 		.ascii	"const_props\000"
 11780      745F7072 
 11780      6F707300 
 11781              	.LASF356:
 11782 2c2b 7379735F 		.ascii	"sys_layer\000"
 11782      6C617965 
 11782      7200
ARM GAS  C:\Users\haske\AppData\Local\Temp\cc65HANE.s 			page 266


 11783              	.LASF244:
 11784 2c35 73656C5F 		.ascii	"sel_bg_color\000"
 11784      62675F63 
 11784      6F6C6F72 
 11784      00
 11785              	.LASF477:
 11786 2c42 4C565F4F 		.ascii	"LV_OBJ_FLAG_LAYOUT_2\000"
 11786      424A5F46 
 11786      4C41475F 
 11786      4C41594F 
 11786      55545F32 
 11787              	.LASF515:
 11788 2c57 70726576 		.ascii	"prev\000"
 11788      00
 11789              	.LASF103:
 11790 2c5c 4C565F53 		.ascii	"LV_STYLE_MIN_HEIGHT\000"
 11790      54594C45 
 11790      5F4D494E 
 11790      5F484549 
 11790      47485400 
 11791              	.LASF638:
 11792 2c70 6C765F74 		.ascii	"lv_tabview_set_act\000"
 11792      61627669 
 11792      65775F73 
 11792      65745F61 
 11792      637400
 11793              	.LASF140:
 11794 2c83 4C565F53 		.ascii	"LV_STYLE_SHADOW_WIDTH\000"
 11794      54594C45 
 11794      5F534841 
 11794      444F575F 
 11794      57494454 
 11795              	.LASF408:
 11796 2c99 6163745F 		.ascii	"act_obj\000"
 11796      6F626A00 
 11797              	.LASF202:
 11798 2ca1 73706563 		.ascii	"spec_attr\000"
 11798      5F617474 
 11798      7200
 11799              	.LASF216:
 11800 2cab 62675F63 		.ascii	"bg_color\000"
 11800      6F6C6F72 
 11800      00
 11801              	.LASF205:
 11802 2cb4 666C6167 		.ascii	"flags\000"
 11802      7300
 11803              	.LASF213:
 11804 2cba 72616469 		.ascii	"radius\000"
 11804      757300
 11805              	.LASF263:
 11806 2cc1 726F756E 		.ascii	"round_start\000"
 11806      645F7374 
 11806      61727400 
 11807              	.LASF478:
 11808 2ccd 4C565F4F 		.ascii	"LV_OBJ_FLAG_WIDGET_1\000"
 11808      424A5F46 
 11808      4C41475F 
ARM GAS  C:\Users\haske\AppData\Local\Temp\cc65HANE.s 			page 267


 11808      57494447 
 11808      45545F31 
 11809              	.LASF479:
 11810 2ce2 4C565F4F 		.ascii	"LV_OBJ_FLAG_WIDGET_2\000"
 11810      424A5F46 
 11810      4C41475F 
 11810      57494447 
 11810      45545F32 
 11811              		.ident	"GCC: (GNU Tools for ARM Embedded Processors) 5.4.1 20160609 (release) [ARM/embedded-5-bran
