ARM GAS  C:\Users\haske\AppData\Local\Temp\ccSAQWsX.s 			page 1


   1              		.syntax unified
   2              		.cpu cortex-m0plus
   3              		.fpu softvfp
   4              		.eabi_attribute 20, 1
   5              		.eabi_attribute 21, 1
   6              		.eabi_attribute 23, 3
   7              		.eabi_attribute 24, 1
   8              		.eabi_attribute 25, 1
   9              		.eabi_attribute 26, 1
  10              		.eabi_attribute 30, 1
  11              		.eabi_attribute 34, 0
  12              		.eabi_attribute 18, 4
  13              		.thumb
  14              		.syntax unified
  15              		.file	"lv_theme_mono.c"
  16              		.text
  17              	.Ltext0:
  18              		.cfi_sections	.debug_frame
  19              		.section	.text.theme_apply,"ax",%progbits
  20              		.align	2
  21              		.code	16
  22              		.thumb_func
  23              		.type	theme_apply, %function
  24              	theme_apply:
  25              	.LFB205:
  26              		.file 1 "..\\..\\..\\arduinoLCD\\test\\Pain Drain\\libraries\\lvgl\\src\\extra\\themes\\mono\\lv_t
   1:..\..\..\arduinoLCD\test\Pain Drain\libraries\lvgl\src\extra\themes\mono/lv_theme_mono.c **** /**
   2:..\..\..\arduinoLCD\test\Pain Drain\libraries\lvgl\src\extra\themes\mono/lv_theme_mono.c ****  * @file lv_theme_mono.c
   3:..\..\..\arduinoLCD\test\Pain Drain\libraries\lvgl\src\extra\themes\mono/lv_theme_mono.c ****  *
   4:..\..\..\arduinoLCD\test\Pain Drain\libraries\lvgl\src\extra\themes\mono/lv_theme_mono.c ****  */
   5:..\..\..\arduinoLCD\test\Pain Drain\libraries\lvgl\src\extra\themes\mono/lv_theme_mono.c **** 
   6:..\..\..\arduinoLCD\test\Pain Drain\libraries\lvgl\src\extra\themes\mono/lv_theme_mono.c **** /*********************
   7:..\..\..\arduinoLCD\test\Pain Drain\libraries\lvgl\src\extra\themes\mono/lv_theme_mono.c ****  *      INCLUDES
   8:..\..\..\arduinoLCD\test\Pain Drain\libraries\lvgl\src\extra\themes\mono/lv_theme_mono.c ****  *********************/
   9:..\..\..\arduinoLCD\test\Pain Drain\libraries\lvgl\src\extra\themes\mono/lv_theme_mono.c **** #include "../../../lvgl.h"
  10:..\..\..\arduinoLCD\test\Pain Drain\libraries\lvgl\src\extra\themes\mono/lv_theme_mono.c **** 
  11:..\..\..\arduinoLCD\test\Pain Drain\libraries\lvgl\src\extra\themes\mono/lv_theme_mono.c **** #if LV_USE_THEME_MONO
  12:..\..\..\arduinoLCD\test\Pain Drain\libraries\lvgl\src\extra\themes\mono/lv_theme_mono.c **** 
  13:..\..\..\arduinoLCD\test\Pain Drain\libraries\lvgl\src\extra\themes\mono/lv_theme_mono.c **** #include "lv_theme_mono.h"
  14:..\..\..\arduinoLCD\test\Pain Drain\libraries\lvgl\src\extra\themes\mono/lv_theme_mono.c **** #include "../../../misc/lv_gc.h"
  15:..\..\..\arduinoLCD\test\Pain Drain\libraries\lvgl\src\extra\themes\mono/lv_theme_mono.c **** 
  16:..\..\..\arduinoLCD\test\Pain Drain\libraries\lvgl\src\extra\themes\mono/lv_theme_mono.c **** /*********************
  17:..\..\..\arduinoLCD\test\Pain Drain\libraries\lvgl\src\extra\themes\mono/lv_theme_mono.c ****  *      DEFINES
  18:..\..\..\arduinoLCD\test\Pain Drain\libraries\lvgl\src\extra\themes\mono/lv_theme_mono.c ****  *********************/
  19:..\..\..\arduinoLCD\test\Pain Drain\libraries\lvgl\src\extra\themes\mono/lv_theme_mono.c **** 
  20:..\..\..\arduinoLCD\test\Pain Drain\libraries\lvgl\src\extra\themes\mono/lv_theme_mono.c **** #define COLOR_FG      dark_bg ? lv_color_white() : lv_color_black()
  21:..\..\..\arduinoLCD\test\Pain Drain\libraries\lvgl\src\extra\themes\mono/lv_theme_mono.c **** #define COLOR_BG      dark_bg ? lv_color_black() : lv_color_white()
  22:..\..\..\arduinoLCD\test\Pain Drain\libraries\lvgl\src\extra\themes\mono/lv_theme_mono.c **** 
  23:..\..\..\arduinoLCD\test\Pain Drain\libraries\lvgl\src\extra\themes\mono/lv_theme_mono.c **** #define BORDER_W_NORMAL  1
  24:..\..\..\arduinoLCD\test\Pain Drain\libraries\lvgl\src\extra\themes\mono/lv_theme_mono.c **** #define BORDER_W_PR      3
  25:..\..\..\arduinoLCD\test\Pain Drain\libraries\lvgl\src\extra\themes\mono/lv_theme_mono.c **** #define BORDER_W_DIS     0
  26:..\..\..\arduinoLCD\test\Pain Drain\libraries\lvgl\src\extra\themes\mono/lv_theme_mono.c **** #define BORDER_W_FOCUS   1
  27:..\..\..\arduinoLCD\test\Pain Drain\libraries\lvgl\src\extra\themes\mono/lv_theme_mono.c **** #define BORDER_W_EDIT    2
  28:..\..\..\arduinoLCD\test\Pain Drain\libraries\lvgl\src\extra\themes\mono/lv_theme_mono.c **** #define PAD_DEF          4
  29:..\..\..\arduinoLCD\test\Pain Drain\libraries\lvgl\src\extra\themes\mono/lv_theme_mono.c **** 
  30:..\..\..\arduinoLCD\test\Pain Drain\libraries\lvgl\src\extra\themes\mono/lv_theme_mono.c **** /**********************
  31:..\..\..\arduinoLCD\test\Pain Drain\libraries\lvgl\src\extra\themes\mono/lv_theme_mono.c ****  *      TYPEDEFS
ARM GAS  C:\Users\haske\AppData\Local\Temp\ccSAQWsX.s 			page 2


  32:..\..\..\arduinoLCD\test\Pain Drain\libraries\lvgl\src\extra\themes\mono/lv_theme_mono.c ****  **********************/
  33:..\..\..\arduinoLCD\test\Pain Drain\libraries\lvgl\src\extra\themes\mono/lv_theme_mono.c **** typedef struct {
  34:..\..\..\arduinoLCD\test\Pain Drain\libraries\lvgl\src\extra\themes\mono/lv_theme_mono.c ****     lv_style_t scr;
  35:..\..\..\arduinoLCD\test\Pain Drain\libraries\lvgl\src\extra\themes\mono/lv_theme_mono.c ****     lv_style_t card;
  36:..\..\..\arduinoLCD\test\Pain Drain\libraries\lvgl\src\extra\themes\mono/lv_theme_mono.c ****     lv_style_t scrollbar;
  37:..\..\..\arduinoLCD\test\Pain Drain\libraries\lvgl\src\extra\themes\mono/lv_theme_mono.c ****     lv_style_t btn;
  38:..\..\..\arduinoLCD\test\Pain Drain\libraries\lvgl\src\extra\themes\mono/lv_theme_mono.c ****     lv_style_t pr;
  39:..\..\..\arduinoLCD\test\Pain Drain\libraries\lvgl\src\extra\themes\mono/lv_theme_mono.c ****     lv_style_t inv;
  40:..\..\..\arduinoLCD\test\Pain Drain\libraries\lvgl\src\extra\themes\mono/lv_theme_mono.c ****     lv_style_t disabled;
  41:..\..\..\arduinoLCD\test\Pain Drain\libraries\lvgl\src\extra\themes\mono/lv_theme_mono.c ****     lv_style_t focus;
  42:..\..\..\arduinoLCD\test\Pain Drain\libraries\lvgl\src\extra\themes\mono/lv_theme_mono.c ****     lv_style_t edit;
  43:..\..\..\arduinoLCD\test\Pain Drain\libraries\lvgl\src\extra\themes\mono/lv_theme_mono.c ****     lv_style_t pad_gap;
  44:..\..\..\arduinoLCD\test\Pain Drain\libraries\lvgl\src\extra\themes\mono/lv_theme_mono.c ****     lv_style_t pad_zero;
  45:..\..\..\arduinoLCD\test\Pain Drain\libraries\lvgl\src\extra\themes\mono/lv_theme_mono.c ****     lv_style_t no_radius;
  46:..\..\..\arduinoLCD\test\Pain Drain\libraries\lvgl\src\extra\themes\mono/lv_theme_mono.c ****     lv_style_t radius_circle;
  47:..\..\..\arduinoLCD\test\Pain Drain\libraries\lvgl\src\extra\themes\mono/lv_theme_mono.c ****     lv_style_t large_border;
  48:..\..\..\arduinoLCD\test\Pain Drain\libraries\lvgl\src\extra\themes\mono/lv_theme_mono.c ****     lv_style_t large_line_space;
  49:..\..\..\arduinoLCD\test\Pain Drain\libraries\lvgl\src\extra\themes\mono/lv_theme_mono.c ****     lv_style_t underline;
  50:..\..\..\arduinoLCD\test\Pain Drain\libraries\lvgl\src\extra\themes\mono/lv_theme_mono.c **** #if LV_USE_TEXTAREA
  51:..\..\..\arduinoLCD\test\Pain Drain\libraries\lvgl\src\extra\themes\mono/lv_theme_mono.c ****     lv_style_t ta_cursor;
  52:..\..\..\arduinoLCD\test\Pain Drain\libraries\lvgl\src\extra\themes\mono/lv_theme_mono.c **** #endif
  53:..\..\..\arduinoLCD\test\Pain Drain\libraries\lvgl\src\extra\themes\mono/lv_theme_mono.c **** } my_theme_styles_t;
  54:..\..\..\arduinoLCD\test\Pain Drain\libraries\lvgl\src\extra\themes\mono/lv_theme_mono.c **** 
  55:..\..\..\arduinoLCD\test\Pain Drain\libraries\lvgl\src\extra\themes\mono/lv_theme_mono.c **** 
  56:..\..\..\arduinoLCD\test\Pain Drain\libraries\lvgl\src\extra\themes\mono/lv_theme_mono.c **** /**********************
  57:..\..\..\arduinoLCD\test\Pain Drain\libraries\lvgl\src\extra\themes\mono/lv_theme_mono.c ****  *  STATIC PROTOTYPES
  58:..\..\..\arduinoLCD\test\Pain Drain\libraries\lvgl\src\extra\themes\mono/lv_theme_mono.c ****  **********************/
  59:..\..\..\arduinoLCD\test\Pain Drain\libraries\lvgl\src\extra\themes\mono/lv_theme_mono.c **** static void style_init_reset(lv_style_t * style);
  60:..\..\..\arduinoLCD\test\Pain Drain\libraries\lvgl\src\extra\themes\mono/lv_theme_mono.c **** static void theme_apply(lv_theme_t * th, lv_obj_t * obj);
  61:..\..\..\arduinoLCD\test\Pain Drain\libraries\lvgl\src\extra\themes\mono/lv_theme_mono.c **** 
  62:..\..\..\arduinoLCD\test\Pain Drain\libraries\lvgl\src\extra\themes\mono/lv_theme_mono.c **** /**********************
  63:..\..\..\arduinoLCD\test\Pain Drain\libraries\lvgl\src\extra\themes\mono/lv_theme_mono.c ****  *  STATIC VARIABLES
  64:..\..\..\arduinoLCD\test\Pain Drain\libraries\lvgl\src\extra\themes\mono/lv_theme_mono.c ****  **********************/
  65:..\..\..\arduinoLCD\test\Pain Drain\libraries\lvgl\src\extra\themes\mono/lv_theme_mono.c **** static my_theme_styles_t * styles;
  66:..\..\..\arduinoLCD\test\Pain Drain\libraries\lvgl\src\extra\themes\mono/lv_theme_mono.c **** static lv_theme_t theme;
  67:..\..\..\arduinoLCD\test\Pain Drain\libraries\lvgl\src\extra\themes\mono/lv_theme_mono.c **** static bool inited;
  68:..\..\..\arduinoLCD\test\Pain Drain\libraries\lvgl\src\extra\themes\mono/lv_theme_mono.c **** 
  69:..\..\..\arduinoLCD\test\Pain Drain\libraries\lvgl\src\extra\themes\mono/lv_theme_mono.c **** /**********************
  70:..\..\..\arduinoLCD\test\Pain Drain\libraries\lvgl\src\extra\themes\mono/lv_theme_mono.c ****  *      MACROS
  71:..\..\..\arduinoLCD\test\Pain Drain\libraries\lvgl\src\extra\themes\mono/lv_theme_mono.c ****  **********************/
  72:..\..\..\arduinoLCD\test\Pain Drain\libraries\lvgl\src\extra\themes\mono/lv_theme_mono.c **** 
  73:..\..\..\arduinoLCD\test\Pain Drain\libraries\lvgl\src\extra\themes\mono/lv_theme_mono.c **** /**********************
  74:..\..\..\arduinoLCD\test\Pain Drain\libraries\lvgl\src\extra\themes\mono/lv_theme_mono.c ****  *   STATIC FUNCTIONS
  75:..\..\..\arduinoLCD\test\Pain Drain\libraries\lvgl\src\extra\themes\mono/lv_theme_mono.c ****  **********************/
  76:..\..\..\arduinoLCD\test\Pain Drain\libraries\lvgl\src\extra\themes\mono/lv_theme_mono.c **** 
  77:..\..\..\arduinoLCD\test\Pain Drain\libraries\lvgl\src\extra\themes\mono/lv_theme_mono.c **** static void style_init(bool dark_bg, const lv_font_t * font)
  78:..\..\..\arduinoLCD\test\Pain Drain\libraries\lvgl\src\extra\themes\mono/lv_theme_mono.c **** {
  79:..\..\..\arduinoLCD\test\Pain Drain\libraries\lvgl\src\extra\themes\mono/lv_theme_mono.c ****     style_init_reset(&styles->scrollbar);
  80:..\..\..\arduinoLCD\test\Pain Drain\libraries\lvgl\src\extra\themes\mono/lv_theme_mono.c ****     lv_style_set_bg_opa(&styles->scrollbar, LV_OPA_COVER);
  81:..\..\..\arduinoLCD\test\Pain Drain\libraries\lvgl\src\extra\themes\mono/lv_theme_mono.c ****     lv_style_set_bg_color(&styles->scrollbar, COLOR_FG);
  82:..\..\..\arduinoLCD\test\Pain Drain\libraries\lvgl\src\extra\themes\mono/lv_theme_mono.c ****     lv_style_set_width(&styles->scrollbar,  PAD_DEF);
  83:..\..\..\arduinoLCD\test\Pain Drain\libraries\lvgl\src\extra\themes\mono/lv_theme_mono.c **** 
  84:..\..\..\arduinoLCD\test\Pain Drain\libraries\lvgl\src\extra\themes\mono/lv_theme_mono.c ****     style_init_reset(&styles->scr);
  85:..\..\..\arduinoLCD\test\Pain Drain\libraries\lvgl\src\extra\themes\mono/lv_theme_mono.c ****     lv_style_set_bg_opa(&styles->scr, LV_OPA_COVER);
  86:..\..\..\arduinoLCD\test\Pain Drain\libraries\lvgl\src\extra\themes\mono/lv_theme_mono.c ****     lv_style_set_bg_color(&styles->scr, COLOR_BG);
  87:..\..\..\arduinoLCD\test\Pain Drain\libraries\lvgl\src\extra\themes\mono/lv_theme_mono.c ****     lv_style_set_text_color(&styles->scr, COLOR_FG);
  88:..\..\..\arduinoLCD\test\Pain Drain\libraries\lvgl\src\extra\themes\mono/lv_theme_mono.c ****     lv_style_set_pad_row(&styles->scr, PAD_DEF);
ARM GAS  C:\Users\haske\AppData\Local\Temp\ccSAQWsX.s 			page 3


  89:..\..\..\arduinoLCD\test\Pain Drain\libraries\lvgl\src\extra\themes\mono/lv_theme_mono.c ****     lv_style_set_pad_column(&styles->scr, PAD_DEF);
  90:..\..\..\arduinoLCD\test\Pain Drain\libraries\lvgl\src\extra\themes\mono/lv_theme_mono.c ****     lv_style_set_text_font(&styles->scr, font);
  91:..\..\..\arduinoLCD\test\Pain Drain\libraries\lvgl\src\extra\themes\mono/lv_theme_mono.c **** 
  92:..\..\..\arduinoLCD\test\Pain Drain\libraries\lvgl\src\extra\themes\mono/lv_theme_mono.c ****     style_init_reset(&styles->card);
  93:..\..\..\arduinoLCD\test\Pain Drain\libraries\lvgl\src\extra\themes\mono/lv_theme_mono.c ****     lv_style_set_bg_opa(&styles->card, LV_OPA_COVER);
  94:..\..\..\arduinoLCD\test\Pain Drain\libraries\lvgl\src\extra\themes\mono/lv_theme_mono.c ****     lv_style_set_bg_color(&styles->card, COLOR_BG);
  95:..\..\..\arduinoLCD\test\Pain Drain\libraries\lvgl\src\extra\themes\mono/lv_theme_mono.c ****     lv_style_set_border_color(&styles->card, COLOR_FG);
  96:..\..\..\arduinoLCD\test\Pain Drain\libraries\lvgl\src\extra\themes\mono/lv_theme_mono.c ****     lv_style_set_radius(&styles->card, 2);
  97:..\..\..\arduinoLCD\test\Pain Drain\libraries\lvgl\src\extra\themes\mono/lv_theme_mono.c ****     lv_style_set_border_width(&styles->card, BORDER_W_NORMAL);
  98:..\..\..\arduinoLCD\test\Pain Drain\libraries\lvgl\src\extra\themes\mono/lv_theme_mono.c ****     lv_style_set_pad_all(&styles->card, PAD_DEF);
  99:..\..\..\arduinoLCD\test\Pain Drain\libraries\lvgl\src\extra\themes\mono/lv_theme_mono.c ****     lv_style_set_pad_gap(&styles->card, PAD_DEF);
 100:..\..\..\arduinoLCD\test\Pain Drain\libraries\lvgl\src\extra\themes\mono/lv_theme_mono.c ****     lv_style_set_text_color(&styles->card, COLOR_FG);
 101:..\..\..\arduinoLCD\test\Pain Drain\libraries\lvgl\src\extra\themes\mono/lv_theme_mono.c ****     lv_style_set_line_width(&styles->card, 2);
 102:..\..\..\arduinoLCD\test\Pain Drain\libraries\lvgl\src\extra\themes\mono/lv_theme_mono.c ****     lv_style_set_line_color(&styles->card, COLOR_FG);
 103:..\..\..\arduinoLCD\test\Pain Drain\libraries\lvgl\src\extra\themes\mono/lv_theme_mono.c ****     lv_style_set_arc_width(&styles->card, 2);
 104:..\..\..\arduinoLCD\test\Pain Drain\libraries\lvgl\src\extra\themes\mono/lv_theme_mono.c ****     lv_style_set_arc_color(&styles->card, COLOR_FG);
 105:..\..\..\arduinoLCD\test\Pain Drain\libraries\lvgl\src\extra\themes\mono/lv_theme_mono.c ****     lv_style_set_outline_color(&styles->card, COLOR_FG);
 106:..\..\..\arduinoLCD\test\Pain Drain\libraries\lvgl\src\extra\themes\mono/lv_theme_mono.c ****     lv_style_set_anim_time(&styles->card, 300);
 107:..\..\..\arduinoLCD\test\Pain Drain\libraries\lvgl\src\extra\themes\mono/lv_theme_mono.c **** 
 108:..\..\..\arduinoLCD\test\Pain Drain\libraries\lvgl\src\extra\themes\mono/lv_theme_mono.c ****     style_init_reset(&styles->pr);
 109:..\..\..\arduinoLCD\test\Pain Drain\libraries\lvgl\src\extra\themes\mono/lv_theme_mono.c ****     lv_style_set_border_width(&styles->pr, BORDER_W_PR);
 110:..\..\..\arduinoLCD\test\Pain Drain\libraries\lvgl\src\extra\themes\mono/lv_theme_mono.c **** 
 111:..\..\..\arduinoLCD\test\Pain Drain\libraries\lvgl\src\extra\themes\mono/lv_theme_mono.c ****     style_init_reset(&styles->inv);
 112:..\..\..\arduinoLCD\test\Pain Drain\libraries\lvgl\src\extra\themes\mono/lv_theme_mono.c ****     lv_style_set_bg_opa(&styles->inv, LV_OPA_COVER);
 113:..\..\..\arduinoLCD\test\Pain Drain\libraries\lvgl\src\extra\themes\mono/lv_theme_mono.c ****     lv_style_set_bg_color(&styles->inv, COLOR_FG);
 114:..\..\..\arduinoLCD\test\Pain Drain\libraries\lvgl\src\extra\themes\mono/lv_theme_mono.c ****     lv_style_set_border_color(&styles->inv, COLOR_BG);
 115:..\..\..\arduinoLCD\test\Pain Drain\libraries\lvgl\src\extra\themes\mono/lv_theme_mono.c ****     lv_style_set_line_color(&styles->inv, COLOR_BG);
 116:..\..\..\arduinoLCD\test\Pain Drain\libraries\lvgl\src\extra\themes\mono/lv_theme_mono.c ****     lv_style_set_arc_color(&styles->inv, COLOR_BG);
 117:..\..\..\arduinoLCD\test\Pain Drain\libraries\lvgl\src\extra\themes\mono/lv_theme_mono.c ****     lv_style_set_text_color(&styles->inv, COLOR_BG);
 118:..\..\..\arduinoLCD\test\Pain Drain\libraries\lvgl\src\extra\themes\mono/lv_theme_mono.c ****     lv_style_set_outline_color(&styles->inv, COLOR_BG);
 119:..\..\..\arduinoLCD\test\Pain Drain\libraries\lvgl\src\extra\themes\mono/lv_theme_mono.c **** 
 120:..\..\..\arduinoLCD\test\Pain Drain\libraries\lvgl\src\extra\themes\mono/lv_theme_mono.c ****     style_init_reset(&styles->disabled);
 121:..\..\..\arduinoLCD\test\Pain Drain\libraries\lvgl\src\extra\themes\mono/lv_theme_mono.c ****     lv_style_set_border_width(&styles->disabled, BORDER_W_DIS);
 122:..\..\..\arduinoLCD\test\Pain Drain\libraries\lvgl\src\extra\themes\mono/lv_theme_mono.c **** 
 123:..\..\..\arduinoLCD\test\Pain Drain\libraries\lvgl\src\extra\themes\mono/lv_theme_mono.c ****     style_init_reset(&styles->focus);
 124:..\..\..\arduinoLCD\test\Pain Drain\libraries\lvgl\src\extra\themes\mono/lv_theme_mono.c ****     lv_style_set_outline_width(&styles->focus, 1);
 125:..\..\..\arduinoLCD\test\Pain Drain\libraries\lvgl\src\extra\themes\mono/lv_theme_mono.c ****     lv_style_set_outline_pad(&styles->focus, BORDER_W_FOCUS);
 126:..\..\..\arduinoLCD\test\Pain Drain\libraries\lvgl\src\extra\themes\mono/lv_theme_mono.c **** 
 127:..\..\..\arduinoLCD\test\Pain Drain\libraries\lvgl\src\extra\themes\mono/lv_theme_mono.c ****     style_init_reset(&styles->edit);
 128:..\..\..\arduinoLCD\test\Pain Drain\libraries\lvgl\src\extra\themes\mono/lv_theme_mono.c ****     lv_style_set_outline_width(&styles->edit, BORDER_W_EDIT);
 129:..\..\..\arduinoLCD\test\Pain Drain\libraries\lvgl\src\extra\themes\mono/lv_theme_mono.c **** 
 130:..\..\..\arduinoLCD\test\Pain Drain\libraries\lvgl\src\extra\themes\mono/lv_theme_mono.c ****     style_init_reset(&styles->large_border);
 131:..\..\..\arduinoLCD\test\Pain Drain\libraries\lvgl\src\extra\themes\mono/lv_theme_mono.c ****     lv_style_set_border_width(&styles->large_border, BORDER_W_EDIT);
 132:..\..\..\arduinoLCD\test\Pain Drain\libraries\lvgl\src\extra\themes\mono/lv_theme_mono.c **** 
 133:..\..\..\arduinoLCD\test\Pain Drain\libraries\lvgl\src\extra\themes\mono/lv_theme_mono.c ****     style_init_reset(&styles->pad_gap);
 134:..\..\..\arduinoLCD\test\Pain Drain\libraries\lvgl\src\extra\themes\mono/lv_theme_mono.c ****     lv_style_set_pad_gap(&styles->pad_gap, PAD_DEF);
 135:..\..\..\arduinoLCD\test\Pain Drain\libraries\lvgl\src\extra\themes\mono/lv_theme_mono.c **** 
 136:..\..\..\arduinoLCD\test\Pain Drain\libraries\lvgl\src\extra\themes\mono/lv_theme_mono.c ****     style_init_reset(&styles->pad_zero);
 137:..\..\..\arduinoLCD\test\Pain Drain\libraries\lvgl\src\extra\themes\mono/lv_theme_mono.c ****     lv_style_set_pad_all(&styles->pad_zero, 0);
 138:..\..\..\arduinoLCD\test\Pain Drain\libraries\lvgl\src\extra\themes\mono/lv_theme_mono.c ****     lv_style_set_pad_gap(&styles->pad_zero, 0);
 139:..\..\..\arduinoLCD\test\Pain Drain\libraries\lvgl\src\extra\themes\mono/lv_theme_mono.c **** 
 140:..\..\..\arduinoLCD\test\Pain Drain\libraries\lvgl\src\extra\themes\mono/lv_theme_mono.c ****     style_init_reset(&styles->no_radius);
 141:..\..\..\arduinoLCD\test\Pain Drain\libraries\lvgl\src\extra\themes\mono/lv_theme_mono.c ****     lv_style_set_radius(&styles->no_radius, 0);
 142:..\..\..\arduinoLCD\test\Pain Drain\libraries\lvgl\src\extra\themes\mono/lv_theme_mono.c **** 
 143:..\..\..\arduinoLCD\test\Pain Drain\libraries\lvgl\src\extra\themes\mono/lv_theme_mono.c ****     style_init_reset(&styles->radius_circle);
 144:..\..\..\arduinoLCD\test\Pain Drain\libraries\lvgl\src\extra\themes\mono/lv_theme_mono.c ****     lv_style_set_radius(&styles->radius_circle, LV_RADIUS_CIRCLE);
 145:..\..\..\arduinoLCD\test\Pain Drain\libraries\lvgl\src\extra\themes\mono/lv_theme_mono.c **** 
ARM GAS  C:\Users\haske\AppData\Local\Temp\ccSAQWsX.s 			page 4


 146:..\..\..\arduinoLCD\test\Pain Drain\libraries\lvgl\src\extra\themes\mono/lv_theme_mono.c ****     style_init_reset(&styles->large_line_space);
 147:..\..\..\arduinoLCD\test\Pain Drain\libraries\lvgl\src\extra\themes\mono/lv_theme_mono.c ****     lv_style_set_text_line_space(&styles->large_line_space, 6);
 148:..\..\..\arduinoLCD\test\Pain Drain\libraries\lvgl\src\extra\themes\mono/lv_theme_mono.c **** 
 149:..\..\..\arduinoLCD\test\Pain Drain\libraries\lvgl\src\extra\themes\mono/lv_theme_mono.c ****     style_init_reset(&styles->underline);
 150:..\..\..\arduinoLCD\test\Pain Drain\libraries\lvgl\src\extra\themes\mono/lv_theme_mono.c ****     lv_style_set_text_decor(&styles->underline, LV_TEXT_DECOR_UNDERLINE);
 151:..\..\..\arduinoLCD\test\Pain Drain\libraries\lvgl\src\extra\themes\mono/lv_theme_mono.c **** 
 152:..\..\..\arduinoLCD\test\Pain Drain\libraries\lvgl\src\extra\themes\mono/lv_theme_mono.c **** #if LV_USE_TEXTAREA
 153:..\..\..\arduinoLCD\test\Pain Drain\libraries\lvgl\src\extra\themes\mono/lv_theme_mono.c ****     style_init_reset(&styles->ta_cursor);
 154:..\..\..\arduinoLCD\test\Pain Drain\libraries\lvgl\src\extra\themes\mono/lv_theme_mono.c ****     lv_style_set_border_side(&styles->ta_cursor, LV_BORDER_SIDE_LEFT);
 155:..\..\..\arduinoLCD\test\Pain Drain\libraries\lvgl\src\extra\themes\mono/lv_theme_mono.c ****     lv_style_set_border_color(&styles->ta_cursor, COLOR_FG);
 156:..\..\..\arduinoLCD\test\Pain Drain\libraries\lvgl\src\extra\themes\mono/lv_theme_mono.c ****     lv_style_set_border_width(&styles->ta_cursor, 2);
 157:..\..\..\arduinoLCD\test\Pain Drain\libraries\lvgl\src\extra\themes\mono/lv_theme_mono.c ****     lv_style_set_bg_opa(&styles->ta_cursor, LV_OPA_TRANSP);
 158:..\..\..\arduinoLCD\test\Pain Drain\libraries\lvgl\src\extra\themes\mono/lv_theme_mono.c ****     lv_style_set_anim_time(&styles->ta_cursor, 500);
 159:..\..\..\arduinoLCD\test\Pain Drain\libraries\lvgl\src\extra\themes\mono/lv_theme_mono.c **** #endif
 160:..\..\..\arduinoLCD\test\Pain Drain\libraries\lvgl\src\extra\themes\mono/lv_theme_mono.c **** }
 161:..\..\..\arduinoLCD\test\Pain Drain\libraries\lvgl\src\extra\themes\mono/lv_theme_mono.c **** 
 162:..\..\..\arduinoLCD\test\Pain Drain\libraries\lvgl\src\extra\themes\mono/lv_theme_mono.c **** 
 163:..\..\..\arduinoLCD\test\Pain Drain\libraries\lvgl\src\extra\themes\mono/lv_theme_mono.c **** /**********************
 164:..\..\..\arduinoLCD\test\Pain Drain\libraries\lvgl\src\extra\themes\mono/lv_theme_mono.c ****  *   GLOBAL FUNCTIONS
 165:..\..\..\arduinoLCD\test\Pain Drain\libraries\lvgl\src\extra\themes\mono/lv_theme_mono.c ****  **********************/
 166:..\..\..\arduinoLCD\test\Pain Drain\libraries\lvgl\src\extra\themes\mono/lv_theme_mono.c **** 
 167:..\..\..\arduinoLCD\test\Pain Drain\libraries\lvgl\src\extra\themes\mono/lv_theme_mono.c **** bool lv_theme_mono_is_inited(void)
 168:..\..\..\arduinoLCD\test\Pain Drain\libraries\lvgl\src\extra\themes\mono/lv_theme_mono.c **** {
 169:..\..\..\arduinoLCD\test\Pain Drain\libraries\lvgl\src\extra\themes\mono/lv_theme_mono.c ****     return  LV_GC_ROOT(_lv_theme_default_styles) == NULL ? false : true;
 170:..\..\..\arduinoLCD\test\Pain Drain\libraries\lvgl\src\extra\themes\mono/lv_theme_mono.c **** }
 171:..\..\..\arduinoLCD\test\Pain Drain\libraries\lvgl\src\extra\themes\mono/lv_theme_mono.c **** 
 172:..\..\..\arduinoLCD\test\Pain Drain\libraries\lvgl\src\extra\themes\mono/lv_theme_mono.c **** lv_theme_t * lv_theme_mono_init(lv_disp_t * disp, bool dark_bg, const lv_font_t * font)
 173:..\..\..\arduinoLCD\test\Pain Drain\libraries\lvgl\src\extra\themes\mono/lv_theme_mono.c **** {
 174:..\..\..\arduinoLCD\test\Pain Drain\libraries\lvgl\src\extra\themes\mono/lv_theme_mono.c **** 
 175:..\..\..\arduinoLCD\test\Pain Drain\libraries\lvgl\src\extra\themes\mono/lv_theme_mono.c ****     /*This trick is required only to avoid the garbage collection of
 176:..\..\..\arduinoLCD\test\Pain Drain\libraries\lvgl\src\extra\themes\mono/lv_theme_mono.c ****      *styles' data if LVGL is used in a binding (e.g. Micropython)
 177:..\..\..\arduinoLCD\test\Pain Drain\libraries\lvgl\src\extra\themes\mono/lv_theme_mono.c ****      *In a general case styles could be in simple `static lv_style_t my_style...` variables*/
 178:..\..\..\arduinoLCD\test\Pain Drain\libraries\lvgl\src\extra\themes\mono/lv_theme_mono.c ****     if(!inited) {
 179:..\..\..\arduinoLCD\test\Pain Drain\libraries\lvgl\src\extra\themes\mono/lv_theme_mono.c ****         inited = false;
 180:..\..\..\arduinoLCD\test\Pain Drain\libraries\lvgl\src\extra\themes\mono/lv_theme_mono.c ****         LV_GC_ROOT(_lv_theme_default_styles) = lv_mem_alloc(sizeof(my_theme_styles_t));
 181:..\..\..\arduinoLCD\test\Pain Drain\libraries\lvgl\src\extra\themes\mono/lv_theme_mono.c ****         styles = (my_theme_styles_t *)LV_GC_ROOT(_lv_theme_default_styles);
 182:..\..\..\arduinoLCD\test\Pain Drain\libraries\lvgl\src\extra\themes\mono/lv_theme_mono.c ****     }
 183:..\..\..\arduinoLCD\test\Pain Drain\libraries\lvgl\src\extra\themes\mono/lv_theme_mono.c **** 
 184:..\..\..\arduinoLCD\test\Pain Drain\libraries\lvgl\src\extra\themes\mono/lv_theme_mono.c ****     theme.disp = disp;
 185:..\..\..\arduinoLCD\test\Pain Drain\libraries\lvgl\src\extra\themes\mono/lv_theme_mono.c ****     theme.font_small = LV_FONT_DEFAULT;
 186:..\..\..\arduinoLCD\test\Pain Drain\libraries\lvgl\src\extra\themes\mono/lv_theme_mono.c ****     theme.font_normal = LV_FONT_DEFAULT;
 187:..\..\..\arduinoLCD\test\Pain Drain\libraries\lvgl\src\extra\themes\mono/lv_theme_mono.c ****     theme.font_large = LV_FONT_DEFAULT;
 188:..\..\..\arduinoLCD\test\Pain Drain\libraries\lvgl\src\extra\themes\mono/lv_theme_mono.c ****     theme.apply_cb = theme_apply;
 189:..\..\..\arduinoLCD\test\Pain Drain\libraries\lvgl\src\extra\themes\mono/lv_theme_mono.c **** 
 190:..\..\..\arduinoLCD\test\Pain Drain\libraries\lvgl\src\extra\themes\mono/lv_theme_mono.c ****     style_init(dark_bg, font);
 191:..\..\..\arduinoLCD\test\Pain Drain\libraries\lvgl\src\extra\themes\mono/lv_theme_mono.c **** 
 192:..\..\..\arduinoLCD\test\Pain Drain\libraries\lvgl\src\extra\themes\mono/lv_theme_mono.c ****     if(disp == NULL || lv_disp_get_theme(disp) == &theme) lv_obj_report_style_change(NULL);
 193:..\..\..\arduinoLCD\test\Pain Drain\libraries\lvgl\src\extra\themes\mono/lv_theme_mono.c **** 
 194:..\..\..\arduinoLCD\test\Pain Drain\libraries\lvgl\src\extra\themes\mono/lv_theme_mono.c ****     inited = true;
 195:..\..\..\arduinoLCD\test\Pain Drain\libraries\lvgl\src\extra\themes\mono/lv_theme_mono.c **** 
 196:..\..\..\arduinoLCD\test\Pain Drain\libraries\lvgl\src\extra\themes\mono/lv_theme_mono.c ****     return (lv_theme_t *)&theme;
 197:..\..\..\arduinoLCD\test\Pain Drain\libraries\lvgl\src\extra\themes\mono/lv_theme_mono.c **** }
 198:..\..\..\arduinoLCD\test\Pain Drain\libraries\lvgl\src\extra\themes\mono/lv_theme_mono.c **** 
 199:..\..\..\arduinoLCD\test\Pain Drain\libraries\lvgl\src\extra\themes\mono/lv_theme_mono.c **** 
 200:..\..\..\arduinoLCD\test\Pain Drain\libraries\lvgl\src\extra\themes\mono/lv_theme_mono.c **** static void theme_apply(lv_theme_t * th, lv_obj_t * obj)
 201:..\..\..\arduinoLCD\test\Pain Drain\libraries\lvgl\src\extra\themes\mono/lv_theme_mono.c **** {
  27              		.loc 1 201 0
ARM GAS  C:\Users\haske\AppData\Local\Temp\ccSAQWsX.s 			page 5


  28              		.cfi_startproc
  29              		@ args = 0, pretend = 0, frame = 0
  30              		@ frame_needed = 0, uses_anonymous_args = 0
  31              	.LVL0:
  32 0000 70B5     		push	{r4, r5, r6, lr}
  33              		.cfi_def_cfa_offset 16
  34              		.cfi_offset 4, -16
  35              		.cfi_offset 5, -12
  36              		.cfi_offset 6, -8
  37              		.cfi_offset 14, -4
  38 0002 0C00     		movs	r4, r1
 202:..\..\..\arduinoLCD\test\Pain Drain\libraries\lvgl\src\extra\themes\mono/lv_theme_mono.c ****     LV_UNUSED(th);
 203:..\..\..\arduinoLCD\test\Pain Drain\libraries\lvgl\src\extra\themes\mono/lv_theme_mono.c **** 
 204:..\..\..\arduinoLCD\test\Pain Drain\libraries\lvgl\src\extra\themes\mono/lv_theme_mono.c ****     if(lv_obj_get_parent(obj) == NULL) {
  39              		.loc 1 204 0
  40 0004 0800     		movs	r0, r1
  41              	.LVL1:
  42 0006 FFF7FEFF 		bl	lv_obj_get_parent
  43              	.LVL2:
  44 000a 0028     		cmp	r0, #0
  45 000c 0ED1     		bne	.L2
 205:..\..\..\arduinoLCD\test\Pain Drain\libraries\lvgl\src\extra\themes\mono/lv_theme_mono.c ****         lv_obj_add_style(obj, &styles->scr, 0);
  46              		.loc 1 205 0
  47 000e DB4D     		ldr	r5, .L32
  48 0010 0022     		movs	r2, #0
  49 0012 2968     		ldr	r1, [r5]
  50 0014 2000     		movs	r0, r4
  51 0016 FFF7FEFF 		bl	lv_obj_add_style
  52              	.LVL3:
 206:..\..\..\arduinoLCD\test\Pain Drain\libraries\lvgl\src\extra\themes\mono/lv_theme_mono.c ****         lv_obj_add_style(obj, &styles->scrollbar, LV_PART_SCROLLBAR);
  53              		.loc 1 206 0
  54 001a 2968     		ldr	r1, [r5]
  55 001c 1031     		adds	r1, r1, #16
  56 001e 8022     		movs	r2, #128
  57 0020 5202     		lsls	r2, r2, #9
  58 0022 2000     		movs	r0, r4
  59 0024 FFF7FEFF 		bl	lv_obj_add_style
  60              	.LVL4:
 207:..\..\..\arduinoLCD\test\Pain Drain\libraries\lvgl\src\extra\themes\mono/lv_theme_mono.c ****         return;
  61              		.loc 1 207 0
  62 0028 00F0ADFC 		bl	.L1	@ far jump
  63              	.L2:
 208:..\..\..\arduinoLCD\test\Pain Drain\libraries\lvgl\src\extra\themes\mono/lv_theme_mono.c ****     }
 209:..\..\..\arduinoLCD\test\Pain Drain\libraries\lvgl\src\extra\themes\mono/lv_theme_mono.c **** 
 210:..\..\..\arduinoLCD\test\Pain Drain\libraries\lvgl\src\extra\themes\mono/lv_theme_mono.c ****     if(lv_obj_check_type(obj, &lv_obj_class)) {
  64              		.loc 1 210 0
  65 002c D449     		ldr	r1, .L32+4
  66 002e 2000     		movs	r0, r4
  67 0030 FFF7FEFF 		bl	lv_obj_check_type
  68              	.LVL5:
  69 0034 0028     		cmp	r0, #0
  70 0036 77D0     		beq	.L4
  71              	.LBB140:
 211:..\..\..\arduinoLCD\test\Pain Drain\libraries\lvgl\src\extra\themes\mono/lv_theme_mono.c **** #if LV_USE_TABVIEW
 212:..\..\..\arduinoLCD\test\Pain Drain\libraries\lvgl\src\extra\themes\mono/lv_theme_mono.c ****         lv_obj_t * parent = lv_obj_get_parent(obj);
  72              		.loc 1 212 0
  73 0038 2000     		movs	r0, r4
ARM GAS  C:\Users\haske\AppData\Local\Temp\ccSAQWsX.s 			page 6


  74 003a FFF7FEFF 		bl	lv_obj_get_parent
  75              	.LVL6:
  76 003e 0500     		movs	r5, r0
  77              	.LVL7:
 213:..\..\..\arduinoLCD\test\Pain Drain\libraries\lvgl\src\extra\themes\mono/lv_theme_mono.c ****         /*Tabview content area*/
 214:..\..\..\arduinoLCD\test\Pain Drain\libraries\lvgl\src\extra\themes\mono/lv_theme_mono.c ****         if(lv_obj_check_type(parent, &lv_tabview_class)) {
  78              		.loc 1 214 0
  79 0040 D049     		ldr	r1, .L32+8
  80 0042 FFF7FEFF 		bl	lv_obj_check_type
  81              	.LVL8:
  82 0046 0028     		cmp	r0, #0
  83 0048 01D0     		beq	.LCB55
  84 004a 00F09CFC 		bl	.L1	@far jump
  85              	.LCB55:
 215:..\..\..\arduinoLCD\test\Pain Drain\libraries\lvgl\src\extra\themes\mono/lv_theme_mono.c ****             return;
 216:..\..\..\arduinoLCD\test\Pain Drain\libraries\lvgl\src\extra\themes\mono/lv_theme_mono.c ****         }
 217:..\..\..\arduinoLCD\test\Pain Drain\libraries\lvgl\src\extra\themes\mono/lv_theme_mono.c ****         /*Tabview pages*/
 218:..\..\..\arduinoLCD\test\Pain Drain\libraries\lvgl\src\extra\themes\mono/lv_theme_mono.c ****         else if(lv_obj_check_type(lv_obj_get_parent(parent), &lv_tabview_class)) {
  86              		.loc 1 218 0
  87 004e 2800     		movs	r0, r5
  88 0050 FFF7FEFF 		bl	lv_obj_get_parent
  89              	.LVL9:
  90 0054 CB49     		ldr	r1, .L32+8
  91 0056 FFF7FEFF 		bl	lv_obj_check_type
  92              	.LVL10:
  93 005a 0028     		cmp	r0, #0
  94 005c 15D0     		beq	.L5
 219:..\..\..\arduinoLCD\test\Pain Drain\libraries\lvgl\src\extra\themes\mono/lv_theme_mono.c ****             lv_obj_add_style(obj, &styles->card, 0);
  95              		.loc 1 219 0
  96 005e C74D     		ldr	r5, .L32
  97              	.LVL11:
  98 0060 2968     		ldr	r1, [r5]
  99 0062 0831     		adds	r1, r1, #8
 100 0064 0022     		movs	r2, #0
 101 0066 2000     		movs	r0, r4
 102 0068 FFF7FEFF 		bl	lv_obj_add_style
 103              	.LVL12:
 220:..\..\..\arduinoLCD\test\Pain Drain\libraries\lvgl\src\extra\themes\mono/lv_theme_mono.c ****             lv_obj_add_style(obj, &styles->no_radius, 0);
 104              		.loc 1 220 0
 105 006c 2968     		ldr	r1, [r5]
 106 006e 5831     		adds	r1, r1, #88
 107 0070 0022     		movs	r2, #0
 108 0072 2000     		movs	r0, r4
 109 0074 FFF7FEFF 		bl	lv_obj_add_style
 110              	.LVL13:
 221:..\..\..\arduinoLCD\test\Pain Drain\libraries\lvgl\src\extra\themes\mono/lv_theme_mono.c ****             lv_obj_add_style(obj, &styles->scrollbar, LV_PART_SCROLLBAR);
 111              		.loc 1 221 0
 112 0078 2968     		ldr	r1, [r5]
 113 007a 1031     		adds	r1, r1, #16
 114 007c 8022     		movs	r2, #128
 115 007e 5202     		lsls	r2, r2, #9
 116 0080 2000     		movs	r0, r4
 117 0082 FFF7FEFF 		bl	lv_obj_add_style
 118              	.LVL14:
 222:..\..\..\arduinoLCD\test\Pain Drain\libraries\lvgl\src\extra\themes\mono/lv_theme_mono.c ****             return;
 119              		.loc 1 222 0
 120 0086 00F07EFC 		bl	.L1	@ far jump
ARM GAS  C:\Users\haske\AppData\Local\Temp\ccSAQWsX.s 			page 7


 121              	.LVL15:
 122              	.L5:
 223:..\..\..\arduinoLCD\test\Pain Drain\libraries\lvgl\src\extra\themes\mono/lv_theme_mono.c ****         }
 224:..\..\..\arduinoLCD\test\Pain Drain\libraries\lvgl\src\extra\themes\mono/lv_theme_mono.c **** #endif
 225:..\..\..\arduinoLCD\test\Pain Drain\libraries\lvgl\src\extra\themes\mono/lv_theme_mono.c **** 
 226:..\..\..\arduinoLCD\test\Pain Drain\libraries\lvgl\src\extra\themes\mono/lv_theme_mono.c **** #if LV_USE_WIN
 227:..\..\..\arduinoLCD\test\Pain Drain\libraries\lvgl\src\extra\themes\mono/lv_theme_mono.c ****         /*Header*/
 228:..\..\..\arduinoLCD\test\Pain Drain\libraries\lvgl\src\extra\themes\mono/lv_theme_mono.c ****         if(lv_obj_get_index(obj) == 0 && lv_obj_check_type(lv_obj_get_parent(obj), &lv_win_class)) 
 123              		.loc 1 228 0
 124 008a 2000     		movs	r0, r4
 125 008c FFF7FEFF 		bl	lv_obj_get_index
 126              	.LVL16:
 127 0090 0028     		cmp	r0, #0
 128 0092 16D1     		bne	.L6
 129              		.loc 1 228 0 is_stmt 0 discriminator 1
 130 0094 2000     		movs	r0, r4
 131 0096 FFF7FEFF 		bl	lv_obj_get_parent
 132              	.LVL17:
 133 009a BB49     		ldr	r1, .L32+12
 134 009c FFF7FEFF 		bl	lv_obj_check_type
 135              	.LVL18:
 136 00a0 0028     		cmp	r0, #0
 137 00a2 0ED0     		beq	.L6
 229:..\..\..\arduinoLCD\test\Pain Drain\libraries\lvgl\src\extra\themes\mono/lv_theme_mono.c ****             lv_obj_add_style(obj, &styles->card, 0);
 138              		.loc 1 229 0 is_stmt 1
 139 00a4 B54D     		ldr	r5, .L32
 140              	.LVL19:
 141 00a6 2968     		ldr	r1, [r5]
 142 00a8 0831     		adds	r1, r1, #8
 143 00aa 0022     		movs	r2, #0
 144 00ac 2000     		movs	r0, r4
 145 00ae FFF7FEFF 		bl	lv_obj_add_style
 146              	.LVL20:
 230:..\..\..\arduinoLCD\test\Pain Drain\libraries\lvgl\src\extra\themes\mono/lv_theme_mono.c ****             lv_obj_add_style(obj, &styles->no_radius, 0);
 147              		.loc 1 230 0
 148 00b2 2968     		ldr	r1, [r5]
 149 00b4 5831     		adds	r1, r1, #88
 150 00b6 0022     		movs	r2, #0
 151 00b8 2000     		movs	r0, r4
 152 00ba FFF7FEFF 		bl	lv_obj_add_style
 153              	.LVL21:
 231:..\..\..\arduinoLCD\test\Pain Drain\libraries\lvgl\src\extra\themes\mono/lv_theme_mono.c ****             return;
 154              		.loc 1 231 0
 155 00be 00F062FC 		bl	.L1	@ far jump
 156              	.LVL22:
 157              	.L6:
 232:..\..\..\arduinoLCD\test\Pain Drain\libraries\lvgl\src\extra\themes\mono/lv_theme_mono.c ****         }
 233:..\..\..\arduinoLCD\test\Pain Drain\libraries\lvgl\src\extra\themes\mono/lv_theme_mono.c ****         /*Content*/
 234:..\..\..\arduinoLCD\test\Pain Drain\libraries\lvgl\src\extra\themes\mono/lv_theme_mono.c ****         else if(lv_obj_get_index(obj) == 1 && lv_obj_check_type(lv_obj_get_parent(obj), &lv_win_cla
 158              		.loc 1 234 0
 159 00c2 2000     		movs	r0, r4
 160 00c4 FFF7FEFF 		bl	lv_obj_get_index
 161              	.LVL23:
 162 00c8 0128     		cmp	r0, #1
 163 00ca 1DD1     		bne	.L7
 164              		.loc 1 234 0 is_stmt 0 discriminator 1
 165 00cc 2000     		movs	r0, r4
ARM GAS  C:\Users\haske\AppData\Local\Temp\ccSAQWsX.s 			page 8


 166 00ce FFF7FEFF 		bl	lv_obj_get_parent
 167              	.LVL24:
 168 00d2 AD49     		ldr	r1, .L32+12
 169 00d4 FFF7FEFF 		bl	lv_obj_check_type
 170              	.LVL25:
 171 00d8 0028     		cmp	r0, #0
 172 00da 15D0     		beq	.L7
 235:..\..\..\arduinoLCD\test\Pain Drain\libraries\lvgl\src\extra\themes\mono/lv_theme_mono.c ****             lv_obj_add_style(obj, &styles->card, 0);
 173              		.loc 1 235 0 is_stmt 1
 174 00dc A74D     		ldr	r5, .L32
 175              	.LVL26:
 176 00de 2968     		ldr	r1, [r5]
 177 00e0 0831     		adds	r1, r1, #8
 178 00e2 0022     		movs	r2, #0
 179 00e4 2000     		movs	r0, r4
 180 00e6 FFF7FEFF 		bl	lv_obj_add_style
 181              	.LVL27:
 236:..\..\..\arduinoLCD\test\Pain Drain\libraries\lvgl\src\extra\themes\mono/lv_theme_mono.c ****             lv_obj_add_style(obj, &styles->no_radius, 0);
 182              		.loc 1 236 0
 183 00ea 2968     		ldr	r1, [r5]
 184 00ec 5831     		adds	r1, r1, #88
 185 00ee 0022     		movs	r2, #0
 186 00f0 2000     		movs	r0, r4
 187 00f2 FFF7FEFF 		bl	lv_obj_add_style
 188              	.LVL28:
 237:..\..\..\arduinoLCD\test\Pain Drain\libraries\lvgl\src\extra\themes\mono/lv_theme_mono.c ****             lv_obj_add_style(obj, &styles->scrollbar, LV_PART_SCROLLBAR);
 189              		.loc 1 237 0
 190 00f6 2968     		ldr	r1, [r5]
 191 00f8 1031     		adds	r1, r1, #16
 192 00fa 8022     		movs	r2, #128
 193 00fc 5202     		lsls	r2, r2, #9
 194 00fe 2000     		movs	r0, r4
 195 0100 FFF7FEFF 		bl	lv_obj_add_style
 196              	.LVL29:
 238:..\..\..\arduinoLCD\test\Pain Drain\libraries\lvgl\src\extra\themes\mono/lv_theme_mono.c ****             return;
 197              		.loc 1 238 0
 198 0104 00F03FFC 		bl	.L1	@ far jump
 199              	.LVL30:
 200              	.L7:
 239:..\..\..\arduinoLCD\test\Pain Drain\libraries\lvgl\src\extra\themes\mono/lv_theme_mono.c ****         }
 240:..\..\..\arduinoLCD\test\Pain Drain\libraries\lvgl\src\extra\themes\mono/lv_theme_mono.c **** #endif
 241:..\..\..\arduinoLCD\test\Pain Drain\libraries\lvgl\src\extra\themes\mono/lv_theme_mono.c ****         lv_obj_add_style(obj, &styles->card, 0);
 201              		.loc 1 241 0
 202 0108 9C4D     		ldr	r5, .L32
 203              	.LVL31:
 204 010a 2968     		ldr	r1, [r5]
 205 010c 0831     		adds	r1, r1, #8
 206 010e 0022     		movs	r2, #0
 207 0110 2000     		movs	r0, r4
 208 0112 FFF7FEFF 		bl	lv_obj_add_style
 209              	.LVL32:
 242:..\..\..\arduinoLCD\test\Pain Drain\libraries\lvgl\src\extra\themes\mono/lv_theme_mono.c ****         lv_obj_add_style(obj, &styles->scrollbar, LV_PART_SCROLLBAR);
 210              		.loc 1 242 0
 211 0116 2968     		ldr	r1, [r5]
 212 0118 1031     		adds	r1, r1, #16
 213 011a 8022     		movs	r2, #128
 214 011c 5202     		lsls	r2, r2, #9
ARM GAS  C:\Users\haske\AppData\Local\Temp\ccSAQWsX.s 			page 9


 215 011e 2000     		movs	r0, r4
 216 0120 FFF7FEFF 		bl	lv_obj_add_style
 217              	.LVL33:
 218              	.LBE140:
 219 0124 00F02FFC 		bl	.L1	@ far jump
 220              	.L4:
 243:..\..\..\arduinoLCD\test\Pain Drain\libraries\lvgl\src\extra\themes\mono/lv_theme_mono.c ****     }
 244:..\..\..\arduinoLCD\test\Pain Drain\libraries\lvgl\src\extra\themes\mono/lv_theme_mono.c **** #if LV_USE_BTN
 245:..\..\..\arduinoLCD\test\Pain Drain\libraries\lvgl\src\extra\themes\mono/lv_theme_mono.c ****     else if(lv_obj_check_type(obj, &lv_btn_class)) {
 221              		.loc 1 245 0
 222 0128 9849     		ldr	r1, .L32+16
 223 012a 2000     		movs	r0, r4
 224 012c FFF7FEFF 		bl	lv_obj_check_type
 225              	.LVL34:
 226 0130 0028     		cmp	r0, #0
 227 0132 26D0     		beq	.L8
 246:..\..\..\arduinoLCD\test\Pain Drain\libraries\lvgl\src\extra\themes\mono/lv_theme_mono.c ****         lv_obj_add_style(obj, &styles->card, 0);
 228              		.loc 1 246 0
 229 0134 914D     		ldr	r5, .L32
 230 0136 2968     		ldr	r1, [r5]
 231 0138 0831     		adds	r1, r1, #8
 232 013a 0022     		movs	r2, #0
 233 013c 2000     		movs	r0, r4
 234 013e FFF7FEFF 		bl	lv_obj_add_style
 235              	.LVL35:
 247:..\..\..\arduinoLCD\test\Pain Drain\libraries\lvgl\src\extra\themes\mono/lv_theme_mono.c ****         lv_obj_add_style(obj, &styles->pr, LV_STATE_PRESSED);
 236              		.loc 1 247 0
 237 0142 2968     		ldr	r1, [r5]
 238 0144 2031     		adds	r1, r1, #32
 239 0146 2022     		movs	r2, #32
 240 0148 2000     		movs	r0, r4
 241 014a FFF7FEFF 		bl	lv_obj_add_style
 242              	.LVL36:
 248:..\..\..\arduinoLCD\test\Pain Drain\libraries\lvgl\src\extra\themes\mono/lv_theme_mono.c ****         lv_obj_add_style(obj, &styles->inv, LV_STATE_CHECKED);
 243              		.loc 1 248 0
 244 014e 2968     		ldr	r1, [r5]
 245 0150 2831     		adds	r1, r1, #40
 246 0152 0122     		movs	r2, #1
 247 0154 2000     		movs	r0, r4
 248 0156 FFF7FEFF 		bl	lv_obj_add_style
 249              	.LVL37:
 249:..\..\..\arduinoLCD\test\Pain Drain\libraries\lvgl\src\extra\themes\mono/lv_theme_mono.c ****         lv_obj_add_style(obj, &styles->disabled, LV_STATE_DISABLED);
 250              		.loc 1 249 0
 251 015a 2968     		ldr	r1, [r5]
 252 015c 3031     		adds	r1, r1, #48
 253 015e 8022     		movs	r2, #128
 254 0160 2000     		movs	r0, r4
 255 0162 FFF7FEFF 		bl	lv_obj_add_style
 256              	.LVL38:
 250:..\..\..\arduinoLCD\test\Pain Drain\libraries\lvgl\src\extra\themes\mono/lv_theme_mono.c ****         lv_obj_add_style(obj, &styles->focus, LV_STATE_FOCUS_KEY);
 257              		.loc 1 250 0
 258 0166 2968     		ldr	r1, [r5]
 259 0168 3831     		adds	r1, r1, #56
 260 016a 0422     		movs	r2, #4
 261 016c 2000     		movs	r0, r4
 262 016e FFF7FEFF 		bl	lv_obj_add_style
 263              	.LVL39:
ARM GAS  C:\Users\haske\AppData\Local\Temp\ccSAQWsX.s 			page 10


 251:..\..\..\arduinoLCD\test\Pain Drain\libraries\lvgl\src\extra\themes\mono/lv_theme_mono.c ****         lv_obj_add_style(obj, &styles->edit, LV_STATE_EDITED);
 264              		.loc 1 251 0
 265 0172 2968     		ldr	r1, [r5]
 266 0174 4031     		adds	r1, r1, #64
 267 0176 0822     		movs	r2, #8
 268 0178 2000     		movs	r0, r4
 269 017a FFF7FEFF 		bl	lv_obj_add_style
 270              	.LVL40:
 271 017e 00F002FC 		bl	.L1	@ far jump
 272              	.L8:
 252:..\..\..\arduinoLCD\test\Pain Drain\libraries\lvgl\src\extra\themes\mono/lv_theme_mono.c ****     }
 253:..\..\..\arduinoLCD\test\Pain Drain\libraries\lvgl\src\extra\themes\mono/lv_theme_mono.c **** #endif
 254:..\..\..\arduinoLCD\test\Pain Drain\libraries\lvgl\src\extra\themes\mono/lv_theme_mono.c **** 
 255:..\..\..\arduinoLCD\test\Pain Drain\libraries\lvgl\src\extra\themes\mono/lv_theme_mono.c **** #if LV_USE_BTNMATRIX
 256:..\..\..\arduinoLCD\test\Pain Drain\libraries\lvgl\src\extra\themes\mono/lv_theme_mono.c ****     else if(lv_obj_check_type(obj, &lv_btnmatrix_class)) {
 273              		.loc 1 256 0
 274 0182 8349     		ldr	r1, .L32+20
 275 0184 2000     		movs	r0, r4
 276 0186 FFF7FEFF 		bl	lv_obj_check_type
 277              	.LVL41:
 278 018a 0028     		cmp	r0, #0
 279 018c 00D1     		bne	.LCB246
 280 018e 9FE0     		b	.L9	@long jump
 281              	.LCB246:
 257:..\..\..\arduinoLCD\test\Pain Drain\libraries\lvgl\src\extra\themes\mono/lv_theme_mono.c **** #if LV_USE_MSGBOX
 258:..\..\..\arduinoLCD\test\Pain Drain\libraries\lvgl\src\extra\themes\mono/lv_theme_mono.c ****         if(lv_obj_check_type(lv_obj_get_parent(obj), &lv_msgbox_class)) {
 282              		.loc 1 258 0
 283 0190 2000     		movs	r0, r4
 284 0192 FFF7FEFF 		bl	lv_obj_get_parent
 285              	.LVL42:
 286 0196 7F49     		ldr	r1, .L32+24
 287 0198 FFF7FEFF 		bl	lv_obj_check_type
 288              	.LVL43:
 289 019c 0028     		cmp	r0, #0
 290 019e 27D0     		beq	.L10
 259:..\..\..\arduinoLCD\test\Pain Drain\libraries\lvgl\src\extra\themes\mono/lv_theme_mono.c ****             lv_obj_add_style(obj, &styles->pad_gap, 0);
 291              		.loc 1 259 0
 292 01a0 764D     		ldr	r5, .L32
 293 01a2 2968     		ldr	r1, [r5]
 294 01a4 4831     		adds	r1, r1, #72
 295 01a6 0022     		movs	r2, #0
 296 01a8 2000     		movs	r0, r4
 297 01aa FFF7FEFF 		bl	lv_obj_add_style
 298              	.LVL44:
 260:..\..\..\arduinoLCD\test\Pain Drain\libraries\lvgl\src\extra\themes\mono/lv_theme_mono.c ****             lv_obj_add_style(obj, &styles->card, LV_PART_ITEMS);
 299              		.loc 1 260 0
 300 01ae 2968     		ldr	r1, [r5]
 301 01b0 0831     		adds	r1, r1, #8
 302 01b2 A022     		movs	r2, #160
 303 01b4 D202     		lsls	r2, r2, #11
 304 01b6 2000     		movs	r0, r4
 305 01b8 FFF7FEFF 		bl	lv_obj_add_style
 306              	.LVL45:
 261:..\..\..\arduinoLCD\test\Pain Drain\libraries\lvgl\src\extra\themes\mono/lv_theme_mono.c ****             lv_obj_add_style(obj, &styles->pr, LV_PART_ITEMS | LV_STATE_PRESSED);
 307              		.loc 1 261 0
 308 01bc 2968     		ldr	r1, [r5]
 309 01be 2031     		adds	r1, r1, #32
ARM GAS  C:\Users\haske\AppData\Local\Temp\ccSAQWsX.s 			page 11


 310 01c0 754A     		ldr	r2, .L32+28
 311 01c2 2000     		movs	r0, r4
 312 01c4 FFF7FEFF 		bl	lv_obj_add_style
 313              	.LVL46:
 262:..\..\..\arduinoLCD\test\Pain Drain\libraries\lvgl\src\extra\themes\mono/lv_theme_mono.c ****             lv_obj_add_style(obj, &styles->disabled, LV_PART_ITEMS | LV_STATE_DISABLED);
 314              		.loc 1 262 0
 315 01c8 2968     		ldr	r1, [r5]
 316 01ca 3031     		adds	r1, r1, #48
 317 01cc 734A     		ldr	r2, .L32+32
 318 01ce 2000     		movs	r0, r4
 319 01d0 FFF7FEFF 		bl	lv_obj_add_style
 320              	.LVL47:
 263:..\..\..\arduinoLCD\test\Pain Drain\libraries\lvgl\src\extra\themes\mono/lv_theme_mono.c ****             lv_obj_add_style(obj, &styles->underline, LV_PART_ITEMS | LV_STATE_FOCUS_KEY);
 321              		.loc 1 263 0
 322 01d4 724E     		ldr	r6, .L32+36
 323 01d6 2968     		ldr	r1, [r5]
 324 01d8 7831     		adds	r1, r1, #120
 325 01da 3200     		movs	r2, r6
 326 01dc 2000     		movs	r0, r4
 327 01de FFF7FEFF 		bl	lv_obj_add_style
 328              	.LVL48:
 264:..\..\..\arduinoLCD\test\Pain Drain\libraries\lvgl\src\extra\themes\mono/lv_theme_mono.c ****             lv_obj_add_style(obj, &styles->large_border, LV_PART_ITEMS | LV_STATE_FOCUS_KEY);
 329              		.loc 1 264 0
 330 01e2 2968     		ldr	r1, [r5]
 331 01e4 6831     		adds	r1, r1, #104
 332 01e6 3200     		movs	r2, r6
 333 01e8 2000     		movs	r0, r4
 334 01ea FFF7FEFF 		bl	lv_obj_add_style
 335              	.LVL49:
 265:..\..\..\arduinoLCD\test\Pain Drain\libraries\lvgl\src\extra\themes\mono/lv_theme_mono.c ****             return;
 336              		.loc 1 265 0
 337 01ee CAE3     		b	.L1
 338              	.L10:
 266:..\..\..\arduinoLCD\test\Pain Drain\libraries\lvgl\src\extra\themes\mono/lv_theme_mono.c ****         }
 267:..\..\..\arduinoLCD\test\Pain Drain\libraries\lvgl\src\extra\themes\mono/lv_theme_mono.c **** #endif
 268:..\..\..\arduinoLCD\test\Pain Drain\libraries\lvgl\src\extra\themes\mono/lv_theme_mono.c **** #if LV_USE_TABVIEW
 269:..\..\..\arduinoLCD\test\Pain Drain\libraries\lvgl\src\extra\themes\mono/lv_theme_mono.c ****         if(lv_obj_check_type(lv_obj_get_parent(obj), &lv_tabview_class)) {
 339              		.loc 1 269 0
 340 01f0 2000     		movs	r0, r4
 341 01f2 FFF7FEFF 		bl	lv_obj_get_parent
 342              	.LVL50:
 343 01f6 6349     		ldr	r1, .L32+8
 344 01f8 FFF7FEFF 		bl	lv_obj_check_type
 345              	.LVL51:
 346 01fc 0028     		cmp	r0, #0
 347 01fe 33D0     		beq	.L11
 270:..\..\..\arduinoLCD\test\Pain Drain\libraries\lvgl\src\extra\themes\mono/lv_theme_mono.c ****             lv_obj_add_style(obj, &styles->pad_gap, 0);
 348              		.loc 1 270 0
 349 0200 5E4D     		ldr	r5, .L32
 350 0202 2968     		ldr	r1, [r5]
 351 0204 4831     		adds	r1, r1, #72
 352 0206 0022     		movs	r2, #0
 353 0208 2000     		movs	r0, r4
 354 020a FFF7FEFF 		bl	lv_obj_add_style
 355              	.LVL52:
 271:..\..\..\arduinoLCD\test\Pain Drain\libraries\lvgl\src\extra\themes\mono/lv_theme_mono.c ****             lv_obj_add_style(obj, &styles->card, LV_PART_ITEMS);
 356              		.loc 1 271 0
ARM GAS  C:\Users\haske\AppData\Local\Temp\ccSAQWsX.s 			page 12


 357 020e 2968     		ldr	r1, [r5]
 358 0210 0831     		adds	r1, r1, #8
 359 0212 A022     		movs	r2, #160
 360 0214 D202     		lsls	r2, r2, #11
 361 0216 2000     		movs	r0, r4
 362 0218 FFF7FEFF 		bl	lv_obj_add_style
 363              	.LVL53:
 272:..\..\..\arduinoLCD\test\Pain Drain\libraries\lvgl\src\extra\themes\mono/lv_theme_mono.c ****             lv_obj_add_style(obj, &styles->pr, LV_PART_ITEMS | LV_STATE_PRESSED);
 364              		.loc 1 272 0
 365 021c 2968     		ldr	r1, [r5]
 366 021e 2031     		adds	r1, r1, #32
 367 0220 5D4A     		ldr	r2, .L32+28
 368 0222 2000     		movs	r0, r4
 369 0224 FFF7FEFF 		bl	lv_obj_add_style
 370              	.LVL54:
 273:..\..\..\arduinoLCD\test\Pain Drain\libraries\lvgl\src\extra\themes\mono/lv_theme_mono.c ****             lv_obj_add_style(obj, &styles->inv, LV_PART_ITEMS | LV_STATE_CHECKED);
 371              		.loc 1 273 0
 372 0228 2968     		ldr	r1, [r5]
 373 022a 2831     		adds	r1, r1, #40
 374 022c 5D4A     		ldr	r2, .L32+40
 375 022e 2000     		movs	r0, r4
 376 0230 FFF7FEFF 		bl	lv_obj_add_style
 377              	.LVL55:
 274:..\..\..\arduinoLCD\test\Pain Drain\libraries\lvgl\src\extra\themes\mono/lv_theme_mono.c ****             lv_obj_add_style(obj, &styles->disabled, LV_PART_ITEMS | LV_STATE_DISABLED);
 378              		.loc 1 274 0
 379 0234 2968     		ldr	r1, [r5]
 380 0236 3031     		adds	r1, r1, #48
 381 0238 584A     		ldr	r2, .L32+32
 382 023a 2000     		movs	r0, r4
 383 023c FFF7FEFF 		bl	lv_obj_add_style
 384              	.LVL56:
 275:..\..\..\arduinoLCD\test\Pain Drain\libraries\lvgl\src\extra\themes\mono/lv_theme_mono.c ****             lv_obj_add_style(obj, &styles->focus, LV_STATE_FOCUS_KEY);
 385              		.loc 1 275 0
 386 0240 2968     		ldr	r1, [r5]
 387 0242 3831     		adds	r1, r1, #56
 388 0244 0422     		movs	r2, #4
 389 0246 2000     		movs	r0, r4
 390 0248 FFF7FEFF 		bl	lv_obj_add_style
 391              	.LVL57:
 276:..\..\..\arduinoLCD\test\Pain Drain\libraries\lvgl\src\extra\themes\mono/lv_theme_mono.c ****             lv_obj_add_style(obj, &styles->underline, LV_PART_ITEMS | LV_STATE_FOCUS_KEY);
 392              		.loc 1 276 0
 393 024c 544E     		ldr	r6, .L32+36
 394 024e 2968     		ldr	r1, [r5]
 395 0250 7831     		adds	r1, r1, #120
 396 0252 3200     		movs	r2, r6
 397 0254 2000     		movs	r0, r4
 398 0256 FFF7FEFF 		bl	lv_obj_add_style
 399              	.LVL58:
 277:..\..\..\arduinoLCD\test\Pain Drain\libraries\lvgl\src\extra\themes\mono/lv_theme_mono.c ****             lv_obj_add_style(obj, &styles->large_border, LV_PART_ITEMS | LV_STATE_FOCUS_KEY);
 400              		.loc 1 277 0
 401 025a 2968     		ldr	r1, [r5]
 402 025c 6831     		adds	r1, r1, #104
 403 025e 3200     		movs	r2, r6
 404 0260 2000     		movs	r0, r4
 405 0262 FFF7FEFF 		bl	lv_obj_add_style
 406              	.LVL59:
 278:..\..\..\arduinoLCD\test\Pain Drain\libraries\lvgl\src\extra\themes\mono/lv_theme_mono.c ****             return;
ARM GAS  C:\Users\haske\AppData\Local\Temp\ccSAQWsX.s 			page 13


 407              		.loc 1 278 0
 408 0266 8EE3     		b	.L1
 409              	.L11:
 279:..\..\..\arduinoLCD\test\Pain Drain\libraries\lvgl\src\extra\themes\mono/lv_theme_mono.c ****         }
 280:..\..\..\arduinoLCD\test\Pain Drain\libraries\lvgl\src\extra\themes\mono/lv_theme_mono.c **** #endif
 281:..\..\..\arduinoLCD\test\Pain Drain\libraries\lvgl\src\extra\themes\mono/lv_theme_mono.c ****         lv_obj_add_style(obj, &styles->card, 0);
 410              		.loc 1 281 0
 411 0268 444D     		ldr	r5, .L32
 412 026a 2968     		ldr	r1, [r5]
 413 026c 0831     		adds	r1, r1, #8
 414 026e 0022     		movs	r2, #0
 415 0270 2000     		movs	r0, r4
 416 0272 FFF7FEFF 		bl	lv_obj_add_style
 417              	.LVL60:
 282:..\..\..\arduinoLCD\test\Pain Drain\libraries\lvgl\src\extra\themes\mono/lv_theme_mono.c ****         lv_obj_add_style(obj, &styles->focus, LV_STATE_FOCUS_KEY);
 418              		.loc 1 282 0
 419 0276 2968     		ldr	r1, [r5]
 420 0278 3831     		adds	r1, r1, #56
 421 027a 0422     		movs	r2, #4
 422 027c 2000     		movs	r0, r4
 423 027e FFF7FEFF 		bl	lv_obj_add_style
 424              	.LVL61:
 283:..\..\..\arduinoLCD\test\Pain Drain\libraries\lvgl\src\extra\themes\mono/lv_theme_mono.c ****         lv_obj_add_style(obj, &styles->card, LV_PART_ITEMS);
 425              		.loc 1 283 0
 426 0282 2968     		ldr	r1, [r5]
 427 0284 0831     		adds	r1, r1, #8
 428 0286 A022     		movs	r2, #160
 429 0288 D202     		lsls	r2, r2, #11
 430 028a 2000     		movs	r0, r4
 431 028c FFF7FEFF 		bl	lv_obj_add_style
 432              	.LVL62:
 284:..\..\..\arduinoLCD\test\Pain Drain\libraries\lvgl\src\extra\themes\mono/lv_theme_mono.c ****         lv_obj_add_style(obj, &styles->pr, LV_PART_ITEMS | LV_STATE_PRESSED);
 433              		.loc 1 284 0
 434 0290 2968     		ldr	r1, [r5]
 435 0292 2031     		adds	r1, r1, #32
 436 0294 404A     		ldr	r2, .L32+28
 437 0296 2000     		movs	r0, r4
 438 0298 FFF7FEFF 		bl	lv_obj_add_style
 439              	.LVL63:
 285:..\..\..\arduinoLCD\test\Pain Drain\libraries\lvgl\src\extra\themes\mono/lv_theme_mono.c ****         lv_obj_add_style(obj, &styles->inv, LV_PART_ITEMS | LV_STATE_CHECKED);
 440              		.loc 1 285 0
 441 029c 2968     		ldr	r1, [r5]
 442 029e 2831     		adds	r1, r1, #40
 443 02a0 404A     		ldr	r2, .L32+40
 444 02a2 2000     		movs	r0, r4
 445 02a4 FFF7FEFF 		bl	lv_obj_add_style
 446              	.LVL64:
 286:..\..\..\arduinoLCD\test\Pain Drain\libraries\lvgl\src\extra\themes\mono/lv_theme_mono.c ****         lv_obj_add_style(obj, &styles->disabled, LV_PART_ITEMS | LV_STATE_DISABLED);
 447              		.loc 1 286 0
 448 02a8 2968     		ldr	r1, [r5]
 449 02aa 3031     		adds	r1, r1, #48
 450 02ac 3B4A     		ldr	r2, .L32+32
 451 02ae 2000     		movs	r0, r4
 452 02b0 FFF7FEFF 		bl	lv_obj_add_style
 453              	.LVL65:
 287:..\..\..\arduinoLCD\test\Pain Drain\libraries\lvgl\src\extra\themes\mono/lv_theme_mono.c ****         lv_obj_add_style(obj, &styles->underline, LV_PART_ITEMS | LV_STATE_FOCUS_KEY);
 454              		.loc 1 287 0
ARM GAS  C:\Users\haske\AppData\Local\Temp\ccSAQWsX.s 			page 14


 455 02b4 3A4E     		ldr	r6, .L32+36
 456 02b6 2968     		ldr	r1, [r5]
 457 02b8 7831     		adds	r1, r1, #120
 458 02ba 3200     		movs	r2, r6
 459 02bc 2000     		movs	r0, r4
 460 02be FFF7FEFF 		bl	lv_obj_add_style
 461              	.LVL66:
 288:..\..\..\arduinoLCD\test\Pain Drain\libraries\lvgl\src\extra\themes\mono/lv_theme_mono.c ****         lv_obj_add_style(obj, &styles->large_border, LV_PART_ITEMS | LV_STATE_FOCUS_KEY);
 462              		.loc 1 288 0
 463 02c2 2968     		ldr	r1, [r5]
 464 02c4 6831     		adds	r1, r1, #104
 465 02c6 3200     		movs	r2, r6
 466 02c8 2000     		movs	r0, r4
 467 02ca FFF7FEFF 		bl	lv_obj_add_style
 468              	.LVL67:
 469 02ce 5AE3     		b	.L1
 470              	.L9:
 289:..\..\..\arduinoLCD\test\Pain Drain\libraries\lvgl\src\extra\themes\mono/lv_theme_mono.c ****     }
 290:..\..\..\arduinoLCD\test\Pain Drain\libraries\lvgl\src\extra\themes\mono/lv_theme_mono.c **** #endif
 291:..\..\..\arduinoLCD\test\Pain Drain\libraries\lvgl\src\extra\themes\mono/lv_theme_mono.c **** 
 292:..\..\..\arduinoLCD\test\Pain Drain\libraries\lvgl\src\extra\themes\mono/lv_theme_mono.c **** #if LV_USE_BAR
 293:..\..\..\arduinoLCD\test\Pain Drain\libraries\lvgl\src\extra\themes\mono/lv_theme_mono.c ****     else if(lv_obj_check_type(obj, &lv_bar_class)) {
 471              		.loc 1 293 0
 472 02d0 3549     		ldr	r1, .L32+44
 473 02d2 2000     		movs	r0, r4
 474 02d4 FFF7FEFF 		bl	lv_obj_check_type
 475              	.LVL68:
 476 02d8 0028     		cmp	r0, #0
 477 02da 1AD0     		beq	.L12
 294:..\..\..\arduinoLCD\test\Pain Drain\libraries\lvgl\src\extra\themes\mono/lv_theme_mono.c ****         lv_obj_add_style(obj, &styles->card, 0);
 478              		.loc 1 294 0
 479 02dc 274D     		ldr	r5, .L32
 480 02de 2968     		ldr	r1, [r5]
 481 02e0 0831     		adds	r1, r1, #8
 482 02e2 0022     		movs	r2, #0
 483 02e4 2000     		movs	r0, r4
 484 02e6 FFF7FEFF 		bl	lv_obj_add_style
 485              	.LVL69:
 295:..\..\..\arduinoLCD\test\Pain Drain\libraries\lvgl\src\extra\themes\mono/lv_theme_mono.c ****         lv_obj_add_style(obj, &styles->pad_zero, 0);
 486              		.loc 1 295 0
 487 02ea 2968     		ldr	r1, [r5]
 488 02ec 5031     		adds	r1, r1, #80
 489 02ee 0022     		movs	r2, #0
 490 02f0 2000     		movs	r0, r4
 491 02f2 FFF7FEFF 		bl	lv_obj_add_style
 492              	.LVL70:
 296:..\..\..\arduinoLCD\test\Pain Drain\libraries\lvgl\src\extra\themes\mono/lv_theme_mono.c ****         lv_obj_add_style(obj, &styles->inv, LV_PART_INDICATOR);
 493              		.loc 1 296 0
 494 02f6 2968     		ldr	r1, [r5]
 495 02f8 2831     		adds	r1, r1, #40
 496 02fa 8022     		movs	r2, #128
 497 02fc 9202     		lsls	r2, r2, #10
 498 02fe 2000     		movs	r0, r4
 499 0300 FFF7FEFF 		bl	lv_obj_add_style
 500              	.LVL71:
 297:..\..\..\arduinoLCD\test\Pain Drain\libraries\lvgl\src\extra\themes\mono/lv_theme_mono.c ****         lv_obj_add_style(obj, &styles->focus, LV_STATE_FOCUS_KEY);
 501              		.loc 1 297 0
ARM GAS  C:\Users\haske\AppData\Local\Temp\ccSAQWsX.s 			page 15


 502 0304 2968     		ldr	r1, [r5]
 503 0306 3831     		adds	r1, r1, #56
 504 0308 0422     		movs	r2, #4
 505 030a 2000     		movs	r0, r4
 506 030c FFF7FEFF 		bl	lv_obj_add_style
 507              	.LVL72:
 508 0310 39E3     		b	.L1
 509              	.L12:
 298:..\..\..\arduinoLCD\test\Pain Drain\libraries\lvgl\src\extra\themes\mono/lv_theme_mono.c ****     }
 299:..\..\..\arduinoLCD\test\Pain Drain\libraries\lvgl\src\extra\themes\mono/lv_theme_mono.c **** #endif
 300:..\..\..\arduinoLCD\test\Pain Drain\libraries\lvgl\src\extra\themes\mono/lv_theme_mono.c **** 
 301:..\..\..\arduinoLCD\test\Pain Drain\libraries\lvgl\src\extra\themes\mono/lv_theme_mono.c **** #if LV_USE_SLIDER
 302:..\..\..\arduinoLCD\test\Pain Drain\libraries\lvgl\src\extra\themes\mono/lv_theme_mono.c ****     else if(lv_obj_check_type(obj, &lv_slider_class)) {
 510              		.loc 1 302 0
 511 0312 2649     		ldr	r1, .L32+48
 512 0314 2000     		movs	r0, r4
 513 0316 FFF7FEFF 		bl	lv_obj_check_type
 514              	.LVL73:
 515 031a 0028     		cmp	r0, #0
 516 031c 48D0     		beq	.L13
 303:..\..\..\arduinoLCD\test\Pain Drain\libraries\lvgl\src\extra\themes\mono/lv_theme_mono.c ****         lv_obj_add_style(obj, &styles->card, 0);
 517              		.loc 1 303 0
 518 031e 174D     		ldr	r5, .L32
 519 0320 2968     		ldr	r1, [r5]
 520 0322 0831     		adds	r1, r1, #8
 521 0324 0022     		movs	r2, #0
 522 0326 2000     		movs	r0, r4
 523 0328 FFF7FEFF 		bl	lv_obj_add_style
 524              	.LVL74:
 304:..\..\..\arduinoLCD\test\Pain Drain\libraries\lvgl\src\extra\themes\mono/lv_theme_mono.c ****         lv_obj_add_style(obj, &styles->pad_zero, 0);
 525              		.loc 1 304 0
 526 032c 2968     		ldr	r1, [r5]
 527 032e 5031     		adds	r1, r1, #80
 528 0330 0022     		movs	r2, #0
 529 0332 2000     		movs	r0, r4
 530 0334 FFF7FEFF 		bl	lv_obj_add_style
 531              	.LVL75:
 305:..\..\..\arduinoLCD\test\Pain Drain\libraries\lvgl\src\extra\themes\mono/lv_theme_mono.c ****         lv_obj_add_style(obj, &styles->inv, LV_PART_INDICATOR);
 532              		.loc 1 305 0
 533 0338 2968     		ldr	r1, [r5]
 534 033a 2831     		adds	r1, r1, #40
 535 033c 8022     		movs	r2, #128
 536 033e 9202     		lsls	r2, r2, #10
 537 0340 2000     		movs	r0, r4
 538 0342 FFF7FEFF 		bl	lv_obj_add_style
 539              	.LVL76:
 306:..\..\..\arduinoLCD\test\Pain Drain\libraries\lvgl\src\extra\themes\mono/lv_theme_mono.c ****         lv_obj_add_style(obj, &styles->card, LV_PART_KNOB);
 540              		.loc 1 306 0
 541 0346 C026     		movs	r6, #192
 542 0348 B602     		lsls	r6, r6, #10
 543 034a 2968     		ldr	r1, [r5]
 544 034c 0831     		adds	r1, r1, #8
 545 034e 3200     		movs	r2, r6
 546 0350 2000     		movs	r0, r4
 547 0352 FFF7FEFF 		bl	lv_obj_add_style
 548              	.LVL77:
 307:..\..\..\arduinoLCD\test\Pain Drain\libraries\lvgl\src\extra\themes\mono/lv_theme_mono.c ****         lv_obj_add_style(obj, &styles->radius_circle, LV_PART_KNOB);
ARM GAS  C:\Users\haske\AppData\Local\Temp\ccSAQWsX.s 			page 16


 549              		.loc 1 307 0
 550 0356 2968     		ldr	r1, [r5]
 551 0358 6031     		adds	r1, r1, #96
 552 035a 3200     		movs	r2, r6
 553 035c 2000     		movs	r0, r4
 554 035e FFF7FEFF 		bl	lv_obj_add_style
 555              	.LVL78:
 308:..\..\..\arduinoLCD\test\Pain Drain\libraries\lvgl\src\extra\themes\mono/lv_theme_mono.c ****         lv_obj_add_style(obj, &styles->focus, LV_STATE_FOCUS_KEY);
 556              		.loc 1 308 0
 557 0362 2968     		ldr	r1, [r5]
 558 0364 3831     		adds	r1, r1, #56
 559 0366 0422     		movs	r2, #4
 560 0368 2000     		movs	r0, r4
 561 036a FFF7FEFF 		bl	lv_obj_add_style
 562              	.LVL79:
 309:..\..\..\arduinoLCD\test\Pain Drain\libraries\lvgl\src\extra\themes\mono/lv_theme_mono.c ****         lv_obj_add_style(obj, &styles->edit, LV_STATE_EDITED);
 563              		.loc 1 309 0
 564 036e 2968     		ldr	r1, [r5]
 565 0370 4031     		adds	r1, r1, #64
 566 0372 0822     		movs	r2, #8
 567 0374 2000     		movs	r0, r4
 568 0376 FFF7FEFF 		bl	lv_obj_add_style
 569              	.LVL80:
 570 037a 04E3     		b	.L1
 571              	.L33:
 572              		.align	2
 573              	.L32:
 574 037c 00000000 		.word	.LANCHOR0
 575 0380 00000000 		.word	lv_obj_class
 576 0384 00000000 		.word	lv_tabview_class
 577 0388 00000000 		.word	lv_win_class
 578 038c 00000000 		.word	lv_btn_class
 579 0390 00000000 		.word	lv_btnmatrix_class
 580 0394 00000000 		.word	lv_msgbox_class
 581 0398 20000500 		.word	327712
 582 039c 80000500 		.word	327808
 583 03a0 04000500 		.word	327684
 584 03a4 01000500 		.word	327681
 585 03a8 00000000 		.word	lv_bar_class
 586 03ac 00000000 		.word	lv_slider_class
 587              	.L13:
 310:..\..\..\arduinoLCD\test\Pain Drain\libraries\lvgl\src\extra\themes\mono/lv_theme_mono.c ****     }
 311:..\..\..\arduinoLCD\test\Pain Drain\libraries\lvgl\src\extra\themes\mono/lv_theme_mono.c **** #endif
 312:..\..\..\arduinoLCD\test\Pain Drain\libraries\lvgl\src\extra\themes\mono/lv_theme_mono.c **** 
 313:..\..\..\arduinoLCD\test\Pain Drain\libraries\lvgl\src\extra\themes\mono/lv_theme_mono.c **** #if LV_USE_TABLE
 314:..\..\..\arduinoLCD\test\Pain Drain\libraries\lvgl\src\extra\themes\mono/lv_theme_mono.c ****     else if(lv_obj_check_type(obj, &lv_table_class)) {
 588              		.loc 1 314 0
 589 03b0 E249     		ldr	r1, .L34
 590 03b2 2000     		movs	r0, r4
 591 03b4 FFF7FEFF 		bl	lv_obj_check_type
 592              	.LVL81:
 593 03b8 0028     		cmp	r0, #0
 594 03ba 2ED0     		beq	.L14
 315:..\..\..\arduinoLCD\test\Pain Drain\libraries\lvgl\src\extra\themes\mono/lv_theme_mono.c ****         lv_obj_add_style(obj, &styles->scrollbar, LV_PART_SCROLLBAR);
 595              		.loc 1 315 0
 596 03bc E04D     		ldr	r5, .L34+4
 597 03be 2968     		ldr	r1, [r5]
ARM GAS  C:\Users\haske\AppData\Local\Temp\ccSAQWsX.s 			page 17


 598 03c0 1031     		adds	r1, r1, #16
 599 03c2 8022     		movs	r2, #128
 600 03c4 5202     		lsls	r2, r2, #9
 601 03c6 2000     		movs	r0, r4
 602 03c8 FFF7FEFF 		bl	lv_obj_add_style
 603              	.LVL82:
 316:..\..\..\arduinoLCD\test\Pain Drain\libraries\lvgl\src\extra\themes\mono/lv_theme_mono.c ****         lv_obj_add_style(obj, &styles->card, LV_PART_ITEMS);
 604              		.loc 1 316 0
 605 03cc A026     		movs	r6, #160
 606 03ce F602     		lsls	r6, r6, #11
 607 03d0 2968     		ldr	r1, [r5]
 608 03d2 0831     		adds	r1, r1, #8
 609 03d4 3200     		movs	r2, r6
 610 03d6 2000     		movs	r0, r4
 611 03d8 FFF7FEFF 		bl	lv_obj_add_style
 612              	.LVL83:
 317:..\..\..\arduinoLCD\test\Pain Drain\libraries\lvgl\src\extra\themes\mono/lv_theme_mono.c ****         lv_obj_add_style(obj, &styles->no_radius, LV_PART_ITEMS);
 613              		.loc 1 317 0
 614 03dc 2968     		ldr	r1, [r5]
 615 03de 5831     		adds	r1, r1, #88
 616 03e0 3200     		movs	r2, r6
 617 03e2 2000     		movs	r0, r4
 618 03e4 FFF7FEFF 		bl	lv_obj_add_style
 619              	.LVL84:
 318:..\..\..\arduinoLCD\test\Pain Drain\libraries\lvgl\src\extra\themes\mono/lv_theme_mono.c ****         lv_obj_add_style(obj, &styles->pr, LV_PART_ITEMS | LV_STATE_PRESSED);
 620              		.loc 1 318 0
 621 03e8 2968     		ldr	r1, [r5]
 622 03ea 2031     		adds	r1, r1, #32
 623 03ec D54A     		ldr	r2, .L34+8
 624 03ee 2000     		movs	r0, r4
 625 03f0 FFF7FEFF 		bl	lv_obj_add_style
 626              	.LVL85:
 319:..\..\..\arduinoLCD\test\Pain Drain\libraries\lvgl\src\extra\themes\mono/lv_theme_mono.c ****         lv_obj_add_style(obj, &styles->focus, LV_STATE_FOCUS_KEY);
 627              		.loc 1 319 0
 628 03f4 2968     		ldr	r1, [r5]
 629 03f6 3831     		adds	r1, r1, #56
 630 03f8 0422     		movs	r2, #4
 631 03fa 2000     		movs	r0, r4
 632 03fc FFF7FEFF 		bl	lv_obj_add_style
 633              	.LVL86:
 320:..\..\..\arduinoLCD\test\Pain Drain\libraries\lvgl\src\extra\themes\mono/lv_theme_mono.c ****         lv_obj_add_style(obj, &styles->inv, LV_PART_ITEMS | LV_STATE_FOCUS_KEY);
 634              		.loc 1 320 0
 635 0400 2968     		ldr	r1, [r5]
 636 0402 2831     		adds	r1, r1, #40
 637 0404 D04A     		ldr	r2, .L34+12
 638 0406 2000     		movs	r0, r4
 639 0408 FFF7FEFF 		bl	lv_obj_add_style
 640              	.LVL87:
 321:..\..\..\arduinoLCD\test\Pain Drain\libraries\lvgl\src\extra\themes\mono/lv_theme_mono.c ****         lv_obj_add_style(obj, &styles->edit, LV_STATE_EDITED);
 641              		.loc 1 321 0
 642 040c 2968     		ldr	r1, [r5]
 643 040e 4031     		adds	r1, r1, #64
 644 0410 0822     		movs	r2, #8
 645 0412 2000     		movs	r0, r4
 646 0414 FFF7FEFF 		bl	lv_obj_add_style
 647              	.LVL88:
 648 0418 B5E2     		b	.L1
ARM GAS  C:\Users\haske\AppData\Local\Temp\ccSAQWsX.s 			page 18


 649              	.L14:
 322:..\..\..\arduinoLCD\test\Pain Drain\libraries\lvgl\src\extra\themes\mono/lv_theme_mono.c ****     }
 323:..\..\..\arduinoLCD\test\Pain Drain\libraries\lvgl\src\extra\themes\mono/lv_theme_mono.c **** #endif
 324:..\..\..\arduinoLCD\test\Pain Drain\libraries\lvgl\src\extra\themes\mono/lv_theme_mono.c **** 
 325:..\..\..\arduinoLCD\test\Pain Drain\libraries\lvgl\src\extra\themes\mono/lv_theme_mono.c **** #if LV_USE_CHECKBOX
 326:..\..\..\arduinoLCD\test\Pain Drain\libraries\lvgl\src\extra\themes\mono/lv_theme_mono.c ****     else if(lv_obj_check_type(obj, &lv_checkbox_class)) {
 650              		.loc 1 326 0
 651 041a CC49     		ldr	r1, .L34+16
 652 041c 2000     		movs	r0, r4
 653 041e FFF7FEFF 		bl	lv_obj_check_type
 654              	.LVL89:
 655 0422 0028     		cmp	r0, #0
 656 0424 2CD0     		beq	.L15
 327:..\..\..\arduinoLCD\test\Pain Drain\libraries\lvgl\src\extra\themes\mono/lv_theme_mono.c ****         lv_obj_add_style(obj, &styles->pad_gap, LV_PART_MAIN);
 657              		.loc 1 327 0
 658 0426 C64D     		ldr	r5, .L34+4
 659 0428 2968     		ldr	r1, [r5]
 660 042a 4831     		adds	r1, r1, #72
 661 042c 0022     		movs	r2, #0
 662 042e 2000     		movs	r0, r4
 663 0430 FFF7FEFF 		bl	lv_obj_add_style
 664              	.LVL90:
 328:..\..\..\arduinoLCD\test\Pain Drain\libraries\lvgl\src\extra\themes\mono/lv_theme_mono.c ****         lv_obj_add_style(obj, &styles->card, LV_PART_INDICATOR);
 665              		.loc 1 328 0
 666 0434 2968     		ldr	r1, [r5]
 667 0436 0831     		adds	r1, r1, #8
 668 0438 8022     		movs	r2, #128
 669 043a 9202     		lsls	r2, r2, #10
 670 043c 2000     		movs	r0, r4
 671 043e FFF7FEFF 		bl	lv_obj_add_style
 672              	.LVL91:
 329:..\..\..\arduinoLCD\test\Pain Drain\libraries\lvgl\src\extra\themes\mono/lv_theme_mono.c ****         lv_obj_add_style(obj, &styles->disabled, LV_PART_INDICATOR | LV_STATE_DISABLED);
 673              		.loc 1 329 0
 674 0442 2968     		ldr	r1, [r5]
 675 0444 3031     		adds	r1, r1, #48
 676 0446 C24A     		ldr	r2, .L34+20
 677 0448 2000     		movs	r0, r4
 678 044a FFF7FEFF 		bl	lv_obj_add_style
 679              	.LVL92:
 330:..\..\..\arduinoLCD\test\Pain Drain\libraries\lvgl\src\extra\themes\mono/lv_theme_mono.c ****         lv_obj_add_style(obj, &styles->inv, LV_PART_INDICATOR | LV_STATE_CHECKED);
 680              		.loc 1 330 0
 681 044e 2968     		ldr	r1, [r5]
 682 0450 2831     		adds	r1, r1, #40
 683 0452 C04A     		ldr	r2, .L34+24
 684 0454 2000     		movs	r0, r4
 685 0456 FFF7FEFF 		bl	lv_obj_add_style
 686              	.LVL93:
 331:..\..\..\arduinoLCD\test\Pain Drain\libraries\lvgl\src\extra\themes\mono/lv_theme_mono.c ****         lv_obj_add_style(obj, &styles->pr, LV_PART_INDICATOR | LV_STATE_PRESSED);
 687              		.loc 1 331 0
 688 045a 2968     		ldr	r1, [r5]
 689 045c 2031     		adds	r1, r1, #32
 690 045e BE4A     		ldr	r2, .L34+28
 691 0460 2000     		movs	r0, r4
 692 0462 FFF7FEFF 		bl	lv_obj_add_style
 693              	.LVL94:
 332:..\..\..\arduinoLCD\test\Pain Drain\libraries\lvgl\src\extra\themes\mono/lv_theme_mono.c ****         lv_obj_add_style(obj, &styles->focus, LV_STATE_FOCUS_KEY);
 694              		.loc 1 332 0
ARM GAS  C:\Users\haske\AppData\Local\Temp\ccSAQWsX.s 			page 19


 695 0466 2968     		ldr	r1, [r5]
 696 0468 3831     		adds	r1, r1, #56
 697 046a 0422     		movs	r2, #4
 698 046c 2000     		movs	r0, r4
 699 046e FFF7FEFF 		bl	lv_obj_add_style
 700              	.LVL95:
 333:..\..\..\arduinoLCD\test\Pain Drain\libraries\lvgl\src\extra\themes\mono/lv_theme_mono.c ****         lv_obj_add_style(obj, &styles->edit, LV_STATE_EDITED);
 701              		.loc 1 333 0
 702 0472 2968     		ldr	r1, [r5]
 703 0474 4031     		adds	r1, r1, #64
 704 0476 0822     		movs	r2, #8
 705 0478 2000     		movs	r0, r4
 706 047a FFF7FEFF 		bl	lv_obj_add_style
 707              	.LVL96:
 708 047e 82E2     		b	.L1
 709              	.L15:
 334:..\..\..\arduinoLCD\test\Pain Drain\libraries\lvgl\src\extra\themes\mono/lv_theme_mono.c ****     }
 335:..\..\..\arduinoLCD\test\Pain Drain\libraries\lvgl\src\extra\themes\mono/lv_theme_mono.c **** #endif
 336:..\..\..\arduinoLCD\test\Pain Drain\libraries\lvgl\src\extra\themes\mono/lv_theme_mono.c **** 
 337:..\..\..\arduinoLCD\test\Pain Drain\libraries\lvgl\src\extra\themes\mono/lv_theme_mono.c **** #if LV_USE_SWITCH
 338:..\..\..\arduinoLCD\test\Pain Drain\libraries\lvgl\src\extra\themes\mono/lv_theme_mono.c ****     else if(lv_obj_check_type(obj, &lv_switch_class)) {
 710              		.loc 1 338 0
 711 0480 B649     		ldr	r1, .L34+32
 712 0482 2000     		movs	r0, r4
 713 0484 FFF7FEFF 		bl	lv_obj_check_type
 714              	.LVL97:
 715 0488 0028     		cmp	r0, #0
 716 048a 41D0     		beq	.L16
 339:..\..\..\arduinoLCD\test\Pain Drain\libraries\lvgl\src\extra\themes\mono/lv_theme_mono.c ****         lv_obj_add_style(obj, &styles->card, 0);
 717              		.loc 1 339 0
 718 048c AC4D     		ldr	r5, .L34+4
 719 048e 2968     		ldr	r1, [r5]
 720 0490 0831     		adds	r1, r1, #8
 721 0492 0022     		movs	r2, #0
 722 0494 2000     		movs	r0, r4
 723 0496 FFF7FEFF 		bl	lv_obj_add_style
 724              	.LVL98:
 340:..\..\..\arduinoLCD\test\Pain Drain\libraries\lvgl\src\extra\themes\mono/lv_theme_mono.c ****         lv_obj_add_style(obj, &styles->radius_circle, 0);
 725              		.loc 1 340 0
 726 049a 2968     		ldr	r1, [r5]
 727 049c 6031     		adds	r1, r1, #96
 728 049e 0022     		movs	r2, #0
 729 04a0 2000     		movs	r0, r4
 730 04a2 FFF7FEFF 		bl	lv_obj_add_style
 731              	.LVL99:
 341:..\..\..\arduinoLCD\test\Pain Drain\libraries\lvgl\src\extra\themes\mono/lv_theme_mono.c ****         lv_obj_add_style(obj, &styles->pad_zero, 0);
 732              		.loc 1 341 0
 733 04a6 2968     		ldr	r1, [r5]
 734 04a8 5031     		adds	r1, r1, #80
 735 04aa 0022     		movs	r2, #0
 736 04ac 2000     		movs	r0, r4
 737 04ae FFF7FEFF 		bl	lv_obj_add_style
 738              	.LVL100:
 342:..\..\..\arduinoLCD\test\Pain Drain\libraries\lvgl\src\extra\themes\mono/lv_theme_mono.c ****         lv_obj_add_style(obj, &styles->inv, LV_PART_INDICATOR);
 739              		.loc 1 342 0
 740 04b2 8026     		movs	r6, #128
 741 04b4 B602     		lsls	r6, r6, #10
ARM GAS  C:\Users\haske\AppData\Local\Temp\ccSAQWsX.s 			page 20


 742 04b6 2968     		ldr	r1, [r5]
 743 04b8 2831     		adds	r1, r1, #40
 744 04ba 3200     		movs	r2, r6
 745 04bc 2000     		movs	r0, r4
 746 04be FFF7FEFF 		bl	lv_obj_add_style
 747              	.LVL101:
 343:..\..\..\arduinoLCD\test\Pain Drain\libraries\lvgl\src\extra\themes\mono/lv_theme_mono.c ****         lv_obj_add_style(obj, &styles->radius_circle, LV_PART_INDICATOR);
 748              		.loc 1 343 0
 749 04c2 2968     		ldr	r1, [r5]
 750 04c4 6031     		adds	r1, r1, #96
 751 04c6 3200     		movs	r2, r6
 752 04c8 2000     		movs	r0, r4
 753 04ca FFF7FEFF 		bl	lv_obj_add_style
 754              	.LVL102:
 344:..\..\..\arduinoLCD\test\Pain Drain\libraries\lvgl\src\extra\themes\mono/lv_theme_mono.c ****         lv_obj_add_style(obj, &styles->card, LV_PART_KNOB);
 755              		.loc 1 344 0
 756 04ce C026     		movs	r6, #192
 757 04d0 B602     		lsls	r6, r6, #10
 758 04d2 2968     		ldr	r1, [r5]
 759 04d4 0831     		adds	r1, r1, #8
 760 04d6 3200     		movs	r2, r6
 761 04d8 2000     		movs	r0, r4
 762 04da FFF7FEFF 		bl	lv_obj_add_style
 763              	.LVL103:
 345:..\..\..\arduinoLCD\test\Pain Drain\libraries\lvgl\src\extra\themes\mono/lv_theme_mono.c ****         lv_obj_add_style(obj, &styles->radius_circle, LV_PART_KNOB);
 764              		.loc 1 345 0
 765 04de 2968     		ldr	r1, [r5]
 766 04e0 6031     		adds	r1, r1, #96
 767 04e2 3200     		movs	r2, r6
 768 04e4 2000     		movs	r0, r4
 769 04e6 FFF7FEFF 		bl	lv_obj_add_style
 770              	.LVL104:
 346:..\..\..\arduinoLCD\test\Pain Drain\libraries\lvgl\src\extra\themes\mono/lv_theme_mono.c ****         lv_obj_add_style(obj, &styles->pad_zero, LV_PART_KNOB);
 771              		.loc 1 346 0
 772 04ea 2968     		ldr	r1, [r5]
 773 04ec 5031     		adds	r1, r1, #80
 774 04ee 3200     		movs	r2, r6
 775 04f0 2000     		movs	r0, r4
 776 04f2 FFF7FEFF 		bl	lv_obj_add_style
 777              	.LVL105:
 347:..\..\..\arduinoLCD\test\Pain Drain\libraries\lvgl\src\extra\themes\mono/lv_theme_mono.c ****         lv_obj_add_style(obj, &styles->focus, LV_STATE_FOCUS_KEY);
 778              		.loc 1 347 0
 779 04f6 2968     		ldr	r1, [r5]
 780 04f8 3831     		adds	r1, r1, #56
 781 04fa 0422     		movs	r2, #4
 782 04fc 2000     		movs	r0, r4
 783 04fe FFF7FEFF 		bl	lv_obj_add_style
 784              	.LVL106:
 348:..\..\..\arduinoLCD\test\Pain Drain\libraries\lvgl\src\extra\themes\mono/lv_theme_mono.c ****         lv_obj_add_style(obj, &styles->edit, LV_STATE_EDITED);
 785              		.loc 1 348 0
 786 0502 2968     		ldr	r1, [r5]
 787 0504 4031     		adds	r1, r1, #64
 788 0506 0822     		movs	r2, #8
 789 0508 2000     		movs	r0, r4
 790 050a FFF7FEFF 		bl	lv_obj_add_style
 791              	.LVL107:
 792 050e 3AE2     		b	.L1
ARM GAS  C:\Users\haske\AppData\Local\Temp\ccSAQWsX.s 			page 21


 793              	.L16:
 349:..\..\..\arduinoLCD\test\Pain Drain\libraries\lvgl\src\extra\themes\mono/lv_theme_mono.c ****     }
 350:..\..\..\arduinoLCD\test\Pain Drain\libraries\lvgl\src\extra\themes\mono/lv_theme_mono.c **** #endif
 351:..\..\..\arduinoLCD\test\Pain Drain\libraries\lvgl\src\extra\themes\mono/lv_theme_mono.c **** 
 352:..\..\..\arduinoLCD\test\Pain Drain\libraries\lvgl\src\extra\themes\mono/lv_theme_mono.c **** #if LV_USE_CHART
 353:..\..\..\arduinoLCD\test\Pain Drain\libraries\lvgl\src\extra\themes\mono/lv_theme_mono.c ****     else if(lv_obj_check_type(obj, &lv_chart_class)) {
 794              		.loc 1 353 0
 795 0510 9349     		ldr	r1, .L34+36
 796 0512 2000     		movs	r0, r4
 797 0514 FFF7FEFF 		bl	lv_obj_check_type
 798              	.LVL108:
 799 0518 0028     		cmp	r0, #0
 800 051a 29D0     		beq	.L17
 354:..\..\..\arduinoLCD\test\Pain Drain\libraries\lvgl\src\extra\themes\mono/lv_theme_mono.c ****         lv_obj_add_style(obj, &styles->card, 0);
 801              		.loc 1 354 0
 802 051c 884D     		ldr	r5, .L34+4
 803 051e 2968     		ldr	r1, [r5]
 804 0520 0831     		adds	r1, r1, #8
 805 0522 0022     		movs	r2, #0
 806 0524 2000     		movs	r0, r4
 807 0526 FFF7FEFF 		bl	lv_obj_add_style
 808              	.LVL109:
 355:..\..\..\arduinoLCD\test\Pain Drain\libraries\lvgl\src\extra\themes\mono/lv_theme_mono.c ****         lv_obj_add_style(obj, &styles->scrollbar, LV_PART_SCROLLBAR);
 809              		.loc 1 355 0
 810 052a 2968     		ldr	r1, [r5]
 811 052c 1031     		adds	r1, r1, #16
 812 052e 8022     		movs	r2, #128
 813 0530 5202     		lsls	r2, r2, #9
 814 0532 2000     		movs	r0, r4
 815 0534 FFF7FEFF 		bl	lv_obj_add_style
 816              	.LVL110:
 356:..\..\..\arduinoLCD\test\Pain Drain\libraries\lvgl\src\extra\themes\mono/lv_theme_mono.c ****         lv_obj_add_style(obj, &styles->card, LV_PART_ITEMS);
 817              		.loc 1 356 0
 818 0538 2968     		ldr	r1, [r5]
 819 053a 0831     		adds	r1, r1, #8
 820 053c A022     		movs	r2, #160
 821 053e D202     		lsls	r2, r2, #11
 822 0540 2000     		movs	r0, r4
 823 0542 FFF7FEFF 		bl	lv_obj_add_style
 824              	.LVL111:
 357:..\..\..\arduinoLCD\test\Pain Drain\libraries\lvgl\src\extra\themes\mono/lv_theme_mono.c ****         lv_obj_add_style(obj, &styles->card, LV_PART_TICKS);
 825              		.loc 1 357 0
 826 0546 2968     		ldr	r1, [r5]
 827 0548 0831     		adds	r1, r1, #8
 828 054a C022     		movs	r2, #192
 829 054c D202     		lsls	r2, r2, #11
 830 054e 2000     		movs	r0, r4
 831 0550 FFF7FEFF 		bl	lv_obj_add_style
 832              	.LVL112:
 358:..\..\..\arduinoLCD\test\Pain Drain\libraries\lvgl\src\extra\themes\mono/lv_theme_mono.c ****         lv_obj_add_style(obj, &styles->card, LV_PART_CURSOR);
 833              		.loc 1 358 0
 834 0554 2968     		ldr	r1, [r5]
 835 0556 0831     		adds	r1, r1, #8
 836 0558 E022     		movs	r2, #224
 837 055a D202     		lsls	r2, r2, #11
 838 055c 2000     		movs	r0, r4
 839 055e FFF7FEFF 		bl	lv_obj_add_style
ARM GAS  C:\Users\haske\AppData\Local\Temp\ccSAQWsX.s 			page 22


 840              	.LVL113:
 359:..\..\..\arduinoLCD\test\Pain Drain\libraries\lvgl\src\extra\themes\mono/lv_theme_mono.c ****         lv_obj_add_style(obj, &styles->focus, LV_STATE_FOCUS_KEY);
 841              		.loc 1 359 0
 842 0562 2968     		ldr	r1, [r5]
 843 0564 3831     		adds	r1, r1, #56
 844 0566 0422     		movs	r2, #4
 845 0568 2000     		movs	r0, r4
 846 056a FFF7FEFF 		bl	lv_obj_add_style
 847              	.LVL114:
 848 056e 0AE2     		b	.L1
 849              	.L17:
 360:..\..\..\arduinoLCD\test\Pain Drain\libraries\lvgl\src\extra\themes\mono/lv_theme_mono.c ****     }
 361:..\..\..\arduinoLCD\test\Pain Drain\libraries\lvgl\src\extra\themes\mono/lv_theme_mono.c **** #endif
 362:..\..\..\arduinoLCD\test\Pain Drain\libraries\lvgl\src\extra\themes\mono/lv_theme_mono.c **** 
 363:..\..\..\arduinoLCD\test\Pain Drain\libraries\lvgl\src\extra\themes\mono/lv_theme_mono.c **** #if LV_USE_ROLLER
 364:..\..\..\arduinoLCD\test\Pain Drain\libraries\lvgl\src\extra\themes\mono/lv_theme_mono.c ****     else if(lv_obj_check_type(obj, &lv_roller_class)) {
 850              		.loc 1 364 0
 851 0570 7C49     		ldr	r1, .L34+40
 852 0572 2000     		movs	r0, r4
 853 0574 FFF7FEFF 		bl	lv_obj_check_type
 854              	.LVL115:
 855 0578 0028     		cmp	r0, #0
 856 057a 20D0     		beq	.L18
 365:..\..\..\arduinoLCD\test\Pain Drain\libraries\lvgl\src\extra\themes\mono/lv_theme_mono.c ****         lv_obj_add_style(obj, &styles->card, 0);
 857              		.loc 1 365 0
 858 057c 704D     		ldr	r5, .L34+4
 859 057e 2968     		ldr	r1, [r5]
 860 0580 0831     		adds	r1, r1, #8
 861 0582 0022     		movs	r2, #0
 862 0584 2000     		movs	r0, r4
 863 0586 FFF7FEFF 		bl	lv_obj_add_style
 864              	.LVL116:
 366:..\..\..\arduinoLCD\test\Pain Drain\libraries\lvgl\src\extra\themes\mono/lv_theme_mono.c ****         lv_obj_add_style(obj, &styles->large_line_space, 0);
 865              		.loc 1 366 0
 866 058a 2968     		ldr	r1, [r5]
 867 058c 7031     		adds	r1, r1, #112
 868 058e 0022     		movs	r2, #0
 869 0590 2000     		movs	r0, r4
 870 0592 FFF7FEFF 		bl	lv_obj_add_style
 871              	.LVL117:
 367:..\..\..\arduinoLCD\test\Pain Drain\libraries\lvgl\src\extra\themes\mono/lv_theme_mono.c ****         lv_obj_add_style(obj, &styles->inv, LV_PART_SELECTED);
 872              		.loc 1 367 0
 873 0596 2968     		ldr	r1, [r5]
 874 0598 2831     		adds	r1, r1, #40
 875 059a 8022     		movs	r2, #128
 876 059c D202     		lsls	r2, r2, #11
 877 059e 2000     		movs	r0, r4
 878 05a0 FFF7FEFF 		bl	lv_obj_add_style
 879              	.LVL118:
 368:..\..\..\arduinoLCD\test\Pain Drain\libraries\lvgl\src\extra\themes\mono/lv_theme_mono.c ****         lv_obj_add_style(obj, &styles->focus, LV_STATE_FOCUS_KEY);
 880              		.loc 1 368 0
 881 05a4 2968     		ldr	r1, [r5]
 882 05a6 3831     		adds	r1, r1, #56
 883 05a8 0422     		movs	r2, #4
 884 05aa 2000     		movs	r0, r4
 885 05ac FFF7FEFF 		bl	lv_obj_add_style
 886              	.LVL119:
ARM GAS  C:\Users\haske\AppData\Local\Temp\ccSAQWsX.s 			page 23


 369:..\..\..\arduinoLCD\test\Pain Drain\libraries\lvgl\src\extra\themes\mono/lv_theme_mono.c ****         lv_obj_add_style(obj, &styles->edit, LV_STATE_EDITED);
 887              		.loc 1 369 0
 888 05b0 2968     		ldr	r1, [r5]
 889 05b2 4031     		adds	r1, r1, #64
 890 05b4 0822     		movs	r2, #8
 891 05b6 2000     		movs	r0, r4
 892 05b8 FFF7FEFF 		bl	lv_obj_add_style
 893              	.LVL120:
 894 05bc E3E1     		b	.L1
 895              	.L18:
 370:..\..\..\arduinoLCD\test\Pain Drain\libraries\lvgl\src\extra\themes\mono/lv_theme_mono.c ****     }
 371:..\..\..\arduinoLCD\test\Pain Drain\libraries\lvgl\src\extra\themes\mono/lv_theme_mono.c **** #endif
 372:..\..\..\arduinoLCD\test\Pain Drain\libraries\lvgl\src\extra\themes\mono/lv_theme_mono.c **** 
 373:..\..\..\arduinoLCD\test\Pain Drain\libraries\lvgl\src\extra\themes\mono/lv_theme_mono.c **** #if LV_USE_DROPDOWN
 374:..\..\..\arduinoLCD\test\Pain Drain\libraries\lvgl\src\extra\themes\mono/lv_theme_mono.c ****     else if(lv_obj_check_type(obj, &lv_dropdown_class)) {
 896              		.loc 1 374 0
 897 05be 6A49     		ldr	r1, .L34+44
 898 05c0 2000     		movs	r0, r4
 899 05c2 FFF7FEFF 		bl	lv_obj_check_type
 900              	.LVL121:
 901 05c6 0028     		cmp	r0, #0
 902 05c8 19D0     		beq	.L19
 375:..\..\..\arduinoLCD\test\Pain Drain\libraries\lvgl\src\extra\themes\mono/lv_theme_mono.c ****         lv_obj_add_style(obj, &styles->card, 0);
 903              		.loc 1 375 0
 904 05ca 5D4D     		ldr	r5, .L34+4
 905 05cc 2968     		ldr	r1, [r5]
 906 05ce 0831     		adds	r1, r1, #8
 907 05d0 0022     		movs	r2, #0
 908 05d2 2000     		movs	r0, r4
 909 05d4 FFF7FEFF 		bl	lv_obj_add_style
 910              	.LVL122:
 376:..\..\..\arduinoLCD\test\Pain Drain\libraries\lvgl\src\extra\themes\mono/lv_theme_mono.c ****         lv_obj_add_style(obj, &styles->pr, LV_STATE_PRESSED);
 911              		.loc 1 376 0
 912 05d8 2968     		ldr	r1, [r5]
 913 05da 2031     		adds	r1, r1, #32
 914 05dc 2022     		movs	r2, #32
 915 05de 2000     		movs	r0, r4
 916 05e0 FFF7FEFF 		bl	lv_obj_add_style
 917              	.LVL123:
 377:..\..\..\arduinoLCD\test\Pain Drain\libraries\lvgl\src\extra\themes\mono/lv_theme_mono.c ****         lv_obj_add_style(obj, &styles->focus, LV_STATE_FOCUS_KEY);
 918              		.loc 1 377 0
 919 05e4 2968     		ldr	r1, [r5]
 920 05e6 3831     		adds	r1, r1, #56
 921 05e8 0422     		movs	r2, #4
 922 05ea 2000     		movs	r0, r4
 923 05ec FFF7FEFF 		bl	lv_obj_add_style
 924              	.LVL124:
 378:..\..\..\arduinoLCD\test\Pain Drain\libraries\lvgl\src\extra\themes\mono/lv_theme_mono.c ****         lv_obj_add_style(obj, &styles->edit, LV_STATE_EDITED);
 925              		.loc 1 378 0
 926 05f0 2968     		ldr	r1, [r5]
 927 05f2 4031     		adds	r1, r1, #64
 928 05f4 0822     		movs	r2, #8
 929 05f6 2000     		movs	r0, r4
 930 05f8 FFF7FEFF 		bl	lv_obj_add_style
 931              	.LVL125:
 932 05fc C3E1     		b	.L1
 933              	.L19:
ARM GAS  C:\Users\haske\AppData\Local\Temp\ccSAQWsX.s 			page 24


 379:..\..\..\arduinoLCD\test\Pain Drain\libraries\lvgl\src\extra\themes\mono/lv_theme_mono.c ****     }
 380:..\..\..\arduinoLCD\test\Pain Drain\libraries\lvgl\src\extra\themes\mono/lv_theme_mono.c ****     else if(lv_obj_check_type(obj, &lv_dropdownlist_class)) {
 934              		.loc 1 380 0
 935 05fe 5B49     		ldr	r1, .L34+48
 936 0600 2000     		movs	r0, r4
 937 0602 FFF7FEFF 		bl	lv_obj_check_type
 938              	.LVL126:
 939 0606 0028     		cmp	r0, #0
 940 0608 2CD0     		beq	.L20
 381:..\..\..\arduinoLCD\test\Pain Drain\libraries\lvgl\src\extra\themes\mono/lv_theme_mono.c ****         lv_obj_add_style(obj, &styles->card, 0);
 941              		.loc 1 381 0
 942 060a 4D4D     		ldr	r5, .L34+4
 943 060c 2968     		ldr	r1, [r5]
 944 060e 0831     		adds	r1, r1, #8
 945 0610 0022     		movs	r2, #0
 946 0612 2000     		movs	r0, r4
 947 0614 FFF7FEFF 		bl	lv_obj_add_style
 948              	.LVL127:
 382:..\..\..\arduinoLCD\test\Pain Drain\libraries\lvgl\src\extra\themes\mono/lv_theme_mono.c ****         lv_obj_add_style(obj, &styles->large_line_space, 0);
 949              		.loc 1 382 0
 950 0618 2968     		ldr	r1, [r5]
 951 061a 7031     		adds	r1, r1, #112
 952 061c 0022     		movs	r2, #0
 953 061e 2000     		movs	r0, r4
 954 0620 FFF7FEFF 		bl	lv_obj_add_style
 955              	.LVL128:
 383:..\..\..\arduinoLCD\test\Pain Drain\libraries\lvgl\src\extra\themes\mono/lv_theme_mono.c ****         lv_obj_add_style(obj, &styles->scrollbar, LV_PART_SCROLLBAR);
 956              		.loc 1 383 0
 957 0624 2968     		ldr	r1, [r5]
 958 0626 1031     		adds	r1, r1, #16
 959 0628 8022     		movs	r2, #128
 960 062a 5202     		lsls	r2, r2, #9
 961 062c 2000     		movs	r0, r4
 962 062e FFF7FEFF 		bl	lv_obj_add_style
 963              	.LVL129:
 384:..\..\..\arduinoLCD\test\Pain Drain\libraries\lvgl\src\extra\themes\mono/lv_theme_mono.c ****         lv_obj_add_style(obj, &styles->inv, LV_PART_SELECTED | LV_STATE_CHECKED);
 964              		.loc 1 384 0
 965 0632 2968     		ldr	r1, [r5]
 966 0634 2831     		adds	r1, r1, #40
 967 0636 4E4A     		ldr	r2, .L34+52
 968 0638 2000     		movs	r0, r4
 969 063a FFF7FEFF 		bl	lv_obj_add_style
 970              	.LVL130:
 385:..\..\..\arduinoLCD\test\Pain Drain\libraries\lvgl\src\extra\themes\mono/lv_theme_mono.c ****         lv_obj_add_style(obj, &styles->pr, LV_PART_SELECTED | LV_STATE_PRESSED);
 971              		.loc 1 385 0
 972 063e 2968     		ldr	r1, [r5]
 973 0640 2031     		adds	r1, r1, #32
 974 0642 4C4A     		ldr	r2, .L34+56
 975 0644 2000     		movs	r0, r4
 976 0646 FFF7FEFF 		bl	lv_obj_add_style
 977              	.LVL131:
 386:..\..\..\arduinoLCD\test\Pain Drain\libraries\lvgl\src\extra\themes\mono/lv_theme_mono.c ****         lv_obj_add_style(obj, &styles->focus, LV_STATE_FOCUS_KEY);
 978              		.loc 1 386 0
 979 064a 2968     		ldr	r1, [r5]
 980 064c 3831     		adds	r1, r1, #56
 981 064e 0422     		movs	r2, #4
 982 0650 2000     		movs	r0, r4
ARM GAS  C:\Users\haske\AppData\Local\Temp\ccSAQWsX.s 			page 25


 983 0652 FFF7FEFF 		bl	lv_obj_add_style
 984              	.LVL132:
 387:..\..\..\arduinoLCD\test\Pain Drain\libraries\lvgl\src\extra\themes\mono/lv_theme_mono.c ****         lv_obj_add_style(obj, &styles->edit, LV_STATE_EDITED);
 985              		.loc 1 387 0
 986 0656 2968     		ldr	r1, [r5]
 987 0658 4031     		adds	r1, r1, #64
 988 065a 0822     		movs	r2, #8
 989 065c 2000     		movs	r0, r4
 990 065e FFF7FEFF 		bl	lv_obj_add_style
 991              	.LVL133:
 992 0662 90E1     		b	.L1
 993              	.L20:
 388:..\..\..\arduinoLCD\test\Pain Drain\libraries\lvgl\src\extra\themes\mono/lv_theme_mono.c ****     }
 389:..\..\..\arduinoLCD\test\Pain Drain\libraries\lvgl\src\extra\themes\mono/lv_theme_mono.c **** #endif
 390:..\..\..\arduinoLCD\test\Pain Drain\libraries\lvgl\src\extra\themes\mono/lv_theme_mono.c **** 
 391:..\..\..\arduinoLCD\test\Pain Drain\libraries\lvgl\src\extra\themes\mono/lv_theme_mono.c **** #if LV_USE_ARC
 392:..\..\..\arduinoLCD\test\Pain Drain\libraries\lvgl\src\extra\themes\mono/lv_theme_mono.c ****     else if(lv_obj_check_type(obj, &lv_arc_class)) {
 994              		.loc 1 392 0
 995 0664 4449     		ldr	r1, .L34+60
 996 0666 2000     		movs	r0, r4
 997 0668 FFF7FEFF 		bl	lv_obj_check_type
 998              	.LVL134:
 999 066c 0028     		cmp	r0, #0
 1000 066e 2FD0     		beq	.L21
 393:..\..\..\arduinoLCD\test\Pain Drain\libraries\lvgl\src\extra\themes\mono/lv_theme_mono.c ****         lv_obj_add_style(obj, &styles->card, 0);
 1001              		.loc 1 393 0
 1002 0670 334D     		ldr	r5, .L34+4
 1003 0672 2968     		ldr	r1, [r5]
 1004 0674 0831     		adds	r1, r1, #8
 1005 0676 0022     		movs	r2, #0
 1006 0678 2000     		movs	r0, r4
 1007 067a FFF7FEFF 		bl	lv_obj_add_style
 1008              	.LVL135:
 394:..\..\..\arduinoLCD\test\Pain Drain\libraries\lvgl\src\extra\themes\mono/lv_theme_mono.c ****         lv_obj_add_style(obj, &styles->inv, LV_PART_INDICATOR);
 1009              		.loc 1 394 0
 1010 067e 8026     		movs	r6, #128
 1011 0680 B602     		lsls	r6, r6, #10
 1012 0682 2968     		ldr	r1, [r5]
 1013 0684 2831     		adds	r1, r1, #40
 1014 0686 3200     		movs	r2, r6
 1015 0688 2000     		movs	r0, r4
 1016 068a FFF7FEFF 		bl	lv_obj_add_style
 1017              	.LVL136:
 395:..\..\..\arduinoLCD\test\Pain Drain\libraries\lvgl\src\extra\themes\mono/lv_theme_mono.c ****         lv_obj_add_style(obj, &styles->pad_zero, LV_PART_INDICATOR);
 1018              		.loc 1 395 0
 1019 068e 2968     		ldr	r1, [r5]
 1020 0690 5031     		adds	r1, r1, #80
 1021 0692 3200     		movs	r2, r6
 1022 0694 2000     		movs	r0, r4
 1023 0696 FFF7FEFF 		bl	lv_obj_add_style
 1024              	.LVL137:
 396:..\..\..\arduinoLCD\test\Pain Drain\libraries\lvgl\src\extra\themes\mono/lv_theme_mono.c ****         lv_obj_add_style(obj, &styles->card, LV_PART_KNOB);
 1025              		.loc 1 396 0
 1026 069a C026     		movs	r6, #192
 1027 069c B602     		lsls	r6, r6, #10
 1028 069e 2968     		ldr	r1, [r5]
 1029 06a0 0831     		adds	r1, r1, #8
ARM GAS  C:\Users\haske\AppData\Local\Temp\ccSAQWsX.s 			page 26


 1030 06a2 3200     		movs	r2, r6
 1031 06a4 2000     		movs	r0, r4
 1032 06a6 FFF7FEFF 		bl	lv_obj_add_style
 1033              	.LVL138:
 397:..\..\..\arduinoLCD\test\Pain Drain\libraries\lvgl\src\extra\themes\mono/lv_theme_mono.c ****         lv_obj_add_style(obj, &styles->radius_circle, LV_PART_KNOB);
 1034              		.loc 1 397 0
 1035 06aa 2968     		ldr	r1, [r5]
 1036 06ac 6031     		adds	r1, r1, #96
 1037 06ae 3200     		movs	r2, r6
 1038 06b0 2000     		movs	r0, r4
 1039 06b2 FFF7FEFF 		bl	lv_obj_add_style
 1040              	.LVL139:
 398:..\..\..\arduinoLCD\test\Pain Drain\libraries\lvgl\src\extra\themes\mono/lv_theme_mono.c ****         lv_obj_add_style(obj, &styles->focus, LV_STATE_FOCUS_KEY);
 1041              		.loc 1 398 0
 1042 06b6 2968     		ldr	r1, [r5]
 1043 06b8 3831     		adds	r1, r1, #56
 1044 06ba 0422     		movs	r2, #4
 1045 06bc 2000     		movs	r0, r4
 1046 06be FFF7FEFF 		bl	lv_obj_add_style
 1047              	.LVL140:
 399:..\..\..\arduinoLCD\test\Pain Drain\libraries\lvgl\src\extra\themes\mono/lv_theme_mono.c ****         lv_obj_add_style(obj, &styles->edit, LV_STATE_EDITED);
 1048              		.loc 1 399 0
 1049 06c2 2968     		ldr	r1, [r5]
 1050 06c4 4031     		adds	r1, r1, #64
 1051 06c6 0822     		movs	r2, #8
 1052 06c8 2000     		movs	r0, r4
 1053 06ca FFF7FEFF 		bl	lv_obj_add_style
 1054              	.LVL141:
 1055 06ce 5AE1     		b	.L1
 1056              	.L21:
 400:..\..\..\arduinoLCD\test\Pain Drain\libraries\lvgl\src\extra\themes\mono/lv_theme_mono.c ****     }
 401:..\..\..\arduinoLCD\test\Pain Drain\libraries\lvgl\src\extra\themes\mono/lv_theme_mono.c **** #endif
 402:..\..\..\arduinoLCD\test\Pain Drain\libraries\lvgl\src\extra\themes\mono/lv_theme_mono.c **** 
 403:..\..\..\arduinoLCD\test\Pain Drain\libraries\lvgl\src\extra\themes\mono/lv_theme_mono.c **** #if LV_USE_METER
 404:..\..\..\arduinoLCD\test\Pain Drain\libraries\lvgl\src\extra\themes\mono/lv_theme_mono.c ****     else if(lv_obj_check_type(obj, &lv_meter_class)) {
 1057              		.loc 1 404 0
 1058 06d0 2A49     		ldr	r1, .L34+64
 1059 06d2 2000     		movs	r0, r4
 1060 06d4 FFF7FEFF 		bl	lv_obj_check_type
 1061              	.LVL142:
 1062 06d8 0028     		cmp	r0, #0
 1063 06da 07D0     		beq	.L22
 405:..\..\..\arduinoLCD\test\Pain Drain\libraries\lvgl\src\extra\themes\mono/lv_theme_mono.c ****         lv_obj_add_style(obj, &styles->card, 0);
 1064              		.loc 1 405 0
 1065 06dc 184B     		ldr	r3, .L34+4
 1066 06de 1968     		ldr	r1, [r3]
 1067 06e0 0831     		adds	r1, r1, #8
 1068 06e2 0022     		movs	r2, #0
 1069 06e4 2000     		movs	r0, r4
 1070 06e6 FFF7FEFF 		bl	lv_obj_add_style
 1071              	.LVL143:
 1072 06ea 4CE1     		b	.L1
 1073              	.L22:
 406:..\..\..\arduinoLCD\test\Pain Drain\libraries\lvgl\src\extra\themes\mono/lv_theme_mono.c ****     }
 407:..\..\..\arduinoLCD\test\Pain Drain\libraries\lvgl\src\extra\themes\mono/lv_theme_mono.c **** #endif
 408:..\..\..\arduinoLCD\test\Pain Drain\libraries\lvgl\src\extra\themes\mono/lv_theme_mono.c **** 
 409:..\..\..\arduinoLCD\test\Pain Drain\libraries\lvgl\src\extra\themes\mono/lv_theme_mono.c **** #if LV_USE_TEXTAREA
ARM GAS  C:\Users\haske\AppData\Local\Temp\ccSAQWsX.s 			page 27


 410:..\..\..\arduinoLCD\test\Pain Drain\libraries\lvgl\src\extra\themes\mono/lv_theme_mono.c ****     else if(lv_obj_check_type(obj, &lv_textarea_class)) {
 1074              		.loc 1 410 0
 1075 06ec 2449     		ldr	r1, .L34+68
 1076 06ee 2000     		movs	r0, r4
 1077 06f0 FFF7FEFF 		bl	lv_obj_check_type
 1078              	.LVL144:
 1079 06f4 0028     		cmp	r0, #0
 1080 06f6 47D0     		beq	.L23
 411:..\..\..\arduinoLCD\test\Pain Drain\libraries\lvgl\src\extra\themes\mono/lv_theme_mono.c ****         lv_obj_add_style(obj, &styles->card, 0);
 1081              		.loc 1 411 0
 1082 06f8 114D     		ldr	r5, .L34+4
 1083 06fa 2968     		ldr	r1, [r5]
 1084 06fc 0831     		adds	r1, r1, #8
 1085 06fe 0022     		movs	r2, #0
 1086 0700 2000     		movs	r0, r4
 1087 0702 FFF7FEFF 		bl	lv_obj_add_style
 1088              	.LVL145:
 412:..\..\..\arduinoLCD\test\Pain Drain\libraries\lvgl\src\extra\themes\mono/lv_theme_mono.c ****         lv_obj_add_style(obj, &styles->scrollbar, LV_PART_SCROLLBAR);
 1089              		.loc 1 412 0
 1090 0706 2968     		ldr	r1, [r5]
 1091 0708 1031     		adds	r1, r1, #16
 1092 070a 8022     		movs	r2, #128
 1093 070c 5202     		lsls	r2, r2, #9
 1094 070e 2000     		movs	r0, r4
 1095 0710 FFF7FEFF 		bl	lv_obj_add_style
 1096              	.LVL146:
 413:..\..\..\arduinoLCD\test\Pain Drain\libraries\lvgl\src\extra\themes\mono/lv_theme_mono.c ****         lv_obj_add_style(obj, &styles->ta_cursor, LV_PART_CURSOR | LV_STATE_FOCUSED);
 1097              		.loc 1 413 0
 1098 0714 2968     		ldr	r1, [r5]
 1099 0716 8031     		adds	r1, r1, #128
 1100 0718 1A4A     		ldr	r2, .L34+72
 1101 071a 2000     		movs	r0, r4
 1102 071c FFF7FEFF 		bl	lv_obj_add_style
 1103              	.LVL147:
 414:..\..\..\arduinoLCD\test\Pain Drain\libraries\lvgl\src\extra\themes\mono/lv_theme_mono.c ****         lv_obj_add_style(obj, &styles->focus, LV_STATE_FOCUSED);
 1104              		.loc 1 414 0
 1105 0720 2968     		ldr	r1, [r5]
 1106 0722 3831     		adds	r1, r1, #56
 1107 0724 0222     		movs	r2, #2
 1108 0726 2000     		movs	r0, r4
 1109 0728 FFF7FEFF 		bl	lv_obj_add_style
 1110              	.LVL148:
 415:..\..\..\arduinoLCD\test\Pain Drain\libraries\lvgl\src\extra\themes\mono/lv_theme_mono.c ****         lv_obj_add_style(obj, &styles->edit, LV_STATE_EDITED);
 1111              		.loc 1 415 0
 1112 072c 2968     		ldr	r1, [r5]
 1113 072e 4031     		adds	r1, r1, #64
 1114 0730 0822     		movs	r2, #8
 1115 0732 2000     		movs	r0, r4
 1116 0734 FFF7FEFF 		bl	lv_obj_add_style
 1117              	.LVL149:
 1118 0738 25E1     		b	.L1
 1119              	.L35:
 1120 073a C046     		.align	2
 1121              	.L34:
 1122 073c 00000000 		.word	lv_table_class
 1123 0740 00000000 		.word	.LANCHOR0
 1124 0744 20000500 		.word	327712
ARM GAS  C:\Users\haske\AppData\Local\Temp\ccSAQWsX.s 			page 28


 1125 0748 04000500 		.word	327684
 1126 074c 00000000 		.word	lv_checkbox_class
 1127 0750 80000200 		.word	131200
 1128 0754 01000200 		.word	131073
 1129 0758 20000200 		.word	131104
 1130 075c 00000000 		.word	lv_switch_class
 1131 0760 00000000 		.word	lv_chart_class
 1132 0764 00000000 		.word	lv_roller_class
 1133 0768 00000000 		.word	lv_dropdown_class
 1134 076c 00000000 		.word	lv_dropdownlist_class
 1135 0770 01000400 		.word	262145
 1136 0774 20000400 		.word	262176
 1137 0778 00000000 		.word	lv_arc_class
 1138 077c 00000000 		.word	lv_meter_class
 1139 0780 00000000 		.word	lv_textarea_class
 1140 0784 02000700 		.word	458754
 1141              	.L23:
 416:..\..\..\arduinoLCD\test\Pain Drain\libraries\lvgl\src\extra\themes\mono/lv_theme_mono.c ****     }
 417:..\..\..\arduinoLCD\test\Pain Drain\libraries\lvgl\src\extra\themes\mono/lv_theme_mono.c **** #endif
 418:..\..\..\arduinoLCD\test\Pain Drain\libraries\lvgl\src\extra\themes\mono/lv_theme_mono.c **** 
 419:..\..\..\arduinoLCD\test\Pain Drain\libraries\lvgl\src\extra\themes\mono/lv_theme_mono.c **** #if LV_USE_CALENDAR
 420:..\..\..\arduinoLCD\test\Pain Drain\libraries\lvgl\src\extra\themes\mono/lv_theme_mono.c ****     else if(lv_obj_check_type(obj, &lv_calendar_class)) {
 1142              		.loc 1 420 0
 1143 0788 7F49     		ldr	r1, .L36
 1144 078a 2000     		movs	r0, r4
 1145 078c FFF7FEFF 		bl	lv_obj_check_type
 1146              	.LVL150:
 1147 0790 0028     		cmp	r0, #0
 1148 0792 2BD0     		beq	.L24
 421:..\..\..\arduinoLCD\test\Pain Drain\libraries\lvgl\src\extra\themes\mono/lv_theme_mono.c ****         lv_obj_add_style(obj, &styles->card, 0);
 1149              		.loc 1 421 0
 1150 0794 7D4D     		ldr	r5, .L36+4
 1151 0796 2968     		ldr	r1, [r5]
 1152 0798 0831     		adds	r1, r1, #8
 1153 079a 0022     		movs	r2, #0
 1154 079c 2000     		movs	r0, r4
 1155 079e FFF7FEFF 		bl	lv_obj_add_style
 1156              	.LVL151:
 422:..\..\..\arduinoLCD\test\Pain Drain\libraries\lvgl\src\extra\themes\mono/lv_theme_mono.c ****         lv_obj_add_style(obj, &styles->no_radius, 0);
 1157              		.loc 1 422 0
 1158 07a2 2968     		ldr	r1, [r5]
 1159 07a4 5831     		adds	r1, r1, #88
 1160 07a6 0022     		movs	r2, #0
 1161 07a8 2000     		movs	r0, r4
 1162 07aa FFF7FEFF 		bl	lv_obj_add_style
 1163              	.LVL152:
 423:..\..\..\arduinoLCD\test\Pain Drain\libraries\lvgl\src\extra\themes\mono/lv_theme_mono.c ****         lv_obj_add_style(obj, &styles->pr, LV_PART_ITEMS | LV_STATE_PRESSED);
 1164              		.loc 1 423 0
 1165 07ae 2968     		ldr	r1, [r5]
 1166 07b0 2031     		adds	r1, r1, #32
 1167 07b2 774A     		ldr	r2, .L36+8
 1168 07b4 2000     		movs	r0, r4
 1169 07b6 FFF7FEFF 		bl	lv_obj_add_style
 1170              	.LVL153:
 424:..\..\..\arduinoLCD\test\Pain Drain\libraries\lvgl\src\extra\themes\mono/lv_theme_mono.c ****         lv_obj_add_style(obj, &styles->disabled, LV_PART_ITEMS | LV_STATE_DISABLED);
 1171              		.loc 1 424 0
 1172 07ba 2968     		ldr	r1, [r5]
ARM GAS  C:\Users\haske\AppData\Local\Temp\ccSAQWsX.s 			page 29


 1173 07bc 3031     		adds	r1, r1, #48
 1174 07be 754A     		ldr	r2, .L36+12
 1175 07c0 2000     		movs	r0, r4
 1176 07c2 FFF7FEFF 		bl	lv_obj_add_style
 1177              	.LVL154:
 425:..\..\..\arduinoLCD\test\Pain Drain\libraries\lvgl\src\extra\themes\mono/lv_theme_mono.c ****         lv_obj_add_style(obj, &styles->focus, LV_STATE_FOCUS_KEY);
 1178              		.loc 1 425 0
 1179 07c6 2968     		ldr	r1, [r5]
 1180 07c8 3831     		adds	r1, r1, #56
 1181 07ca 0422     		movs	r2, #4
 1182 07cc 2000     		movs	r0, r4
 1183 07ce FFF7FEFF 		bl	lv_obj_add_style
 1184              	.LVL155:
 426:..\..\..\arduinoLCD\test\Pain Drain\libraries\lvgl\src\extra\themes\mono/lv_theme_mono.c ****         lv_obj_add_style(obj, &styles->edit, LV_STATE_EDITED);
 1185              		.loc 1 426 0
 1186 07d2 2968     		ldr	r1, [r5]
 1187 07d4 4031     		adds	r1, r1, #64
 1188 07d6 0822     		movs	r2, #8
 1189 07d8 2000     		movs	r0, r4
 1190 07da FFF7FEFF 		bl	lv_obj_add_style
 1191              	.LVL156:
 427:..\..\..\arduinoLCD\test\Pain Drain\libraries\lvgl\src\extra\themes\mono/lv_theme_mono.c ****         lv_obj_add_style(obj, &styles->large_border, LV_PART_ITEMS | LV_STATE_FOCUS_KEY);
 1192              		.loc 1 427 0
 1193 07de 2968     		ldr	r1, [r5]
 1194 07e0 6831     		adds	r1, r1, #104
 1195 07e2 6D4A     		ldr	r2, .L36+16
 1196 07e4 2000     		movs	r0, r4
 1197 07e6 FFF7FEFF 		bl	lv_obj_add_style
 1198              	.LVL157:
 1199 07ea CCE0     		b	.L1
 1200              	.L24:
 428:..\..\..\arduinoLCD\test\Pain Drain\libraries\lvgl\src\extra\themes\mono/lv_theme_mono.c ****     }
 429:..\..\..\arduinoLCD\test\Pain Drain\libraries\lvgl\src\extra\themes\mono/lv_theme_mono.c **** #endif
 430:..\..\..\arduinoLCD\test\Pain Drain\libraries\lvgl\src\extra\themes\mono/lv_theme_mono.c **** 
 431:..\..\..\arduinoLCD\test\Pain Drain\libraries\lvgl\src\extra\themes\mono/lv_theme_mono.c **** #if LV_USE_KEYBOARD
 432:..\..\..\arduinoLCD\test\Pain Drain\libraries\lvgl\src\extra\themes\mono/lv_theme_mono.c ****     else if(lv_obj_check_type(obj, &lv_keyboard_class)) {
 1201              		.loc 1 432 0
 1202 07ec 6B49     		ldr	r1, .L36+20
 1203 07ee 2000     		movs	r0, r4
 1204 07f0 FFF7FEFF 		bl	lv_obj_check_type
 1205              	.LVL158:
 1206 07f4 0028     		cmp	r0, #0
 1207 07f6 2CD0     		beq	.L25
 433:..\..\..\arduinoLCD\test\Pain Drain\libraries\lvgl\src\extra\themes\mono/lv_theme_mono.c ****         lv_obj_add_style(obj, &styles->card, 0);
 1208              		.loc 1 433 0
 1209 07f8 644D     		ldr	r5, .L36+4
 1210 07fa 2968     		ldr	r1, [r5]
 1211 07fc 0831     		adds	r1, r1, #8
 1212 07fe 0022     		movs	r2, #0
 1213 0800 2000     		movs	r0, r4
 1214 0802 FFF7FEFF 		bl	lv_obj_add_style
 1215              	.LVL159:
 434:..\..\..\arduinoLCD\test\Pain Drain\libraries\lvgl\src\extra\themes\mono/lv_theme_mono.c ****         lv_obj_add_style(obj, &styles->card, LV_PART_ITEMS);
 1216              		.loc 1 434 0
 1217 0806 2968     		ldr	r1, [r5]
 1218 0808 0831     		adds	r1, r1, #8
 1219 080a A022     		movs	r2, #160
ARM GAS  C:\Users\haske\AppData\Local\Temp\ccSAQWsX.s 			page 30


 1220 080c D202     		lsls	r2, r2, #11
 1221 080e 2000     		movs	r0, r4
 1222 0810 FFF7FEFF 		bl	lv_obj_add_style
 1223              	.LVL160:
 435:..\..\..\arduinoLCD\test\Pain Drain\libraries\lvgl\src\extra\themes\mono/lv_theme_mono.c ****         lv_obj_add_style(obj, &styles->pr, LV_PART_ITEMS | LV_STATE_PRESSED);
 1224              		.loc 1 435 0
 1225 0814 2968     		ldr	r1, [r5]
 1226 0816 2031     		adds	r1, r1, #32
 1227 0818 5D4A     		ldr	r2, .L36+8
 1228 081a 2000     		movs	r0, r4
 1229 081c FFF7FEFF 		bl	lv_obj_add_style
 1230              	.LVL161:
 436:..\..\..\arduinoLCD\test\Pain Drain\libraries\lvgl\src\extra\themes\mono/lv_theme_mono.c ****         lv_obj_add_style(obj, &styles->inv, LV_PART_ITEMS | LV_STATE_CHECKED);
 1231              		.loc 1 436 0
 1232 0820 2968     		ldr	r1, [r5]
 1233 0822 2831     		adds	r1, r1, #40
 1234 0824 5E4A     		ldr	r2, .L36+24
 1235 0826 2000     		movs	r0, r4
 1236 0828 FFF7FEFF 		bl	lv_obj_add_style
 1237              	.LVL162:
 437:..\..\..\arduinoLCD\test\Pain Drain\libraries\lvgl\src\extra\themes\mono/lv_theme_mono.c ****         lv_obj_add_style(obj, &styles->focus, LV_STATE_FOCUS_KEY);
 1238              		.loc 1 437 0
 1239 082c 2968     		ldr	r1, [r5]
 1240 082e 3831     		adds	r1, r1, #56
 1241 0830 0422     		movs	r2, #4
 1242 0832 2000     		movs	r0, r4
 1243 0834 FFF7FEFF 		bl	lv_obj_add_style
 1244              	.LVL163:
 438:..\..\..\arduinoLCD\test\Pain Drain\libraries\lvgl\src\extra\themes\mono/lv_theme_mono.c ****         lv_obj_add_style(obj, &styles->edit, LV_STATE_EDITED);
 1245              		.loc 1 438 0
 1246 0838 2968     		ldr	r1, [r5]
 1247 083a 4031     		adds	r1, r1, #64
 1248 083c 0822     		movs	r2, #8
 1249 083e 2000     		movs	r0, r4
 1250 0840 FFF7FEFF 		bl	lv_obj_add_style
 1251              	.LVL164:
 439:..\..\..\arduinoLCD\test\Pain Drain\libraries\lvgl\src\extra\themes\mono/lv_theme_mono.c ****         lv_obj_add_style(obj, &styles->large_border, LV_PART_ITEMS | LV_STATE_EDITED);
 1252              		.loc 1 439 0
 1253 0844 2968     		ldr	r1, [r5]
 1254 0846 6831     		adds	r1, r1, #104
 1255 0848 564A     		ldr	r2, .L36+28
 1256 084a 2000     		movs	r0, r4
 1257 084c FFF7FEFF 		bl	lv_obj_add_style
 1258              	.LVL165:
 1259 0850 99E0     		b	.L1
 1260              	.L25:
 440:..\..\..\arduinoLCD\test\Pain Drain\libraries\lvgl\src\extra\themes\mono/lv_theme_mono.c ****     }
 441:..\..\..\arduinoLCD\test\Pain Drain\libraries\lvgl\src\extra\themes\mono/lv_theme_mono.c **** #endif
 442:..\..\..\arduinoLCD\test\Pain Drain\libraries\lvgl\src\extra\themes\mono/lv_theme_mono.c **** #if LV_USE_LIST
 443:..\..\..\arduinoLCD\test\Pain Drain\libraries\lvgl\src\extra\themes\mono/lv_theme_mono.c ****     else if(lv_obj_check_type(obj, &lv_list_class)) {
 1261              		.loc 1 443 0
 1262 0852 5549     		ldr	r1, .L36+32
 1263 0854 2000     		movs	r0, r4
 1264 0856 FFF7FEFF 		bl	lv_obj_check_type
 1265              	.LVL166:
 1266 085a 0028     		cmp	r0, #0
 1267 085c 0ED0     		beq	.L26
ARM GAS  C:\Users\haske\AppData\Local\Temp\ccSAQWsX.s 			page 31


 444:..\..\..\arduinoLCD\test\Pain Drain\libraries\lvgl\src\extra\themes\mono/lv_theme_mono.c ****         lv_obj_add_style(obj, &styles->card, 0);
 1268              		.loc 1 444 0
 1269 085e 4B4D     		ldr	r5, .L36+4
 1270 0860 2968     		ldr	r1, [r5]
 1271 0862 0831     		adds	r1, r1, #8
 1272 0864 0022     		movs	r2, #0
 1273 0866 2000     		movs	r0, r4
 1274 0868 FFF7FEFF 		bl	lv_obj_add_style
 1275              	.LVL167:
 445:..\..\..\arduinoLCD\test\Pain Drain\libraries\lvgl\src\extra\themes\mono/lv_theme_mono.c ****         lv_obj_add_style(obj, &styles->scrollbar, LV_PART_SCROLLBAR);
 1276              		.loc 1 445 0
 1277 086c 2968     		ldr	r1, [r5]
 1278 086e 1031     		adds	r1, r1, #16
 1279 0870 8022     		movs	r2, #128
 1280 0872 5202     		lsls	r2, r2, #9
 1281 0874 2000     		movs	r0, r4
 1282 0876 FFF7FEFF 		bl	lv_obj_add_style
 1283              	.LVL168:
 446:..\..\..\arduinoLCD\test\Pain Drain\libraries\lvgl\src\extra\themes\mono/lv_theme_mono.c ****         return;
 1284              		.loc 1 446 0
 1285 087a 84E0     		b	.L1
 1286              	.L26:
 447:..\..\..\arduinoLCD\test\Pain Drain\libraries\lvgl\src\extra\themes\mono/lv_theme_mono.c ****     }
 448:..\..\..\arduinoLCD\test\Pain Drain\libraries\lvgl\src\extra\themes\mono/lv_theme_mono.c ****     else if(lv_obj_check_type(obj, &lv_list_text_class)) {
 1287              		.loc 1 448 0
 1288 087c 4B49     		ldr	r1, .L36+36
 1289 087e 2000     		movs	r0, r4
 1290 0880 FFF7FEFF 		bl	lv_obj_check_type
 1291              	.LVL169:
 1292 0884 0028     		cmp	r0, #0
 1293 0886 7ED1     		bne	.L1
 449:..\..\..\arduinoLCD\test\Pain Drain\libraries\lvgl\src\extra\themes\mono/lv_theme_mono.c **** 
 450:..\..\..\arduinoLCD\test\Pain Drain\libraries\lvgl\src\extra\themes\mono/lv_theme_mono.c ****     }
 451:..\..\..\arduinoLCD\test\Pain Drain\libraries\lvgl\src\extra\themes\mono/lv_theme_mono.c ****     else if(lv_obj_check_type(obj, &lv_list_btn_class)) {
 1294              		.loc 1 451 0
 1295 0888 4949     		ldr	r1, .L36+40
 1296 088a 2000     		movs	r0, r4
 1297 088c FFF7FEFF 		bl	lv_obj_check_type
 1298              	.LVL170:
 1299 0890 0028     		cmp	r0, #0
 1300 0892 19D0     		beq	.L27
 452:..\..\..\arduinoLCD\test\Pain Drain\libraries\lvgl\src\extra\themes\mono/lv_theme_mono.c ****         lv_obj_add_style(obj, &styles->card, 0);
 1301              		.loc 1 452 0
 1302 0894 3D4D     		ldr	r5, .L36+4
 1303 0896 2968     		ldr	r1, [r5]
 1304 0898 0831     		adds	r1, r1, #8
 1305 089a 0022     		movs	r2, #0
 1306 089c 2000     		movs	r0, r4
 1307 089e FFF7FEFF 		bl	lv_obj_add_style
 1308              	.LVL171:
 453:..\..\..\arduinoLCD\test\Pain Drain\libraries\lvgl\src\extra\themes\mono/lv_theme_mono.c ****         lv_obj_add_style(obj, &styles->pr, LV_STATE_PRESSED);
 1309              		.loc 1 453 0
 1310 08a2 2968     		ldr	r1, [r5]
 1311 08a4 2031     		adds	r1, r1, #32
 1312 08a6 2022     		movs	r2, #32
 1313 08a8 2000     		movs	r0, r4
 1314 08aa FFF7FEFF 		bl	lv_obj_add_style
ARM GAS  C:\Users\haske\AppData\Local\Temp\ccSAQWsX.s 			page 32


 1315              	.LVL172:
 454:..\..\..\arduinoLCD\test\Pain Drain\libraries\lvgl\src\extra\themes\mono/lv_theme_mono.c ****         lv_obj_add_style(obj, &styles->focus, LV_STATE_FOCUS_KEY);
 1316              		.loc 1 454 0
 1317 08ae 2968     		ldr	r1, [r5]
 1318 08b0 3831     		adds	r1, r1, #56
 1319 08b2 0422     		movs	r2, #4
 1320 08b4 2000     		movs	r0, r4
 1321 08b6 FFF7FEFF 		bl	lv_obj_add_style
 1322              	.LVL173:
 455:..\..\..\arduinoLCD\test\Pain Drain\libraries\lvgl\src\extra\themes\mono/lv_theme_mono.c ****         lv_obj_add_style(obj, &styles->large_border, LV_STATE_EDITED);
 1323              		.loc 1 455 0
 1324 08ba 2968     		ldr	r1, [r5]
 1325 08bc 6831     		adds	r1, r1, #104
 1326 08be 0822     		movs	r2, #8
 1327 08c0 2000     		movs	r0, r4
 1328 08c2 FFF7FEFF 		bl	lv_obj_add_style
 1329              	.LVL174:
 1330 08c6 5EE0     		b	.L1
 1331              	.L27:
 456:..\..\..\arduinoLCD\test\Pain Drain\libraries\lvgl\src\extra\themes\mono/lv_theme_mono.c **** 
 457:..\..\..\arduinoLCD\test\Pain Drain\libraries\lvgl\src\extra\themes\mono/lv_theme_mono.c ****     }
 458:..\..\..\arduinoLCD\test\Pain Drain\libraries\lvgl\src\extra\themes\mono/lv_theme_mono.c **** #endif
 459:..\..\..\arduinoLCD\test\Pain Drain\libraries\lvgl\src\extra\themes\mono/lv_theme_mono.c **** #if LV_USE_MSGBOX
 460:..\..\..\arduinoLCD\test\Pain Drain\libraries\lvgl\src\extra\themes\mono/lv_theme_mono.c ****     else if(lv_obj_check_type(obj, &lv_msgbox_class)) {
 1332              		.loc 1 460 0
 1333 08c8 3A49     		ldr	r1, .L36+44
 1334 08ca 2000     		movs	r0, r4
 1335 08cc FFF7FEFF 		bl	lv_obj_check_type
 1336              	.LVL175:
 1337 08d0 0028     		cmp	r0, #0
 1338 08d2 07D0     		beq	.L28
 461:..\..\..\arduinoLCD\test\Pain Drain\libraries\lvgl\src\extra\themes\mono/lv_theme_mono.c ****         lv_obj_add_style(obj, &styles->card, 0);
 1339              		.loc 1 461 0
 1340 08d4 2D4B     		ldr	r3, .L36+4
 1341 08d6 1968     		ldr	r1, [r3]
 1342 08d8 0831     		adds	r1, r1, #8
 1343 08da 0022     		movs	r2, #0
 1344 08dc 2000     		movs	r0, r4
 1345 08de FFF7FEFF 		bl	lv_obj_add_style
 1346              	.LVL176:
 462:..\..\..\arduinoLCD\test\Pain Drain\libraries\lvgl\src\extra\themes\mono/lv_theme_mono.c ****         return;
 1347              		.loc 1 462 0
 1348 08e2 50E0     		b	.L1
 1349              	.L28:
 463:..\..\..\arduinoLCD\test\Pain Drain\libraries\lvgl\src\extra\themes\mono/lv_theme_mono.c ****     }
 464:..\..\..\arduinoLCD\test\Pain Drain\libraries\lvgl\src\extra\themes\mono/lv_theme_mono.c **** #endif
 465:..\..\..\arduinoLCD\test\Pain Drain\libraries\lvgl\src\extra\themes\mono/lv_theme_mono.c **** #if LV_USE_SPINBOX
 466:..\..\..\arduinoLCD\test\Pain Drain\libraries\lvgl\src\extra\themes\mono/lv_theme_mono.c ****     else if(lv_obj_check_type(obj, &lv_spinbox_class)) {
 1350              		.loc 1 466 0
 1351 08e4 3449     		ldr	r1, .L36+48
 1352 08e6 2000     		movs	r0, r4
 1353 08e8 FFF7FEFF 		bl	lv_obj_check_type
 1354              	.LVL177:
 1355 08ec 0028     		cmp	r0, #0
 1356 08ee 1AD0     		beq	.L29
 467:..\..\..\arduinoLCD\test\Pain Drain\libraries\lvgl\src\extra\themes\mono/lv_theme_mono.c ****         lv_obj_add_style(obj, &styles->card, 0);
 1357              		.loc 1 467 0
ARM GAS  C:\Users\haske\AppData\Local\Temp\ccSAQWsX.s 			page 33


 1358 08f0 264D     		ldr	r5, .L36+4
 1359 08f2 2968     		ldr	r1, [r5]
 1360 08f4 0831     		adds	r1, r1, #8
 1361 08f6 0022     		movs	r2, #0
 1362 08f8 2000     		movs	r0, r4
 1363 08fa FFF7FEFF 		bl	lv_obj_add_style
 1364              	.LVL178:
 468:..\..\..\arduinoLCD\test\Pain Drain\libraries\lvgl\src\extra\themes\mono/lv_theme_mono.c ****         lv_obj_add_style(obj, &styles->inv, LV_PART_CURSOR);
 1365              		.loc 1 468 0
 1366 08fe 2968     		ldr	r1, [r5]
 1367 0900 2831     		adds	r1, r1, #40
 1368 0902 E022     		movs	r2, #224
 1369 0904 D202     		lsls	r2, r2, #11
 1370 0906 2000     		movs	r0, r4
 1371 0908 FFF7FEFF 		bl	lv_obj_add_style
 1372              	.LVL179:
 469:..\..\..\arduinoLCD\test\Pain Drain\libraries\lvgl\src\extra\themes\mono/lv_theme_mono.c ****         lv_obj_add_style(obj, &styles->focus, LV_STATE_FOCUS_KEY);
 1373              		.loc 1 469 0
 1374 090c 2968     		ldr	r1, [r5]
 1375 090e 3831     		adds	r1, r1, #56
 1376 0910 0422     		movs	r2, #4
 1377 0912 2000     		movs	r0, r4
 1378 0914 FFF7FEFF 		bl	lv_obj_add_style
 1379              	.LVL180:
 470:..\..\..\arduinoLCD\test\Pain Drain\libraries\lvgl\src\extra\themes\mono/lv_theme_mono.c ****         lv_obj_add_style(obj, &styles->edit, LV_STATE_EDITED);
 1380              		.loc 1 470 0
 1381 0918 2968     		ldr	r1, [r5]
 1382 091a 4031     		adds	r1, r1, #64
 1383 091c 0822     		movs	r2, #8
 1384 091e 2000     		movs	r0, r4
 1385 0920 FFF7FEFF 		bl	lv_obj_add_style
 1386              	.LVL181:
 1387 0924 2FE0     		b	.L1
 1388              	.L29:
 471:..\..\..\arduinoLCD\test\Pain Drain\libraries\lvgl\src\extra\themes\mono/lv_theme_mono.c ****     }
 472:..\..\..\arduinoLCD\test\Pain Drain\libraries\lvgl\src\extra\themes\mono/lv_theme_mono.c **** #endif
 473:..\..\..\arduinoLCD\test\Pain Drain\libraries\lvgl\src\extra\themes\mono/lv_theme_mono.c **** #if LV_USE_TILEVIEW
 474:..\..\..\arduinoLCD\test\Pain Drain\libraries\lvgl\src\extra\themes\mono/lv_theme_mono.c ****     else if(lv_obj_check_type(obj, &lv_tileview_class)) {
 1389              		.loc 1 474 0
 1390 0926 2549     		ldr	r1, .L36+52
 1391 0928 2000     		movs	r0, r4
 1392 092a FFF7FEFF 		bl	lv_obj_check_type
 1393              	.LVL182:
 1394 092e 0028     		cmp	r0, #0
 1395 0930 0DD0     		beq	.L30
 475:..\..\..\arduinoLCD\test\Pain Drain\libraries\lvgl\src\extra\themes\mono/lv_theme_mono.c ****         lv_obj_add_style(obj, &styles->scr, 0);
 1396              		.loc 1 475 0
 1397 0932 164D     		ldr	r5, .L36+4
 1398 0934 0022     		movs	r2, #0
 1399 0936 2968     		ldr	r1, [r5]
 1400 0938 2000     		movs	r0, r4
 1401 093a FFF7FEFF 		bl	lv_obj_add_style
 1402              	.LVL183:
 476:..\..\..\arduinoLCD\test\Pain Drain\libraries\lvgl\src\extra\themes\mono/lv_theme_mono.c ****         lv_obj_add_style(obj, &styles->scrollbar, LV_PART_SCROLLBAR);
 1403              		.loc 1 476 0
 1404 093e 2968     		ldr	r1, [r5]
 1405 0940 1031     		adds	r1, r1, #16
ARM GAS  C:\Users\haske\AppData\Local\Temp\ccSAQWsX.s 			page 34


 1406 0942 8022     		movs	r2, #128
 1407 0944 5202     		lsls	r2, r2, #9
 1408 0946 2000     		movs	r0, r4
 1409 0948 FFF7FEFF 		bl	lv_obj_add_style
 1410              	.LVL184:
 1411 094c 1BE0     		b	.L1
 1412              	.L30:
 477:..\..\..\arduinoLCD\test\Pain Drain\libraries\lvgl\src\extra\themes\mono/lv_theme_mono.c ****     }
 478:..\..\..\arduinoLCD\test\Pain Drain\libraries\lvgl\src\extra\themes\mono/lv_theme_mono.c ****     else if(lv_obj_check_type(obj, &lv_tileview_tile_class)) {
 1413              		.loc 1 478 0
 1414 094e 1C49     		ldr	r1, .L36+56
 1415 0950 2000     		movs	r0, r4
 1416 0952 FFF7FEFF 		bl	lv_obj_check_type
 1417              	.LVL185:
 1418 0956 0028     		cmp	r0, #0
 1419 0958 08D0     		beq	.L31
 479:..\..\..\arduinoLCD\test\Pain Drain\libraries\lvgl\src\extra\themes\mono/lv_theme_mono.c ****         lv_obj_add_style(obj, &styles->scrollbar, LV_PART_SCROLLBAR);
 1420              		.loc 1 479 0
 1421 095a 0C4B     		ldr	r3, .L36+4
 1422 095c 1968     		ldr	r1, [r3]
 1423 095e 1031     		adds	r1, r1, #16
 1424 0960 8022     		movs	r2, #128
 1425 0962 5202     		lsls	r2, r2, #9
 1426 0964 2000     		movs	r0, r4
 1427 0966 FFF7FEFF 		bl	lv_obj_add_style
 1428              	.LVL186:
 1429 096a 0CE0     		b	.L1
 1430              	.L31:
 480:..\..\..\arduinoLCD\test\Pain Drain\libraries\lvgl\src\extra\themes\mono/lv_theme_mono.c ****     }
 481:..\..\..\arduinoLCD\test\Pain Drain\libraries\lvgl\src\extra\themes\mono/lv_theme_mono.c **** #endif
 482:..\..\..\arduinoLCD\test\Pain Drain\libraries\lvgl\src\extra\themes\mono/lv_theme_mono.c **** 
 483:..\..\..\arduinoLCD\test\Pain Drain\libraries\lvgl\src\extra\themes\mono/lv_theme_mono.c **** #if LV_USE_LED
 484:..\..\..\arduinoLCD\test\Pain Drain\libraries\lvgl\src\extra\themes\mono/lv_theme_mono.c ****     else if(lv_obj_check_type(obj, &lv_led_class)) {
 1431              		.loc 1 484 0
 1432 096c 1549     		ldr	r1, .L36+60
 1433 096e 2000     		movs	r0, r4
 1434 0970 FFF7FEFF 		bl	lv_obj_check_type
 1435              	.LVL187:
 1436 0974 0028     		cmp	r0, #0
 1437 0976 06D0     		beq	.L1
 485:..\..\..\arduinoLCD\test\Pain Drain\libraries\lvgl\src\extra\themes\mono/lv_theme_mono.c ****         lv_obj_add_style(obj, &styles->card, 0);
 1438              		.loc 1 485 0
 1439 0978 044B     		ldr	r3, .L36+4
 1440 097a 1968     		ldr	r1, [r3]
 1441 097c 0831     		adds	r1, r1, #8
 1442 097e 0022     		movs	r2, #0
 1443 0980 2000     		movs	r0, r4
 1444 0982 FFF7FEFF 		bl	lv_obj_add_style
 1445              	.LVL188:
 1446              	.L1:
 486:..\..\..\arduinoLCD\test\Pain Drain\libraries\lvgl\src\extra\themes\mono/lv_theme_mono.c ****     }
 487:..\..\..\arduinoLCD\test\Pain Drain\libraries\lvgl\src\extra\themes\mono/lv_theme_mono.c **** #endif
 488:..\..\..\arduinoLCD\test\Pain Drain\libraries\lvgl\src\extra\themes\mono/lv_theme_mono.c **** }
 1447              		.loc 1 488 0
 1448              		@ sp needed
 1449              	.LVL189:
 1450 0986 70BD     		pop	{r4, r5, r6, pc}
ARM GAS  C:\Users\haske\AppData\Local\Temp\ccSAQWsX.s 			page 35


 1451              	.L37:
 1452              		.align	2
 1453              	.L36:
 1454 0988 00000000 		.word	lv_calendar_class
 1455 098c 00000000 		.word	.LANCHOR0
 1456 0990 20000500 		.word	327712
 1457 0994 80000500 		.word	327808
 1458 0998 04000500 		.word	327684
 1459 099c 00000000 		.word	lv_keyboard_class
 1460 09a0 01000500 		.word	327681
 1461 09a4 08000500 		.word	327688
 1462 09a8 00000000 		.word	lv_list_class
 1463 09ac 00000000 		.word	lv_list_text_class
 1464 09b0 00000000 		.word	lv_list_btn_class
 1465 09b4 00000000 		.word	lv_msgbox_class
 1466 09b8 00000000 		.word	lv_spinbox_class
 1467 09bc 00000000 		.word	lv_tileview_class
 1468 09c0 00000000 		.word	lv_tileview_tile_class
 1469 09c4 00000000 		.word	lv_led_class
 1470              		.cfi_endproc
 1471              	.LFE205:
 1472              		.size	theme_apply, .-theme_apply
 1473              		.section	.text.style_init_reset,"ax",%progbits
 1474              		.align	2
 1475              		.code	16
 1476              		.thumb_func
 1477              		.type	style_init_reset, %function
 1478              	style_init_reset:
 1479              	.LFB206:
 489:..\..\..\arduinoLCD\test\Pain Drain\libraries\lvgl\src\extra\themes\mono/lv_theme_mono.c **** 
 490:..\..\..\arduinoLCD\test\Pain Drain\libraries\lvgl\src\extra\themes\mono/lv_theme_mono.c **** /**********************
 491:..\..\..\arduinoLCD\test\Pain Drain\libraries\lvgl\src\extra\themes\mono/lv_theme_mono.c ****  *   STATIC FUNCTIONS
 492:..\..\..\arduinoLCD\test\Pain Drain\libraries\lvgl\src\extra\themes\mono/lv_theme_mono.c ****  **********************/
 493:..\..\..\arduinoLCD\test\Pain Drain\libraries\lvgl\src\extra\themes\mono/lv_theme_mono.c **** 
 494:..\..\..\arduinoLCD\test\Pain Drain\libraries\lvgl\src\extra\themes\mono/lv_theme_mono.c **** static void style_init_reset(lv_style_t * style)
 495:..\..\..\arduinoLCD\test\Pain Drain\libraries\lvgl\src\extra\themes\mono/lv_theme_mono.c **** {
 1480              		.loc 1 495 0
 1481              		.cfi_startproc
 1482              		@ args = 0, pretend = 0, frame = 0
 1483              		@ frame_needed = 0, uses_anonymous_args = 0
 1484              	.LVL190:
 1485 0000 10B5     		push	{r4, lr}
 1486              		.cfi_def_cfa_offset 8
 1487              		.cfi_offset 4, -8
 1488              		.cfi_offset 14, -4
 496:..\..\..\arduinoLCD\test\Pain Drain\libraries\lvgl\src\extra\themes\mono/lv_theme_mono.c ****     if(inited) {
 1489              		.loc 1 496 0
 1490 0002 054B     		ldr	r3, .L41
 1491 0004 1B79     		ldrb	r3, [r3, #4]
 1492 0006 002B     		cmp	r3, #0
 1493 0008 02D0     		beq	.L39
 497:..\..\..\arduinoLCD\test\Pain Drain\libraries\lvgl\src\extra\themes\mono/lv_theme_mono.c ****         lv_style_reset(style);
 1494              		.loc 1 497 0
 1495 000a FFF7FEFF 		bl	lv_style_reset
 1496              	.LVL191:
 1497 000e 01E0     		b	.L38
 1498              	.LVL192:
ARM GAS  C:\Users\haske\AppData\Local\Temp\ccSAQWsX.s 			page 36


 1499              	.L39:
 498:..\..\..\arduinoLCD\test\Pain Drain\libraries\lvgl\src\extra\themes\mono/lv_theme_mono.c ****     }
 499:..\..\..\arduinoLCD\test\Pain Drain\libraries\lvgl\src\extra\themes\mono/lv_theme_mono.c ****     else {
 500:..\..\..\arduinoLCD\test\Pain Drain\libraries\lvgl\src\extra\themes\mono/lv_theme_mono.c ****         lv_style_init(style);
 1500              		.loc 1 500 0
 1501 0010 FFF7FEFF 		bl	lv_style_init
 1502              	.LVL193:
 1503              	.L38:
 501:..\..\..\arduinoLCD\test\Pain Drain\libraries\lvgl\src\extra\themes\mono/lv_theme_mono.c ****     }
 502:..\..\..\arduinoLCD\test\Pain Drain\libraries\lvgl\src\extra\themes\mono/lv_theme_mono.c **** }
 1504              		.loc 1 502 0
 1505              		@ sp needed
 1506 0014 10BD     		pop	{r4, pc}
 1507              	.L42:
 1508 0016 C046     		.align	2
 1509              	.L41:
 1510 0018 00000000 		.word	.LANCHOR0
 1511              		.cfi_endproc
 1512              	.LFE206:
 1513              		.size	style_init_reset, .-style_init_reset
 1514              		.section	.text.style_init,"ax",%progbits
 1515              		.align	2
 1516              		.code	16
 1517              		.thumb_func
 1518              		.type	style_init, %function
 1519              	style_init:
 1520              	.LFB202:
  78:..\..\..\arduinoLCD\test\Pain Drain\libraries\lvgl\src\extra\themes\mono/lv_theme_mono.c ****     style_init_reset(&styles->scrollbar);
 1521              		.loc 1 78 0
 1522              		.cfi_startproc
 1523              		@ args = 0, pretend = 0, frame = 0
 1524              		@ frame_needed = 0, uses_anonymous_args = 0
 1525              	.LVL194:
 1526 0000 70B5     		push	{r4, r5, r6, lr}
 1527              		.cfi_def_cfa_offset 16
 1528              		.cfi_offset 4, -16
 1529              		.cfi_offset 5, -12
 1530              		.cfi_offset 6, -8
 1531              		.cfi_offset 14, -4
 1532 0002 0500     		movs	r5, r0
 1533 0004 0E00     		movs	r6, r1
  79:..\..\..\arduinoLCD\test\Pain Drain\libraries\lvgl\src\extra\themes\mono/lv_theme_mono.c ****     lv_style_set_bg_opa(&styles->scrollbar, LV_OPA_COVER);
 1534              		.loc 1 79 0
 1535 0006 A44C     		ldr	r4, .L76
 1536 0008 2068     		ldr	r0, [r4]
 1537              	.LVL195:
 1538 000a 1030     		adds	r0, r0, #16
 1539 000c FFF7FEFF 		bl	style_init_reset
 1540              	.LVL196:
  80:..\..\..\arduinoLCD\test\Pain Drain\libraries\lvgl\src\extra\themes\mono/lv_theme_mono.c ****     lv_style_set_bg_color(&styles->scrollbar, COLOR_FG);
 1541              		.loc 1 80 0
 1542 0010 2068     		ldr	r0, [r4]
 1543 0012 1030     		adds	r0, r0, #16
 1544 0014 FF21     		movs	r1, #255
 1545 0016 FFF7FEFF 		bl	lv_style_set_bg_opa
 1546              	.LVL197:
  81:..\..\..\arduinoLCD\test\Pain Drain\libraries\lvgl\src\extra\themes\mono/lv_theme_mono.c ****     lv_style_set_width(&styles->scrollbar,  PAD_DEF);
ARM GAS  C:\Users\haske\AppData\Local\Temp\ccSAQWsX.s 			page 37


 1547              		.loc 1 81 0
 1548 001a 2068     		ldr	r0, [r4]
 1549 001c 1030     		adds	r0, r0, #16
 1550 001e 002D     		cmp	r5, #0
 1551 0020 06D0     		beq	.L44
 1552              	.LVL198:
 1553              	.LBB247:
 1554              	.LBB248:
 1555              	.LBB249:
 1556              		.file 2 "c:\\projects\\paindrain\\arduinolcd\\test\\pain drain\\libraries\\lvgl\\src\\misc\\lv_col
   1:c:\projects\paindrain\arduinolcd\test\pain drain\libraries\lvgl\src\misc\lv_color.h **** /**
   2:c:\projects\paindrain\arduinolcd\test\pain drain\libraries\lvgl\src\misc\lv_color.h ****  * @file lv_color.h
   3:c:\projects\paindrain\arduinolcd\test\pain drain\libraries\lvgl\src\misc\lv_color.h ****  *
   4:c:\projects\paindrain\arduinolcd\test\pain drain\libraries\lvgl\src\misc\lv_color.h ****  */
   5:c:\projects\paindrain\arduinolcd\test\pain drain\libraries\lvgl\src\misc\lv_color.h **** 
   6:c:\projects\paindrain\arduinolcd\test\pain drain\libraries\lvgl\src\misc\lv_color.h **** #ifndef LV_COLOR_H
   7:c:\projects\paindrain\arduinolcd\test\pain drain\libraries\lvgl\src\misc\lv_color.h **** #define LV_COLOR_H
   8:c:\projects\paindrain\arduinolcd\test\pain drain\libraries\lvgl\src\misc\lv_color.h **** 
   9:c:\projects\paindrain\arduinolcd\test\pain drain\libraries\lvgl\src\misc\lv_color.h **** #ifdef __cplusplus
  10:c:\projects\paindrain\arduinolcd\test\pain drain\libraries\lvgl\src\misc\lv_color.h **** extern "C" {
  11:c:\projects\paindrain\arduinolcd\test\pain drain\libraries\lvgl\src\misc\lv_color.h **** #endif
  12:c:\projects\paindrain\arduinolcd\test\pain drain\libraries\lvgl\src\misc\lv_color.h **** 
  13:c:\projects\paindrain\arduinolcd\test\pain drain\libraries\lvgl\src\misc\lv_color.h **** /*********************
  14:c:\projects\paindrain\arduinolcd\test\pain drain\libraries\lvgl\src\misc\lv_color.h ****  *      INCLUDES
  15:c:\projects\paindrain\arduinolcd\test\pain drain\libraries\lvgl\src\misc\lv_color.h ****  *********************/
  16:c:\projects\paindrain\arduinolcd\test\pain drain\libraries\lvgl\src\misc\lv_color.h **** #include "../lv_conf_internal.h"
  17:c:\projects\paindrain\arduinolcd\test\pain drain\libraries\lvgl\src\misc\lv_color.h **** #include "lv_assert.h"
  18:c:\projects\paindrain\arduinolcd\test\pain drain\libraries\lvgl\src\misc\lv_color.h **** #include "lv_math.h"
  19:c:\projects\paindrain\arduinolcd\test\pain drain\libraries\lvgl\src\misc\lv_color.h **** #include "lv_types.h"
  20:c:\projects\paindrain\arduinolcd\test\pain drain\libraries\lvgl\src\misc\lv_color.h **** 
  21:c:\projects\paindrain\arduinolcd\test\pain drain\libraries\lvgl\src\misc\lv_color.h **** /*Error checking*/
  22:c:\projects\paindrain\arduinolcd\test\pain drain\libraries\lvgl\src\misc\lv_color.h **** #if LV_COLOR_DEPTH == 24
  23:c:\projects\paindrain\arduinolcd\test\pain drain\libraries\lvgl\src\misc\lv_color.h **** #error "LV_COLOR_DEPTH 24 is deprecated. Use LV_COLOR_DEPTH 32 instead (lv_conf.h)"
  24:c:\projects\paindrain\arduinolcd\test\pain drain\libraries\lvgl\src\misc\lv_color.h **** #endif
  25:c:\projects\paindrain\arduinolcd\test\pain drain\libraries\lvgl\src\misc\lv_color.h **** 
  26:c:\projects\paindrain\arduinolcd\test\pain drain\libraries\lvgl\src\misc\lv_color.h **** #if LV_COLOR_DEPTH != 16 && LV_COLOR_16_SWAP != 0
  27:c:\projects\paindrain\arduinolcd\test\pain drain\libraries\lvgl\src\misc\lv_color.h **** #error "LV_COLOR_16_SWAP requires LV_COLOR_DEPTH == 16. Set it in lv_conf.h"
  28:c:\projects\paindrain\arduinolcd\test\pain drain\libraries\lvgl\src\misc\lv_color.h **** #endif
  29:c:\projects\paindrain\arduinolcd\test\pain drain\libraries\lvgl\src\misc\lv_color.h **** 
  30:c:\projects\paindrain\arduinolcd\test\pain drain\libraries\lvgl\src\misc\lv_color.h **** #include <stdint.h>
  31:c:\projects\paindrain\arduinolcd\test\pain drain\libraries\lvgl\src\misc\lv_color.h **** 
  32:c:\projects\paindrain\arduinolcd\test\pain drain\libraries\lvgl\src\misc\lv_color.h **** /*********************
  33:c:\projects\paindrain\arduinolcd\test\pain drain\libraries\lvgl\src\misc\lv_color.h ****  *      DEFINES
  34:c:\projects\paindrain\arduinolcd\test\pain drain\libraries\lvgl\src\misc\lv_color.h ****  *********************/
  35:c:\projects\paindrain\arduinolcd\test\pain drain\libraries\lvgl\src\misc\lv_color.h **** LV_EXPORT_CONST_INT(LV_COLOR_DEPTH);
  36:c:\projects\paindrain\arduinolcd\test\pain drain\libraries\lvgl\src\misc\lv_color.h **** LV_EXPORT_CONST_INT(LV_COLOR_16_SWAP);
  37:c:\projects\paindrain\arduinolcd\test\pain drain\libraries\lvgl\src\misc\lv_color.h **** 
  38:c:\projects\paindrain\arduinolcd\test\pain drain\libraries\lvgl\src\misc\lv_color.h **** /**
  39:c:\projects\paindrain\arduinolcd\test\pain drain\libraries\lvgl\src\misc\lv_color.h ****  * Opacity percentages.
  40:c:\projects\paindrain\arduinolcd\test\pain drain\libraries\lvgl\src\misc\lv_color.h ****  */
  41:c:\projects\paindrain\arduinolcd\test\pain drain\libraries\lvgl\src\misc\lv_color.h **** enum {
  42:c:\projects\paindrain\arduinolcd\test\pain drain\libraries\lvgl\src\misc\lv_color.h ****     LV_OPA_TRANSP = 0,
  43:c:\projects\paindrain\arduinolcd\test\pain drain\libraries\lvgl\src\misc\lv_color.h ****     LV_OPA_0      = 0,
  44:c:\projects\paindrain\arduinolcd\test\pain drain\libraries\lvgl\src\misc\lv_color.h ****     LV_OPA_10     = 25,
  45:c:\projects\paindrain\arduinolcd\test\pain drain\libraries\lvgl\src\misc\lv_color.h ****     LV_OPA_20     = 51,
  46:c:\projects\paindrain\arduinolcd\test\pain drain\libraries\lvgl\src\misc\lv_color.h ****     LV_OPA_30     = 76,
  47:c:\projects\paindrain\arduinolcd\test\pain drain\libraries\lvgl\src\misc\lv_color.h ****     LV_OPA_40     = 102,
ARM GAS  C:\Users\haske\AppData\Local\Temp\ccSAQWsX.s 			page 38


  48:c:\projects\paindrain\arduinolcd\test\pain drain\libraries\lvgl\src\misc\lv_color.h ****     LV_OPA_50     = 127,
  49:c:\projects\paindrain\arduinolcd\test\pain drain\libraries\lvgl\src\misc\lv_color.h ****     LV_OPA_60     = 153,
  50:c:\projects\paindrain\arduinolcd\test\pain drain\libraries\lvgl\src\misc\lv_color.h ****     LV_OPA_70     = 178,
  51:c:\projects\paindrain\arduinolcd\test\pain drain\libraries\lvgl\src\misc\lv_color.h ****     LV_OPA_80     = 204,
  52:c:\projects\paindrain\arduinolcd\test\pain drain\libraries\lvgl\src\misc\lv_color.h ****     LV_OPA_90     = 229,
  53:c:\projects\paindrain\arduinolcd\test\pain drain\libraries\lvgl\src\misc\lv_color.h ****     LV_OPA_100    = 255,
  54:c:\projects\paindrain\arduinolcd\test\pain drain\libraries\lvgl\src\misc\lv_color.h ****     LV_OPA_COVER  = 255,
  55:c:\projects\paindrain\arduinolcd\test\pain drain\libraries\lvgl\src\misc\lv_color.h **** };
  56:c:\projects\paindrain\arduinolcd\test\pain drain\libraries\lvgl\src\misc\lv_color.h **** 
  57:c:\projects\paindrain\arduinolcd\test\pain drain\libraries\lvgl\src\misc\lv_color.h **** #define LV_OPA_MIN 2    /*Opacities below this will be transparent*/
  58:c:\projects\paindrain\arduinolcd\test\pain drain\libraries\lvgl\src\misc\lv_color.h **** #define LV_OPA_MAX 253  /*Opacities above this will fully cover*/
  59:c:\projects\paindrain\arduinolcd\test\pain drain\libraries\lvgl\src\misc\lv_color.h **** 
  60:c:\projects\paindrain\arduinolcd\test\pain drain\libraries\lvgl\src\misc\lv_color.h **** #if LV_COLOR_DEPTH == 1
  61:c:\projects\paindrain\arduinolcd\test\pain drain\libraries\lvgl\src\misc\lv_color.h **** #define LV_COLOR_SIZE 8
  62:c:\projects\paindrain\arduinolcd\test\pain drain\libraries\lvgl\src\misc\lv_color.h **** #elif LV_COLOR_DEPTH == 8
  63:c:\projects\paindrain\arduinolcd\test\pain drain\libraries\lvgl\src\misc\lv_color.h **** #define LV_COLOR_SIZE 8
  64:c:\projects\paindrain\arduinolcd\test\pain drain\libraries\lvgl\src\misc\lv_color.h **** #elif LV_COLOR_DEPTH == 16
  65:c:\projects\paindrain\arduinolcd\test\pain drain\libraries\lvgl\src\misc\lv_color.h **** #define LV_COLOR_SIZE 16
  66:c:\projects\paindrain\arduinolcd\test\pain drain\libraries\lvgl\src\misc\lv_color.h **** #elif LV_COLOR_DEPTH == 32
  67:c:\projects\paindrain\arduinolcd\test\pain drain\libraries\lvgl\src\misc\lv_color.h **** #define LV_COLOR_SIZE 32
  68:c:\projects\paindrain\arduinolcd\test\pain drain\libraries\lvgl\src\misc\lv_color.h **** #else
  69:c:\projects\paindrain\arduinolcd\test\pain drain\libraries\lvgl\src\misc\lv_color.h **** #error "Invalid LV_COLOR_DEPTH in lv_conf.h! Set it to 1, 8, 16 or 32!"
  70:c:\projects\paindrain\arduinolcd\test\pain drain\libraries\lvgl\src\misc\lv_color.h **** #endif
  71:c:\projects\paindrain\arduinolcd\test\pain drain\libraries\lvgl\src\misc\lv_color.h **** 
  72:c:\projects\paindrain\arduinolcd\test\pain drain\libraries\lvgl\src\misc\lv_color.h **** #if defined(__cplusplus) && !defined(_LV_COLOR_HAS_MODERN_CPP)
  73:c:\projects\paindrain\arduinolcd\test\pain drain\libraries\lvgl\src\misc\lv_color.h **** /**
  74:c:\projects\paindrain\arduinolcd\test\pain drain\libraries\lvgl\src\misc\lv_color.h **** * MSVC compiler's definition of the __cplusplus indicating 199711L regardless to C++ standard versi
  75:c:\projects\paindrain\arduinolcd\test\pain drain\libraries\lvgl\src\misc\lv_color.h **** * see https://devblogs.microsoft.com/cppblog/msvc-now-correctly-reports-cplusplus
  76:c:\projects\paindrain\arduinolcd\test\pain drain\libraries\lvgl\src\misc\lv_color.h **** * so we use _MSC_VER macro instead of __cplusplus
  77:c:\projects\paindrain\arduinolcd\test\pain drain\libraries\lvgl\src\misc\lv_color.h **** */
  78:c:\projects\paindrain\arduinolcd\test\pain drain\libraries\lvgl\src\misc\lv_color.h **** #ifdef _MSC_VER
  79:c:\projects\paindrain\arduinolcd\test\pain drain\libraries\lvgl\src\misc\lv_color.h **** #if _MSC_VER >= 1900 /*Visual Studio 2015*/
  80:c:\projects\paindrain\arduinolcd\test\pain drain\libraries\lvgl\src\misc\lv_color.h **** #define _LV_COLOR_HAS_MODERN_CPP 1
  81:c:\projects\paindrain\arduinolcd\test\pain drain\libraries\lvgl\src\misc\lv_color.h **** #endif
  82:c:\projects\paindrain\arduinolcd\test\pain drain\libraries\lvgl\src\misc\lv_color.h **** #else
  83:c:\projects\paindrain\arduinolcd\test\pain drain\libraries\lvgl\src\misc\lv_color.h **** #if __cplusplus >= 201103L
  84:c:\projects\paindrain\arduinolcd\test\pain drain\libraries\lvgl\src\misc\lv_color.h **** #define _LV_COLOR_HAS_MODERN_CPP 1
  85:c:\projects\paindrain\arduinolcd\test\pain drain\libraries\lvgl\src\misc\lv_color.h **** #endif
  86:c:\projects\paindrain\arduinolcd\test\pain drain\libraries\lvgl\src\misc\lv_color.h **** #endif
  87:c:\projects\paindrain\arduinolcd\test\pain drain\libraries\lvgl\src\misc\lv_color.h **** #endif /*__cplusplus*/
  88:c:\projects\paindrain\arduinolcd\test\pain drain\libraries\lvgl\src\misc\lv_color.h **** 
  89:c:\projects\paindrain\arduinolcd\test\pain drain\libraries\lvgl\src\misc\lv_color.h **** #ifndef _LV_COLOR_HAS_MODERN_CPP
  90:c:\projects\paindrain\arduinolcd\test\pain drain\libraries\lvgl\src\misc\lv_color.h **** #define _LV_COLOR_HAS_MODERN_CPP 0
  91:c:\projects\paindrain\arduinolcd\test\pain drain\libraries\lvgl\src\misc\lv_color.h **** #endif
  92:c:\projects\paindrain\arduinolcd\test\pain drain\libraries\lvgl\src\misc\lv_color.h **** 
  93:c:\projects\paindrain\arduinolcd\test\pain drain\libraries\lvgl\src\misc\lv_color.h **** #if _LV_COLOR_HAS_MODERN_CPP
  94:c:\projects\paindrain\arduinolcd\test\pain drain\libraries\lvgl\src\misc\lv_color.h **** /*Fix msvc compiler error C4576 inside C++ code*/
  95:c:\projects\paindrain\arduinolcd\test\pain drain\libraries\lvgl\src\misc\lv_color.h **** #define _LV_COLOR_MAKE_TYPE_HELPER lv_color_t
  96:c:\projects\paindrain\arduinolcd\test\pain drain\libraries\lvgl\src\misc\lv_color.h **** #else
  97:c:\projects\paindrain\arduinolcd\test\pain drain\libraries\lvgl\src\misc\lv_color.h **** #define _LV_COLOR_MAKE_TYPE_HELPER (lv_color_t)
  98:c:\projects\paindrain\arduinolcd\test\pain drain\libraries\lvgl\src\misc\lv_color.h **** #endif
  99:c:\projects\paindrain\arduinolcd\test\pain drain\libraries\lvgl\src\misc\lv_color.h **** 
 100:c:\projects\paindrain\arduinolcd\test\pain drain\libraries\lvgl\src\misc\lv_color.h **** /*---------------------------------------
 101:c:\projects\paindrain\arduinolcd\test\pain drain\libraries\lvgl\src\misc\lv_color.h ****  * Macros for all existing color depths
 102:c:\projects\paindrain\arduinolcd\test\pain drain\libraries\lvgl\src\misc\lv_color.h ****  * to set/get values of the color channels
 103:c:\projects\paindrain\arduinolcd\test\pain drain\libraries\lvgl\src\misc\lv_color.h ****  *------------------------------------------*/
 104:c:\projects\paindrain\arduinolcd\test\pain drain\libraries\lvgl\src\misc\lv_color.h **** # define LV_COLOR_SET_R1(c, v) (c).ch.red = (uint8_t)((v) & 0x1)
ARM GAS  C:\Users\haske\AppData\Local\Temp\ccSAQWsX.s 			page 39


 105:c:\projects\paindrain\arduinolcd\test\pain drain\libraries\lvgl\src\misc\lv_color.h **** # define LV_COLOR_SET_G1(c, v) (c).ch.green = (uint8_t)((v) & 0x1)
 106:c:\projects\paindrain\arduinolcd\test\pain drain\libraries\lvgl\src\misc\lv_color.h **** # define LV_COLOR_SET_B1(c, v) (c).ch.blue = (uint8_t)((v) & 0x1)
 107:c:\projects\paindrain\arduinolcd\test\pain drain\libraries\lvgl\src\misc\lv_color.h **** # define LV_COLOR_SET_A1(c, v) do {} while(0)
 108:c:\projects\paindrain\arduinolcd\test\pain drain\libraries\lvgl\src\misc\lv_color.h **** 
 109:c:\projects\paindrain\arduinolcd\test\pain drain\libraries\lvgl\src\misc\lv_color.h **** # define LV_COLOR_GET_R1(c) (c).ch.red
 110:c:\projects\paindrain\arduinolcd\test\pain drain\libraries\lvgl\src\misc\lv_color.h **** # define LV_COLOR_GET_G1(c) (c).ch.green
 111:c:\projects\paindrain\arduinolcd\test\pain drain\libraries\lvgl\src\misc\lv_color.h **** # define LV_COLOR_GET_B1(c) (c).ch.blue
 112:c:\projects\paindrain\arduinolcd\test\pain drain\libraries\lvgl\src\misc\lv_color.h **** # define LV_COLOR_GET_A1(c) 0xFF
 113:c:\projects\paindrain\arduinolcd\test\pain drain\libraries\lvgl\src\misc\lv_color.h **** 
 114:c:\projects\paindrain\arduinolcd\test\pain drain\libraries\lvgl\src\misc\lv_color.h **** # define _LV_COLOR_ZERO_INITIALIZER1 {0x00}
 115:c:\projects\paindrain\arduinolcd\test\pain drain\libraries\lvgl\src\misc\lv_color.h **** # define LV_COLOR_MAKE1(r8, g8, b8)  {(uint8_t)((b8 >> 7) | (g8 >> 7) | (r8 >> 7))}
 116:c:\projects\paindrain\arduinolcd\test\pain drain\libraries\lvgl\src\misc\lv_color.h **** 
 117:c:\projects\paindrain\arduinolcd\test\pain drain\libraries\lvgl\src\misc\lv_color.h **** # define LV_COLOR_SET_R8(c, v) (c).ch.red = (uint8_t)((v) & 0x7U)
 118:c:\projects\paindrain\arduinolcd\test\pain drain\libraries\lvgl\src\misc\lv_color.h **** # define LV_COLOR_SET_G8(c, v) (c).ch.green = (uint8_t)((v) & 0x7U)
 119:c:\projects\paindrain\arduinolcd\test\pain drain\libraries\lvgl\src\misc\lv_color.h **** # define LV_COLOR_SET_B8(c, v) (c).ch.blue = (uint8_t)((v) & 0x3U)
 120:c:\projects\paindrain\arduinolcd\test\pain drain\libraries\lvgl\src\misc\lv_color.h **** # define LV_COLOR_SET_A8(c, v) do {} while(0)
 121:c:\projects\paindrain\arduinolcd\test\pain drain\libraries\lvgl\src\misc\lv_color.h **** 
 122:c:\projects\paindrain\arduinolcd\test\pain drain\libraries\lvgl\src\misc\lv_color.h **** # define LV_COLOR_GET_R8(c) (c).ch.red
 123:c:\projects\paindrain\arduinolcd\test\pain drain\libraries\lvgl\src\misc\lv_color.h **** # define LV_COLOR_GET_G8(c) (c).ch.green
 124:c:\projects\paindrain\arduinolcd\test\pain drain\libraries\lvgl\src\misc\lv_color.h **** # define LV_COLOR_GET_B8(c) (c).ch.blue
 125:c:\projects\paindrain\arduinolcd\test\pain drain\libraries\lvgl\src\misc\lv_color.h **** # define LV_COLOR_GET_A8(c) 0xFF
 126:c:\projects\paindrain\arduinolcd\test\pain drain\libraries\lvgl\src\misc\lv_color.h **** 
 127:c:\projects\paindrain\arduinolcd\test\pain drain\libraries\lvgl\src\misc\lv_color.h **** # define _LV_COLOR_ZERO_INITIALIZER8 {{0x00, 0x00, 0x00}}
 128:c:\projects\paindrain\arduinolcd\test\pain drain\libraries\lvgl\src\misc\lv_color.h **** # define LV_COLOR_MAKE8(r8, g8, b8) {{(uint8_t)((b8 >> 6) & 0x3U), (uint8_t)((g8 >> 5) & 0x7U), (ui
 129:c:\projects\paindrain\arduinolcd\test\pain drain\libraries\lvgl\src\misc\lv_color.h **** 
 130:c:\projects\paindrain\arduinolcd\test\pain drain\libraries\lvgl\src\misc\lv_color.h **** # define LV_COLOR_SET_R16(c, v) (c).ch.red = (uint8_t)((v) & 0x1FU)
 131:c:\projects\paindrain\arduinolcd\test\pain drain\libraries\lvgl\src\misc\lv_color.h **** #if LV_COLOR_16_SWAP == 0
 132:c:\projects\paindrain\arduinolcd\test\pain drain\libraries\lvgl\src\misc\lv_color.h **** # define LV_COLOR_SET_G16(c, v) (c).ch.green = (uint8_t)((v) & 0x3FU)
 133:c:\projects\paindrain\arduinolcd\test\pain drain\libraries\lvgl\src\misc\lv_color.h **** #else
 134:c:\projects\paindrain\arduinolcd\test\pain drain\libraries\lvgl\src\misc\lv_color.h **** # define LV_COLOR_SET_G16(c, v) {(c).ch.green_h = (uint8_t)(((v) >> 3) & 0x7); (c).ch.green_l = (ui
 135:c:\projects\paindrain\arduinolcd\test\pain drain\libraries\lvgl\src\misc\lv_color.h **** #endif
 136:c:\projects\paindrain\arduinolcd\test\pain drain\libraries\lvgl\src\misc\lv_color.h **** # define LV_COLOR_SET_B16(c, v) (c).ch.blue = (uint8_t)((v) & 0x1FU)
 137:c:\projects\paindrain\arduinolcd\test\pain drain\libraries\lvgl\src\misc\lv_color.h **** # define LV_COLOR_SET_A16(c, v) do {} while(0)
 138:c:\projects\paindrain\arduinolcd\test\pain drain\libraries\lvgl\src\misc\lv_color.h **** 
 139:c:\projects\paindrain\arduinolcd\test\pain drain\libraries\lvgl\src\misc\lv_color.h **** # define LV_COLOR_GET_R16(c) (c).ch.red
 140:c:\projects\paindrain\arduinolcd\test\pain drain\libraries\lvgl\src\misc\lv_color.h **** #if LV_COLOR_16_SWAP == 0
 141:c:\projects\paindrain\arduinolcd\test\pain drain\libraries\lvgl\src\misc\lv_color.h **** # define LV_COLOR_GET_G16(c) (c).ch.green
 142:c:\projects\paindrain\arduinolcd\test\pain drain\libraries\lvgl\src\misc\lv_color.h **** #else
 143:c:\projects\paindrain\arduinolcd\test\pain drain\libraries\lvgl\src\misc\lv_color.h **** # define LV_COLOR_GET_G16(c) (((c).ch.green_h << 3) + (c).ch.green_l)
 144:c:\projects\paindrain\arduinolcd\test\pain drain\libraries\lvgl\src\misc\lv_color.h **** #endif
 145:c:\projects\paindrain\arduinolcd\test\pain drain\libraries\lvgl\src\misc\lv_color.h **** # define LV_COLOR_GET_B16(c) (c).ch.blue
 146:c:\projects\paindrain\arduinolcd\test\pain drain\libraries\lvgl\src\misc\lv_color.h **** # define LV_COLOR_GET_A16(c) 0xFF
 147:c:\projects\paindrain\arduinolcd\test\pain drain\libraries\lvgl\src\misc\lv_color.h **** 
 148:c:\projects\paindrain\arduinolcd\test\pain drain\libraries\lvgl\src\misc\lv_color.h **** #if LV_COLOR_16_SWAP == 0
 149:c:\projects\paindrain\arduinolcd\test\pain drain\libraries\lvgl\src\misc\lv_color.h **** # define _LV_COLOR_ZERO_INITIALIZER16  {{0x00, 0x00, 0x00}}
 150:c:\projects\paindrain\arduinolcd\test\pain drain\libraries\lvgl\src\misc\lv_color.h **** # define LV_COLOR_MAKE16(r8, g8, b8) {{(uint8_t)((b8 >> 3) & 0x1FU), (uint8_t)((g8 >> 2) & 0x3FU), 
 151:c:\projects\paindrain\arduinolcd\test\pain drain\libraries\lvgl\src\misc\lv_color.h **** #else
 152:c:\projects\paindrain\arduinolcd\test\pain drain\libraries\lvgl\src\misc\lv_color.h **** # define _LV_COLOR_ZERO_INITIALIZER16 {{0x00, 0x00, 0x00, 0x00}}
 153:c:\projects\paindrain\arduinolcd\test\pain drain\libraries\lvgl\src\misc\lv_color.h **** # define LV_COLOR_MAKE16(r8, g8, b8) {{(uint8_t)((g8 >> 5) & 0x7U), (uint8_t)((r8 >> 3) & 0x1FU), (
 154:c:\projects\paindrain\arduinolcd\test\pain drain\libraries\lvgl\src\misc\lv_color.h **** #endif
 155:c:\projects\paindrain\arduinolcd\test\pain drain\libraries\lvgl\src\misc\lv_color.h **** 
 156:c:\projects\paindrain\arduinolcd\test\pain drain\libraries\lvgl\src\misc\lv_color.h **** # define LV_COLOR_SET_R32(c, v) (c).ch.red = (uint8_t)((v) & 0xFF)
 157:c:\projects\paindrain\arduinolcd\test\pain drain\libraries\lvgl\src\misc\lv_color.h **** # define LV_COLOR_SET_G32(c, v) (c).ch.green = (uint8_t)((v) & 0xFF)
 158:c:\projects\paindrain\arduinolcd\test\pain drain\libraries\lvgl\src\misc\lv_color.h **** # define LV_COLOR_SET_B32(c, v) (c).ch.blue = (uint8_t)((v) & 0xFF)
 159:c:\projects\paindrain\arduinolcd\test\pain drain\libraries\lvgl\src\misc\lv_color.h **** # define LV_COLOR_SET_A32(c, v) (c).ch.alpha = (uint8_t)((v) & 0xFF)
 160:c:\projects\paindrain\arduinolcd\test\pain drain\libraries\lvgl\src\misc\lv_color.h **** 
 161:c:\projects\paindrain\arduinolcd\test\pain drain\libraries\lvgl\src\misc\lv_color.h **** # define LV_COLOR_GET_R32(c) (c).ch.red
ARM GAS  C:\Users\haske\AppData\Local\Temp\ccSAQWsX.s 			page 40


 162:c:\projects\paindrain\arduinolcd\test\pain drain\libraries\lvgl\src\misc\lv_color.h **** # define LV_COLOR_GET_G32(c) (c).ch.green
 163:c:\projects\paindrain\arduinolcd\test\pain drain\libraries\lvgl\src\misc\lv_color.h **** # define LV_COLOR_GET_B32(c) (c).ch.blue
 164:c:\projects\paindrain\arduinolcd\test\pain drain\libraries\lvgl\src\misc\lv_color.h **** # define LV_COLOR_GET_A32(c) (c).ch.alpha
 165:c:\projects\paindrain\arduinolcd\test\pain drain\libraries\lvgl\src\misc\lv_color.h **** 
 166:c:\projects\paindrain\arduinolcd\test\pain drain\libraries\lvgl\src\misc\lv_color.h **** # define _LV_COLOR_ZERO_INITIALIZER32  {{0x00, 0x00, 0x00, 0x00}}
 167:c:\projects\paindrain\arduinolcd\test\pain drain\libraries\lvgl\src\misc\lv_color.h **** # define LV_COLOR_MAKE32(r8, g8, b8) {{b8, g8, r8, 0xff}} /*Fix 0xff alpha*/
 168:c:\projects\paindrain\arduinolcd\test\pain drain\libraries\lvgl\src\misc\lv_color.h **** 
 169:c:\projects\paindrain\arduinolcd\test\pain drain\libraries\lvgl\src\misc\lv_color.h **** /*---------------------------------------
 170:c:\projects\paindrain\arduinolcd\test\pain drain\libraries\lvgl\src\misc\lv_color.h ****  * Macros for the current color depth
 171:c:\projects\paindrain\arduinolcd\test\pain drain\libraries\lvgl\src\misc\lv_color.h ****  * to set/get values of the color channels
 172:c:\projects\paindrain\arduinolcd\test\pain drain\libraries\lvgl\src\misc\lv_color.h ****  *------------------------------------------*/
 173:c:\projects\paindrain\arduinolcd\test\pain drain\libraries\lvgl\src\misc\lv_color.h **** #define LV_COLOR_SET_R(c, v) LV_CONCAT(LV_COLOR_SET_R, LV_COLOR_DEPTH)(c, v)
 174:c:\projects\paindrain\arduinolcd\test\pain drain\libraries\lvgl\src\misc\lv_color.h **** #define LV_COLOR_SET_G(c, v) LV_CONCAT(LV_COLOR_SET_G, LV_COLOR_DEPTH)(c, v)
 175:c:\projects\paindrain\arduinolcd\test\pain drain\libraries\lvgl\src\misc\lv_color.h **** #define LV_COLOR_SET_B(c, v) LV_CONCAT(LV_COLOR_SET_B, LV_COLOR_DEPTH)(c, v)
 176:c:\projects\paindrain\arduinolcd\test\pain drain\libraries\lvgl\src\misc\lv_color.h **** #define LV_COLOR_SET_A(c, v) LV_CONCAT(LV_COLOR_SET_A, LV_COLOR_DEPTH)(c, v)
 177:c:\projects\paindrain\arduinolcd\test\pain drain\libraries\lvgl\src\misc\lv_color.h **** 
 178:c:\projects\paindrain\arduinolcd\test\pain drain\libraries\lvgl\src\misc\lv_color.h **** #define LV_COLOR_GET_R(c) LV_CONCAT(LV_COLOR_GET_R, LV_COLOR_DEPTH)(c)
 179:c:\projects\paindrain\arduinolcd\test\pain drain\libraries\lvgl\src\misc\lv_color.h **** #define LV_COLOR_GET_G(c) LV_CONCAT(LV_COLOR_GET_G, LV_COLOR_DEPTH)(c)
 180:c:\projects\paindrain\arduinolcd\test\pain drain\libraries\lvgl\src\misc\lv_color.h **** #define LV_COLOR_GET_B(c) LV_CONCAT(LV_COLOR_GET_B, LV_COLOR_DEPTH)(c)
 181:c:\projects\paindrain\arduinolcd\test\pain drain\libraries\lvgl\src\misc\lv_color.h **** #define LV_COLOR_GET_A(c) LV_CONCAT(LV_COLOR_GET_A, LV_COLOR_DEPTH)(c)
 182:c:\projects\paindrain\arduinolcd\test\pain drain\libraries\lvgl\src\misc\lv_color.h **** 
 183:c:\projects\paindrain\arduinolcd\test\pain drain\libraries\lvgl\src\misc\lv_color.h **** #define _LV_COLOR_ZERO_INITIALIZER LV_CONCAT(_LV_COLOR_ZERO_INITIALIZER, LV_COLOR_DEPTH)
 184:c:\projects\paindrain\arduinolcd\test\pain drain\libraries\lvgl\src\misc\lv_color.h **** #define LV_COLOR_MAKE(r8, g8, b8) LV_CONCAT(LV_COLOR_MAKE, LV_COLOR_DEPTH)(r8, g8, b8)
 185:c:\projects\paindrain\arduinolcd\test\pain drain\libraries\lvgl\src\misc\lv_color.h **** 
 186:c:\projects\paindrain\arduinolcd\test\pain drain\libraries\lvgl\src\misc\lv_color.h **** /**********************
 187:c:\projects\paindrain\arduinolcd\test\pain drain\libraries\lvgl\src\misc\lv_color.h ****  *      TYPEDEFS
 188:c:\projects\paindrain\arduinolcd\test\pain drain\libraries\lvgl\src\misc\lv_color.h ****  **********************/
 189:c:\projects\paindrain\arduinolcd\test\pain drain\libraries\lvgl\src\misc\lv_color.h **** 
 190:c:\projects\paindrain\arduinolcd\test\pain drain\libraries\lvgl\src\misc\lv_color.h **** typedef union {
 191:c:\projects\paindrain\arduinolcd\test\pain drain\libraries\lvgl\src\misc\lv_color.h ****     uint8_t full; /*must be declared first to set all bits of byte via initializer list*/
 192:c:\projects\paindrain\arduinolcd\test\pain drain\libraries\lvgl\src\misc\lv_color.h ****     union {
 193:c:\projects\paindrain\arduinolcd\test\pain drain\libraries\lvgl\src\misc\lv_color.h ****         uint8_t blue : 1;
 194:c:\projects\paindrain\arduinolcd\test\pain drain\libraries\lvgl\src\misc\lv_color.h ****         uint8_t green : 1;
 195:c:\projects\paindrain\arduinolcd\test\pain drain\libraries\lvgl\src\misc\lv_color.h ****         uint8_t red : 1;
 196:c:\projects\paindrain\arduinolcd\test\pain drain\libraries\lvgl\src\misc\lv_color.h ****     } ch;
 197:c:\projects\paindrain\arduinolcd\test\pain drain\libraries\lvgl\src\misc\lv_color.h **** } lv_color1_t;
 198:c:\projects\paindrain\arduinolcd\test\pain drain\libraries\lvgl\src\misc\lv_color.h **** 
 199:c:\projects\paindrain\arduinolcd\test\pain drain\libraries\lvgl\src\misc\lv_color.h **** typedef union {
 200:c:\projects\paindrain\arduinolcd\test\pain drain\libraries\lvgl\src\misc\lv_color.h ****     struct {
 201:c:\projects\paindrain\arduinolcd\test\pain drain\libraries\lvgl\src\misc\lv_color.h ****         uint8_t blue : 2;
 202:c:\projects\paindrain\arduinolcd\test\pain drain\libraries\lvgl\src\misc\lv_color.h ****         uint8_t green : 3;
 203:c:\projects\paindrain\arduinolcd\test\pain drain\libraries\lvgl\src\misc\lv_color.h ****         uint8_t red : 3;
 204:c:\projects\paindrain\arduinolcd\test\pain drain\libraries\lvgl\src\misc\lv_color.h ****     } ch;
 205:c:\projects\paindrain\arduinolcd\test\pain drain\libraries\lvgl\src\misc\lv_color.h ****     uint8_t full;
 206:c:\projects\paindrain\arduinolcd\test\pain drain\libraries\lvgl\src\misc\lv_color.h **** } lv_color8_t;
 207:c:\projects\paindrain\arduinolcd\test\pain drain\libraries\lvgl\src\misc\lv_color.h **** 
 208:c:\projects\paindrain\arduinolcd\test\pain drain\libraries\lvgl\src\misc\lv_color.h **** typedef union {
 209:c:\projects\paindrain\arduinolcd\test\pain drain\libraries\lvgl\src\misc\lv_color.h ****     struct {
 210:c:\projects\paindrain\arduinolcd\test\pain drain\libraries\lvgl\src\misc\lv_color.h **** #if LV_COLOR_16_SWAP == 0
 211:c:\projects\paindrain\arduinolcd\test\pain drain\libraries\lvgl\src\misc\lv_color.h ****         uint16_t blue : 5;
 212:c:\projects\paindrain\arduinolcd\test\pain drain\libraries\lvgl\src\misc\lv_color.h ****         uint16_t green : 6;
 213:c:\projects\paindrain\arduinolcd\test\pain drain\libraries\lvgl\src\misc\lv_color.h ****         uint16_t red : 5;
 214:c:\projects\paindrain\arduinolcd\test\pain drain\libraries\lvgl\src\misc\lv_color.h **** #else
 215:c:\projects\paindrain\arduinolcd\test\pain drain\libraries\lvgl\src\misc\lv_color.h ****         uint16_t green_h : 3;
 216:c:\projects\paindrain\arduinolcd\test\pain drain\libraries\lvgl\src\misc\lv_color.h ****         uint16_t red : 5;
 217:c:\projects\paindrain\arduinolcd\test\pain drain\libraries\lvgl\src\misc\lv_color.h ****         uint16_t blue : 5;
 218:c:\projects\paindrain\arduinolcd\test\pain drain\libraries\lvgl\src\misc\lv_color.h ****         uint16_t green_l : 3;
ARM GAS  C:\Users\haske\AppData\Local\Temp\ccSAQWsX.s 			page 41


 219:c:\projects\paindrain\arduinolcd\test\pain drain\libraries\lvgl\src\misc\lv_color.h **** #endif
 220:c:\projects\paindrain\arduinolcd\test\pain drain\libraries\lvgl\src\misc\lv_color.h ****     } ch;
 221:c:\projects\paindrain\arduinolcd\test\pain drain\libraries\lvgl\src\misc\lv_color.h ****     uint16_t full;
 222:c:\projects\paindrain\arduinolcd\test\pain drain\libraries\lvgl\src\misc\lv_color.h **** } lv_color16_t;
 223:c:\projects\paindrain\arduinolcd\test\pain drain\libraries\lvgl\src\misc\lv_color.h **** 
 224:c:\projects\paindrain\arduinolcd\test\pain drain\libraries\lvgl\src\misc\lv_color.h **** typedef union {
 225:c:\projects\paindrain\arduinolcd\test\pain drain\libraries\lvgl\src\misc\lv_color.h ****     struct {
 226:c:\projects\paindrain\arduinolcd\test\pain drain\libraries\lvgl\src\misc\lv_color.h ****         uint8_t blue;
 227:c:\projects\paindrain\arduinolcd\test\pain drain\libraries\lvgl\src\misc\lv_color.h ****         uint8_t green;
 228:c:\projects\paindrain\arduinolcd\test\pain drain\libraries\lvgl\src\misc\lv_color.h ****         uint8_t red;
 229:c:\projects\paindrain\arduinolcd\test\pain drain\libraries\lvgl\src\misc\lv_color.h ****         uint8_t alpha;
 230:c:\projects\paindrain\arduinolcd\test\pain drain\libraries\lvgl\src\misc\lv_color.h ****     } ch;
 231:c:\projects\paindrain\arduinolcd\test\pain drain\libraries\lvgl\src\misc\lv_color.h ****     uint32_t full;
 232:c:\projects\paindrain\arduinolcd\test\pain drain\libraries\lvgl\src\misc\lv_color.h **** } lv_color32_t;
 233:c:\projects\paindrain\arduinolcd\test\pain drain\libraries\lvgl\src\misc\lv_color.h **** 
 234:c:\projects\paindrain\arduinolcd\test\pain drain\libraries\lvgl\src\misc\lv_color.h **** typedef LV_CONCAT3(uint, LV_COLOR_SIZE, _t) lv_color_int_t;
 235:c:\projects\paindrain\arduinolcd\test\pain drain\libraries\lvgl\src\misc\lv_color.h **** typedef LV_CONCAT3(lv_color, LV_COLOR_DEPTH, _t) lv_color_t;
 236:c:\projects\paindrain\arduinolcd\test\pain drain\libraries\lvgl\src\misc\lv_color.h **** 
 237:c:\projects\paindrain\arduinolcd\test\pain drain\libraries\lvgl\src\misc\lv_color.h **** typedef struct {
 238:c:\projects\paindrain\arduinolcd\test\pain drain\libraries\lvgl\src\misc\lv_color.h ****     uint16_t h;
 239:c:\projects\paindrain\arduinolcd\test\pain drain\libraries\lvgl\src\misc\lv_color.h ****     uint8_t s;
 240:c:\projects\paindrain\arduinolcd\test\pain drain\libraries\lvgl\src\misc\lv_color.h ****     uint8_t v;
 241:c:\projects\paindrain\arduinolcd\test\pain drain\libraries\lvgl\src\misc\lv_color.h **** } lv_color_hsv_t;
 242:c:\projects\paindrain\arduinolcd\test\pain drain\libraries\lvgl\src\misc\lv_color.h **** 
 243:c:\projects\paindrain\arduinolcd\test\pain drain\libraries\lvgl\src\misc\lv_color.h **** //! @cond Doxygen_Suppress
 244:c:\projects\paindrain\arduinolcd\test\pain drain\libraries\lvgl\src\misc\lv_color.h **** /*No idea where the guard is required but else throws warnings in the docs*/
 245:c:\projects\paindrain\arduinolcd\test\pain drain\libraries\lvgl\src\misc\lv_color.h **** typedef uint8_t lv_opa_t;
 246:c:\projects\paindrain\arduinolcd\test\pain drain\libraries\lvgl\src\misc\lv_color.h **** //! @endcond
 247:c:\projects\paindrain\arduinolcd\test\pain drain\libraries\lvgl\src\misc\lv_color.h **** 
 248:c:\projects\paindrain\arduinolcd\test\pain drain\libraries\lvgl\src\misc\lv_color.h **** struct _lv_color_filter_dsc_t;
 249:c:\projects\paindrain\arduinolcd\test\pain drain\libraries\lvgl\src\misc\lv_color.h **** 
 250:c:\projects\paindrain\arduinolcd\test\pain drain\libraries\lvgl\src\misc\lv_color.h **** typedef lv_color_t (*lv_color_filter_cb_t)(const struct _lv_color_filter_dsc_t *, lv_color_t, lv_op
 251:c:\projects\paindrain\arduinolcd\test\pain drain\libraries\lvgl\src\misc\lv_color.h **** 
 252:c:\projects\paindrain\arduinolcd\test\pain drain\libraries\lvgl\src\misc\lv_color.h **** typedef struct _lv_color_filter_dsc_t {
 253:c:\projects\paindrain\arduinolcd\test\pain drain\libraries\lvgl\src\misc\lv_color.h ****     lv_color_filter_cb_t filter_cb;
 254:c:\projects\paindrain\arduinolcd\test\pain drain\libraries\lvgl\src\misc\lv_color.h ****     void * user_data;
 255:c:\projects\paindrain\arduinolcd\test\pain drain\libraries\lvgl\src\misc\lv_color.h **** } lv_color_filter_dsc_t;
 256:c:\projects\paindrain\arduinolcd\test\pain drain\libraries\lvgl\src\misc\lv_color.h **** 
 257:c:\projects\paindrain\arduinolcd\test\pain drain\libraries\lvgl\src\misc\lv_color.h **** 
 258:c:\projects\paindrain\arduinolcd\test\pain drain\libraries\lvgl\src\misc\lv_color.h **** typedef enum {
 259:c:\projects\paindrain\arduinolcd\test\pain drain\libraries\lvgl\src\misc\lv_color.h ****     LV_PALETTE_RED,
 260:c:\projects\paindrain\arduinolcd\test\pain drain\libraries\lvgl\src\misc\lv_color.h ****     LV_PALETTE_PINK,
 261:c:\projects\paindrain\arduinolcd\test\pain drain\libraries\lvgl\src\misc\lv_color.h ****     LV_PALETTE_PURPLE,
 262:c:\projects\paindrain\arduinolcd\test\pain drain\libraries\lvgl\src\misc\lv_color.h ****     LV_PALETTE_DEEP_PURPLE,
 263:c:\projects\paindrain\arduinolcd\test\pain drain\libraries\lvgl\src\misc\lv_color.h ****     LV_PALETTE_INDIGO,
 264:c:\projects\paindrain\arduinolcd\test\pain drain\libraries\lvgl\src\misc\lv_color.h ****     LV_PALETTE_BLUE,
 265:c:\projects\paindrain\arduinolcd\test\pain drain\libraries\lvgl\src\misc\lv_color.h ****     LV_PALETTE_LIGHT_BLUE,
 266:c:\projects\paindrain\arduinolcd\test\pain drain\libraries\lvgl\src\misc\lv_color.h ****     LV_PALETTE_CYAN,
 267:c:\projects\paindrain\arduinolcd\test\pain drain\libraries\lvgl\src\misc\lv_color.h ****     LV_PALETTE_TEAL,
 268:c:\projects\paindrain\arduinolcd\test\pain drain\libraries\lvgl\src\misc\lv_color.h ****     LV_PALETTE_GREEN,
 269:c:\projects\paindrain\arduinolcd\test\pain drain\libraries\lvgl\src\misc\lv_color.h ****     LV_PALETTE_LIGHT_GREEN,
 270:c:\projects\paindrain\arduinolcd\test\pain drain\libraries\lvgl\src\misc\lv_color.h ****     LV_PALETTE_LIME,
 271:c:\projects\paindrain\arduinolcd\test\pain drain\libraries\lvgl\src\misc\lv_color.h ****     LV_PALETTE_YELLOW,
 272:c:\projects\paindrain\arduinolcd\test\pain drain\libraries\lvgl\src\misc\lv_color.h ****     LV_PALETTE_AMBER,
 273:c:\projects\paindrain\arduinolcd\test\pain drain\libraries\lvgl\src\misc\lv_color.h ****     LV_PALETTE_ORANGE,
 274:c:\projects\paindrain\arduinolcd\test\pain drain\libraries\lvgl\src\misc\lv_color.h ****     LV_PALETTE_DEEP_ORANGE,
 275:c:\projects\paindrain\arduinolcd\test\pain drain\libraries\lvgl\src\misc\lv_color.h ****     LV_PALETTE_BROWN,
ARM GAS  C:\Users\haske\AppData\Local\Temp\ccSAQWsX.s 			page 42


 276:c:\projects\paindrain\arduinolcd\test\pain drain\libraries\lvgl\src\misc\lv_color.h ****     LV_PALETTE_BLUE_GREY,
 277:c:\projects\paindrain\arduinolcd\test\pain drain\libraries\lvgl\src\misc\lv_color.h ****     LV_PALETTE_GREY,
 278:c:\projects\paindrain\arduinolcd\test\pain drain\libraries\lvgl\src\misc\lv_color.h ****     _LV_PALETTE_LAST,
 279:c:\projects\paindrain\arduinolcd\test\pain drain\libraries\lvgl\src\misc\lv_color.h ****     LV_PALETTE_NONE = 0xff,
 280:c:\projects\paindrain\arduinolcd\test\pain drain\libraries\lvgl\src\misc\lv_color.h **** } lv_palette_t;
 281:c:\projects\paindrain\arduinolcd\test\pain drain\libraries\lvgl\src\misc\lv_color.h **** 
 282:c:\projects\paindrain\arduinolcd\test\pain drain\libraries\lvgl\src\misc\lv_color.h **** /**********************
 283:c:\projects\paindrain\arduinolcd\test\pain drain\libraries\lvgl\src\misc\lv_color.h ****  * GLOBAL PROTOTYPES
 284:c:\projects\paindrain\arduinolcd\test\pain drain\libraries\lvgl\src\misc\lv_color.h ****  **********************/
 285:c:\projects\paindrain\arduinolcd\test\pain drain\libraries\lvgl\src\misc\lv_color.h **** 
 286:c:\projects\paindrain\arduinolcd\test\pain drain\libraries\lvgl\src\misc\lv_color.h **** /*In color conversations:
 287:c:\projects\paindrain\arduinolcd\test\pain drain\libraries\lvgl\src\misc\lv_color.h ****  * - When converting to bigger color type the LSB weight of 1 LSB is calculated
 288:c:\projects\paindrain\arduinolcd\test\pain drain\libraries\lvgl\src\misc\lv_color.h ****  *   E.g. 16 bit Red has 5 bits
 289:c:\projects\paindrain\arduinolcd\test\pain drain\libraries\lvgl\src\misc\lv_color.h ****  *         8 bit Red has 3 bits
 290:c:\projects\paindrain\arduinolcd\test\pain drain\libraries\lvgl\src\misc\lv_color.h ****  *        ----------------------
 291:c:\projects\paindrain\arduinolcd\test\pain drain\libraries\lvgl\src\misc\lv_color.h ****  *        8 bit red LSB = (2^5 - 1) / (2^3 - 1) = 31 / 7 = 4
 292:c:\projects\paindrain\arduinolcd\test\pain drain\libraries\lvgl\src\misc\lv_color.h ****  *
 293:c:\projects\paindrain\arduinolcd\test\pain drain\libraries\lvgl\src\misc\lv_color.h ****  * - When calculating to smaller color type simply shift out the LSBs
 294:c:\projects\paindrain\arduinolcd\test\pain drain\libraries\lvgl\src\misc\lv_color.h ****  *   E.g.  8 bit Red has 3 bits
 295:c:\projects\paindrain\arduinolcd\test\pain drain\libraries\lvgl\src\misc\lv_color.h ****  *        16 bit Red has 5 bits
 296:c:\projects\paindrain\arduinolcd\test\pain drain\libraries\lvgl\src\misc\lv_color.h ****  *        ----------------------
 297:c:\projects\paindrain\arduinolcd\test\pain drain\libraries\lvgl\src\misc\lv_color.h ****  *         Shift right with 5 - 3 = 2
 298:c:\projects\paindrain\arduinolcd\test\pain drain\libraries\lvgl\src\misc\lv_color.h ****  */
 299:c:\projects\paindrain\arduinolcd\test\pain drain\libraries\lvgl\src\misc\lv_color.h **** static inline uint8_t lv_color_to1(lv_color_t color)
 300:c:\projects\paindrain\arduinolcd\test\pain drain\libraries\lvgl\src\misc\lv_color.h **** {
 301:c:\projects\paindrain\arduinolcd\test\pain drain\libraries\lvgl\src\misc\lv_color.h **** #if LV_COLOR_DEPTH == 1
 302:c:\projects\paindrain\arduinolcd\test\pain drain\libraries\lvgl\src\misc\lv_color.h ****     return color.full;
 303:c:\projects\paindrain\arduinolcd\test\pain drain\libraries\lvgl\src\misc\lv_color.h **** #elif LV_COLOR_DEPTH == 8
 304:c:\projects\paindrain\arduinolcd\test\pain drain\libraries\lvgl\src\misc\lv_color.h ****     if((LV_COLOR_GET_R(color) & 0x4) || (LV_COLOR_GET_G(color) & 0x4) || (LV_COLOR_GET_B(color) & 0
 305:c:\projects\paindrain\arduinolcd\test\pain drain\libraries\lvgl\src\misc\lv_color.h ****         return 1;
 306:c:\projects\paindrain\arduinolcd\test\pain drain\libraries\lvgl\src\misc\lv_color.h ****     }
 307:c:\projects\paindrain\arduinolcd\test\pain drain\libraries\lvgl\src\misc\lv_color.h ****     else {
 308:c:\projects\paindrain\arduinolcd\test\pain drain\libraries\lvgl\src\misc\lv_color.h ****         return 0;
 309:c:\projects\paindrain\arduinolcd\test\pain drain\libraries\lvgl\src\misc\lv_color.h ****     }
 310:c:\projects\paindrain\arduinolcd\test\pain drain\libraries\lvgl\src\misc\lv_color.h **** #elif LV_COLOR_DEPTH == 16
 311:c:\projects\paindrain\arduinolcd\test\pain drain\libraries\lvgl\src\misc\lv_color.h ****     if((LV_COLOR_GET_R(color) & 0x10) || (LV_COLOR_GET_G(color) & 0x20) || (LV_COLOR_GET_B(color) &
 312:c:\projects\paindrain\arduinolcd\test\pain drain\libraries\lvgl\src\misc\lv_color.h ****         return 1;
 313:c:\projects\paindrain\arduinolcd\test\pain drain\libraries\lvgl\src\misc\lv_color.h ****     }
 314:c:\projects\paindrain\arduinolcd\test\pain drain\libraries\lvgl\src\misc\lv_color.h ****     else {
 315:c:\projects\paindrain\arduinolcd\test\pain drain\libraries\lvgl\src\misc\lv_color.h ****         return 0;
 316:c:\projects\paindrain\arduinolcd\test\pain drain\libraries\lvgl\src\misc\lv_color.h ****     }
 317:c:\projects\paindrain\arduinolcd\test\pain drain\libraries\lvgl\src\misc\lv_color.h **** #elif LV_COLOR_DEPTH == 32
 318:c:\projects\paindrain\arduinolcd\test\pain drain\libraries\lvgl\src\misc\lv_color.h ****     if((LV_COLOR_GET_R(color) & 0x80) || (LV_COLOR_GET_G(color) & 0x80) || (LV_COLOR_GET_B(color) &
 319:c:\projects\paindrain\arduinolcd\test\pain drain\libraries\lvgl\src\misc\lv_color.h ****         return 1;
 320:c:\projects\paindrain\arduinolcd\test\pain drain\libraries\lvgl\src\misc\lv_color.h ****     }
 321:c:\projects\paindrain\arduinolcd\test\pain drain\libraries\lvgl\src\misc\lv_color.h ****     else {
 322:c:\projects\paindrain\arduinolcd\test\pain drain\libraries\lvgl\src\misc\lv_color.h ****         return 0;
 323:c:\projects\paindrain\arduinolcd\test\pain drain\libraries\lvgl\src\misc\lv_color.h ****     }
 324:c:\projects\paindrain\arduinolcd\test\pain drain\libraries\lvgl\src\misc\lv_color.h **** #endif
 325:c:\projects\paindrain\arduinolcd\test\pain drain\libraries\lvgl\src\misc\lv_color.h **** }
 326:c:\projects\paindrain\arduinolcd\test\pain drain\libraries\lvgl\src\misc\lv_color.h **** 
 327:c:\projects\paindrain\arduinolcd\test\pain drain\libraries\lvgl\src\misc\lv_color.h **** static inline uint8_t lv_color_to8(lv_color_t color)
 328:c:\projects\paindrain\arduinolcd\test\pain drain\libraries\lvgl\src\misc\lv_color.h **** {
 329:c:\projects\paindrain\arduinolcd\test\pain drain\libraries\lvgl\src\misc\lv_color.h **** #if LV_COLOR_DEPTH == 1
 330:c:\projects\paindrain\arduinolcd\test\pain drain\libraries\lvgl\src\misc\lv_color.h ****     if(color.full == 0)
 331:c:\projects\paindrain\arduinolcd\test\pain drain\libraries\lvgl\src\misc\lv_color.h ****         return 0;
 332:c:\projects\paindrain\arduinolcd\test\pain drain\libraries\lvgl\src\misc\lv_color.h ****     else
ARM GAS  C:\Users\haske\AppData\Local\Temp\ccSAQWsX.s 			page 43


 333:c:\projects\paindrain\arduinolcd\test\pain drain\libraries\lvgl\src\misc\lv_color.h ****         return 0xFF;
 334:c:\projects\paindrain\arduinolcd\test\pain drain\libraries\lvgl\src\misc\lv_color.h **** #elif LV_COLOR_DEPTH == 8
 335:c:\projects\paindrain\arduinolcd\test\pain drain\libraries\lvgl\src\misc\lv_color.h ****     return color.full;
 336:c:\projects\paindrain\arduinolcd\test\pain drain\libraries\lvgl\src\misc\lv_color.h **** #elif LV_COLOR_DEPTH == 16
 337:c:\projects\paindrain\arduinolcd\test\pain drain\libraries\lvgl\src\misc\lv_color.h ****     lv_color8_t ret;
 338:c:\projects\paindrain\arduinolcd\test\pain drain\libraries\lvgl\src\misc\lv_color.h ****     LV_COLOR_SET_R8(ret, LV_COLOR_GET_R(color) >> 2); /*5 - 3  = 2*/
 339:c:\projects\paindrain\arduinolcd\test\pain drain\libraries\lvgl\src\misc\lv_color.h ****     LV_COLOR_SET_G8(ret, LV_COLOR_GET_G(color) >> 3); /*6 - 3  = 3*/
 340:c:\projects\paindrain\arduinolcd\test\pain drain\libraries\lvgl\src\misc\lv_color.h ****     LV_COLOR_SET_B8(ret, LV_COLOR_GET_B(color) >> 3); /*5 - 2  = 3*/
 341:c:\projects\paindrain\arduinolcd\test\pain drain\libraries\lvgl\src\misc\lv_color.h ****     return ret.full;
 342:c:\projects\paindrain\arduinolcd\test\pain drain\libraries\lvgl\src\misc\lv_color.h **** #elif LV_COLOR_DEPTH == 32
 343:c:\projects\paindrain\arduinolcd\test\pain drain\libraries\lvgl\src\misc\lv_color.h ****     lv_color8_t ret;
 344:c:\projects\paindrain\arduinolcd\test\pain drain\libraries\lvgl\src\misc\lv_color.h ****     LV_COLOR_SET_R8(ret, LV_COLOR_GET_R(color) >> 5); /*8 - 3  = 5*/
 345:c:\projects\paindrain\arduinolcd\test\pain drain\libraries\lvgl\src\misc\lv_color.h ****     LV_COLOR_SET_G8(ret, LV_COLOR_GET_G(color) >> 5); /*8 - 3  = 5*/
 346:c:\projects\paindrain\arduinolcd\test\pain drain\libraries\lvgl\src\misc\lv_color.h ****     LV_COLOR_SET_B8(ret, LV_COLOR_GET_B(color) >> 6); /*8 - 2  = 6*/
 347:c:\projects\paindrain\arduinolcd\test\pain drain\libraries\lvgl\src\misc\lv_color.h ****     return ret.full;
 348:c:\projects\paindrain\arduinolcd\test\pain drain\libraries\lvgl\src\misc\lv_color.h **** #endif
 349:c:\projects\paindrain\arduinolcd\test\pain drain\libraries\lvgl\src\misc\lv_color.h **** }
 350:c:\projects\paindrain\arduinolcd\test\pain drain\libraries\lvgl\src\misc\lv_color.h **** 
 351:c:\projects\paindrain\arduinolcd\test\pain drain\libraries\lvgl\src\misc\lv_color.h **** static inline uint16_t lv_color_to16(lv_color_t color)
 352:c:\projects\paindrain\arduinolcd\test\pain drain\libraries\lvgl\src\misc\lv_color.h **** {
 353:c:\projects\paindrain\arduinolcd\test\pain drain\libraries\lvgl\src\misc\lv_color.h **** #if LV_COLOR_DEPTH == 1
 354:c:\projects\paindrain\arduinolcd\test\pain drain\libraries\lvgl\src\misc\lv_color.h ****     if(color.full == 0)
 355:c:\projects\paindrain\arduinolcd\test\pain drain\libraries\lvgl\src\misc\lv_color.h ****         return 0;
 356:c:\projects\paindrain\arduinolcd\test\pain drain\libraries\lvgl\src\misc\lv_color.h ****     else
 357:c:\projects\paindrain\arduinolcd\test\pain drain\libraries\lvgl\src\misc\lv_color.h ****         return 0xFFFF;
 358:c:\projects\paindrain\arduinolcd\test\pain drain\libraries\lvgl\src\misc\lv_color.h **** #elif LV_COLOR_DEPTH == 8
 359:c:\projects\paindrain\arduinolcd\test\pain drain\libraries\lvgl\src\misc\lv_color.h ****     lv_color16_t ret;
 360:c:\projects\paindrain\arduinolcd\test\pain drain\libraries\lvgl\src\misc\lv_color.h ****     LV_COLOR_SET_R16(ret, LV_COLOR_GET_R(color) * 4);  /*(2^5 - 1)/(2^3 - 1) = 31/7 = 4*/
 361:c:\projects\paindrain\arduinolcd\test\pain drain\libraries\lvgl\src\misc\lv_color.h ****     LV_COLOR_SET_G16(ret, LV_COLOR_GET_G(color) * 9);  /*(2^6 - 1)/(2^3 - 1) = 63/7 = 9*/
 362:c:\projects\paindrain\arduinolcd\test\pain drain\libraries\lvgl\src\misc\lv_color.h ****     LV_COLOR_SET_B16(ret, LV_COLOR_GET_B(color) * 10); /*(2^5 - 1)/(2^2 - 1) = 31/3 = 10*/
 363:c:\projects\paindrain\arduinolcd\test\pain drain\libraries\lvgl\src\misc\lv_color.h ****     return ret.full;
 364:c:\projects\paindrain\arduinolcd\test\pain drain\libraries\lvgl\src\misc\lv_color.h **** #elif LV_COLOR_DEPTH == 16
 365:c:\projects\paindrain\arduinolcd\test\pain drain\libraries\lvgl\src\misc\lv_color.h ****     return color.full;
 366:c:\projects\paindrain\arduinolcd\test\pain drain\libraries\lvgl\src\misc\lv_color.h **** #elif LV_COLOR_DEPTH == 32
 367:c:\projects\paindrain\arduinolcd\test\pain drain\libraries\lvgl\src\misc\lv_color.h ****     lv_color16_t ret;
 368:c:\projects\paindrain\arduinolcd\test\pain drain\libraries\lvgl\src\misc\lv_color.h ****     LV_COLOR_SET_R16(ret, LV_COLOR_GET_R(color) >> 3); /*8 - 5  = 3*/
 369:c:\projects\paindrain\arduinolcd\test\pain drain\libraries\lvgl\src\misc\lv_color.h ****     LV_COLOR_SET_G16(ret, LV_COLOR_GET_G(color) >> 2); /*8 - 6  = 2*/
 370:c:\projects\paindrain\arduinolcd\test\pain drain\libraries\lvgl\src\misc\lv_color.h ****     LV_COLOR_SET_B16(ret, LV_COLOR_GET_B(color) >> 3); /*8 - 5  = 3*/
 371:c:\projects\paindrain\arduinolcd\test\pain drain\libraries\lvgl\src\misc\lv_color.h ****     return ret.full;
 372:c:\projects\paindrain\arduinolcd\test\pain drain\libraries\lvgl\src\misc\lv_color.h **** #endif
 373:c:\projects\paindrain\arduinolcd\test\pain drain\libraries\lvgl\src\misc\lv_color.h **** }
 374:c:\projects\paindrain\arduinolcd\test\pain drain\libraries\lvgl\src\misc\lv_color.h **** 
 375:c:\projects\paindrain\arduinolcd\test\pain drain\libraries\lvgl\src\misc\lv_color.h **** static inline uint32_t lv_color_to32(lv_color_t color)
 376:c:\projects\paindrain\arduinolcd\test\pain drain\libraries\lvgl\src\misc\lv_color.h **** {
 377:c:\projects\paindrain\arduinolcd\test\pain drain\libraries\lvgl\src\misc\lv_color.h **** #if LV_COLOR_DEPTH == 1
 378:c:\projects\paindrain\arduinolcd\test\pain drain\libraries\lvgl\src\misc\lv_color.h ****     if(color.full == 0)
 379:c:\projects\paindrain\arduinolcd\test\pain drain\libraries\lvgl\src\misc\lv_color.h ****         return 0xFF000000;
 380:c:\projects\paindrain\arduinolcd\test\pain drain\libraries\lvgl\src\misc\lv_color.h ****     else
 381:c:\projects\paindrain\arduinolcd\test\pain drain\libraries\lvgl\src\misc\lv_color.h ****         return 0xFFFFFFFF;
 382:c:\projects\paindrain\arduinolcd\test\pain drain\libraries\lvgl\src\misc\lv_color.h **** #elif LV_COLOR_DEPTH == 8
 383:c:\projects\paindrain\arduinolcd\test\pain drain\libraries\lvgl\src\misc\lv_color.h ****     lv_color32_t ret;
 384:c:\projects\paindrain\arduinolcd\test\pain drain\libraries\lvgl\src\misc\lv_color.h ****     LV_COLOR_SET_R32(ret, LV_COLOR_GET_R(color) * 36); /*(2^8 - 1)/(2^3 - 1) = 255/7 = 36*/
 385:c:\projects\paindrain\arduinolcd\test\pain drain\libraries\lvgl\src\misc\lv_color.h ****     LV_COLOR_SET_G32(ret, LV_COLOR_GET_G(color) * 36); /*(2^8 - 1)/(2^3 - 1) = 255/7 = 36*/
 386:c:\projects\paindrain\arduinolcd\test\pain drain\libraries\lvgl\src\misc\lv_color.h ****     LV_COLOR_SET_B32(ret, LV_COLOR_GET_B(color) * 85); /*(2^8 - 1)/(2^2 - 1) = 255/3 = 85*/
 387:c:\projects\paindrain\arduinolcd\test\pain drain\libraries\lvgl\src\misc\lv_color.h ****     LV_COLOR_SET_A32(ret, 0xFF);
 388:c:\projects\paindrain\arduinolcd\test\pain drain\libraries\lvgl\src\misc\lv_color.h ****     return ret.full;
 389:c:\projects\paindrain\arduinolcd\test\pain drain\libraries\lvgl\src\misc\lv_color.h **** #elif LV_COLOR_DEPTH == 16
ARM GAS  C:\Users\haske\AppData\Local\Temp\ccSAQWsX.s 			page 44


 390:c:\projects\paindrain\arduinolcd\test\pain drain\libraries\lvgl\src\misc\lv_color.h ****     /**
 391:c:\projects\paindrain\arduinolcd\test\pain drain\libraries\lvgl\src\misc\lv_color.h ****      * The floating point math for conversion is:
 392:c:\projects\paindrain\arduinolcd\test\pain drain\libraries\lvgl\src\misc\lv_color.h ****      *  valueto = valuefrom * ( (2^bitsto - 1) / (float)(2^bitsfrom - 1) )
 393:c:\projects\paindrain\arduinolcd\test\pain drain\libraries\lvgl\src\misc\lv_color.h ****      * The faster integer math for conversion is:
 394:c:\projects\paindrain\arduinolcd\test\pain drain\libraries\lvgl\src\misc\lv_color.h ****      *  valueto = ( valuefrom * multiplier + adder ) >> divisor
 395:c:\projects\paindrain\arduinolcd\test\pain drain\libraries\lvgl\src\misc\lv_color.h ****      *   multiplier = FLOOR( ( (2^bitsto - 1) << divisor ) / (float)(2^bitsfrom - 1) )
 396:c:\projects\paindrain\arduinolcd\test\pain drain\libraries\lvgl\src\misc\lv_color.h ****      *
 397:c:\projects\paindrain\arduinolcd\test\pain drain\libraries\lvgl\src\misc\lv_color.h ****      * Find the first divisor where ( adder >> divisor ) <= 0
 398:c:\projects\paindrain\arduinolcd\test\pain drain\libraries\lvgl\src\misc\lv_color.h ****      *
 399:c:\projects\paindrain\arduinolcd\test\pain drain\libraries\lvgl\src\misc\lv_color.h ****      * 5-bit to 8-bit: ( 31 * multiplier + adder ) >> divisor = 255
 400:c:\projects\paindrain\arduinolcd\test\pain drain\libraries\lvgl\src\misc\lv_color.h ****      * divisor  multiplier  adder  min (0)  max (31)
 401:c:\projects\paindrain\arduinolcd\test\pain drain\libraries\lvgl\src\misc\lv_color.h ****      *       0           8      7        7       255
 402:c:\projects\paindrain\arduinolcd\test\pain drain\libraries\lvgl\src\misc\lv_color.h ****      *       1          16     14        7       255
 403:c:\projects\paindrain\arduinolcd\test\pain drain\libraries\lvgl\src\misc\lv_color.h ****      *       2          32     28        7       255
 404:c:\projects\paindrain\arduinolcd\test\pain drain\libraries\lvgl\src\misc\lv_color.h ****      *       3          65     25        3       255
 405:c:\projects\paindrain\arduinolcd\test\pain drain\libraries\lvgl\src\misc\lv_color.h ****      *       4         131     19        1       255
 406:c:\projects\paindrain\arduinolcd\test\pain drain\libraries\lvgl\src\misc\lv_color.h ****      *       5         263      7        0       255
 407:c:\projects\paindrain\arduinolcd\test\pain drain\libraries\lvgl\src\misc\lv_color.h ****      *
 408:c:\projects\paindrain\arduinolcd\test\pain drain\libraries\lvgl\src\misc\lv_color.h ****      * 6-bit to 8-bit: 255 = ( 63 * multiplier + adder ) >> divisor
 409:c:\projects\paindrain\arduinolcd\test\pain drain\libraries\lvgl\src\misc\lv_color.h ****      * divisor  multiplier  adder  min (0)  max (63)
 410:c:\projects\paindrain\arduinolcd\test\pain drain\libraries\lvgl\src\misc\lv_color.h ****      *       0           4      3        3       255
 411:c:\projects\paindrain\arduinolcd\test\pain drain\libraries\lvgl\src\misc\lv_color.h ****      *       1           8      6        3       255
 412:c:\projects\paindrain\arduinolcd\test\pain drain\libraries\lvgl\src\misc\lv_color.h ****      *       2          16     12        3       255
 413:c:\projects\paindrain\arduinolcd\test\pain drain\libraries\lvgl\src\misc\lv_color.h ****      *       3          32     24        3       255
 414:c:\projects\paindrain\arduinolcd\test\pain drain\libraries\lvgl\src\misc\lv_color.h ****      *       4          64     48        3       255
 415:c:\projects\paindrain\arduinolcd\test\pain drain\libraries\lvgl\src\misc\lv_color.h ****      *       5         129     33        1       255
 416:c:\projects\paindrain\arduinolcd\test\pain drain\libraries\lvgl\src\misc\lv_color.h ****      *       6         259      3        0       255
 417:c:\projects\paindrain\arduinolcd\test\pain drain\libraries\lvgl\src\misc\lv_color.h ****      */
 418:c:\projects\paindrain\arduinolcd\test\pain drain\libraries\lvgl\src\misc\lv_color.h **** 
 419:c:\projects\paindrain\arduinolcd\test\pain drain\libraries\lvgl\src\misc\lv_color.h ****     lv_color32_t ret;
 420:c:\projects\paindrain\arduinolcd\test\pain drain\libraries\lvgl\src\misc\lv_color.h ****     LV_COLOR_SET_R32(ret, (LV_COLOR_GET_R(color) * 263 + 7) >> 5);
 421:c:\projects\paindrain\arduinolcd\test\pain drain\libraries\lvgl\src\misc\lv_color.h ****     LV_COLOR_SET_G32(ret, (LV_COLOR_GET_G(color) * 259 + 3) >> 6);
 422:c:\projects\paindrain\arduinolcd\test\pain drain\libraries\lvgl\src\misc\lv_color.h ****     LV_COLOR_SET_B32(ret, (LV_COLOR_GET_B(color) * 263 + 7) >> 5);
 423:c:\projects\paindrain\arduinolcd\test\pain drain\libraries\lvgl\src\misc\lv_color.h ****     LV_COLOR_SET_A32(ret, 0xFF);
 424:c:\projects\paindrain\arduinolcd\test\pain drain\libraries\lvgl\src\misc\lv_color.h ****     return ret.full;
 425:c:\projects\paindrain\arduinolcd\test\pain drain\libraries\lvgl\src\misc\lv_color.h **** #elif LV_COLOR_DEPTH == 32
 426:c:\projects\paindrain\arduinolcd\test\pain drain\libraries\lvgl\src\misc\lv_color.h ****     return color.full;
 427:c:\projects\paindrain\arduinolcd\test\pain drain\libraries\lvgl\src\misc\lv_color.h **** #endif
 428:c:\projects\paindrain\arduinolcd\test\pain drain\libraries\lvgl\src\misc\lv_color.h **** }
 429:c:\projects\paindrain\arduinolcd\test\pain drain\libraries\lvgl\src\misc\lv_color.h **** 
 430:c:\projects\paindrain\arduinolcd\test\pain drain\libraries\lvgl\src\misc\lv_color.h **** //! @cond Doxygen_Suppress
 431:c:\projects\paindrain\arduinolcd\test\pain drain\libraries\lvgl\src\misc\lv_color.h **** 
 432:c:\projects\paindrain\arduinolcd\test\pain drain\libraries\lvgl\src\misc\lv_color.h **** /**
 433:c:\projects\paindrain\arduinolcd\test\pain drain\libraries\lvgl\src\misc\lv_color.h ****  * Mix two colors with a given ratio.
 434:c:\projects\paindrain\arduinolcd\test\pain drain\libraries\lvgl\src\misc\lv_color.h ****  * @param c1 the first color to mix (usually the foreground)
 435:c:\projects\paindrain\arduinolcd\test\pain drain\libraries\lvgl\src\misc\lv_color.h ****  * @param c2 the second color to mix (usually the background)
 436:c:\projects\paindrain\arduinolcd\test\pain drain\libraries\lvgl\src\misc\lv_color.h ****  * @param mix The ratio of the colors. 0: full `c2`, 255: full `c1`, 127: half `c1` and half`c2`
 437:c:\projects\paindrain\arduinolcd\test\pain drain\libraries\lvgl\src\misc\lv_color.h ****  * @return the mixed color
 438:c:\projects\paindrain\arduinolcd\test\pain drain\libraries\lvgl\src\misc\lv_color.h ****  */
 439:c:\projects\paindrain\arduinolcd\test\pain drain\libraries\lvgl\src\misc\lv_color.h **** LV_ATTRIBUTE_FAST_MEM static inline lv_color_t lv_color_mix(lv_color_t c1, lv_color_t c2, uint8_t m
 440:c:\projects\paindrain\arduinolcd\test\pain drain\libraries\lvgl\src\misc\lv_color.h **** {
 441:c:\projects\paindrain\arduinolcd\test\pain drain\libraries\lvgl\src\misc\lv_color.h ****     lv_color_t ret;
 442:c:\projects\paindrain\arduinolcd\test\pain drain\libraries\lvgl\src\misc\lv_color.h **** 
 443:c:\projects\paindrain\arduinolcd\test\pain drain\libraries\lvgl\src\misc\lv_color.h **** #if LV_COLOR_DEPTH == 16 && LV_COLOR_16_SWAP == 0 && LV_COLOR_MIX_ROUND_OFS == 0
 444:c:\projects\paindrain\arduinolcd\test\pain drain\libraries\lvgl\src\misc\lv_color.h ****     /*Source: https://stackoverflow.com/a/50012418/1999969*/
 445:c:\projects\paindrain\arduinolcd\test\pain drain\libraries\lvgl\src\misc\lv_color.h ****     mix = (uint32_t)((uint32_t)mix + 4) >> 3;
 446:c:\projects\paindrain\arduinolcd\test\pain drain\libraries\lvgl\src\misc\lv_color.h ****     uint32_t bg = (uint32_t)((uint32_t)c2.full | ((uint32_t)c2.full << 16)) &
ARM GAS  C:\Users\haske\AppData\Local\Temp\ccSAQWsX.s 			page 45


 447:c:\projects\paindrain\arduinolcd\test\pain drain\libraries\lvgl\src\misc\lv_color.h ****                   0x7E0F81F; /*0b00000111111000001111100000011111*/
 448:c:\projects\paindrain\arduinolcd\test\pain drain\libraries\lvgl\src\misc\lv_color.h ****     uint32_t fg = (uint32_t)((uint32_t)c1.full | ((uint32_t)c1.full << 16)) & 0x7E0F81F;
 449:c:\projects\paindrain\arduinolcd\test\pain drain\libraries\lvgl\src\misc\lv_color.h ****     uint32_t result = ((((fg - bg) * mix) >> 5) + bg) & 0x7E0F81F;
 450:c:\projects\paindrain\arduinolcd\test\pain drain\libraries\lvgl\src\misc\lv_color.h ****     ret.full = (uint16_t)((result >> 16) | result);
 451:c:\projects\paindrain\arduinolcd\test\pain drain\libraries\lvgl\src\misc\lv_color.h **** #elif LV_COLOR_DEPTH != 1
 452:c:\projects\paindrain\arduinolcd\test\pain drain\libraries\lvgl\src\misc\lv_color.h ****     /*LV_COLOR_DEPTH == 8, 16 or 32*/
 453:c:\projects\paindrain\arduinolcd\test\pain drain\libraries\lvgl\src\misc\lv_color.h ****     LV_COLOR_SET_R(ret, LV_UDIV255((uint16_t)LV_COLOR_GET_R(c1) * mix + LV_COLOR_GET_R(c2) *
 454:c:\projects\paindrain\arduinolcd\test\pain drain\libraries\lvgl\src\misc\lv_color.h ****                                    (255 - mix) + LV_COLOR_MIX_ROUND_OFS));
 455:c:\projects\paindrain\arduinolcd\test\pain drain\libraries\lvgl\src\misc\lv_color.h ****     LV_COLOR_SET_G(ret, LV_UDIV255((uint16_t)LV_COLOR_GET_G(c1) * mix + LV_COLOR_GET_G(c2) *
 456:c:\projects\paindrain\arduinolcd\test\pain drain\libraries\lvgl\src\misc\lv_color.h ****                                    (255 - mix) + LV_COLOR_MIX_ROUND_OFS));
 457:c:\projects\paindrain\arduinolcd\test\pain drain\libraries\lvgl\src\misc\lv_color.h ****     LV_COLOR_SET_B(ret, LV_UDIV255((uint16_t)LV_COLOR_GET_B(c1) * mix + LV_COLOR_GET_B(c2) *
 458:c:\projects\paindrain\arduinolcd\test\pain drain\libraries\lvgl\src\misc\lv_color.h ****                                    (255 - mix) + LV_COLOR_MIX_ROUND_OFS));
 459:c:\projects\paindrain\arduinolcd\test\pain drain\libraries\lvgl\src\misc\lv_color.h ****     LV_COLOR_SET_A(ret, 0xFF);
 460:c:\projects\paindrain\arduinolcd\test\pain drain\libraries\lvgl\src\misc\lv_color.h **** #else
 461:c:\projects\paindrain\arduinolcd\test\pain drain\libraries\lvgl\src\misc\lv_color.h ****     /*LV_COLOR_DEPTH == 1*/
 462:c:\projects\paindrain\arduinolcd\test\pain drain\libraries\lvgl\src\misc\lv_color.h ****     ret.full = mix > LV_OPA_50 ? c1.full : c2.full;
 463:c:\projects\paindrain\arduinolcd\test\pain drain\libraries\lvgl\src\misc\lv_color.h **** #endif
 464:c:\projects\paindrain\arduinolcd\test\pain drain\libraries\lvgl\src\misc\lv_color.h **** 
 465:c:\projects\paindrain\arduinolcd\test\pain drain\libraries\lvgl\src\misc\lv_color.h ****     return ret;
 466:c:\projects\paindrain\arduinolcd\test\pain drain\libraries\lvgl\src\misc\lv_color.h **** }
 467:c:\projects\paindrain\arduinolcd\test\pain drain\libraries\lvgl\src\misc\lv_color.h **** 
 468:c:\projects\paindrain\arduinolcd\test\pain drain\libraries\lvgl\src\misc\lv_color.h **** LV_ATTRIBUTE_FAST_MEM static inline void lv_color_premult(lv_color_t c, uint8_t mix, uint16_t * out
 469:c:\projects\paindrain\arduinolcd\test\pain drain\libraries\lvgl\src\misc\lv_color.h **** {
 470:c:\projects\paindrain\arduinolcd\test\pain drain\libraries\lvgl\src\misc\lv_color.h **** #if LV_COLOR_DEPTH != 1
 471:c:\projects\paindrain\arduinolcd\test\pain drain\libraries\lvgl\src\misc\lv_color.h ****     out[0] = (uint16_t)LV_COLOR_GET_R(c) * mix;
 472:c:\projects\paindrain\arduinolcd\test\pain drain\libraries\lvgl\src\misc\lv_color.h ****     out[1] = (uint16_t)LV_COLOR_GET_G(c) * mix;
 473:c:\projects\paindrain\arduinolcd\test\pain drain\libraries\lvgl\src\misc\lv_color.h ****     out[2] = (uint16_t)LV_COLOR_GET_B(c) * mix;
 474:c:\projects\paindrain\arduinolcd\test\pain drain\libraries\lvgl\src\misc\lv_color.h **** #else
 475:c:\projects\paindrain\arduinolcd\test\pain drain\libraries\lvgl\src\misc\lv_color.h ****     (void) mix;
 476:c:\projects\paindrain\arduinolcd\test\pain drain\libraries\lvgl\src\misc\lv_color.h ****     /*Pre-multiplication can't be used with 1 bpp*/
 477:c:\projects\paindrain\arduinolcd\test\pain drain\libraries\lvgl\src\misc\lv_color.h ****     out[0] = LV_COLOR_GET_R(c);
 478:c:\projects\paindrain\arduinolcd\test\pain drain\libraries\lvgl\src\misc\lv_color.h ****     out[1] = LV_COLOR_GET_G(c);
 479:c:\projects\paindrain\arduinolcd\test\pain drain\libraries\lvgl\src\misc\lv_color.h ****     out[2] = LV_COLOR_GET_B(c);
 480:c:\projects\paindrain\arduinolcd\test\pain drain\libraries\lvgl\src\misc\lv_color.h **** #endif
 481:c:\projects\paindrain\arduinolcd\test\pain drain\libraries\lvgl\src\misc\lv_color.h **** 
 482:c:\projects\paindrain\arduinolcd\test\pain drain\libraries\lvgl\src\misc\lv_color.h **** }
 483:c:\projects\paindrain\arduinolcd\test\pain drain\libraries\lvgl\src\misc\lv_color.h **** 
 484:c:\projects\paindrain\arduinolcd\test\pain drain\libraries\lvgl\src\misc\lv_color.h **** /**
 485:c:\projects\paindrain\arduinolcd\test\pain drain\libraries\lvgl\src\misc\lv_color.h ****  * Mix two colors with a given ratio. It runs faster then `lv_color_mix` but requires some pre comp
 486:c:\projects\paindrain\arduinolcd\test\pain drain\libraries\lvgl\src\misc\lv_color.h ****  * @param premult_c1 The first color. Should be preprocessed with `lv_color_premult(c1)`
 487:c:\projects\paindrain\arduinolcd\test\pain drain\libraries\lvgl\src\misc\lv_color.h ****  * @param c2 The second color. As it is no pre computation required on it
 488:c:\projects\paindrain\arduinolcd\test\pain drain\libraries\lvgl\src\misc\lv_color.h ****  * @param mix The ratio of the colors. 0: full `c1`, 255: full `c2`, 127: half `c1` and half `c2`.
 489:c:\projects\paindrain\arduinolcd\test\pain drain\libraries\lvgl\src\misc\lv_color.h ****  *            Should be modified like mix = `255 - mix`
 490:c:\projects\paindrain\arduinolcd\test\pain drain\libraries\lvgl\src\misc\lv_color.h ****  * @return the mixed color
 491:c:\projects\paindrain\arduinolcd\test\pain drain\libraries\lvgl\src\misc\lv_color.h ****  * @note 255 won't give clearly `c1`.
 492:c:\projects\paindrain\arduinolcd\test\pain drain\libraries\lvgl\src\misc\lv_color.h ****  */
 493:c:\projects\paindrain\arduinolcd\test\pain drain\libraries\lvgl\src\misc\lv_color.h **** LV_ATTRIBUTE_FAST_MEM static inline lv_color_t lv_color_mix_premult(uint16_t * premult_c1, lv_color
 494:c:\projects\paindrain\arduinolcd\test\pain drain\libraries\lvgl\src\misc\lv_color.h **** {
 495:c:\projects\paindrain\arduinolcd\test\pain drain\libraries\lvgl\src\misc\lv_color.h ****     lv_color_t ret;
 496:c:\projects\paindrain\arduinolcd\test\pain drain\libraries\lvgl\src\misc\lv_color.h **** #if LV_COLOR_DEPTH != 1
 497:c:\projects\paindrain\arduinolcd\test\pain drain\libraries\lvgl\src\misc\lv_color.h ****     /*LV_COLOR_DEPTH == 8 or 32*/
 498:c:\projects\paindrain\arduinolcd\test\pain drain\libraries\lvgl\src\misc\lv_color.h ****     LV_COLOR_SET_R(ret, LV_UDIV255(premult_c1[0] + LV_COLOR_GET_R(c2) * mix + LV_COLOR_MIX_ROUND_OF
 499:c:\projects\paindrain\arduinolcd\test\pain drain\libraries\lvgl\src\misc\lv_color.h ****     LV_COLOR_SET_G(ret, LV_UDIV255(premult_c1[1] + LV_COLOR_GET_G(c2) * mix + LV_COLOR_MIX_ROUND_OF
 500:c:\projects\paindrain\arduinolcd\test\pain drain\libraries\lvgl\src\misc\lv_color.h ****     LV_COLOR_SET_B(ret, LV_UDIV255(premult_c1[2] + LV_COLOR_GET_B(c2) * mix + LV_COLOR_MIX_ROUND_OF
 501:c:\projects\paindrain\arduinolcd\test\pain drain\libraries\lvgl\src\misc\lv_color.h ****     LV_COLOR_SET_A(ret, 0xFF);
 502:c:\projects\paindrain\arduinolcd\test\pain drain\libraries\lvgl\src\misc\lv_color.h **** #else
 503:c:\projects\paindrain\arduinolcd\test\pain drain\libraries\lvgl\src\misc\lv_color.h ****     /*LV_COLOR_DEPTH == 1*/
ARM GAS  C:\Users\haske\AppData\Local\Temp\ccSAQWsX.s 			page 46


 504:c:\projects\paindrain\arduinolcd\test\pain drain\libraries\lvgl\src\misc\lv_color.h ****     /*Restore color1*/
 505:c:\projects\paindrain\arduinolcd\test\pain drain\libraries\lvgl\src\misc\lv_color.h ****     lv_color_t c1;
 506:c:\projects\paindrain\arduinolcd\test\pain drain\libraries\lvgl\src\misc\lv_color.h ****     LV_COLOR_SET_R(c1, premult_c1[0]);
 507:c:\projects\paindrain\arduinolcd\test\pain drain\libraries\lvgl\src\misc\lv_color.h ****     LV_COLOR_SET_G(c1, premult_c1[1]);
 508:c:\projects\paindrain\arduinolcd\test\pain drain\libraries\lvgl\src\misc\lv_color.h ****     LV_COLOR_SET_B(c1, premult_c1[2]);
 509:c:\projects\paindrain\arduinolcd\test\pain drain\libraries\lvgl\src\misc\lv_color.h ****     ret.full = mix > LV_OPA_50 ? c2.full : c1.full;
 510:c:\projects\paindrain\arduinolcd\test\pain drain\libraries\lvgl\src\misc\lv_color.h **** #endif
 511:c:\projects\paindrain\arduinolcd\test\pain drain\libraries\lvgl\src\misc\lv_color.h **** 
 512:c:\projects\paindrain\arduinolcd\test\pain drain\libraries\lvgl\src\misc\lv_color.h ****     return ret;
 513:c:\projects\paindrain\arduinolcd\test\pain drain\libraries\lvgl\src\misc\lv_color.h **** }
 514:c:\projects\paindrain\arduinolcd\test\pain drain\libraries\lvgl\src\misc\lv_color.h **** 
 515:c:\projects\paindrain\arduinolcd\test\pain drain\libraries\lvgl\src\misc\lv_color.h **** /**
 516:c:\projects\paindrain\arduinolcd\test\pain drain\libraries\lvgl\src\misc\lv_color.h ****  * Mix two colors. Both color can have alpha value.
 517:c:\projects\paindrain\arduinolcd\test\pain drain\libraries\lvgl\src\misc\lv_color.h ****  * @param bg_color background color
 518:c:\projects\paindrain\arduinolcd\test\pain drain\libraries\lvgl\src\misc\lv_color.h ****  * @param bg_opa alpha of the background color
 519:c:\projects\paindrain\arduinolcd\test\pain drain\libraries\lvgl\src\misc\lv_color.h ****  * @param fg_color foreground color
 520:c:\projects\paindrain\arduinolcd\test\pain drain\libraries\lvgl\src\misc\lv_color.h ****  * @param fg_opa alpha of the foreground color
 521:c:\projects\paindrain\arduinolcd\test\pain drain\libraries\lvgl\src\misc\lv_color.h ****  * @param res_color the result color
 522:c:\projects\paindrain\arduinolcd\test\pain drain\libraries\lvgl\src\misc\lv_color.h ****  * @param res_opa the result opacity
 523:c:\projects\paindrain\arduinolcd\test\pain drain\libraries\lvgl\src\misc\lv_color.h ****  */
 524:c:\projects\paindrain\arduinolcd\test\pain drain\libraries\lvgl\src\misc\lv_color.h **** LV_ATTRIBUTE_FAST_MEM static inline void lv_color_mix_with_alpha(lv_color_t bg_color, lv_opa_t bg_o
 525:c:\projects\paindrain\arduinolcd\test\pain drain\libraries\lvgl\src\misc\lv_color.h ****                                                                  lv_color_t fg_color, lv_opa_t fg_o
 526:c:\projects\paindrain\arduinolcd\test\pain drain\libraries\lvgl\src\misc\lv_color.h ****                                                                  lv_color_t * res_color, lv_opa_t *
 527:c:\projects\paindrain\arduinolcd\test\pain drain\libraries\lvgl\src\misc\lv_color.h **** {
 528:c:\projects\paindrain\arduinolcd\test\pain drain\libraries\lvgl\src\misc\lv_color.h ****     /*Pick the foreground if it's fully opaque or the Background is fully transparent*/
 529:c:\projects\paindrain\arduinolcd\test\pain drain\libraries\lvgl\src\misc\lv_color.h ****     if(fg_opa >= LV_OPA_MAX || bg_opa <= LV_OPA_MIN) {
 530:c:\projects\paindrain\arduinolcd\test\pain drain\libraries\lvgl\src\misc\lv_color.h ****         res_color->full = fg_color.full;
 531:c:\projects\paindrain\arduinolcd\test\pain drain\libraries\lvgl\src\misc\lv_color.h ****         *res_opa = fg_opa;
 532:c:\projects\paindrain\arduinolcd\test\pain drain\libraries\lvgl\src\misc\lv_color.h ****     }
 533:c:\projects\paindrain\arduinolcd\test\pain drain\libraries\lvgl\src\misc\lv_color.h ****     /*Transparent foreground: use the Background*/
 534:c:\projects\paindrain\arduinolcd\test\pain drain\libraries\lvgl\src\misc\lv_color.h ****     else if(fg_opa <= LV_OPA_MIN) {
 535:c:\projects\paindrain\arduinolcd\test\pain drain\libraries\lvgl\src\misc\lv_color.h ****         res_color->full = bg_color.full;
 536:c:\projects\paindrain\arduinolcd\test\pain drain\libraries\lvgl\src\misc\lv_color.h ****         *res_opa = bg_opa;
 537:c:\projects\paindrain\arduinolcd\test\pain drain\libraries\lvgl\src\misc\lv_color.h ****     }
 538:c:\projects\paindrain\arduinolcd\test\pain drain\libraries\lvgl\src\misc\lv_color.h ****     /*Opaque background: use simple mix*/
 539:c:\projects\paindrain\arduinolcd\test\pain drain\libraries\lvgl\src\misc\lv_color.h ****     else if(bg_opa >= LV_OPA_MAX) {
 540:c:\projects\paindrain\arduinolcd\test\pain drain\libraries\lvgl\src\misc\lv_color.h ****         *res_color = lv_color_mix(fg_color, bg_color, fg_opa);
 541:c:\projects\paindrain\arduinolcd\test\pain drain\libraries\lvgl\src\misc\lv_color.h ****         *res_opa = LV_OPA_COVER;
 542:c:\projects\paindrain\arduinolcd\test\pain drain\libraries\lvgl\src\misc\lv_color.h ****     }
 543:c:\projects\paindrain\arduinolcd\test\pain drain\libraries\lvgl\src\misc\lv_color.h ****     /*Both colors have alpha. Expensive calculation need to be applied*/
 544:c:\projects\paindrain\arduinolcd\test\pain drain\libraries\lvgl\src\misc\lv_color.h ****     else {
 545:c:\projects\paindrain\arduinolcd\test\pain drain\libraries\lvgl\src\misc\lv_color.h ****         /*Save the parameters and the result. If they will be asked again don't compute again*/
 546:c:\projects\paindrain\arduinolcd\test\pain drain\libraries\lvgl\src\misc\lv_color.h ****         static lv_opa_t fg_opa_save     = 0;
 547:c:\projects\paindrain\arduinolcd\test\pain drain\libraries\lvgl\src\misc\lv_color.h ****         static lv_opa_t bg_opa_save     = 0;
 548:c:\projects\paindrain\arduinolcd\test\pain drain\libraries\lvgl\src\misc\lv_color.h ****         static lv_color_t fg_color_save = _LV_COLOR_ZERO_INITIALIZER;
 549:c:\projects\paindrain\arduinolcd\test\pain drain\libraries\lvgl\src\misc\lv_color.h ****         static lv_color_t bg_color_save = _LV_COLOR_ZERO_INITIALIZER;
 550:c:\projects\paindrain\arduinolcd\test\pain drain\libraries\lvgl\src\misc\lv_color.h ****         static lv_color_t res_color_saved = _LV_COLOR_ZERO_INITIALIZER;
 551:c:\projects\paindrain\arduinolcd\test\pain drain\libraries\lvgl\src\misc\lv_color.h ****         static lv_opa_t res_opa_saved = 0;
 552:c:\projects\paindrain\arduinolcd\test\pain drain\libraries\lvgl\src\misc\lv_color.h **** 
 553:c:\projects\paindrain\arduinolcd\test\pain drain\libraries\lvgl\src\misc\lv_color.h ****         if(fg_opa != fg_opa_save || bg_opa != bg_opa_save || fg_color.full != fg_color_save.full ||
 554:c:\projects\paindrain\arduinolcd\test\pain drain\libraries\lvgl\src\misc\lv_color.h ****            bg_color.full != bg_color_save.full) {
 555:c:\projects\paindrain\arduinolcd\test\pain drain\libraries\lvgl\src\misc\lv_color.h ****             fg_opa_save        = fg_opa;
 556:c:\projects\paindrain\arduinolcd\test\pain drain\libraries\lvgl\src\misc\lv_color.h ****             bg_opa_save        = bg_opa;
 557:c:\projects\paindrain\arduinolcd\test\pain drain\libraries\lvgl\src\misc\lv_color.h ****             fg_color_save.full = fg_color.full;
 558:c:\projects\paindrain\arduinolcd\test\pain drain\libraries\lvgl\src\misc\lv_color.h ****             bg_color_save.full = bg_color.full;
 559:c:\projects\paindrain\arduinolcd\test\pain drain\libraries\lvgl\src\misc\lv_color.h ****             /*Info:
 560:c:\projects\paindrain\arduinolcd\test\pain drain\libraries\lvgl\src\misc\lv_color.h ****              * https://en.wikipedia.org/wiki/Alpha_compositing#Analytical_derivation_of_the_over_op
ARM GAS  C:\Users\haske\AppData\Local\Temp\ccSAQWsX.s 			page 47


 561:c:\projects\paindrain\arduinolcd\test\pain drain\libraries\lvgl\src\misc\lv_color.h ****             res_opa_saved = 255 - ((uint16_t)((uint16_t)(255 - fg_opa) * (255 - bg_opa)) >> 8);
 562:c:\projects\paindrain\arduinolcd\test\pain drain\libraries\lvgl\src\misc\lv_color.h ****             LV_ASSERT(res_opa_saved != 0);
 563:c:\projects\paindrain\arduinolcd\test\pain drain\libraries\lvgl\src\misc\lv_color.h ****             lv_opa_t ratio = (uint16_t)((uint16_t)fg_opa * 255) / res_opa_saved;
 564:c:\projects\paindrain\arduinolcd\test\pain drain\libraries\lvgl\src\misc\lv_color.h ****             res_color_saved = lv_color_mix(fg_color, bg_color, ratio);
 565:c:\projects\paindrain\arduinolcd\test\pain drain\libraries\lvgl\src\misc\lv_color.h **** 
 566:c:\projects\paindrain\arduinolcd\test\pain drain\libraries\lvgl\src\misc\lv_color.h ****         }
 567:c:\projects\paindrain\arduinolcd\test\pain drain\libraries\lvgl\src\misc\lv_color.h **** 
 568:c:\projects\paindrain\arduinolcd\test\pain drain\libraries\lvgl\src\misc\lv_color.h ****         res_color->full = res_color_saved.full;
 569:c:\projects\paindrain\arduinolcd\test\pain drain\libraries\lvgl\src\misc\lv_color.h ****         *res_opa = res_opa_saved;
 570:c:\projects\paindrain\arduinolcd\test\pain drain\libraries\lvgl\src\misc\lv_color.h ****     }
 571:c:\projects\paindrain\arduinolcd\test\pain drain\libraries\lvgl\src\misc\lv_color.h **** }
 572:c:\projects\paindrain\arduinolcd\test\pain drain\libraries\lvgl\src\misc\lv_color.h **** 
 573:c:\projects\paindrain\arduinolcd\test\pain drain\libraries\lvgl\src\misc\lv_color.h **** //! @endcond
 574:c:\projects\paindrain\arduinolcd\test\pain drain\libraries\lvgl\src\misc\lv_color.h **** 
 575:c:\projects\paindrain\arduinolcd\test\pain drain\libraries\lvgl\src\misc\lv_color.h **** /**
 576:c:\projects\paindrain\arduinolcd\test\pain drain\libraries\lvgl\src\misc\lv_color.h ****  * Get the brightness of a color
 577:c:\projects\paindrain\arduinolcd\test\pain drain\libraries\lvgl\src\misc\lv_color.h ****  * @param color a color
 578:c:\projects\paindrain\arduinolcd\test\pain drain\libraries\lvgl\src\misc\lv_color.h ****  * @return the brightness [0..255]
 579:c:\projects\paindrain\arduinolcd\test\pain drain\libraries\lvgl\src\misc\lv_color.h ****  */
 580:c:\projects\paindrain\arduinolcd\test\pain drain\libraries\lvgl\src\misc\lv_color.h **** static inline uint8_t lv_color_brightness(lv_color_t color)
 581:c:\projects\paindrain\arduinolcd\test\pain drain\libraries\lvgl\src\misc\lv_color.h **** {
 582:c:\projects\paindrain\arduinolcd\test\pain drain\libraries\lvgl\src\misc\lv_color.h ****     lv_color32_t c32;
 583:c:\projects\paindrain\arduinolcd\test\pain drain\libraries\lvgl\src\misc\lv_color.h ****     c32.full        = lv_color_to32(color);
 584:c:\projects\paindrain\arduinolcd\test\pain drain\libraries\lvgl\src\misc\lv_color.h ****     uint16_t bright = (uint16_t)(3u * LV_COLOR_GET_R32(c32) + LV_COLOR_GET_B32(c32) + 4u * LV_COLOR
 585:c:\projects\paindrain\arduinolcd\test\pain drain\libraries\lvgl\src\misc\lv_color.h ****     return (uint8_t)(bright >> 3);
 586:c:\projects\paindrain\arduinolcd\test\pain drain\libraries\lvgl\src\misc\lv_color.h **** }
 587:c:\projects\paindrain\arduinolcd\test\pain drain\libraries\lvgl\src\misc\lv_color.h **** 
 588:c:\projects\paindrain\arduinolcd\test\pain drain\libraries\lvgl\src\misc\lv_color.h **** static inline lv_color_t lv_color_make(uint8_t r, uint8_t g, uint8_t b)
 589:c:\projects\paindrain\arduinolcd\test\pain drain\libraries\lvgl\src\misc\lv_color.h **** {
 590:c:\projects\paindrain\arduinolcd\test\pain drain\libraries\lvgl\src\misc\lv_color.h ****     return _LV_COLOR_MAKE_TYPE_HELPER LV_COLOR_MAKE(r, g, b);
 1557              		.loc 2 590 0
 1558 0022 FC21     		movs	r1, #252
 1559 0024 C900     		lsls	r1, r1, #3
 1560 0026 1F23     		movs	r3, #31
 1561 0028 1943     		orrs	r1, r3
 1562              	.LVL199:
 1563 002a 9C4B     		ldr	r3, .L76+4
 1564 002c 1943     		orrs	r1, r3
 1565 002e 00E0     		b	.L45
 1566              	.L44:
 1567 0030 0021     		movs	r1, #0
 1568              	.L45:
 1569              	.LBE249:
 1570              	.LBE248:
 1571              	.LBE247:
  81:..\..\..\arduinoLCD\test\Pain Drain\libraries\lvgl\src\extra\themes\mono/lv_theme_mono.c ****     lv_style_set_width(&styles->scrollbar,  PAD_DEF);
 1572              		.loc 1 81 0 discriminator 4
 1573 0032 FFF7FEFF 		bl	lv_style_set_bg_color
 1574              	.LVL200:
  82:..\..\..\arduinoLCD\test\Pain Drain\libraries\lvgl\src\extra\themes\mono/lv_theme_mono.c **** 
 1575              		.loc 1 82 0 discriminator 4
 1576 0036 984C     		ldr	r4, .L76
 1577 0038 2068     		ldr	r0, [r4]
 1578 003a 1030     		adds	r0, r0, #16
 1579 003c 0421     		movs	r1, #4
 1580 003e FFF7FEFF 		bl	lv_style_set_width
 1581              	.LVL201:
ARM GAS  C:\Users\haske\AppData\Local\Temp\ccSAQWsX.s 			page 48


  84:..\..\..\arduinoLCD\test\Pain Drain\libraries\lvgl\src\extra\themes\mono/lv_theme_mono.c ****     lv_style_set_bg_opa(&styles->scr, LV_OPA_COVER);
 1582              		.loc 1 84 0 discriminator 4
 1583 0042 2068     		ldr	r0, [r4]
 1584 0044 FFF7FEFF 		bl	style_init_reset
 1585              	.LVL202:
  85:..\..\..\arduinoLCD\test\Pain Drain\libraries\lvgl\src\extra\themes\mono/lv_theme_mono.c ****     lv_style_set_bg_color(&styles->scr, COLOR_BG);
 1586              		.loc 1 85 0 discriminator 4
 1587 0048 FF21     		movs	r1, #255
 1588 004a 2068     		ldr	r0, [r4]
 1589 004c FFF7FEFF 		bl	lv_style_set_bg_opa
 1590              	.LVL203:
  86:..\..\..\arduinoLCD\test\Pain Drain\libraries\lvgl\src\extra\themes\mono/lv_theme_mono.c ****     lv_style_set_text_color(&styles->scr, COLOR_FG);
 1591              		.loc 1 86 0 discriminator 4
 1592 0050 2068     		ldr	r0, [r4]
 1593 0052 002D     		cmp	r5, #0
 1594 0054 01D0     		beq	.L46
 1595 0056 0021     		movs	r1, #0
 1596 0058 05E0     		b	.L47
 1597              	.L46:
 1598              	.LVL204:
 1599              	.LBB250:
 1600              	.LBB251:
 1601              	.LBB252:
 1602              		.loc 2 590 0
 1603 005a FC21     		movs	r1, #252
 1604 005c C900     		lsls	r1, r1, #3
 1605 005e 1F23     		movs	r3, #31
 1606 0060 1943     		orrs	r1, r3
 1607              	.LVL205:
 1608 0062 8E4B     		ldr	r3, .L76+4
 1609 0064 1943     		orrs	r1, r3
 1610              	.L47:
 1611              	.LBE252:
 1612              	.LBE251:
 1613              	.LBE250:
  86:..\..\..\arduinoLCD\test\Pain Drain\libraries\lvgl\src\extra\themes\mono/lv_theme_mono.c ****     lv_style_set_text_color(&styles->scr, COLOR_FG);
 1614              		.loc 1 86 0 discriminator 4
 1615 0066 FFF7FEFF 		bl	lv_style_set_bg_color
 1616              	.LVL206:
  87:..\..\..\arduinoLCD\test\Pain Drain\libraries\lvgl\src\extra\themes\mono/lv_theme_mono.c ****     lv_style_set_pad_row(&styles->scr, PAD_DEF);
 1617              		.loc 1 87 0 discriminator 4
 1618 006a 8B4B     		ldr	r3, .L76
 1619 006c 1868     		ldr	r0, [r3]
 1620 006e 002D     		cmp	r5, #0
 1621 0070 06D0     		beq	.L48
 1622              	.LVL207:
 1623              	.LBB253:
 1624              	.LBB254:
 1625              	.LBB255:
 1626              		.loc 2 590 0
 1627 0072 FC21     		movs	r1, #252
 1628 0074 C900     		lsls	r1, r1, #3
 1629 0076 1F23     		movs	r3, #31
 1630 0078 1943     		orrs	r1, r3
 1631              	.LVL208:
 1632 007a 884B     		ldr	r3, .L76+4
 1633 007c 1943     		orrs	r1, r3
ARM GAS  C:\Users\haske\AppData\Local\Temp\ccSAQWsX.s 			page 49


 1634 007e 00E0     		b	.L49
 1635              	.L48:
 1636 0080 0021     		movs	r1, #0
 1637              	.L49:
 1638              	.LBE255:
 1639              	.LBE254:
 1640              	.LBE253:
  87:..\..\..\arduinoLCD\test\Pain Drain\libraries\lvgl\src\extra\themes\mono/lv_theme_mono.c ****     lv_style_set_pad_row(&styles->scr, PAD_DEF);
 1641              		.loc 1 87 0 discriminator 4
 1642 0082 FFF7FEFF 		bl	lv_style_set_text_color
 1643              	.LVL209:
  88:..\..\..\arduinoLCD\test\Pain Drain\libraries\lvgl\src\extra\themes\mono/lv_theme_mono.c ****     lv_style_set_pad_column(&styles->scr, PAD_DEF);
 1644              		.loc 1 88 0 discriminator 4
 1645 0086 844C     		ldr	r4, .L76
 1646 0088 0421     		movs	r1, #4
 1647 008a 2068     		ldr	r0, [r4]
 1648 008c FFF7FEFF 		bl	lv_style_set_pad_row
 1649              	.LVL210:
  89:..\..\..\arduinoLCD\test\Pain Drain\libraries\lvgl\src\extra\themes\mono/lv_theme_mono.c ****     lv_style_set_text_font(&styles->scr, font);
 1650              		.loc 1 89 0 discriminator 4
 1651 0090 0421     		movs	r1, #4
 1652 0092 2068     		ldr	r0, [r4]
 1653 0094 FFF7FEFF 		bl	lv_style_set_pad_column
 1654              	.LVL211:
  90:..\..\..\arduinoLCD\test\Pain Drain\libraries\lvgl\src\extra\themes\mono/lv_theme_mono.c **** 
 1655              		.loc 1 90 0 discriminator 4
 1656 0098 3100     		movs	r1, r6
 1657 009a 2068     		ldr	r0, [r4]
 1658 009c FFF7FEFF 		bl	lv_style_set_text_font
 1659              	.LVL212:
  92:..\..\..\arduinoLCD\test\Pain Drain\libraries\lvgl\src\extra\themes\mono/lv_theme_mono.c ****     lv_style_set_bg_opa(&styles->card, LV_OPA_COVER);
 1660              		.loc 1 92 0 discriminator 4
 1661 00a0 2068     		ldr	r0, [r4]
 1662 00a2 0830     		adds	r0, r0, #8
 1663 00a4 FFF7FEFF 		bl	style_init_reset
 1664              	.LVL213:
  93:..\..\..\arduinoLCD\test\Pain Drain\libraries\lvgl\src\extra\themes\mono/lv_theme_mono.c ****     lv_style_set_bg_color(&styles->card, COLOR_BG);
 1665              		.loc 1 93 0 discriminator 4
 1666 00a8 2068     		ldr	r0, [r4]
 1667 00aa 0830     		adds	r0, r0, #8
 1668 00ac FF21     		movs	r1, #255
 1669 00ae FFF7FEFF 		bl	lv_style_set_bg_opa
 1670              	.LVL214:
  94:..\..\..\arduinoLCD\test\Pain Drain\libraries\lvgl\src\extra\themes\mono/lv_theme_mono.c ****     lv_style_set_border_color(&styles->card, COLOR_FG);
 1671              		.loc 1 94 0 discriminator 4
 1672 00b2 2068     		ldr	r0, [r4]
 1673 00b4 0830     		adds	r0, r0, #8
 1674 00b6 002D     		cmp	r5, #0
 1675 00b8 01D0     		beq	.L50
 1676 00ba 0021     		movs	r1, #0
 1677 00bc 05E0     		b	.L51
 1678              	.L50:
 1679              	.LVL215:
 1680              	.LBB256:
 1681              	.LBB257:
 1682              	.LBB258:
 1683              		.loc 2 590 0
ARM GAS  C:\Users\haske\AppData\Local\Temp\ccSAQWsX.s 			page 50


 1684 00be FC21     		movs	r1, #252
 1685 00c0 C900     		lsls	r1, r1, #3
 1686 00c2 1F23     		movs	r3, #31
 1687 00c4 1943     		orrs	r1, r3
 1688              	.LVL216:
 1689 00c6 754B     		ldr	r3, .L76+4
 1690 00c8 1943     		orrs	r1, r3
 1691              	.L51:
 1692              	.LBE258:
 1693              	.LBE257:
 1694              	.LBE256:
  94:..\..\..\arduinoLCD\test\Pain Drain\libraries\lvgl\src\extra\themes\mono/lv_theme_mono.c ****     lv_style_set_border_color(&styles->card, COLOR_FG);
 1695              		.loc 1 94 0 discriminator 4
 1696 00ca FFF7FEFF 		bl	lv_style_set_bg_color
 1697              	.LVL217:
  95:..\..\..\arduinoLCD\test\Pain Drain\libraries\lvgl\src\extra\themes\mono/lv_theme_mono.c ****     lv_style_set_radius(&styles->card, 2);
 1698              		.loc 1 95 0 discriminator 4
 1699 00ce 724B     		ldr	r3, .L76
 1700 00d0 1868     		ldr	r0, [r3]
 1701 00d2 0830     		adds	r0, r0, #8
 1702 00d4 002D     		cmp	r5, #0
 1703 00d6 06D0     		beq	.L52
 1704              	.LVL218:
 1705              	.LBB259:
 1706              	.LBB260:
 1707              	.LBB261:
 1708              		.loc 2 590 0
 1709 00d8 FC21     		movs	r1, #252
 1710 00da C900     		lsls	r1, r1, #3
 1711 00dc 1F23     		movs	r3, #31
 1712 00de 1943     		orrs	r1, r3
 1713              	.LVL219:
 1714 00e0 6E4B     		ldr	r3, .L76+4
 1715 00e2 1943     		orrs	r1, r3
 1716 00e4 00E0     		b	.L53
 1717              	.L52:
 1718 00e6 0021     		movs	r1, #0
 1719              	.L53:
 1720              	.LBE261:
 1721              	.LBE260:
 1722              	.LBE259:
  95:..\..\..\arduinoLCD\test\Pain Drain\libraries\lvgl\src\extra\themes\mono/lv_theme_mono.c ****     lv_style_set_radius(&styles->card, 2);
 1723              		.loc 1 95 0 discriminator 4
 1724 00e8 FFF7FEFF 		bl	lv_style_set_border_color
 1725              	.LVL220:
  96:..\..\..\arduinoLCD\test\Pain Drain\libraries\lvgl\src\extra\themes\mono/lv_theme_mono.c ****     lv_style_set_border_width(&styles->card, BORDER_W_NORMAL);
 1726              		.loc 1 96 0 discriminator 4
 1727 00ec 6A4E     		ldr	r6, .L76
 1728              	.LVL221:
 1729 00ee 3068     		ldr	r0, [r6]
 1730 00f0 0830     		adds	r0, r0, #8
 1731 00f2 0221     		movs	r1, #2
 1732 00f4 FFF7FEFF 		bl	lv_style_set_radius
 1733              	.LVL222:
  97:..\..\..\arduinoLCD\test\Pain Drain\libraries\lvgl\src\extra\themes\mono/lv_theme_mono.c ****     lv_style_set_pad_all(&styles->card, PAD_DEF);
 1734              		.loc 1 97 0 discriminator 4
 1735 00f8 3068     		ldr	r0, [r6]
ARM GAS  C:\Users\haske\AppData\Local\Temp\ccSAQWsX.s 			page 51


 1736 00fa 0830     		adds	r0, r0, #8
 1737 00fc 0121     		movs	r1, #1
 1738 00fe FFF7FEFF 		bl	lv_style_set_border_width
 1739              	.LVL223:
  98:..\..\..\arduinoLCD\test\Pain Drain\libraries\lvgl\src\extra\themes\mono/lv_theme_mono.c ****     lv_style_set_pad_gap(&styles->card, PAD_DEF);
 1740              		.loc 1 98 0 discriminator 4
 1741 0102 3468     		ldr	r4, [r6]
 1742 0104 0834     		adds	r4, r4, #8
 1743              	.LVL224:
 1744              	.LBB262:
 1745              	.LBB263:
 1746              		.file 3 "c:\\projects\\paindrain\\arduinolcd\\test\\pain drain\\libraries\\lvgl\\src\\misc\\lv_sty
   1:c:\projects\paindrain\arduinolcd\test\pain drain\libraries\lvgl\src\misc\lv_style.h **** /**
   2:c:\projects\paindrain\arduinolcd\test\pain drain\libraries\lvgl\src\misc\lv_style.h ****  * @file lv_style.h
   3:c:\projects\paindrain\arduinolcd\test\pain drain\libraries\lvgl\src\misc\lv_style.h ****  *
   4:c:\projects\paindrain\arduinolcd\test\pain drain\libraries\lvgl\src\misc\lv_style.h ****  */
   5:c:\projects\paindrain\arduinolcd\test\pain drain\libraries\lvgl\src\misc\lv_style.h **** 
   6:c:\projects\paindrain\arduinolcd\test\pain drain\libraries\lvgl\src\misc\lv_style.h **** #ifndef LV_STYLE_H
   7:c:\projects\paindrain\arduinolcd\test\pain drain\libraries\lvgl\src\misc\lv_style.h **** #define LV_STYLE_H
   8:c:\projects\paindrain\arduinolcd\test\pain drain\libraries\lvgl\src\misc\lv_style.h **** 
   9:c:\projects\paindrain\arduinolcd\test\pain drain\libraries\lvgl\src\misc\lv_style.h **** #ifdef __cplusplus
  10:c:\projects\paindrain\arduinolcd\test\pain drain\libraries\lvgl\src\misc\lv_style.h **** extern "C" {
  11:c:\projects\paindrain\arduinolcd\test\pain drain\libraries\lvgl\src\misc\lv_style.h **** #endif
  12:c:\projects\paindrain\arduinolcd\test\pain drain\libraries\lvgl\src\misc\lv_style.h **** 
  13:c:\projects\paindrain\arduinolcd\test\pain drain\libraries\lvgl\src\misc\lv_style.h **** /*********************
  14:c:\projects\paindrain\arduinolcd\test\pain drain\libraries\lvgl\src\misc\lv_style.h ****  *      INCLUDES
  15:c:\projects\paindrain\arduinolcd\test\pain drain\libraries\lvgl\src\misc\lv_style.h ****  *********************/
  16:c:\projects\paindrain\arduinolcd\test\pain drain\libraries\lvgl\src\misc\lv_style.h **** #include <stdbool.h>
  17:c:\projects\paindrain\arduinolcd\test\pain drain\libraries\lvgl\src\misc\lv_style.h **** #include <stdint.h>
  18:c:\projects\paindrain\arduinolcd\test\pain drain\libraries\lvgl\src\misc\lv_style.h **** #include "../font/lv_font.h"
  19:c:\projects\paindrain\arduinolcd\test\pain drain\libraries\lvgl\src\misc\lv_style.h **** #include "lv_color.h"
  20:c:\projects\paindrain\arduinolcd\test\pain drain\libraries\lvgl\src\misc\lv_style.h **** #include "lv_area.h"
  21:c:\projects\paindrain\arduinolcd\test\pain drain\libraries\lvgl\src\misc\lv_style.h **** #include "lv_anim.h"
  22:c:\projects\paindrain\arduinolcd\test\pain drain\libraries\lvgl\src\misc\lv_style.h **** #include "lv_txt.h"
  23:c:\projects\paindrain\arduinolcd\test\pain drain\libraries\lvgl\src\misc\lv_style.h **** #include "lv_types.h"
  24:c:\projects\paindrain\arduinolcd\test\pain drain\libraries\lvgl\src\misc\lv_style.h **** #include "lv_assert.h"
  25:c:\projects\paindrain\arduinolcd\test\pain drain\libraries\lvgl\src\misc\lv_style.h **** #include "lv_bidi.h"
  26:c:\projects\paindrain\arduinolcd\test\pain drain\libraries\lvgl\src\misc\lv_style.h **** 
  27:c:\projects\paindrain\arduinolcd\test\pain drain\libraries\lvgl\src\misc\lv_style.h **** /*********************
  28:c:\projects\paindrain\arduinolcd\test\pain drain\libraries\lvgl\src\misc\lv_style.h ****  *      DEFINES
  29:c:\projects\paindrain\arduinolcd\test\pain drain\libraries\lvgl\src\misc\lv_style.h ****  *********************/
  30:c:\projects\paindrain\arduinolcd\test\pain drain\libraries\lvgl\src\misc\lv_style.h **** 
  31:c:\projects\paindrain\arduinolcd\test\pain drain\libraries\lvgl\src\misc\lv_style.h **** #define LV_STYLE_SENTINEL_VALUE     0xAABBCCDD
  32:c:\projects\paindrain\arduinolcd\test\pain drain\libraries\lvgl\src\misc\lv_style.h **** 
  33:c:\projects\paindrain\arduinolcd\test\pain drain\libraries\lvgl\src\misc\lv_style.h **** /**
  34:c:\projects\paindrain\arduinolcd\test\pain drain\libraries\lvgl\src\misc\lv_style.h ****  * Flags for style behavior
  35:c:\projects\paindrain\arduinolcd\test\pain drain\libraries\lvgl\src\misc\lv_style.h ****  *
  36:c:\projects\paindrain\arduinolcd\test\pain drain\libraries\lvgl\src\misc\lv_style.h ****  * The rest of the flags will have _FLAG added to their name in v9.
  37:c:\projects\paindrain\arduinolcd\test\pain drain\libraries\lvgl\src\misc\lv_style.h ****  */
  38:c:\projects\paindrain\arduinolcd\test\pain drain\libraries\lvgl\src\misc\lv_style.h **** #define LV_STYLE_PROP_FLAG_NONE             (0)
  39:c:\projects\paindrain\arduinolcd\test\pain drain\libraries\lvgl\src\misc\lv_style.h **** #define LV_STYLE_PROP_INHERIT               (1 << 0)  /*Inherited*/
  40:c:\projects\paindrain\arduinolcd\test\pain drain\libraries\lvgl\src\misc\lv_style.h **** #define LV_STYLE_PROP_EXT_DRAW              (1 << 1)  /*Requires ext. draw size update when changed
  41:c:\projects\paindrain\arduinolcd\test\pain drain\libraries\lvgl\src\misc\lv_style.h **** #define LV_STYLE_PROP_LAYOUT_REFR           (1 << 2)  /*Requires layout update when changed*/
  42:c:\projects\paindrain\arduinolcd\test\pain drain\libraries\lvgl\src\misc\lv_style.h **** #define LV_STYLE_PROP_PARENT_LAYOUT_REFR    (1 << 3)  /*Requires layout update on parent when chang
  43:c:\projects\paindrain\arduinolcd\test\pain drain\libraries\lvgl\src\misc\lv_style.h **** #define LV_STYLE_PROP_LAYER_REFR            (1 << 4)  /*Affects layer handling*/
  44:c:\projects\paindrain\arduinolcd\test\pain drain\libraries\lvgl\src\misc\lv_style.h **** #define LV_STYLE_PROP_ALL                   (0x1F)     /*Indicating all flags*/
  45:c:\projects\paindrain\arduinolcd\test\pain drain\libraries\lvgl\src\misc\lv_style.h **** 
ARM GAS  C:\Users\haske\AppData\Local\Temp\ccSAQWsX.s 			page 52


  46:c:\projects\paindrain\arduinolcd\test\pain drain\libraries\lvgl\src\misc\lv_style.h **** /**
  47:c:\projects\paindrain\arduinolcd\test\pain drain\libraries\lvgl\src\misc\lv_style.h ****  * Other constants
  48:c:\projects\paindrain\arduinolcd\test\pain drain\libraries\lvgl\src\misc\lv_style.h ****  */
  49:c:\projects\paindrain\arduinolcd\test\pain drain\libraries\lvgl\src\misc\lv_style.h **** #define LV_IMG_ZOOM_NONE            256        /*Value for not zooming the image*/
  50:c:\projects\paindrain\arduinolcd\test\pain drain\libraries\lvgl\src\misc\lv_style.h **** LV_EXPORT_CONST_INT(LV_IMG_ZOOM_NONE);
  51:c:\projects\paindrain\arduinolcd\test\pain drain\libraries\lvgl\src\misc\lv_style.h **** 
  52:c:\projects\paindrain\arduinolcd\test\pain drain\libraries\lvgl\src\misc\lv_style.h **** // *INDENT-OFF*
  53:c:\projects\paindrain\arduinolcd\test\pain drain\libraries\lvgl\src\misc\lv_style.h **** #if LV_USE_ASSERT_STYLE
  54:c:\projects\paindrain\arduinolcd\test\pain drain\libraries\lvgl\src\misc\lv_style.h **** #define LV_STYLE_CONST_INIT(var_name, prop_array)                       \
  55:c:\projects\paindrain\arduinolcd\test\pain drain\libraries\lvgl\src\misc\lv_style.h ****     const lv_style_t var_name = {                                       \
  56:c:\projects\paindrain\arduinolcd\test\pain drain\libraries\lvgl\src\misc\lv_style.h ****         .sentinel = LV_STYLE_SENTINEL_VALUE,                            \
  57:c:\projects\paindrain\arduinolcd\test\pain drain\libraries\lvgl\src\misc\lv_style.h ****         .v_p = { .const_props = prop_array },                           \
  58:c:\projects\paindrain\arduinolcd\test\pain drain\libraries\lvgl\src\misc\lv_style.h ****         .has_group = 0xFF,                                              \
  59:c:\projects\paindrain\arduinolcd\test\pain drain\libraries\lvgl\src\misc\lv_style.h ****         .prop1 = LV_STYLE_PROP_ANY,                                     \
  60:c:\projects\paindrain\arduinolcd\test\pain drain\libraries\lvgl\src\misc\lv_style.h ****         .prop_cnt = (sizeof(prop_array) / sizeof((prop_array)[0])),     \
  61:c:\projects\paindrain\arduinolcd\test\pain drain\libraries\lvgl\src\misc\lv_style.h ****     }
  62:c:\projects\paindrain\arduinolcd\test\pain drain\libraries\lvgl\src\misc\lv_style.h **** #else
  63:c:\projects\paindrain\arduinolcd\test\pain drain\libraries\lvgl\src\misc\lv_style.h **** #define LV_STYLE_CONST_INIT(var_name, prop_array)                       \
  64:c:\projects\paindrain\arduinolcd\test\pain drain\libraries\lvgl\src\misc\lv_style.h ****     const lv_style_t var_name = {                                       \
  65:c:\projects\paindrain\arduinolcd\test\pain drain\libraries\lvgl\src\misc\lv_style.h ****         .v_p = { .const_props = prop_array },                           \
  66:c:\projects\paindrain\arduinolcd\test\pain drain\libraries\lvgl\src\misc\lv_style.h ****         .has_group = 0xFF,                                              \
  67:c:\projects\paindrain\arduinolcd\test\pain drain\libraries\lvgl\src\misc\lv_style.h ****         .prop1 = LV_STYLE_PROP_ANY,                                     \
  68:c:\projects\paindrain\arduinolcd\test\pain drain\libraries\lvgl\src\misc\lv_style.h ****         .prop_cnt = (sizeof(prop_array) / sizeof((prop_array)[0])),     \
  69:c:\projects\paindrain\arduinolcd\test\pain drain\libraries\lvgl\src\misc\lv_style.h ****     }
  70:c:\projects\paindrain\arduinolcd\test\pain drain\libraries\lvgl\src\misc\lv_style.h **** #endif
  71:c:\projects\paindrain\arduinolcd\test\pain drain\libraries\lvgl\src\misc\lv_style.h **** // *INDENT-ON*
  72:c:\projects\paindrain\arduinolcd\test\pain drain\libraries\lvgl\src\misc\lv_style.h **** 
  73:c:\projects\paindrain\arduinolcd\test\pain drain\libraries\lvgl\src\misc\lv_style.h **** #define LV_STYLE_PROP_META_INHERIT 0x8000
  74:c:\projects\paindrain\arduinolcd\test\pain drain\libraries\lvgl\src\misc\lv_style.h **** #define LV_STYLE_PROP_META_INITIAL 0x4000
  75:c:\projects\paindrain\arduinolcd\test\pain drain\libraries\lvgl\src\misc\lv_style.h **** #define LV_STYLE_PROP_META_MASK (LV_STYLE_PROP_META_INHERIT | LV_STYLE_PROP_META_INITIAL)
  76:c:\projects\paindrain\arduinolcd\test\pain drain\libraries\lvgl\src\misc\lv_style.h **** 
  77:c:\projects\paindrain\arduinolcd\test\pain drain\libraries\lvgl\src\misc\lv_style.h **** #define LV_STYLE_PROP_ID_MASK(prop) ((lv_style_prop_t)((prop) & ~LV_STYLE_PROP_META_MASK))
  78:c:\projects\paindrain\arduinolcd\test\pain drain\libraries\lvgl\src\misc\lv_style.h **** 
  79:c:\projects\paindrain\arduinolcd\test\pain drain\libraries\lvgl\src\misc\lv_style.h **** /**********************
  80:c:\projects\paindrain\arduinolcd\test\pain drain\libraries\lvgl\src\misc\lv_style.h ****  *      TYPEDEFS
  81:c:\projects\paindrain\arduinolcd\test\pain drain\libraries\lvgl\src\misc\lv_style.h ****  **********************/
  82:c:\projects\paindrain\arduinolcd\test\pain drain\libraries\lvgl\src\misc\lv_style.h **** 
  83:c:\projects\paindrain\arduinolcd\test\pain drain\libraries\lvgl\src\misc\lv_style.h **** /**
  84:c:\projects\paindrain\arduinolcd\test\pain drain\libraries\lvgl\src\misc\lv_style.h ****  * Possible options how to blend opaque drawings
  85:c:\projects\paindrain\arduinolcd\test\pain drain\libraries\lvgl\src\misc\lv_style.h ****  */
  86:c:\projects\paindrain\arduinolcd\test\pain drain\libraries\lvgl\src\misc\lv_style.h **** enum {
  87:c:\projects\paindrain\arduinolcd\test\pain drain\libraries\lvgl\src\misc\lv_style.h ****     LV_BLEND_MODE_NORMAL,     /**< Simply mix according to the opacity value*/
  88:c:\projects\paindrain\arduinolcd\test\pain drain\libraries\lvgl\src\misc\lv_style.h ****     LV_BLEND_MODE_ADDITIVE,   /**< Add the respective color channels*/
  89:c:\projects\paindrain\arduinolcd\test\pain drain\libraries\lvgl\src\misc\lv_style.h ****     LV_BLEND_MODE_SUBTRACTIVE,/**< Subtract the foreground from the background*/
  90:c:\projects\paindrain\arduinolcd\test\pain drain\libraries\lvgl\src\misc\lv_style.h ****     LV_BLEND_MODE_MULTIPLY,   /**< Multiply the foreground and background*/
  91:c:\projects\paindrain\arduinolcd\test\pain drain\libraries\lvgl\src\misc\lv_style.h ****     LV_BLEND_MODE_REPLACE,    /**< Replace background with foreground in the area*/
  92:c:\projects\paindrain\arduinolcd\test\pain drain\libraries\lvgl\src\misc\lv_style.h **** };
  93:c:\projects\paindrain\arduinolcd\test\pain drain\libraries\lvgl\src\misc\lv_style.h **** 
  94:c:\projects\paindrain\arduinolcd\test\pain drain\libraries\lvgl\src\misc\lv_style.h **** typedef uint8_t lv_blend_mode_t;
  95:c:\projects\paindrain\arduinolcd\test\pain drain\libraries\lvgl\src\misc\lv_style.h **** 
  96:c:\projects\paindrain\arduinolcd\test\pain drain\libraries\lvgl\src\misc\lv_style.h **** /**
  97:c:\projects\paindrain\arduinolcd\test\pain drain\libraries\lvgl\src\misc\lv_style.h ****  * Some options to apply decorations on texts.
  98:c:\projects\paindrain\arduinolcd\test\pain drain\libraries\lvgl\src\misc\lv_style.h ****  * 'OR'ed values can be used.
  99:c:\projects\paindrain\arduinolcd\test\pain drain\libraries\lvgl\src\misc\lv_style.h ****  */
 100:c:\projects\paindrain\arduinolcd\test\pain drain\libraries\lvgl\src\misc\lv_style.h **** enum {
 101:c:\projects\paindrain\arduinolcd\test\pain drain\libraries\lvgl\src\misc\lv_style.h ****     LV_TEXT_DECOR_NONE          = 0x00,
 102:c:\projects\paindrain\arduinolcd\test\pain drain\libraries\lvgl\src\misc\lv_style.h ****     LV_TEXT_DECOR_UNDERLINE     = 0x01,
ARM GAS  C:\Users\haske\AppData\Local\Temp\ccSAQWsX.s 			page 53


 103:c:\projects\paindrain\arduinolcd\test\pain drain\libraries\lvgl\src\misc\lv_style.h ****     LV_TEXT_DECOR_STRIKETHROUGH = 0x02,
 104:c:\projects\paindrain\arduinolcd\test\pain drain\libraries\lvgl\src\misc\lv_style.h **** };
 105:c:\projects\paindrain\arduinolcd\test\pain drain\libraries\lvgl\src\misc\lv_style.h **** 
 106:c:\projects\paindrain\arduinolcd\test\pain drain\libraries\lvgl\src\misc\lv_style.h **** typedef uint8_t lv_text_decor_t;
 107:c:\projects\paindrain\arduinolcd\test\pain drain\libraries\lvgl\src\misc\lv_style.h **** 
 108:c:\projects\paindrain\arduinolcd\test\pain drain\libraries\lvgl\src\misc\lv_style.h **** /**
 109:c:\projects\paindrain\arduinolcd\test\pain drain\libraries\lvgl\src\misc\lv_style.h ****  * Selects on which sides border should be drawn
 110:c:\projects\paindrain\arduinolcd\test\pain drain\libraries\lvgl\src\misc\lv_style.h ****  * 'OR'ed values can be used.
 111:c:\projects\paindrain\arduinolcd\test\pain drain\libraries\lvgl\src\misc\lv_style.h ****  */
 112:c:\projects\paindrain\arduinolcd\test\pain drain\libraries\lvgl\src\misc\lv_style.h **** enum {
 113:c:\projects\paindrain\arduinolcd\test\pain drain\libraries\lvgl\src\misc\lv_style.h ****     LV_BORDER_SIDE_NONE     = 0x00,
 114:c:\projects\paindrain\arduinolcd\test\pain drain\libraries\lvgl\src\misc\lv_style.h ****     LV_BORDER_SIDE_BOTTOM   = 0x01,
 115:c:\projects\paindrain\arduinolcd\test\pain drain\libraries\lvgl\src\misc\lv_style.h ****     LV_BORDER_SIDE_TOP      = 0x02,
 116:c:\projects\paindrain\arduinolcd\test\pain drain\libraries\lvgl\src\misc\lv_style.h ****     LV_BORDER_SIDE_LEFT     = 0x04,
 117:c:\projects\paindrain\arduinolcd\test\pain drain\libraries\lvgl\src\misc\lv_style.h ****     LV_BORDER_SIDE_RIGHT    = 0x08,
 118:c:\projects\paindrain\arduinolcd\test\pain drain\libraries\lvgl\src\misc\lv_style.h ****     LV_BORDER_SIDE_FULL     = 0x0F,
 119:c:\projects\paindrain\arduinolcd\test\pain drain\libraries\lvgl\src\misc\lv_style.h ****     LV_BORDER_SIDE_INTERNAL = 0x10, /**< FOR matrix-like objects (e.g. Button matrix)*/
 120:c:\projects\paindrain\arduinolcd\test\pain drain\libraries\lvgl\src\misc\lv_style.h **** };
 121:c:\projects\paindrain\arduinolcd\test\pain drain\libraries\lvgl\src\misc\lv_style.h **** typedef uint8_t lv_border_side_t;
 122:c:\projects\paindrain\arduinolcd\test\pain drain\libraries\lvgl\src\misc\lv_style.h **** 
 123:c:\projects\paindrain\arduinolcd\test\pain drain\libraries\lvgl\src\misc\lv_style.h **** /**
 124:c:\projects\paindrain\arduinolcd\test\pain drain\libraries\lvgl\src\misc\lv_style.h ****  * The direction of the gradient.
 125:c:\projects\paindrain\arduinolcd\test\pain drain\libraries\lvgl\src\misc\lv_style.h ****  */
 126:c:\projects\paindrain\arduinolcd\test\pain drain\libraries\lvgl\src\misc\lv_style.h **** enum {
 127:c:\projects\paindrain\arduinolcd\test\pain drain\libraries\lvgl\src\misc\lv_style.h ****     LV_GRAD_DIR_NONE, /**< No gradient (the `grad_color` property is ignored)*/
 128:c:\projects\paindrain\arduinolcd\test\pain drain\libraries\lvgl\src\misc\lv_style.h ****     LV_GRAD_DIR_VER,  /**< Vertical (top to bottom) gradient*/
 129:c:\projects\paindrain\arduinolcd\test\pain drain\libraries\lvgl\src\misc\lv_style.h ****     LV_GRAD_DIR_HOR,  /**< Horizontal (left to right) gradient*/
 130:c:\projects\paindrain\arduinolcd\test\pain drain\libraries\lvgl\src\misc\lv_style.h **** };
 131:c:\projects\paindrain\arduinolcd\test\pain drain\libraries\lvgl\src\misc\lv_style.h **** 
 132:c:\projects\paindrain\arduinolcd\test\pain drain\libraries\lvgl\src\misc\lv_style.h **** typedef uint8_t lv_grad_dir_t;
 133:c:\projects\paindrain\arduinolcd\test\pain drain\libraries\lvgl\src\misc\lv_style.h **** 
 134:c:\projects\paindrain\arduinolcd\test\pain drain\libraries\lvgl\src\misc\lv_style.h **** /**
 135:c:\projects\paindrain\arduinolcd\test\pain drain\libraries\lvgl\src\misc\lv_style.h ****  * The dithering algorithm for the gradient
 136:c:\projects\paindrain\arduinolcd\test\pain drain\libraries\lvgl\src\misc\lv_style.h ****  * Depends on LV_DITHER_GRADIENT
 137:c:\projects\paindrain\arduinolcd\test\pain drain\libraries\lvgl\src\misc\lv_style.h ****  */
 138:c:\projects\paindrain\arduinolcd\test\pain drain\libraries\lvgl\src\misc\lv_style.h **** enum {
 139:c:\projects\paindrain\arduinolcd\test\pain drain\libraries\lvgl\src\misc\lv_style.h ****     LV_DITHER_NONE,     /**< No dithering, colors are just quantized to the output resolution*/
 140:c:\projects\paindrain\arduinolcd\test\pain drain\libraries\lvgl\src\misc\lv_style.h ****     LV_DITHER_ORDERED,  /**< Ordered dithering. Faster to compute and use less memory but lower qua
 141:c:\projects\paindrain\arduinolcd\test\pain drain\libraries\lvgl\src\misc\lv_style.h ****     LV_DITHER_ERR_DIFF, /**< Error diffusion mode. Slower to compute and use more memory but give h
 142:c:\projects\paindrain\arduinolcd\test\pain drain\libraries\lvgl\src\misc\lv_style.h **** };
 143:c:\projects\paindrain\arduinolcd\test\pain drain\libraries\lvgl\src\misc\lv_style.h **** 
 144:c:\projects\paindrain\arduinolcd\test\pain drain\libraries\lvgl\src\misc\lv_style.h **** typedef uint8_t lv_dither_mode_t;
 145:c:\projects\paindrain\arduinolcd\test\pain drain\libraries\lvgl\src\misc\lv_style.h **** 
 146:c:\projects\paindrain\arduinolcd\test\pain drain\libraries\lvgl\src\misc\lv_style.h **** /** A gradient stop definition.
 147:c:\projects\paindrain\arduinolcd\test\pain drain\libraries\lvgl\src\misc\lv_style.h ****  *  This matches a color and a position in a virtual 0-255 scale.
 148:c:\projects\paindrain\arduinolcd\test\pain drain\libraries\lvgl\src\misc\lv_style.h ****  */
 149:c:\projects\paindrain\arduinolcd\test\pain drain\libraries\lvgl\src\misc\lv_style.h **** typedef struct {
 150:c:\projects\paindrain\arduinolcd\test\pain drain\libraries\lvgl\src\misc\lv_style.h ****     lv_color_t color;   /**< The stop color */
 151:c:\projects\paindrain\arduinolcd\test\pain drain\libraries\lvgl\src\misc\lv_style.h ****     uint8_t    frac;    /**< The stop position in 1/255 unit */
 152:c:\projects\paindrain\arduinolcd\test\pain drain\libraries\lvgl\src\misc\lv_style.h **** } lv_gradient_stop_t;
 153:c:\projects\paindrain\arduinolcd\test\pain drain\libraries\lvgl\src\misc\lv_style.h **** 
 154:c:\projects\paindrain\arduinolcd\test\pain drain\libraries\lvgl\src\misc\lv_style.h **** /** A descriptor of a gradient. */
 155:c:\projects\paindrain\arduinolcd\test\pain drain\libraries\lvgl\src\misc\lv_style.h **** typedef struct {
 156:c:\projects\paindrain\arduinolcd\test\pain drain\libraries\lvgl\src\misc\lv_style.h ****     lv_gradient_stop_t   stops[LV_GRADIENT_MAX_STOPS]; /**< A gradient stop array */
 157:c:\projects\paindrain\arduinolcd\test\pain drain\libraries\lvgl\src\misc\lv_style.h ****     uint8_t              stops_count;                  /**< The number of used stops in the array *
 158:c:\projects\paindrain\arduinolcd\test\pain drain\libraries\lvgl\src\misc\lv_style.h ****     lv_grad_dir_t        dir : 3;                      /**< The gradient direction.
 159:c:\projects\paindrain\arduinolcd\test\pain drain\libraries\lvgl\src\misc\lv_style.h ****                                                         * Any of LV_GRAD_DIR_HOR, LV_GRAD_DIR_VER, 
ARM GAS  C:\Users\haske\AppData\Local\Temp\ccSAQWsX.s 			page 54


 160:c:\projects\paindrain\arduinolcd\test\pain drain\libraries\lvgl\src\misc\lv_style.h ****     lv_dither_mode_t     dither : 3;                   /**< Whether to dither the gradient or not.
 161:c:\projects\paindrain\arduinolcd\test\pain drain\libraries\lvgl\src\misc\lv_style.h ****                                                         * Any of LV_DITHER_NONE, LV_DITHER_ORDERED,
 162:c:\projects\paindrain\arduinolcd\test\pain drain\libraries\lvgl\src\misc\lv_style.h **** } lv_grad_dsc_t;
 163:c:\projects\paindrain\arduinolcd\test\pain drain\libraries\lvgl\src\misc\lv_style.h **** 
 164:c:\projects\paindrain\arduinolcd\test\pain drain\libraries\lvgl\src\misc\lv_style.h **** /**
 165:c:\projects\paindrain\arduinolcd\test\pain drain\libraries\lvgl\src\misc\lv_style.h ****  * A common type to handle all the property types in the same way.
 166:c:\projects\paindrain\arduinolcd\test\pain drain\libraries\lvgl\src\misc\lv_style.h ****  */
 167:c:\projects\paindrain\arduinolcd\test\pain drain\libraries\lvgl\src\misc\lv_style.h **** typedef union {
 168:c:\projects\paindrain\arduinolcd\test\pain drain\libraries\lvgl\src\misc\lv_style.h ****     int32_t num;         /**< Number integer number (opacity, enums, booleans or "normal" numbers)*
 169:c:\projects\paindrain\arduinolcd\test\pain drain\libraries\lvgl\src\misc\lv_style.h ****     const void * ptr;    /**< Constant pointers  (font, cone text, etc)*/
 170:c:\projects\paindrain\arduinolcd\test\pain drain\libraries\lvgl\src\misc\lv_style.h ****     lv_color_t color;    /**< Colors*/
 171:c:\projects\paindrain\arduinolcd\test\pain drain\libraries\lvgl\src\misc\lv_style.h **** } lv_style_value_t;
 172:c:\projects\paindrain\arduinolcd\test\pain drain\libraries\lvgl\src\misc\lv_style.h **** 
 173:c:\projects\paindrain\arduinolcd\test\pain drain\libraries\lvgl\src\misc\lv_style.h **** /**
 174:c:\projects\paindrain\arduinolcd\test\pain drain\libraries\lvgl\src\misc\lv_style.h ****  * Enumeration of all built in style properties
 175:c:\projects\paindrain\arduinolcd\test\pain drain\libraries\lvgl\src\misc\lv_style.h ****  *
 176:c:\projects\paindrain\arduinolcd\test\pain drain\libraries\lvgl\src\misc\lv_style.h ****  * Props are split into groups of 16. When adding a new prop to a group, ensure it does not overflo
 177:c:\projects\paindrain\arduinolcd\test\pain drain\libraries\lvgl\src\misc\lv_style.h ****  */
 178:c:\projects\paindrain\arduinolcd\test\pain drain\libraries\lvgl\src\misc\lv_style.h **** typedef enum {
 179:c:\projects\paindrain\arduinolcd\test\pain drain\libraries\lvgl\src\misc\lv_style.h ****     LV_STYLE_PROP_INV               = 0,
 180:c:\projects\paindrain\arduinolcd\test\pain drain\libraries\lvgl\src\misc\lv_style.h **** 
 181:c:\projects\paindrain\arduinolcd\test\pain drain\libraries\lvgl\src\misc\lv_style.h ****     /*Group 0*/
 182:c:\projects\paindrain\arduinolcd\test\pain drain\libraries\lvgl\src\misc\lv_style.h ****     LV_STYLE_WIDTH                  = 1,
 183:c:\projects\paindrain\arduinolcd\test\pain drain\libraries\lvgl\src\misc\lv_style.h ****     LV_STYLE_MIN_WIDTH              = 2,
 184:c:\projects\paindrain\arduinolcd\test\pain drain\libraries\lvgl\src\misc\lv_style.h ****     LV_STYLE_MAX_WIDTH              = 3,
 185:c:\projects\paindrain\arduinolcd\test\pain drain\libraries\lvgl\src\misc\lv_style.h ****     LV_STYLE_HEIGHT                 = 4,
 186:c:\projects\paindrain\arduinolcd\test\pain drain\libraries\lvgl\src\misc\lv_style.h ****     LV_STYLE_MIN_HEIGHT             = 5,
 187:c:\projects\paindrain\arduinolcd\test\pain drain\libraries\lvgl\src\misc\lv_style.h ****     LV_STYLE_MAX_HEIGHT             = 6,
 188:c:\projects\paindrain\arduinolcd\test\pain drain\libraries\lvgl\src\misc\lv_style.h ****     LV_STYLE_X                      = 7,
 189:c:\projects\paindrain\arduinolcd\test\pain drain\libraries\lvgl\src\misc\lv_style.h ****     LV_STYLE_Y                      = 8,
 190:c:\projects\paindrain\arduinolcd\test\pain drain\libraries\lvgl\src\misc\lv_style.h ****     LV_STYLE_ALIGN                  = 9,
 191:c:\projects\paindrain\arduinolcd\test\pain drain\libraries\lvgl\src\misc\lv_style.h ****     LV_STYLE_LAYOUT                 = 10,
 192:c:\projects\paindrain\arduinolcd\test\pain drain\libraries\lvgl\src\misc\lv_style.h ****     LV_STYLE_RADIUS                 = 11,
 193:c:\projects\paindrain\arduinolcd\test\pain drain\libraries\lvgl\src\misc\lv_style.h **** 
 194:c:\projects\paindrain\arduinolcd\test\pain drain\libraries\lvgl\src\misc\lv_style.h ****     /*Group 1*/
 195:c:\projects\paindrain\arduinolcd\test\pain drain\libraries\lvgl\src\misc\lv_style.h ****     LV_STYLE_PAD_TOP                = 16,
 196:c:\projects\paindrain\arduinolcd\test\pain drain\libraries\lvgl\src\misc\lv_style.h ****     LV_STYLE_PAD_BOTTOM             = 17,
 197:c:\projects\paindrain\arduinolcd\test\pain drain\libraries\lvgl\src\misc\lv_style.h ****     LV_STYLE_PAD_LEFT               = 18,
 198:c:\projects\paindrain\arduinolcd\test\pain drain\libraries\lvgl\src\misc\lv_style.h ****     LV_STYLE_PAD_RIGHT              = 19,
 199:c:\projects\paindrain\arduinolcd\test\pain drain\libraries\lvgl\src\misc\lv_style.h ****     LV_STYLE_PAD_ROW                = 20,
 200:c:\projects\paindrain\arduinolcd\test\pain drain\libraries\lvgl\src\misc\lv_style.h ****     LV_STYLE_PAD_COLUMN             = 21,
 201:c:\projects\paindrain\arduinolcd\test\pain drain\libraries\lvgl\src\misc\lv_style.h ****     LV_STYLE_BASE_DIR               = 22,
 202:c:\projects\paindrain\arduinolcd\test\pain drain\libraries\lvgl\src\misc\lv_style.h ****     LV_STYLE_CLIP_CORNER            = 23,
 203:c:\projects\paindrain\arduinolcd\test\pain drain\libraries\lvgl\src\misc\lv_style.h **** 
 204:c:\projects\paindrain\arduinolcd\test\pain drain\libraries\lvgl\src\misc\lv_style.h ****     /*Group 2*/
 205:c:\projects\paindrain\arduinolcd\test\pain drain\libraries\lvgl\src\misc\lv_style.h ****     LV_STYLE_BG_COLOR               = 32,
 206:c:\projects\paindrain\arduinolcd\test\pain drain\libraries\lvgl\src\misc\lv_style.h ****     LV_STYLE_BG_OPA                 = 33,
 207:c:\projects\paindrain\arduinolcd\test\pain drain\libraries\lvgl\src\misc\lv_style.h ****     LV_STYLE_BG_GRAD_COLOR          = 34,
 208:c:\projects\paindrain\arduinolcd\test\pain drain\libraries\lvgl\src\misc\lv_style.h ****     LV_STYLE_BG_GRAD_DIR            = 35,
 209:c:\projects\paindrain\arduinolcd\test\pain drain\libraries\lvgl\src\misc\lv_style.h ****     LV_STYLE_BG_MAIN_STOP           = 36,
 210:c:\projects\paindrain\arduinolcd\test\pain drain\libraries\lvgl\src\misc\lv_style.h ****     LV_STYLE_BG_GRAD_STOP           = 37,
 211:c:\projects\paindrain\arduinolcd\test\pain drain\libraries\lvgl\src\misc\lv_style.h ****     LV_STYLE_BG_GRAD                = 38,
 212:c:\projects\paindrain\arduinolcd\test\pain drain\libraries\lvgl\src\misc\lv_style.h ****     LV_STYLE_BG_DITHER_MODE         = 39,
 213:c:\projects\paindrain\arduinolcd\test\pain drain\libraries\lvgl\src\misc\lv_style.h ****     LV_STYLE_BG_IMG_SRC             = 40,
 214:c:\projects\paindrain\arduinolcd\test\pain drain\libraries\lvgl\src\misc\lv_style.h ****     LV_STYLE_BG_IMG_OPA             = 41,
 215:c:\projects\paindrain\arduinolcd\test\pain drain\libraries\lvgl\src\misc\lv_style.h ****     LV_STYLE_BG_IMG_RECOLOR         = 42,
 216:c:\projects\paindrain\arduinolcd\test\pain drain\libraries\lvgl\src\misc\lv_style.h ****     LV_STYLE_BG_IMG_RECOLOR_OPA     = 43,
ARM GAS  C:\Users\haske\AppData\Local\Temp\ccSAQWsX.s 			page 55


 217:c:\projects\paindrain\arduinolcd\test\pain drain\libraries\lvgl\src\misc\lv_style.h ****     LV_STYLE_BG_IMG_TILED           = 44,
 218:c:\projects\paindrain\arduinolcd\test\pain drain\libraries\lvgl\src\misc\lv_style.h **** 
 219:c:\projects\paindrain\arduinolcd\test\pain drain\libraries\lvgl\src\misc\lv_style.h ****     /*Group 3*/
 220:c:\projects\paindrain\arduinolcd\test\pain drain\libraries\lvgl\src\misc\lv_style.h ****     LV_STYLE_BORDER_COLOR           = 48,
 221:c:\projects\paindrain\arduinolcd\test\pain drain\libraries\lvgl\src\misc\lv_style.h ****     LV_STYLE_BORDER_OPA             = 49,
 222:c:\projects\paindrain\arduinolcd\test\pain drain\libraries\lvgl\src\misc\lv_style.h ****     LV_STYLE_BORDER_WIDTH           = 50,
 223:c:\projects\paindrain\arduinolcd\test\pain drain\libraries\lvgl\src\misc\lv_style.h ****     LV_STYLE_BORDER_SIDE            = 51,
 224:c:\projects\paindrain\arduinolcd\test\pain drain\libraries\lvgl\src\misc\lv_style.h ****     LV_STYLE_BORDER_POST            = 52,
 225:c:\projects\paindrain\arduinolcd\test\pain drain\libraries\lvgl\src\misc\lv_style.h ****     LV_STYLE_OUTLINE_WIDTH          = 53,
 226:c:\projects\paindrain\arduinolcd\test\pain drain\libraries\lvgl\src\misc\lv_style.h ****     LV_STYLE_OUTLINE_COLOR          = 54,
 227:c:\projects\paindrain\arduinolcd\test\pain drain\libraries\lvgl\src\misc\lv_style.h ****     LV_STYLE_OUTLINE_OPA            = 55,
 228:c:\projects\paindrain\arduinolcd\test\pain drain\libraries\lvgl\src\misc\lv_style.h ****     LV_STYLE_OUTLINE_PAD            = 56,
 229:c:\projects\paindrain\arduinolcd\test\pain drain\libraries\lvgl\src\misc\lv_style.h **** 
 230:c:\projects\paindrain\arduinolcd\test\pain drain\libraries\lvgl\src\misc\lv_style.h ****     /*Group 4*/
 231:c:\projects\paindrain\arduinolcd\test\pain drain\libraries\lvgl\src\misc\lv_style.h ****     LV_STYLE_SHADOW_WIDTH           = 64,
 232:c:\projects\paindrain\arduinolcd\test\pain drain\libraries\lvgl\src\misc\lv_style.h ****     LV_STYLE_SHADOW_OFS_X           = 65,
 233:c:\projects\paindrain\arduinolcd\test\pain drain\libraries\lvgl\src\misc\lv_style.h ****     LV_STYLE_SHADOW_OFS_Y           = 66,
 234:c:\projects\paindrain\arduinolcd\test\pain drain\libraries\lvgl\src\misc\lv_style.h ****     LV_STYLE_SHADOW_SPREAD          = 67,
 235:c:\projects\paindrain\arduinolcd\test\pain drain\libraries\lvgl\src\misc\lv_style.h ****     LV_STYLE_SHADOW_COLOR           = 68,
 236:c:\projects\paindrain\arduinolcd\test\pain drain\libraries\lvgl\src\misc\lv_style.h ****     LV_STYLE_SHADOW_OPA             = 69,
 237:c:\projects\paindrain\arduinolcd\test\pain drain\libraries\lvgl\src\misc\lv_style.h ****     LV_STYLE_IMG_OPA                = 70,
 238:c:\projects\paindrain\arduinolcd\test\pain drain\libraries\lvgl\src\misc\lv_style.h ****     LV_STYLE_IMG_RECOLOR            = 71,
 239:c:\projects\paindrain\arduinolcd\test\pain drain\libraries\lvgl\src\misc\lv_style.h ****     LV_STYLE_IMG_RECOLOR_OPA        = 72,
 240:c:\projects\paindrain\arduinolcd\test\pain drain\libraries\lvgl\src\misc\lv_style.h ****     LV_STYLE_LINE_WIDTH             = 73,
 241:c:\projects\paindrain\arduinolcd\test\pain drain\libraries\lvgl\src\misc\lv_style.h ****     LV_STYLE_LINE_DASH_WIDTH        = 74,
 242:c:\projects\paindrain\arduinolcd\test\pain drain\libraries\lvgl\src\misc\lv_style.h ****     LV_STYLE_LINE_DASH_GAP          = 75,
 243:c:\projects\paindrain\arduinolcd\test\pain drain\libraries\lvgl\src\misc\lv_style.h ****     LV_STYLE_LINE_ROUNDED           = 76,
 244:c:\projects\paindrain\arduinolcd\test\pain drain\libraries\lvgl\src\misc\lv_style.h ****     LV_STYLE_LINE_COLOR             = 77,
 245:c:\projects\paindrain\arduinolcd\test\pain drain\libraries\lvgl\src\misc\lv_style.h ****     LV_STYLE_LINE_OPA               = 78,
 246:c:\projects\paindrain\arduinolcd\test\pain drain\libraries\lvgl\src\misc\lv_style.h **** 
 247:c:\projects\paindrain\arduinolcd\test\pain drain\libraries\lvgl\src\misc\lv_style.h ****     /*Group 5*/
 248:c:\projects\paindrain\arduinolcd\test\pain drain\libraries\lvgl\src\misc\lv_style.h ****     LV_STYLE_ARC_WIDTH              = 80,
 249:c:\projects\paindrain\arduinolcd\test\pain drain\libraries\lvgl\src\misc\lv_style.h ****     LV_STYLE_ARC_ROUNDED            = 81,
 250:c:\projects\paindrain\arduinolcd\test\pain drain\libraries\lvgl\src\misc\lv_style.h ****     LV_STYLE_ARC_COLOR              = 82,
 251:c:\projects\paindrain\arduinolcd\test\pain drain\libraries\lvgl\src\misc\lv_style.h ****     LV_STYLE_ARC_OPA                = 83,
 252:c:\projects\paindrain\arduinolcd\test\pain drain\libraries\lvgl\src\misc\lv_style.h ****     LV_STYLE_ARC_IMG_SRC            = 84,
 253:c:\projects\paindrain\arduinolcd\test\pain drain\libraries\lvgl\src\misc\lv_style.h ****     LV_STYLE_TEXT_COLOR             = 85,
 254:c:\projects\paindrain\arduinolcd\test\pain drain\libraries\lvgl\src\misc\lv_style.h ****     LV_STYLE_TEXT_OPA               = 86,
 255:c:\projects\paindrain\arduinolcd\test\pain drain\libraries\lvgl\src\misc\lv_style.h ****     LV_STYLE_TEXT_FONT              = 87,
 256:c:\projects\paindrain\arduinolcd\test\pain drain\libraries\lvgl\src\misc\lv_style.h ****     LV_STYLE_TEXT_LETTER_SPACE      = 88,
 257:c:\projects\paindrain\arduinolcd\test\pain drain\libraries\lvgl\src\misc\lv_style.h ****     LV_STYLE_TEXT_LINE_SPACE        = 89,
 258:c:\projects\paindrain\arduinolcd\test\pain drain\libraries\lvgl\src\misc\lv_style.h ****     LV_STYLE_TEXT_DECOR             = 90,
 259:c:\projects\paindrain\arduinolcd\test\pain drain\libraries\lvgl\src\misc\lv_style.h ****     LV_STYLE_TEXT_ALIGN             = 91,
 260:c:\projects\paindrain\arduinolcd\test\pain drain\libraries\lvgl\src\misc\lv_style.h **** 
 261:c:\projects\paindrain\arduinolcd\test\pain drain\libraries\lvgl\src\misc\lv_style.h ****     /*Group 6*/
 262:c:\projects\paindrain\arduinolcd\test\pain drain\libraries\lvgl\src\misc\lv_style.h ****     LV_STYLE_OPA                    = 96,
 263:c:\projects\paindrain\arduinolcd\test\pain drain\libraries\lvgl\src\misc\lv_style.h ****     LV_STYLE_COLOR_FILTER_DSC       = 97,
 264:c:\projects\paindrain\arduinolcd\test\pain drain\libraries\lvgl\src\misc\lv_style.h ****     LV_STYLE_COLOR_FILTER_OPA       = 98,
 265:c:\projects\paindrain\arduinolcd\test\pain drain\libraries\lvgl\src\misc\lv_style.h ****     LV_STYLE_ANIM                   = 99,
 266:c:\projects\paindrain\arduinolcd\test\pain drain\libraries\lvgl\src\misc\lv_style.h ****     LV_STYLE_ANIM_TIME              = 100,
 267:c:\projects\paindrain\arduinolcd\test\pain drain\libraries\lvgl\src\misc\lv_style.h ****     LV_STYLE_ANIM_SPEED             = 101,
 268:c:\projects\paindrain\arduinolcd\test\pain drain\libraries\lvgl\src\misc\lv_style.h ****     LV_STYLE_TRANSITION             = 102,
 269:c:\projects\paindrain\arduinolcd\test\pain drain\libraries\lvgl\src\misc\lv_style.h ****     LV_STYLE_BLEND_MODE             = 103,
 270:c:\projects\paindrain\arduinolcd\test\pain drain\libraries\lvgl\src\misc\lv_style.h ****     LV_STYLE_TRANSFORM_WIDTH        = 104,
 271:c:\projects\paindrain\arduinolcd\test\pain drain\libraries\lvgl\src\misc\lv_style.h ****     LV_STYLE_TRANSFORM_HEIGHT       = 105,
 272:c:\projects\paindrain\arduinolcd\test\pain drain\libraries\lvgl\src\misc\lv_style.h ****     LV_STYLE_TRANSLATE_X            = 106,
 273:c:\projects\paindrain\arduinolcd\test\pain drain\libraries\lvgl\src\misc\lv_style.h ****     LV_STYLE_TRANSLATE_Y            = 107,
ARM GAS  C:\Users\haske\AppData\Local\Temp\ccSAQWsX.s 			page 56


 274:c:\projects\paindrain\arduinolcd\test\pain drain\libraries\lvgl\src\misc\lv_style.h ****     LV_STYLE_TRANSFORM_ZOOM         = 108,
 275:c:\projects\paindrain\arduinolcd\test\pain drain\libraries\lvgl\src\misc\lv_style.h ****     LV_STYLE_TRANSFORM_ANGLE        = 109,
 276:c:\projects\paindrain\arduinolcd\test\pain drain\libraries\lvgl\src\misc\lv_style.h ****     LV_STYLE_TRANSFORM_PIVOT_X      = 110,
 277:c:\projects\paindrain\arduinolcd\test\pain drain\libraries\lvgl\src\misc\lv_style.h ****     LV_STYLE_TRANSFORM_PIVOT_Y      = 111,
 278:c:\projects\paindrain\arduinolcd\test\pain drain\libraries\lvgl\src\misc\lv_style.h **** 
 279:c:\projects\paindrain\arduinolcd\test\pain drain\libraries\lvgl\src\misc\lv_style.h ****     _LV_STYLE_LAST_BUILT_IN_PROP     = 111,
 280:c:\projects\paindrain\arduinolcd\test\pain drain\libraries\lvgl\src\misc\lv_style.h ****     _LV_STYLE_NUM_BUILT_IN_PROPS     = _LV_STYLE_LAST_BUILT_IN_PROP + 1,
 281:c:\projects\paindrain\arduinolcd\test\pain drain\libraries\lvgl\src\misc\lv_style.h **** 
 282:c:\projects\paindrain\arduinolcd\test\pain drain\libraries\lvgl\src\misc\lv_style.h ****     LV_STYLE_PROP_ANY                = 0xFFFF,
 283:c:\projects\paindrain\arduinolcd\test\pain drain\libraries\lvgl\src\misc\lv_style.h ****     _LV_STYLE_PROP_CONST             = 0xFFFF /* magic value for const styles */
 284:c:\projects\paindrain\arduinolcd\test\pain drain\libraries\lvgl\src\misc\lv_style.h **** } lv_style_prop_t;
 285:c:\projects\paindrain\arduinolcd\test\pain drain\libraries\lvgl\src\misc\lv_style.h **** 
 286:c:\projects\paindrain\arduinolcd\test\pain drain\libraries\lvgl\src\misc\lv_style.h **** enum {
 287:c:\projects\paindrain\arduinolcd\test\pain drain\libraries\lvgl\src\misc\lv_style.h ****     LV_STYLE_RES_NOT_FOUND,
 288:c:\projects\paindrain\arduinolcd\test\pain drain\libraries\lvgl\src\misc\lv_style.h ****     LV_STYLE_RES_FOUND,
 289:c:\projects\paindrain\arduinolcd\test\pain drain\libraries\lvgl\src\misc\lv_style.h ****     LV_STYLE_RES_INHERIT
 290:c:\projects\paindrain\arduinolcd\test\pain drain\libraries\lvgl\src\misc\lv_style.h **** };
 291:c:\projects\paindrain\arduinolcd\test\pain drain\libraries\lvgl\src\misc\lv_style.h **** 
 292:c:\projects\paindrain\arduinolcd\test\pain drain\libraries\lvgl\src\misc\lv_style.h **** typedef uint8_t lv_style_res_t;
 293:c:\projects\paindrain\arduinolcd\test\pain drain\libraries\lvgl\src\misc\lv_style.h **** 
 294:c:\projects\paindrain\arduinolcd\test\pain drain\libraries\lvgl\src\misc\lv_style.h **** /**
 295:c:\projects\paindrain\arduinolcd\test\pain drain\libraries\lvgl\src\misc\lv_style.h ****  * Descriptor for style transitions
 296:c:\projects\paindrain\arduinolcd\test\pain drain\libraries\lvgl\src\misc\lv_style.h ****  */
 297:c:\projects\paindrain\arduinolcd\test\pain drain\libraries\lvgl\src\misc\lv_style.h **** typedef struct {
 298:c:\projects\paindrain\arduinolcd\test\pain drain\libraries\lvgl\src\misc\lv_style.h ****     const lv_style_prop_t * props; /**< An array with the properties to animate.*/
 299:c:\projects\paindrain\arduinolcd\test\pain drain\libraries\lvgl\src\misc\lv_style.h **** #if LV_USE_USER_DATA
 300:c:\projects\paindrain\arduinolcd\test\pain drain\libraries\lvgl\src\misc\lv_style.h ****     void * user_data;              /**< A custom user data that will be passed to the animation's u
 301:c:\projects\paindrain\arduinolcd\test\pain drain\libraries\lvgl\src\misc\lv_style.h **** #endif
 302:c:\projects\paindrain\arduinolcd\test\pain drain\libraries\lvgl\src\misc\lv_style.h ****     lv_anim_path_cb_t path_xcb;     /**< A path for the animation.*/
 303:c:\projects\paindrain\arduinolcd\test\pain drain\libraries\lvgl\src\misc\lv_style.h ****     uint32_t time;                 /**< Duration of the transition in [ms]*/
 304:c:\projects\paindrain\arduinolcd\test\pain drain\libraries\lvgl\src\misc\lv_style.h ****     uint32_t delay;                /**< Delay before the transition in [ms]*/
 305:c:\projects\paindrain\arduinolcd\test\pain drain\libraries\lvgl\src\misc\lv_style.h **** } lv_style_transition_dsc_t;
 306:c:\projects\paindrain\arduinolcd\test\pain drain\libraries\lvgl\src\misc\lv_style.h **** 
 307:c:\projects\paindrain\arduinolcd\test\pain drain\libraries\lvgl\src\misc\lv_style.h **** /**
 308:c:\projects\paindrain\arduinolcd\test\pain drain\libraries\lvgl\src\misc\lv_style.h ****  * Descriptor of a constant style property.
 309:c:\projects\paindrain\arduinolcd\test\pain drain\libraries\lvgl\src\misc\lv_style.h ****  */
 310:c:\projects\paindrain\arduinolcd\test\pain drain\libraries\lvgl\src\misc\lv_style.h **** typedef struct {
 311:c:\projects\paindrain\arduinolcd\test\pain drain\libraries\lvgl\src\misc\lv_style.h ****     lv_style_prop_t prop;
 312:c:\projects\paindrain\arduinolcd\test\pain drain\libraries\lvgl\src\misc\lv_style.h ****     lv_style_value_t value;
 313:c:\projects\paindrain\arduinolcd\test\pain drain\libraries\lvgl\src\misc\lv_style.h **** } lv_style_const_prop_t;
 314:c:\projects\paindrain\arduinolcd\test\pain drain\libraries\lvgl\src\misc\lv_style.h **** 
 315:c:\projects\paindrain\arduinolcd\test\pain drain\libraries\lvgl\src\misc\lv_style.h **** /**
 316:c:\projects\paindrain\arduinolcd\test\pain drain\libraries\lvgl\src\misc\lv_style.h ****  * Descriptor of a style (a collection of properties and values).
 317:c:\projects\paindrain\arduinolcd\test\pain drain\libraries\lvgl\src\misc\lv_style.h ****  */
 318:c:\projects\paindrain\arduinolcd\test\pain drain\libraries\lvgl\src\misc\lv_style.h **** typedef struct {
 319:c:\projects\paindrain\arduinolcd\test\pain drain\libraries\lvgl\src\misc\lv_style.h **** 
 320:c:\projects\paindrain\arduinolcd\test\pain drain\libraries\lvgl\src\misc\lv_style.h **** #if LV_USE_ASSERT_STYLE
 321:c:\projects\paindrain\arduinolcd\test\pain drain\libraries\lvgl\src\misc\lv_style.h ****     uint32_t sentinel;
 322:c:\projects\paindrain\arduinolcd\test\pain drain\libraries\lvgl\src\misc\lv_style.h **** #endif
 323:c:\projects\paindrain\arduinolcd\test\pain drain\libraries\lvgl\src\misc\lv_style.h **** 
 324:c:\projects\paindrain\arduinolcd\test\pain drain\libraries\lvgl\src\misc\lv_style.h ****     /*If there is only one property store it directly.
 325:c:\projects\paindrain\arduinolcd\test\pain drain\libraries\lvgl\src\misc\lv_style.h ****      *For more properties allocate an array*/
 326:c:\projects\paindrain\arduinolcd\test\pain drain\libraries\lvgl\src\misc\lv_style.h ****     union {
 327:c:\projects\paindrain\arduinolcd\test\pain drain\libraries\lvgl\src\misc\lv_style.h ****         lv_style_value_t value1;
 328:c:\projects\paindrain\arduinolcd\test\pain drain\libraries\lvgl\src\misc\lv_style.h ****         uint8_t * values_and_props;
 329:c:\projects\paindrain\arduinolcd\test\pain drain\libraries\lvgl\src\misc\lv_style.h ****         const lv_style_const_prop_t * const_props;
 330:c:\projects\paindrain\arduinolcd\test\pain drain\libraries\lvgl\src\misc\lv_style.h ****     } v_p;
ARM GAS  C:\Users\haske\AppData\Local\Temp\ccSAQWsX.s 			page 57


 331:c:\projects\paindrain\arduinolcd\test\pain drain\libraries\lvgl\src\misc\lv_style.h **** 
 332:c:\projects\paindrain\arduinolcd\test\pain drain\libraries\lvgl\src\misc\lv_style.h ****     uint16_t prop1;
 333:c:\projects\paindrain\arduinolcd\test\pain drain\libraries\lvgl\src\misc\lv_style.h ****     uint8_t has_group;
 334:c:\projects\paindrain\arduinolcd\test\pain drain\libraries\lvgl\src\misc\lv_style.h ****     uint8_t prop_cnt;
 335:c:\projects\paindrain\arduinolcd\test\pain drain\libraries\lvgl\src\misc\lv_style.h **** } lv_style_t;
 336:c:\projects\paindrain\arduinolcd\test\pain drain\libraries\lvgl\src\misc\lv_style.h **** 
 337:c:\projects\paindrain\arduinolcd\test\pain drain\libraries\lvgl\src\misc\lv_style.h **** /**********************
 338:c:\projects\paindrain\arduinolcd\test\pain drain\libraries\lvgl\src\misc\lv_style.h ****  * GLOBAL PROTOTYPES
 339:c:\projects\paindrain\arduinolcd\test\pain drain\libraries\lvgl\src\misc\lv_style.h ****  **********************/
 340:c:\projects\paindrain\arduinolcd\test\pain drain\libraries\lvgl\src\misc\lv_style.h **** 
 341:c:\projects\paindrain\arduinolcd\test\pain drain\libraries\lvgl\src\misc\lv_style.h **** 
 342:c:\projects\paindrain\arduinolcd\test\pain drain\libraries\lvgl\src\misc\lv_style.h **** /**
 343:c:\projects\paindrain\arduinolcd\test\pain drain\libraries\lvgl\src\misc\lv_style.h ****  * Initialize a style
 344:c:\projects\paindrain\arduinolcd\test\pain drain\libraries\lvgl\src\misc\lv_style.h ****  * @param style pointer to a style to initialize
 345:c:\projects\paindrain\arduinolcd\test\pain drain\libraries\lvgl\src\misc\lv_style.h ****  * @note Do not call `lv_style_init` on styles that already have some properties
 346:c:\projects\paindrain\arduinolcd\test\pain drain\libraries\lvgl\src\misc\lv_style.h ****  *       because this function won't free the used memory, just sets a default state for the style.
 347:c:\projects\paindrain\arduinolcd\test\pain drain\libraries\lvgl\src\misc\lv_style.h ****  *       In other words be sure to initialize styles only once!
 348:c:\projects\paindrain\arduinolcd\test\pain drain\libraries\lvgl\src\misc\lv_style.h ****  */
 349:c:\projects\paindrain\arduinolcd\test\pain drain\libraries\lvgl\src\misc\lv_style.h **** void lv_style_init(lv_style_t * style);
 350:c:\projects\paindrain\arduinolcd\test\pain drain\libraries\lvgl\src\misc\lv_style.h **** 
 351:c:\projects\paindrain\arduinolcd\test\pain drain\libraries\lvgl\src\misc\lv_style.h **** /**
 352:c:\projects\paindrain\arduinolcd\test\pain drain\libraries\lvgl\src\misc\lv_style.h ****  * Clear all properties from a style and free all allocated memories.
 353:c:\projects\paindrain\arduinolcd\test\pain drain\libraries\lvgl\src\misc\lv_style.h ****  * @param style pointer to a style
 354:c:\projects\paindrain\arduinolcd\test\pain drain\libraries\lvgl\src\misc\lv_style.h ****  */
 355:c:\projects\paindrain\arduinolcd\test\pain drain\libraries\lvgl\src\misc\lv_style.h **** void lv_style_reset(lv_style_t * style);
 356:c:\projects\paindrain\arduinolcd\test\pain drain\libraries\lvgl\src\misc\lv_style.h **** 
 357:c:\projects\paindrain\arduinolcd\test\pain drain\libraries\lvgl\src\misc\lv_style.h **** /**
 358:c:\projects\paindrain\arduinolcd\test\pain drain\libraries\lvgl\src\misc\lv_style.h ****  * Register a new style property for custom usage
 359:c:\projects\paindrain\arduinolcd\test\pain drain\libraries\lvgl\src\misc\lv_style.h ****  * @return a new property ID, or LV_STYLE_PROP_INV if there are no more available.
 360:c:\projects\paindrain\arduinolcd\test\pain drain\libraries\lvgl\src\misc\lv_style.h ****  * @example
 361:c:\projects\paindrain\arduinolcd\test\pain drain\libraries\lvgl\src\misc\lv_style.h ****  * lv_style_prop_t MY_PROP;
 362:c:\projects\paindrain\arduinolcd\test\pain drain\libraries\lvgl\src\misc\lv_style.h ****  * static inline void lv_style_set_my_prop(lv_style_t * style, lv_color_t value) {
 363:c:\projects\paindrain\arduinolcd\test\pain drain\libraries\lvgl\src\misc\lv_style.h ****  * lv_style_value_t v = {.color = value}; lv_style_set_prop(style, MY_PROP, v); }
 364:c:\projects\paindrain\arduinolcd\test\pain drain\libraries\lvgl\src\misc\lv_style.h ****  *
 365:c:\projects\paindrain\arduinolcd\test\pain drain\libraries\lvgl\src\misc\lv_style.h ****  * ...
 366:c:\projects\paindrain\arduinolcd\test\pain drain\libraries\lvgl\src\misc\lv_style.h ****  * MY_PROP = lv_style_register_prop();
 367:c:\projects\paindrain\arduinolcd\test\pain drain\libraries\lvgl\src\misc\lv_style.h ****  * ...
 368:c:\projects\paindrain\arduinolcd\test\pain drain\libraries\lvgl\src\misc\lv_style.h ****  * lv_style_set_my_prop(&style1, lv_palette_main(LV_PALETTE_RED));
 369:c:\projects\paindrain\arduinolcd\test\pain drain\libraries\lvgl\src\misc\lv_style.h ****  */
 370:c:\projects\paindrain\arduinolcd\test\pain drain\libraries\lvgl\src\misc\lv_style.h **** lv_style_prop_t lv_style_register_prop(uint8_t flag);
 371:c:\projects\paindrain\arduinolcd\test\pain drain\libraries\lvgl\src\misc\lv_style.h **** 
 372:c:\projects\paindrain\arduinolcd\test\pain drain\libraries\lvgl\src\misc\lv_style.h **** /**
 373:c:\projects\paindrain\arduinolcd\test\pain drain\libraries\lvgl\src\misc\lv_style.h ****  * Get the number of custom properties that have been registered thus far.
 374:c:\projects\paindrain\arduinolcd\test\pain drain\libraries\lvgl\src\misc\lv_style.h ****  */
 375:c:\projects\paindrain\arduinolcd\test\pain drain\libraries\lvgl\src\misc\lv_style.h **** lv_style_prop_t lv_style_get_num_custom_props(void);
 376:c:\projects\paindrain\arduinolcd\test\pain drain\libraries\lvgl\src\misc\lv_style.h **** 
 377:c:\projects\paindrain\arduinolcd\test\pain drain\libraries\lvgl\src\misc\lv_style.h **** /**
 378:c:\projects\paindrain\arduinolcd\test\pain drain\libraries\lvgl\src\misc\lv_style.h ****  * Remove a property from a style
 379:c:\projects\paindrain\arduinolcd\test\pain drain\libraries\lvgl\src\misc\lv_style.h ****  * @param style pointer to a style
 380:c:\projects\paindrain\arduinolcd\test\pain drain\libraries\lvgl\src\misc\lv_style.h ****  * @param prop  a style property ORed with a state.
 381:c:\projects\paindrain\arduinolcd\test\pain drain\libraries\lvgl\src\misc\lv_style.h ****  * @return true: the property was found and removed; false: the property wasn't found
 382:c:\projects\paindrain\arduinolcd\test\pain drain\libraries\lvgl\src\misc\lv_style.h ****  */
 383:c:\projects\paindrain\arduinolcd\test\pain drain\libraries\lvgl\src\misc\lv_style.h **** bool lv_style_remove_prop(lv_style_t * style, lv_style_prop_t prop);
 384:c:\projects\paindrain\arduinolcd\test\pain drain\libraries\lvgl\src\misc\lv_style.h **** 
 385:c:\projects\paindrain\arduinolcd\test\pain drain\libraries\lvgl\src\misc\lv_style.h **** /**
 386:c:\projects\paindrain\arduinolcd\test\pain drain\libraries\lvgl\src\misc\lv_style.h ****  * Set the value of property in a style.
 387:c:\projects\paindrain\arduinolcd\test\pain drain\libraries\lvgl\src\misc\lv_style.h ****  * This function shouldn't be used directly by the user.
ARM GAS  C:\Users\haske\AppData\Local\Temp\ccSAQWsX.s 			page 58


 388:c:\projects\paindrain\arduinolcd\test\pain drain\libraries\lvgl\src\misc\lv_style.h ****  * Instead use `lv_style_set_<prop_name>()`. E.g. `lv_style_set_bg_color()`
 389:c:\projects\paindrain\arduinolcd\test\pain drain\libraries\lvgl\src\misc\lv_style.h ****  * @param style pointer to style
 390:c:\projects\paindrain\arduinolcd\test\pain drain\libraries\lvgl\src\misc\lv_style.h ****  * @param prop the ID of a property (e.g. `LV_STYLE_BG_COLOR`)
 391:c:\projects\paindrain\arduinolcd\test\pain drain\libraries\lvgl\src\misc\lv_style.h ****  * @param value `lv_style_value_t` variable in which a field is set according to the type of `prop`
 392:c:\projects\paindrain\arduinolcd\test\pain drain\libraries\lvgl\src\misc\lv_style.h ****  */
 393:c:\projects\paindrain\arduinolcd\test\pain drain\libraries\lvgl\src\misc\lv_style.h **** void lv_style_set_prop(lv_style_t * style, lv_style_prop_t prop, lv_style_value_t value);
 394:c:\projects\paindrain\arduinolcd\test\pain drain\libraries\lvgl\src\misc\lv_style.h **** 
 395:c:\projects\paindrain\arduinolcd\test\pain drain\libraries\lvgl\src\misc\lv_style.h **** /**
 396:c:\projects\paindrain\arduinolcd\test\pain drain\libraries\lvgl\src\misc\lv_style.h ****  * Set a special meta state for a property in a style.
 397:c:\projects\paindrain\arduinolcd\test\pain drain\libraries\lvgl\src\misc\lv_style.h ****  * This function shouldn't be used directly by the user.
 398:c:\projects\paindrain\arduinolcd\test\pain drain\libraries\lvgl\src\misc\lv_style.h ****  * @param style pointer to style
 399:c:\projects\paindrain\arduinolcd\test\pain drain\libraries\lvgl\src\misc\lv_style.h ****  * @param prop the ID of a property (e.g. `LV_STYLE_BG_COLOR`)
 400:c:\projects\paindrain\arduinolcd\test\pain drain\libraries\lvgl\src\misc\lv_style.h ****  * @param meta the meta value to attach to the property in the style
 401:c:\projects\paindrain\arduinolcd\test\pain drain\libraries\lvgl\src\misc\lv_style.h ****  */
 402:c:\projects\paindrain\arduinolcd\test\pain drain\libraries\lvgl\src\misc\lv_style.h **** void lv_style_set_prop_meta(lv_style_t * style, lv_style_prop_t prop, uint16_t meta);
 403:c:\projects\paindrain\arduinolcd\test\pain drain\libraries\lvgl\src\misc\lv_style.h **** 
 404:c:\projects\paindrain\arduinolcd\test\pain drain\libraries\lvgl\src\misc\lv_style.h **** /**
 405:c:\projects\paindrain\arduinolcd\test\pain drain\libraries\lvgl\src\misc\lv_style.h ****  * Get the value of a property
 406:c:\projects\paindrain\arduinolcd\test\pain drain\libraries\lvgl\src\misc\lv_style.h ****  * @param style pointer to a style
 407:c:\projects\paindrain\arduinolcd\test\pain drain\libraries\lvgl\src\misc\lv_style.h ****  * @param prop  the ID of a property
 408:c:\projects\paindrain\arduinolcd\test\pain drain\libraries\lvgl\src\misc\lv_style.h ****  * @param value pointer to a `lv_style_value_t` variable to store the value
 409:c:\projects\paindrain\arduinolcd\test\pain drain\libraries\lvgl\src\misc\lv_style.h ****  * @return LV_RES_INV: the property wasn't found in the style (`value` is unchanged)
 410:c:\projects\paindrain\arduinolcd\test\pain drain\libraries\lvgl\src\misc\lv_style.h ****  *         LV_RES_OK: the property was fond, and `value` is set accordingly
 411:c:\projects\paindrain\arduinolcd\test\pain drain\libraries\lvgl\src\misc\lv_style.h ****  * @note For performance reasons there are no sanity check on `style`
 412:c:\projects\paindrain\arduinolcd\test\pain drain\libraries\lvgl\src\misc\lv_style.h ****  */
 413:c:\projects\paindrain\arduinolcd\test\pain drain\libraries\lvgl\src\misc\lv_style.h **** lv_style_res_t lv_style_get_prop(const lv_style_t * style, lv_style_prop_t prop, lv_style_value_t *
 414:c:\projects\paindrain\arduinolcd\test\pain drain\libraries\lvgl\src\misc\lv_style.h **** 
 415:c:\projects\paindrain\arduinolcd\test\pain drain\libraries\lvgl\src\misc\lv_style.h **** /**
 416:c:\projects\paindrain\arduinolcd\test\pain drain\libraries\lvgl\src\misc\lv_style.h ****  * Initialize a transition descriptor.
 417:c:\projects\paindrain\arduinolcd\test\pain drain\libraries\lvgl\src\misc\lv_style.h ****  * @param tr        pointer to a transition descriptor to initialize
 418:c:\projects\paindrain\arduinolcd\test\pain drain\libraries\lvgl\src\misc\lv_style.h ****  * @param props     an array with the properties to transition. The last element must be zero.
 419:c:\projects\paindrain\arduinolcd\test\pain drain\libraries\lvgl\src\misc\lv_style.h ****  * @param path_cb   an animation path (ease) callback. If `NULL` liner path will be used.
 420:c:\projects\paindrain\arduinolcd\test\pain drain\libraries\lvgl\src\misc\lv_style.h ****  * @param time      duration of the transition in [ms]
 421:c:\projects\paindrain\arduinolcd\test\pain drain\libraries\lvgl\src\misc\lv_style.h ****  * @param delay     delay before the transition in [ms]
 422:c:\projects\paindrain\arduinolcd\test\pain drain\libraries\lvgl\src\misc\lv_style.h ****  * @param user_data any custom data that will be saved in the transition animation and will be avai
 423:c:\projects\paindrain\arduinolcd\test\pain drain\libraries\lvgl\src\misc\lv_style.h ****  * @example
 424:c:\projects\paindrain\arduinolcd\test\pain drain\libraries\lvgl\src\misc\lv_style.h ****  * const static lv_style_prop_t trans_props[] = { LV_STYLE_BG_OPA, LV_STYLE_BG_COLOR, 0 };
 425:c:\projects\paindrain\arduinolcd\test\pain drain\libraries\lvgl\src\misc\lv_style.h ****  *  static lv_style_transition_dsc_t trans1;
 426:c:\projects\paindrain\arduinolcd\test\pain drain\libraries\lvgl\src\misc\lv_style.h ****  *  lv_style_transition_dsc_init(&trans1, trans_props, NULL, 300, 0, NULL);
 427:c:\projects\paindrain\arduinolcd\test\pain drain\libraries\lvgl\src\misc\lv_style.h ****  */
 428:c:\projects\paindrain\arduinolcd\test\pain drain\libraries\lvgl\src\misc\lv_style.h **** void lv_style_transition_dsc_init(lv_style_transition_dsc_t * tr, const lv_style_prop_t props[],
 429:c:\projects\paindrain\arduinolcd\test\pain drain\libraries\lvgl\src\misc\lv_style.h ****                                   lv_anim_path_cb_t path_cb, uint32_t time, uint32_t delay, void * 
 430:c:\projects\paindrain\arduinolcd\test\pain drain\libraries\lvgl\src\misc\lv_style.h **** 
 431:c:\projects\paindrain\arduinolcd\test\pain drain\libraries\lvgl\src\misc\lv_style.h **** /**
 432:c:\projects\paindrain\arduinolcd\test\pain drain\libraries\lvgl\src\misc\lv_style.h ****  * Get the default value of a property
 433:c:\projects\paindrain\arduinolcd\test\pain drain\libraries\lvgl\src\misc\lv_style.h ****  * @param prop the ID of a property
 434:c:\projects\paindrain\arduinolcd\test\pain drain\libraries\lvgl\src\misc\lv_style.h ****  * @return the default value
 435:c:\projects\paindrain\arduinolcd\test\pain drain\libraries\lvgl\src\misc\lv_style.h ****  */
 436:c:\projects\paindrain\arduinolcd\test\pain drain\libraries\lvgl\src\misc\lv_style.h **** lv_style_value_t lv_style_prop_get_default(lv_style_prop_t prop);
 437:c:\projects\paindrain\arduinolcd\test\pain drain\libraries\lvgl\src\misc\lv_style.h **** 
 438:c:\projects\paindrain\arduinolcd\test\pain drain\libraries\lvgl\src\misc\lv_style.h **** /**
 439:c:\projects\paindrain\arduinolcd\test\pain drain\libraries\lvgl\src\misc\lv_style.h ****  * Get the value of a property
 440:c:\projects\paindrain\arduinolcd\test\pain drain\libraries\lvgl\src\misc\lv_style.h ****  * @param style pointer to a style
 441:c:\projects\paindrain\arduinolcd\test\pain drain\libraries\lvgl\src\misc\lv_style.h ****  * @param prop  the ID of a property
 442:c:\projects\paindrain\arduinolcd\test\pain drain\libraries\lvgl\src\misc\lv_style.h ****  * @param value pointer to a `lv_style_value_t` variable to store the value
 443:c:\projects\paindrain\arduinolcd\test\pain drain\libraries\lvgl\src\misc\lv_style.h ****  * @return LV_RES_INV: the property wasn't found in the style (`value` is unchanged)
 444:c:\projects\paindrain\arduinolcd\test\pain drain\libraries\lvgl\src\misc\lv_style.h ****  *         LV_RES_OK: the property was fond, and `value` is set accordingly
ARM GAS  C:\Users\haske\AppData\Local\Temp\ccSAQWsX.s 			page 59


 445:c:\projects\paindrain\arduinolcd\test\pain drain\libraries\lvgl\src\misc\lv_style.h ****  * @note For performance reasons there are no sanity check on `style`
 446:c:\projects\paindrain\arduinolcd\test\pain drain\libraries\lvgl\src\misc\lv_style.h ****  * @note This function is the same as ::lv_style_get_prop but inlined. Use it only on performance c
 447:c:\projects\paindrain\arduinolcd\test\pain drain\libraries\lvgl\src\misc\lv_style.h ****  */
 448:c:\projects\paindrain\arduinolcd\test\pain drain\libraries\lvgl\src\misc\lv_style.h **** static inline lv_style_res_t lv_style_get_prop_inlined(const lv_style_t * style, lv_style_prop_t pr
 449:c:\projects\paindrain\arduinolcd\test\pain drain\libraries\lvgl\src\misc\lv_style.h ****                                                        lv_style_value_t * value)
 450:c:\projects\paindrain\arduinolcd\test\pain drain\libraries\lvgl\src\misc\lv_style.h **** {
 451:c:\projects\paindrain\arduinolcd\test\pain drain\libraries\lvgl\src\misc\lv_style.h ****     if(style->prop1 == LV_STYLE_PROP_ANY) {
 452:c:\projects\paindrain\arduinolcd\test\pain drain\libraries\lvgl\src\misc\lv_style.h ****         const lv_style_const_prop_t * const_prop;
 453:c:\projects\paindrain\arduinolcd\test\pain drain\libraries\lvgl\src\misc\lv_style.h ****         uint32_t i;
 454:c:\projects\paindrain\arduinolcd\test\pain drain\libraries\lvgl\src\misc\lv_style.h ****         for(i = 0; i < style->prop_cnt; i++) {
 455:c:\projects\paindrain\arduinolcd\test\pain drain\libraries\lvgl\src\misc\lv_style.h ****             const_prop = style->v_p.const_props + i;
 456:c:\projects\paindrain\arduinolcd\test\pain drain\libraries\lvgl\src\misc\lv_style.h ****             lv_style_prop_t prop_id = LV_STYLE_PROP_ID_MASK(const_prop->prop);
 457:c:\projects\paindrain\arduinolcd\test\pain drain\libraries\lvgl\src\misc\lv_style.h ****             if(prop_id == prop) {
 458:c:\projects\paindrain\arduinolcd\test\pain drain\libraries\lvgl\src\misc\lv_style.h ****                 if(const_prop->prop & LV_STYLE_PROP_META_INHERIT)
 459:c:\projects\paindrain\arduinolcd\test\pain drain\libraries\lvgl\src\misc\lv_style.h ****                     return LV_STYLE_RES_INHERIT;
 460:c:\projects\paindrain\arduinolcd\test\pain drain\libraries\lvgl\src\misc\lv_style.h ****                 *value = (const_prop->prop & LV_STYLE_PROP_META_INITIAL) ? lv_style_prop_get_defaul
 461:c:\projects\paindrain\arduinolcd\test\pain drain\libraries\lvgl\src\misc\lv_style.h ****                 return LV_STYLE_RES_FOUND;
 462:c:\projects\paindrain\arduinolcd\test\pain drain\libraries\lvgl\src\misc\lv_style.h ****             }
 463:c:\projects\paindrain\arduinolcd\test\pain drain\libraries\lvgl\src\misc\lv_style.h ****         }
 464:c:\projects\paindrain\arduinolcd\test\pain drain\libraries\lvgl\src\misc\lv_style.h ****         return LV_STYLE_RES_NOT_FOUND;
 465:c:\projects\paindrain\arduinolcd\test\pain drain\libraries\lvgl\src\misc\lv_style.h ****     }
 466:c:\projects\paindrain\arduinolcd\test\pain drain\libraries\lvgl\src\misc\lv_style.h **** 
 467:c:\projects\paindrain\arduinolcd\test\pain drain\libraries\lvgl\src\misc\lv_style.h ****     if(style->prop_cnt == 0) return LV_STYLE_RES_NOT_FOUND;
 468:c:\projects\paindrain\arduinolcd\test\pain drain\libraries\lvgl\src\misc\lv_style.h **** 
 469:c:\projects\paindrain\arduinolcd\test\pain drain\libraries\lvgl\src\misc\lv_style.h ****     if(style->prop_cnt > 1) {
 470:c:\projects\paindrain\arduinolcd\test\pain drain\libraries\lvgl\src\misc\lv_style.h ****         uint8_t * tmp = style->v_p.values_and_props + style->prop_cnt * sizeof(lv_style_value_t);
 471:c:\projects\paindrain\arduinolcd\test\pain drain\libraries\lvgl\src\misc\lv_style.h ****         uint16_t * props = (uint16_t *)tmp;
 472:c:\projects\paindrain\arduinolcd\test\pain drain\libraries\lvgl\src\misc\lv_style.h ****         uint32_t i;
 473:c:\projects\paindrain\arduinolcd\test\pain drain\libraries\lvgl\src\misc\lv_style.h ****         for(i = 0; i < style->prop_cnt; i++) {
 474:c:\projects\paindrain\arduinolcd\test\pain drain\libraries\lvgl\src\misc\lv_style.h ****             lv_style_prop_t prop_id = LV_STYLE_PROP_ID_MASK(props[i]);
 475:c:\projects\paindrain\arduinolcd\test\pain drain\libraries\lvgl\src\misc\lv_style.h ****             if(prop_id == prop) {
 476:c:\projects\paindrain\arduinolcd\test\pain drain\libraries\lvgl\src\misc\lv_style.h ****                 if(props[i] & LV_STYLE_PROP_META_INHERIT)
 477:c:\projects\paindrain\arduinolcd\test\pain drain\libraries\lvgl\src\misc\lv_style.h ****                     return LV_STYLE_RES_INHERIT;
 478:c:\projects\paindrain\arduinolcd\test\pain drain\libraries\lvgl\src\misc\lv_style.h ****                 if(props[i] & LV_STYLE_PROP_META_INITIAL)
 479:c:\projects\paindrain\arduinolcd\test\pain drain\libraries\lvgl\src\misc\lv_style.h ****                     *value = lv_style_prop_get_default(prop_id);
 480:c:\projects\paindrain\arduinolcd\test\pain drain\libraries\lvgl\src\misc\lv_style.h ****                 else {
 481:c:\projects\paindrain\arduinolcd\test\pain drain\libraries\lvgl\src\misc\lv_style.h ****                     lv_style_value_t * values = (lv_style_value_t *)style->v_p.values_and_props;
 482:c:\projects\paindrain\arduinolcd\test\pain drain\libraries\lvgl\src\misc\lv_style.h ****                     *value = values[i];
 483:c:\projects\paindrain\arduinolcd\test\pain drain\libraries\lvgl\src\misc\lv_style.h ****                 }
 484:c:\projects\paindrain\arduinolcd\test\pain drain\libraries\lvgl\src\misc\lv_style.h ****                 return LV_STYLE_RES_FOUND;
 485:c:\projects\paindrain\arduinolcd\test\pain drain\libraries\lvgl\src\misc\lv_style.h ****             }
 486:c:\projects\paindrain\arduinolcd\test\pain drain\libraries\lvgl\src\misc\lv_style.h ****         }
 487:c:\projects\paindrain\arduinolcd\test\pain drain\libraries\lvgl\src\misc\lv_style.h ****     }
 488:c:\projects\paindrain\arduinolcd\test\pain drain\libraries\lvgl\src\misc\lv_style.h ****     else if(LV_STYLE_PROP_ID_MASK(style->prop1) == prop) {
 489:c:\projects\paindrain\arduinolcd\test\pain drain\libraries\lvgl\src\misc\lv_style.h ****         if(style->prop1 & LV_STYLE_PROP_META_INHERIT)
 490:c:\projects\paindrain\arduinolcd\test\pain drain\libraries\lvgl\src\misc\lv_style.h ****             return LV_STYLE_RES_INHERIT;
 491:c:\projects\paindrain\arduinolcd\test\pain drain\libraries\lvgl\src\misc\lv_style.h ****         *value = (style->prop1 & LV_STYLE_PROP_META_INITIAL) ? lv_style_prop_get_default(LV_STYLE_P
 492:c:\projects\paindrain\arduinolcd\test\pain drain\libraries\lvgl\src\misc\lv_style.h ****                                                                                              style-
 493:c:\projects\paindrain\arduinolcd\test\pain drain\libraries\lvgl\src\misc\lv_style.h ****         return LV_STYLE_RES_FOUND;
 494:c:\projects\paindrain\arduinolcd\test\pain drain\libraries\lvgl\src\misc\lv_style.h ****     }
 495:c:\projects\paindrain\arduinolcd\test\pain drain\libraries\lvgl\src\misc\lv_style.h ****     return LV_STYLE_RES_NOT_FOUND;
 496:c:\projects\paindrain\arduinolcd\test\pain drain\libraries\lvgl\src\misc\lv_style.h **** }
 497:c:\projects\paindrain\arduinolcd\test\pain drain\libraries\lvgl\src\misc\lv_style.h **** 
 498:c:\projects\paindrain\arduinolcd\test\pain drain\libraries\lvgl\src\misc\lv_style.h **** /**
 499:c:\projects\paindrain\arduinolcd\test\pain drain\libraries\lvgl\src\misc\lv_style.h ****  * Checks if a style is empty (has no properties)
 500:c:\projects\paindrain\arduinolcd\test\pain drain\libraries\lvgl\src\misc\lv_style.h ****  * @param style pointer to a style
 501:c:\projects\paindrain\arduinolcd\test\pain drain\libraries\lvgl\src\misc\lv_style.h ****  * @return true if the style is empty
ARM GAS  C:\Users\haske\AppData\Local\Temp\ccSAQWsX.s 			page 60


 502:c:\projects\paindrain\arduinolcd\test\pain drain\libraries\lvgl\src\misc\lv_style.h ****  */
 503:c:\projects\paindrain\arduinolcd\test\pain drain\libraries\lvgl\src\misc\lv_style.h **** bool lv_style_is_empty(const lv_style_t * style);
 504:c:\projects\paindrain\arduinolcd\test\pain drain\libraries\lvgl\src\misc\lv_style.h **** 
 505:c:\projects\paindrain\arduinolcd\test\pain drain\libraries\lvgl\src\misc\lv_style.h **** /**
 506:c:\projects\paindrain\arduinolcd\test\pain drain\libraries\lvgl\src\misc\lv_style.h ****  * Tell the group of a property. If the a property from a group is set in a style the (1 << group) 
 507:c:\projects\paindrain\arduinolcd\test\pain drain\libraries\lvgl\src\misc\lv_style.h ****  * It allows early skipping the style if the property is not exists in the style at all.
 508:c:\projects\paindrain\arduinolcd\test\pain drain\libraries\lvgl\src\misc\lv_style.h ****  * @param prop a style property
 509:c:\projects\paindrain\arduinolcd\test\pain drain\libraries\lvgl\src\misc\lv_style.h ****  * @return the group [0..7] 7 means all the custom properties with index > 112
 510:c:\projects\paindrain\arduinolcd\test\pain drain\libraries\lvgl\src\misc\lv_style.h ****  */
 511:c:\projects\paindrain\arduinolcd\test\pain drain\libraries\lvgl\src\misc\lv_style.h **** uint8_t _lv_style_get_prop_group(lv_style_prop_t prop);
 512:c:\projects\paindrain\arduinolcd\test\pain drain\libraries\lvgl\src\misc\lv_style.h **** 
 513:c:\projects\paindrain\arduinolcd\test\pain drain\libraries\lvgl\src\misc\lv_style.h **** /**
 514:c:\projects\paindrain\arduinolcd\test\pain drain\libraries\lvgl\src\misc\lv_style.h ****  * Get the flags of a built-in or custom property.
 515:c:\projects\paindrain\arduinolcd\test\pain drain\libraries\lvgl\src\misc\lv_style.h ****  *
 516:c:\projects\paindrain\arduinolcd\test\pain drain\libraries\lvgl\src\misc\lv_style.h ****  * @param prop a style property
 517:c:\projects\paindrain\arduinolcd\test\pain drain\libraries\lvgl\src\misc\lv_style.h ****  * @return the flags of the property
 518:c:\projects\paindrain\arduinolcd\test\pain drain\libraries\lvgl\src\misc\lv_style.h ****  */
 519:c:\projects\paindrain\arduinolcd\test\pain drain\libraries\lvgl\src\misc\lv_style.h **** uint8_t _lv_style_prop_lookup_flags(lv_style_prop_t prop);
 520:c:\projects\paindrain\arduinolcd\test\pain drain\libraries\lvgl\src\misc\lv_style.h **** 
 521:c:\projects\paindrain\arduinolcd\test\pain drain\libraries\lvgl\src\misc\lv_style.h **** #include "lv_style_gen.h"
 522:c:\projects\paindrain\arduinolcd\test\pain drain\libraries\lvgl\src\misc\lv_style.h **** 
 523:c:\projects\paindrain\arduinolcd\test\pain drain\libraries\lvgl\src\misc\lv_style.h **** static inline void lv_style_set_size(lv_style_t * style, lv_coord_t value)
 524:c:\projects\paindrain\arduinolcd\test\pain drain\libraries\lvgl\src\misc\lv_style.h **** {
 525:c:\projects\paindrain\arduinolcd\test\pain drain\libraries\lvgl\src\misc\lv_style.h ****     lv_style_set_width(style, value);
 526:c:\projects\paindrain\arduinolcd\test\pain drain\libraries\lvgl\src\misc\lv_style.h ****     lv_style_set_height(style, value);
 527:c:\projects\paindrain\arduinolcd\test\pain drain\libraries\lvgl\src\misc\lv_style.h **** }
 528:c:\projects\paindrain\arduinolcd\test\pain drain\libraries\lvgl\src\misc\lv_style.h **** 
 529:c:\projects\paindrain\arduinolcd\test\pain drain\libraries\lvgl\src\misc\lv_style.h **** static inline void lv_style_set_pad_all(lv_style_t * style, lv_coord_t value)
 530:c:\projects\paindrain\arduinolcd\test\pain drain\libraries\lvgl\src\misc\lv_style.h **** {
 531:c:\projects\paindrain\arduinolcd\test\pain drain\libraries\lvgl\src\misc\lv_style.h ****     lv_style_set_pad_left(style, value);
 1747              		.loc 3 531 0 discriminator 4
 1748 0106 0421     		movs	r1, #4
 1749 0108 2000     		movs	r0, r4
 1750 010a FFF7FEFF 		bl	lv_style_set_pad_left
 1751              	.LVL225:
 532:c:\projects\paindrain\arduinolcd\test\pain drain\libraries\lvgl\src\misc\lv_style.h ****     lv_style_set_pad_right(style, value);
 1752              		.loc 3 532 0 discriminator 4
 1753 010e 0421     		movs	r1, #4
 1754 0110 2000     		movs	r0, r4
 1755 0112 FFF7FEFF 		bl	lv_style_set_pad_right
 1756              	.LVL226:
 533:c:\projects\paindrain\arduinolcd\test\pain drain\libraries\lvgl\src\misc\lv_style.h ****     lv_style_set_pad_top(style, value);
 1757              		.loc 3 533 0 discriminator 4
 1758 0116 0421     		movs	r1, #4
 1759 0118 2000     		movs	r0, r4
 1760 011a FFF7FEFF 		bl	lv_style_set_pad_top
 1761              	.LVL227:
 534:c:\projects\paindrain\arduinolcd\test\pain drain\libraries\lvgl\src\misc\lv_style.h ****     lv_style_set_pad_bottom(style, value);
 1762              		.loc 3 534 0 discriminator 4
 1763 011e 0421     		movs	r1, #4
 1764 0120 2000     		movs	r0, r4
 1765 0122 FFF7FEFF 		bl	lv_style_set_pad_bottom
 1766              	.LVL228:
 1767              	.LBE263:
 1768              	.LBE262:
  99:..\..\..\arduinoLCD\test\Pain Drain\libraries\lvgl\src\extra\themes\mono/lv_theme_mono.c ****     lv_style_set_text_color(&styles->card, COLOR_FG);
 1769              		.loc 1 99 0 discriminator 4
ARM GAS  C:\Users\haske\AppData\Local\Temp\ccSAQWsX.s 			page 61


 1770 0126 3468     		ldr	r4, [r6]
 1771 0128 0834     		adds	r4, r4, #8
 1772              	.LVL229:
 1773              	.LBB264:
 1774              	.LBB265:
 535:c:\projects\paindrain\arduinolcd\test\pain drain\libraries\lvgl\src\misc\lv_style.h **** }
 536:c:\projects\paindrain\arduinolcd\test\pain drain\libraries\lvgl\src\misc\lv_style.h **** 
 537:c:\projects\paindrain\arduinolcd\test\pain drain\libraries\lvgl\src\misc\lv_style.h **** static inline void lv_style_set_pad_hor(lv_style_t * style, lv_coord_t value)
 538:c:\projects\paindrain\arduinolcd\test\pain drain\libraries\lvgl\src\misc\lv_style.h **** {
 539:c:\projects\paindrain\arduinolcd\test\pain drain\libraries\lvgl\src\misc\lv_style.h ****     lv_style_set_pad_left(style, value);
 540:c:\projects\paindrain\arduinolcd\test\pain drain\libraries\lvgl\src\misc\lv_style.h ****     lv_style_set_pad_right(style, value);
 541:c:\projects\paindrain\arduinolcd\test\pain drain\libraries\lvgl\src\misc\lv_style.h **** }
 542:c:\projects\paindrain\arduinolcd\test\pain drain\libraries\lvgl\src\misc\lv_style.h **** 
 543:c:\projects\paindrain\arduinolcd\test\pain drain\libraries\lvgl\src\misc\lv_style.h **** static inline void lv_style_set_pad_ver(lv_style_t * style, lv_coord_t value)
 544:c:\projects\paindrain\arduinolcd\test\pain drain\libraries\lvgl\src\misc\lv_style.h **** {
 545:c:\projects\paindrain\arduinolcd\test\pain drain\libraries\lvgl\src\misc\lv_style.h ****     lv_style_set_pad_top(style, value);
 546:c:\projects\paindrain\arduinolcd\test\pain drain\libraries\lvgl\src\misc\lv_style.h ****     lv_style_set_pad_bottom(style, value);
 547:c:\projects\paindrain\arduinolcd\test\pain drain\libraries\lvgl\src\misc\lv_style.h **** }
 548:c:\projects\paindrain\arduinolcd\test\pain drain\libraries\lvgl\src\misc\lv_style.h **** 
 549:c:\projects\paindrain\arduinolcd\test\pain drain\libraries\lvgl\src\misc\lv_style.h **** static inline void lv_style_set_pad_gap(lv_style_t * style, lv_coord_t value)
 550:c:\projects\paindrain\arduinolcd\test\pain drain\libraries\lvgl\src\misc\lv_style.h **** {
 551:c:\projects\paindrain\arduinolcd\test\pain drain\libraries\lvgl\src\misc\lv_style.h ****     lv_style_set_pad_row(style, value);
 1775              		.loc 3 551 0 discriminator 4
 1776 012a 0421     		movs	r1, #4
 1777 012c 2000     		movs	r0, r4
 1778 012e FFF7FEFF 		bl	lv_style_set_pad_row
 1779              	.LVL230:
 552:c:\projects\paindrain\arduinolcd\test\pain drain\libraries\lvgl\src\misc\lv_style.h ****     lv_style_set_pad_column(style, value);
 1780              		.loc 3 552 0 discriminator 4
 1781 0132 0421     		movs	r1, #4
 1782 0134 2000     		movs	r0, r4
 1783 0136 FFF7FEFF 		bl	lv_style_set_pad_column
 1784              	.LVL231:
 1785              	.LBE265:
 1786              	.LBE264:
 100:..\..\..\arduinoLCD\test\Pain Drain\libraries\lvgl\src\extra\themes\mono/lv_theme_mono.c ****     lv_style_set_line_width(&styles->card, 2);
 1787              		.loc 1 100 0 discriminator 4
 1788 013a 3068     		ldr	r0, [r6]
 1789 013c 0830     		adds	r0, r0, #8
 1790 013e 002D     		cmp	r5, #0
 1791 0140 06D0     		beq	.L54
 1792              	.LVL232:
 1793              	.LBB266:
 1794              	.LBB267:
 1795              	.LBB268:
 1796              		.loc 2 590 0
 1797 0142 FC21     		movs	r1, #252
 1798 0144 C900     		lsls	r1, r1, #3
 1799 0146 1F23     		movs	r3, #31
 1800 0148 1943     		orrs	r1, r3
 1801              	.LVL233:
 1802 014a 544B     		ldr	r3, .L76+4
 1803 014c 1943     		orrs	r1, r3
 1804 014e 00E0     		b	.L55
 1805              	.L54:
 1806 0150 0021     		movs	r1, #0
 1807              	.L55:
ARM GAS  C:\Users\haske\AppData\Local\Temp\ccSAQWsX.s 			page 62


 1808              	.LBE268:
 1809              	.LBE267:
 1810              	.LBE266:
 100:..\..\..\arduinoLCD\test\Pain Drain\libraries\lvgl\src\extra\themes\mono/lv_theme_mono.c ****     lv_style_set_line_width(&styles->card, 2);
 1811              		.loc 1 100 0 discriminator 4
 1812 0152 FFF7FEFF 		bl	lv_style_set_text_color
 1813              	.LVL234:
 101:..\..\..\arduinoLCD\test\Pain Drain\libraries\lvgl\src\extra\themes\mono/lv_theme_mono.c ****     lv_style_set_line_color(&styles->card, COLOR_FG);
 1814              		.loc 1 101 0 discriminator 4
 1815 0156 504C     		ldr	r4, .L76
 1816 0158 2068     		ldr	r0, [r4]
 1817 015a 0830     		adds	r0, r0, #8
 1818 015c 0221     		movs	r1, #2
 1819 015e FFF7FEFF 		bl	lv_style_set_line_width
 1820              	.LVL235:
 102:..\..\..\arduinoLCD\test\Pain Drain\libraries\lvgl\src\extra\themes\mono/lv_theme_mono.c ****     lv_style_set_arc_width(&styles->card, 2);
 1821              		.loc 1 102 0 discriminator 4
 1822 0162 2068     		ldr	r0, [r4]
 1823 0164 0830     		adds	r0, r0, #8
 1824 0166 002D     		cmp	r5, #0
 1825 0168 06D0     		beq	.L56
 1826              	.LVL236:
 1827              	.LBB269:
 1828              	.LBB270:
 1829              	.LBB271:
 1830              		.loc 2 590 0
 1831 016a FC21     		movs	r1, #252
 1832 016c C900     		lsls	r1, r1, #3
 1833 016e 1F23     		movs	r3, #31
 1834 0170 1943     		orrs	r1, r3
 1835              	.LVL237:
 1836 0172 4A4B     		ldr	r3, .L76+4
 1837 0174 1943     		orrs	r1, r3
 1838 0176 00E0     		b	.L57
 1839              	.L56:
 1840 0178 0021     		movs	r1, #0
 1841              	.L57:
 1842              	.LBE271:
 1843              	.LBE270:
 1844              	.LBE269:
 102:..\..\..\arduinoLCD\test\Pain Drain\libraries\lvgl\src\extra\themes\mono/lv_theme_mono.c ****     lv_style_set_arc_width(&styles->card, 2);
 1845              		.loc 1 102 0 discriminator 4
 1846 017a FFF7FEFF 		bl	lv_style_set_line_color
 1847              	.LVL238:
 103:..\..\..\arduinoLCD\test\Pain Drain\libraries\lvgl\src\extra\themes\mono/lv_theme_mono.c ****     lv_style_set_arc_color(&styles->card, COLOR_FG);
 1848              		.loc 1 103 0 discriminator 4
 1849 017e 464C     		ldr	r4, .L76
 1850 0180 2068     		ldr	r0, [r4]
 1851 0182 0830     		adds	r0, r0, #8
 1852 0184 0221     		movs	r1, #2
 1853 0186 FFF7FEFF 		bl	lv_style_set_arc_width
 1854              	.LVL239:
 104:..\..\..\arduinoLCD\test\Pain Drain\libraries\lvgl\src\extra\themes\mono/lv_theme_mono.c ****     lv_style_set_outline_color(&styles->card, COLOR_FG);
 1855              		.loc 1 104 0 discriminator 4
 1856 018a 2068     		ldr	r0, [r4]
 1857 018c 0830     		adds	r0, r0, #8
 1858 018e 002D     		cmp	r5, #0
ARM GAS  C:\Users\haske\AppData\Local\Temp\ccSAQWsX.s 			page 63


 1859 0190 06D0     		beq	.L58
 1860              	.LVL240:
 1861              	.LBB272:
 1862              	.LBB273:
 1863              	.LBB274:
 1864              		.loc 2 590 0
 1865 0192 FC21     		movs	r1, #252
 1866 0194 C900     		lsls	r1, r1, #3
 1867 0196 1F23     		movs	r3, #31
 1868 0198 1943     		orrs	r1, r3
 1869              	.LVL241:
 1870 019a 404B     		ldr	r3, .L76+4
 1871 019c 1943     		orrs	r1, r3
 1872 019e 00E0     		b	.L59
 1873              	.L58:
 1874 01a0 0021     		movs	r1, #0
 1875              	.L59:
 1876              	.LBE274:
 1877              	.LBE273:
 1878              	.LBE272:
 104:..\..\..\arduinoLCD\test\Pain Drain\libraries\lvgl\src\extra\themes\mono/lv_theme_mono.c ****     lv_style_set_outline_color(&styles->card, COLOR_FG);
 1879              		.loc 1 104 0 discriminator 4
 1880 01a2 FFF7FEFF 		bl	lv_style_set_arc_color
 1881              	.LVL242:
 105:..\..\..\arduinoLCD\test\Pain Drain\libraries\lvgl\src\extra\themes\mono/lv_theme_mono.c ****     lv_style_set_anim_time(&styles->card, 300);
 1882              		.loc 1 105 0 discriminator 4
 1883 01a6 3C4B     		ldr	r3, .L76
 1884 01a8 1868     		ldr	r0, [r3]
 1885 01aa 0830     		adds	r0, r0, #8
 1886 01ac 002D     		cmp	r5, #0
 1887 01ae 06D0     		beq	.L60
 1888              	.LVL243:
 1889              	.LBB275:
 1890              	.LBB276:
 1891              	.LBB277:
 1892              		.loc 2 590 0
 1893 01b0 FC21     		movs	r1, #252
 1894 01b2 C900     		lsls	r1, r1, #3
 1895 01b4 1F23     		movs	r3, #31
 1896 01b6 1943     		orrs	r1, r3
 1897              	.LVL244:
 1898 01b8 384B     		ldr	r3, .L76+4
 1899 01ba 1943     		orrs	r1, r3
 1900 01bc 00E0     		b	.L61
 1901              	.L60:
 1902 01be 0021     		movs	r1, #0
 1903              	.L61:
 1904              	.LBE277:
 1905              	.LBE276:
 1906              	.LBE275:
 105:..\..\..\arduinoLCD\test\Pain Drain\libraries\lvgl\src\extra\themes\mono/lv_theme_mono.c ****     lv_style_set_anim_time(&styles->card, 300);
 1907              		.loc 1 105 0 discriminator 4
 1908 01c0 FFF7FEFF 		bl	lv_style_set_outline_color
 1909              	.LVL245:
 106:..\..\..\arduinoLCD\test\Pain Drain\libraries\lvgl\src\extra\themes\mono/lv_theme_mono.c **** 
 1910              		.loc 1 106 0 discriminator 4
 1911 01c4 344C     		ldr	r4, .L76
ARM GAS  C:\Users\haske\AppData\Local\Temp\ccSAQWsX.s 			page 64


 1912 01c6 2068     		ldr	r0, [r4]
 1913 01c8 0830     		adds	r0, r0, #8
 1914 01ca 9621     		movs	r1, #150
 1915 01cc 4900     		lsls	r1, r1, #1
 1916 01ce FFF7FEFF 		bl	lv_style_set_anim_time
 1917              	.LVL246:
 108:..\..\..\arduinoLCD\test\Pain Drain\libraries\lvgl\src\extra\themes\mono/lv_theme_mono.c ****     lv_style_set_border_width(&styles->pr, BORDER_W_PR);
 1918              		.loc 1 108 0 discriminator 4
 1919 01d2 2068     		ldr	r0, [r4]
 1920 01d4 2030     		adds	r0, r0, #32
 1921 01d6 FFF7FEFF 		bl	style_init_reset
 1922              	.LVL247:
 109:..\..\..\arduinoLCD\test\Pain Drain\libraries\lvgl\src\extra\themes\mono/lv_theme_mono.c **** 
 1923              		.loc 1 109 0 discriminator 4
 1924 01da 2068     		ldr	r0, [r4]
 1925 01dc 2030     		adds	r0, r0, #32
 1926 01de 0321     		movs	r1, #3
 1927 01e0 FFF7FEFF 		bl	lv_style_set_border_width
 1928              	.LVL248:
 111:..\..\..\arduinoLCD\test\Pain Drain\libraries\lvgl\src\extra\themes\mono/lv_theme_mono.c ****     lv_style_set_bg_opa(&styles->inv, LV_OPA_COVER);
 1929              		.loc 1 111 0 discriminator 4
 1930 01e4 2068     		ldr	r0, [r4]
 1931 01e6 2830     		adds	r0, r0, #40
 1932 01e8 FFF7FEFF 		bl	style_init_reset
 1933              	.LVL249:
 112:..\..\..\arduinoLCD\test\Pain Drain\libraries\lvgl\src\extra\themes\mono/lv_theme_mono.c ****     lv_style_set_bg_color(&styles->inv, COLOR_FG);
 1934              		.loc 1 112 0 discriminator 4
 1935 01ec 2068     		ldr	r0, [r4]
 1936 01ee 2830     		adds	r0, r0, #40
 1937 01f0 FF21     		movs	r1, #255
 1938 01f2 FFF7FEFF 		bl	lv_style_set_bg_opa
 1939              	.LVL250:
 113:..\..\..\arduinoLCD\test\Pain Drain\libraries\lvgl\src\extra\themes\mono/lv_theme_mono.c ****     lv_style_set_border_color(&styles->inv, COLOR_BG);
 1940              		.loc 1 113 0 discriminator 4
 1941 01f6 2068     		ldr	r0, [r4]
 1942 01f8 2830     		adds	r0, r0, #40
 1943 01fa 002D     		cmp	r5, #0
 1944 01fc 06D0     		beq	.L62
 1945              	.LVL251:
 1946              	.LBB278:
 1947              	.LBB279:
 1948              	.LBB280:
 1949              		.loc 2 590 0
 1950 01fe FC21     		movs	r1, #252
 1951 0200 C900     		lsls	r1, r1, #3
 1952 0202 1F23     		movs	r3, #31
 1953 0204 1943     		orrs	r1, r3
 1954              	.LVL252:
 1955 0206 254B     		ldr	r3, .L76+4
 1956 0208 1943     		orrs	r1, r3
 1957 020a 00E0     		b	.L63
 1958              	.L62:
 1959 020c 0021     		movs	r1, #0
 1960              	.L63:
 1961              	.LBE280:
 1962              	.LBE279:
 1963              	.LBE278:
ARM GAS  C:\Users\haske\AppData\Local\Temp\ccSAQWsX.s 			page 65


 113:..\..\..\arduinoLCD\test\Pain Drain\libraries\lvgl\src\extra\themes\mono/lv_theme_mono.c ****     lv_style_set_border_color(&styles->inv, COLOR_BG);
 1964              		.loc 1 113 0 discriminator 4
 1965 020e FFF7FEFF 		bl	lv_style_set_bg_color
 1966              	.LVL253:
 114:..\..\..\arduinoLCD\test\Pain Drain\libraries\lvgl\src\extra\themes\mono/lv_theme_mono.c ****     lv_style_set_line_color(&styles->inv, COLOR_BG);
 1967              		.loc 1 114 0 discriminator 4
 1968 0212 214B     		ldr	r3, .L76
 1969 0214 1868     		ldr	r0, [r3]
 1970 0216 2830     		adds	r0, r0, #40
 1971 0218 002D     		cmp	r5, #0
 1972 021a 01D0     		beq	.L64
 1973 021c 0021     		movs	r1, #0
 1974 021e 05E0     		b	.L65
 1975              	.L64:
 1976              	.LVL254:
 1977              	.LBB281:
 1978              	.LBB282:
 1979              	.LBB283:
 1980              		.loc 2 590 0
 1981 0220 FC21     		movs	r1, #252
 1982 0222 C900     		lsls	r1, r1, #3
 1983 0224 1F23     		movs	r3, #31
 1984 0226 1943     		orrs	r1, r3
 1985              	.LVL255:
 1986 0228 1C4B     		ldr	r3, .L76+4
 1987 022a 1943     		orrs	r1, r3
 1988              	.L65:
 1989              	.LBE283:
 1990              	.LBE282:
 1991              	.LBE281:
 114:..\..\..\arduinoLCD\test\Pain Drain\libraries\lvgl\src\extra\themes\mono/lv_theme_mono.c ****     lv_style_set_line_color(&styles->inv, COLOR_BG);
 1992              		.loc 1 114 0 discriminator 4
 1993 022c FFF7FEFF 		bl	lv_style_set_border_color
 1994              	.LVL256:
 115:..\..\..\arduinoLCD\test\Pain Drain\libraries\lvgl\src\extra\themes\mono/lv_theme_mono.c ****     lv_style_set_arc_color(&styles->inv, COLOR_BG);
 1995              		.loc 1 115 0 discriminator 4
 1996 0230 194B     		ldr	r3, .L76
 1997 0232 1868     		ldr	r0, [r3]
 1998 0234 2830     		adds	r0, r0, #40
 1999 0236 002D     		cmp	r5, #0
 2000 0238 01D0     		beq	.L66
 2001 023a 0021     		movs	r1, #0
 2002 023c 05E0     		b	.L67
 2003              	.L66:
 2004              	.LVL257:
 2005              	.LBB284:
 2006              	.LBB285:
 2007              	.LBB286:
 2008              		.loc 2 590 0
 2009 023e FC21     		movs	r1, #252
 2010 0240 C900     		lsls	r1, r1, #3
 2011 0242 1F23     		movs	r3, #31
 2012 0244 1943     		orrs	r1, r3
 2013              	.LVL258:
 2014 0246 154B     		ldr	r3, .L76+4
 2015 0248 1943     		orrs	r1, r3
 2016              	.L67:
ARM GAS  C:\Users\haske\AppData\Local\Temp\ccSAQWsX.s 			page 66


 2017              	.LBE286:
 2018              	.LBE285:
 2019              	.LBE284:
 115:..\..\..\arduinoLCD\test\Pain Drain\libraries\lvgl\src\extra\themes\mono/lv_theme_mono.c ****     lv_style_set_arc_color(&styles->inv, COLOR_BG);
 2020              		.loc 1 115 0 discriminator 4
 2021 024a FFF7FEFF 		bl	lv_style_set_line_color
 2022              	.LVL259:
 116:..\..\..\arduinoLCD\test\Pain Drain\libraries\lvgl\src\extra\themes\mono/lv_theme_mono.c ****     lv_style_set_text_color(&styles->inv, COLOR_BG);
 2023              		.loc 1 116 0 discriminator 4
 2024 024e 124B     		ldr	r3, .L76
 2025 0250 1868     		ldr	r0, [r3]
 2026 0252 2830     		adds	r0, r0, #40
 2027 0254 002D     		cmp	r5, #0
 2028 0256 01D0     		beq	.L68
 2029 0258 0021     		movs	r1, #0
 2030 025a 05E0     		b	.L69
 2031              	.L68:
 2032              	.LVL260:
 2033              	.LBB287:
 2034              	.LBB288:
 2035              	.LBB289:
 2036              		.loc 2 590 0
 2037 025c FC21     		movs	r1, #252
 2038 025e C900     		lsls	r1, r1, #3
 2039 0260 1F23     		movs	r3, #31
 2040 0262 1943     		orrs	r1, r3
 2041              	.LVL261:
 2042 0264 0D4B     		ldr	r3, .L76+4
 2043 0266 1943     		orrs	r1, r3
 2044              	.L69:
 2045              	.LBE289:
 2046              	.LBE288:
 2047              	.LBE287:
 116:..\..\..\arduinoLCD\test\Pain Drain\libraries\lvgl\src\extra\themes\mono/lv_theme_mono.c ****     lv_style_set_text_color(&styles->inv, COLOR_BG);
 2048              		.loc 1 116 0 discriminator 4
 2049 0268 FFF7FEFF 		bl	lv_style_set_arc_color
 2050              	.LVL262:
 117:..\..\..\arduinoLCD\test\Pain Drain\libraries\lvgl\src\extra\themes\mono/lv_theme_mono.c ****     lv_style_set_outline_color(&styles->inv, COLOR_BG);
 2051              		.loc 1 117 0 discriminator 4
 2052 026c 0A4B     		ldr	r3, .L76
 2053 026e 1868     		ldr	r0, [r3]
 2054 0270 2830     		adds	r0, r0, #40
 2055 0272 002D     		cmp	r5, #0
 2056 0274 01D0     		beq	.L70
 2057 0276 0021     		movs	r1, #0
 2058 0278 05E0     		b	.L71
 2059              	.L70:
 2060              	.LVL263:
 2061              	.LBB290:
 2062              	.LBB291:
 2063              	.LBB292:
 2064              		.loc 2 590 0
 2065 027a FC21     		movs	r1, #252
 2066 027c C900     		lsls	r1, r1, #3
 2067 027e 1F23     		movs	r3, #31
 2068 0280 1943     		orrs	r1, r3
 2069              	.LVL264:
ARM GAS  C:\Users\haske\AppData\Local\Temp\ccSAQWsX.s 			page 67


 2070 0282 064B     		ldr	r3, .L76+4
 2071 0284 1943     		orrs	r1, r3
 2072              	.L71:
 2073              	.LBE292:
 2074              	.LBE291:
 2075              	.LBE290:
 117:..\..\..\arduinoLCD\test\Pain Drain\libraries\lvgl\src\extra\themes\mono/lv_theme_mono.c ****     lv_style_set_outline_color(&styles->inv, COLOR_BG);
 2076              		.loc 1 117 0 discriminator 4
 2077 0286 FFF7FEFF 		bl	lv_style_set_text_color
 2078              	.LVL265:
 118:..\..\..\arduinoLCD\test\Pain Drain\libraries\lvgl\src\extra\themes\mono/lv_theme_mono.c **** 
 2079              		.loc 1 118 0 discriminator 4
 2080 028a 034B     		ldr	r3, .L76
 2081 028c 1868     		ldr	r0, [r3]
 2082 028e 2830     		adds	r0, r0, #40
 2083 0290 002D     		cmp	r5, #0
 2084 0292 05D0     		beq	.L72
 2085 0294 0021     		movs	r1, #0
 2086 0296 09E0     		b	.L73
 2087              	.L77:
 2088              		.align	2
 2089              	.L76:
 2090 0298 00000000 		.word	.LANCHOR0
 2091 029c 00F8FFFF 		.word	-2048
 2092              	.L72:
 2093              	.LVL266:
 2094              	.LBB293:
 2095              	.LBB294:
 2096              	.LBB295:
 2097              		.loc 2 590 0
 2098 02a0 FC21     		movs	r1, #252
 2099 02a2 C900     		lsls	r1, r1, #3
 2100 02a4 1F23     		movs	r3, #31
 2101 02a6 1943     		orrs	r1, r3
 2102              	.LVL267:
 2103 02a8 544B     		ldr	r3, .L78
 2104 02aa 1943     		orrs	r1, r3
 2105              	.L73:
 2106              	.LBE295:
 2107              	.LBE294:
 2108              	.LBE293:
 118:..\..\..\arduinoLCD\test\Pain Drain\libraries\lvgl\src\extra\themes\mono/lv_theme_mono.c **** 
 2109              		.loc 1 118 0 discriminator 4
 2110 02ac FFF7FEFF 		bl	lv_style_set_outline_color
 2111              	.LVL268:
 120:..\..\..\arduinoLCD\test\Pain Drain\libraries\lvgl\src\extra\themes\mono/lv_theme_mono.c ****     lv_style_set_border_width(&styles->disabled, BORDER_W_DIS);
 2112              		.loc 1 120 0 discriminator 4
 2113 02b0 534C     		ldr	r4, .L78+4
 2114 02b2 2068     		ldr	r0, [r4]
 2115 02b4 3030     		adds	r0, r0, #48
 2116 02b6 FFF7FEFF 		bl	style_init_reset
 2117              	.LVL269:
 121:..\..\..\arduinoLCD\test\Pain Drain\libraries\lvgl\src\extra\themes\mono/lv_theme_mono.c **** 
 2118              		.loc 1 121 0 discriminator 4
 2119 02ba 2068     		ldr	r0, [r4]
 2120 02bc 3030     		adds	r0, r0, #48
 2121 02be 0021     		movs	r1, #0
ARM GAS  C:\Users\haske\AppData\Local\Temp\ccSAQWsX.s 			page 68


 2122 02c0 FFF7FEFF 		bl	lv_style_set_border_width
 2123              	.LVL270:
 123:..\..\..\arduinoLCD\test\Pain Drain\libraries\lvgl\src\extra\themes\mono/lv_theme_mono.c ****     lv_style_set_outline_width(&styles->focus, 1);
 2124              		.loc 1 123 0 discriminator 4
 2125 02c4 2068     		ldr	r0, [r4]
 2126 02c6 3830     		adds	r0, r0, #56
 2127 02c8 FFF7FEFF 		bl	style_init_reset
 2128              	.LVL271:
 124:..\..\..\arduinoLCD\test\Pain Drain\libraries\lvgl\src\extra\themes\mono/lv_theme_mono.c ****     lv_style_set_outline_pad(&styles->focus, BORDER_W_FOCUS);
 2129              		.loc 1 124 0 discriminator 4
 2130 02cc 2068     		ldr	r0, [r4]
 2131 02ce 3830     		adds	r0, r0, #56
 2132 02d0 0121     		movs	r1, #1
 2133 02d2 FFF7FEFF 		bl	lv_style_set_outline_width
 2134              	.LVL272:
 125:..\..\..\arduinoLCD\test\Pain Drain\libraries\lvgl\src\extra\themes\mono/lv_theme_mono.c **** 
 2135              		.loc 1 125 0 discriminator 4
 2136 02d6 2068     		ldr	r0, [r4]
 2137 02d8 3830     		adds	r0, r0, #56
 2138 02da 0121     		movs	r1, #1
 2139 02dc FFF7FEFF 		bl	lv_style_set_outline_pad
 2140              	.LVL273:
 127:..\..\..\arduinoLCD\test\Pain Drain\libraries\lvgl\src\extra\themes\mono/lv_theme_mono.c ****     lv_style_set_outline_width(&styles->edit, BORDER_W_EDIT);
 2141              		.loc 1 127 0 discriminator 4
 2142 02e0 2068     		ldr	r0, [r4]
 2143 02e2 4030     		adds	r0, r0, #64
 2144 02e4 FFF7FEFF 		bl	style_init_reset
 2145              	.LVL274:
 128:..\..\..\arduinoLCD\test\Pain Drain\libraries\lvgl\src\extra\themes\mono/lv_theme_mono.c **** 
 2146              		.loc 1 128 0 discriminator 4
 2147 02e8 2068     		ldr	r0, [r4]
 2148 02ea 4030     		adds	r0, r0, #64
 2149 02ec 0221     		movs	r1, #2
 2150 02ee FFF7FEFF 		bl	lv_style_set_outline_width
 2151              	.LVL275:
 130:..\..\..\arduinoLCD\test\Pain Drain\libraries\lvgl\src\extra\themes\mono/lv_theme_mono.c ****     lv_style_set_border_width(&styles->large_border, BORDER_W_EDIT);
 2152              		.loc 1 130 0 discriminator 4
 2153 02f2 2068     		ldr	r0, [r4]
 2154 02f4 6830     		adds	r0, r0, #104
 2155 02f6 FFF7FEFF 		bl	style_init_reset
 2156              	.LVL276:
 131:..\..\..\arduinoLCD\test\Pain Drain\libraries\lvgl\src\extra\themes\mono/lv_theme_mono.c **** 
 2157              		.loc 1 131 0 discriminator 4
 2158 02fa 2068     		ldr	r0, [r4]
 2159 02fc 6830     		adds	r0, r0, #104
 2160 02fe 0221     		movs	r1, #2
 2161 0300 FFF7FEFF 		bl	lv_style_set_border_width
 2162              	.LVL277:
 133:..\..\..\arduinoLCD\test\Pain Drain\libraries\lvgl\src\extra\themes\mono/lv_theme_mono.c ****     lv_style_set_pad_gap(&styles->pad_gap, PAD_DEF);
 2163              		.loc 1 133 0 discriminator 4
 2164 0304 2068     		ldr	r0, [r4]
 2165 0306 4830     		adds	r0, r0, #72
 2166 0308 FFF7FEFF 		bl	style_init_reset
 2167              	.LVL278:
 134:..\..\..\arduinoLCD\test\Pain Drain\libraries\lvgl\src\extra\themes\mono/lv_theme_mono.c **** 
 2168              		.loc 1 134 0 discriminator 4
 2169 030c 2668     		ldr	r6, [r4]
ARM GAS  C:\Users\haske\AppData\Local\Temp\ccSAQWsX.s 			page 69


 2170 030e 4836     		adds	r6, r6, #72
 2171              	.LVL279:
 2172              	.LBB296:
 2173              	.LBB297:
 551:c:\projects\paindrain\arduinolcd\test\pain drain\libraries\lvgl\src\misc\lv_style.h ****     lv_style_set_pad_column(style, value);
 2174              		.loc 3 551 0 discriminator 4
 2175 0310 0421     		movs	r1, #4
 2176 0312 3000     		movs	r0, r6
 2177 0314 FFF7FEFF 		bl	lv_style_set_pad_row
 2178              	.LVL280:
 2179              		.loc 3 552 0 discriminator 4
 2180 0318 0421     		movs	r1, #4
 2181 031a 3000     		movs	r0, r6
 2182 031c FFF7FEFF 		bl	lv_style_set_pad_column
 2183              	.LVL281:
 2184              	.LBE297:
 2185              	.LBE296:
 136:..\..\..\arduinoLCD\test\Pain Drain\libraries\lvgl\src\extra\themes\mono/lv_theme_mono.c ****     lv_style_set_pad_all(&styles->pad_zero, 0);
 2186              		.loc 1 136 0 discriminator 4
 2187 0320 2068     		ldr	r0, [r4]
 2188 0322 5030     		adds	r0, r0, #80
 2189 0324 FFF7FEFF 		bl	style_init_reset
 2190              	.LVL282:
 137:..\..\..\arduinoLCD\test\Pain Drain\libraries\lvgl\src\extra\themes\mono/lv_theme_mono.c ****     lv_style_set_pad_gap(&styles->pad_zero, 0);
 2191              		.loc 1 137 0 discriminator 4
 2192 0328 2668     		ldr	r6, [r4]
 2193 032a 5036     		adds	r6, r6, #80
 2194              	.LVL283:
 2195              	.LBB298:
 2196              	.LBB299:
 531:c:\projects\paindrain\arduinolcd\test\pain drain\libraries\lvgl\src\misc\lv_style.h ****     lv_style_set_pad_right(style, value);
 2197              		.loc 3 531 0 discriminator 4
 2198 032c 0021     		movs	r1, #0
 2199 032e 3000     		movs	r0, r6
 2200 0330 FFF7FEFF 		bl	lv_style_set_pad_left
 2201              	.LVL284:
 532:c:\projects\paindrain\arduinolcd\test\pain drain\libraries\lvgl\src\misc\lv_style.h ****     lv_style_set_pad_top(style, value);
 2202              		.loc 3 532 0 discriminator 4
 2203 0334 0021     		movs	r1, #0
 2204 0336 3000     		movs	r0, r6
 2205 0338 FFF7FEFF 		bl	lv_style_set_pad_right
 2206              	.LVL285:
 533:c:\projects\paindrain\arduinolcd\test\pain drain\libraries\lvgl\src\misc\lv_style.h ****     lv_style_set_pad_bottom(style, value);
 2207              		.loc 3 533 0 discriminator 4
 2208 033c 0021     		movs	r1, #0
 2209 033e 3000     		movs	r0, r6
 2210 0340 FFF7FEFF 		bl	lv_style_set_pad_top
 2211              	.LVL286:
 534:c:\projects\paindrain\arduinolcd\test\pain drain\libraries\lvgl\src\misc\lv_style.h **** }
 2212              		.loc 3 534 0 discriminator 4
 2213 0344 0021     		movs	r1, #0
 2214 0346 3000     		movs	r0, r6
 2215 0348 FFF7FEFF 		bl	lv_style_set_pad_bottom
 2216              	.LVL287:
 2217              	.LBE299:
 2218              	.LBE298:
 138:..\..\..\arduinoLCD\test\Pain Drain\libraries\lvgl\src\extra\themes\mono/lv_theme_mono.c **** 
ARM GAS  C:\Users\haske\AppData\Local\Temp\ccSAQWsX.s 			page 70


 2219              		.loc 1 138 0 discriminator 4
 2220 034c 2668     		ldr	r6, [r4]
 2221 034e 5036     		adds	r6, r6, #80
 2222              	.LVL288:
 2223              	.LBB300:
 2224              	.LBB301:
 551:c:\projects\paindrain\arduinolcd\test\pain drain\libraries\lvgl\src\misc\lv_style.h ****     lv_style_set_pad_column(style, value);
 2225              		.loc 3 551 0 discriminator 4
 2226 0350 0021     		movs	r1, #0
 2227 0352 3000     		movs	r0, r6
 2228 0354 FFF7FEFF 		bl	lv_style_set_pad_row
 2229              	.LVL289:
 2230              		.loc 3 552 0 discriminator 4
 2231 0358 0021     		movs	r1, #0
 2232 035a 3000     		movs	r0, r6
 2233 035c FFF7FEFF 		bl	lv_style_set_pad_column
 2234              	.LVL290:
 2235              	.LBE301:
 2236              	.LBE300:
 140:..\..\..\arduinoLCD\test\Pain Drain\libraries\lvgl\src\extra\themes\mono/lv_theme_mono.c ****     lv_style_set_radius(&styles->no_radius, 0);
 2237              		.loc 1 140 0 discriminator 4
 2238 0360 2068     		ldr	r0, [r4]
 2239 0362 5830     		adds	r0, r0, #88
 2240 0364 FFF7FEFF 		bl	style_init_reset
 2241              	.LVL291:
 141:..\..\..\arduinoLCD\test\Pain Drain\libraries\lvgl\src\extra\themes\mono/lv_theme_mono.c **** 
 2242              		.loc 1 141 0 discriminator 4
 2243 0368 2068     		ldr	r0, [r4]
 2244 036a 5830     		adds	r0, r0, #88
 2245 036c 0021     		movs	r1, #0
 2246 036e FFF7FEFF 		bl	lv_style_set_radius
 2247              	.LVL292:
 143:..\..\..\arduinoLCD\test\Pain Drain\libraries\lvgl\src\extra\themes\mono/lv_theme_mono.c ****     lv_style_set_radius(&styles->radius_circle, LV_RADIUS_CIRCLE);
 2248              		.loc 1 143 0 discriminator 4
 2249 0372 2068     		ldr	r0, [r4]
 2250 0374 6030     		adds	r0, r0, #96
 2251 0376 FFF7FEFF 		bl	style_init_reset
 2252              	.LVL293:
 144:..\..\..\arduinoLCD\test\Pain Drain\libraries\lvgl\src\extra\themes\mono/lv_theme_mono.c **** 
 2253              		.loc 1 144 0 discriminator 4
 2254 037a 2068     		ldr	r0, [r4]
 2255 037c 6030     		adds	r0, r0, #96
 2256 037e 2149     		ldr	r1, .L78+8
 2257 0380 FFF7FEFF 		bl	lv_style_set_radius
 2258              	.LVL294:
 146:..\..\..\arduinoLCD\test\Pain Drain\libraries\lvgl\src\extra\themes\mono/lv_theme_mono.c ****     lv_style_set_text_line_space(&styles->large_line_space, 6);
 2259              		.loc 1 146 0 discriminator 4
 2260 0384 2068     		ldr	r0, [r4]
 2261 0386 7030     		adds	r0, r0, #112
 2262 0388 FFF7FEFF 		bl	style_init_reset
 2263              	.LVL295:
 147:..\..\..\arduinoLCD\test\Pain Drain\libraries\lvgl\src\extra\themes\mono/lv_theme_mono.c **** 
 2264              		.loc 1 147 0 discriminator 4
 2265 038c 2068     		ldr	r0, [r4]
 2266 038e 7030     		adds	r0, r0, #112
 2267 0390 0621     		movs	r1, #6
 2268 0392 FFF7FEFF 		bl	lv_style_set_text_line_space
ARM GAS  C:\Users\haske\AppData\Local\Temp\ccSAQWsX.s 			page 71


 2269              	.LVL296:
 149:..\..\..\arduinoLCD\test\Pain Drain\libraries\lvgl\src\extra\themes\mono/lv_theme_mono.c ****     lv_style_set_text_decor(&styles->underline, LV_TEXT_DECOR_UNDERLINE);
 2270              		.loc 1 149 0 discriminator 4
 2271 0396 2068     		ldr	r0, [r4]
 2272 0398 7830     		adds	r0, r0, #120
 2273 039a FFF7FEFF 		bl	style_init_reset
 2274              	.LVL297:
 150:..\..\..\arduinoLCD\test\Pain Drain\libraries\lvgl\src\extra\themes\mono/lv_theme_mono.c **** 
 2275              		.loc 1 150 0 discriminator 4
 2276 039e 2068     		ldr	r0, [r4]
 2277 03a0 7830     		adds	r0, r0, #120
 2278 03a2 0121     		movs	r1, #1
 2279 03a4 FFF7FEFF 		bl	lv_style_set_text_decor
 2280              	.LVL298:
 153:..\..\..\arduinoLCD\test\Pain Drain\libraries\lvgl\src\extra\themes\mono/lv_theme_mono.c ****     lv_style_set_border_side(&styles->ta_cursor, LV_BORDER_SIDE_LEFT);
 2281              		.loc 1 153 0 discriminator 4
 2282 03a8 2068     		ldr	r0, [r4]
 2283 03aa 8030     		adds	r0, r0, #128
 2284 03ac FFF7FEFF 		bl	style_init_reset
 2285              	.LVL299:
 154:..\..\..\arduinoLCD\test\Pain Drain\libraries\lvgl\src\extra\themes\mono/lv_theme_mono.c ****     lv_style_set_border_color(&styles->ta_cursor, COLOR_FG);
 2286              		.loc 1 154 0 discriminator 4
 2287 03b0 2068     		ldr	r0, [r4]
 2288 03b2 8030     		adds	r0, r0, #128
 2289 03b4 0421     		movs	r1, #4
 2290 03b6 FFF7FEFF 		bl	lv_style_set_border_side
 2291              	.LVL300:
 155:..\..\..\arduinoLCD\test\Pain Drain\libraries\lvgl\src\extra\themes\mono/lv_theme_mono.c ****     lv_style_set_border_width(&styles->ta_cursor, 2);
 2292              		.loc 1 155 0 discriminator 4
 2293 03ba 2068     		ldr	r0, [r4]
 2294 03bc 8030     		adds	r0, r0, #128
 2295 03be 002D     		cmp	r5, #0
 2296 03c0 06D0     		beq	.L74
 2297              	.LVL301:
 2298              	.LBB302:
 2299              	.LBB303:
 2300              	.LBB304:
 2301              		.loc 2 590 0
 2302 03c2 FC21     		movs	r1, #252
 2303 03c4 C900     		lsls	r1, r1, #3
 2304 03c6 1F23     		movs	r3, #31
 2305 03c8 1943     		orrs	r1, r3
 2306              	.LVL302:
 2307 03ca 0C4B     		ldr	r3, .L78
 2308 03cc 1943     		orrs	r1, r3
 2309 03ce 00E0     		b	.L75
 2310              	.L74:
 2311 03d0 0021     		movs	r1, #0
 2312              	.L75:
 2313              	.LBE304:
 2314              	.LBE303:
 2315              	.LBE302:
 155:..\..\..\arduinoLCD\test\Pain Drain\libraries\lvgl\src\extra\themes\mono/lv_theme_mono.c ****     lv_style_set_border_width(&styles->ta_cursor, 2);
 2316              		.loc 1 155 0 discriminator 4
 2317 03d2 FFF7FEFF 		bl	lv_style_set_border_color
 2318              	.LVL303:
 156:..\..\..\arduinoLCD\test\Pain Drain\libraries\lvgl\src\extra\themes\mono/lv_theme_mono.c ****     lv_style_set_bg_opa(&styles->ta_cursor, LV_OPA_TRANSP);
ARM GAS  C:\Users\haske\AppData\Local\Temp\ccSAQWsX.s 			page 72


 2319              		.loc 1 156 0 discriminator 4
 2320 03d6 0A4C     		ldr	r4, .L78+4
 2321 03d8 2068     		ldr	r0, [r4]
 2322 03da 8030     		adds	r0, r0, #128
 2323 03dc 0221     		movs	r1, #2
 2324 03de FFF7FEFF 		bl	lv_style_set_border_width
 2325              	.LVL304:
 157:..\..\..\arduinoLCD\test\Pain Drain\libraries\lvgl\src\extra\themes\mono/lv_theme_mono.c ****     lv_style_set_anim_time(&styles->ta_cursor, 500);
 2326              		.loc 1 157 0 discriminator 4
 2327 03e2 2068     		ldr	r0, [r4]
 2328 03e4 8030     		adds	r0, r0, #128
 2329 03e6 0021     		movs	r1, #0
 2330 03e8 FFF7FEFF 		bl	lv_style_set_bg_opa
 2331              	.LVL305:
 158:..\..\..\arduinoLCD\test\Pain Drain\libraries\lvgl\src\extra\themes\mono/lv_theme_mono.c **** #endif
 2332              		.loc 1 158 0 discriminator 4
 2333 03ec 2068     		ldr	r0, [r4]
 2334 03ee 8030     		adds	r0, r0, #128
 2335 03f0 FA21     		movs	r1, #250
 2336 03f2 4900     		lsls	r1, r1, #1
 2337 03f4 FFF7FEFF 		bl	lv_style_set_anim_time
 2338              	.LVL306:
 160:..\..\..\arduinoLCD\test\Pain Drain\libraries\lvgl\src\extra\themes\mono/lv_theme_mono.c **** 
 2339              		.loc 1 160 0 discriminator 4
 2340              		@ sp needed
 2341 03f8 70BD     		pop	{r4, r5, r6, pc}
 2342              	.L79:
 2343 03fa C046     		.align	2
 2344              	.L78:
 2345 03fc 00F8FFFF 		.word	-2048
 2346 0400 00000000 		.word	.LANCHOR0
 2347 0404 FF7F0000 		.word	32767
 2348              		.cfi_endproc
 2349              	.LFE202:
 2350              		.size	style_init, .-style_init
 2351              		.section	.text.lv_theme_mono_is_inited,"ax",%progbits
 2352              		.align	2
 2353              		.global	lv_theme_mono_is_inited
 2354              		.code	16
 2355              		.thumb_func
 2356              		.type	lv_theme_mono_is_inited, %function
 2357              	lv_theme_mono_is_inited:
 2358              	.LFB203:
 168:..\..\..\arduinoLCD\test\Pain Drain\libraries\lvgl\src\extra\themes\mono/lv_theme_mono.c ****     return  LV_GC_ROOT(_lv_theme_default_styles) == NULL ? false : true;
 2359              		.loc 1 168 0
 2360              		.cfi_startproc
 2361              		@ args = 0, pretend = 0, frame = 0
 2362              		@ frame_needed = 0, uses_anonymous_args = 0
 2363              		@ link register save eliminated.
 169:..\..\..\arduinoLCD\test\Pain Drain\libraries\lvgl\src\extra\themes\mono/lv_theme_mono.c **** }
 2364              		.loc 1 169 0
 2365 0000 024B     		ldr	r3, .L81
 2366 0002 1868     		ldr	r0, [r3]
 2367 0004 431E     		subs	r3, r0, #1
 2368 0006 9841     		sbcs	r0, r0, r3
 2369 0008 C0B2     		uxtb	r0, r0
 170:..\..\..\arduinoLCD\test\Pain Drain\libraries\lvgl\src\extra\themes\mono/lv_theme_mono.c **** 
ARM GAS  C:\Users\haske\AppData\Local\Temp\ccSAQWsX.s 			page 73


 2370              		.loc 1 170 0
 2371              		@ sp needed
 2372 000a 7047     		bx	lr
 2373              	.L82:
 2374              		.align	2
 2375              	.L81:
 2376 000c 00000000 		.word	_lv_theme_default_styles
 2377              		.cfi_endproc
 2378              	.LFE203:
 2379              		.size	lv_theme_mono_is_inited, .-lv_theme_mono_is_inited
 2380              		.section	.text.lv_theme_mono_init,"ax",%progbits
 2381              		.align	2
 2382              		.global	lv_theme_mono_init
 2383              		.code	16
 2384              		.thumb_func
 2385              		.type	lv_theme_mono_init, %function
 2386              	lv_theme_mono_init:
 2387              	.LFB204:
 173:..\..\..\arduinoLCD\test\Pain Drain\libraries\lvgl\src\extra\themes\mono/lv_theme_mono.c **** 
 2388              		.loc 1 173 0
 2389              		.cfi_startproc
 2390              		@ args = 0, pretend = 0, frame = 0
 2391              		@ frame_needed = 0, uses_anonymous_args = 0
 2392              	.LVL307:
 2393 0000 F8B5     		push	{r3, r4, r5, r6, r7, lr}
 2394              		.cfi_def_cfa_offset 24
 2395              		.cfi_offset 3, -24
 2396              		.cfi_offset 4, -20
 2397              		.cfi_offset 5, -16
 2398              		.cfi_offset 6, -12
 2399              		.cfi_offset 7, -8
 2400              		.cfi_offset 14, -4
 2401 0002 0600     		movs	r6, r0
 2402 0004 0C00     		movs	r4, r1
 2403 0006 1500     		movs	r5, r2
 178:..\..\..\arduinoLCD\test\Pain Drain\libraries\lvgl\src\extra\themes\mono/lv_theme_mono.c ****         inited = false;
 2404              		.loc 1 178 0
 2405 0008 144B     		ldr	r3, .L87
 2406 000a 1B79     		ldrb	r3, [r3, #4]
 2407 000c 002B     		cmp	r3, #0
 2408 000e 07D1     		bne	.L84
 179:..\..\..\arduinoLCD\test\Pain Drain\libraries\lvgl\src\extra\themes\mono/lv_theme_mono.c ****         LV_GC_ROOT(_lv_theme_default_styles) = lv_mem_alloc(sizeof(my_theme_styles_t));
 2409              		.loc 1 179 0
 2410 0010 124F     		ldr	r7, .L87
 2411 0012 3B71     		strb	r3, [r7, #4]
 180:..\..\..\arduinoLCD\test\Pain Drain\libraries\lvgl\src\extra\themes\mono/lv_theme_mono.c ****         styles = (my_theme_styles_t *)LV_GC_ROOT(_lv_theme_default_styles);
 2412              		.loc 1 180 0
 2413 0014 8820     		movs	r0, #136
 2414              	.LVL308:
 2415 0016 FFF7FEFF 		bl	lv_mem_alloc
 2416              	.LVL309:
 2417 001a 114B     		ldr	r3, .L87+4
 2418 001c 1860     		str	r0, [r3]
 181:..\..\..\arduinoLCD\test\Pain Drain\libraries\lvgl\src\extra\themes\mono/lv_theme_mono.c ****     }
 2419              		.loc 1 181 0
 2420 001e 3860     		str	r0, [r7]
 2421              	.L84:
ARM GAS  C:\Users\haske\AppData\Local\Temp\ccSAQWsX.s 			page 74


 184:..\..\..\arduinoLCD\test\Pain Drain\libraries\lvgl\src\extra\themes\mono/lv_theme_mono.c ****     theme.font_small = LV_FONT_DEFAULT;
 2422              		.loc 1 184 0
 2423 0020 0E4B     		ldr	r3, .L87
 2424 0022 5E61     		str	r6, [r3, #20]
 185:..\..\..\arduinoLCD\test\Pain Drain\libraries\lvgl\src\extra\themes\mono/lv_theme_mono.c ****     theme.font_normal = LV_FONT_DEFAULT;
 2425              		.loc 1 185 0
 2426 0024 0F4A     		ldr	r2, .L87+8
 2427 0026 DA61     		str	r2, [r3, #28]
 186:..\..\..\arduinoLCD\test\Pain Drain\libraries\lvgl\src\extra\themes\mono/lv_theme_mono.c ****     theme.font_large = LV_FONT_DEFAULT;
 2428              		.loc 1 186 0
 2429 0028 1A62     		str	r2, [r3, #32]
 187:..\..\..\arduinoLCD\test\Pain Drain\libraries\lvgl\src\extra\themes\mono/lv_theme_mono.c ****     theme.apply_cb = theme_apply;
 2430              		.loc 1 187 0
 2431 002a 5A62     		str	r2, [r3, #36]
 188:..\..\..\arduinoLCD\test\Pain Drain\libraries\lvgl\src\extra\themes\mono/lv_theme_mono.c **** 
 2432              		.loc 1 188 0
 2433 002c 0E4A     		ldr	r2, .L87+12
 2434 002e 9A60     		str	r2, [r3, #8]
 190:..\..\..\arduinoLCD\test\Pain Drain\libraries\lvgl\src\extra\themes\mono/lv_theme_mono.c **** 
 2435              		.loc 1 190 0
 2436 0030 2900     		movs	r1, r5
 2437 0032 2000     		movs	r0, r4
 2438 0034 FFF7FEFF 		bl	style_init
 2439              	.LVL310:
 192:..\..\..\arduinoLCD\test\Pain Drain\libraries\lvgl\src\extra\themes\mono/lv_theme_mono.c **** 
 2440              		.loc 1 192 0
 2441 0038 002E     		cmp	r6, #0
 2442 003a 06D0     		beq	.L85
 192:..\..\..\arduinoLCD\test\Pain Drain\libraries\lvgl\src\extra\themes\mono/lv_theme_mono.c **** 
 2443              		.loc 1 192 0 is_stmt 0 discriminator 2
 2444 003c 3000     		movs	r0, r6
 2445 003e FFF7FEFF 		bl	lv_disp_get_theme
 2446              	.LVL311:
 2447 0042 064B     		ldr	r3, .L87
 2448 0044 0833     		adds	r3, r3, #8
 2449 0046 9842     		cmp	r0, r3
 2450 0048 02D1     		bne	.L86
 2451              	.L85:
 192:..\..\..\arduinoLCD\test\Pain Drain\libraries\lvgl\src\extra\themes\mono/lv_theme_mono.c **** 
 2452              		.loc 1 192 0 discriminator 3
 2453 004a 0020     		movs	r0, #0
 2454 004c FFF7FEFF 		bl	lv_obj_report_style_change
 2455              	.LVL312:
 2456              	.L86:
 194:..\..\..\arduinoLCD\test\Pain Drain\libraries\lvgl\src\extra\themes\mono/lv_theme_mono.c **** 
 2457              		.loc 1 194 0 is_stmt 1
 2458 0050 0248     		ldr	r0, .L87
 2459 0052 0123     		movs	r3, #1
 2460 0054 0371     		strb	r3, [r0, #4]
 196:..\..\..\arduinoLCD\test\Pain Drain\libraries\lvgl\src\extra\themes\mono/lv_theme_mono.c **** }
 2461              		.loc 1 196 0
 2462 0056 0830     		adds	r0, r0, #8
 197:..\..\..\arduinoLCD\test\Pain Drain\libraries\lvgl\src\extra\themes\mono/lv_theme_mono.c **** 
 2463              		.loc 1 197 0
 2464              		@ sp needed
 2465              	.LVL313:
 2466              	.LVL314:
ARM GAS  C:\Users\haske\AppData\Local\Temp\ccSAQWsX.s 			page 75


 2467 0058 F8BD     		pop	{r3, r4, r5, r6, r7, pc}
 2468              	.L88:
 2469 005a C046     		.align	2
 2470              	.L87:
 2471 005c 00000000 		.word	.LANCHOR0
 2472 0060 00000000 		.word	_lv_theme_default_styles
 2473 0064 00000000 		.word	lv_font_montserrat_14
 2474 0068 00000000 		.word	theme_apply
 2475              		.cfi_endproc
 2476              	.LFE204:
 2477              		.size	lv_theme_mono_init, .-lv_theme_mono_init
 2478              		.bss
 2479              		.align	2
 2480              		.set	.LANCHOR0,. + 0
 2481              		.type	styles, %object
 2482              		.size	styles, 4
 2483              	styles:
 2484 0000 00000000 		.space	4
 2485              		.type	inited, %object
 2486              		.size	inited, 1
 2487              	inited:
 2488 0004 00       		.space	1
 2489 0005 000000   		.space	3
 2490              		.type	theme, %object
 2491              		.size	theme, 36
 2492              	theme:
 2493 0008 00000000 		.space	36
 2493      00000000 
 2493      00000000 
 2493      00000000 
 2493      00000000 
 2494              		.text
 2495              	.Letext0:
 2496              		.file 4 "c:\\program files (x86)\\cypress\\psoc creator\\4.4\\psoc creator\\import\\gnu\\arm\\5.4.
 2497              		.file 5 "c:\\program files (x86)\\cypress\\psoc creator\\4.4\\psoc creator\\import\\gnu\\arm\\5.4.
 2498              		.file 6 "c:\\projects\\paindrain\\arduinolcd\\test\\pain drain\\libraries\\lvgl\\src/misc/lv_types
 2499              		.file 7 "c:\\projects\\paindrain\\arduinolcd\\test\\pain drain\\libraries\\lvgl\\src/misc/lv_timer
 2500              		.file 8 "c:\\program files (x86)\\cypress\\psoc creator\\4.4\\psoc creator\\import\\gnu\\arm\\5.4.
 2501              		.file 9 "c:\\projects\\paindrain\\arduinolcd\\test\\pain drain\\libraries\\lvgl\\src\\misc\\lv_are
 2502              		.file 10 "c:\\projects\\paindrain\\arduinolcd\\test\\pain drain\\libraries\\lvgl\\src\\font\\lv_fo
 2503              		.file 11 "c:\\projects\\paindrain\\arduinolcd\\test\\pain drain\\libraries\\lvgl\\src\\misc\\lv_tx
 2504              		.file 12 "c:\\projects\\paindrain\\arduinolcd\\test\\pain drain\\libraries\\lvgl\\src\\misc\\lv_bi
 2505              		.file 13 "c:\\projects\\paindrain\\arduinolcd\\test\\pain drain\\libraries\\lvgl\\src\\draw\\lv_im
 2506              		.file 14 "c:\\projects\\paindrain\\arduinolcd\\test\\pain drain\\libraries\\lvgl\\src/core/lv_obj.
 2507              		.file 15 "c:\\projects\\paindrain\\arduinolcd\\test\\pain drain\\libraries\\lvgl\\src\\draw\\lv_dr
 2508              		.file 16 "c:\\projects\\paindrain\\arduinolcd\\test\\pain drain\\libraries\\lvgl\\src\\draw\\lv_dr
 2509              		.file 17 "c:\\projects\\paindrain\\arduinolcd\\test\\pain drain\\libraries\\lvgl\\src\\draw\\lv_dr
 2510              		.file 18 "c:\\projects\\paindrain\\arduinolcd\\test\\pain drain\\libraries\\lvgl\\src\\draw\\lv_dr
 2511              		.file 19 "c:\\projects\\paindrain\\arduinolcd\\test\\pain drain\\libraries\\lvgl\\src\\draw\\lv_dr
 2512              		.file 20 "c:\\projects\\paindrain\\arduinolcd\\test\\pain drain\\libraries\\lvgl\\src\\draw\\lv_dr
 2513              		.file 21 "c:\\projects\\paindrain\\arduinolcd\\test\\pain drain\\libraries\\lvgl\\src\\draw\\lv_dr
 2514              		.file 22 "c:\\projects\\paindrain\\arduinolcd\\test\\pain drain\\libraries\\lvgl\\src\\misc\\lv_ll
 2515              		.file 23 "c:\\projects\\paindrain\\arduinolcd\\test\\pain drain\\libraries\\lvgl\\src/hal/lv_hal_d
 2516              		.file 24 "c:\\projects\\paindrain\\arduinolcd\\test\\pain drain\\libraries\\lvgl\\src/core/lv_them
 2517              		.file 25 "c:\\projects\\paindrain\\arduinolcd\\test\\pain drain\\libraries\\lvgl\\src/core/lv_grou
 2518              		.file 26 "c:\\projects\\paindrain\\arduinolcd\\test\\pain drain\\libraries\\lvgl\\src/core/lv_obj_
 2519              		.file 27 "c:\\projects\\paindrain\\arduinolcd\\test\\pain drain\\libraries\\lvgl\\src/core/lv_obj_
ARM GAS  C:\Users\haske\AppData\Local\Temp\ccSAQWsX.s 			page 76


 2520              		.file 28 "c:\\projects\\paindrain\\arduinolcd\\test\\pain drain\\libraries\\lvgl\\src/core/lv_obj_
 2521              		.file 29 "c:\\projects\\paindrain\\arduinolcd\\test\\pain drain\\libraries\\lvgl\\src/core/lv_even
 2522              		.file 30 "c:\\projects\\paindrain\\arduinolcd\\test\\pain drain\\libraries\\lvgl\\src/widgets/lv_b
 2523              		.file 31 "c:\\projects\\paindrain\\arduinolcd\\test\\pain drain\\libraries\\lvgl\\src/extra/widget
 2524              		.file 32 "c:\\projects\\paindrain\\arduinolcd\\test\\pain drain\\libraries\\lvgl\\src/widgets/lv_a
 2525              		.file 33 "c:\\projects\\paindrain\\arduinolcd\\test\\pain drain\\libraries\\lvgl\\src/widgets/lv_b
 2526              		.file 34 "c:\\projects\\paindrain\\arduinolcd\\test\\pain drain\\libraries\\lvgl\\src/widgets/lv_t
 2527              		.file 35 "c:\\projects\\paindrain\\arduinolcd\\test\\pain drain\\libraries\\lvgl\\src/widgets/lv_c
 2528              		.file 36 "c:\\projects\\paindrain\\arduinolcd\\test\\pain drain\\libraries\\lvgl\\src/widgets/lv_s
 2529              		.file 37 "c:\\projects\\paindrain\\arduinolcd\\test\\pain drain\\libraries\\lvgl\\src/widgets/lv_b
 2530              		.file 38 "c:\\projects\\paindrain\\arduinolcd\\test\\pain drain\\libraries\\lvgl\\src/widgets/lv_d
 2531              		.file 39 "c:\\projects\\paindrain\\arduinolcd\\test\\pain drain\\libraries\\lvgl\\src/widgets/lv_r
 2532              		.file 40 "c:\\projects\\paindrain\\arduinolcd\\test\\pain drain\\libraries\\lvgl\\src/widgets/lv_t
 2533              		.file 41 "c:\\projects\\paindrain\\arduinolcd\\test\\pain drain\\libraries\\lvgl\\src/widgets/lv_s
 2534              		.file 42 "c:\\projects\\paindrain\\arduinolcd\\test\\pain drain\\libraries\\lvgl\\src/extra/layout
 2535              		.file 43 "c:\\projects\\paindrain\\arduinolcd\\test\\pain drain\\libraries\\lvgl\\src/extra/layout
 2536              		.file 44 "c:\\projects\\paindrain\\arduinolcd\\test\\pain drain\\libraries\\lvgl\\src/extra/widget
 2537              		.file 45 "c:\\projects\\paindrain\\arduinolcd\\test\\pain drain\\libraries\\lvgl\\src/extra/widget
 2538              		.file 46 "c:\\projects\\paindrain\\arduinolcd\\test\\pain drain\\libraries\\lvgl\\src/extra/widget
 2539              		.file 47 "c:\\projects\\paindrain\\arduinolcd\\test\\pain drain\\libraries\\lvgl\\src/extra/widget
 2540              		.file 48 "c:\\projects\\paindrain\\arduinolcd\\test\\pain drain\\libraries\\lvgl\\src/extra/widget
 2541              		.file 49 "c:\\projects\\paindrain\\arduinolcd\\test\\pain drain\\libraries\\lvgl\\src/extra/widget
 2542              		.file 50 "c:\\projects\\paindrain\\arduinolcd\\test\\pain drain\\libraries\\lvgl\\src/extra/widget
 2543              		.file 51 "c:\\projects\\paindrain\\arduinolcd\\test\\pain drain\\libraries\\lvgl\\src/extra/widget
 2544              		.file 52 "c:\\projects\\paindrain\\arduinolcd\\test\\pain drain\\libraries\\lvgl\\src/extra/widget
 2545              		.file 53 "c:\\projects\\paindrain\\arduinolcd\\test\\pain drain\\libraries\\lvgl\\src/extra/widget
 2546              		.file 54 "c:\\projects\\paindrain\\arduinolcd\\test\\pain drain\\libraries\\lvgl\\src/extra/widget
 2547              		.file 55 "c:\\projects\\paindrain\\arduinolcd\\test\\pain drain\\libraries\\lvgl\\src\\misc\\lv_gc
 2548              		.file 56 "c:\\projects\\paindrain\\arduinolcd\\test\\pain drain\\libraries\\lvgl\\src/core/lv_obj_
 2549              		.file 57 "c:\\projects\\paindrain\\arduinolcd\\test\\pain drain\\libraries\\lvgl\\src\\misc\\lv_st
 2550              		.file 58 "c:\\projects\\paindrain\\arduinolcd\\test\\pain drain\\libraries\\lvgl\\src/misc/lv_mem.
 2551              		.file 59 "c:\\projects\\paindrain\\arduinolcd\\test\\pain drain\\libraries\\lvgl\\src/core/lv_disp
 2552              		.section	.debug_info,"",%progbits
 2553              	.Ldebug_info0:
 2554 0000 5C3D0000 		.4byte	0x3d5c
 2555 0004 0400     		.2byte	0x4
 2556 0006 00000000 		.4byte	.Ldebug_abbrev0
 2557 000a 04       		.byte	0x4
 2558 000b 01       		.uleb128 0x1
 2559 000c CF1E0000 		.4byte	.LASF622
 2560 0010 0C       		.byte	0xc
 2561 0011 84240000 		.4byte	.LASF623
 2562 0015 3F140000 		.4byte	.LASF624
 2563 0019 00000000 		.4byte	.Ldebug_ranges0+0
 2564 001d 00000000 		.4byte	0
 2565 0021 00000000 		.4byte	.Ldebug_line0
 2566 0025 02       		.uleb128 0x2
 2567 0026 61240000 		.4byte	.LASF0
 2568 002a 04       		.byte	0x4
 2569 002b 1B       		.byte	0x1b
 2570 002c 30000000 		.4byte	0x30
 2571 0030 03       		.uleb128 0x3
 2572 0031 01       		.byte	0x1
 2573 0032 06       		.byte	0x6
 2574 0033 B3130000 		.4byte	.LASF2
 2575 0037 02       		.uleb128 0x2
 2576 0038 A8000000 		.4byte	.LASF1
ARM GAS  C:\Users\haske\AppData\Local\Temp\ccSAQWsX.s 			page 77


 2577 003c 04       		.byte	0x4
 2578 003d 1D       		.byte	0x1d
 2579 003e 42000000 		.4byte	0x42
 2580 0042 03       		.uleb128 0x3
 2581 0043 01       		.byte	0x1
 2582 0044 08       		.byte	0x8
 2583 0045 C7080000 		.4byte	.LASF3
 2584 0049 02       		.uleb128 0x2
 2585 004a 84070000 		.4byte	.LASF4
 2586 004e 04       		.byte	0x4
 2587 004f 29       		.byte	0x29
 2588 0050 54000000 		.4byte	0x54
 2589 0054 03       		.uleb128 0x3
 2590 0055 02       		.byte	0x2
 2591 0056 05       		.byte	0x5
 2592 0057 E1250000 		.4byte	.LASF5
 2593 005b 02       		.uleb128 0x2
 2594 005c A4070000 		.4byte	.LASF6
 2595 0060 04       		.byte	0x4
 2596 0061 2B       		.byte	0x2b
 2597 0062 66000000 		.4byte	0x66
 2598 0066 03       		.uleb128 0x3
 2599 0067 02       		.byte	0x2
 2600 0068 07       		.byte	0x7
 2601 0069 96130000 		.4byte	.LASF7
 2602 006d 02       		.uleb128 0x2
 2603 006e 941E0000 		.4byte	.LASF8
 2604 0072 04       		.byte	0x4
 2605 0073 3F       		.byte	0x3f
 2606 0074 78000000 		.4byte	0x78
 2607 0078 03       		.uleb128 0x3
 2608 0079 04       		.byte	0x4
 2609 007a 05       		.byte	0x5
 2610 007b D7160000 		.4byte	.LASF9
 2611 007f 02       		.uleb128 0x2
 2612 0080 9E1E0000 		.4byte	.LASF10
 2613 0084 04       		.byte	0x4
 2614 0085 41       		.byte	0x41
 2615 0086 8A000000 		.4byte	0x8a
 2616 008a 03       		.uleb128 0x3
 2617 008b 04       		.byte	0x4
 2618 008c 07       		.byte	0x7
 2619 008d 1B190000 		.4byte	.LASF11
 2620 0091 03       		.uleb128 0x3
 2621 0092 08       		.byte	0x8
 2622 0093 05       		.byte	0x5
 2623 0094 C8220000 		.4byte	.LASF12
 2624 0098 03       		.uleb128 0x3
 2625 0099 08       		.byte	0x8
 2626 009a 07       		.byte	0x7
 2627 009b 74200000 		.4byte	.LASF13
 2628 009f 04       		.uleb128 0x4
 2629 00a0 04       		.byte	0x4
 2630 00a1 05       		.byte	0x5
 2631 00a2 696E7400 		.ascii	"int\000"
 2632 00a6 03       		.uleb128 0x3
 2633 00a7 04       		.byte	0x4
ARM GAS  C:\Users\haske\AppData\Local\Temp\ccSAQWsX.s 			page 78


 2634 00a8 07       		.byte	0x7
 2635 00a9 3D250000 		.4byte	.LASF14
 2636 00ad 02       		.uleb128 0x2
 2637 00ae 41120000 		.4byte	.LASF15
 2638 00b2 05       		.byte	0x5
 2639 00b3 14       		.byte	0x14
 2640 00b4 25000000 		.4byte	0x25
 2641 00b8 02       		.uleb128 0x2
 2642 00b9 E00C0000 		.4byte	.LASF16
 2643 00bd 05       		.byte	0x5
 2644 00be 18       		.byte	0x18
 2645 00bf 37000000 		.4byte	0x37
 2646 00c3 02       		.uleb128 0x2
 2647 00c4 79130000 		.4byte	.LASF17
 2648 00c8 05       		.byte	0x5
 2649 00c9 20       		.byte	0x20
 2650 00ca 49000000 		.4byte	0x49
 2651 00ce 02       		.uleb128 0x2
 2652 00cf 08020000 		.4byte	.LASF18
 2653 00d3 05       		.byte	0x5
 2654 00d4 24       		.byte	0x24
 2655 00d5 5B000000 		.4byte	0x5b
 2656 00d9 02       		.uleb128 0x2
 2657 00da D0030000 		.4byte	.LASF19
 2658 00de 05       		.byte	0x5
 2659 00df 2C       		.byte	0x2c
 2660 00e0 6D000000 		.4byte	0x6d
 2661 00e4 02       		.uleb128 0x2
 2662 00e5 6B180000 		.4byte	.LASF20
 2663 00e9 05       		.byte	0x5
 2664 00ea 30       		.byte	0x30
 2665 00eb 7F000000 		.4byte	0x7f
 2666 00ef 02       		.uleb128 0x2
 2667 00f0 58000000 		.4byte	.LASF21
 2668 00f4 06       		.byte	0x6
 2669 00f5 2F       		.byte	0x2f
 2670 00f6 B8000000 		.4byte	0xb8
 2671 00fa 02       		.uleb128 0x2
 2672 00fb 6B0C0000 		.4byte	.LASF22
 2673 00ff 07       		.byte	0x7
 2674 0100 27       		.byte	0x27
 2675 0101 05010000 		.4byte	0x105
 2676 0105 05       		.uleb128 0x5
 2677 0106 04       		.byte	0x4
 2678 0107 0B010000 		.4byte	0x10b
 2679 010b 06       		.uleb128 0x6
 2680 010c 16010000 		.4byte	0x116
 2681 0110 07       		.uleb128 0x7
 2682 0111 16010000 		.4byte	0x116
 2683 0115 00       		.byte	0
 2684 0116 05       		.uleb128 0x5
 2685 0117 04       		.byte	0x4
 2686 0118 1C010000 		.4byte	0x11c
 2687 011c 08       		.uleb128 0x8
 2688 011d EF220000 		.4byte	.LASF45
 2689 0121 18       		.byte	0x18
 2690 0122 07       		.byte	0x7
ARM GAS  C:\Users\haske\AppData\Local\Temp\ccSAQWsX.s 			page 79


 2691 0123 2C       		.byte	0x2c
 2692 0124 74010000 		.4byte	0x174
 2693 0128 09       		.uleb128 0x9
 2694 0129 01120000 		.4byte	.LASF23
 2695 012d 07       		.byte	0x7
 2696 012e 2D       		.byte	0x2d
 2697 012f E4000000 		.4byte	0xe4
 2698 0133 00       		.byte	0
 2699 0134 09       		.uleb128 0x9
 2700 0135 840F0000 		.4byte	.LASF24
 2701 0139 07       		.byte	0x7
 2702 013a 2E       		.byte	0x2e
 2703 013b E4000000 		.4byte	0xe4
 2704 013f 04       		.byte	0x4
 2705 0140 09       		.uleb128 0x9
 2706 0141 B90A0000 		.4byte	.LASF25
 2707 0145 07       		.byte	0x7
 2708 0146 2F       		.byte	0x2f
 2709 0147 FA000000 		.4byte	0xfa
 2710 014b 08       		.byte	0x8
 2711 014c 09       		.uleb128 0x9
 2712 014d 3A180000 		.4byte	.LASF26
 2713 0151 07       		.byte	0x7
 2714 0152 30       		.byte	0x30
 2715 0153 74010000 		.4byte	0x174
 2716 0157 0C       		.byte	0xc
 2717 0158 09       		.uleb128 0x9
 2718 0159 0B140000 		.4byte	.LASF27
 2719 015d 07       		.byte	0x7
 2720 015e 31       		.byte	0x31
 2721 015f D9000000 		.4byte	0xd9
 2722 0163 10       		.byte	0x10
 2723 0164 0A       		.uleb128 0xa
 2724 0165 D6110000 		.4byte	.LASF43
 2725 0169 07       		.byte	0x7
 2726 016a 32       		.byte	0x32
 2727 016b E4000000 		.4byte	0xe4
 2728 016f 04       		.byte	0x4
 2729 0170 01       		.byte	0x1
 2730 0171 1F       		.byte	0x1f
 2731 0172 14       		.byte	0x14
 2732 0173 00       		.byte	0
 2733 0174 0B       		.uleb128 0xb
 2734 0175 04       		.byte	0x4
 2735 0176 02       		.uleb128 0x2
 2736 0177 04010000 		.4byte	.LASF28
 2737 017b 07       		.byte	0x7
 2738 017c 33       		.byte	0x33
 2739 017d 1C010000 		.4byte	0x11c
 2740 0181 02       		.uleb128 0x2
 2741 0182 C40C0000 		.4byte	.LASF29
 2742 0186 08       		.byte	0x8
 2743 0187 D8       		.byte	0xd8
 2744 0188 A6000000 		.4byte	0xa6
 2745 018c 03       		.uleb128 0x3
 2746 018d 08       		.byte	0x8
 2747 018e 04       		.byte	0x4
ARM GAS  C:\Users\haske\AppData\Local\Temp\ccSAQWsX.s 			page 80


 2748 018f CB180000 		.4byte	.LASF30
 2749 0193 03       		.uleb128 0x3
 2750 0194 04       		.byte	0x4
 2751 0195 07       		.byte	0x7
 2752 0196 3C130000 		.4byte	.LASF31
 2753 019a 03       		.uleb128 0x3
 2754 019b 01       		.byte	0x1
 2755 019c 08       		.byte	0x8
 2756 019d 031A0000 		.4byte	.LASF32
 2757 01a1 02       		.uleb128 0x2
 2758 01a2 940B0000 		.4byte	.LASF33
 2759 01a6 09       		.byte	0x9
 2760 01a7 1B       		.byte	0x1b
 2761 01a8 C3000000 		.4byte	0xc3
 2762 01ac 0C       		.uleb128 0xc
 2763 01ad 04       		.byte	0x4
 2764 01ae 09       		.byte	0x9
 2765 01af 25       		.byte	0x25
 2766 01b0 C9010000 		.4byte	0x1c9
 2767 01b4 0D       		.uleb128 0xd
 2768 01b5 7800     		.ascii	"x\000"
 2769 01b7 09       		.byte	0x9
 2770 01b8 26       		.byte	0x26
 2771 01b9 A1010000 		.4byte	0x1a1
 2772 01bd 00       		.byte	0
 2773 01be 0D       		.uleb128 0xd
 2774 01bf 7900     		.ascii	"y\000"
 2775 01c1 09       		.byte	0x9
 2776 01c2 27       		.byte	0x27
 2777 01c3 A1010000 		.4byte	0x1a1
 2778 01c7 02       		.byte	0x2
 2779 01c8 00       		.byte	0
 2780 01c9 02       		.uleb128 0x2
 2781 01ca 89090000 		.4byte	.LASF34
 2782 01ce 09       		.byte	0x9
 2783 01cf 28       		.byte	0x28
 2784 01d0 AC010000 		.4byte	0x1ac
 2785 01d4 0C       		.uleb128 0xc
 2786 01d5 08       		.byte	0x8
 2787 01d6 09       		.byte	0x9
 2788 01d7 2B       		.byte	0x2b
 2789 01d8 09020000 		.4byte	0x209
 2790 01dc 0D       		.uleb128 0xd
 2791 01dd 783100   		.ascii	"x1\000"
 2792 01e0 09       		.byte	0x9
 2793 01e1 2C       		.byte	0x2c
 2794 01e2 A1010000 		.4byte	0x1a1
 2795 01e6 00       		.byte	0
 2796 01e7 0D       		.uleb128 0xd
 2797 01e8 793100   		.ascii	"y1\000"
 2798 01eb 09       		.byte	0x9
 2799 01ec 2D       		.byte	0x2d
 2800 01ed A1010000 		.4byte	0x1a1
 2801 01f1 02       		.byte	0x2
 2802 01f2 0D       		.uleb128 0xd
 2803 01f3 783200   		.ascii	"x2\000"
 2804 01f6 09       		.byte	0x9
ARM GAS  C:\Users\haske\AppData\Local\Temp\ccSAQWsX.s 			page 81


 2805 01f7 2E       		.byte	0x2e
 2806 01f8 A1010000 		.4byte	0x1a1
 2807 01fc 04       		.byte	0x4
 2808 01fd 0D       		.uleb128 0xd
 2809 01fe 793200   		.ascii	"y2\000"
 2810 0201 09       		.byte	0x9
 2811 0202 2F       		.byte	0x2f
 2812 0203 A1010000 		.4byte	0x1a1
 2813 0207 06       		.byte	0x6
 2814 0208 00       		.byte	0
 2815 0209 02       		.uleb128 0x2
 2816 020a C7140000 		.4byte	.LASF35
 2817 020e 09       		.byte	0x9
 2818 020f 30       		.byte	0x30
 2819 0210 D4010000 		.4byte	0x1d4
 2820 0214 02       		.uleb128 0x2
 2821 0215 95000000 		.4byte	.LASF36
 2822 0219 09       		.byte	0x9
 2823 021a 59       		.byte	0x59
 2824 021b B8000000 		.4byte	0xb8
 2825 021f 0C       		.uleb128 0xc
 2826 0220 10       		.byte	0x10
 2827 0221 0A       		.byte	0xa
 2828 0222 29       		.byte	0x29
 2829 0223 8E020000 		.4byte	0x28e
 2830 0227 09       		.uleb128 0x9
 2831 0228 49040000 		.4byte	.LASF37
 2832 022c 0A       		.byte	0xa
 2833 022d 2B       		.byte	0x2b
 2834 022e 16030000 		.4byte	0x316
 2835 0232 00       		.byte	0
 2836 0233 09       		.uleb128 0x9
 2837 0234 04110000 		.4byte	.LASF38
 2838 0238 0A       		.byte	0xa
 2839 0239 2C       		.byte	0x2c
 2840 023a CE000000 		.4byte	0xce
 2841 023e 04       		.byte	0x4
 2842 023f 09       		.uleb128 0x9
 2843 0240 8F0A0000 		.4byte	.LASF39
 2844 0244 0A       		.byte	0xa
 2845 0245 2D       		.byte	0x2d
 2846 0246 CE000000 		.4byte	0xce
 2847 024a 06       		.byte	0x6
 2848 024b 09       		.uleb128 0x9
 2849 024c 660A0000 		.4byte	.LASF40
 2850 0250 0A       		.byte	0xa
 2851 0251 2E       		.byte	0x2e
 2852 0252 CE000000 		.4byte	0xce
 2853 0256 08       		.byte	0x8
 2854 0257 09       		.uleb128 0x9
 2855 0258 6D130000 		.4byte	.LASF41
 2856 025c 0A       		.byte	0xa
 2857 025d 2F       		.byte	0x2f
 2858 025e C3000000 		.4byte	0xc3
 2859 0262 0A       		.byte	0xa
 2860 0263 09       		.uleb128 0x9
 2861 0264 73130000 		.4byte	.LASF42
ARM GAS  C:\Users\haske\AppData\Local\Temp\ccSAQWsX.s 			page 82


 2862 0268 0A       		.byte	0xa
 2863 0269 30       		.byte	0x30
 2864 026a C3000000 		.4byte	0xc3
 2865 026e 0C       		.byte	0xc
 2866 026f 0E       		.uleb128 0xe
 2867 0270 62707000 		.ascii	"bpp\000"
 2868 0274 0A       		.byte	0xa
 2869 0275 31       		.byte	0x31
 2870 0276 B8000000 		.4byte	0xb8
 2871 027a 01       		.byte	0x1
 2872 027b 04       		.byte	0x4
 2873 027c 04       		.byte	0x4
 2874 027d 0E       		.byte	0xe
 2875 027e 0A       		.uleb128 0xa
 2876 027f EA170000 		.4byte	.LASF44
 2877 0283 0A       		.byte	0xa
 2878 0284 32       		.byte	0x32
 2879 0285 B8000000 		.4byte	0xb8
 2880 0289 01       		.byte	0x1
 2881 028a 01       		.byte	0x1
 2882 028b 03       		.byte	0x3
 2883 028c 0E       		.byte	0xe
 2884 028d 00       		.byte	0
 2885 028e 08       		.uleb128 0x8
 2886 028f 751F0000 		.4byte	.LASF46
 2887 0293 1C       		.byte	0x1c
 2888 0294 0A       		.byte	0xa
 2889 0295 40       		.byte	0x40
 2890 0296 16030000 		.4byte	0x316
 2891 029a 09       		.uleb128 0x9
 2892 029b 7C1D0000 		.4byte	.LASF47
 2893 029f 0A       		.byte	0xa
 2894 02a0 42       		.byte	0x42
 2895 02a1 57030000 		.4byte	0x357
 2896 02a5 00       		.byte	0
 2897 02a6 09       		.uleb128 0x9
 2898 02a7 B8170000 		.4byte	.LASF48
 2899 02ab 0A       		.byte	0xa
 2900 02ac 45       		.byte	0x45
 2901 02ad 7C030000 		.4byte	0x37c
 2902 02b1 04       		.byte	0x4
 2903 02b2 09       		.uleb128 0x9
 2904 02b3 EA150000 		.4byte	.LASF49
 2905 02b7 0A       		.byte	0xa
 2906 02b8 48       		.byte	0x48
 2907 02b9 A1010000 		.4byte	0x1a1
 2908 02bd 08       		.byte	0x8
 2909 02be 09       		.uleb128 0x9
 2910 02bf DA1A0000 		.4byte	.LASF50
 2911 02c3 0A       		.byte	0xa
 2912 02c4 49       		.byte	0x49
 2913 02c5 A1010000 		.4byte	0x1a1
 2914 02c9 0A       		.byte	0xa
 2915 02ca 0A       		.uleb128 0xa
 2916 02cb F1020000 		.4byte	.LASF51
 2917 02cf 0A       		.byte	0xa
 2918 02d0 4A       		.byte	0x4a
ARM GAS  C:\Users\haske\AppData\Local\Temp\ccSAQWsX.s 			page 83


 2919 02d1 B8000000 		.4byte	0xb8
 2920 02d5 01       		.byte	0x1
 2921 02d6 02       		.byte	0x2
 2922 02d7 06       		.byte	0x6
 2923 02d8 0C       		.byte	0xc
 2924 02d9 09       		.uleb128 0x9
 2925 02da E6080000 		.4byte	.LASF52
 2926 02de 0A       		.byte	0xa
 2927 02df 4C       		.byte	0x4c
 2928 02e0 AD000000 		.4byte	0xad
 2929 02e4 0D       		.byte	0xd
 2930 02e5 09       		.uleb128 0x9
 2931 02e6 37010000 		.4byte	.LASF53
 2932 02ea 0A       		.byte	0xa
 2933 02eb 4D       		.byte	0x4d
 2934 02ec AD000000 		.4byte	0xad
 2935 02f0 0E       		.byte	0xe
 2936 02f1 0D       		.uleb128 0xd
 2937 02f2 64736300 		.ascii	"dsc\000"
 2938 02f6 0A       		.byte	0xa
 2939 02f7 4F       		.byte	0x4f
 2940 02f8 82030000 		.4byte	0x382
 2941 02fc 10       		.byte	0x10
 2942 02fd 09       		.uleb128 0x9
 2943 02fe DC020000 		.4byte	.LASF54
 2944 0302 0A       		.byte	0xa
 2945 0303 50       		.byte	0x50
 2946 0304 16030000 		.4byte	0x316
 2947 0308 14       		.byte	0x14
 2948 0309 09       		.uleb128 0x9
 2949 030a 3A180000 		.4byte	.LASF26
 2950 030e 0A       		.byte	0xa
 2951 030f 52       		.byte	0x52
 2952 0310 74010000 		.4byte	0x174
 2953 0314 18       		.byte	0x18
 2954 0315 00       		.byte	0
 2955 0316 05       		.uleb128 0x5
 2956 0317 04       		.byte	0x4
 2957 0318 1C030000 		.4byte	0x31c
 2958 031c 0F       		.uleb128 0xf
 2959 031d 8E020000 		.4byte	0x28e
 2960 0321 02       		.uleb128 0x2
 2961 0322 DA010000 		.4byte	.LASF55
 2962 0326 0A       		.byte	0xa
 2963 0327 33       		.byte	0x33
 2964 0328 1F020000 		.4byte	0x21f
 2965 032c 10       		.uleb128 0x10
 2966 032d 4A030000 		.4byte	0x34a
 2967 0331 4A030000 		.4byte	0x34a
 2968 0335 07       		.uleb128 0x7
 2969 0336 16030000 		.4byte	0x316
 2970 033a 07       		.uleb128 0x7
 2971 033b 51030000 		.4byte	0x351
 2972 033f 07       		.uleb128 0x7
 2973 0340 E4000000 		.4byte	0xe4
 2974 0344 07       		.uleb128 0x7
 2975 0345 E4000000 		.4byte	0xe4
ARM GAS  C:\Users\haske\AppData\Local\Temp\ccSAQWsX.s 			page 84


 2976 0349 00       		.byte	0
 2977 034a 03       		.uleb128 0x3
 2978 034b 01       		.byte	0x1
 2979 034c 02       		.byte	0x2
 2980 034d BE000000 		.4byte	.LASF56
 2981 0351 05       		.uleb128 0x5
 2982 0352 04       		.byte	0x4
 2983 0353 21030000 		.4byte	0x321
 2984 0357 05       		.uleb128 0x5
 2985 0358 04       		.byte	0x4
 2986 0359 2C030000 		.4byte	0x32c
 2987 035d 10       		.uleb128 0x10
 2988 035e 71030000 		.4byte	0x371
 2989 0362 71030000 		.4byte	0x371
 2990 0366 07       		.uleb128 0x7
 2991 0367 16030000 		.4byte	0x316
 2992 036b 07       		.uleb128 0x7
 2993 036c E4000000 		.4byte	0xe4
 2994 0370 00       		.byte	0
 2995 0371 05       		.uleb128 0x5
 2996 0372 04       		.byte	0x4
 2997 0373 77030000 		.4byte	0x377
 2998 0377 0F       		.uleb128 0xf
 2999 0378 B8000000 		.4byte	0xb8
 3000 037c 05       		.uleb128 0x5
 3001 037d 04       		.byte	0x4
 3002 037e 5D030000 		.4byte	0x35d
 3003 0382 05       		.uleb128 0x5
 3004 0383 04       		.byte	0x4
 3005 0384 88030000 		.4byte	0x388
 3006 0388 11       		.uleb128 0x11
 3007 0389 02       		.uleb128 0x2
 3008 038a 81160000 		.4byte	.LASF57
 3009 038e 0A       		.byte	0xa
 3010 038f 54       		.byte	0x54
 3011 0390 8E020000 		.4byte	0x28e
 3012 0394 12       		.uleb128 0x12
 3013 0395 01       		.byte	0x1
 3014 0396 42000000 		.4byte	0x42
 3015 039a 02       		.byte	0x2
 3016 039b 29       		.byte	0x29
 3017 039c EF030000 		.4byte	0x3ef
 3018 03a0 13       		.uleb128 0x13
 3019 03a1 881B0000 		.4byte	.LASF58
 3020 03a5 00       		.byte	0
 3021 03a6 13       		.uleb128 0x13
 3022 03a7 0F230000 		.4byte	.LASF59
 3023 03ab 00       		.byte	0
 3024 03ac 13       		.uleb128 0x13
 3025 03ad 41190000 		.4byte	.LASF60
 3026 03b1 19       		.byte	0x19
 3027 03b2 13       		.uleb128 0x13
 3028 03b3 081A0000 		.4byte	.LASF61
 3029 03b7 33       		.byte	0x33
 3030 03b8 13       		.uleb128 0x13
 3031 03b9 9F1A0000 		.4byte	.LASF62
 3032 03bd 4C       		.byte	0x4c
ARM GAS  C:\Users\haske\AppData\Local\Temp\ccSAQWsX.s 			page 85


 3033 03be 13       		.uleb128 0x13
 3034 03bf 661B0000 		.4byte	.LASF63
 3035 03c3 66       		.byte	0x66
 3036 03c4 13       		.uleb128 0x13
 3037 03c5 5F1C0000 		.4byte	.LASF64
 3038 03c9 7F       		.byte	0x7f
 3039 03ca 13       		.uleb128 0x13
 3040 03cb DF1C0000 		.4byte	.LASF65
 3041 03cf 99       		.byte	0x99
 3042 03d0 13       		.uleb128 0x13
 3043 03d1 D41D0000 		.4byte	.LASF66
 3044 03d5 B2       		.byte	0xb2
 3045 03d6 13       		.uleb128 0x13
 3046 03d7 491E0000 		.4byte	.LASF67
 3047 03db CC       		.byte	0xcc
 3048 03dc 13       		.uleb128 0x13
 3049 03dd 801F0000 		.4byte	.LASF68
 3050 03e1 E5       		.byte	0xe5
 3051 03e2 13       		.uleb128 0x13
 3052 03e3 F6200000 		.4byte	.LASF69
 3053 03e7 FF       		.byte	0xff
 3054 03e8 13       		.uleb128 0x13
 3055 03e9 2C240000 		.4byte	.LASF70
 3056 03ed FF       		.byte	0xff
 3057 03ee 00       		.byte	0
 3058 03ef 0C       		.uleb128 0xc
 3059 03f0 02       		.byte	0x2
 3060 03f1 02       		.byte	0x2
 3061 03f2 D1       		.byte	0xd1
 3062 03f3 25040000 		.4byte	0x425
 3063 03f7 0A       		.uleb128 0xa
 3064 03f8 0A230000 		.4byte	.LASF71
 3065 03fc 02       		.byte	0x2
 3066 03fd D3       		.byte	0xd3
 3067 03fe CE000000 		.4byte	0xce
 3068 0402 02       		.byte	0x2
 3069 0403 05       		.byte	0x5
 3070 0404 0B       		.byte	0xb
 3071 0405 00       		.byte	0
 3072 0406 0A       		.uleb128 0xa
 3073 0407 B4140000 		.4byte	.LASF72
 3074 040b 02       		.byte	0x2
 3075 040c D4       		.byte	0xd4
 3076 040d CE000000 		.4byte	0xce
 3077 0411 02       		.byte	0x2
 3078 0412 06       		.byte	0x6
 3079 0413 05       		.byte	0x5
 3080 0414 00       		.byte	0
 3081 0415 0E       		.uleb128 0xe
 3082 0416 72656400 		.ascii	"red\000"
 3083 041a 02       		.byte	0x2
 3084 041b D5       		.byte	0xd5
 3085 041c CE000000 		.4byte	0xce
 3086 0420 02       		.byte	0x2
 3087 0421 05       		.byte	0x5
 3088 0422 00       		.byte	0
 3089 0423 00       		.byte	0
ARM GAS  C:\Users\haske\AppData\Local\Temp\ccSAQWsX.s 			page 86


 3090 0424 00       		.byte	0
 3091 0425 14       		.uleb128 0x14
 3092 0426 02       		.byte	0x2
 3093 0427 02       		.byte	0x2
 3094 0428 D0       		.byte	0xd0
 3095 0429 43040000 		.4byte	0x443
 3096 042d 15       		.uleb128 0x15
 3097 042e 636800   		.ascii	"ch\000"
 3098 0431 02       		.byte	0x2
 3099 0432 DC       		.byte	0xdc
 3100 0433 EF030000 		.4byte	0x3ef
 3101 0437 16       		.uleb128 0x16
 3102 0438 05150000 		.4byte	.LASF73
 3103 043c 02       		.byte	0x2
 3104 043d DD       		.byte	0xdd
 3105 043e CE000000 		.4byte	0xce
 3106 0442 00       		.byte	0
 3107 0443 02       		.uleb128 0x2
 3108 0444 AC0A0000 		.4byte	.LASF74
 3109 0448 02       		.byte	0x2
 3110 0449 DE       		.byte	0xde
 3111 044a 25040000 		.4byte	0x425
 3112 044e 02       		.uleb128 0x2
 3113 044f 5B0A0000 		.4byte	.LASF75
 3114 0453 02       		.byte	0x2
 3115 0454 EB       		.byte	0xeb
 3116 0455 43040000 		.4byte	0x443
 3117 0459 02       		.uleb128 0x2
 3118 045a 51180000 		.4byte	.LASF76
 3119 045e 02       		.byte	0x2
 3120 045f F5       		.byte	0xf5
 3121 0460 B8000000 		.4byte	0xb8
 3122 0464 02       		.uleb128 0x2
 3123 0465 950A0000 		.4byte	.LASF77
 3124 0469 0B       		.byte	0xb
 3125 046a 30       		.byte	0x30
 3126 046b B8000000 		.4byte	0xb8
 3127 046f 02       		.uleb128 0x2
 3128 0470 85000000 		.4byte	.LASF78
 3129 0474 0B       		.byte	0xb
 3130 0475 42       		.byte	0x42
 3131 0476 B8000000 		.4byte	0xb8
 3132 047a 02       		.uleb128 0x2
 3133 047b 7C1C0000 		.4byte	.LASF79
 3134 047f 0C       		.byte	0xc
 3135 0480 2A       		.byte	0x2a
 3136 0481 B8000000 		.4byte	0xb8
 3137 0485 02       		.uleb128 0x2
 3138 0486 98220000 		.4byte	.LASF80
 3139 048a 03       		.byte	0x3
 3140 048b 5E       		.byte	0x5e
 3141 048c B8000000 		.4byte	0xb8
 3142 0490 12       		.uleb128 0x12
 3143 0491 01       		.byte	0x1
 3144 0492 42000000 		.4byte	0x42
 3145 0496 03       		.byte	0x3
 3146 0497 64       		.byte	0x64
ARM GAS  C:\Users\haske\AppData\Local\Temp\ccSAQWsX.s 			page 87


 3147 0498 AF040000 		.4byte	0x4af
 3148 049c 13       		.uleb128 0x13
 3149 049d 691C0000 		.4byte	.LASF81
 3150 04a1 00       		.byte	0
 3151 04a2 13       		.uleb128 0x13
 3152 04a3 B3180000 		.4byte	.LASF82
 3153 04a7 01       		.byte	0x1
 3154 04a8 13       		.uleb128 0x13
 3155 04a9 70030000 		.4byte	.LASF83
 3156 04ad 02       		.byte	0x2
 3157 04ae 00       		.byte	0
 3158 04af 02       		.uleb128 0x2
 3159 04b0 41090000 		.4byte	.LASF84
 3160 04b4 03       		.byte	0x3
 3161 04b5 6A       		.byte	0x6a
 3162 04b6 B8000000 		.4byte	0xb8
 3163 04ba 12       		.uleb128 0x12
 3164 04bb 01       		.byte	0x1
 3165 04bc 42000000 		.4byte	0x42
 3166 04c0 03       		.byte	0x3
 3167 04c1 70       		.byte	0x70
 3168 04c2 F1040000 		.4byte	0x4f1
 3169 04c6 13       		.uleb128 0x13
 3170 04c7 71000000 		.4byte	.LASF85
 3171 04cb 00       		.byte	0
 3172 04cc 13       		.uleb128 0x13
 3173 04cd B9040000 		.4byte	.LASF86
 3174 04d1 01       		.byte	0x1
 3175 04d2 13       		.uleb128 0x13
 3176 04d3 BB1D0000 		.4byte	.LASF87
 3177 04d7 02       		.byte	0x2
 3178 04d8 13       		.uleb128 0x13
 3179 04d9 02250000 		.4byte	.LASF88
 3180 04dd 04       		.byte	0x4
 3181 04de 13       		.uleb128 0x13
 3182 04df F6130000 		.4byte	.LASF89
 3183 04e3 08       		.byte	0x8
 3184 04e4 13       		.uleb128 0x13
 3185 04e5 1B1B0000 		.4byte	.LASF90
 3186 04e9 0F       		.byte	0xf
 3187 04ea 13       		.uleb128 0x13
 3188 04eb 82110000 		.4byte	.LASF91
 3189 04ef 10       		.byte	0x10
 3190 04f0 00       		.byte	0
 3191 04f1 02       		.uleb128 0x2
 3192 04f2 D5080000 		.4byte	.LASF92
 3193 04f6 03       		.byte	0x3
 3194 04f7 79       		.byte	0x79
 3195 04f8 B8000000 		.4byte	0xb8
 3196 04fc 02       		.uleb128 0x2
 3197 04fd E4060000 		.4byte	.LASF93
 3198 0501 03       		.byte	0x3
 3199 0502 84       		.byte	0x84
 3200 0503 B8000000 		.4byte	0xb8
 3201 0507 02       		.uleb128 0x2
 3202 0508 991C0000 		.4byte	.LASF94
 3203 050c 03       		.byte	0x3
ARM GAS  C:\Users\haske\AppData\Local\Temp\ccSAQWsX.s 			page 88


 3204 050d 90       		.byte	0x90
 3205 050e B8000000 		.4byte	0xb8
 3206 0512 0C       		.uleb128 0xc
 3207 0513 04       		.byte	0x4
 3208 0514 03       		.byte	0x3
 3209 0515 95       		.byte	0x95
 3210 0516 33050000 		.4byte	0x533
 3211 051a 09       		.uleb128 0x9
 3212 051b 991A0000 		.4byte	.LASF95
 3213 051f 03       		.byte	0x3
 3214 0520 96       		.byte	0x96
 3215 0521 4E040000 		.4byte	0x44e
 3216 0525 00       		.byte	0
 3217 0526 09       		.uleb128 0x9
 3218 0527 E5020000 		.4byte	.LASF96
 3219 052b 03       		.byte	0x3
 3220 052c 97       		.byte	0x97
 3221 052d B8000000 		.4byte	0xb8
 3222 0531 02       		.byte	0x2
 3223 0532 00       		.byte	0
 3224 0533 02       		.uleb128 0x2
 3225 0534 2C140000 		.4byte	.LASF97
 3226 0538 03       		.byte	0x3
 3227 0539 98       		.byte	0x98
 3228 053a 12050000 		.4byte	0x512
 3229 053e 0C       		.uleb128 0xc
 3230 053f 0A       		.byte	0xa
 3231 0540 03       		.byte	0x3
 3232 0541 9B       		.byte	0x9b
 3233 0542 7D050000 		.4byte	0x57d
 3234 0546 09       		.uleb128 0x9
 3235 0547 2C210000 		.4byte	.LASF98
 3236 054b 03       		.byte	0x3
 3237 054c 9C       		.byte	0x9c
 3238 054d 7D050000 		.4byte	0x57d
 3239 0551 00       		.byte	0
 3240 0552 09       		.uleb128 0x9
 3241 0553 CB0F0000 		.4byte	.LASF99
 3242 0557 03       		.byte	0x3
 3243 0558 9D       		.byte	0x9d
 3244 0559 B8000000 		.4byte	0xb8
 3245 055d 08       		.byte	0x8
 3246 055e 0E       		.uleb128 0xe
 3247 055f 64697200 		.ascii	"dir\000"
 3248 0563 03       		.byte	0x3
 3249 0564 9E       		.byte	0x9e
 3250 0565 FC040000 		.4byte	0x4fc
 3251 0569 01       		.byte	0x1
 3252 056a 03       		.byte	0x3
 3253 056b 05       		.byte	0x5
 3254 056c 09       		.byte	0x9
 3255 056d 0A       		.uleb128 0xa
 3256 056e F3210000 		.4byte	.LASF100
 3257 0572 03       		.byte	0x3
 3258 0573 A0       		.byte	0xa0
 3259 0574 07050000 		.4byte	0x507
 3260 0578 01       		.byte	0x1
ARM GAS  C:\Users\haske\AppData\Local\Temp\ccSAQWsX.s 			page 89


 3261 0579 03       		.byte	0x3
 3262 057a 02       		.byte	0x2
 3263 057b 09       		.byte	0x9
 3264 057c 00       		.byte	0
 3265 057d 17       		.uleb128 0x17
 3266 057e 33050000 		.4byte	0x533
 3267 0582 8D050000 		.4byte	0x58d
 3268 0586 18       		.uleb128 0x18
 3269 0587 93010000 		.4byte	0x193
 3270 058b 01       		.byte	0x1
 3271 058c 00       		.byte	0
 3272 058d 02       		.uleb128 0x2
 3273 058e 23150000 		.4byte	.LASF101
 3274 0592 03       		.byte	0x3
 3275 0593 A2       		.byte	0xa2
 3276 0594 3E050000 		.4byte	0x53e
 3277 0598 14       		.uleb128 0x14
 3278 0599 04       		.byte	0x4
 3279 059a 03       		.byte	0x3
 3280 059b A7       		.byte	0xa7
 3281 059c C2050000 		.4byte	0x5c2
 3282 05a0 15       		.uleb128 0x15
 3283 05a1 6E756D00 		.ascii	"num\000"
 3284 05a5 03       		.byte	0x3
 3285 05a6 A8       		.byte	0xa8
 3286 05a7 D9000000 		.4byte	0xd9
 3287 05ab 15       		.uleb128 0x15
 3288 05ac 70747200 		.ascii	"ptr\000"
 3289 05b0 03       		.byte	0x3
 3290 05b1 A9       		.byte	0xa9
 3291 05b2 82030000 		.4byte	0x382
 3292 05b6 16       		.uleb128 0x16
 3293 05b7 991A0000 		.4byte	.LASF95
 3294 05bb 03       		.byte	0x3
 3295 05bc AA       		.byte	0xaa
 3296 05bd 4E040000 		.4byte	0x44e
 3297 05c1 00       		.byte	0
 3298 05c2 02       		.uleb128 0x2
 3299 05c3 3F230000 		.4byte	.LASF102
 3300 05c7 03       		.byte	0x3
 3301 05c8 AB       		.byte	0xab
 3302 05c9 98050000 		.4byte	0x598
 3303 05cd 12       		.uleb128 0x12
 3304 05ce 02       		.byte	0x2
 3305 05cf 66000000 		.4byte	0x66
 3306 05d3 03       		.byte	0x3
 3307 05d4 B2       		.byte	0xb2
 3308 05d5 F2070000 		.4byte	0x7f2
 3309 05d9 13       		.uleb128 0x13
 3310 05da D7230000 		.4byte	.LASF103
 3311 05de 00       		.byte	0
 3312 05df 13       		.uleb128 0x13
 3313 05e0 6C1A0000 		.4byte	.LASF104
 3314 05e4 01       		.byte	0x1
 3315 05e5 13       		.uleb128 0x13
 3316 05e6 1A050000 		.4byte	.LASF105
 3317 05ea 02       		.byte	0x2
ARM GAS  C:\Users\haske\AppData\Local\Temp\ccSAQWsX.s 			page 90


 3318 05eb 13       		.uleb128 0x13
 3319 05ec 33030000 		.4byte	.LASF106
 3320 05f0 03       		.byte	0x3
 3321 05f1 13       		.uleb128 0x13
 3322 05f2 37060000 		.4byte	.LASF107
 3323 05f6 04       		.byte	0x4
 3324 05f7 13       		.uleb128 0x13
 3325 05f8 13260000 		.4byte	.LASF108
 3326 05fc 05       		.byte	0x5
 3327 05fd 13       		.uleb128 0x13
 3328 05fe 7A170000 		.4byte	.LASF109
 3329 0602 06       		.byte	0x6
 3330 0603 13       		.uleb128 0x13
 3331 0604 CE050000 		.4byte	.LASF110
 3332 0608 07       		.byte	0x7
 3333 0609 13       		.uleb128 0x13
 3334 060a D9050000 		.4byte	.LASF111
 3335 060e 08       		.byte	0x8
 3336 060f 13       		.uleb128 0x13
 3337 0610 EF120000 		.4byte	.LASF112
 3338 0614 09       		.byte	0x9
 3339 0615 13       		.uleb128 0x13
 3340 0616 48000000 		.4byte	.LASF113
 3341 061a 0A       		.byte	0xa
 3342 061b 13       		.uleb128 0x13
 3343 061c DE1D0000 		.4byte	.LASF114
 3344 0620 0B       		.byte	0xb
 3345 0621 13       		.uleb128 0x13
 3346 0622 961B0000 		.4byte	.LASF115
 3347 0626 10       		.byte	0x10
 3348 0627 13       		.uleb128 0x13
 3349 0628 01210000 		.4byte	.LASF116
 3350 062c 11       		.byte	0x11
 3351 062d 13       		.uleb128 0x13
 3352 062e CD1C0000 		.4byte	.LASF117
 3353 0632 12       		.byte	0x12
 3354 0633 13       		.uleb128 0x13
 3355 0634 2E120000 		.4byte	.LASF118
 3356 0638 13       		.byte	0x13
 3357 0639 13       		.uleb128 0x13
 3358 063a 2B130000 		.4byte	.LASF119
 3359 063e 14       		.byte	0x14
 3360 063f 13       		.uleb128 0x13
 3361 0640 C6010000 		.4byte	.LASF120
 3362 0644 15       		.byte	0x15
 3363 0645 13       		.uleb128 0x13
 3364 0646 1C120000 		.4byte	.LASF121
 3365 064a 16       		.byte	0x16
 3366 064b 13       		.uleb128 0x13
 3367 064c B31F0000 		.4byte	.LASF122
 3368 0650 17       		.byte	0x17
 3369 0651 13       		.uleb128 0x13
 3370 0652 10220000 		.4byte	.LASF123
 3371 0656 20       		.byte	0x20
 3372 0657 13       		.uleb128 0x13
 3373 0658 52130000 		.4byte	.LASF124
 3374 065c 21       		.byte	0x21
ARM GAS  C:\Users\haske\AppData\Local\Temp\ccSAQWsX.s 			page 91


 3375 065d 13       		.uleb128 0x13
 3376 065e EF050000 		.4byte	.LASF125
 3377 0662 22       		.byte	0x22
 3378 0663 13       		.uleb128 0x13
 3379 0664 7B060000 		.4byte	.LASF126
 3380 0668 23       		.byte	0x23
 3381 0669 13       		.uleb128 0x13
 3382 066a 6F010000 		.4byte	.LASF127
 3383 066e 24       		.byte	0x24
 3384 066f 13       		.uleb128 0x13
 3385 0670 D10E0000 		.4byte	.LASF128
 3386 0674 25       		.byte	0x25
 3387 0675 13       		.uleb128 0x13
 3388 0676 E5130000 		.4byte	.LASF129
 3389 067a 26       		.byte	0x26
 3390 067b 13       		.uleb128 0x13
 3391 067c 120D0000 		.4byte	.LASF130
 3392 0680 27       		.byte	0x27
 3393 0681 13       		.uleb128 0x13
 3394 0682 ED110000 		.4byte	.LASF131
 3395 0686 28       		.byte	0x28
 3396 0687 13       		.uleb128 0x13
 3397 0688 28020000 		.4byte	.LASF132
 3398 068c 29       		.byte	0x29
 3399 068d 13       		.uleb128 0x13
 3400 068e 29090000 		.4byte	.LASF133
 3401 0692 2A       		.byte	0x2a
 3402 0693 13       		.uleb128 0x13
 3403 0694 45220000 		.4byte	.LASF134
 3404 0698 2B       		.byte	0x2b
 3405 0699 13       		.uleb128 0x13
 3406 069a C0110000 		.4byte	.LASF135
 3407 069e 2C       		.byte	0x2c
 3408 069f 13       		.uleb128 0x13
 3409 06a0 FA210000 		.4byte	.LASF136
 3410 06a4 30       		.byte	0x30
 3411 06a5 13       		.uleb128 0x13
 3412 06a6 18140000 		.4byte	.LASF137
 3413 06aa 31       		.byte	0x31
 3414 06ab 13       		.uleb128 0x13
 3415 06ac 9E140000 		.4byte	.LASF138
 3416 06b0 32       		.byte	0x32
 3417 06b1 13       		.uleb128 0x13
 3418 06b2 0C0C0000 		.4byte	.LASF139
 3419 06b6 33       		.byte	0x33
 3420 06b7 13       		.uleb128 0x13
 3421 06b8 F81A0000 		.4byte	.LASF140
 3422 06bc 34       		.byte	0x34
 3423 06bd 13       		.uleb128 0x13
 3424 06be 39100000 		.4byte	.LASF141
 3425 06c2 35       		.byte	0x35
 3426 06c3 13       		.uleb128 0x13
 3427 06c4 5C1E0000 		.4byte	.LASF142
 3428 06c8 36       		.byte	0x36
 3429 06c9 13       		.uleb128 0x13
 3430 06ca A7250000 		.4byte	.LASF143
 3431 06ce 37       		.byte	0x37
ARM GAS  C:\Users\haske\AppData\Local\Temp\ccSAQWsX.s 			page 92


 3432 06cf 13       		.uleb128 0x13
 3433 06d0 44200000 		.4byte	.LASF144
 3434 06d4 38       		.byte	0x38
 3435 06d5 13       		.uleb128 0x13
 3436 06d6 27260000 		.4byte	.LASF145
 3437 06da 40       		.byte	0x40
 3438 06db 13       		.uleb128 0x13
 3439 06dc 80190000 		.4byte	.LASF146
 3440 06e0 41       		.byte	0x41
 3441 06e1 13       		.uleb128 0x13
 3442 06e2 96190000 		.4byte	.LASF147
 3443 06e6 42       		.byte	0x42
 3444 06e7 13       		.uleb128 0x13
 3445 06e8 821A0000 		.4byte	.LASF148
 3446 06ec 43       		.byte	0x43
 3447 06ed 13       		.uleb128 0x13
 3448 06ee 7E0B0000 		.4byte	.LASF149
 3449 06f2 44       		.byte	0x44
 3450 06f3 13       		.uleb128 0x13
 3451 06f4 A4170000 		.4byte	.LASF150
 3452 06f8 45       		.byte	0x45
 3453 06f9 13       		.uleb128 0x13
 3454 06fa 63200000 		.4byte	.LASF151
 3455 06fe 46       		.byte	0x46
 3456 06ff 13       		.uleb128 0x13
 3457 0700 B2080000 		.4byte	.LASF152
 3458 0704 47       		.byte	0x47
 3459 0705 13       		.uleb128 0x13
 3460 0706 CC200000 		.4byte	.LASF153
 3461 070a 48       		.byte	0x48
 3462 070b 13       		.uleb128 0x13
 3463 070c 10030000 		.4byte	.LASF154
 3464 0710 49       		.byte	0x49
 3465 0711 13       		.uleb128 0x13
 3466 0712 F90C0000 		.4byte	.LASF155
 3467 0716 4A       		.byte	0x4a
 3468 0717 13       		.uleb128 0x13
 3469 0718 E91C0000 		.4byte	.LASF156
 3470 071c 4B       		.byte	0x4b
 3471 071d 13       		.uleb128 0x13
 3472 071e 5A030000 		.4byte	.LASF157
 3473 0722 4C       		.byte	0x4c
 3474 0723 13       		.uleb128 0x13
 3475 0724 070F0000 		.4byte	.LASF158
 3476 0728 4D       		.byte	0x4d
 3477 0729 13       		.uleb128 0x13
 3478 072a F1190000 		.4byte	.LASF159
 3479 072e 4E       		.byte	0x4e
 3480 072f 13       		.uleb128 0x13
 3481 0730 87250000 		.4byte	.LASF160
 3482 0734 50       		.byte	0x50
 3483 0735 13       		.uleb128 0x13
 3484 0736 6B190000 		.4byte	.LASF161
 3485 073a 51       		.byte	0x51
 3486 073b 13       		.uleb128 0x13
 3487 073c F40A0000 		.4byte	.LASF162
 3488 0740 52       		.byte	0x52
ARM GAS  C:\Users\haske\AppData\Local\Temp\ccSAQWsX.s 			page 93


 3489 0741 13       		.uleb128 0x13
 3490 0742 94080000 		.4byte	.LASF163
 3491 0746 53       		.byte	0x53
 3492 0747 13       		.uleb128 0x13
 3493 0748 0D200000 		.4byte	.LASF164
 3494 074c 54       		.byte	0x54
 3495 074d 13       		.uleb128 0x13
 3496 074e E41A0000 		.4byte	.LASF165
 3497 0752 55       		.byte	0x55
 3498 0753 13       		.uleb128 0x13
 3499 0754 4D0B0000 		.4byte	.LASF166
 3500 0758 56       		.byte	0x56
 3501 0759 13       		.uleb128 0x13
 3502 075a AB020000 		.4byte	.LASF167
 3503 075e 57       		.byte	0x57
 3504 075f 13       		.uleb128 0x13
 3505 0760 4F0E0000 		.4byte	.LASF168
 3506 0764 58       		.byte	0x58
 3507 0765 13       		.uleb128 0x13
 3508 0766 7B230000 		.4byte	.LASF169
 3509 076a 59       		.byte	0x59
 3510 076b 13       		.uleb128 0x13
 3511 076c 210C0000 		.4byte	.LASF170
 3512 0770 5A       		.byte	0x5a
 3513 0771 13       		.uleb128 0x13
 3514 0772 D8070000 		.4byte	.LASF171
 3515 0776 5B       		.byte	0x5b
 3516 0777 13       		.uleb128 0x13
 3517 0778 1C040000 		.4byte	.LASF172
 3518 077c 60       		.byte	0x60
 3519 077d 13       		.uleb128 0x13
 3520 077e 6A240000 		.4byte	.LASF173
 3521 0782 61       		.byte	0x61
 3522 0783 13       		.uleb128 0x13
 3523 0784 5D250000 		.4byte	.LASF174
 3524 0788 62       		.byte	0x62
 3525 0789 13       		.uleb128 0x13
 3526 078a 0B1D0000 		.4byte	.LASF175
 3527 078e 63       		.byte	0x63
 3528 078f 13       		.uleb128 0x13
 3529 0790 BE0E0000 		.4byte	.LASF176
 3530 0794 64       		.byte	0x64
 3531 0795 13       		.uleb128 0x13
 3532 0796 9D040000 		.4byte	.LASF177
 3533 079a 65       		.byte	0x65
 3534 079b 13       		.uleb128 0x13
 3535 079c 08120000 		.4byte	.LASF178
 3536 07a0 66       		.byte	0x66
 3537 07a1 13       		.uleb128 0x13
 3538 07a2 2D050000 		.4byte	.LASF179
 3539 07a6 67       		.byte	0x67
 3540 07a7 13       		.uleb128 0x13
 3541 07a8 F7020000 		.4byte	.LASF180
 3542 07ac 68       		.byte	0x68
 3543 07ad 13       		.uleb128 0x13
 3544 07ae EE010000 		.4byte	.LASF181
 3545 07b2 69       		.byte	0x69
ARM GAS  C:\Users\haske\AppData\Local\Temp\ccSAQWsX.s 			page 94


 3546 07b3 13       		.uleb128 0x13
 3547 07b4 F30D0000 		.4byte	.LASF182
 3548 07b8 6A       		.byte	0x6a
 3549 07b9 13       		.uleb128 0x13
 3550 07ba 080E0000 		.4byte	.LASF183
 3551 07be 6B       		.byte	0x6b
 3552 07bf 13       		.uleb128 0x13
 3553 07c0 701B0000 		.4byte	.LASF184
 3554 07c4 6C       		.byte	0x6c
 3555 07c5 13       		.uleb128 0x13
 3556 07c6 F31D0000 		.4byte	.LASF185
 3557 07ca 6D       		.byte	0x6d
 3558 07cb 13       		.uleb128 0x13
 3559 07cc 291C0000 		.4byte	.LASF186
 3560 07d0 6E       		.byte	0x6e
 3561 07d1 13       		.uleb128 0x13
 3562 07d2 441C0000 		.4byte	.LASF187
 3563 07d6 6F       		.byte	0x6f
 3564 07d7 13       		.uleb128 0x13
 3565 07d8 51090000 		.4byte	.LASF188
 3566 07dc 6F       		.byte	0x6f
 3567 07dd 13       		.uleb128 0x13
 3568 07de A10E0000 		.4byte	.LASF189
 3569 07e2 70       		.byte	0x70
 3570 07e3 19       		.uleb128 0x19
 3571 07e4 06060000 		.4byte	.LASF190
 3572 07e8 FFFF     		.2byte	0xffff
 3573 07ea 19       		.uleb128 0x19
 3574 07eb FF030000 		.4byte	.LASF191
 3575 07ef FFFF     		.2byte	0xffff
 3576 07f1 00       		.byte	0
 3577 07f2 1A       		.uleb128 0x1a
 3578 07f3 EF160000 		.4byte	.LASF192
 3579 07f7 03       		.byte	0x3
 3580 07f8 1C01     		.2byte	0x11c
 3581 07fa CD050000 		.4byte	0x5cd
 3582 07fe 1B       		.uleb128 0x1b
 3583 07ff 08       		.byte	0x8
 3584 0800 03       		.byte	0x3
 3585 0801 3601     		.2byte	0x136
 3586 0803 22080000 		.4byte	0x822
 3587 0807 1C       		.uleb128 0x1c
 3588 0808 CF040000 		.4byte	.LASF193
 3589 080c 03       		.byte	0x3
 3590 080d 3701     		.2byte	0x137
 3591 080f F2070000 		.4byte	0x7f2
 3592 0813 00       		.byte	0
 3593 0814 1C       		.uleb128 0x1c
 3594 0815 5D0F0000 		.4byte	.LASF194
 3595 0819 03       		.byte	0x3
 3596 081a 3801     		.2byte	0x138
 3597 081c C2050000 		.4byte	0x5c2
 3598 0820 04       		.byte	0x4
 3599 0821 00       		.byte	0
 3600 0822 1A       		.uleb128 0x1a
 3601 0823 97120000 		.4byte	.LASF195
 3602 0827 03       		.byte	0x3
ARM GAS  C:\Users\haske\AppData\Local\Temp\ccSAQWsX.s 			page 95


 3603 0828 3901     		.2byte	0x139
 3604 082a FE070000 		.4byte	0x7fe
 3605 082e 1D       		.uleb128 0x1d
 3606 082f 04       		.byte	0x4
 3607 0830 03       		.byte	0x3
 3608 0831 4601     		.2byte	0x146
 3609 0833 5C080000 		.4byte	0x85c
 3610 0837 1E       		.uleb128 0x1e
 3611 0838 E2030000 		.4byte	.LASF196
 3612 083c 03       		.byte	0x3
 3613 083d 4701     		.2byte	0x147
 3614 083f C2050000 		.4byte	0x5c2
 3615 0843 1E       		.uleb128 0x1e
 3616 0844 F4140000 		.4byte	.LASF197
 3617 0848 03       		.byte	0x3
 3618 0849 4801     		.2byte	0x148
 3619 084b 5C080000 		.4byte	0x85c
 3620 084f 1E       		.uleb128 0x1e
 3621 0850 EB250000 		.4byte	.LASF198
 3622 0854 03       		.byte	0x3
 3623 0855 4901     		.2byte	0x149
 3624 0857 62080000 		.4byte	0x862
 3625 085b 00       		.byte	0
 3626 085c 05       		.uleb128 0x5
 3627 085d 04       		.byte	0x4
 3628 085e B8000000 		.4byte	0xb8
 3629 0862 05       		.uleb128 0x5
 3630 0863 04       		.byte	0x4
 3631 0864 68080000 		.4byte	0x868
 3632 0868 0F       		.uleb128 0xf
 3633 0869 22080000 		.4byte	0x822
 3634 086d 1B       		.uleb128 0x1b
 3635 086e 08       		.byte	0x8
 3636 086f 03       		.byte	0x3
 3637 0870 3E01     		.2byte	0x13e
 3638 0872 AB080000 		.4byte	0x8ab
 3639 0876 1F       		.uleb128 0x1f
 3640 0877 765F7000 		.ascii	"v_p\000"
 3641 087b 03       		.byte	0x3
 3642 087c 4A01     		.2byte	0x14a
 3643 087e 2E080000 		.4byte	0x82e
 3644 0882 00       		.byte	0
 3645 0883 1C       		.uleb128 0x1c
 3646 0884 56120000 		.4byte	.LASF199
 3647 0888 03       		.byte	0x3
 3648 0889 4C01     		.2byte	0x14c
 3649 088b CE000000 		.4byte	0xce
 3650 088f 04       		.byte	0x4
 3651 0890 1C       		.uleb128 0x1c
 3652 0891 9E000000 		.4byte	.LASF200
 3653 0895 03       		.byte	0x3
 3654 0896 4D01     		.2byte	0x14d
 3655 0898 B8000000 		.4byte	0xb8
 3656 089c 06       		.byte	0x6
 3657 089d 1C       		.uleb128 0x1c
 3658 089e 9E0D0000 		.4byte	.LASF201
 3659 08a2 03       		.byte	0x3
ARM GAS  C:\Users\haske\AppData\Local\Temp\ccSAQWsX.s 			page 96


 3660 08a3 4E01     		.2byte	0x14e
 3661 08a5 B8000000 		.4byte	0xb8
 3662 08a9 07       		.byte	0x7
 3663 08aa 00       		.byte	0
 3664 08ab 1A       		.uleb128 0x1a
 3665 08ac C01A0000 		.4byte	.LASF202
 3666 08b0 03       		.byte	0x3
 3667 08b1 4F01     		.2byte	0x14f
 3668 08b3 6D080000 		.4byte	0x86d
 3669 08b7 02       		.uleb128 0x2
 3670 08b8 20240000 		.4byte	.LASF203
 3671 08bc 0D       		.byte	0xd
 3672 08bd 69       		.byte	0x69
 3673 08be B8000000 		.4byte	0xb8
 3674 08c2 05       		.uleb128 0x5
 3675 08c3 04       		.byte	0x4
 3676 08c4 C8080000 		.4byte	0x8c8
 3677 08c8 08       		.uleb128 0x8
 3678 08c9 A9130000 		.4byte	.LASF204
 3679 08cd 24       		.byte	0x24
 3680 08ce 0E       		.byte	0xe
 3681 08cf AE       		.byte	0xae
 3682 08d0 8F090000 		.4byte	0x98f
 3683 08d4 09       		.uleb128 0x9
 3684 08d5 E2170000 		.4byte	.LASF205
 3685 08d9 0E       		.byte	0xe
 3686 08da AF       		.byte	0xaf
 3687 08db E71B0000 		.4byte	0x1be7
 3688 08df 00       		.byte	0
 3689 08e0 09       		.uleb128 0x9
 3690 08e1 8B200000 		.4byte	.LASF206
 3691 08e5 0E       		.byte	0xe
 3692 08e6 B0       		.byte	0xb0
 3693 08e7 C2080000 		.4byte	0x8c2
 3694 08eb 04       		.byte	0x4
 3695 08ec 09       		.uleb128 0x9
 3696 08ed 3D260000 		.4byte	.LASF207
 3697 08f1 0E       		.byte	0xe
 3698 08f2 B1       		.byte	0xb1
 3699 08f3 F21B0000 		.4byte	0x1bf2
 3700 08f7 08       		.byte	0x8
 3701 08f8 09       		.uleb128 0x9
 3702 08f9 EA020000 		.4byte	.LASF208
 3703 08fd 0E       		.byte	0xe
 3704 08fe B2       		.byte	0xb2
 3705 08ff F81B0000 		.4byte	0x1bf8
 3706 0903 0C       		.byte	0xc
 3707 0904 09       		.uleb128 0x9
 3708 0905 3A180000 		.4byte	.LASF26
 3709 0909 0E       		.byte	0xe
 3710 090a B4       		.byte	0xb4
 3711 090b 74010000 		.4byte	0x174
 3712 090f 10       		.byte	0x10
 3713 0910 09       		.uleb128 0x9
 3714 0911 770B0000 		.4byte	.LASF209
 3715 0915 0E       		.byte	0xe
 3716 0916 B6       		.byte	0xb6
ARM GAS  C:\Users\haske\AppData\Local\Temp\ccSAQWsX.s 			page 97


 3717 0917 09020000 		.4byte	0x209
 3718 091b 14       		.byte	0x14
 3719 091c 09       		.uleb128 0x9
 3720 091d 5C260000 		.4byte	.LASF210
 3721 0921 0E       		.byte	0xe
 3722 0922 B7       		.byte	0xb7
 3723 0923 CE170000 		.4byte	0x17ce
 3724 0927 1C       		.byte	0x1c
 3725 0928 09       		.uleb128 0x9
 3726 0929 9A150000 		.4byte	.LASF211
 3727 092d 0E       		.byte	0xe
 3728 092e B8       		.byte	0xb8
 3729 092f 5F170000 		.4byte	0x175f
 3730 0933 20       		.byte	0x20
 3731 0934 0A       		.uleb128 0xa
 3732 0935 11020000 		.4byte	.LASF212
 3733 0939 0E       		.byte	0xe
 3734 093a B9       		.byte	0xb9
 3735 093b CE000000 		.4byte	0xce
 3736 093f 02       		.byte	0x2
 3737 0940 01       		.byte	0x1
 3738 0941 0F       		.byte	0xf
 3739 0942 22       		.byte	0x22
 3740 0943 0A       		.uleb128 0xa
 3741 0944 C80B0000 		.4byte	.LASF213
 3742 0948 0E       		.byte	0xe
 3743 0949 BA       		.byte	0xba
 3744 094a CE000000 		.4byte	0xce
 3745 094e 02       		.byte	0x2
 3746 094f 01       		.byte	0x1
 3747 0950 0E       		.byte	0xe
 3748 0951 22       		.byte	0x22
 3749 0952 0A       		.uleb128 0xa
 3750 0953 D6250000 		.4byte	.LASF214
 3751 0957 0E       		.byte	0xe
 3752 0958 BB       		.byte	0xbb
 3753 0959 CE000000 		.4byte	0xce
 3754 095d 02       		.byte	0x2
 3755 095e 01       		.byte	0x1
 3756 095f 0D       		.byte	0xd
 3757 0960 22       		.byte	0x22
 3758 0961 0A       		.uleb128 0xa
 3759 0962 4B150000 		.4byte	.LASF215
 3760 0966 0E       		.byte	0xe
 3761 0967 BC       		.byte	0xbc
 3762 0968 CE000000 		.4byte	0xce
 3763 096c 02       		.byte	0x2
 3764 096d 06       		.byte	0x6
 3765 096e 07       		.byte	0x7
 3766 096f 22       		.byte	0x22
 3767 0970 0A       		.uleb128 0xa
 3768 0971 1E000000 		.4byte	.LASF216
 3769 0975 0E       		.byte	0xe
 3770 0976 BD       		.byte	0xbd
 3771 0977 CE000000 		.4byte	0xce
 3772 097b 02       		.byte	0x2
 3773 097c 01       		.byte	0x1
ARM GAS  C:\Users\haske\AppData\Local\Temp\ccSAQWsX.s 			page 98


 3774 097d 06       		.byte	0x6
 3775 097e 22       		.byte	0x22
 3776 097f 0A       		.uleb128 0xa
 3777 0980 531E0000 		.4byte	.LASF217
 3778 0984 0E       		.byte	0xe
 3779 0985 BE       		.byte	0xbe
 3780 0986 CE000000 		.4byte	0xce
 3781 098a 02       		.byte	0x2
 3782 098b 01       		.byte	0x1
 3783 098c 05       		.byte	0x5
 3784 098d 22       		.byte	0x22
 3785 098e 00       		.byte	0
 3786 098f 05       		.uleb128 0x5
 3787 0990 04       		.byte	0x4
 3788 0991 4E040000 		.4byte	0x44e
 3789 0995 0C       		.uleb128 0xc
 3790 0996 38       		.byte	0x38
 3791 0997 0F       		.byte	0xf
 3792 0998 20       		.byte	0x20
 3793 0999 DC0A0000 		.4byte	0xadc
 3794 099d 09       		.uleb128 0x9
 3795 099e 62260000 		.4byte	.LASF218
 3796 09a2 0F       		.byte	0xf
 3797 09a3 21       		.byte	0x21
 3798 09a4 A1010000 		.4byte	0x1a1
 3799 09a8 00       		.byte	0
 3800 09a9 09       		.uleb128 0x9
 3801 09aa 440E0000 		.4byte	.LASF219
 3802 09ae 0F       		.byte	0xf
 3803 09af 22       		.byte	0x22
 3804 09b0 85040000 		.4byte	0x485
 3805 09b4 02       		.byte	0x2
 3806 09b5 09       		.uleb128 0x9
 3807 09b6 00000000 		.4byte	.LASF220
 3808 09ba 0F       		.byte	0xf
 3809 09bb 25       		.byte	0x25
 3810 09bc 59040000 		.4byte	0x459
 3811 09c0 03       		.byte	0x3
 3812 09c1 09       		.uleb128 0x9
 3813 09c2 47260000 		.4byte	.LASF221
 3814 09c6 0F       		.byte	0xf
 3815 09c7 26       		.byte	0x26
 3816 09c8 4E040000 		.4byte	0x44e
 3817 09cc 04       		.byte	0x4
 3818 09cd 09       		.uleb128 0x9
 3819 09ce B1040000 		.4byte	.LASF222
 3820 09d2 0F       		.byte	0xf
 3821 09d3 27       		.byte	0x27
 3822 09d4 8D050000 		.4byte	0x58d
 3823 09d8 06       		.byte	0x6
 3824 09d9 09       		.uleb128 0x9
 3825 09da 340B0000 		.4byte	.LASF223
 3826 09de 0F       		.byte	0xf
 3827 09df 2A       		.byte	0x2a
 3828 09e0 82030000 		.4byte	0x382
 3829 09e4 10       		.byte	0x10
 3830 09e5 09       		.uleb128 0x9
ARM GAS  C:\Users\haske\AppData\Local\Temp\ccSAQWsX.s 			page 99


 3831 09e6 BC150000 		.4byte	.LASF224
 3832 09ea 0F       		.byte	0xf
 3833 09eb 2B       		.byte	0x2b
 3834 09ec 82030000 		.4byte	0x382
 3835 09f0 14       		.byte	0x14
 3836 09f1 09       		.uleb128 0x9
 3837 09f2 67050000 		.4byte	.LASF225
 3838 09f6 0F       		.byte	0xf
 3839 09f7 2C       		.byte	0x2c
 3840 09f8 4E040000 		.4byte	0x44e
 3841 09fc 18       		.byte	0x18
 3842 09fd 09       		.uleb128 0x9
 3843 09fe 22220000 		.4byte	.LASF226
 3844 0a02 0F       		.byte	0xf
 3845 0a03 2D       		.byte	0x2d
 3846 0a04 59040000 		.4byte	0x459
 3847 0a08 1A       		.byte	0x1a
 3848 0a09 09       		.uleb128 0x9
 3849 0a0a BB100000 		.4byte	.LASF227
 3850 0a0e 0F       		.byte	0xf
 3851 0a0f 2E       		.byte	0x2e
 3852 0a10 59040000 		.4byte	0x459
 3853 0a14 1B       		.byte	0x1b
 3854 0a15 09       		.uleb128 0x9
 3855 0a16 BB120000 		.4byte	.LASF228
 3856 0a1a 0F       		.byte	0xf
 3857 0a1b 2F       		.byte	0x2f
 3858 0a1c B8000000 		.4byte	0xb8
 3859 0a20 1C       		.byte	0x1c
 3860 0a21 09       		.uleb128 0x9
 3861 0a22 681F0000 		.4byte	.LASF229
 3862 0a26 0F       		.byte	0xf
 3863 0a27 32       		.byte	0x32
 3864 0a28 4E040000 		.4byte	0x44e
 3865 0a2c 1E       		.byte	0x1e
 3866 0a2d 09       		.uleb128 0x9
 3867 0a2e CE100000 		.4byte	.LASF230
 3868 0a32 0F       		.byte	0xf
 3869 0a33 33       		.byte	0x33
 3870 0a34 A1010000 		.4byte	0x1a1
 3871 0a38 20       		.byte	0x20
 3872 0a39 09       		.uleb128 0x9
 3873 0a3a BD0D0000 		.4byte	.LASF231
 3874 0a3e 0F       		.byte	0xf
 3875 0a3f 34       		.byte	0x34
 3876 0a40 59040000 		.4byte	0x459
 3877 0a44 22       		.byte	0x22
 3878 0a45 0A       		.uleb128 0xa
 3879 0a46 F61F0000 		.4byte	.LASF232
 3880 0a4a 0F       		.byte	0xf
 3881 0a4b 35       		.byte	0x35
 3882 0a4c B8000000 		.4byte	0xb8
 3883 0a50 01       		.byte	0x1
 3884 0a51 01       		.byte	0x1
 3885 0a52 07       		.byte	0x7
 3886 0a53 23       		.byte	0x23
 3887 0a54 0A       		.uleb128 0xa
ARM GAS  C:\Users\haske\AppData\Local\Temp\ccSAQWsX.s 			page 100


 3888 0a55 710F0000 		.4byte	.LASF233
 3889 0a59 0F       		.byte	0xf
 3890 0a5a 36       		.byte	0x36
 3891 0a5b F1040000 		.4byte	0x4f1
 3892 0a5f 01       		.byte	0x1
 3893 0a60 05       		.byte	0x5
 3894 0a61 02       		.byte	0x2
 3895 0a62 23       		.byte	0x23
 3896 0a63 09       		.uleb128 0x9
 3897 0a64 1A180000 		.4byte	.LASF234
 3898 0a68 0F       		.byte	0xf
 3899 0a69 39       		.byte	0x39
 3900 0a6a 4E040000 		.4byte	0x44e
 3901 0a6e 24       		.byte	0x24
 3902 0a6f 09       		.uleb128 0x9
 3903 0a70 9F0B0000 		.4byte	.LASF235
 3904 0a74 0F       		.byte	0xf
 3905 0a75 3A       		.byte	0x3a
 3906 0a76 A1010000 		.4byte	0x1a1
 3907 0a7a 26       		.byte	0x26
 3908 0a7b 09       		.uleb128 0x9
 3909 0a7c FE120000 		.4byte	.LASF236
 3910 0a80 0F       		.byte	0xf
 3911 0a81 3B       		.byte	0x3b
 3912 0a82 A1010000 		.4byte	0x1a1
 3913 0a86 28       		.byte	0x28
 3914 0a87 09       		.uleb128 0x9
 3915 0a88 AC190000 		.4byte	.LASF237
 3916 0a8c 0F       		.byte	0xf
 3917 0a8d 3C       		.byte	0x3c
 3918 0a8e 59040000 		.4byte	0x459
 3919 0a92 2A       		.byte	0x2a
 3920 0a93 09       		.uleb128 0x9
 3921 0a94 A91E0000 		.4byte	.LASF238
 3922 0a98 0F       		.byte	0xf
 3923 0a99 3F       		.byte	0x3f
 3924 0a9a 4E040000 		.4byte	0x44e
 3925 0a9e 2C       		.byte	0x2c
 3926 0a9f 09       		.uleb128 0x9
 3927 0aa0 93100000 		.4byte	.LASF239
 3928 0aa4 0F       		.byte	0xf
 3929 0aa5 40       		.byte	0x40
 3930 0aa6 A1010000 		.4byte	0x1a1
 3931 0aaa 2E       		.byte	0x2e
 3932 0aab 09       		.uleb128 0x9
 3933 0aac 47170000 		.4byte	.LASF240
 3934 0ab0 0F       		.byte	0xf
 3935 0ab1 41       		.byte	0x41
 3936 0ab2 A1010000 		.4byte	0x1a1
 3937 0ab6 30       		.byte	0x30
 3938 0ab7 09       		.uleb128 0x9
 3939 0ab8 54170000 		.4byte	.LASF241
 3940 0abc 0F       		.byte	0xf
 3941 0abd 42       		.byte	0x42
 3942 0abe A1010000 		.4byte	0x1a1
 3943 0ac2 32       		.byte	0x32
 3944 0ac3 09       		.uleb128 0x9
ARM GAS  C:\Users\haske\AppData\Local\Temp\ccSAQWsX.s 			page 101


 3945 0ac4 3D0C0000 		.4byte	.LASF242
 3946 0ac8 0F       		.byte	0xf
 3947 0ac9 43       		.byte	0x43
 3948 0aca A1010000 		.4byte	0x1a1
 3949 0ace 34       		.byte	0x34
 3950 0acf 09       		.uleb128 0x9
 3951 0ad0 F9100000 		.4byte	.LASF243
 3952 0ad4 0F       		.byte	0xf
 3953 0ad5 44       		.byte	0x44
 3954 0ad6 59040000 		.4byte	0x459
 3955 0ada 36       		.byte	0x36
 3956 0adb 00       		.byte	0
 3957 0adc 02       		.uleb128 0x2
 3958 0add 3A0A0000 		.4byte	.LASF244
 3959 0ae1 0F       		.byte	0xf
 3960 0ae2 45       		.byte	0x45
 3961 0ae3 95090000 		.4byte	0x995
 3962 0ae7 0C       		.uleb128 0xc
 3963 0ae8 20       		.byte	0x20
 3964 0ae9 10       		.byte	0x10
 3965 0aea 1E       		.byte	0x1e
 3966 0aeb B60B0000 		.4byte	0xbb6
 3967 0aef 09       		.uleb128 0x9
 3968 0af0 61000000 		.4byte	.LASF245
 3969 0af4 10       		.byte	0x10
 3970 0af5 1F       		.byte	0x1f
 3971 0af6 B60B0000 		.4byte	0xbb6
 3972 0afa 00       		.byte	0
 3973 0afb 09       		.uleb128 0x9
 3974 0afc 04080000 		.4byte	.LASF246
 3975 0b00 10       		.byte	0x10
 3976 0b01 20       		.byte	0x20
 3977 0b02 E4000000 		.4byte	0xe4
 3978 0b06 04       		.byte	0x4
 3979 0b07 09       		.uleb128 0x9
 3980 0b08 C80D0000 		.4byte	.LASF247
 3981 0b0c 10       		.byte	0x10
 3982 0b0d 21       		.byte	0x21
 3983 0b0e E4000000 		.4byte	0xe4
 3984 0b12 08       		.byte	0x8
 3985 0b13 09       		.uleb128 0x9
 3986 0b14 991A0000 		.4byte	.LASF95
 3987 0b18 10       		.byte	0x10
 3988 0b19 22       		.byte	0x22
 3989 0b1a 4E040000 		.4byte	0x44e
 3990 0b1e 0C       		.byte	0xc
 3991 0b1f 09       		.uleb128 0x9
 3992 0b20 41150000 		.4byte	.LASF248
 3993 0b24 10       		.byte	0x10
 3994 0b25 23       		.byte	0x23
 3995 0b26 4E040000 		.4byte	0x44e
 3996 0b2a 0E       		.byte	0xe
 3997 0b2b 09       		.uleb128 0x9
 3998 0b2c 01260000 		.4byte	.LASF249
 3999 0b30 10       		.byte	0x10
 4000 0b31 24       		.byte	0x24
 4001 0b32 4E040000 		.4byte	0x44e
ARM GAS  C:\Users\haske\AppData\Local\Temp\ccSAQWsX.s 			page 102


 4002 0b36 10       		.byte	0x10
 4003 0b37 09       		.uleb128 0x9
 4004 0b38 66000000 		.4byte	.LASF250
 4005 0b3c 10       		.byte	0x10
 4006 0b3d 25       		.byte	0x25
 4007 0b3e A1010000 		.4byte	0x1a1
 4008 0b42 12       		.byte	0x12
 4009 0b43 09       		.uleb128 0x9
 4010 0b44 55150000 		.4byte	.LASF251
 4011 0b48 10       		.byte	0x10
 4012 0b49 26       		.byte	0x26
 4013 0b4a A1010000 		.4byte	0x1a1
 4014 0b4e 14       		.byte	0x14
 4015 0b4f 09       		.uleb128 0x9
 4016 0b50 6D130000 		.4byte	.LASF41
 4017 0b54 10       		.byte	0x10
 4018 0b55 27       		.byte	0x27
 4019 0b56 A1010000 		.4byte	0x1a1
 4020 0b5a 16       		.byte	0x16
 4021 0b5b 09       		.uleb128 0x9
 4022 0b5c 73130000 		.4byte	.LASF42
 4023 0b60 10       		.byte	0x10
 4024 0b61 28       		.byte	0x28
 4025 0b62 A1010000 		.4byte	0x1a1
 4026 0b66 18       		.byte	0x18
 4027 0b67 0D       		.uleb128 0xd
 4028 0b68 6F706100 		.ascii	"opa\000"
 4029 0b6c 10       		.byte	0x10
 4030 0b6d 29       		.byte	0x29
 4031 0b6e 59040000 		.4byte	0x459
 4032 0b72 1A       		.byte	0x1a
 4033 0b73 09       		.uleb128 0x9
 4034 0b74 CB1B0000 		.4byte	.LASF252
 4035 0b78 10       		.byte	0x10
 4036 0b79 2A       		.byte	0x2a
 4037 0b7a 7A040000 		.4byte	0x47a
 4038 0b7e 1B       		.byte	0x1b
 4039 0b7f 09       		.uleb128 0x9
 4040 0b80 26070000 		.4byte	.LASF253
 4041 0b84 10       		.byte	0x10
 4042 0b85 2B       		.byte	0x2b
 4043 0b86 6F040000 		.4byte	0x46f
 4044 0b8a 1C       		.byte	0x1c
 4045 0b8b 09       		.uleb128 0x9
 4046 0b8c 7B120000 		.4byte	.LASF254
 4047 0b90 10       		.byte	0x10
 4048 0b91 2C       		.byte	0x2c
 4049 0b92 64040000 		.4byte	0x464
 4050 0b96 1D       		.byte	0x1d
 4051 0b97 0A       		.uleb128 0xa
 4052 0b98 C20B0000 		.4byte	.LASF255
 4053 0b9c 10       		.byte	0x10
 4054 0b9d 2D       		.byte	0x2d
 4055 0b9e AF040000 		.4byte	0x4af
 4056 0ba2 01       		.byte	0x1
 4057 0ba3 03       		.byte	0x3
 4058 0ba4 05       		.byte	0x5
ARM GAS  C:\Users\haske\AppData\Local\Temp\ccSAQWsX.s 			page 103


 4059 0ba5 1E       		.byte	0x1e
 4060 0ba6 0A       		.uleb128 0xa
 4061 0ba7 440E0000 		.4byte	.LASF219
 4062 0bab 10       		.byte	0x10
 4063 0bac 2E       		.byte	0x2e
 4064 0bad 85040000 		.4byte	0x485
 4065 0bb1 01       		.byte	0x1
 4066 0bb2 03       		.byte	0x3
 4067 0bb3 02       		.byte	0x2
 4068 0bb4 1E       		.byte	0x1e
 4069 0bb5 00       		.byte	0
 4070 0bb6 05       		.uleb128 0x5
 4071 0bb7 04       		.byte	0x4
 4072 0bb8 BC0B0000 		.4byte	0xbbc
 4073 0bbc 0F       		.uleb128 0xf
 4074 0bbd 89030000 		.4byte	0x389
 4075 0bc1 02       		.uleb128 0x2
 4076 0bc2 5C120000 		.4byte	.LASF256
 4077 0bc6 10       		.byte	0x10
 4078 0bc7 2F       		.byte	0x2f
 4079 0bc8 E70A0000 		.4byte	0xae7
 4080 0bcc 0C       		.uleb128 0xc
 4081 0bcd 18       		.byte	0x18
 4082 0bce 11       		.byte	0x11
 4083 0bcf 20       		.byte	0x20
 4084 0bd0 470C0000 		.4byte	0xc47
 4085 0bd4 09       		.uleb128 0x9
 4086 0bd5 C0010000 		.4byte	.LASF257
 4087 0bd9 11       		.byte	0x11
 4088 0bda 22       		.byte	0x22
 4089 0bdb C3000000 		.4byte	0xc3
 4090 0bdf 00       		.byte	0
 4091 0be0 09       		.uleb128 0x9
 4092 0be1 78140000 		.4byte	.LASF258
 4093 0be5 11       		.byte	0x11
 4094 0be6 23       		.byte	0x23
 4095 0be7 CE000000 		.4byte	0xce
 4096 0beb 02       		.byte	0x2
 4097 0bec 09       		.uleb128 0x9
 4098 0bed BE200000 		.4byte	.LASF259
 4099 0bf1 11       		.byte	0x11
 4100 0bf2 24       		.byte	0x24
 4101 0bf3 C9010000 		.4byte	0x1c9
 4102 0bf7 04       		.byte	0x4
 4103 0bf8 09       		.uleb128 0x9
 4104 0bf9 2F1E0000 		.4byte	.LASF260
 4105 0bfd 11       		.byte	0x11
 4106 0bfe 26       		.byte	0x26
 4107 0bff 4E040000 		.4byte	0x44e
 4108 0c03 08       		.byte	0x8
 4109 0c04 09       		.uleb128 0x9
 4110 0c05 1E160000 		.4byte	.LASF261
 4111 0c09 11       		.byte	0x11
 4112 0c0a 27       		.byte	0x27
 4113 0c0b 59040000 		.4byte	0x459
 4114 0c0f 0A       		.byte	0xa
 4115 0c10 0D       		.uleb128 0xd
ARM GAS  C:\Users\haske\AppData\Local\Temp\ccSAQWsX.s 			page 104


 4116 0c11 6F706100 		.ascii	"opa\000"
 4117 0c15 11       		.byte	0x11
 4118 0c16 29       		.byte	0x29
 4119 0c17 59040000 		.4byte	0x459
 4120 0c1b 0B       		.byte	0xb
 4121 0c1c 0A       		.uleb128 0xa
 4122 0c1d 440E0000 		.4byte	.LASF219
 4123 0c21 11       		.byte	0x11
 4124 0c22 2A       		.byte	0x2a
 4125 0c23 85040000 		.4byte	0x485
 4126 0c27 01       		.byte	0x1
 4127 0c28 04       		.byte	0x4
 4128 0c29 04       		.byte	0x4
 4129 0c2a 0C       		.byte	0xc
 4130 0c2b 09       		.uleb128 0x9
 4131 0c2c 19080000 		.4byte	.LASF262
 4132 0c30 11       		.byte	0x11
 4133 0c31 2C       		.byte	0x2c
 4134 0c32 D9000000 		.4byte	0xd9
 4135 0c36 10       		.byte	0x10
 4136 0c37 0A       		.uleb128 0xa
 4137 0c38 C4210000 		.4byte	.LASF263
 4138 0c3c 11       		.byte	0x11
 4139 0c3d 2D       		.byte	0x2d
 4140 0c3e B8000000 		.4byte	0xb8
 4141 0c42 01       		.byte	0x1
 4142 0c43 01       		.byte	0x1
 4143 0c44 07       		.byte	0x7
 4144 0c45 14       		.byte	0x14
 4145 0c46 00       		.byte	0
 4146 0c47 02       		.uleb128 0x2
 4147 0c48 D31F0000 		.4byte	.LASF264
 4148 0c4c 11       		.byte	0x11
 4149 0c4d 2E       		.byte	0x2e
 4150 0c4e CC0B0000 		.4byte	0xbcc
 4151 0c52 0C       		.uleb128 0xc
 4152 0c53 0A       		.byte	0xa
 4153 0c54 12       		.byte	0x12
 4154 0c55 1C       		.byte	0x1c
 4155 0c56 D30C0000 		.4byte	0xcd3
 4156 0c5a 09       		.uleb128 0x9
 4157 0c5b 991A0000 		.4byte	.LASF95
 4158 0c5f 12       		.byte	0x12
 4159 0c60 1D       		.byte	0x1d
 4160 0c61 4E040000 		.4byte	0x44e
 4161 0c65 00       		.byte	0
 4162 0c66 09       		.uleb128 0x9
 4163 0c67 E51F0000 		.4byte	.LASF265
 4164 0c6b 12       		.byte	0x12
 4165 0c6c 1E       		.byte	0x1e
 4166 0c6d A1010000 		.4byte	0x1a1
 4167 0c71 02       		.byte	0x2
 4168 0c72 09       		.uleb128 0x9
 4169 0c73 1E010000 		.4byte	.LASF266
 4170 0c77 12       		.byte	0x12
 4171 0c78 1F       		.byte	0x1f
 4172 0c79 A1010000 		.4byte	0x1a1
ARM GAS  C:\Users\haske\AppData\Local\Temp\ccSAQWsX.s 			page 105


 4173 0c7d 04       		.byte	0x4
 4174 0c7e 09       		.uleb128 0x9
 4175 0c7f 59190000 		.4byte	.LASF267
 4176 0c83 12       		.byte	0x12
 4177 0c84 20       		.byte	0x20
 4178 0c85 A1010000 		.4byte	0x1a1
 4179 0c89 06       		.byte	0x6
 4180 0c8a 0D       		.uleb128 0xd
 4181 0c8b 6F706100 		.ascii	"opa\000"
 4182 0c8f 12       		.byte	0x12
 4183 0c90 21       		.byte	0x21
 4184 0c91 59040000 		.4byte	0x459
 4185 0c95 08       		.byte	0x8
 4186 0c96 0A       		.uleb128 0xa
 4187 0c97 440E0000 		.4byte	.LASF219
 4188 0c9b 12       		.byte	0x12
 4189 0c9c 22       		.byte	0x22
 4190 0c9d 85040000 		.4byte	0x485
 4191 0ca1 01       		.byte	0x1
 4192 0ca2 02       		.byte	0x2
 4193 0ca3 06       		.byte	0x6
 4194 0ca4 09       		.byte	0x9
 4195 0ca5 0A       		.uleb128 0xa
 4196 0ca6 69260000 		.4byte	.LASF268
 4197 0caa 12       		.byte	0x12
 4198 0cab 23       		.byte	0x23
 4199 0cac B8000000 		.4byte	0xb8
 4200 0cb0 01       		.byte	0x1
 4201 0cb1 01       		.byte	0x1
 4202 0cb2 05       		.byte	0x5
 4203 0cb3 09       		.byte	0x9
 4204 0cb4 0A       		.uleb128 0xa
 4205 0cb5 E90F0000 		.4byte	.LASF269
 4206 0cb9 12       		.byte	0x12
 4207 0cba 24       		.byte	0x24
 4208 0cbb B8000000 		.4byte	0xb8
 4209 0cbf 01       		.byte	0x1
 4210 0cc0 01       		.byte	0x1
 4211 0cc1 04       		.byte	0x4
 4212 0cc2 09       		.byte	0x9
 4213 0cc3 0A       		.uleb128 0xa
 4214 0cc4 9C170000 		.4byte	.LASF270
 4215 0cc8 12       		.byte	0x12
 4216 0cc9 25       		.byte	0x25
 4217 0cca B8000000 		.4byte	0xb8
 4218 0cce 01       		.byte	0x1
 4219 0ccf 01       		.byte	0x1
 4220 0cd0 03       		.byte	0x3
 4221 0cd1 09       		.byte	0x9
 4222 0cd2 00       		.byte	0
 4223 0cd3 02       		.uleb128 0x2
 4224 0cd4 501A0000 		.4byte	.LASF271
 4225 0cd8 12       		.byte	0x12
 4226 0cd9 26       		.byte	0x26
 4227 0cda 520C0000 		.4byte	0xc52
 4228 0cde 0C       		.uleb128 0xc
 4229 0cdf 10       		.byte	0x10
ARM GAS  C:\Users\haske\AppData\Local\Temp\ccSAQWsX.s 			page 106


 4230 0ce0 13       		.byte	0x13
 4231 0ce1 1C       		.byte	0x1c
 4232 0ce2 4D0D0000 		.4byte	0xd4d
 4233 0ce6 09       		.uleb128 0x9
 4234 0ce7 991A0000 		.4byte	.LASF95
 4235 0ceb 13       		.byte	0x13
 4236 0cec 1D       		.byte	0x1d
 4237 0ced 4E040000 		.4byte	0x44e
 4238 0cf1 00       		.byte	0
 4239 0cf2 09       		.uleb128 0x9
 4240 0cf3 E51F0000 		.4byte	.LASF265
 4241 0cf7 13       		.byte	0x13
 4242 0cf8 1E       		.byte	0x1e
 4243 0cf9 A1010000 		.4byte	0x1a1
 4244 0cfd 02       		.byte	0x2
 4245 0cfe 09       		.uleb128 0x9
 4246 0cff 18060000 		.4byte	.LASF272
 4247 0d03 13       		.byte	0x13
 4248 0d04 1F       		.byte	0x1f
 4249 0d05 CE000000 		.4byte	0xce
 4250 0d09 04       		.byte	0x4
 4251 0d0a 09       		.uleb128 0x9
 4252 0d0b 22200000 		.4byte	.LASF273
 4253 0d0f 13       		.byte	0x13
 4254 0d10 20       		.byte	0x20
 4255 0d11 CE000000 		.4byte	0xce
 4256 0d15 06       		.byte	0x6
 4257 0d16 09       		.uleb128 0x9
 4258 0d17 9E210000 		.4byte	.LASF274
 4259 0d1b 13       		.byte	0x13
 4260 0d1c 21       		.byte	0x21
 4261 0d1d 82030000 		.4byte	0x382
 4262 0d21 08       		.byte	0x8
 4263 0d22 0D       		.uleb128 0xd
 4264 0d23 6F706100 		.ascii	"opa\000"
 4265 0d27 13       		.byte	0x13
 4266 0d28 22       		.byte	0x22
 4267 0d29 59040000 		.4byte	0x459
 4268 0d2d 0C       		.byte	0xc
 4269 0d2e 0A       		.uleb128 0xa
 4270 0d2f 440E0000 		.4byte	.LASF219
 4271 0d33 13       		.byte	0x13
 4272 0d34 23       		.byte	0x23
 4273 0d35 85040000 		.4byte	0x485
 4274 0d39 01       		.byte	0x1
 4275 0d3a 02       		.byte	0x2
 4276 0d3b 06       		.byte	0x6
 4277 0d3c 0D       		.byte	0xd
 4278 0d3d 0A       		.uleb128 0xa
 4279 0d3e 90050000 		.4byte	.LASF275
 4280 0d42 13       		.byte	0x13
 4281 0d43 24       		.byte	0x24
 4282 0d44 B8000000 		.4byte	0xb8
 4283 0d48 01       		.byte	0x1
 4284 0d49 01       		.byte	0x1
 4285 0d4a 05       		.byte	0x5
 4286 0d4b 0D       		.byte	0xd
ARM GAS  C:\Users\haske\AppData\Local\Temp\ccSAQWsX.s 			page 107


 4287 0d4c 00       		.byte	0
 4288 0d4d 02       		.uleb128 0x2
 4289 0d4e AE110000 		.4byte	.LASF276
 4290 0d52 13       		.byte	0x13
 4291 0d53 25       		.byte	0x25
 4292 0d54 DE0C0000 		.4byte	0xcde
 4293 0d58 05       		.uleb128 0x5
 4294 0d59 04       		.byte	0x4
 4295 0d5a 59040000 		.4byte	0x459
 4296 0d5e 12       		.uleb128 0x12
 4297 0d5f 01       		.byte	0x1
 4298 0d60 42000000 		.4byte	0x42
 4299 0d64 14       		.byte	0x14
 4300 0d65 1C       		.byte	0x1c
 4301 0d66 7D0D0000 		.4byte	0xd7d
 4302 0d6a 13       		.uleb128 0x13
 4303 0d6b 29110000 		.4byte	.LASF277
 4304 0d6f 00       		.byte	0
 4305 0d70 13       		.uleb128 0x13
 4306 0d71 80040000 		.4byte	.LASF278
 4307 0d75 01       		.byte	0x1
 4308 0d76 13       		.uleb128 0x13
 4309 0d77 27000000 		.4byte	.LASF279
 4310 0d7b 02       		.byte	0x2
 4311 0d7c 00       		.byte	0
 4312 0d7d 02       		.uleb128 0x2
 4313 0d7e F9170000 		.4byte	.LASF280
 4314 0d82 14       		.byte	0x14
 4315 0d83 20       		.byte	0x20
 4316 0d84 5E0D0000 		.4byte	0xd5e
 4317 0d88 0C       		.uleb128 0xc
 4318 0d89 10       		.byte	0x10
 4319 0d8a 15       		.byte	0x15
 4320 0d8b 33       		.byte	0x33
 4321 0d8c C10D0000 		.4byte	0xdc1
 4322 0d90 09       		.uleb128 0x9
 4323 0d91 59200000 		.4byte	.LASF281
 4324 0d95 15       		.byte	0x15
 4325 0d96 34       		.byte	0x34
 4326 0d97 C10D0000 		.4byte	0xdc1
 4327 0d9b 00       		.byte	0
 4328 0d9c 09       		.uleb128 0x9
 4329 0d9d 5C160000 		.4byte	.LASF282
 4330 0da1 15       		.byte	0x15
 4331 0da2 35       		.byte	0x35
 4332 0da3 CC0D0000 		.4byte	0xdcc
 4333 0da7 04       		.byte	0x4
 4334 0da8 0D       		.uleb128 0xd
 4335 0da9 62756600 		.ascii	"buf\000"
 4336 0dad 15       		.byte	0x15
 4337 0dae 36       		.byte	0x36
 4338 0daf 74010000 		.4byte	0x174
 4339 0db3 08       		.byte	0x8
 4340 0db4 09       		.uleb128 0x9
 4341 0db5 29040000 		.4byte	.LASF283
 4342 0db9 15       		.byte	0x15
 4343 0dba 37       		.byte	0x37
ARM GAS  C:\Users\haske\AppData\Local\Temp\ccSAQWsX.s 			page 108


 4344 0dbb 4A030000 		.4byte	0x34a
 4345 0dbf 0C       		.byte	0xc
 4346 0dc0 00       		.byte	0
 4347 0dc1 05       		.uleb128 0x5
 4348 0dc2 04       		.byte	0x4
 4349 0dc3 C70D0000 		.4byte	0xdc7
 4350 0dc7 0F       		.uleb128 0xf
 4351 0dc8 09020000 		.4byte	0x209
 4352 0dcc 05       		.uleb128 0x5
 4353 0dcd 04       		.byte	0x4
 4354 0dce 09020000 		.4byte	0x209
 4355 0dd2 08       		.uleb128 0x8
 4356 0dd3 820D0000 		.4byte	.LASF284
 4357 0dd7 28       		.byte	0x28
 4358 0dd8 15       		.byte	0x15
 4359 0dd9 2D       		.byte	0x2d
 4360 0dda 270E0000 		.4byte	0xe27
 4361 0dde 09       		.uleb128 0x9
 4362 0ddf E10D0000 		.4byte	.LASF285
 4363 0de3 15       		.byte	0x15
 4364 0de4 2E       		.byte	0x2e
 4365 0de5 09020000 		.4byte	0x209
 4366 0de9 00       		.byte	0
 4367 0dea 09       		.uleb128 0x9
 4368 0deb B5230000 		.4byte	.LASF286
 4369 0def 15       		.byte	0x15
 4370 0df0 2F       		.byte	0x2f
 4371 0df1 09020000 		.4byte	0x209
 4372 0df5 08       		.byte	0x8
 4373 0df6 09       		.uleb128 0x9
 4374 0df7 E0210000 		.4byte	.LASF287
 4375 0dfb 15       		.byte	0x15
 4376 0dfc 30       		.byte	0x30
 4377 0dfd A1010000 		.4byte	0x1a1
 4378 0e01 10       		.byte	0x10
 4379 0e02 09       		.uleb128 0x9
 4380 0e03 6A0E0000 		.4byte	.LASF288
 4381 0e07 15       		.byte	0x15
 4382 0e08 31       		.byte	0x31
 4383 0e09 A1010000 		.4byte	0x1a1
 4384 0e0d 12       		.byte	0x12
 4385 0e0e 0D       		.uleb128 0xd
 4386 0e0f 62756600 		.ascii	"buf\000"
 4387 0e13 15       		.byte	0x15
 4388 0e14 32       		.byte	0x32
 4389 0e15 74010000 		.4byte	0x174
 4390 0e19 14       		.byte	0x14
 4391 0e1a 09       		.uleb128 0x9
 4392 0e1b 50100000 		.4byte	.LASF289
 4393 0e1f 15       		.byte	0x15
 4394 0e20 38       		.byte	0x38
 4395 0e21 880D0000 		.4byte	0xd88
 4396 0e25 18       		.byte	0x18
 4397 0e26 00       		.byte	0
 4398 0e27 02       		.uleb128 0x2
 4399 0e28 9A110000 		.4byte	.LASF290
 4400 0e2c 15       		.byte	0x15
ARM GAS  C:\Users\haske\AppData\Local\Temp\ccSAQWsX.s 			page 109


 4401 0e2d 39       		.byte	0x39
 4402 0e2e D20D0000 		.4byte	0xdd2
 4403 0e32 08       		.uleb128 0x8
 4404 0e33 24030000 		.4byte	.LASF291
 4405 0e37 54       		.byte	0x54
 4406 0e38 15       		.byte	0x15
 4407 0e39 3B       		.byte	0x3b
 4408 0e3a 3B0F0000 		.4byte	0xf3b
 4409 0e3e 0D       		.uleb128 0xd
 4410 0e3f 62756600 		.ascii	"buf\000"
 4411 0e43 15       		.byte	0x15
 4412 0e44 3F       		.byte	0x3f
 4413 0e45 74010000 		.4byte	0x174
 4414 0e49 00       		.byte	0
 4415 0e4a 09       		.uleb128 0x9
 4416 0e4b 5C160000 		.4byte	.LASF282
 4417 0e4f 15       		.byte	0x15
 4418 0e50 44       		.byte	0x44
 4419 0e51 CC0D0000 		.4byte	0xdcc
 4420 0e55 04       		.byte	0x4
 4421 0e56 09       		.uleb128 0x9
 4422 0e57 59200000 		.4byte	.LASF281
 4423 0e5b 15       		.byte	0x15
 4424 0e5c 49       		.byte	0x49
 4425 0e5d C10D0000 		.4byte	0xdc1
 4426 0e61 08       		.byte	0x8
 4427 0e62 09       		.uleb128 0x9
 4428 0e63 E70E0000 		.4byte	.LASF292
 4429 0e67 15       		.byte	0x15
 4430 0e68 4B       		.byte	0x4b
 4431 0e69 4C0F0000 		.4byte	0xf4c
 4432 0e6d 0C       		.byte	0xc
 4433 0e6e 09       		.uleb128 0x9
 4434 0e6f 16240000 		.4byte	.LASF293
 4435 0e73 15       		.byte	0x15
 4436 0e74 4D       		.byte	0x4d
 4437 0e75 720F0000 		.4byte	0xf72
 4438 0e79 10       		.byte	0x10
 4439 0e7a 09       		.uleb128 0x9
 4440 0e7b 621D0000 		.4byte	.LASF294
 4441 0e7f 15       		.byte	0x15
 4442 0e80 4F       		.byte	0x4f
 4443 0e81 B20F0000 		.4byte	0xfb2
 4444 0e85 14       		.byte	0x14
 4445 0e86 09       		.uleb128 0x9
 4446 0e87 360D0000 		.4byte	.LASF295
 4447 0e8b 15       		.byte	0x15
 4448 0e8c 52       		.byte	0x52
 4449 0e8d E20F0000 		.4byte	0xfe2
 4450 0e91 18       		.byte	0x18
 4451 0e92 09       		.uleb128 0x9
 4452 0e93 D70F0000 		.4byte	.LASF296
 4453 0e97 15       		.byte	0x15
 4454 0e98 55       		.byte	0x55
 4455 0e99 06100000 		.4byte	0x1006
 4456 0e9d 1C       		.byte	0x1c
 4457 0e9e 09       		.uleb128 0x9
ARM GAS  C:\Users\haske\AppData\Local\Temp\ccSAQWsX.s 			page 110


 4458 0e9f 05100000 		.4byte	.LASF297
 4459 0ea3 15       		.byte	0x15
 4460 0ea4 58       		.byte	0x58
 4461 0ea5 31100000 		.4byte	0x1031
 4462 0ea9 20       		.byte	0x20
 4463 0eaa 09       		.uleb128 0x9
 4464 0eab 2F170000 		.4byte	.LASF298
 4465 0eaf 15       		.byte	0x15
 4466 0eb0 5C       		.byte	0x5c
 4467 0eb1 5C100000 		.4byte	0x105c
 4468 0eb5 24       		.byte	0x24
 4469 0eb6 09       		.uleb128 0x9
 4470 0eb7 7D180000 		.4byte	.LASF299
 4471 0ebb 15       		.byte	0x15
 4472 0ebc 60       		.byte	0x60
 4473 0ebd 7C100000 		.4byte	0x107c
 4474 0ec1 28       		.byte	0x28
 4475 0ec2 09       		.uleb128 0x9
 4476 0ec3 8F1F0000 		.4byte	.LASF300
 4477 0ec7 15       		.byte	0x15
 4478 0ec8 71       		.byte	0x71
 4479 0ec9 BA100000 		.4byte	0x10ba
 4480 0ecd 2C       		.byte	0x2c
 4481 0ece 09       		.uleb128 0x9
 4482 0ecf CE190000 		.4byte	.LASF301
 4483 0ed3 15       		.byte	0x15
 4484 0ed4 78       		.byte	0x78
 4485 0ed5 720F0000 		.4byte	0xf72
 4486 0ed9 30       		.byte	0x30
 4487 0eda 09       		.uleb128 0x9
 4488 0edb 2F230000 		.4byte	.LASF302
 4489 0edf 15       		.byte	0x15
 4490 0ee0 7D       		.byte	0x7d
 4491 0ee1 4C0F0000 		.4byte	0xf4c
 4492 0ee5 34       		.byte	0x34
 4493 0ee6 09       		.uleb128 0x9
 4494 0ee7 3A160000 		.4byte	.LASF303
 4495 0eeb 15       		.byte	0x15
 4496 0eec 8D       		.byte	0x8d
 4497 0eed E9100000 		.4byte	0x10e9
 4498 0ef1 38       		.byte	0x38
 4499 0ef2 09       		.uleb128 0x9
 4500 0ef3 001D0000 		.4byte	.LASF304
 4501 0ef7 15       		.byte	0x15
 4502 0ef8 99       		.byte	0x99
 4503 0ef9 0E110000 		.4byte	0x110e
 4504 0efd 3C       		.byte	0x3c
 4505 0efe 09       		.uleb128 0x9
 4506 0eff 85010000 		.4byte	.LASF305
 4507 0f03 15       		.byte	0x15
 4508 0f04 A3       		.byte	0xa3
 4509 0f05 29110000 		.4byte	0x1129
 4510 0f09 40       		.byte	0x40
 4511 0f0a 09       		.uleb128 0x9
 4512 0f0b AD0B0000 		.4byte	.LASF306
 4513 0f0f 15       		.byte	0x15
 4514 0f10 AC       		.byte	0xac
ARM GAS  C:\Users\haske\AppData\Local\Temp\ccSAQWsX.s 			page 111


 4515 0f11 44110000 		.4byte	0x1144
 4516 0f15 44       		.byte	0x44
 4517 0f16 09       		.uleb128 0x9
 4518 0f17 3F0B0000 		.4byte	.LASF307
 4519 0f1b 15       		.byte	0x15
 4520 0f1c B5       		.byte	0xb5
 4521 0f1d 60110000 		.4byte	0x1160
 4522 0f21 48       		.byte	0x48
 4523 0f22 09       		.uleb128 0x9
 4524 0f23 22080000 		.4byte	.LASF308
 4525 0f27 15       		.byte	0x15
 4526 0f28 BA       		.byte	0xba
 4527 0f29 81010000 		.4byte	0x181
 4528 0f2d 4C       		.byte	0x4c
 4529 0f2e 09       		.uleb128 0x9
 4530 0f2f 3A180000 		.4byte	.LASF26
 4531 0f33 15       		.byte	0x15
 4532 0f34 BD       		.byte	0xbd
 4533 0f35 74010000 		.4byte	0x174
 4534 0f39 50       		.byte	0x50
 4535 0f3a 00       		.byte	0
 4536 0f3b 06       		.uleb128 0x6
 4537 0f3c 460F0000 		.4byte	0xf46
 4538 0f40 07       		.uleb128 0x7
 4539 0f41 460F0000 		.4byte	0xf46
 4540 0f45 00       		.byte	0
 4541 0f46 05       		.uleb128 0x5
 4542 0f47 04       		.byte	0x4
 4543 0f48 320E0000 		.4byte	0xe32
 4544 0f4c 05       		.uleb128 0x5
 4545 0f4d 04       		.byte	0x4
 4546 0f4e 3B0F0000 		.4byte	0xf3b
 4547 0f52 06       		.uleb128 0x6
 4548 0f53 670F0000 		.4byte	0xf67
 4549 0f57 07       		.uleb128 0x7
 4550 0f58 460F0000 		.4byte	0xf46
 4551 0f5c 07       		.uleb128 0x7
 4552 0f5d 670F0000 		.4byte	0xf67
 4553 0f61 07       		.uleb128 0x7
 4554 0f62 C10D0000 		.4byte	0xdc1
 4555 0f66 00       		.byte	0
 4556 0f67 05       		.uleb128 0x5
 4557 0f68 04       		.byte	0x4
 4558 0f69 6D0F0000 		.4byte	0xf6d
 4559 0f6d 0F       		.uleb128 0xf
 4560 0f6e DC0A0000 		.4byte	0xadc
 4561 0f72 05       		.uleb128 0x5
 4562 0f73 04       		.byte	0x4
 4563 0f74 520F0000 		.4byte	0xf52
 4564 0f78 06       		.uleb128 0x6
 4565 0f79 9C0F0000 		.4byte	0xf9c
 4566 0f7d 07       		.uleb128 0x7
 4567 0f7e 460F0000 		.4byte	0xf46
 4568 0f82 07       		.uleb128 0x7
 4569 0f83 9C0F0000 		.4byte	0xf9c
 4570 0f87 07       		.uleb128 0x7
 4571 0f88 A70F0000 		.4byte	0xfa7
ARM GAS  C:\Users\haske\AppData\Local\Temp\ccSAQWsX.s 			page 112


 4572 0f8c 07       		.uleb128 0x7
 4573 0f8d CE000000 		.4byte	0xce
 4574 0f91 07       		.uleb128 0x7
 4575 0f92 CE000000 		.4byte	0xce
 4576 0f96 07       		.uleb128 0x7
 4577 0f97 CE000000 		.4byte	0xce
 4578 0f9b 00       		.byte	0
 4579 0f9c 05       		.uleb128 0x5
 4580 0f9d 04       		.byte	0x4
 4581 0f9e A20F0000 		.4byte	0xfa2
 4582 0fa2 0F       		.uleb128 0xf
 4583 0fa3 4D0D0000 		.4byte	0xd4d
 4584 0fa7 05       		.uleb128 0x5
 4585 0fa8 04       		.byte	0x4
 4586 0fa9 AD0F0000 		.4byte	0xfad
 4587 0fad 0F       		.uleb128 0xf
 4588 0fae C9010000 		.4byte	0x1c9
 4589 0fb2 05       		.uleb128 0x5
 4590 0fb3 04       		.byte	0x4
 4591 0fb4 780F0000 		.4byte	0xf78
 4592 0fb8 06       		.uleb128 0x6
 4593 0fb9 D70F0000 		.4byte	0xfd7
 4594 0fbd 07       		.uleb128 0x7
 4595 0fbe 460F0000 		.4byte	0xf46
 4596 0fc2 07       		.uleb128 0x7
 4597 0fc3 D70F0000 		.4byte	0xfd7
 4598 0fc7 07       		.uleb128 0x7
 4599 0fc8 C10D0000 		.4byte	0xdc1
 4600 0fcc 07       		.uleb128 0x7
 4601 0fcd 71030000 		.4byte	0x371
 4602 0fd1 07       		.uleb128 0x7
 4603 0fd2 B7080000 		.4byte	0x8b7
 4604 0fd6 00       		.byte	0
 4605 0fd7 05       		.uleb128 0x5
 4606 0fd8 04       		.byte	0x4
 4607 0fd9 DD0F0000 		.4byte	0xfdd
 4608 0fdd 0F       		.uleb128 0xf
 4609 0fde 470C0000 		.4byte	0xc47
 4610 0fe2 05       		.uleb128 0x5
 4611 0fe3 04       		.byte	0x4
 4612 0fe4 B80F0000 		.4byte	0xfb8
 4613 0fe8 10       		.uleb128 0x10
 4614 0fe9 EF000000 		.4byte	0xef
 4615 0fed 06100000 		.4byte	0x1006
 4616 0ff1 07       		.uleb128 0x7
 4617 0ff2 460F0000 		.4byte	0xf46
 4618 0ff6 07       		.uleb128 0x7
 4619 0ff7 D70F0000 		.4byte	0xfd7
 4620 0ffb 07       		.uleb128 0x7
 4621 0ffc C10D0000 		.4byte	0xdc1
 4622 1000 07       		.uleb128 0x7
 4623 1001 82030000 		.4byte	0x382
 4624 1005 00       		.byte	0
 4625 1006 05       		.uleb128 0x5
 4626 1007 04       		.byte	0x4
 4627 1008 E80F0000 		.4byte	0xfe8
 4628 100c 06       		.uleb128 0x6
ARM GAS  C:\Users\haske\AppData\Local\Temp\ccSAQWsX.s 			page 113


 4629 100d 26100000 		.4byte	0x1026
 4630 1011 07       		.uleb128 0x7
 4631 1012 460F0000 		.4byte	0xf46
 4632 1016 07       		.uleb128 0x7
 4633 1017 26100000 		.4byte	0x1026
 4634 101b 07       		.uleb128 0x7
 4635 101c A70F0000 		.4byte	0xfa7
 4636 1020 07       		.uleb128 0x7
 4637 1021 E4000000 		.4byte	0xe4
 4638 1025 00       		.byte	0
 4639 1026 05       		.uleb128 0x5
 4640 1027 04       		.byte	0x4
 4641 1028 2C100000 		.4byte	0x102c
 4642 102c 0F       		.uleb128 0xf
 4643 102d C10B0000 		.4byte	0xbc1
 4644 1031 05       		.uleb128 0x5
 4645 1032 04       		.byte	0x4
 4646 1033 0C100000 		.4byte	0x100c
 4647 1037 06       		.uleb128 0x6
 4648 1038 51100000 		.4byte	0x1051
 4649 103c 07       		.uleb128 0x7
 4650 103d 460F0000 		.4byte	0xf46
 4651 1041 07       		.uleb128 0x7
 4652 1042 51100000 		.4byte	0x1051
 4653 1046 07       		.uleb128 0x7
 4654 1047 A70F0000 		.4byte	0xfa7
 4655 104b 07       		.uleb128 0x7
 4656 104c A70F0000 		.4byte	0xfa7
 4657 1050 00       		.byte	0
 4658 1051 05       		.uleb128 0x5
 4659 1052 04       		.byte	0x4
 4660 1053 57100000 		.4byte	0x1057
 4661 1057 0F       		.uleb128 0xf
 4662 1058 D30C0000 		.4byte	0xcd3
 4663 105c 05       		.uleb128 0x5
 4664 105d 04       		.byte	0x4
 4665 105e 37100000 		.4byte	0x1037
 4666 1062 06       		.uleb128 0x6
 4667 1063 7C100000 		.4byte	0x107c
 4668 1067 07       		.uleb128 0x7
 4669 1068 460F0000 		.4byte	0xf46
 4670 106c 07       		.uleb128 0x7
 4671 106d 670F0000 		.4byte	0xf67
 4672 1071 07       		.uleb128 0x7
 4673 1072 A70F0000 		.4byte	0xfa7
 4674 1076 07       		.uleb128 0x7
 4675 1077 CE000000 		.4byte	0xce
 4676 107b 00       		.byte	0
 4677 107c 05       		.uleb128 0x5
 4678 107d 04       		.byte	0x4
 4679 107e 62100000 		.4byte	0x1062
 4680 1082 06       		.uleb128 0x6
 4681 1083 BA100000 		.4byte	0x10ba
 4682 1087 07       		.uleb128 0x7
 4683 1088 460F0000 		.4byte	0xf46
 4684 108c 07       		.uleb128 0x7
 4685 108d C10D0000 		.4byte	0xdc1
ARM GAS  C:\Users\haske\AppData\Local\Temp\ccSAQWsX.s 			page 114


 4686 1091 07       		.uleb128 0x7
 4687 1092 82030000 		.4byte	0x382
 4688 1096 07       		.uleb128 0x7
 4689 1097 A1010000 		.4byte	0x1a1
 4690 109b 07       		.uleb128 0x7
 4691 109c A1010000 		.4byte	0x1a1
 4692 10a0 07       		.uleb128 0x7
 4693 10a1 A1010000 		.4byte	0x1a1
 4694 10a5 07       		.uleb128 0x7
 4695 10a6 D70F0000 		.4byte	0xfd7
 4696 10aa 07       		.uleb128 0x7
 4697 10ab B7080000 		.4byte	0x8b7
 4698 10af 07       		.uleb128 0x7
 4699 10b0 8F090000 		.4byte	0x98f
 4700 10b4 07       		.uleb128 0x7
 4701 10b5 580D0000 		.4byte	0xd58
 4702 10b9 00       		.byte	0
 4703 10ba 05       		.uleb128 0x5
 4704 10bb 04       		.byte	0x4
 4705 10bc 82100000 		.4byte	0x1082
 4706 10c0 06       		.uleb128 0x6
 4707 10c1 E9100000 		.4byte	0x10e9
 4708 10c5 07       		.uleb128 0x7
 4709 10c6 460F0000 		.4byte	0xf46
 4710 10ca 07       		.uleb128 0x7
 4711 10cb 74010000 		.4byte	0x174
 4712 10cf 07       		.uleb128 0x7
 4713 10d0 A1010000 		.4byte	0x1a1
 4714 10d4 07       		.uleb128 0x7
 4715 10d5 C10D0000 		.4byte	0xdc1
 4716 10d9 07       		.uleb128 0x7
 4717 10da 74010000 		.4byte	0x174
 4718 10de 07       		.uleb128 0x7
 4719 10df A1010000 		.4byte	0x1a1
 4720 10e3 07       		.uleb128 0x7
 4721 10e4 C10D0000 		.4byte	0xdc1
 4722 10e8 00       		.byte	0
 4723 10e9 05       		.uleb128 0x5
 4724 10ea 04       		.byte	0x4
 4725 10eb C0100000 		.4byte	0x10c0
 4726 10ef 10       		.uleb128 0x10
 4727 10f0 08110000 		.4byte	0x1108
 4728 10f4 08110000 		.4byte	0x1108
 4729 10f8 07       		.uleb128 0x7
 4730 10f9 460F0000 		.4byte	0xf46
 4731 10fd 07       		.uleb128 0x7
 4732 10fe 08110000 		.4byte	0x1108
 4733 1102 07       		.uleb128 0x7
 4734 1103 7D0D0000 		.4byte	0xd7d
 4735 1107 00       		.byte	0
 4736 1108 05       		.uleb128 0x5
 4737 1109 04       		.byte	0x4
 4738 110a D20D0000 		.4byte	0xdd2
 4739 110e 05       		.uleb128 0x5
 4740 110f 04       		.byte	0x4
 4741 1110 EF100000 		.4byte	0x10ef
 4742 1114 06       		.uleb128 0x6
ARM GAS  C:\Users\haske\AppData\Local\Temp\ccSAQWsX.s 			page 115


 4743 1115 29110000 		.4byte	0x1129
 4744 1119 07       		.uleb128 0x7
 4745 111a 460F0000 		.4byte	0xf46
 4746 111e 07       		.uleb128 0x7
 4747 111f 08110000 		.4byte	0x1108
 4748 1123 07       		.uleb128 0x7
 4749 1124 7D0D0000 		.4byte	0xd7d
 4750 1128 00       		.byte	0
 4751 1129 05       		.uleb128 0x5
 4752 112a 04       		.byte	0x4
 4753 112b 14110000 		.4byte	0x1114
 4754 112f 06       		.uleb128 0x6
 4755 1130 44110000 		.4byte	0x1144
 4756 1134 07       		.uleb128 0x7
 4757 1135 460F0000 		.4byte	0xf46
 4758 1139 07       		.uleb128 0x7
 4759 113a 08110000 		.4byte	0x1108
 4760 113e 07       		.uleb128 0x7
 4761 113f D70F0000 		.4byte	0xfd7
 4762 1143 00       		.byte	0
 4763 1144 05       		.uleb128 0x5
 4764 1145 04       		.byte	0x4
 4765 1146 2F110000 		.4byte	0x112f
 4766 114a 06       		.uleb128 0x6
 4767 114b 5A110000 		.4byte	0x115a
 4768 114f 07       		.uleb128 0x7
 4769 1150 460F0000 		.4byte	0xf46
 4770 1154 07       		.uleb128 0x7
 4771 1155 5A110000 		.4byte	0x115a
 4772 1159 00       		.byte	0
 4773 115a 05       		.uleb128 0x5
 4774 115b 04       		.byte	0x4
 4775 115c 270E0000 		.4byte	0xe27
 4776 1160 05       		.uleb128 0x5
 4777 1161 04       		.byte	0x4
 4778 1162 4A110000 		.4byte	0x114a
 4779 1166 02       		.uleb128 0x2
 4780 1167 0D1B0000 		.4byte	.LASF309
 4781 116b 15       		.byte	0x15
 4782 116c C0       		.byte	0xc0
 4783 116d 320E0000 		.4byte	0xe32
 4784 1171 02       		.uleb128 0x2
 4785 1172 E2090000 		.4byte	.LASF310
 4786 1176 16       		.byte	0x16
 4787 1177 1D       		.byte	0x1d
 4788 1178 B8000000 		.4byte	0xb8
 4789 117c 0C       		.uleb128 0xc
 4790 117d 0C       		.byte	0xc
 4791 117e 16       		.byte	0x16
 4792 117f 20       		.byte	0x20
 4793 1180 A9110000 		.4byte	0x11a9
 4794 1184 09       		.uleb128 0x9
 4795 1185 38210000 		.4byte	.LASF311
 4796 1189 16       		.byte	0x16
 4797 118a 21       		.byte	0x21
 4798 118b E4000000 		.4byte	0xe4
 4799 118f 00       		.byte	0
ARM GAS  C:\Users\haske\AppData\Local\Temp\ccSAQWsX.s 			page 116


 4800 1190 09       		.uleb128 0x9
 4801 1191 8A1F0000 		.4byte	.LASF312
 4802 1195 16       		.byte	0x16
 4803 1196 22       		.byte	0x22
 4804 1197 A9110000 		.4byte	0x11a9
 4805 119b 04       		.byte	0x4
 4806 119c 09       		.uleb128 0x9
 4807 119d EE1D0000 		.4byte	.LASF313
 4808 11a1 16       		.byte	0x16
 4809 11a2 23       		.byte	0x23
 4810 11a3 A9110000 		.4byte	0x11a9
 4811 11a7 08       		.byte	0x8
 4812 11a8 00       		.byte	0
 4813 11a9 05       		.uleb128 0x5
 4814 11aa 04       		.byte	0x4
 4815 11ab 71110000 		.4byte	0x1171
 4816 11af 02       		.uleb128 0x2
 4817 11b0 0A110000 		.4byte	.LASF314
 4818 11b4 16       		.byte	0x16
 4819 11b5 24       		.byte	0x24
 4820 11b6 7C110000 		.4byte	0x117c
 4821 11ba 08       		.uleb128 0x8
 4822 11bb 2F1B0000 		.4byte	.LASF315
 4823 11bf 1C       		.byte	0x1c
 4824 11c0 17       		.byte	0x17
 4825 11c1 32       		.byte	0x32
 4826 11c2 2D120000 		.4byte	0x122d
 4827 11c6 09       		.uleb128 0x9
 4828 11c7 EA120000 		.4byte	.LASF316
 4829 11cb 17       		.byte	0x17
 4830 11cc 33       		.byte	0x33
 4831 11cd 74010000 		.4byte	0x174
 4832 11d1 00       		.byte	0
 4833 11d2 09       		.uleb128 0x9
 4834 11d3 51120000 		.4byte	.LASF317
 4835 11d7 17       		.byte	0x17
 4836 11d8 34       		.byte	0x34
 4837 11d9 74010000 		.4byte	0x174
 4838 11dd 04       		.byte	0x4
 4839 11de 09       		.uleb128 0x9
 4840 11df C4200000 		.4byte	.LASF318
 4841 11e3 17       		.byte	0x17
 4842 11e4 37       		.byte	0x37
 4843 11e5 74010000 		.4byte	0x174
 4844 11e9 08       		.byte	0x8
 4845 11ea 09       		.uleb128 0x9
 4846 11eb 830C0000 		.4byte	.LASF319
 4847 11ef 17       		.byte	0x17
 4848 11f0 38       		.byte	0x38
 4849 11f1 E4000000 		.4byte	0xe4
 4850 11f5 0C       		.byte	0xc
 4851 11f6 09       		.uleb128 0x9
 4852 11f7 F9180000 		.4byte	.LASF320
 4853 11fb 17       		.byte	0x17
 4854 11fc 3A       		.byte	0x3a
 4855 11fd 2D120000 		.4byte	0x122d
 4856 1201 10       		.byte	0x10
ARM GAS  C:\Users\haske\AppData\Local\Temp\ccSAQWsX.s 			page 117


 4857 1202 09       		.uleb128 0x9
 4858 1203 C1090000 		.4byte	.LASF321
 4859 1207 17       		.byte	0x17
 4860 1208 3C       		.byte	0x3c
 4861 1209 2D120000 		.4byte	0x122d
 4862 120d 14       		.byte	0x14
 4863 120e 0A       		.uleb128 0xa
 4864 120f D8030000 		.4byte	.LASF322
 4865 1213 17       		.byte	0x17
 4866 1214 3D       		.byte	0x3d
 4867 1215 32120000 		.4byte	0x1232
 4868 1219 04       		.byte	0x4
 4869 121a 01       		.byte	0x1
 4870 121b 1F       		.byte	0x1f
 4871 121c 18       		.byte	0x18
 4872 121d 0A       		.uleb128 0xa
 4873 121e 50230000 		.4byte	.LASF323
 4874 1222 17       		.byte	0x17
 4875 1223 3E       		.byte	0x3e
 4876 1224 32120000 		.4byte	0x1232
 4877 1228 04       		.byte	0x4
 4878 1229 01       		.byte	0x1
 4879 122a 1E       		.byte	0x1e
 4880 122b 18       		.byte	0x18
 4881 122c 00       		.byte	0
 4882 122d 20       		.uleb128 0x20
 4883 122e 9F000000 		.4byte	0x9f
 4884 1232 20       		.uleb128 0x20
 4885 1233 E4000000 		.4byte	0xe4
 4886 1237 02       		.uleb128 0x2
 4887 1238 85220000 		.4byte	.LASF324
 4888 123c 17       		.byte	0x17
 4889 123d 3F       		.byte	0x3f
 4890 123e BA110000 		.4byte	0x11ba
 4891 1242 08       		.uleb128 0x8
 4892 1243 FF150000 		.4byte	.LASF325
 4893 1247 50       		.byte	0x50
 4894 1248 17       		.byte	0x17
 4895 1249 4D       		.byte	0x4d
 4896 124a C0130000 		.4byte	0x13c0
 4897 124e 09       		.uleb128 0x9
 4898 124f 0C1E0000 		.4byte	.LASF326
 4899 1253 17       		.byte	0x17
 4900 1254 4F       		.byte	0x4f
 4901 1255 A1010000 		.4byte	0x1a1
 4902 1259 00       		.byte	0
 4903 125a 09       		.uleb128 0x9
 4904 125b 530D0000 		.4byte	.LASF327
 4905 125f 17       		.byte	0x17
 4906 1260 50       		.byte	0x50
 4907 1261 A1010000 		.4byte	0x1a1
 4908 1265 02       		.byte	0x2
 4909 1266 09       		.uleb128 0x9
 4910 1267 7E0A0000 		.4byte	.LASF328
 4911 126b 17       		.byte	0x17
 4912 126c 53       		.byte	0x53
 4913 126d A1010000 		.4byte	0x1a1
ARM GAS  C:\Users\haske\AppData\Local\Temp\ccSAQWsX.s 			page 118


 4914 1271 04       		.byte	0x4
 4915 1272 09       		.uleb128 0x9
 4916 1273 1D0E0000 		.4byte	.LASF329
 4917 1277 17       		.byte	0x17
 4918 1278 55       		.byte	0x55
 4919 1279 A1010000 		.4byte	0x1a1
 4920 127d 06       		.byte	0x6
 4921 127e 09       		.uleb128 0x9
 4922 127f 1B0F0000 		.4byte	.LASF330
 4923 1283 17       		.byte	0x17
 4924 1284 57       		.byte	0x57
 4925 1285 A1010000 		.4byte	0x1a1
 4926 1289 08       		.byte	0x8
 4927 128a 09       		.uleb128 0x9
 4928 128b 240F0000 		.4byte	.LASF331
 4929 128f 17       		.byte	0x17
 4930 1290 58       		.byte	0x58
 4931 1291 A1010000 		.4byte	0x1a1
 4932 1295 0A       		.byte	0xa
 4933 1296 09       		.uleb128 0x9
 4934 1297 A8220000 		.4byte	.LASF332
 4935 129b 17       		.byte	0x17
 4936 129c 5C       		.byte	0x5c
 4937 129d C0130000 		.4byte	0x13c0
 4938 12a1 0C       		.byte	0xc
 4939 12a2 0A       		.uleb128 0xa
 4940 12a3 2A0D0000 		.4byte	.LASF333
 4941 12a7 17       		.byte	0x17
 4942 12a8 5E       		.byte	0x5e
 4943 12a9 E4000000 		.4byte	0xe4
 4944 12ad 04       		.byte	0x4
 4945 12ae 01       		.byte	0x1
 4946 12af 1F       		.byte	0x1f
 4947 12b0 10       		.byte	0x10
 4948 12b1 0A       		.uleb128 0xa
 4949 12b2 A50C0000 		.4byte	.LASF334
 4950 12b6 17       		.byte	0x17
 4951 12b7 5F       		.byte	0x5f
 4952 12b8 E4000000 		.4byte	0xe4
 4953 12bc 04       		.byte	0x4
 4954 12bd 01       		.byte	0x1
 4955 12be 1E       		.byte	0x1e
 4956 12bf 10       		.byte	0x10
 4957 12c0 0A       		.uleb128 0xa
 4958 12c1 2D060000 		.4byte	.LASF335
 4959 12c5 17       		.byte	0x17
 4960 12c6 60       		.byte	0x60
 4961 12c7 E4000000 		.4byte	0xe4
 4962 12cb 04       		.byte	0x4
 4963 12cc 01       		.byte	0x1
 4964 12cd 1D       		.byte	0x1d
 4965 12ce 10       		.byte	0x10
 4966 12cf 0A       		.uleb128 0xa
 4967 12d0 5F0B0000 		.4byte	.LASF336
 4968 12d4 17       		.byte	0x17
 4969 12d5 61       		.byte	0x61
 4970 12d6 E4000000 		.4byte	0xe4
ARM GAS  C:\Users\haske\AppData\Local\Temp\ccSAQWsX.s 			page 119


 4971 12da 04       		.byte	0x4
 4972 12db 01       		.byte	0x1
 4973 12dc 1C       		.byte	0x1c
 4974 12dd 10       		.byte	0x10
 4975 12de 0A       		.uleb128 0xa
 4976 12df 14040000 		.4byte	.LASF337
 4977 12e3 17       		.byte	0x17
 4978 12e4 62       		.byte	0x62
 4979 12e5 E4000000 		.4byte	0xe4
 4980 12e9 04       		.byte	0x4
 4981 12ea 02       		.byte	0x2
 4982 12eb 1A       		.byte	0x1a
 4983 12ec 10       		.byte	0x10
 4984 12ed 0A       		.uleb128 0xa
 4985 12ee 29040000 		.4byte	.LASF283
 4986 12f2 17       		.byte	0x17
 4987 12f3 63       		.byte	0x63
 4988 12f4 E4000000 		.4byte	0xe4
 4989 12f8 04       		.byte	0x4
 4990 12f9 01       		.byte	0x1
 4991 12fa 19       		.byte	0x19
 4992 12fb 10       		.byte	0x10
 4993 12fc 0E       		.uleb128 0xe
 4994 12fd 64706900 		.ascii	"dpi\000"
 4995 1301 17       		.byte	0x17
 4996 1302 66       		.byte	0x66
 4997 1303 E4000000 		.4byte	0xe4
 4998 1307 04       		.byte	0x4
 4999 1308 0A       		.byte	0xa
 5000 1309 0F       		.byte	0xf
 5001 130a 10       		.byte	0x10
 5002 130b 09       		.uleb128 0x9
 5003 130c 48120000 		.4byte	.LASF338
 5004 1310 17       		.byte	0x17
 5005 1311 6A       		.byte	0x6a
 5006 1312 E1130000 		.4byte	0x13e1
 5007 1316 14       		.byte	0x14
 5008 1317 09       		.uleb128 0x9
 5009 1318 02200000 		.4byte	.LASF339
 5010 131c 17       		.byte	0x17
 5011 131d 6E       		.byte	0x6e
 5012 131e F7130000 		.4byte	0x13f7
 5013 1322 18       		.byte	0x18
 5014 1323 09       		.uleb128 0x9
 5015 1324 37190000 		.4byte	.LASF340
 5016 1328 17       		.byte	0x17
 5017 1329 73       		.byte	0x73
 5018 132a 26140000 		.4byte	0x1426
 5019 132e 1C       		.byte	0x1c
 5020 132f 09       		.uleb128 0x9
 5021 1330 62190000 		.4byte	.LASF341
 5022 1334 17       		.byte	0x17
 5023 1335 76       		.byte	0x76
 5024 1336 41140000 		.4byte	0x1441
 5025 133a 20       		.byte	0x20
 5026 133b 09       		.uleb128 0x9
 5027 133c 880C0000 		.4byte	.LASF342
ARM GAS  C:\Users\haske\AppData\Local\Temp\ccSAQWsX.s 			page 120


 5028 1340 17       		.byte	0x17
 5029 1341 7B       		.byte	0x7b
 5030 1342 5C140000 		.4byte	0x145c
 5031 1346 24       		.byte	0x24
 5032 1347 09       		.uleb128 0x9
 5033 1348 A40A0000 		.4byte	.LASF343
 5034 134c 17       		.byte	0x17
 5035 134d 80       		.byte	0x80
 5036 134e 6D140000 		.4byte	0x146d
 5037 1352 28       		.byte	0x28
 5038 1353 09       		.uleb128 0x9
 5039 1354 0E160000 		.4byte	.LASF344
 5040 1358 17       		.byte	0x17
 5041 1359 83       		.byte	0x83
 5042 135a 6D140000 		.4byte	0x146d
 5043 135e 2C       		.byte	0x2c
 5044 135f 09       		.uleb128 0x9
 5045 1360 8E170000 		.4byte	.LASF345
 5046 1364 17       		.byte	0x17
 5047 1365 86       		.byte	0x86
 5048 1366 6D140000 		.4byte	0x146d
 5049 136a 30       		.byte	0x30
 5050 136b 09       		.uleb128 0x9
 5051 136c B5160000 		.4byte	.LASF346
 5052 1370 17       		.byte	0x17
 5053 1371 89       		.byte	0x89
 5054 1372 6D140000 		.4byte	0x146d
 5055 1376 34       		.byte	0x34
 5056 1377 09       		.uleb128 0x9
 5057 1378 D9120000 		.4byte	.LASF347
 5058 137c 17       		.byte	0x17
 5059 137d 8D       		.byte	0x8d
 5060 137e 4E040000 		.4byte	0x44e
 5061 1382 38       		.byte	0x38
 5062 1383 09       		.uleb128 0x9
 5063 1384 CE230000 		.4byte	.LASF348
 5064 1388 17       		.byte	0x17
 5065 1389 8F       		.byte	0x8f
 5066 138a 73140000 		.4byte	0x1473
 5067 138e 3C       		.byte	0x3c
 5068 138f 09       		.uleb128 0x9
 5069 1390 630F0000 		.4byte	.LASF349
 5070 1394 17       		.byte	0x17
 5071 1395 90       		.byte	0x90
 5072 1396 89140000 		.4byte	0x1489
 5073 139a 40       		.byte	0x40
 5074 139b 09       		.uleb128 0x9
 5075 139c 8E210000 		.4byte	.LASF350
 5076 13a0 17       		.byte	0x17
 5077 13a1 91       		.byte	0x91
 5078 13a2 89140000 		.4byte	0x1489
 5079 13a6 44       		.byte	0x44
 5080 13a7 09       		.uleb128 0x9
 5081 13a8 29010000 		.4byte	.LASF351
 5082 13ac 17       		.byte	0x17
 5083 13ad 92       		.byte	0x92
 5084 13ae 81010000 		.4byte	0x181
ARM GAS  C:\Users\haske\AppData\Local\Temp\ccSAQWsX.s 			page 121


 5085 13b2 48       		.byte	0x48
 5086 13b3 09       		.uleb128 0x9
 5087 13b4 3A180000 		.4byte	.LASF26
 5088 13b8 17       		.byte	0x17
 5089 13b9 95       		.byte	0x95
 5090 13ba 74010000 		.4byte	0x174
 5091 13be 4C       		.byte	0x4c
 5092 13bf 00       		.byte	0
 5093 13c0 05       		.uleb128 0x5
 5094 13c1 04       		.byte	0x4
 5095 13c2 37120000 		.4byte	0x1237
 5096 13c6 06       		.uleb128 0x6
 5097 13c7 DB130000 		.4byte	0x13db
 5098 13cb 07       		.uleb128 0x7
 5099 13cc DB130000 		.4byte	0x13db
 5100 13d0 07       		.uleb128 0x7
 5101 13d1 C10D0000 		.4byte	0xdc1
 5102 13d5 07       		.uleb128 0x7
 5103 13d6 8F090000 		.4byte	0x98f
 5104 13da 00       		.byte	0
 5105 13db 05       		.uleb128 0x5
 5106 13dc 04       		.byte	0x4
 5107 13dd 42120000 		.4byte	0x1242
 5108 13e1 05       		.uleb128 0x5
 5109 13e2 04       		.byte	0x4
 5110 13e3 C6130000 		.4byte	0x13c6
 5111 13e7 06       		.uleb128 0x6
 5112 13e8 F7130000 		.4byte	0x13f7
 5113 13ec 07       		.uleb128 0x7
 5114 13ed DB130000 		.4byte	0x13db
 5115 13f1 07       		.uleb128 0x7
 5116 13f2 CC0D0000 		.4byte	0xdcc
 5117 13f6 00       		.byte	0
 5118 13f7 05       		.uleb128 0x5
 5119 13f8 04       		.byte	0x4
 5120 13f9 E7130000 		.4byte	0x13e7
 5121 13fd 06       		.uleb128 0x6
 5122 13fe 26140000 		.4byte	0x1426
 5123 1402 07       		.uleb128 0x7
 5124 1403 DB130000 		.4byte	0x13db
 5125 1407 07       		.uleb128 0x7
 5126 1408 5C080000 		.4byte	0x85c
 5127 140c 07       		.uleb128 0x7
 5128 140d A1010000 		.4byte	0x1a1
 5129 1411 07       		.uleb128 0x7
 5130 1412 A1010000 		.4byte	0x1a1
 5131 1416 07       		.uleb128 0x7
 5132 1417 A1010000 		.4byte	0x1a1
 5133 141b 07       		.uleb128 0x7
 5134 141c 4E040000 		.4byte	0x44e
 5135 1420 07       		.uleb128 0x7
 5136 1421 59040000 		.4byte	0x459
 5137 1425 00       		.byte	0
 5138 1426 05       		.uleb128 0x5
 5139 1427 04       		.byte	0x4
 5140 1428 FD130000 		.4byte	0x13fd
 5141 142c 06       		.uleb128 0x6
ARM GAS  C:\Users\haske\AppData\Local\Temp\ccSAQWsX.s 			page 122


 5142 142d 41140000 		.4byte	0x1441
 5143 1431 07       		.uleb128 0x7
 5144 1432 DB130000 		.4byte	0x13db
 5145 1436 07       		.uleb128 0x7
 5146 1437 5C080000 		.4byte	0x85c
 5147 143b 07       		.uleb128 0x7
 5148 143c E4000000 		.4byte	0xe4
 5149 1440 00       		.byte	0
 5150 1441 05       		.uleb128 0x5
 5151 1442 04       		.byte	0x4
 5152 1443 2C140000 		.4byte	0x142c
 5153 1447 06       		.uleb128 0x6
 5154 1448 5C140000 		.4byte	0x145c
 5155 144c 07       		.uleb128 0x7
 5156 144d DB130000 		.4byte	0x13db
 5157 1451 07       		.uleb128 0x7
 5158 1452 E4000000 		.4byte	0xe4
 5159 1456 07       		.uleb128 0x7
 5160 1457 E4000000 		.4byte	0xe4
 5161 145b 00       		.byte	0
 5162 145c 05       		.uleb128 0x5
 5163 145d 04       		.byte	0x4
 5164 145e 47140000 		.4byte	0x1447
 5165 1462 06       		.uleb128 0x6
 5166 1463 6D140000 		.4byte	0x146d
 5167 1467 07       		.uleb128 0x7
 5168 1468 DB130000 		.4byte	0x13db
 5169 146c 00       		.byte	0
 5170 146d 05       		.uleb128 0x5
 5171 146e 04       		.byte	0x4
 5172 146f 62140000 		.4byte	0x1462
 5173 1473 05       		.uleb128 0x5
 5174 1474 04       		.byte	0x4
 5175 1475 66110000 		.4byte	0x1166
 5176 1479 06       		.uleb128 0x6
 5177 147a 89140000 		.4byte	0x1489
 5178 147e 07       		.uleb128 0x7
 5179 147f DB130000 		.4byte	0x13db
 5180 1483 07       		.uleb128 0x7
 5181 1484 73140000 		.4byte	0x1473
 5182 1488 00       		.byte	0
 5183 1489 05       		.uleb128 0x5
 5184 148a 04       		.byte	0x4
 5185 148b 79140000 		.4byte	0x1479
 5186 148f 21       		.uleb128 0x21
 5187 1490 62130000 		.4byte	.LASF352
 5188 1494 5C01     		.2byte	0x15c
 5189 1496 17       		.byte	0x17
 5190 1497 9E       		.byte	0x9e
 5191 1498 A6150000 		.4byte	0x15a6
 5192 149c 09       		.uleb128 0x9
 5193 149d C61C0000 		.4byte	.LASF353
 5194 14a1 17       		.byte	0x17
 5195 14a2 A0       		.byte	0xa0
 5196 14a3 DB130000 		.4byte	0x13db
 5197 14a7 00       		.byte	0
 5198 14a8 09       		.uleb128 0x9
ARM GAS  C:\Users\haske\AppData\Local\Temp\ccSAQWsX.s 			page 123


 5199 14a9 EB1F0000 		.4byte	.LASF354
 5200 14ad 17       		.byte	0x17
 5201 14ae A3       		.byte	0xa3
 5202 14af A6150000 		.4byte	0x15a6
 5203 14b3 04       		.byte	0x4
 5204 14b4 09       		.uleb128 0x9
 5205 14b5 4D0D0000 		.4byte	.LASF355
 5206 14b9 17       		.byte	0x17
 5207 14ba A6       		.byte	0xa6
 5208 14bb 31160000 		.4byte	0x1631
 5209 14bf 08       		.byte	0x8
 5210 14c0 09       		.uleb128 0x9
 5211 14c1 A11D0000 		.4byte	.LASF356
 5212 14c5 17       		.byte	0x17
 5213 14c6 A9       		.byte	0xa9
 5214 14c7 37160000 		.4byte	0x1637
 5215 14cb 0C       		.byte	0xc
 5216 14cc 09       		.uleb128 0x9
 5217 14cd EB0D0000 		.4byte	.LASF357
 5218 14d1 17       		.byte	0x17
 5219 14d2 AA       		.byte	0xaa
 5220 14d3 C2080000 		.4byte	0x8c2
 5221 14d7 10       		.byte	0x10
 5222 14d8 09       		.uleb128 0x9
 5223 14d9 12110000 		.4byte	.LASF358
 5224 14dd 17       		.byte	0x17
 5225 14de AB       		.byte	0xab
 5226 14df C2080000 		.4byte	0x8c2
 5227 14e3 14       		.byte	0x14
 5228 14e4 09       		.uleb128 0x9
 5229 14e5 301A0000 		.4byte	.LASF359
 5230 14e9 17       		.byte	0x17
 5231 14ea AC       		.byte	0xac
 5232 14eb C2080000 		.4byte	0x8c2
 5233 14ef 18       		.byte	0x18
 5234 14f0 09       		.uleb128 0x9
 5235 14f1 261A0000 		.4byte	.LASF360
 5236 14f5 17       		.byte	0x17
 5237 14f6 AD       		.byte	0xad
 5238 14f7 C2080000 		.4byte	0x8c2
 5239 14fb 1C       		.byte	0x1c
 5240 14fc 09       		.uleb128 0x9
 5241 14fd F7250000 		.4byte	.LASF361
 5242 1501 17       		.byte	0x17
 5243 1502 AE       		.byte	0xae
 5244 1503 C2080000 		.4byte	0x8c2
 5245 1507 20       		.byte	0x20
 5246 1508 09       		.uleb128 0x9
 5247 1509 341D0000 		.4byte	.LASF362
 5248 150d 17       		.byte	0x17
 5249 150e AF       		.byte	0xaf
 5250 150f E4000000 		.4byte	0xe4
 5251 1513 24       		.byte	0x24
 5252 1514 0A       		.uleb128 0xa
 5253 1515 CF090000 		.4byte	.LASF363
 5254 1519 17       		.byte	0x17
 5255 151a B0       		.byte	0xb0
ARM GAS  C:\Users\haske\AppData\Local\Temp\ccSAQWsX.s 			page 124


 5256 151b B8000000 		.4byte	0xb8
 5257 151f 01       		.byte	0x1
 5258 1520 01       		.byte	0x1
 5259 1521 07       		.byte	0x7
 5260 1522 28       		.byte	0x28
 5261 1523 0A       		.uleb128 0xa
 5262 1524 80090000 		.4byte	.LASF364
 5263 1528 17       		.byte	0x17
 5264 1529 B2       		.byte	0xb2
 5265 152a B8000000 		.4byte	0xb8
 5266 152e 01       		.byte	0x1
 5267 152f 01       		.byte	0x1
 5268 1530 06       		.byte	0x6
 5269 1531 28       		.byte	0x28
 5270 1532 0A       		.uleb128 0xa
 5271 1533 2D0F0000 		.4byte	.LASF365
 5272 1537 17       		.byte	0x17
 5273 1538 B4       		.byte	0xb4
 5274 1539 B8000000 		.4byte	0xb8
 5275 153d 01       		.byte	0x1
 5276 153e 01       		.byte	0x1
 5277 153f 05       		.byte	0x5
 5278 1540 28       		.byte	0x28
 5279 1541 09       		.uleb128 0x9
 5280 1542 00000000 		.4byte	.LASF220
 5281 1546 17       		.byte	0x17
 5282 1547 B6       		.byte	0xb6
 5283 1548 59040000 		.4byte	0x459
 5284 154c 29       		.byte	0x29
 5285 154d 09       		.uleb128 0x9
 5286 154e 47260000 		.4byte	.LASF221
 5287 1552 17       		.byte	0x17
 5288 1553 B7       		.byte	0xb7
 5289 1554 4E040000 		.4byte	0x44e
 5290 1558 2A       		.byte	0x2a
 5291 1559 09       		.uleb128 0x9
 5292 155a 970D0000 		.4byte	.LASF366
 5293 155e 17       		.byte	0x17
 5294 155f B8       		.byte	0xb8
 5295 1560 82030000 		.4byte	0x382
 5296 1564 2C       		.byte	0x2c
 5297 1565 09       		.uleb128 0x9
 5298 1566 2D190000 		.4byte	.LASF367
 5299 156a 17       		.byte	0x17
 5300 156b BB       		.byte	0xbb
 5301 156c 3D160000 		.4byte	0x163d
 5302 1570 30       		.byte	0x30
 5303 1571 22       		.uleb128 0x22
 5304 1572 BE230000 		.4byte	.LASF368
 5305 1576 17       		.byte	0x17
 5306 1577 BC       		.byte	0xbc
 5307 1578 4D160000 		.4byte	0x164d
 5308 157c 3001     		.2byte	0x130
 5309 157e 22       		.uleb128 0x22
 5310 157f AD1F0000 		.4byte	.LASF369
 5311 1583 17       		.byte	0x17
 5312 1584 BD       		.byte	0xbd
ARM GAS  C:\Users\haske\AppData\Local\Temp\ccSAQWsX.s 			page 125


 5313 1585 CE000000 		.4byte	0xce
 5314 1589 5001     		.2byte	0x150
 5315 158b 22       		.uleb128 0x22
 5316 158c 6B080000 		.4byte	.LASF370
 5317 1590 17       		.byte	0x17
 5318 1591 BE       		.byte	0xbe
 5319 1592 D9000000 		.4byte	0xd9
 5320 1596 5401     		.2byte	0x154
 5321 1598 22       		.uleb128 0x22
 5322 1599 AD010000 		.4byte	.LASF371
 5323 159d 17       		.byte	0x17
 5324 159e C1       		.byte	0xc1
 5325 159f E4000000 		.4byte	0xe4
 5326 15a3 5801     		.2byte	0x158
 5327 15a5 00       		.byte	0
 5328 15a6 05       		.uleb128 0x5
 5329 15a7 04       		.byte	0x4
 5330 15a8 76010000 		.4byte	0x176
 5331 15ac 08       		.uleb128 0x8
 5332 15ad DE150000 		.4byte	.LASF372
 5333 15b1 24       		.byte	0x24
 5334 15b2 18       		.byte	0x18
 5335 15b3 1F       		.byte	0x1f
 5336 15b4 31160000 		.4byte	0x1631
 5337 15b8 09       		.uleb128 0x9
 5338 15b9 E00F0000 		.4byte	.LASF373
 5339 15bd 18       		.byte	0x18
 5340 15be 20       		.byte	0x20
 5341 15bf 091C0000 		.4byte	0x1c09
 5342 15c3 00       		.byte	0
 5343 15c4 09       		.uleb128 0x9
 5344 15c5 8B200000 		.4byte	.LASF206
 5345 15c9 18       		.byte	0x18
 5346 15ca 21       		.byte	0x21
 5347 15cb 31160000 		.4byte	0x1631
 5348 15cf 04       		.byte	0x4
 5349 15d0 09       		.uleb128 0x9
 5350 15d1 3A180000 		.4byte	.LASF26
 5351 15d5 18       		.byte	0x18
 5352 15d6 22       		.byte	0x22
 5353 15d7 74010000 		.4byte	0x174
 5354 15db 08       		.byte	0x8
 5355 15dc 09       		.uleb128 0x9
 5356 15dd 99140000 		.4byte	.LASF374
 5357 15e1 18       		.byte	0x18
 5358 15e2 23       		.byte	0x23
 5359 15e3 68160000 		.4byte	0x1668
 5360 15e7 0C       		.byte	0xc
 5361 15e8 09       		.uleb128 0x9
 5362 15e9 8A1D0000 		.4byte	.LASF375
 5363 15ed 18       		.byte	0x18
 5364 15ee 24       		.byte	0x24
 5365 15ef 4E040000 		.4byte	0x44e
 5366 15f3 10       		.byte	0x10
 5367 15f4 09       		.uleb128 0x9
 5368 15f5 77250000 		.4byte	.LASF376
 5369 15f9 18       		.byte	0x18
ARM GAS  C:\Users\haske\AppData\Local\Temp\ccSAQWsX.s 			page 126


 5370 15fa 25       		.byte	0x25
 5371 15fb 4E040000 		.4byte	0x44e
 5372 15ff 12       		.byte	0x12
 5373 1600 09       		.uleb128 0x9
 5374 1601 0C1C0000 		.4byte	.LASF377
 5375 1605 18       		.byte	0x18
 5376 1606 26       		.byte	0x26
 5377 1607 B60B0000 		.4byte	0xbb6
 5378 160b 14       		.byte	0x14
 5379 160c 09       		.uleb128 0x9
 5380 160d 1C020000 		.4byte	.LASF378
 5381 1611 18       		.byte	0x18
 5382 1612 27       		.byte	0x27
 5383 1613 B60B0000 		.4byte	0xbb6
 5384 1617 18       		.byte	0x18
 5385 1618 09       		.uleb128 0x9
 5386 1619 6C0B0000 		.4byte	.LASF379
 5387 161d 18       		.byte	0x18
 5388 161e 28       		.byte	0x28
 5389 161f B60B0000 		.4byte	0xbb6
 5390 1623 1C       		.byte	0x1c
 5391 1624 09       		.uleb128 0x9
 5392 1625 5C260000 		.4byte	.LASF210
 5393 1629 18       		.byte	0x18
 5394 162a 29       		.byte	0x29
 5395 162b E4000000 		.4byte	0xe4
 5396 162f 20       		.byte	0x20
 5397 1630 00       		.byte	0
 5398 1631 05       		.uleb128 0x5
 5399 1632 04       		.byte	0x4
 5400 1633 AC150000 		.4byte	0x15ac
 5401 1637 05       		.uleb128 0x5
 5402 1638 04       		.byte	0x4
 5403 1639 C2080000 		.4byte	0x8c2
 5404 163d 17       		.uleb128 0x17
 5405 163e 09020000 		.4byte	0x209
 5406 1642 4D160000 		.4byte	0x164d
 5407 1646 18       		.uleb128 0x18
 5408 1647 93010000 		.4byte	0x193
 5409 164b 1F       		.byte	0x1f
 5410 164c 00       		.byte	0
 5411 164d 17       		.uleb128 0x17
 5412 164e B8000000 		.4byte	0xb8
 5413 1652 5D160000 		.4byte	0x165d
 5414 1656 18       		.uleb128 0x18
 5415 1657 93010000 		.4byte	0x193
 5416 165b 1F       		.byte	0x1f
 5417 165c 00       		.byte	0
 5418 165d 02       		.uleb128 0x2
 5419 165e 790C0000 		.4byte	.LASF380
 5420 1662 17       		.byte	0x17
 5421 1663 C2       		.byte	0xc2
 5422 1664 8F140000 		.4byte	0x148f
 5423 1668 05       		.uleb128 0x5
 5424 1669 04       		.byte	0x4
 5425 166a 8F140000 		.4byte	0x148f
 5426 166e 08       		.uleb128 0x8
ARM GAS  C:\Users\haske\AppData\Local\Temp\ccSAQWsX.s 			page 127


 5427 166f B2000000 		.4byte	.LASF381
 5428 1673 20       		.byte	0x20
 5429 1674 19       		.byte	0x19
 5430 1675 3B       		.byte	0x3b
 5431 1676 F3160000 		.4byte	0x16f3
 5432 167a 09       		.uleb128 0x9
 5433 167b 7B1A0000 		.4byte	.LASF382
 5434 167f 19       		.byte	0x19
 5435 1680 3C       		.byte	0x3c
 5436 1681 AF110000 		.4byte	0x11af
 5437 1685 00       		.byte	0
 5438 1686 09       		.uleb128 0x9
 5439 1687 76080000 		.4byte	.LASF383
 5440 168b 19       		.byte	0x19
 5441 168c 3D       		.byte	0x3d
 5442 168d 37160000 		.4byte	0x1637
 5443 1691 0C       		.byte	0xc
 5444 1692 09       		.uleb128 0x9
 5445 1693 41050000 		.4byte	.LASF384
 5446 1697 19       		.byte	0x19
 5447 1698 3F       		.byte	0x3f
 5448 1699 CC1A0000 		.4byte	0x1acc
 5449 169d 10       		.byte	0x10
 5450 169e 09       		.uleb128 0x9
 5451 169f 91140000 		.4byte	.LASF385
 5452 16a3 19       		.byte	0x19
 5453 16a4 40       		.byte	0x40
 5454 16a5 E81A0000 		.4byte	0x1ae8
 5455 16a9 14       		.byte	0x14
 5456 16aa 09       		.uleb128 0x9
 5457 16ab 3A180000 		.4byte	.LASF26
 5458 16af 19       		.byte	0x19
 5459 16b0 45       		.byte	0x45
 5460 16b1 74010000 		.4byte	0x174
 5461 16b5 18       		.byte	0x18
 5462 16b6 0A       		.uleb128 0xa
 5463 16b7 7D0F0000 		.4byte	.LASF386
 5464 16bb 19       		.byte	0x19
 5465 16bc 48       		.byte	0x48
 5466 16bd B8000000 		.4byte	0xb8
 5467 16c1 01       		.byte	0x1
 5468 16c2 01       		.byte	0x1
 5469 16c3 07       		.byte	0x7
 5470 16c4 1C       		.byte	0x1c
 5471 16c5 0A       		.uleb128 0xa
 5472 16c6 EC140000 		.4byte	.LASF387
 5473 16ca 19       		.byte	0x19
 5474 16cb 49       		.byte	0x49
 5475 16cc B8000000 		.4byte	0xb8
 5476 16d0 01       		.byte	0x1
 5477 16d1 01       		.byte	0x1
 5478 16d2 06       		.byte	0x6
 5479 16d3 1C       		.byte	0x1c
 5480 16d4 0A       		.uleb128 0xa
 5481 16d5 9E1F0000 		.4byte	.LASF388
 5482 16d9 19       		.byte	0x19
 5483 16da 4A       		.byte	0x4a
ARM GAS  C:\Users\haske\AppData\Local\Temp\ccSAQWsX.s 			page 128


 5484 16db B8000000 		.4byte	0xb8
 5485 16df 01       		.byte	0x1
 5486 16e0 01       		.byte	0x1
 5487 16e1 05       		.byte	0x5
 5488 16e2 1C       		.byte	0x1c
 5489 16e3 0A       		.uleb128 0xa
 5490 16e4 241C0000 		.4byte	.LASF389
 5491 16e8 19       		.byte	0x19
 5492 16e9 4C       		.byte	0x4c
 5493 16ea B8000000 		.4byte	0xb8
 5494 16ee 01       		.byte	0x1
 5495 16ef 01       		.byte	0x1
 5496 16f0 04       		.byte	0x4
 5497 16f1 1C       		.byte	0x1c
 5498 16f2 00       		.byte	0
 5499 16f3 05       		.uleb128 0x5
 5500 16f4 04       		.byte	0x4
 5501 16f5 6E160000 		.4byte	0x166e
 5502 16f9 12       		.uleb128 0x12
 5503 16fa 02       		.byte	0x2
 5504 16fb 66000000 		.4byte	0x66
 5505 16ff 0E       		.byte	0xe
 5506 1700 29       		.byte	0x29
 5507 1701 5F170000 		.4byte	0x175f
 5508 1705 13       		.uleb128 0x13
 5509 1706 D7180000 		.4byte	.LASF390
 5510 170a 00       		.byte	0
 5511 170b 13       		.uleb128 0x13
 5512 170c 2E0E0000 		.4byte	.LASF391
 5513 1710 01       		.byte	0x1
 5514 1711 13       		.uleb128 0x13
 5515 1712 8B160000 		.4byte	.LASF392
 5516 1716 02       		.byte	0x2
 5517 1717 13       		.uleb128 0x13
 5518 1718 DC000000 		.4byte	.LASF393
 5519 171c 04       		.byte	0x4
 5520 171d 13       		.uleb128 0x13
 5521 171e 19090000 		.4byte	.LASF394
 5522 1722 08       		.byte	0x8
 5523 1723 13       		.uleb128 0x13
 5524 1724 5A180000 		.4byte	.LASF395
 5525 1728 10       		.byte	0x10
 5526 1729 13       		.uleb128 0x13
 5527 172a 831E0000 		.4byte	.LASF396
 5528 172e 20       		.byte	0x20
 5529 172f 13       		.uleb128 0x13
 5530 1730 4E210000 		.4byte	.LASF397
 5531 1734 40       		.byte	0x40
 5532 1735 13       		.uleb128 0x13
 5533 1736 55050000 		.4byte	.LASF398
 5534 173a 80       		.byte	0x80
 5535 173b 19       		.uleb128 0x19
 5536 173c 2C070000 		.4byte	.LASF399
 5537 1740 0010     		.2byte	0x1000
 5538 1742 19       		.uleb128 0x19
 5539 1743 3C070000 		.4byte	.LASF400
 5540 1747 0020     		.2byte	0x2000
ARM GAS  C:\Users\haske\AppData\Local\Temp\ccSAQWsX.s 			page 129


 5541 1749 19       		.uleb128 0x19
 5542 174a 4C070000 		.4byte	.LASF401
 5543 174e 0040     		.2byte	0x4000
 5544 1750 19       		.uleb128 0x19
 5545 1751 5C070000 		.4byte	.LASF402
 5546 1755 0080     		.2byte	0x8000
 5547 1757 19       		.uleb128 0x19
 5548 1758 44180000 		.4byte	.LASF403
 5549 175c FFFF     		.2byte	0xffff
 5550 175e 00       		.byte	0
 5551 175f 02       		.uleb128 0x2
 5552 1760 0F180000 		.4byte	.LASF404
 5553 1764 0E       		.byte	0xe
 5554 1765 3C       		.byte	0x3c
 5555 1766 CE000000 		.4byte	0xce
 5556 176a 12       		.uleb128 0x12
 5557 176b 04       		.byte	0x4
 5558 176c A6000000 		.4byte	0xa6
 5559 1770 0E       		.byte	0xe
 5560 1771 44       		.byte	0x44
 5561 1772 CE170000 		.4byte	0x17ce
 5562 1776 13       		.uleb128 0x13
 5563 1777 82020000 		.4byte	.LASF405
 5564 177b 00       		.byte	0
 5565 177c 23       		.uleb128 0x23
 5566 177d C5160000 		.4byte	.LASF406
 5567 1781 00000100 		.4byte	0x10000
 5568 1785 23       		.uleb128 0x23
 5569 1786 930C0000 		.4byte	.LASF407
 5570 178a 00000200 		.4byte	0x20000
 5571 178e 23       		.uleb128 0x23
 5572 178f 73100000 		.4byte	.LASF408
 5573 1793 00000300 		.4byte	0x30000
 5574 1797 23       		.uleb128 0x23
 5575 1798 E80C0000 		.4byte	.LASF409
 5576 179c 00000400 		.4byte	0x40000
 5577 17a0 23       		.uleb128 0x23
 5578 17a1 D40A0000 		.4byte	.LASF410
 5579 17a5 00000500 		.4byte	0x50000
 5580 17a9 23       		.uleb128 0x23
 5581 17aa AF070000 		.4byte	.LASF411
 5582 17ae 00000600 		.4byte	0x60000
 5583 17b2 23       		.uleb128 0x23
 5584 17b3 39240000 		.4byte	.LASF412
 5585 17b7 00000700 		.4byte	0x70000
 5586 17bb 23       		.uleb128 0x23
 5587 17bc EF000000 		.4byte	.LASF413
 5588 17c0 00000800 		.4byte	0x80000
 5589 17c4 23       		.uleb128 0x23
 5590 17c5 A6210000 		.4byte	.LASF414
 5591 17c9 00000F00 		.4byte	0xf0000
 5592 17cd 00       		.byte	0
 5593 17ce 02       		.uleb128 0x2
 5594 17cf BE020000 		.4byte	.LASF415
 5595 17d3 0E       		.byte	0xe
 5596 17d4 7D       		.byte	0x7d
 5597 17d5 E4000000 		.4byte	0xe4
ARM GAS  C:\Users\haske\AppData\Local\Temp\ccSAQWsX.s 			page 130


 5598 17d9 02       		.uleb128 0x2
 5599 17da 121A0000 		.4byte	.LASF416
 5600 17de 1A       		.byte	0x1a
 5601 17df 26       		.byte	0x26
 5602 17e0 B8000000 		.4byte	0xb8
 5603 17e4 02       		.uleb128 0x2
 5604 17e5 11100000 		.4byte	.LASF417
 5605 17e9 1A       		.byte	0x1a
 5606 17ea 30       		.byte	0x30
 5607 17eb B8000000 		.4byte	0xb8
 5608 17ef 0C       		.uleb128 0xc
 5609 17f0 08       		.byte	0x8
 5610 17f1 1B       		.byte	0x1b
 5611 17f2 27       		.byte	0x27
 5612 17f3 31180000 		.4byte	0x1831
 5613 17f7 09       		.uleb128 0x9
 5614 17f8 CE1D0000 		.4byte	.LASF418
 5615 17fc 1B       		.byte	0x1b
 5616 17fd 28       		.byte	0x28
 5617 17fe 31180000 		.4byte	0x1831
 5618 1802 00       		.byte	0
 5619 1803 0A       		.uleb128 0xa
 5620 1804 E20A0000 		.4byte	.LASF419
 5621 1808 1B       		.byte	0x1b
 5622 1809 29       		.byte	0x29
 5623 180a E4000000 		.4byte	0xe4
 5624 180e 04       		.byte	0x4
 5625 180f 18       		.byte	0x18
 5626 1810 08       		.byte	0x8
 5627 1811 04       		.byte	0x4
 5628 1812 0A       		.uleb128 0xa
 5629 1813 EB0A0000 		.4byte	.LASF420
 5630 1817 1B       		.byte	0x1b
 5631 1818 2A       		.byte	0x2a
 5632 1819 E4000000 		.4byte	0xe4
 5633 181d 04       		.byte	0x4
 5634 181e 01       		.byte	0x1
 5635 181f 07       		.byte	0x7
 5636 1820 04       		.byte	0x4
 5637 1821 0A       		.uleb128 0xa
 5638 1822 4D0A0000 		.4byte	.LASF421
 5639 1826 1B       		.byte	0x1b
 5640 1827 2B       		.byte	0x2b
 5641 1828 E4000000 		.4byte	0xe4
 5642 182c 04       		.byte	0x4
 5643 182d 01       		.byte	0x1
 5644 182e 06       		.byte	0x6
 5645 182f 04       		.byte	0x4
 5646 1830 00       		.byte	0
 5647 1831 05       		.uleb128 0x5
 5648 1832 04       		.byte	0x4
 5649 1833 AB080000 		.4byte	0x8ab
 5650 1837 02       		.uleb128 0x2
 5651 1838 FF160000 		.4byte	.LASF422
 5652 183c 1B       		.byte	0x1b
 5653 183d 2C       		.byte	0x2c
 5654 183e EF170000 		.4byte	0x17ef
ARM GAS  C:\Users\haske\AppData\Local\Temp\ccSAQWsX.s 			page 131


 5655 1842 08       		.uleb128 0x8
 5656 1843 40080000 		.4byte	.LASF423
 5657 1847 1C       		.byte	0x1c
 5658 1848 1C       		.byte	0x1c
 5659 1849 31       		.byte	0x31
 5660 184a D0180000 		.4byte	0x18d0
 5661 184e 09       		.uleb128 0x9
 5662 184f 70120000 		.4byte	.LASF424
 5663 1853 1C       		.byte	0x1c
 5664 1854 32       		.byte	0x32
 5665 1855 D0180000 		.4byte	0x18d0
 5666 1859 00       		.byte	0
 5667 185a 09       		.uleb128 0x9
 5668 185b E0160000 		.4byte	.LASF425
 5669 185f 1C       		.byte	0x1c
 5670 1860 33       		.byte	0x33
 5671 1861 73190000 		.4byte	0x1973
 5672 1865 04       		.byte	0x4
 5673 1866 09       		.uleb128 0x9
 5674 1867 DD240000 		.4byte	.LASF426
 5675 186b 1C       		.byte	0x1c
 5676 186c 34       		.byte	0x34
 5677 186d 73190000 		.4byte	0x1973
 5678 1871 08       		.byte	0x8
 5679 1872 09       		.uleb128 0x9
 5680 1873 3A180000 		.4byte	.LASF26
 5681 1877 1C       		.byte	0x1c
 5682 1878 36       		.byte	0x36
 5683 1879 74010000 		.4byte	0x174
 5684 187d 0C       		.byte	0xc
 5685 187e 09       		.uleb128 0x9
 5686 187f B90B0000 		.4byte	.LASF427
 5687 1883 1C       		.byte	0x1c
 5688 1884 38       		.byte	0x38
 5689 1885 89190000 		.4byte	0x1989
 5690 1889 10       		.byte	0x10
 5691 188a 09       		.uleb128 0x9
 5692 188b D8170000 		.4byte	.LASF428
 5693 188f 1C       		.byte	0x1c
 5694 1890 3A       		.byte	0x3a
 5695 1891 A1010000 		.4byte	0x1a1
 5696 1895 14       		.byte	0x14
 5697 1896 09       		.uleb128 0x9
 5698 1897 0E080000 		.4byte	.LASF429
 5699 189b 1C       		.byte	0x1c
 5700 189c 3B       		.byte	0x3b
 5701 189d A1010000 		.4byte	0x1a1
 5702 18a1 16       		.byte	0x16
 5703 18a2 0A       		.uleb128 0xa
 5704 18a3 F6150000 		.4byte	.LASF430
 5705 18a7 1C       		.byte	0x1c
 5706 18a8 3C       		.byte	0x3c
 5707 18a9 E4000000 		.4byte	0xe4
 5708 18ad 04       		.byte	0x4
 5709 18ae 02       		.byte	0x2
 5710 18af 1E       		.byte	0x1e
 5711 18b0 18       		.byte	0x18
ARM GAS  C:\Users\haske\AppData\Local\Temp\ccSAQWsX.s 			page 132


 5712 18b1 0A       		.uleb128 0xa
 5713 18b2 A9180000 		.4byte	.LASF431
 5714 18b6 1C       		.byte	0x1c
 5715 18b7 3D       		.byte	0x3d
 5716 18b8 E4000000 		.4byte	0xe4
 5717 18bc 04       		.byte	0x4
 5718 18bd 02       		.byte	0x2
 5719 18be 1C       		.byte	0x1c
 5720 18bf 18       		.byte	0x18
 5721 18c0 0A       		.uleb128 0xa
 5722 18c1 AD120000 		.4byte	.LASF432
 5723 18c5 1C       		.byte	0x1c
 5724 18c6 3E       		.byte	0x3e
 5725 18c7 E4000000 		.4byte	0xe4
 5726 18cb 04       		.byte	0x4
 5727 18cc 10       		.byte	0x10
 5728 18cd 0C       		.byte	0xc
 5729 18ce 18       		.byte	0x18
 5730 18cf 00       		.byte	0
 5731 18d0 05       		.uleb128 0x5
 5732 18d1 04       		.byte	0x4
 5733 18d2 D6180000 		.4byte	0x18d6
 5734 18d6 0F       		.uleb128 0xf
 5735 18d7 42180000 		.4byte	0x1842
 5736 18db 05       		.uleb128 0x5
 5737 18dc 04       		.byte	0x4
 5738 18dd E1180000 		.4byte	0x18e1
 5739 18e1 08       		.uleb128 0x8
 5740 18e2 0D090000 		.4byte	.LASF433
 5741 18e6 1C       		.byte	0x1c
 5742 18e7 1D       		.byte	0x1d
 5743 18e8 5E       		.byte	0x5e
 5744 18e9 63190000 		.4byte	0x1963
 5745 18ed 09       		.uleb128 0x9
 5746 18ee EF090000 		.4byte	.LASF434
 5747 18f2 1D       		.byte	0x1d
 5748 18f3 5F       		.byte	0x5f
 5749 18f4 C2080000 		.4byte	0x8c2
 5750 18f8 00       		.byte	0
 5751 18f9 09       		.uleb128 0x9
 5752 18fa 431B0000 		.4byte	.LASF435
 5753 18fe 1D       		.byte	0x1d
 5754 18ff 60       		.byte	0x60
 5755 1900 C2080000 		.4byte	0x8c2
 5756 1904 04       		.byte	0x4
 5757 1905 09       		.uleb128 0x9
 5758 1906 3F0E0000 		.4byte	.LASF436
 5759 190a 1D       		.byte	0x1d
 5760 190b 61       		.byte	0x61
 5761 190c C11A0000 		.4byte	0x1ac1
 5762 1910 08       		.byte	0x8
 5763 1911 09       		.uleb128 0x9
 5764 1912 3A180000 		.4byte	.LASF26
 5765 1916 1D       		.byte	0x1d
 5766 1917 62       		.byte	0x62
 5767 1918 74010000 		.4byte	0x174
 5768 191c 0C       		.byte	0xc
ARM GAS  C:\Users\haske\AppData\Local\Temp\ccSAQWsX.s 			page 133


 5769 191d 09       		.uleb128 0x9
 5770 191e 470D0000 		.4byte	.LASF437
 5771 1922 1D       		.byte	0x1d
 5772 1923 63       		.byte	0x63
 5773 1924 74010000 		.4byte	0x174
 5774 1928 10       		.byte	0x10
 5775 1929 09       		.uleb128 0x9
 5776 192a 0E260000 		.4byte	.LASF438
 5777 192e 1D       		.byte	0x1d
 5778 192f 64       		.byte	0x64
 5779 1930 DB180000 		.4byte	0x18db
 5780 1934 14       		.byte	0x14
 5781 1935 0A       		.uleb128 0xa
 5782 1936 EB240000 		.4byte	.LASF439
 5783 193a 1D       		.byte	0x1d
 5784 193b 65       		.byte	0x65
 5785 193c B8000000 		.4byte	0xb8
 5786 1940 01       		.byte	0x1
 5787 1941 01       		.byte	0x1
 5788 1942 07       		.byte	0x7
 5789 1943 18       		.byte	0x18
 5790 1944 0A       		.uleb128 0xa
 5791 1945 90060000 		.4byte	.LASF440
 5792 1949 1D       		.byte	0x1d
 5793 194a 66       		.byte	0x66
 5794 194b B8000000 		.4byte	0xb8
 5795 194f 01       		.byte	0x1
 5796 1950 01       		.byte	0x1
 5797 1951 06       		.byte	0x6
 5798 1952 18       		.byte	0x18
 5799 1953 0A       		.uleb128 0xa
 5800 1954 1D130000 		.4byte	.LASF441
 5801 1958 1D       		.byte	0x1d
 5802 1959 67       		.byte	0x67
 5803 195a B8000000 		.4byte	0xb8
 5804 195e 01       		.byte	0x1
 5805 195f 01       		.byte	0x1
 5806 1960 05       		.byte	0x5
 5807 1961 18       		.byte	0x18
 5808 1962 00       		.byte	0
 5809 1963 06       		.uleb128 0x6
 5810 1964 73190000 		.4byte	0x1973
 5811 1968 07       		.uleb128 0x7
 5812 1969 D0180000 		.4byte	0x18d0
 5813 196d 07       		.uleb128 0x7
 5814 196e C2080000 		.4byte	0x8c2
 5815 1972 00       		.byte	0
 5816 1973 05       		.uleb128 0x5
 5817 1974 04       		.byte	0x4
 5818 1975 63190000 		.4byte	0x1963
 5819 1979 06       		.uleb128 0x6
 5820 197a 89190000 		.4byte	0x1989
 5821 197e 07       		.uleb128 0x7
 5822 197f D0180000 		.4byte	0x18d0
 5823 1983 07       		.uleb128 0x7
 5824 1984 DB180000 		.4byte	0x18db
 5825 1988 00       		.byte	0
ARM GAS  C:\Users\haske\AppData\Local\Temp\ccSAQWsX.s 			page 134


 5826 1989 05       		.uleb128 0x5
 5827 198a 04       		.byte	0x4
 5828 198b 79190000 		.4byte	0x1979
 5829 198f 02       		.uleb128 0x2
 5830 1990 FD0B0000 		.4byte	.LASF442
 5831 1994 1C       		.byte	0x1c
 5832 1995 3F       		.byte	0x3f
 5833 1996 42180000 		.4byte	0x1842
 5834 199a 12       		.uleb128 0x12
 5835 199b 01       		.byte	0x1
 5836 199c 42000000 		.4byte	0x42
 5837 19a0 1D       		.byte	0x1d
 5838 19a1 20       		.byte	0x20
 5839 19a2 C11A0000 		.4byte	0x1ac1
 5840 19a6 13       		.uleb128 0x13
 5841 19a7 250A0000 		.4byte	.LASF443
 5842 19ab 00       		.byte	0
 5843 19ac 13       		.uleb128 0x13
 5844 19ad 6B1D0000 		.4byte	.LASF444
 5845 19b1 01       		.byte	0x1
 5846 19b2 13       		.uleb128 0x13
 5847 19b3 41110000 		.4byte	.LASF445
 5848 19b7 02       		.byte	0x2
 5849 19b8 13       		.uleb128 0x13
 5850 19b9 3C1A0000 		.4byte	.LASF446
 5851 19bd 03       		.byte	0x3
 5852 19be 13       		.uleb128 0x13
 5853 19bf F00E0000 		.4byte	.LASF447
 5854 19c3 04       		.byte	0x4
 5855 19c4 13       		.uleb128 0x13
 5856 19c5 27250000 		.4byte	.LASF448
 5857 19c9 05       		.byte	0x5
 5858 19ca 13       		.uleb128 0x13
 5859 19cb 98050000 		.4byte	.LASF449
 5860 19cf 06       		.byte	0x6
 5861 19d0 13       		.uleb128 0x13
 5862 19d1 16250000 		.4byte	.LASF450
 5863 19d5 07       		.byte	0x7
 5864 19d6 13       		.uleb128 0x13
 5865 19d7 6C0A0000 		.4byte	.LASF451
 5866 19db 08       		.byte	0x8
 5867 19dc 13       		.uleb128 0x13
 5868 19dd B8190000 		.4byte	.LASF452
 5869 19e1 09       		.byte	0x9
 5870 19e2 13       		.uleb128 0x13
 5871 19e3 B70F0000 		.4byte	.LASF453
 5872 19e7 0A       		.byte	0xa
 5873 19e8 13       		.uleb128 0x13
 5874 19e9 50080000 		.4byte	.LASF454
 5875 19ed 0B       		.byte	0xb
 5876 19ee 13       		.uleb128 0x13
 5877 19ef C8120000 		.4byte	.LASF455
 5878 19f3 0C       		.byte	0xc
 5879 19f4 13       		.uleb128 0x13
 5880 19f5 9A250000 		.4byte	.LASF456
 5881 19f9 0D       		.byte	0xd
 5882 19fa 13       		.uleb128 0x13
ARM GAS  C:\Users\haske\AppData\Local\Temp\ccSAQWsX.s 			page 135


 5883 19fb BD050000 		.4byte	.LASF457
 5884 19ff 0E       		.byte	0xe
 5885 1a00 13       		.uleb128 0x13
 5886 1a01 5C010000 		.4byte	.LASF458
 5887 1a05 0F       		.byte	0xf
 5888 1a06 13       		.uleb128 0x13
 5889 1a07 AE030000 		.4byte	.LASF459
 5890 1a0b 10       		.byte	0x10
 5891 1a0c 13       		.uleb128 0x13
 5892 1a0d A91D0000 		.4byte	.LASF460
 5893 1a11 11       		.byte	0x11
 5894 1a12 13       		.uleb128 0x13
 5895 1a13 81130000 		.4byte	.LASF461
 5896 1a17 12       		.byte	0x12
 5897 1a18 13       		.uleb128 0x13
 5898 1a19 F2060000 		.4byte	.LASF462
 5899 1a1d 13       		.byte	0x13
 5900 1a1e 13       		.uleb128 0x13
 5901 1a1f B61E0000 		.4byte	.LASF463
 5902 1a23 14       		.byte	0x14
 5903 1a24 13       		.uleb128 0x13
 5904 1a25 07050000 		.4byte	.LASF464
 5905 1a29 15       		.byte	0x15
 5906 1a2a 13       		.uleb128 0x13
 5907 1a2b FF230000 		.4byte	.LASF465
 5908 1a2f 16       		.byte	0x16
 5909 1a30 13       		.uleb128 0x13
 5910 1a31 D6220000 		.4byte	.LASF466
 5911 1a35 17       		.byte	0x17
 5912 1a36 13       		.uleb128 0x13
 5913 1a37 BD030000 		.4byte	.LASF467
 5914 1a3b 18       		.byte	0x18
 5915 1a3c 13       		.uleb128 0x13
 5916 1a3d 18230000 		.4byte	.LASF468
 5917 1a41 19       		.byte	0x19
 5918 1a42 13       		.uleb128 0x13
 5919 1a43 A5200000 		.4byte	.LASF469
 5920 1a47 1A       		.byte	0x1a
 5921 1a48 13       		.uleb128 0x13
 5922 1a49 80120000 		.4byte	.LASF470
 5923 1a4d 1B       		.byte	0x1b
 5924 1a4e 13       		.uleb128 0x13
 5925 1a4f 07000000 		.4byte	.LASF471
 5926 1a53 1C       		.byte	0x1c
 5927 1a54 13       		.uleb128 0x13
 5928 1a55 0F170000 		.4byte	.LASF472
 5929 1a59 1D       		.byte	0x1d
 5930 1a5a 13       		.uleb128 0x13
 5931 1a5b E8180000 		.4byte	.LASF473
 5932 1a5f 1E       		.byte	0x1e
 5933 1a60 13       		.uleb128 0x13
 5934 1a61 CB1A0000 		.4byte	.LASF474
 5935 1a65 1F       		.byte	0x1f
 5936 1a66 13       		.uleb128 0x13
 5937 1a67 5B0D0000 		.4byte	.LASF475
 5938 1a6b 20       		.byte	0x20
 5939 1a6c 13       		.uleb128 0x13
ARM GAS  C:\Users\haske\AppData\Local\Temp\ccSAQWsX.s 			page 136


 5940 1a6d CC020000 		.4byte	.LASF476
 5941 1a71 21       		.byte	0x21
 5942 1a72 13       		.uleb128 0x13
 5943 1a73 62150000 		.4byte	.LASF477
 5944 1a77 22       		.byte	0x22
 5945 1a78 13       		.uleb128 0x13
 5946 1a79 8A0E0000 		.4byte	.LASF478
 5947 1a7d 23       		.byte	0x23
 5948 1a7e 13       		.uleb128 0x13
 5949 1a7f A0060000 		.4byte	.LASF479
 5950 1a83 24       		.byte	0x24
 5951 1a84 13       		.uleb128 0x13
 5952 1a85 3C020000 		.4byte	.LASF480
 5953 1a89 25       		.byte	0x25
 5954 1a8a 13       		.uleb128 0x13
 5955 1a8b 8D0F0000 		.4byte	.LASF481
 5956 1a8f 26       		.byte	0x26
 5957 1a90 13       		.uleb128 0x13
 5958 1a91 64060000 		.4byte	.LASF482
 5959 1a95 27       		.byte	0x27
 5960 1a96 13       		.uleb128 0x13
 5961 1a97 61170000 		.4byte	.LASF483
 5962 1a9b 28       		.byte	0x28
 5963 1a9c 13       		.uleb128 0x13
 5964 1a9d E9230000 		.4byte	.LASF484
 5965 1aa1 29       		.byte	0x29
 5966 1aa2 13       		.uleb128 0x13
 5967 1aa3 6B110000 		.4byte	.LASF485
 5968 1aa7 2A       		.byte	0x2a
 5969 1aa8 13       		.uleb128 0x13
 5970 1aa9 57040000 		.4byte	.LASF486
 5971 1aad 2B       		.byte	0x2b
 5972 1aae 13       		.uleb128 0x13
 5973 1aaf 15210000 		.4byte	.LASF487
 5974 1ab3 2C       		.byte	0x2c
 5975 1ab4 13       		.uleb128 0x13
 5976 1ab5 FB220000 		.4byte	.LASF488
 5977 1ab9 2D       		.byte	0x2d
 5978 1aba 13       		.uleb128 0x13
 5979 1abb 200B0000 		.4byte	.LASF489
 5980 1abf 80       		.byte	0x80
 5981 1ac0 00       		.byte	0
 5982 1ac1 02       		.uleb128 0x2
 5983 1ac2 2A160000 		.4byte	.LASF490
 5984 1ac6 1D       		.byte	0x1d
 5985 1ac7 5C       		.byte	0x5c
 5986 1ac8 9A190000 		.4byte	0x199a
 5987 1acc 02       		.uleb128 0x2
 5988 1acd 7D140000 		.4byte	.LASF491
 5989 1ad1 19       		.byte	0x19
 5990 1ad2 34       		.byte	0x34
 5991 1ad3 D71A0000 		.4byte	0x1ad7
 5992 1ad7 05       		.uleb128 0x5
 5993 1ad8 04       		.byte	0x4
 5994 1ad9 DD1A0000 		.4byte	0x1add
 5995 1add 06       		.uleb128 0x6
 5996 1ade E81A0000 		.4byte	0x1ae8
ARM GAS  C:\Users\haske\AppData\Local\Temp\ccSAQWsX.s 			page 137


 5997 1ae2 07       		.uleb128 0x7
 5998 1ae3 F3160000 		.4byte	0x16f3
 5999 1ae7 00       		.byte	0
 6000 1ae8 02       		.uleb128 0x2
 6001 1ae9 D70B0000 		.4byte	.LASF492
 6002 1aed 19       		.byte	0x19
 6003 1aee 35       		.byte	0x35
 6004 1aef F31A0000 		.4byte	0x1af3
 6005 1af3 05       		.uleb128 0x5
 6006 1af4 04       		.byte	0x4
 6007 1af5 F91A0000 		.4byte	0x1af9
 6008 1af9 06       		.uleb128 0x6
 6009 1afa 091B0000 		.4byte	0x1b09
 6010 1afe 07       		.uleb128 0x7
 6011 1aff F3160000 		.4byte	0x16f3
 6012 1b03 07       		.uleb128 0x7
 6013 1b04 4A030000 		.4byte	0x34a
 6014 1b08 00       		.byte	0
 6015 1b09 02       		.uleb128 0x2
 6016 1b0a E4050000 		.4byte	.LASF493
 6017 1b0e 19       		.byte	0x19
 6018 1b0f 4E       		.byte	0x4e
 6019 1b10 6E160000 		.4byte	0x166e
 6020 1b14 0C       		.uleb128 0xc
 6021 1b15 1C       		.byte	0x1c
 6022 1b16 0E       		.byte	0xe
 6023 1b17 9B       		.byte	0x9b
 6024 1b18 CB1B0000 		.4byte	0x1bcb
 6025 1b1c 09       		.uleb128 0x9
 6026 1b1d 74180000 		.4byte	.LASF494
 6027 1b21 0E       		.byte	0xe
 6028 1b22 9C       		.byte	0x9c
 6029 1b23 37160000 		.4byte	0x1637
 6030 1b27 00       		.byte	0
 6031 1b28 09       		.uleb128 0x9
 6032 1b29 36080000 		.4byte	.LASF495
 6033 1b2d 0E       		.byte	0xe
 6034 1b2e 9D       		.byte	0x9d
 6035 1b2f E4000000 		.4byte	0xe4
 6036 1b33 04       		.byte	0x4
 6037 1b34 09       		.uleb128 0x9
 6038 1b35 350C0000 		.4byte	.LASF496
 6039 1b39 0E       		.byte	0xe
 6040 1b3a 9E       		.byte	0x9e
 6041 1b3b CB1B0000 		.4byte	0x1bcb
 6042 1b3f 08       		.byte	0x8
 6043 1b40 09       		.uleb128 0x9
 6044 1b41 D41B0000 		.4byte	.LASF497
 6045 1b45 0E       		.byte	0xe
 6046 1b46 A0       		.byte	0xa0
 6047 1b47 D61B0000 		.4byte	0x1bd6
 6048 1b4b 0C       		.byte	0xc
 6049 1b4c 09       		.uleb128 0x9
 6050 1b4d 611F0000 		.4byte	.LASF498
 6051 1b51 0E       		.byte	0xe
 6052 1b52 A1       		.byte	0xa1
 6053 1b53 C9010000 		.4byte	0x1c9
ARM GAS  C:\Users\haske\AppData\Local\Temp\ccSAQWsX.s 			page 138


 6054 1b57 10       		.byte	0x10
 6055 1b58 09       		.uleb128 0x9
 6056 1b59 D7130000 		.4byte	.LASF499
 6057 1b5d 0E       		.byte	0xe
 6058 1b5e A3       		.byte	0xa3
 6059 1b5f A1010000 		.4byte	0x1a1
 6060 1b63 14       		.byte	0x14
 6061 1b64 09       		.uleb128 0x9
 6062 1b65 6D230000 		.4byte	.LASF500
 6063 1b69 0E       		.byte	0xe
 6064 1b6a A4       		.byte	0xa4
 6065 1b6b A1010000 		.4byte	0x1a1
 6066 1b6f 16       		.byte	0x16
 6067 1b70 0A       		.uleb128 0xa
 6068 1b71 3F210000 		.4byte	.LASF501
 6069 1b75 0E       		.byte	0xe
 6070 1b76 A6       		.byte	0xa6
 6071 1b77 D9170000 		.4byte	0x17d9
 6072 1b7b 01       		.byte	0x1
 6073 1b7c 02       		.byte	0x2
 6074 1b7d 06       		.byte	0x6
 6075 1b7e 18       		.byte	0x18
 6076 1b7f 0A       		.uleb128 0xa
 6077 1b80 AA1C0000 		.4byte	.LASF502
 6078 1b84 0E       		.byte	0xe
 6079 1b85 A7       		.byte	0xa7
 6080 1b86 E4170000 		.4byte	0x17e4
 6081 1b8a 01       		.byte	0x1
 6082 1b8b 02       		.byte	0x2
 6083 1b8c 04       		.byte	0x4
 6084 1b8d 18       		.byte	0x18
 6085 1b8e 0A       		.uleb128 0xa
 6086 1b8f B81C0000 		.4byte	.LASF503
 6087 1b93 0E       		.byte	0xe
 6088 1b94 A8       		.byte	0xa8
 6089 1b95 E4170000 		.4byte	0x17e4
 6090 1b99 01       		.byte	0x1
 6091 1b9a 02       		.byte	0x2
 6092 1b9b 02       		.byte	0x2
 6093 1b9c 18       		.byte	0x18
 6094 1b9d 0A       		.uleb128 0xa
 6095 1b9e 60110000 		.4byte	.LASF504
 6096 1ba2 0E       		.byte	0xe
 6097 1ba3 A9       		.byte	0xa9
 6098 1ba4 14020000 		.4byte	0x214
 6099 1ba8 01       		.byte	0x1
 6100 1ba9 04       		.byte	0x4
 6101 1baa 04       		.byte	0x4
 6102 1bab 19       		.byte	0x19
 6103 1bac 0A       		.uleb128 0xa
 6104 1bad 4B190000 		.4byte	.LASF505
 6105 1bb1 0E       		.byte	0xe
 6106 1bb2 AA       		.byte	0xaa
 6107 1bb3 B8000000 		.4byte	0xb8
 6108 1bb7 01       		.byte	0x1
 6109 1bb8 06       		.byte	0x6
 6110 1bb9 02       		.byte	0x2
ARM GAS  C:\Users\haske\AppData\Local\Temp\ccSAQWsX.s 			page 139


 6111 1bba 1A       		.byte	0x1a
 6112 1bbb 0A       		.uleb128 0xa
 6113 1bbc 60080000 		.4byte	.LASF506
 6114 1bc0 0E       		.byte	0xe
 6115 1bc1 AB       		.byte	0xab
 6116 1bc2 B8000000 		.4byte	0xb8
 6117 1bc6 01       		.byte	0x1
 6118 1bc7 02       		.byte	0x2
 6119 1bc8 00       		.byte	0
 6120 1bc9 1A       		.byte	0x1a
 6121 1bca 00       		.byte	0
 6122 1bcb 05       		.uleb128 0x5
 6123 1bcc 04       		.byte	0x4
 6124 1bcd 091B0000 		.4byte	0x1b09
 6125 1bd1 24       		.uleb128 0x24
 6126 1bd2 DD110000 		.4byte	.LASF625
 6127 1bd6 05       		.uleb128 0x5
 6128 1bd7 04       		.byte	0x4
 6129 1bd8 D11B0000 		.4byte	0x1bd1
 6130 1bdc 02       		.uleb128 0x2
 6131 1bdd 46030000 		.4byte	.LASF507
 6132 1be1 0E       		.byte	0xe
 6133 1be2 AC       		.byte	0xac
 6134 1be3 141B0000 		.4byte	0x1b14
 6135 1be7 05       		.uleb128 0x5
 6136 1be8 04       		.byte	0x4
 6137 1be9 ED1B0000 		.4byte	0x1bed
 6138 1bed 0F       		.uleb128 0xf
 6139 1bee 8F190000 		.4byte	0x198f
 6140 1bf2 05       		.uleb128 0x5
 6141 1bf3 04       		.byte	0x4
 6142 1bf4 DC1B0000 		.4byte	0x1bdc
 6143 1bf8 05       		.uleb128 0x5
 6144 1bf9 04       		.byte	0x4
 6145 1bfa 37180000 		.4byte	0x1837
 6146 1bfe 02       		.uleb128 0x2
 6147 1bff 981D0000 		.4byte	.LASF508
 6148 1c03 0E       		.byte	0xe
 6149 1c04 BF       		.byte	0xbf
 6150 1c05 C8080000 		.4byte	0x8c8
 6151 1c09 02       		.uleb128 0x2
 6152 1c0a F9080000 		.4byte	.LASF509
 6153 1c0e 18       		.byte	0x18
 6154 1c0f 1D       		.byte	0x1d
 6155 1c10 141C0000 		.4byte	0x1c14
 6156 1c14 05       		.uleb128 0x5
 6157 1c15 04       		.byte	0x4
 6158 1c16 1A1C0000 		.4byte	0x1c1a
 6159 1c1a 06       		.uleb128 0x6
 6160 1c1b 2A1C0000 		.4byte	0x1c2a
 6161 1c1f 07       		.uleb128 0x7
 6162 1c20 31160000 		.4byte	0x1631
 6163 1c24 07       		.uleb128 0x7
 6164 1c25 2A1C0000 		.4byte	0x1c2a
 6165 1c29 00       		.byte	0
 6166 1c2a 05       		.uleb128 0x5
 6167 1c2b 04       		.byte	0x4
ARM GAS  C:\Users\haske\AppData\Local\Temp\ccSAQWsX.s 			page 140


 6168 1c2c FE1B0000 		.4byte	0x1bfe
 6169 1c30 02       		.uleb128 0x2
 6170 1c31 4A050000 		.4byte	.LASF510
 6171 1c35 18       		.byte	0x18
 6172 1c36 2A       		.byte	0x2a
 6173 1c37 AC150000 		.4byte	0x15ac
 6174 1c3b 12       		.uleb128 0x12
 6175 1c3c 01       		.byte	0x1
 6176 1c3d 42000000 		.4byte	0x42
 6177 1c41 1E       		.byte	0x1e
 6178 1c42 21       		.byte	0x21
 6179 1c43 5A1C0000 		.4byte	0x1c5a
 6180 1c47 13       		.uleb128 0x13
 6181 1c48 5A230000 		.4byte	.LASF511
 6182 1c4c 00       		.byte	0
 6183 1c4d 13       		.uleb128 0x13
 6184 1c4e C4000000 		.4byte	.LASF512
 6185 1c52 01       		.byte	0x1
 6186 1c53 13       		.uleb128 0x13
 6187 1c54 F5040000 		.4byte	.LASF513
 6188 1c58 02       		.byte	0x2
 6189 1c59 00       		.byte	0
 6190 1c5a 12       		.uleb128 0x12
 6191 1c5b 01       		.byte	0x1
 6192 1c5c 42000000 		.4byte	0x42
 6193 1c60 1F       		.byte	0x1f
 6194 1c61 17       		.byte	0x17
 6195 1c62 911C0000 		.4byte	0x1c91
 6196 1c66 13       		.uleb128 0x13
 6197 1c67 070B0000 		.4byte	.LASF514
 6198 1c6b 00       		.byte	0
 6199 1c6c 13       		.uleb128 0x13
 6200 1c6d 6C070000 		.4byte	.LASF515
 6201 1c71 01       		.byte	0x1
 6202 1c72 13       		.uleb128 0x13
 6203 1c73 F31B0000 		.4byte	.LASF516
 6204 1c77 02       		.byte	0x2
 6205 1c78 13       		.uleb128 0x13
 6206 1c79 D4040000 		.4byte	.LASF517
 6207 1c7d 03       		.byte	0x3
 6208 1c7e 13       		.uleb128 0x13
 6209 1c7f 4B0C0000 		.4byte	.LASF518
 6210 1c83 04       		.byte	0x4
 6211 1c84 13       		.uleb128 0x13
 6212 1c85 79150000 		.4byte	.LASF519
 6213 1c89 05       		.byte	0x5
 6214 1c8a 13       		.uleb128 0x13
 6215 1c8b 6C160000 		.4byte	.LASF520
 6216 1c8f 06       		.byte	0x6
 6217 1c90 00       		.byte	0
 6218 1c91 0C       		.uleb128 0xc
 6219 1c92 88       		.byte	0x88
 6220 1c93 01       		.byte	0x1
 6221 1c94 21       		.byte	0x21
 6222 1c95 651D0000 		.4byte	0x1d65
 6223 1c99 0D       		.uleb128 0xd
 6224 1c9a 73637200 		.ascii	"scr\000"
ARM GAS  C:\Users\haske\AppData\Local\Temp\ccSAQWsX.s 			page 141


 6225 1c9e 01       		.byte	0x1
 6226 1c9f 22       		.byte	0x22
 6227 1ca0 AB080000 		.4byte	0x8ab
 6228 1ca4 00       		.byte	0
 6229 1ca5 09       		.uleb128 0x9
 6230 1ca6 560A0000 		.4byte	.LASF521
 6231 1caa 01       		.byte	0x1
 6232 1cab 23       		.byte	0x23
 6233 1cac AB080000 		.4byte	0x8ab
 6234 1cb0 08       		.byte	0x8
 6235 1cb1 09       		.uleb128 0x9
 6236 1cb2 94230000 		.4byte	.LASF522
 6237 1cb6 01       		.byte	0x1
 6238 1cb7 24       		.byte	0x24
 6239 1cb8 AB080000 		.4byte	0x8ab
 6240 1cbc 10       		.byte	0x10
 6241 1cbd 0D       		.uleb128 0xd
 6242 1cbe 62746E00 		.ascii	"btn\000"
 6243 1cc2 01       		.byte	0x1
 6244 1cc3 25       		.byte	0x25
 6245 1cc4 AB080000 		.4byte	0x8ab
 6246 1cc8 18       		.byte	0x18
 6247 1cc9 0D       		.uleb128 0xd
 6248 1cca 707200   		.ascii	"pr\000"
 6249 1ccd 01       		.byte	0x1
 6250 1cce 26       		.byte	0x26
 6251 1ccf AB080000 		.4byte	0x8ab
 6252 1cd3 20       		.byte	0x20
 6253 1cd4 0D       		.uleb128 0xd
 6254 1cd5 696E7600 		.ascii	"inv\000"
 6255 1cd9 01       		.byte	0x1
 6256 1cda 27       		.byte	0x27
 6257 1cdb AB080000 		.4byte	0x8ab
 6258 1cdf 28       		.byte	0x28
 6259 1ce0 09       		.uleb128 0x9
 6260 1ce1 24060000 		.4byte	.LASF523
 6261 1ce5 01       		.byte	0x1
 6262 1ce6 28       		.byte	0x28
 6263 1ce7 AB080000 		.4byte	0x8ab
 6264 1ceb 30       		.byte	0x30
 6265 1cec 09       		.uleb128 0x9
 6266 1ced 32210000 		.4byte	.LASF524
 6267 1cf1 01       		.byte	0x1
 6268 1cf2 29       		.byte	0x29
 6269 1cf3 AB080000 		.4byte	0x8ab
 6270 1cf7 38       		.byte	0x38
 6271 1cf8 09       		.uleb128 0x9
 6272 1cf9 A70D0000 		.4byte	.LASF525
 6273 1cfd 01       		.byte	0x1
 6274 1cfe 2A       		.byte	0x2a
 6275 1cff AB080000 		.4byte	0x8ab
 6276 1d03 40       		.byte	0x40
 6277 1d04 09       		.uleb128 0x9
 6278 1d05 B5050000 		.4byte	.LASF526
 6279 1d09 01       		.byte	0x1
 6280 1d0a 2B       		.byte	0x2b
 6281 1d0b AB080000 		.4byte	0x8ab
ARM GAS  C:\Users\haske\AppData\Local\Temp\ccSAQWsX.s 			page 142


 6282 1d0f 48       		.byte	0x48
 6283 1d10 09       		.uleb128 0x9
 6284 1d11 631A0000 		.4byte	.LASF527
 6285 1d15 01       		.byte	0x1
 6286 1d16 2C       		.byte	0x2c
 6287 1d17 AB080000 		.4byte	0x8ab
 6288 1d1b 50       		.byte	0x50
 6289 1d1c 09       		.uleb128 0x9
 6290 1d1d 80080000 		.4byte	.LASF528
 6291 1d21 01       		.byte	0x1
 6292 1d22 2D       		.byte	0x2d
 6293 1d23 AB080000 		.4byte	0x8ab
 6294 1d27 58       		.byte	0x58
 6295 1d28 09       		.uleb128 0x9
 6296 1d29 3F1D0000 		.4byte	.LASF529
 6297 1d2d 01       		.byte	0x1
 6298 1d2e 2E       		.byte	0x2e
 6299 1d2f AB080000 		.4byte	0x8ab
 6300 1d33 60       		.byte	0x60
 6301 1d34 09       		.uleb128 0x9
 6302 1d35 53110000 		.4byte	.LASF530
 6303 1d39 01       		.byte	0x1
 6304 1d3a 2F       		.byte	0x2f
 6305 1d3b AB080000 		.4byte	0x8ab
 6306 1d3f 68       		.byte	0x68
 6307 1d40 09       		.uleb128 0x9
 6308 1d41 59020000 		.4byte	.LASF531
 6309 1d45 01       		.byte	0x1
 6310 1d46 30       		.byte	0x30
 6311 1d47 AB080000 		.4byte	0x8ab
 6312 1d4b 70       		.byte	0x70
 6313 1d4c 09       		.uleb128 0x9
 6314 1d4d 8A080000 		.4byte	.LASF532
 6315 1d51 01       		.byte	0x1
 6316 1d52 31       		.byte	0x31
 6317 1d53 AB080000 		.4byte	0x8ab
 6318 1d57 78       		.byte	0x78
 6319 1d58 09       		.uleb128 0x9
 6320 1d59 800E0000 		.4byte	.LASF533
 6321 1d5d 01       		.byte	0x1
 6322 1d5e 33       		.byte	0x33
 6323 1d5f AB080000 		.4byte	0x8ab
 6324 1d63 80       		.byte	0x80
 6325 1d64 00       		.byte	0
 6326 1d65 02       		.uleb128 0x2
 6327 1d66 F30F0000 		.4byte	.LASF534
 6328 1d6a 01       		.byte	0x1
 6329 1d6b 35       		.byte	0x35
 6330 1d6c 911C0000 		.4byte	0x1c91
 6331 1d70 25       		.uleb128 0x25
 6332 1d71 B7060000 		.4byte	.LASF626
 6333 1d75 02       		.byte	0x2
 6334 1d76 4C02     		.2byte	0x24c
 6335 1d78 4E040000 		.4byte	0x44e
 6336 1d7c 03       		.byte	0x3
 6337 1d7d A01D0000 		.4byte	0x1da0
 6338 1d81 26       		.uleb128 0x26
ARM GAS  C:\Users\haske\AppData\Local\Temp\ccSAQWsX.s 			page 143


 6339 1d82 7200     		.ascii	"r\000"
 6340 1d84 02       		.byte	0x2
 6341 1d85 4C02     		.2byte	0x24c
 6342 1d87 B8000000 		.4byte	0xb8
 6343 1d8b 26       		.uleb128 0x26
 6344 1d8c 6700     		.ascii	"g\000"
 6345 1d8e 02       		.byte	0x2
 6346 1d8f 4C02     		.2byte	0x24c
 6347 1d91 B8000000 		.4byte	0xb8
 6348 1d95 26       		.uleb128 0x26
 6349 1d96 6200     		.ascii	"b\000"
 6350 1d98 02       		.byte	0x2
 6351 1d99 4C02     		.2byte	0x24c
 6352 1d9b B8000000 		.4byte	0xb8
 6353 1d9f 00       		.byte	0
 6354 1da0 27       		.uleb128 0x27
 6355 1da1 A80F0000 		.4byte	.LASF535
 6356 1da5 02       		.byte	0x2
 6357 1da6 B102     		.2byte	0x2b1
 6358 1da8 4E040000 		.4byte	0x44e
 6359 1dac 03       		.byte	0x3
 6360 1dad 27       		.uleb128 0x27
 6361 1dae 8A1C0000 		.4byte	.LASF536
 6362 1db2 02       		.byte	0x2
 6363 1db3 B502     		.2byte	0x2b5
 6364 1db5 4E040000 		.4byte	0x44e
 6365 1db9 03       		.byte	0x3
 6366 1dba 28       		.uleb128 0x28
 6367 1dbb 4D1D0000 		.4byte	.LASF539
 6368 1dbf 03       		.byte	0x3
 6369 1dc0 2502     		.2byte	0x225
 6370 1dc2 03       		.byte	0x3
 6371 1dc3 E01D0000 		.4byte	0x1de0
 6372 1dc7 29       		.uleb128 0x29
 6373 1dc8 CE1D0000 		.4byte	.LASF418
 6374 1dcc 03       		.byte	0x3
 6375 1dcd 2502     		.2byte	0x225
 6376 1dcf 31180000 		.4byte	0x1831
 6377 1dd3 29       		.uleb128 0x29
 6378 1dd4 5D0F0000 		.4byte	.LASF194
 6379 1dd8 03       		.byte	0x3
 6380 1dd9 2502     		.2byte	0x225
 6381 1ddb A1010000 		.4byte	0x1a1
 6382 1ddf 00       		.byte	0
 6383 1de0 2A       		.uleb128 0x2a
 6384 1de1 50260000 		.4byte	.LASF537
 6385 1de5 01       		.byte	0x1
 6386 1de6 C8       		.byte	0xc8
 6387 1de7 00000000 		.4byte	.LFB205
 6388 1deb C8090000 		.4byte	.LFE205-.LFB205
 6389 1def 01       		.uleb128 0x1
 6390 1df0 9C       		.byte	0x9c
 6391 1df1 412F0000 		.4byte	0x2f41
 6392 1df5 2B       		.uleb128 0x2b
 6393 1df6 746800   		.ascii	"th\000"
 6394 1df9 01       		.byte	0x1
 6395 1dfa C8       		.byte	0xc8
ARM GAS  C:\Users\haske\AppData\Local\Temp\ccSAQWsX.s 			page 144


 6396 1dfb 412F0000 		.4byte	0x2f41
 6397 1dff 00000000 		.4byte	.LLST0
 6398 1e03 2B       		.uleb128 0x2b
 6399 1e04 6F626A00 		.ascii	"obj\000"
 6400 1e08 01       		.byte	0x1
 6401 1e09 C8       		.byte	0xc8
 6402 1e0a 2A1C0000 		.4byte	0x1c2a
 6403 1e0e 21000000 		.4byte	.LLST1
 6404 1e12 2C       		.uleb128 0x2c
 6405 1e13 38000000 		.4byte	.LBB140
 6406 1e17 EC000000 		.4byte	.LBE140-.LBB140
 6407 1e1b D21F0000 		.4byte	0x1fd2
 6408 1e1f 2D       		.uleb128 0x2d
 6409 1e20 8B200000 		.4byte	.LASF206
 6410 1e24 01       		.byte	0x1
 6411 1e25 D4       		.byte	0xd4
 6412 1e26 2A1C0000 		.4byte	0x1c2a
 6413 1e2a 4D000000 		.4byte	.LLST2
 6414 1e2e 2E       		.uleb128 0x2e
 6415 1e2f 3E000000 		.4byte	.LVL6
 6416 1e33 E63B0000 		.4byte	0x3be6
 6417 1e37 421E0000 		.4byte	0x1e42
 6418 1e3b 2F       		.uleb128 0x2f
 6419 1e3c 01       		.uleb128 0x1
 6420 1e3d 50       		.byte	0x50
 6421 1e3e 02       		.uleb128 0x2
 6422 1e3f 74       		.byte	0x74
 6423 1e40 00       		.sleb128 0
 6424 1e41 00       		.byte	0
 6425 1e42 2E       		.uleb128 0x2e
 6426 1e43 46000000 		.4byte	.LVL8
 6427 1e47 F13B0000 		.4byte	0x3bf1
 6428 1e4b 561E0000 		.4byte	0x1e56
 6429 1e4f 2F       		.uleb128 0x2f
 6430 1e50 01       		.uleb128 0x1
 6431 1e51 50       		.byte	0x50
 6432 1e52 02       		.uleb128 0x2
 6433 1e53 75       		.byte	0x75
 6434 1e54 00       		.sleb128 0
 6435 1e55 00       		.byte	0
 6436 1e56 2E       		.uleb128 0x2e
 6437 1e57 54000000 		.4byte	.LVL9
 6438 1e5b E63B0000 		.4byte	0x3be6
 6439 1e5f 6A1E0000 		.4byte	0x1e6a
 6440 1e63 2F       		.uleb128 0x2f
 6441 1e64 01       		.uleb128 0x1
 6442 1e65 50       		.byte	0x50
 6443 1e66 02       		.uleb128 0x2
 6444 1e67 75       		.byte	0x75
 6445 1e68 00       		.sleb128 0
 6446 1e69 00       		.byte	0
 6447 1e6a 30       		.uleb128 0x30
 6448 1e6b 5A000000 		.4byte	.LVL10
 6449 1e6f F13B0000 		.4byte	0x3bf1
 6450 1e73 2E       		.uleb128 0x2e
 6451 1e74 6C000000 		.4byte	.LVL12
 6452 1e78 FD3B0000 		.4byte	0x3bfd
ARM GAS  C:\Users\haske\AppData\Local\Temp\ccSAQWsX.s 			page 145


 6453 1e7c 8C1E0000 		.4byte	0x1e8c
 6454 1e80 2F       		.uleb128 0x2f
 6455 1e81 01       		.uleb128 0x1
 6456 1e82 50       		.byte	0x50
 6457 1e83 02       		.uleb128 0x2
 6458 1e84 74       		.byte	0x74
 6459 1e85 00       		.sleb128 0
 6460 1e86 2F       		.uleb128 0x2f
 6461 1e87 01       		.uleb128 0x1
 6462 1e88 52       		.byte	0x52
 6463 1e89 01       		.uleb128 0x1
 6464 1e8a 30       		.byte	0x30
 6465 1e8b 00       		.byte	0
 6466 1e8c 2E       		.uleb128 0x2e
 6467 1e8d 78000000 		.4byte	.LVL13
 6468 1e91 FD3B0000 		.4byte	0x3bfd
 6469 1e95 A51E0000 		.4byte	0x1ea5
 6470 1e99 2F       		.uleb128 0x2f
 6471 1e9a 01       		.uleb128 0x1
 6472 1e9b 50       		.byte	0x50
 6473 1e9c 02       		.uleb128 0x2
 6474 1e9d 74       		.byte	0x74
 6475 1e9e 00       		.sleb128 0
 6476 1e9f 2F       		.uleb128 0x2f
 6477 1ea0 01       		.uleb128 0x1
 6478 1ea1 52       		.byte	0x52
 6479 1ea2 01       		.uleb128 0x1
 6480 1ea3 30       		.byte	0x30
 6481 1ea4 00       		.byte	0
 6482 1ea5 2E       		.uleb128 0x2e
 6483 1ea6 86000000 		.4byte	.LVL14
 6484 1eaa FD3B0000 		.4byte	0x3bfd
 6485 1eae C01E0000 		.4byte	0x1ec0
 6486 1eb2 2F       		.uleb128 0x2f
 6487 1eb3 01       		.uleb128 0x1
 6488 1eb4 50       		.byte	0x50
 6489 1eb5 02       		.uleb128 0x2
 6490 1eb6 74       		.byte	0x74
 6491 1eb7 00       		.sleb128 0
 6492 1eb8 2F       		.uleb128 0x2f
 6493 1eb9 01       		.uleb128 0x1
 6494 1eba 52       		.byte	0x52
 6495 1ebb 03       		.uleb128 0x3
 6496 1ebc 40       		.byte	0x40
 6497 1ebd 3C       		.byte	0x3c
 6498 1ebe 24       		.byte	0x24
 6499 1ebf 00       		.byte	0
 6500 1ec0 2E       		.uleb128 0x2e
 6501 1ec1 90000000 		.4byte	.LVL16
 6502 1ec5 083C0000 		.4byte	0x3c08
 6503 1ec9 D41E0000 		.4byte	0x1ed4
 6504 1ecd 2F       		.uleb128 0x2f
 6505 1ece 01       		.uleb128 0x1
 6506 1ecf 50       		.byte	0x50
 6507 1ed0 02       		.uleb128 0x2
 6508 1ed1 74       		.byte	0x74
 6509 1ed2 00       		.sleb128 0
ARM GAS  C:\Users\haske\AppData\Local\Temp\ccSAQWsX.s 			page 146


 6510 1ed3 00       		.byte	0
 6511 1ed4 2E       		.uleb128 0x2e
 6512 1ed5 9A000000 		.4byte	.LVL17
 6513 1ed9 E63B0000 		.4byte	0x3be6
 6514 1edd E81E0000 		.4byte	0x1ee8
 6515 1ee1 2F       		.uleb128 0x2f
 6516 1ee2 01       		.uleb128 0x1
 6517 1ee3 50       		.byte	0x50
 6518 1ee4 02       		.uleb128 0x2
 6519 1ee5 74       		.byte	0x74
 6520 1ee6 00       		.sleb128 0
 6521 1ee7 00       		.byte	0
 6522 1ee8 30       		.uleb128 0x30
 6523 1ee9 A0000000 		.4byte	.LVL18
 6524 1eed F13B0000 		.4byte	0x3bf1
 6525 1ef1 2E       		.uleb128 0x2e
 6526 1ef2 B2000000 		.4byte	.LVL20
 6527 1ef6 FD3B0000 		.4byte	0x3bfd
 6528 1efa 0A1F0000 		.4byte	0x1f0a
 6529 1efe 2F       		.uleb128 0x2f
 6530 1eff 01       		.uleb128 0x1
 6531 1f00 50       		.byte	0x50
 6532 1f01 02       		.uleb128 0x2
 6533 1f02 74       		.byte	0x74
 6534 1f03 00       		.sleb128 0
 6535 1f04 2F       		.uleb128 0x2f
 6536 1f05 01       		.uleb128 0x1
 6537 1f06 52       		.byte	0x52
 6538 1f07 01       		.uleb128 0x1
 6539 1f08 30       		.byte	0x30
 6540 1f09 00       		.byte	0
 6541 1f0a 2E       		.uleb128 0x2e
 6542 1f0b BE000000 		.4byte	.LVL21
 6543 1f0f FD3B0000 		.4byte	0x3bfd
 6544 1f13 231F0000 		.4byte	0x1f23
 6545 1f17 2F       		.uleb128 0x2f
 6546 1f18 01       		.uleb128 0x1
 6547 1f19 50       		.byte	0x50
 6548 1f1a 02       		.uleb128 0x2
 6549 1f1b 74       		.byte	0x74
 6550 1f1c 00       		.sleb128 0
 6551 1f1d 2F       		.uleb128 0x2f
 6552 1f1e 01       		.uleb128 0x1
 6553 1f1f 52       		.byte	0x52
 6554 1f20 01       		.uleb128 0x1
 6555 1f21 30       		.byte	0x30
 6556 1f22 00       		.byte	0
 6557 1f23 2E       		.uleb128 0x2e
 6558 1f24 C8000000 		.4byte	.LVL23
 6559 1f28 083C0000 		.4byte	0x3c08
 6560 1f2c 371F0000 		.4byte	0x1f37
 6561 1f30 2F       		.uleb128 0x2f
 6562 1f31 01       		.uleb128 0x1
 6563 1f32 50       		.byte	0x50
 6564 1f33 02       		.uleb128 0x2
 6565 1f34 74       		.byte	0x74
 6566 1f35 00       		.sleb128 0
ARM GAS  C:\Users\haske\AppData\Local\Temp\ccSAQWsX.s 			page 147


 6567 1f36 00       		.byte	0
 6568 1f37 2E       		.uleb128 0x2e
 6569 1f38 D2000000 		.4byte	.LVL24
 6570 1f3c E63B0000 		.4byte	0x3be6
 6571 1f40 4B1F0000 		.4byte	0x1f4b
 6572 1f44 2F       		.uleb128 0x2f
 6573 1f45 01       		.uleb128 0x1
 6574 1f46 50       		.byte	0x50
 6575 1f47 02       		.uleb128 0x2
 6576 1f48 74       		.byte	0x74
 6577 1f49 00       		.sleb128 0
 6578 1f4a 00       		.byte	0
 6579 1f4b 30       		.uleb128 0x30
 6580 1f4c D8000000 		.4byte	.LVL25
 6581 1f50 F13B0000 		.4byte	0x3bf1
 6582 1f54 2E       		.uleb128 0x2e
 6583 1f55 EA000000 		.4byte	.LVL27
 6584 1f59 FD3B0000 		.4byte	0x3bfd
 6585 1f5d 6D1F0000 		.4byte	0x1f6d
 6586 1f61 2F       		.uleb128 0x2f
 6587 1f62 01       		.uleb128 0x1
 6588 1f63 50       		.byte	0x50
 6589 1f64 02       		.uleb128 0x2
 6590 1f65 74       		.byte	0x74
 6591 1f66 00       		.sleb128 0
 6592 1f67 2F       		.uleb128 0x2f
 6593 1f68 01       		.uleb128 0x1
 6594 1f69 52       		.byte	0x52
 6595 1f6a 01       		.uleb128 0x1
 6596 1f6b 30       		.byte	0x30
 6597 1f6c 00       		.byte	0
 6598 1f6d 2E       		.uleb128 0x2e
 6599 1f6e F6000000 		.4byte	.LVL28
 6600 1f72 FD3B0000 		.4byte	0x3bfd
 6601 1f76 861F0000 		.4byte	0x1f86
 6602 1f7a 2F       		.uleb128 0x2f
 6603 1f7b 01       		.uleb128 0x1
 6604 1f7c 50       		.byte	0x50
 6605 1f7d 02       		.uleb128 0x2
 6606 1f7e 74       		.byte	0x74
 6607 1f7f 00       		.sleb128 0
 6608 1f80 2F       		.uleb128 0x2f
 6609 1f81 01       		.uleb128 0x1
 6610 1f82 52       		.byte	0x52
 6611 1f83 01       		.uleb128 0x1
 6612 1f84 30       		.byte	0x30
 6613 1f85 00       		.byte	0
 6614 1f86 2E       		.uleb128 0x2e
 6615 1f87 04010000 		.4byte	.LVL29
 6616 1f8b FD3B0000 		.4byte	0x3bfd
 6617 1f8f A11F0000 		.4byte	0x1fa1
 6618 1f93 2F       		.uleb128 0x2f
 6619 1f94 01       		.uleb128 0x1
 6620 1f95 50       		.byte	0x50
 6621 1f96 02       		.uleb128 0x2
 6622 1f97 74       		.byte	0x74
 6623 1f98 00       		.sleb128 0
ARM GAS  C:\Users\haske\AppData\Local\Temp\ccSAQWsX.s 			page 148


 6624 1f99 2F       		.uleb128 0x2f
 6625 1f9a 01       		.uleb128 0x1
 6626 1f9b 52       		.byte	0x52
 6627 1f9c 03       		.uleb128 0x3
 6628 1f9d 40       		.byte	0x40
 6629 1f9e 3C       		.byte	0x3c
 6630 1f9f 24       		.byte	0x24
 6631 1fa0 00       		.byte	0
 6632 1fa1 2E       		.uleb128 0x2e
 6633 1fa2 16010000 		.4byte	.LVL32
 6634 1fa6 FD3B0000 		.4byte	0x3bfd
 6635 1faa BA1F0000 		.4byte	0x1fba
 6636 1fae 2F       		.uleb128 0x2f
 6637 1faf 01       		.uleb128 0x1
 6638 1fb0 50       		.byte	0x50
 6639 1fb1 02       		.uleb128 0x2
 6640 1fb2 74       		.byte	0x74
 6641 1fb3 00       		.sleb128 0
 6642 1fb4 2F       		.uleb128 0x2f
 6643 1fb5 01       		.uleb128 0x1
 6644 1fb6 52       		.byte	0x52
 6645 1fb7 01       		.uleb128 0x1
 6646 1fb8 30       		.byte	0x30
 6647 1fb9 00       		.byte	0
 6648 1fba 31       		.uleb128 0x31
 6649 1fbb 24010000 		.4byte	.LVL33
 6650 1fbf FD3B0000 		.4byte	0x3bfd
 6651 1fc3 2F       		.uleb128 0x2f
 6652 1fc4 01       		.uleb128 0x1
 6653 1fc5 50       		.byte	0x50
 6654 1fc6 02       		.uleb128 0x2
 6655 1fc7 74       		.byte	0x74
 6656 1fc8 00       		.sleb128 0
 6657 1fc9 2F       		.uleb128 0x2f
 6658 1fca 01       		.uleb128 0x1
 6659 1fcb 52       		.byte	0x52
 6660 1fcc 03       		.uleb128 0x3
 6661 1fcd 40       		.byte	0x40
 6662 1fce 3C       		.byte	0x3c
 6663 1fcf 24       		.byte	0x24
 6664 1fd0 00       		.byte	0
 6665 1fd1 00       		.byte	0
 6666 1fd2 2E       		.uleb128 0x2e
 6667 1fd3 0A000000 		.4byte	.LVL2
 6668 1fd7 E63B0000 		.4byte	0x3be6
 6669 1fdb E61F0000 		.4byte	0x1fe6
 6670 1fdf 2F       		.uleb128 0x2f
 6671 1fe0 01       		.uleb128 0x1
 6672 1fe1 50       		.byte	0x50
 6673 1fe2 02       		.uleb128 0x2
 6674 1fe3 74       		.byte	0x74
 6675 1fe4 00       		.sleb128 0
 6676 1fe5 00       		.byte	0
 6677 1fe6 2E       		.uleb128 0x2e
 6678 1fe7 1A000000 		.4byte	.LVL3
 6679 1feb FD3B0000 		.4byte	0x3bfd
 6680 1fef FF1F0000 		.4byte	0x1fff
ARM GAS  C:\Users\haske\AppData\Local\Temp\ccSAQWsX.s 			page 149


 6681 1ff3 2F       		.uleb128 0x2f
 6682 1ff4 01       		.uleb128 0x1
 6683 1ff5 50       		.byte	0x50
 6684 1ff6 02       		.uleb128 0x2
 6685 1ff7 74       		.byte	0x74
 6686 1ff8 00       		.sleb128 0
 6687 1ff9 2F       		.uleb128 0x2f
 6688 1ffa 01       		.uleb128 0x1
 6689 1ffb 52       		.byte	0x52
 6690 1ffc 01       		.uleb128 0x1
 6691 1ffd 30       		.byte	0x30
 6692 1ffe 00       		.byte	0
 6693 1fff 2E       		.uleb128 0x2e
 6694 2000 28000000 		.4byte	.LVL4
 6695 2004 FD3B0000 		.4byte	0x3bfd
 6696 2008 1A200000 		.4byte	0x201a
 6697 200c 2F       		.uleb128 0x2f
 6698 200d 01       		.uleb128 0x1
 6699 200e 50       		.byte	0x50
 6700 200f 02       		.uleb128 0x2
 6701 2010 74       		.byte	0x74
 6702 2011 00       		.sleb128 0
 6703 2012 2F       		.uleb128 0x2f
 6704 2013 01       		.uleb128 0x1
 6705 2014 52       		.byte	0x52
 6706 2015 03       		.uleb128 0x3
 6707 2016 40       		.byte	0x40
 6708 2017 3C       		.byte	0x3c
 6709 2018 24       		.byte	0x24
 6710 2019 00       		.byte	0
 6711 201a 2E       		.uleb128 0x2e
 6712 201b 34000000 		.4byte	.LVL5
 6713 201f F13B0000 		.4byte	0x3bf1
 6714 2023 2E200000 		.4byte	0x202e
 6715 2027 2F       		.uleb128 0x2f
 6716 2028 01       		.uleb128 0x1
 6717 2029 50       		.byte	0x50
 6718 202a 02       		.uleb128 0x2
 6719 202b 74       		.byte	0x74
 6720 202c 00       		.sleb128 0
 6721 202d 00       		.byte	0
 6722 202e 2E       		.uleb128 0x2e
 6723 202f 30010000 		.4byte	.LVL34
 6724 2033 F13B0000 		.4byte	0x3bf1
 6725 2037 42200000 		.4byte	0x2042
 6726 203b 2F       		.uleb128 0x2f
 6727 203c 01       		.uleb128 0x1
 6728 203d 50       		.byte	0x50
 6729 203e 02       		.uleb128 0x2
 6730 203f 74       		.byte	0x74
 6731 2040 00       		.sleb128 0
 6732 2041 00       		.byte	0
 6733 2042 2E       		.uleb128 0x2e
 6734 2043 42010000 		.4byte	.LVL35
 6735 2047 FD3B0000 		.4byte	0x3bfd
 6736 204b 5B200000 		.4byte	0x205b
 6737 204f 2F       		.uleb128 0x2f
ARM GAS  C:\Users\haske\AppData\Local\Temp\ccSAQWsX.s 			page 150


 6738 2050 01       		.uleb128 0x1
 6739 2051 50       		.byte	0x50
 6740 2052 02       		.uleb128 0x2
 6741 2053 74       		.byte	0x74
 6742 2054 00       		.sleb128 0
 6743 2055 2F       		.uleb128 0x2f
 6744 2056 01       		.uleb128 0x1
 6745 2057 52       		.byte	0x52
 6746 2058 01       		.uleb128 0x1
 6747 2059 30       		.byte	0x30
 6748 205a 00       		.byte	0
 6749 205b 2E       		.uleb128 0x2e
 6750 205c 4E010000 		.4byte	.LVL36
 6751 2060 FD3B0000 		.4byte	0x3bfd
 6752 2064 75200000 		.4byte	0x2075
 6753 2068 2F       		.uleb128 0x2f
 6754 2069 01       		.uleb128 0x1
 6755 206a 50       		.byte	0x50
 6756 206b 02       		.uleb128 0x2
 6757 206c 74       		.byte	0x74
 6758 206d 00       		.sleb128 0
 6759 206e 2F       		.uleb128 0x2f
 6760 206f 01       		.uleb128 0x1
 6761 2070 52       		.byte	0x52
 6762 2071 02       		.uleb128 0x2
 6763 2072 08       		.byte	0x8
 6764 2073 20       		.byte	0x20
 6765 2074 00       		.byte	0
 6766 2075 2E       		.uleb128 0x2e
 6767 2076 5A010000 		.4byte	.LVL37
 6768 207a FD3B0000 		.4byte	0x3bfd
 6769 207e 8E200000 		.4byte	0x208e
 6770 2082 2F       		.uleb128 0x2f
 6771 2083 01       		.uleb128 0x1
 6772 2084 50       		.byte	0x50
 6773 2085 02       		.uleb128 0x2
 6774 2086 74       		.byte	0x74
 6775 2087 00       		.sleb128 0
 6776 2088 2F       		.uleb128 0x2f
 6777 2089 01       		.uleb128 0x1
 6778 208a 52       		.byte	0x52
 6779 208b 01       		.uleb128 0x1
 6780 208c 31       		.byte	0x31
 6781 208d 00       		.byte	0
 6782 208e 2E       		.uleb128 0x2e
 6783 208f 66010000 		.4byte	.LVL38
 6784 2093 FD3B0000 		.4byte	0x3bfd
 6785 2097 A8200000 		.4byte	0x20a8
 6786 209b 2F       		.uleb128 0x2f
 6787 209c 01       		.uleb128 0x1
 6788 209d 50       		.byte	0x50
 6789 209e 02       		.uleb128 0x2
 6790 209f 74       		.byte	0x74
 6791 20a0 00       		.sleb128 0
 6792 20a1 2F       		.uleb128 0x2f
 6793 20a2 01       		.uleb128 0x1
 6794 20a3 52       		.byte	0x52
ARM GAS  C:\Users\haske\AppData\Local\Temp\ccSAQWsX.s 			page 151


 6795 20a4 02       		.uleb128 0x2
 6796 20a5 08       		.byte	0x8
 6797 20a6 80       		.byte	0x80
 6798 20a7 00       		.byte	0
 6799 20a8 2E       		.uleb128 0x2e
 6800 20a9 72010000 		.4byte	.LVL39
 6801 20ad FD3B0000 		.4byte	0x3bfd
 6802 20b1 C1200000 		.4byte	0x20c1
 6803 20b5 2F       		.uleb128 0x2f
 6804 20b6 01       		.uleb128 0x1
 6805 20b7 50       		.byte	0x50
 6806 20b8 02       		.uleb128 0x2
 6807 20b9 74       		.byte	0x74
 6808 20ba 00       		.sleb128 0
 6809 20bb 2F       		.uleb128 0x2f
 6810 20bc 01       		.uleb128 0x1
 6811 20bd 52       		.byte	0x52
 6812 20be 01       		.uleb128 0x1
 6813 20bf 34       		.byte	0x34
 6814 20c0 00       		.byte	0
 6815 20c1 2E       		.uleb128 0x2e
 6816 20c2 7E010000 		.4byte	.LVL40
 6817 20c6 FD3B0000 		.4byte	0x3bfd
 6818 20ca DA200000 		.4byte	0x20da
 6819 20ce 2F       		.uleb128 0x2f
 6820 20cf 01       		.uleb128 0x1
 6821 20d0 50       		.byte	0x50
 6822 20d1 02       		.uleb128 0x2
 6823 20d2 74       		.byte	0x74
 6824 20d3 00       		.sleb128 0
 6825 20d4 2F       		.uleb128 0x2f
 6826 20d5 01       		.uleb128 0x1
 6827 20d6 52       		.byte	0x52
 6828 20d7 01       		.uleb128 0x1
 6829 20d8 38       		.byte	0x38
 6830 20d9 00       		.byte	0
 6831 20da 2E       		.uleb128 0x2e
 6832 20db 8A010000 		.4byte	.LVL41
 6833 20df F13B0000 		.4byte	0x3bf1
 6834 20e3 EE200000 		.4byte	0x20ee
 6835 20e7 2F       		.uleb128 0x2f
 6836 20e8 01       		.uleb128 0x1
 6837 20e9 50       		.byte	0x50
 6838 20ea 02       		.uleb128 0x2
 6839 20eb 74       		.byte	0x74
 6840 20ec 00       		.sleb128 0
 6841 20ed 00       		.byte	0
 6842 20ee 2E       		.uleb128 0x2e
 6843 20ef 96010000 		.4byte	.LVL42
 6844 20f3 E63B0000 		.4byte	0x3be6
 6845 20f7 02210000 		.4byte	0x2102
 6846 20fb 2F       		.uleb128 0x2f
 6847 20fc 01       		.uleb128 0x1
 6848 20fd 50       		.byte	0x50
 6849 20fe 02       		.uleb128 0x2
 6850 20ff 74       		.byte	0x74
 6851 2100 00       		.sleb128 0
ARM GAS  C:\Users\haske\AppData\Local\Temp\ccSAQWsX.s 			page 152


 6852 2101 00       		.byte	0
 6853 2102 30       		.uleb128 0x30
 6854 2103 9C010000 		.4byte	.LVL43
 6855 2107 F13B0000 		.4byte	0x3bf1
 6856 210b 2E       		.uleb128 0x2e
 6857 210c AE010000 		.4byte	.LVL44
 6858 2110 FD3B0000 		.4byte	0x3bfd
 6859 2114 24210000 		.4byte	0x2124
 6860 2118 2F       		.uleb128 0x2f
 6861 2119 01       		.uleb128 0x1
 6862 211a 50       		.byte	0x50
 6863 211b 02       		.uleb128 0x2
 6864 211c 74       		.byte	0x74
 6865 211d 00       		.sleb128 0
 6866 211e 2F       		.uleb128 0x2f
 6867 211f 01       		.uleb128 0x1
 6868 2120 52       		.byte	0x52
 6869 2121 01       		.uleb128 0x1
 6870 2122 30       		.byte	0x30
 6871 2123 00       		.byte	0
 6872 2124 2E       		.uleb128 0x2e
 6873 2125 BC010000 		.4byte	.LVL45
 6874 2129 FD3B0000 		.4byte	0x3bfd
 6875 212d 3F210000 		.4byte	0x213f
 6876 2131 2F       		.uleb128 0x2f
 6877 2132 01       		.uleb128 0x1
 6878 2133 50       		.byte	0x50
 6879 2134 02       		.uleb128 0x2
 6880 2135 74       		.byte	0x74
 6881 2136 00       		.sleb128 0
 6882 2137 2F       		.uleb128 0x2f
 6883 2138 01       		.uleb128 0x1
 6884 2139 52       		.byte	0x52
 6885 213a 03       		.uleb128 0x3
 6886 213b 44       		.byte	0x44
 6887 213c 3E       		.byte	0x3e
 6888 213d 24       		.byte	0x24
 6889 213e 00       		.byte	0
 6890 213f 2E       		.uleb128 0x2e
 6891 2140 C8010000 		.4byte	.LVL46
 6892 2144 FD3B0000 		.4byte	0x3bfd
 6893 2148 5C210000 		.4byte	0x215c
 6894 214c 2F       		.uleb128 0x2f
 6895 214d 01       		.uleb128 0x1
 6896 214e 50       		.byte	0x50
 6897 214f 02       		.uleb128 0x2
 6898 2150 74       		.byte	0x74
 6899 2151 00       		.sleb128 0
 6900 2152 2F       		.uleb128 0x2f
 6901 2153 01       		.uleb128 0x1
 6902 2154 52       		.byte	0x52
 6903 2155 05       		.uleb128 0x5
 6904 2156 0C       		.byte	0xc
 6905 2157 20000500 		.4byte	0x50020
 6906 215b 00       		.byte	0
 6907 215c 2E       		.uleb128 0x2e
 6908 215d D4010000 		.4byte	.LVL47
ARM GAS  C:\Users\haske\AppData\Local\Temp\ccSAQWsX.s 			page 153


 6909 2161 FD3B0000 		.4byte	0x3bfd
 6910 2165 79210000 		.4byte	0x2179
 6911 2169 2F       		.uleb128 0x2f
 6912 216a 01       		.uleb128 0x1
 6913 216b 50       		.byte	0x50
 6914 216c 02       		.uleb128 0x2
 6915 216d 74       		.byte	0x74
 6916 216e 00       		.sleb128 0
 6917 216f 2F       		.uleb128 0x2f
 6918 2170 01       		.uleb128 0x1
 6919 2171 52       		.byte	0x52
 6920 2172 05       		.uleb128 0x5
 6921 2173 0C       		.byte	0xc
 6922 2174 80000500 		.4byte	0x50080
 6923 2178 00       		.byte	0
 6924 2179 2E       		.uleb128 0x2e
 6925 217a E2010000 		.4byte	.LVL48
 6926 217e FD3B0000 		.4byte	0x3bfd
 6927 2182 93210000 		.4byte	0x2193
 6928 2186 2F       		.uleb128 0x2f
 6929 2187 01       		.uleb128 0x1
 6930 2188 50       		.byte	0x50
 6931 2189 02       		.uleb128 0x2
 6932 218a 74       		.byte	0x74
 6933 218b 00       		.sleb128 0
 6934 218c 2F       		.uleb128 0x2f
 6935 218d 01       		.uleb128 0x1
 6936 218e 52       		.byte	0x52
 6937 218f 02       		.uleb128 0x2
 6938 2190 76       		.byte	0x76
 6939 2191 00       		.sleb128 0
 6940 2192 00       		.byte	0
 6941 2193 2E       		.uleb128 0x2e
 6942 2194 EE010000 		.4byte	.LVL49
 6943 2198 FD3B0000 		.4byte	0x3bfd
 6944 219c AD210000 		.4byte	0x21ad
 6945 21a0 2F       		.uleb128 0x2f
 6946 21a1 01       		.uleb128 0x1
 6947 21a2 50       		.byte	0x50
 6948 21a3 02       		.uleb128 0x2
 6949 21a4 74       		.byte	0x74
 6950 21a5 00       		.sleb128 0
 6951 21a6 2F       		.uleb128 0x2f
 6952 21a7 01       		.uleb128 0x1
 6953 21a8 52       		.byte	0x52
 6954 21a9 02       		.uleb128 0x2
 6955 21aa 76       		.byte	0x76
 6956 21ab 00       		.sleb128 0
 6957 21ac 00       		.byte	0
 6958 21ad 2E       		.uleb128 0x2e
 6959 21ae F6010000 		.4byte	.LVL50
 6960 21b2 E63B0000 		.4byte	0x3be6
 6961 21b6 C1210000 		.4byte	0x21c1
 6962 21ba 2F       		.uleb128 0x2f
 6963 21bb 01       		.uleb128 0x1
 6964 21bc 50       		.byte	0x50
 6965 21bd 02       		.uleb128 0x2
ARM GAS  C:\Users\haske\AppData\Local\Temp\ccSAQWsX.s 			page 154


 6966 21be 74       		.byte	0x74
 6967 21bf 00       		.sleb128 0
 6968 21c0 00       		.byte	0
 6969 21c1 30       		.uleb128 0x30
 6970 21c2 FC010000 		.4byte	.LVL51
 6971 21c6 F13B0000 		.4byte	0x3bf1
 6972 21ca 2E       		.uleb128 0x2e
 6973 21cb 0E020000 		.4byte	.LVL52
 6974 21cf FD3B0000 		.4byte	0x3bfd
 6975 21d3 E3210000 		.4byte	0x21e3
 6976 21d7 2F       		.uleb128 0x2f
 6977 21d8 01       		.uleb128 0x1
 6978 21d9 50       		.byte	0x50
 6979 21da 02       		.uleb128 0x2
 6980 21db 74       		.byte	0x74
 6981 21dc 00       		.sleb128 0
 6982 21dd 2F       		.uleb128 0x2f
 6983 21de 01       		.uleb128 0x1
 6984 21df 52       		.byte	0x52
 6985 21e0 01       		.uleb128 0x1
 6986 21e1 30       		.byte	0x30
 6987 21e2 00       		.byte	0
 6988 21e3 2E       		.uleb128 0x2e
 6989 21e4 1C020000 		.4byte	.LVL53
 6990 21e8 FD3B0000 		.4byte	0x3bfd
 6991 21ec FE210000 		.4byte	0x21fe
 6992 21f0 2F       		.uleb128 0x2f
 6993 21f1 01       		.uleb128 0x1
 6994 21f2 50       		.byte	0x50
 6995 21f3 02       		.uleb128 0x2
 6996 21f4 74       		.byte	0x74
 6997 21f5 00       		.sleb128 0
 6998 21f6 2F       		.uleb128 0x2f
 6999 21f7 01       		.uleb128 0x1
 7000 21f8 52       		.byte	0x52
 7001 21f9 03       		.uleb128 0x3
 7002 21fa 44       		.byte	0x44
 7003 21fb 3E       		.byte	0x3e
 7004 21fc 24       		.byte	0x24
 7005 21fd 00       		.byte	0
 7006 21fe 2E       		.uleb128 0x2e
 7007 21ff 28020000 		.4byte	.LVL54
 7008 2203 FD3B0000 		.4byte	0x3bfd
 7009 2207 1B220000 		.4byte	0x221b
 7010 220b 2F       		.uleb128 0x2f
 7011 220c 01       		.uleb128 0x1
 7012 220d 50       		.byte	0x50
 7013 220e 02       		.uleb128 0x2
 7014 220f 74       		.byte	0x74
 7015 2210 00       		.sleb128 0
 7016 2211 2F       		.uleb128 0x2f
 7017 2212 01       		.uleb128 0x1
 7018 2213 52       		.byte	0x52
 7019 2214 05       		.uleb128 0x5
 7020 2215 0C       		.byte	0xc
 7021 2216 20000500 		.4byte	0x50020
 7022 221a 00       		.byte	0
ARM GAS  C:\Users\haske\AppData\Local\Temp\ccSAQWsX.s 			page 155


 7023 221b 2E       		.uleb128 0x2e
 7024 221c 34020000 		.4byte	.LVL55
 7025 2220 FD3B0000 		.4byte	0x3bfd
 7026 2224 38220000 		.4byte	0x2238
 7027 2228 2F       		.uleb128 0x2f
 7028 2229 01       		.uleb128 0x1
 7029 222a 50       		.byte	0x50
 7030 222b 02       		.uleb128 0x2
 7031 222c 74       		.byte	0x74
 7032 222d 00       		.sleb128 0
 7033 222e 2F       		.uleb128 0x2f
 7034 222f 01       		.uleb128 0x1
 7035 2230 52       		.byte	0x52
 7036 2231 05       		.uleb128 0x5
 7037 2232 0C       		.byte	0xc
 7038 2233 01000500 		.4byte	0x50001
 7039 2237 00       		.byte	0
 7040 2238 2E       		.uleb128 0x2e
 7041 2239 40020000 		.4byte	.LVL56
 7042 223d FD3B0000 		.4byte	0x3bfd
 7043 2241 55220000 		.4byte	0x2255
 7044 2245 2F       		.uleb128 0x2f
 7045 2246 01       		.uleb128 0x1
 7046 2247 50       		.byte	0x50
 7047 2248 02       		.uleb128 0x2
 7048 2249 74       		.byte	0x74
 7049 224a 00       		.sleb128 0
 7050 224b 2F       		.uleb128 0x2f
 7051 224c 01       		.uleb128 0x1
 7052 224d 52       		.byte	0x52
 7053 224e 05       		.uleb128 0x5
 7054 224f 0C       		.byte	0xc
 7055 2250 80000500 		.4byte	0x50080
 7056 2254 00       		.byte	0
 7057 2255 2E       		.uleb128 0x2e
 7058 2256 4C020000 		.4byte	.LVL57
 7059 225a FD3B0000 		.4byte	0x3bfd
 7060 225e 6E220000 		.4byte	0x226e
 7061 2262 2F       		.uleb128 0x2f
 7062 2263 01       		.uleb128 0x1
 7063 2264 50       		.byte	0x50
 7064 2265 02       		.uleb128 0x2
 7065 2266 74       		.byte	0x74
 7066 2267 00       		.sleb128 0
 7067 2268 2F       		.uleb128 0x2f
 7068 2269 01       		.uleb128 0x1
 7069 226a 52       		.byte	0x52
 7070 226b 01       		.uleb128 0x1
 7071 226c 34       		.byte	0x34
 7072 226d 00       		.byte	0
 7073 226e 2E       		.uleb128 0x2e
 7074 226f 5A020000 		.4byte	.LVL58
 7075 2273 FD3B0000 		.4byte	0x3bfd
 7076 2277 88220000 		.4byte	0x2288
 7077 227b 2F       		.uleb128 0x2f
 7078 227c 01       		.uleb128 0x1
 7079 227d 50       		.byte	0x50
ARM GAS  C:\Users\haske\AppData\Local\Temp\ccSAQWsX.s 			page 156


 7080 227e 02       		.uleb128 0x2
 7081 227f 74       		.byte	0x74
 7082 2280 00       		.sleb128 0
 7083 2281 2F       		.uleb128 0x2f
 7084 2282 01       		.uleb128 0x1
 7085 2283 52       		.byte	0x52
 7086 2284 02       		.uleb128 0x2
 7087 2285 76       		.byte	0x76
 7088 2286 00       		.sleb128 0
 7089 2287 00       		.byte	0
 7090 2288 2E       		.uleb128 0x2e
 7091 2289 66020000 		.4byte	.LVL59
 7092 228d FD3B0000 		.4byte	0x3bfd
 7093 2291 A2220000 		.4byte	0x22a2
 7094 2295 2F       		.uleb128 0x2f
 7095 2296 01       		.uleb128 0x1
 7096 2297 50       		.byte	0x50
 7097 2298 02       		.uleb128 0x2
 7098 2299 74       		.byte	0x74
 7099 229a 00       		.sleb128 0
 7100 229b 2F       		.uleb128 0x2f
 7101 229c 01       		.uleb128 0x1
 7102 229d 52       		.byte	0x52
 7103 229e 02       		.uleb128 0x2
 7104 229f 76       		.byte	0x76
 7105 22a0 00       		.sleb128 0
 7106 22a1 00       		.byte	0
 7107 22a2 2E       		.uleb128 0x2e
 7108 22a3 76020000 		.4byte	.LVL60
 7109 22a7 FD3B0000 		.4byte	0x3bfd
 7110 22ab BB220000 		.4byte	0x22bb
 7111 22af 2F       		.uleb128 0x2f
 7112 22b0 01       		.uleb128 0x1
 7113 22b1 50       		.byte	0x50
 7114 22b2 02       		.uleb128 0x2
 7115 22b3 74       		.byte	0x74
 7116 22b4 00       		.sleb128 0
 7117 22b5 2F       		.uleb128 0x2f
 7118 22b6 01       		.uleb128 0x1
 7119 22b7 52       		.byte	0x52
 7120 22b8 01       		.uleb128 0x1
 7121 22b9 30       		.byte	0x30
 7122 22ba 00       		.byte	0
 7123 22bb 2E       		.uleb128 0x2e
 7124 22bc 82020000 		.4byte	.LVL61
 7125 22c0 FD3B0000 		.4byte	0x3bfd
 7126 22c4 D4220000 		.4byte	0x22d4
 7127 22c8 2F       		.uleb128 0x2f
 7128 22c9 01       		.uleb128 0x1
 7129 22ca 50       		.byte	0x50
 7130 22cb 02       		.uleb128 0x2
 7131 22cc 74       		.byte	0x74
 7132 22cd 00       		.sleb128 0
 7133 22ce 2F       		.uleb128 0x2f
 7134 22cf 01       		.uleb128 0x1
 7135 22d0 52       		.byte	0x52
 7136 22d1 01       		.uleb128 0x1
ARM GAS  C:\Users\haske\AppData\Local\Temp\ccSAQWsX.s 			page 157


 7137 22d2 34       		.byte	0x34
 7138 22d3 00       		.byte	0
 7139 22d4 2E       		.uleb128 0x2e
 7140 22d5 90020000 		.4byte	.LVL62
 7141 22d9 FD3B0000 		.4byte	0x3bfd
 7142 22dd EF220000 		.4byte	0x22ef
 7143 22e1 2F       		.uleb128 0x2f
 7144 22e2 01       		.uleb128 0x1
 7145 22e3 50       		.byte	0x50
 7146 22e4 02       		.uleb128 0x2
 7147 22e5 74       		.byte	0x74
 7148 22e6 00       		.sleb128 0
 7149 22e7 2F       		.uleb128 0x2f
 7150 22e8 01       		.uleb128 0x1
 7151 22e9 52       		.byte	0x52
 7152 22ea 03       		.uleb128 0x3
 7153 22eb 44       		.byte	0x44
 7154 22ec 3E       		.byte	0x3e
 7155 22ed 24       		.byte	0x24
 7156 22ee 00       		.byte	0
 7157 22ef 2E       		.uleb128 0x2e
 7158 22f0 9C020000 		.4byte	.LVL63
 7159 22f4 FD3B0000 		.4byte	0x3bfd
 7160 22f8 0C230000 		.4byte	0x230c
 7161 22fc 2F       		.uleb128 0x2f
 7162 22fd 01       		.uleb128 0x1
 7163 22fe 50       		.byte	0x50
 7164 22ff 02       		.uleb128 0x2
 7165 2300 74       		.byte	0x74
 7166 2301 00       		.sleb128 0
 7167 2302 2F       		.uleb128 0x2f
 7168 2303 01       		.uleb128 0x1
 7169 2304 52       		.byte	0x52
 7170 2305 05       		.uleb128 0x5
 7171 2306 0C       		.byte	0xc
 7172 2307 20000500 		.4byte	0x50020
 7173 230b 00       		.byte	0
 7174 230c 2E       		.uleb128 0x2e
 7175 230d A8020000 		.4byte	.LVL64
 7176 2311 FD3B0000 		.4byte	0x3bfd
 7177 2315 29230000 		.4byte	0x2329
 7178 2319 2F       		.uleb128 0x2f
 7179 231a 01       		.uleb128 0x1
 7180 231b 50       		.byte	0x50
 7181 231c 02       		.uleb128 0x2
 7182 231d 74       		.byte	0x74
 7183 231e 00       		.sleb128 0
 7184 231f 2F       		.uleb128 0x2f
 7185 2320 01       		.uleb128 0x1
 7186 2321 52       		.byte	0x52
 7187 2322 05       		.uleb128 0x5
 7188 2323 0C       		.byte	0xc
 7189 2324 01000500 		.4byte	0x50001
 7190 2328 00       		.byte	0
 7191 2329 2E       		.uleb128 0x2e
 7192 232a B4020000 		.4byte	.LVL65
 7193 232e FD3B0000 		.4byte	0x3bfd
ARM GAS  C:\Users\haske\AppData\Local\Temp\ccSAQWsX.s 			page 158


 7194 2332 46230000 		.4byte	0x2346
 7195 2336 2F       		.uleb128 0x2f
 7196 2337 01       		.uleb128 0x1
 7197 2338 50       		.byte	0x50
 7198 2339 02       		.uleb128 0x2
 7199 233a 74       		.byte	0x74
 7200 233b 00       		.sleb128 0
 7201 233c 2F       		.uleb128 0x2f
 7202 233d 01       		.uleb128 0x1
 7203 233e 52       		.byte	0x52
 7204 233f 05       		.uleb128 0x5
 7205 2340 0C       		.byte	0xc
 7206 2341 80000500 		.4byte	0x50080
 7207 2345 00       		.byte	0
 7208 2346 2E       		.uleb128 0x2e
 7209 2347 C2020000 		.4byte	.LVL66
 7210 234b FD3B0000 		.4byte	0x3bfd
 7211 234f 60230000 		.4byte	0x2360
 7212 2353 2F       		.uleb128 0x2f
 7213 2354 01       		.uleb128 0x1
 7214 2355 50       		.byte	0x50
 7215 2356 02       		.uleb128 0x2
 7216 2357 74       		.byte	0x74
 7217 2358 00       		.sleb128 0
 7218 2359 2F       		.uleb128 0x2f
 7219 235a 01       		.uleb128 0x1
 7220 235b 52       		.byte	0x52
 7221 235c 02       		.uleb128 0x2
 7222 235d 76       		.byte	0x76
 7223 235e 00       		.sleb128 0
 7224 235f 00       		.byte	0
 7225 2360 2E       		.uleb128 0x2e
 7226 2361 CE020000 		.4byte	.LVL67
 7227 2365 FD3B0000 		.4byte	0x3bfd
 7228 2369 7A230000 		.4byte	0x237a
 7229 236d 2F       		.uleb128 0x2f
 7230 236e 01       		.uleb128 0x1
 7231 236f 50       		.byte	0x50
 7232 2370 02       		.uleb128 0x2
 7233 2371 74       		.byte	0x74
 7234 2372 00       		.sleb128 0
 7235 2373 2F       		.uleb128 0x2f
 7236 2374 01       		.uleb128 0x1
 7237 2375 52       		.byte	0x52
 7238 2376 02       		.uleb128 0x2
 7239 2377 76       		.byte	0x76
 7240 2378 00       		.sleb128 0
 7241 2379 00       		.byte	0
 7242 237a 2E       		.uleb128 0x2e
 7243 237b D8020000 		.4byte	.LVL68
 7244 237f F13B0000 		.4byte	0x3bf1
 7245 2383 8E230000 		.4byte	0x238e
 7246 2387 2F       		.uleb128 0x2f
 7247 2388 01       		.uleb128 0x1
 7248 2389 50       		.byte	0x50
 7249 238a 02       		.uleb128 0x2
 7250 238b 74       		.byte	0x74
ARM GAS  C:\Users\haske\AppData\Local\Temp\ccSAQWsX.s 			page 159


 7251 238c 00       		.sleb128 0
 7252 238d 00       		.byte	0
 7253 238e 2E       		.uleb128 0x2e
 7254 238f EA020000 		.4byte	.LVL69
 7255 2393 FD3B0000 		.4byte	0x3bfd
 7256 2397 A7230000 		.4byte	0x23a7
 7257 239b 2F       		.uleb128 0x2f
 7258 239c 01       		.uleb128 0x1
 7259 239d 50       		.byte	0x50
 7260 239e 02       		.uleb128 0x2
 7261 239f 74       		.byte	0x74
 7262 23a0 00       		.sleb128 0
 7263 23a1 2F       		.uleb128 0x2f
 7264 23a2 01       		.uleb128 0x1
 7265 23a3 52       		.byte	0x52
 7266 23a4 01       		.uleb128 0x1
 7267 23a5 30       		.byte	0x30
 7268 23a6 00       		.byte	0
 7269 23a7 2E       		.uleb128 0x2e
 7270 23a8 F6020000 		.4byte	.LVL70
 7271 23ac FD3B0000 		.4byte	0x3bfd
 7272 23b0 C0230000 		.4byte	0x23c0
 7273 23b4 2F       		.uleb128 0x2f
 7274 23b5 01       		.uleb128 0x1
 7275 23b6 50       		.byte	0x50
 7276 23b7 02       		.uleb128 0x2
 7277 23b8 74       		.byte	0x74
 7278 23b9 00       		.sleb128 0
 7279 23ba 2F       		.uleb128 0x2f
 7280 23bb 01       		.uleb128 0x1
 7281 23bc 52       		.byte	0x52
 7282 23bd 01       		.uleb128 0x1
 7283 23be 30       		.byte	0x30
 7284 23bf 00       		.byte	0
 7285 23c0 2E       		.uleb128 0x2e
 7286 23c1 04030000 		.4byte	.LVL71
 7287 23c5 FD3B0000 		.4byte	0x3bfd
 7288 23c9 DB230000 		.4byte	0x23db
 7289 23cd 2F       		.uleb128 0x2f
 7290 23ce 01       		.uleb128 0x1
 7291 23cf 50       		.byte	0x50
 7292 23d0 02       		.uleb128 0x2
 7293 23d1 74       		.byte	0x74
 7294 23d2 00       		.sleb128 0
 7295 23d3 2F       		.uleb128 0x2f
 7296 23d4 01       		.uleb128 0x1
 7297 23d5 52       		.byte	0x52
 7298 23d6 03       		.uleb128 0x3
 7299 23d7 40       		.byte	0x40
 7300 23d8 3D       		.byte	0x3d
 7301 23d9 24       		.byte	0x24
 7302 23da 00       		.byte	0
 7303 23db 2E       		.uleb128 0x2e
 7304 23dc 10030000 		.4byte	.LVL72
 7305 23e0 FD3B0000 		.4byte	0x3bfd
 7306 23e4 F4230000 		.4byte	0x23f4
 7307 23e8 2F       		.uleb128 0x2f
ARM GAS  C:\Users\haske\AppData\Local\Temp\ccSAQWsX.s 			page 160


 7308 23e9 01       		.uleb128 0x1
 7309 23ea 50       		.byte	0x50
 7310 23eb 02       		.uleb128 0x2
 7311 23ec 74       		.byte	0x74
 7312 23ed 00       		.sleb128 0
 7313 23ee 2F       		.uleb128 0x2f
 7314 23ef 01       		.uleb128 0x1
 7315 23f0 52       		.byte	0x52
 7316 23f1 01       		.uleb128 0x1
 7317 23f2 34       		.byte	0x34
 7318 23f3 00       		.byte	0
 7319 23f4 2E       		.uleb128 0x2e
 7320 23f5 1A030000 		.4byte	.LVL73
 7321 23f9 F13B0000 		.4byte	0x3bf1
 7322 23fd 08240000 		.4byte	0x2408
 7323 2401 2F       		.uleb128 0x2f
 7324 2402 01       		.uleb128 0x1
 7325 2403 50       		.byte	0x50
 7326 2404 02       		.uleb128 0x2
 7327 2405 74       		.byte	0x74
 7328 2406 00       		.sleb128 0
 7329 2407 00       		.byte	0
 7330 2408 2E       		.uleb128 0x2e
 7331 2409 2C030000 		.4byte	.LVL74
 7332 240d FD3B0000 		.4byte	0x3bfd
 7333 2411 21240000 		.4byte	0x2421
 7334 2415 2F       		.uleb128 0x2f
 7335 2416 01       		.uleb128 0x1
 7336 2417 50       		.byte	0x50
 7337 2418 02       		.uleb128 0x2
 7338 2419 74       		.byte	0x74
 7339 241a 00       		.sleb128 0
 7340 241b 2F       		.uleb128 0x2f
 7341 241c 01       		.uleb128 0x1
 7342 241d 52       		.byte	0x52
 7343 241e 01       		.uleb128 0x1
 7344 241f 30       		.byte	0x30
 7345 2420 00       		.byte	0
 7346 2421 2E       		.uleb128 0x2e
 7347 2422 38030000 		.4byte	.LVL75
 7348 2426 FD3B0000 		.4byte	0x3bfd
 7349 242a 3A240000 		.4byte	0x243a
 7350 242e 2F       		.uleb128 0x2f
 7351 242f 01       		.uleb128 0x1
 7352 2430 50       		.byte	0x50
 7353 2431 02       		.uleb128 0x2
 7354 2432 74       		.byte	0x74
 7355 2433 00       		.sleb128 0
 7356 2434 2F       		.uleb128 0x2f
 7357 2435 01       		.uleb128 0x1
 7358 2436 52       		.byte	0x52
 7359 2437 01       		.uleb128 0x1
 7360 2438 30       		.byte	0x30
 7361 2439 00       		.byte	0
 7362 243a 2E       		.uleb128 0x2e
 7363 243b 46030000 		.4byte	.LVL76
 7364 243f FD3B0000 		.4byte	0x3bfd
ARM GAS  C:\Users\haske\AppData\Local\Temp\ccSAQWsX.s 			page 161


 7365 2443 55240000 		.4byte	0x2455
 7366 2447 2F       		.uleb128 0x2f
 7367 2448 01       		.uleb128 0x1
 7368 2449 50       		.byte	0x50
 7369 244a 02       		.uleb128 0x2
 7370 244b 74       		.byte	0x74
 7371 244c 00       		.sleb128 0
 7372 244d 2F       		.uleb128 0x2f
 7373 244e 01       		.uleb128 0x1
 7374 244f 52       		.byte	0x52
 7375 2450 03       		.uleb128 0x3
 7376 2451 40       		.byte	0x40
 7377 2452 3D       		.byte	0x3d
 7378 2453 24       		.byte	0x24
 7379 2454 00       		.byte	0
 7380 2455 2E       		.uleb128 0x2e
 7381 2456 56030000 		.4byte	.LVL77
 7382 245a FD3B0000 		.4byte	0x3bfd
 7383 245e 6F240000 		.4byte	0x246f
 7384 2462 2F       		.uleb128 0x2f
 7385 2463 01       		.uleb128 0x1
 7386 2464 50       		.byte	0x50
 7387 2465 02       		.uleb128 0x2
 7388 2466 74       		.byte	0x74
 7389 2467 00       		.sleb128 0
 7390 2468 2F       		.uleb128 0x2f
 7391 2469 01       		.uleb128 0x1
 7392 246a 52       		.byte	0x52
 7393 246b 02       		.uleb128 0x2
 7394 246c 76       		.byte	0x76
 7395 246d 00       		.sleb128 0
 7396 246e 00       		.byte	0
 7397 246f 2E       		.uleb128 0x2e
 7398 2470 62030000 		.4byte	.LVL78
 7399 2474 FD3B0000 		.4byte	0x3bfd
 7400 2478 89240000 		.4byte	0x2489
 7401 247c 2F       		.uleb128 0x2f
 7402 247d 01       		.uleb128 0x1
 7403 247e 50       		.byte	0x50
 7404 247f 02       		.uleb128 0x2
 7405 2480 74       		.byte	0x74
 7406 2481 00       		.sleb128 0
 7407 2482 2F       		.uleb128 0x2f
 7408 2483 01       		.uleb128 0x1
 7409 2484 52       		.byte	0x52
 7410 2485 02       		.uleb128 0x2
 7411 2486 76       		.byte	0x76
 7412 2487 00       		.sleb128 0
 7413 2488 00       		.byte	0
 7414 2489 2E       		.uleb128 0x2e
 7415 248a 6E030000 		.4byte	.LVL79
 7416 248e FD3B0000 		.4byte	0x3bfd
 7417 2492 A2240000 		.4byte	0x24a2
 7418 2496 2F       		.uleb128 0x2f
 7419 2497 01       		.uleb128 0x1
 7420 2498 50       		.byte	0x50
 7421 2499 02       		.uleb128 0x2
ARM GAS  C:\Users\haske\AppData\Local\Temp\ccSAQWsX.s 			page 162


 7422 249a 74       		.byte	0x74
 7423 249b 00       		.sleb128 0
 7424 249c 2F       		.uleb128 0x2f
 7425 249d 01       		.uleb128 0x1
 7426 249e 52       		.byte	0x52
 7427 249f 01       		.uleb128 0x1
 7428 24a0 34       		.byte	0x34
 7429 24a1 00       		.byte	0
 7430 24a2 2E       		.uleb128 0x2e
 7431 24a3 7A030000 		.4byte	.LVL80
 7432 24a7 FD3B0000 		.4byte	0x3bfd
 7433 24ab BB240000 		.4byte	0x24bb
 7434 24af 2F       		.uleb128 0x2f
 7435 24b0 01       		.uleb128 0x1
 7436 24b1 50       		.byte	0x50
 7437 24b2 02       		.uleb128 0x2
 7438 24b3 74       		.byte	0x74
 7439 24b4 00       		.sleb128 0
 7440 24b5 2F       		.uleb128 0x2f
 7441 24b6 01       		.uleb128 0x1
 7442 24b7 52       		.byte	0x52
 7443 24b8 01       		.uleb128 0x1
 7444 24b9 38       		.byte	0x38
 7445 24ba 00       		.byte	0
 7446 24bb 2E       		.uleb128 0x2e
 7447 24bc B8030000 		.4byte	.LVL81
 7448 24c0 F13B0000 		.4byte	0x3bf1
 7449 24c4 CF240000 		.4byte	0x24cf
 7450 24c8 2F       		.uleb128 0x2f
 7451 24c9 01       		.uleb128 0x1
 7452 24ca 50       		.byte	0x50
 7453 24cb 02       		.uleb128 0x2
 7454 24cc 74       		.byte	0x74
 7455 24cd 00       		.sleb128 0
 7456 24ce 00       		.byte	0
 7457 24cf 2E       		.uleb128 0x2e
 7458 24d0 CC030000 		.4byte	.LVL82
 7459 24d4 FD3B0000 		.4byte	0x3bfd
 7460 24d8 EA240000 		.4byte	0x24ea
 7461 24dc 2F       		.uleb128 0x2f
 7462 24dd 01       		.uleb128 0x1
 7463 24de 50       		.byte	0x50
 7464 24df 02       		.uleb128 0x2
 7465 24e0 74       		.byte	0x74
 7466 24e1 00       		.sleb128 0
 7467 24e2 2F       		.uleb128 0x2f
 7468 24e3 01       		.uleb128 0x1
 7469 24e4 52       		.byte	0x52
 7470 24e5 03       		.uleb128 0x3
 7471 24e6 40       		.byte	0x40
 7472 24e7 3C       		.byte	0x3c
 7473 24e8 24       		.byte	0x24
 7474 24e9 00       		.byte	0
 7475 24ea 2E       		.uleb128 0x2e
 7476 24eb DC030000 		.4byte	.LVL83
 7477 24ef FD3B0000 		.4byte	0x3bfd
 7478 24f3 04250000 		.4byte	0x2504
ARM GAS  C:\Users\haske\AppData\Local\Temp\ccSAQWsX.s 			page 163


 7479 24f7 2F       		.uleb128 0x2f
 7480 24f8 01       		.uleb128 0x1
 7481 24f9 50       		.byte	0x50
 7482 24fa 02       		.uleb128 0x2
 7483 24fb 74       		.byte	0x74
 7484 24fc 00       		.sleb128 0
 7485 24fd 2F       		.uleb128 0x2f
 7486 24fe 01       		.uleb128 0x1
 7487 24ff 52       		.byte	0x52
 7488 2500 02       		.uleb128 0x2
 7489 2501 76       		.byte	0x76
 7490 2502 00       		.sleb128 0
 7491 2503 00       		.byte	0
 7492 2504 2E       		.uleb128 0x2e
 7493 2505 E8030000 		.4byte	.LVL84
 7494 2509 FD3B0000 		.4byte	0x3bfd
 7495 250d 1E250000 		.4byte	0x251e
 7496 2511 2F       		.uleb128 0x2f
 7497 2512 01       		.uleb128 0x1
 7498 2513 50       		.byte	0x50
 7499 2514 02       		.uleb128 0x2
 7500 2515 74       		.byte	0x74
 7501 2516 00       		.sleb128 0
 7502 2517 2F       		.uleb128 0x2f
 7503 2518 01       		.uleb128 0x1
 7504 2519 52       		.byte	0x52
 7505 251a 02       		.uleb128 0x2
 7506 251b 76       		.byte	0x76
 7507 251c 00       		.sleb128 0
 7508 251d 00       		.byte	0
 7509 251e 2E       		.uleb128 0x2e
 7510 251f F4030000 		.4byte	.LVL85
 7511 2523 FD3B0000 		.4byte	0x3bfd
 7512 2527 3B250000 		.4byte	0x253b
 7513 252b 2F       		.uleb128 0x2f
 7514 252c 01       		.uleb128 0x1
 7515 252d 50       		.byte	0x50
 7516 252e 02       		.uleb128 0x2
 7517 252f 74       		.byte	0x74
 7518 2530 00       		.sleb128 0
 7519 2531 2F       		.uleb128 0x2f
 7520 2532 01       		.uleb128 0x1
 7521 2533 52       		.byte	0x52
 7522 2534 05       		.uleb128 0x5
 7523 2535 0C       		.byte	0xc
 7524 2536 20000500 		.4byte	0x50020
 7525 253a 00       		.byte	0
 7526 253b 2E       		.uleb128 0x2e
 7527 253c 00040000 		.4byte	.LVL86
 7528 2540 FD3B0000 		.4byte	0x3bfd
 7529 2544 54250000 		.4byte	0x2554
 7530 2548 2F       		.uleb128 0x2f
 7531 2549 01       		.uleb128 0x1
 7532 254a 50       		.byte	0x50
 7533 254b 02       		.uleb128 0x2
 7534 254c 74       		.byte	0x74
 7535 254d 00       		.sleb128 0
ARM GAS  C:\Users\haske\AppData\Local\Temp\ccSAQWsX.s 			page 164


 7536 254e 2F       		.uleb128 0x2f
 7537 254f 01       		.uleb128 0x1
 7538 2550 52       		.byte	0x52
 7539 2551 01       		.uleb128 0x1
 7540 2552 34       		.byte	0x34
 7541 2553 00       		.byte	0
 7542 2554 2E       		.uleb128 0x2e
 7543 2555 0C040000 		.4byte	.LVL87
 7544 2559 FD3B0000 		.4byte	0x3bfd
 7545 255d 71250000 		.4byte	0x2571
 7546 2561 2F       		.uleb128 0x2f
 7547 2562 01       		.uleb128 0x1
 7548 2563 50       		.byte	0x50
 7549 2564 02       		.uleb128 0x2
 7550 2565 74       		.byte	0x74
 7551 2566 00       		.sleb128 0
 7552 2567 2F       		.uleb128 0x2f
 7553 2568 01       		.uleb128 0x1
 7554 2569 52       		.byte	0x52
 7555 256a 05       		.uleb128 0x5
 7556 256b 0C       		.byte	0xc
 7557 256c 04000500 		.4byte	0x50004
 7558 2570 00       		.byte	0
 7559 2571 2E       		.uleb128 0x2e
 7560 2572 18040000 		.4byte	.LVL88
 7561 2576 FD3B0000 		.4byte	0x3bfd
 7562 257a 8A250000 		.4byte	0x258a
 7563 257e 2F       		.uleb128 0x2f
 7564 257f 01       		.uleb128 0x1
 7565 2580 50       		.byte	0x50
 7566 2581 02       		.uleb128 0x2
 7567 2582 74       		.byte	0x74
 7568 2583 00       		.sleb128 0
 7569 2584 2F       		.uleb128 0x2f
 7570 2585 01       		.uleb128 0x1
 7571 2586 52       		.byte	0x52
 7572 2587 01       		.uleb128 0x1
 7573 2588 38       		.byte	0x38
 7574 2589 00       		.byte	0
 7575 258a 2E       		.uleb128 0x2e
 7576 258b 22040000 		.4byte	.LVL89
 7577 258f F13B0000 		.4byte	0x3bf1
 7578 2593 9E250000 		.4byte	0x259e
 7579 2597 2F       		.uleb128 0x2f
 7580 2598 01       		.uleb128 0x1
 7581 2599 50       		.byte	0x50
 7582 259a 02       		.uleb128 0x2
 7583 259b 74       		.byte	0x74
 7584 259c 00       		.sleb128 0
 7585 259d 00       		.byte	0
 7586 259e 2E       		.uleb128 0x2e
 7587 259f 34040000 		.4byte	.LVL90
 7588 25a3 FD3B0000 		.4byte	0x3bfd
 7589 25a7 B7250000 		.4byte	0x25b7
 7590 25ab 2F       		.uleb128 0x2f
 7591 25ac 01       		.uleb128 0x1
 7592 25ad 50       		.byte	0x50
ARM GAS  C:\Users\haske\AppData\Local\Temp\ccSAQWsX.s 			page 165


 7593 25ae 02       		.uleb128 0x2
 7594 25af 74       		.byte	0x74
 7595 25b0 00       		.sleb128 0
 7596 25b1 2F       		.uleb128 0x2f
 7597 25b2 01       		.uleb128 0x1
 7598 25b3 52       		.byte	0x52
 7599 25b4 01       		.uleb128 0x1
 7600 25b5 30       		.byte	0x30
 7601 25b6 00       		.byte	0
 7602 25b7 2E       		.uleb128 0x2e
 7603 25b8 42040000 		.4byte	.LVL91
 7604 25bc FD3B0000 		.4byte	0x3bfd
 7605 25c0 D2250000 		.4byte	0x25d2
 7606 25c4 2F       		.uleb128 0x2f
 7607 25c5 01       		.uleb128 0x1
 7608 25c6 50       		.byte	0x50
 7609 25c7 02       		.uleb128 0x2
 7610 25c8 74       		.byte	0x74
 7611 25c9 00       		.sleb128 0
 7612 25ca 2F       		.uleb128 0x2f
 7613 25cb 01       		.uleb128 0x1
 7614 25cc 52       		.byte	0x52
 7615 25cd 03       		.uleb128 0x3
 7616 25ce 40       		.byte	0x40
 7617 25cf 3D       		.byte	0x3d
 7618 25d0 24       		.byte	0x24
 7619 25d1 00       		.byte	0
 7620 25d2 2E       		.uleb128 0x2e
 7621 25d3 4E040000 		.4byte	.LVL92
 7622 25d7 FD3B0000 		.4byte	0x3bfd
 7623 25db EF250000 		.4byte	0x25ef
 7624 25df 2F       		.uleb128 0x2f
 7625 25e0 01       		.uleb128 0x1
 7626 25e1 50       		.byte	0x50
 7627 25e2 02       		.uleb128 0x2
 7628 25e3 74       		.byte	0x74
 7629 25e4 00       		.sleb128 0
 7630 25e5 2F       		.uleb128 0x2f
 7631 25e6 01       		.uleb128 0x1
 7632 25e7 52       		.byte	0x52
 7633 25e8 05       		.uleb128 0x5
 7634 25e9 0C       		.byte	0xc
 7635 25ea 80000200 		.4byte	0x20080
 7636 25ee 00       		.byte	0
 7637 25ef 2E       		.uleb128 0x2e
 7638 25f0 5A040000 		.4byte	.LVL93
 7639 25f4 FD3B0000 		.4byte	0x3bfd
 7640 25f8 0C260000 		.4byte	0x260c
 7641 25fc 2F       		.uleb128 0x2f
 7642 25fd 01       		.uleb128 0x1
 7643 25fe 50       		.byte	0x50
 7644 25ff 02       		.uleb128 0x2
 7645 2600 74       		.byte	0x74
 7646 2601 00       		.sleb128 0
 7647 2602 2F       		.uleb128 0x2f
 7648 2603 01       		.uleb128 0x1
 7649 2604 52       		.byte	0x52
ARM GAS  C:\Users\haske\AppData\Local\Temp\ccSAQWsX.s 			page 166


 7650 2605 05       		.uleb128 0x5
 7651 2606 0C       		.byte	0xc
 7652 2607 01000200 		.4byte	0x20001
 7653 260b 00       		.byte	0
 7654 260c 2E       		.uleb128 0x2e
 7655 260d 66040000 		.4byte	.LVL94
 7656 2611 FD3B0000 		.4byte	0x3bfd
 7657 2615 29260000 		.4byte	0x2629
 7658 2619 2F       		.uleb128 0x2f
 7659 261a 01       		.uleb128 0x1
 7660 261b 50       		.byte	0x50
 7661 261c 02       		.uleb128 0x2
 7662 261d 74       		.byte	0x74
 7663 261e 00       		.sleb128 0
 7664 261f 2F       		.uleb128 0x2f
 7665 2620 01       		.uleb128 0x1
 7666 2621 52       		.byte	0x52
 7667 2622 05       		.uleb128 0x5
 7668 2623 0C       		.byte	0xc
 7669 2624 20000200 		.4byte	0x20020
 7670 2628 00       		.byte	0
 7671 2629 2E       		.uleb128 0x2e
 7672 262a 72040000 		.4byte	.LVL95
 7673 262e FD3B0000 		.4byte	0x3bfd
 7674 2632 42260000 		.4byte	0x2642
 7675 2636 2F       		.uleb128 0x2f
 7676 2637 01       		.uleb128 0x1
 7677 2638 50       		.byte	0x50
 7678 2639 02       		.uleb128 0x2
 7679 263a 74       		.byte	0x74
 7680 263b 00       		.sleb128 0
 7681 263c 2F       		.uleb128 0x2f
 7682 263d 01       		.uleb128 0x1
 7683 263e 52       		.byte	0x52
 7684 263f 01       		.uleb128 0x1
 7685 2640 34       		.byte	0x34
 7686 2641 00       		.byte	0
 7687 2642 2E       		.uleb128 0x2e
 7688 2643 7E040000 		.4byte	.LVL96
 7689 2647 FD3B0000 		.4byte	0x3bfd
 7690 264b 5B260000 		.4byte	0x265b
 7691 264f 2F       		.uleb128 0x2f
 7692 2650 01       		.uleb128 0x1
 7693 2651 50       		.byte	0x50
 7694 2652 02       		.uleb128 0x2
 7695 2653 74       		.byte	0x74
 7696 2654 00       		.sleb128 0
 7697 2655 2F       		.uleb128 0x2f
 7698 2656 01       		.uleb128 0x1
 7699 2657 52       		.byte	0x52
 7700 2658 01       		.uleb128 0x1
 7701 2659 38       		.byte	0x38
 7702 265a 00       		.byte	0
 7703 265b 2E       		.uleb128 0x2e
 7704 265c 88040000 		.4byte	.LVL97
 7705 2660 F13B0000 		.4byte	0x3bf1
 7706 2664 6F260000 		.4byte	0x266f
ARM GAS  C:\Users\haske\AppData\Local\Temp\ccSAQWsX.s 			page 167


 7707 2668 2F       		.uleb128 0x2f
 7708 2669 01       		.uleb128 0x1
 7709 266a 50       		.byte	0x50
 7710 266b 02       		.uleb128 0x2
 7711 266c 74       		.byte	0x74
 7712 266d 00       		.sleb128 0
 7713 266e 00       		.byte	0
 7714 266f 2E       		.uleb128 0x2e
 7715 2670 9A040000 		.4byte	.LVL98
 7716 2674 FD3B0000 		.4byte	0x3bfd
 7717 2678 88260000 		.4byte	0x2688
 7718 267c 2F       		.uleb128 0x2f
 7719 267d 01       		.uleb128 0x1
 7720 267e 50       		.byte	0x50
 7721 267f 02       		.uleb128 0x2
 7722 2680 74       		.byte	0x74
 7723 2681 00       		.sleb128 0
 7724 2682 2F       		.uleb128 0x2f
 7725 2683 01       		.uleb128 0x1
 7726 2684 52       		.byte	0x52
 7727 2685 01       		.uleb128 0x1
 7728 2686 30       		.byte	0x30
 7729 2687 00       		.byte	0
 7730 2688 2E       		.uleb128 0x2e
 7731 2689 A6040000 		.4byte	.LVL99
 7732 268d FD3B0000 		.4byte	0x3bfd
 7733 2691 A1260000 		.4byte	0x26a1
 7734 2695 2F       		.uleb128 0x2f
 7735 2696 01       		.uleb128 0x1
 7736 2697 50       		.byte	0x50
 7737 2698 02       		.uleb128 0x2
 7738 2699 74       		.byte	0x74
 7739 269a 00       		.sleb128 0
 7740 269b 2F       		.uleb128 0x2f
 7741 269c 01       		.uleb128 0x1
 7742 269d 52       		.byte	0x52
 7743 269e 01       		.uleb128 0x1
 7744 269f 30       		.byte	0x30
 7745 26a0 00       		.byte	0
 7746 26a1 2E       		.uleb128 0x2e
 7747 26a2 B2040000 		.4byte	.LVL100
 7748 26a6 FD3B0000 		.4byte	0x3bfd
 7749 26aa BA260000 		.4byte	0x26ba
 7750 26ae 2F       		.uleb128 0x2f
 7751 26af 01       		.uleb128 0x1
 7752 26b0 50       		.byte	0x50
 7753 26b1 02       		.uleb128 0x2
 7754 26b2 74       		.byte	0x74
 7755 26b3 00       		.sleb128 0
 7756 26b4 2F       		.uleb128 0x2f
 7757 26b5 01       		.uleb128 0x1
 7758 26b6 52       		.byte	0x52
 7759 26b7 01       		.uleb128 0x1
 7760 26b8 30       		.byte	0x30
 7761 26b9 00       		.byte	0
 7762 26ba 2E       		.uleb128 0x2e
 7763 26bb C2040000 		.4byte	.LVL101
ARM GAS  C:\Users\haske\AppData\Local\Temp\ccSAQWsX.s 			page 168


 7764 26bf FD3B0000 		.4byte	0x3bfd
 7765 26c3 D4260000 		.4byte	0x26d4
 7766 26c7 2F       		.uleb128 0x2f
 7767 26c8 01       		.uleb128 0x1
 7768 26c9 50       		.byte	0x50
 7769 26ca 02       		.uleb128 0x2
 7770 26cb 74       		.byte	0x74
 7771 26cc 00       		.sleb128 0
 7772 26cd 2F       		.uleb128 0x2f
 7773 26ce 01       		.uleb128 0x1
 7774 26cf 52       		.byte	0x52
 7775 26d0 02       		.uleb128 0x2
 7776 26d1 76       		.byte	0x76
 7777 26d2 00       		.sleb128 0
 7778 26d3 00       		.byte	0
 7779 26d4 2E       		.uleb128 0x2e
 7780 26d5 CE040000 		.4byte	.LVL102
 7781 26d9 FD3B0000 		.4byte	0x3bfd
 7782 26dd EE260000 		.4byte	0x26ee
 7783 26e1 2F       		.uleb128 0x2f
 7784 26e2 01       		.uleb128 0x1
 7785 26e3 50       		.byte	0x50
 7786 26e4 02       		.uleb128 0x2
 7787 26e5 74       		.byte	0x74
 7788 26e6 00       		.sleb128 0
 7789 26e7 2F       		.uleb128 0x2f
 7790 26e8 01       		.uleb128 0x1
 7791 26e9 52       		.byte	0x52
 7792 26ea 02       		.uleb128 0x2
 7793 26eb 76       		.byte	0x76
 7794 26ec 00       		.sleb128 0
 7795 26ed 00       		.byte	0
 7796 26ee 2E       		.uleb128 0x2e
 7797 26ef DE040000 		.4byte	.LVL103
 7798 26f3 FD3B0000 		.4byte	0x3bfd
 7799 26f7 08270000 		.4byte	0x2708
 7800 26fb 2F       		.uleb128 0x2f
 7801 26fc 01       		.uleb128 0x1
 7802 26fd 50       		.byte	0x50
 7803 26fe 02       		.uleb128 0x2
 7804 26ff 74       		.byte	0x74
 7805 2700 00       		.sleb128 0
 7806 2701 2F       		.uleb128 0x2f
 7807 2702 01       		.uleb128 0x1
 7808 2703 52       		.byte	0x52
 7809 2704 02       		.uleb128 0x2
 7810 2705 76       		.byte	0x76
 7811 2706 00       		.sleb128 0
 7812 2707 00       		.byte	0
 7813 2708 2E       		.uleb128 0x2e
 7814 2709 EA040000 		.4byte	.LVL104
 7815 270d FD3B0000 		.4byte	0x3bfd
 7816 2711 22270000 		.4byte	0x2722
 7817 2715 2F       		.uleb128 0x2f
 7818 2716 01       		.uleb128 0x1
 7819 2717 50       		.byte	0x50
 7820 2718 02       		.uleb128 0x2
ARM GAS  C:\Users\haske\AppData\Local\Temp\ccSAQWsX.s 			page 169


 7821 2719 74       		.byte	0x74
 7822 271a 00       		.sleb128 0
 7823 271b 2F       		.uleb128 0x2f
 7824 271c 01       		.uleb128 0x1
 7825 271d 52       		.byte	0x52
 7826 271e 02       		.uleb128 0x2
 7827 271f 76       		.byte	0x76
 7828 2720 00       		.sleb128 0
 7829 2721 00       		.byte	0
 7830 2722 2E       		.uleb128 0x2e
 7831 2723 F6040000 		.4byte	.LVL105
 7832 2727 FD3B0000 		.4byte	0x3bfd
 7833 272b 3C270000 		.4byte	0x273c
 7834 272f 2F       		.uleb128 0x2f
 7835 2730 01       		.uleb128 0x1
 7836 2731 50       		.byte	0x50
 7837 2732 02       		.uleb128 0x2
 7838 2733 74       		.byte	0x74
 7839 2734 00       		.sleb128 0
 7840 2735 2F       		.uleb128 0x2f
 7841 2736 01       		.uleb128 0x1
 7842 2737 52       		.byte	0x52
 7843 2738 02       		.uleb128 0x2
 7844 2739 76       		.byte	0x76
 7845 273a 00       		.sleb128 0
 7846 273b 00       		.byte	0
 7847 273c 2E       		.uleb128 0x2e
 7848 273d 02050000 		.4byte	.LVL106
 7849 2741 FD3B0000 		.4byte	0x3bfd
 7850 2745 55270000 		.4byte	0x2755
 7851 2749 2F       		.uleb128 0x2f
 7852 274a 01       		.uleb128 0x1
 7853 274b 50       		.byte	0x50
 7854 274c 02       		.uleb128 0x2
 7855 274d 74       		.byte	0x74
 7856 274e 00       		.sleb128 0
 7857 274f 2F       		.uleb128 0x2f
 7858 2750 01       		.uleb128 0x1
 7859 2751 52       		.byte	0x52
 7860 2752 01       		.uleb128 0x1
 7861 2753 34       		.byte	0x34
 7862 2754 00       		.byte	0
 7863 2755 2E       		.uleb128 0x2e
 7864 2756 0E050000 		.4byte	.LVL107
 7865 275a FD3B0000 		.4byte	0x3bfd
 7866 275e 6E270000 		.4byte	0x276e
 7867 2762 2F       		.uleb128 0x2f
 7868 2763 01       		.uleb128 0x1
 7869 2764 50       		.byte	0x50
 7870 2765 02       		.uleb128 0x2
 7871 2766 74       		.byte	0x74
 7872 2767 00       		.sleb128 0
 7873 2768 2F       		.uleb128 0x2f
 7874 2769 01       		.uleb128 0x1
 7875 276a 52       		.byte	0x52
 7876 276b 01       		.uleb128 0x1
 7877 276c 38       		.byte	0x38
ARM GAS  C:\Users\haske\AppData\Local\Temp\ccSAQWsX.s 			page 170


 7878 276d 00       		.byte	0
 7879 276e 2E       		.uleb128 0x2e
 7880 276f 18050000 		.4byte	.LVL108
 7881 2773 F13B0000 		.4byte	0x3bf1
 7882 2777 82270000 		.4byte	0x2782
 7883 277b 2F       		.uleb128 0x2f
 7884 277c 01       		.uleb128 0x1
 7885 277d 50       		.byte	0x50
 7886 277e 02       		.uleb128 0x2
 7887 277f 74       		.byte	0x74
 7888 2780 00       		.sleb128 0
 7889 2781 00       		.byte	0
 7890 2782 2E       		.uleb128 0x2e
 7891 2783 2A050000 		.4byte	.LVL109
 7892 2787 FD3B0000 		.4byte	0x3bfd
 7893 278b 9B270000 		.4byte	0x279b
 7894 278f 2F       		.uleb128 0x2f
 7895 2790 01       		.uleb128 0x1
 7896 2791 50       		.byte	0x50
 7897 2792 02       		.uleb128 0x2
 7898 2793 74       		.byte	0x74
 7899 2794 00       		.sleb128 0
 7900 2795 2F       		.uleb128 0x2f
 7901 2796 01       		.uleb128 0x1
 7902 2797 52       		.byte	0x52
 7903 2798 01       		.uleb128 0x1
 7904 2799 30       		.byte	0x30
 7905 279a 00       		.byte	0
 7906 279b 2E       		.uleb128 0x2e
 7907 279c 38050000 		.4byte	.LVL110
 7908 27a0 FD3B0000 		.4byte	0x3bfd
 7909 27a4 B6270000 		.4byte	0x27b6
 7910 27a8 2F       		.uleb128 0x2f
 7911 27a9 01       		.uleb128 0x1
 7912 27aa 50       		.byte	0x50
 7913 27ab 02       		.uleb128 0x2
 7914 27ac 74       		.byte	0x74
 7915 27ad 00       		.sleb128 0
 7916 27ae 2F       		.uleb128 0x2f
 7917 27af 01       		.uleb128 0x1
 7918 27b0 52       		.byte	0x52
 7919 27b1 03       		.uleb128 0x3
 7920 27b2 40       		.byte	0x40
 7921 27b3 3C       		.byte	0x3c
 7922 27b4 24       		.byte	0x24
 7923 27b5 00       		.byte	0
 7924 27b6 2E       		.uleb128 0x2e
 7925 27b7 46050000 		.4byte	.LVL111
 7926 27bb FD3B0000 		.4byte	0x3bfd
 7927 27bf D1270000 		.4byte	0x27d1
 7928 27c3 2F       		.uleb128 0x2f
 7929 27c4 01       		.uleb128 0x1
 7930 27c5 50       		.byte	0x50
 7931 27c6 02       		.uleb128 0x2
 7932 27c7 74       		.byte	0x74
 7933 27c8 00       		.sleb128 0
 7934 27c9 2F       		.uleb128 0x2f
ARM GAS  C:\Users\haske\AppData\Local\Temp\ccSAQWsX.s 			page 171


 7935 27ca 01       		.uleb128 0x1
 7936 27cb 52       		.byte	0x52
 7937 27cc 03       		.uleb128 0x3
 7938 27cd 44       		.byte	0x44
 7939 27ce 3E       		.byte	0x3e
 7940 27cf 24       		.byte	0x24
 7941 27d0 00       		.byte	0
 7942 27d1 2E       		.uleb128 0x2e
 7943 27d2 54050000 		.4byte	.LVL112
 7944 27d6 FD3B0000 		.4byte	0x3bfd
 7945 27da EC270000 		.4byte	0x27ec
 7946 27de 2F       		.uleb128 0x2f
 7947 27df 01       		.uleb128 0x1
 7948 27e0 50       		.byte	0x50
 7949 27e1 02       		.uleb128 0x2
 7950 27e2 74       		.byte	0x74
 7951 27e3 00       		.sleb128 0
 7952 27e4 2F       		.uleb128 0x2f
 7953 27e5 01       		.uleb128 0x1
 7954 27e6 52       		.byte	0x52
 7955 27e7 03       		.uleb128 0x3
 7956 27e8 48       		.byte	0x48
 7957 27e9 3E       		.byte	0x3e
 7958 27ea 24       		.byte	0x24
 7959 27eb 00       		.byte	0
 7960 27ec 2E       		.uleb128 0x2e
 7961 27ed 62050000 		.4byte	.LVL113
 7962 27f1 FD3B0000 		.4byte	0x3bfd
 7963 27f5 07280000 		.4byte	0x2807
 7964 27f9 2F       		.uleb128 0x2f
 7965 27fa 01       		.uleb128 0x1
 7966 27fb 50       		.byte	0x50
 7967 27fc 02       		.uleb128 0x2
 7968 27fd 74       		.byte	0x74
 7969 27fe 00       		.sleb128 0
 7970 27ff 2F       		.uleb128 0x2f
 7971 2800 01       		.uleb128 0x1
 7972 2801 52       		.byte	0x52
 7973 2802 03       		.uleb128 0x3
 7974 2803 4C       		.byte	0x4c
 7975 2804 3E       		.byte	0x3e
 7976 2805 24       		.byte	0x24
 7977 2806 00       		.byte	0
 7978 2807 2E       		.uleb128 0x2e
 7979 2808 6E050000 		.4byte	.LVL114
 7980 280c FD3B0000 		.4byte	0x3bfd
 7981 2810 20280000 		.4byte	0x2820
 7982 2814 2F       		.uleb128 0x2f
 7983 2815 01       		.uleb128 0x1
 7984 2816 50       		.byte	0x50
 7985 2817 02       		.uleb128 0x2
 7986 2818 74       		.byte	0x74
 7987 2819 00       		.sleb128 0
 7988 281a 2F       		.uleb128 0x2f
 7989 281b 01       		.uleb128 0x1
 7990 281c 52       		.byte	0x52
 7991 281d 01       		.uleb128 0x1
ARM GAS  C:\Users\haske\AppData\Local\Temp\ccSAQWsX.s 			page 172


 7992 281e 34       		.byte	0x34
 7993 281f 00       		.byte	0
 7994 2820 2E       		.uleb128 0x2e
 7995 2821 78050000 		.4byte	.LVL115
 7996 2825 F13B0000 		.4byte	0x3bf1
 7997 2829 34280000 		.4byte	0x2834
 7998 282d 2F       		.uleb128 0x2f
 7999 282e 01       		.uleb128 0x1
 8000 282f 50       		.byte	0x50
 8001 2830 02       		.uleb128 0x2
 8002 2831 74       		.byte	0x74
 8003 2832 00       		.sleb128 0
 8004 2833 00       		.byte	0
 8005 2834 2E       		.uleb128 0x2e
 8006 2835 8A050000 		.4byte	.LVL116
 8007 2839 FD3B0000 		.4byte	0x3bfd
 8008 283d 4D280000 		.4byte	0x284d
 8009 2841 2F       		.uleb128 0x2f
 8010 2842 01       		.uleb128 0x1
 8011 2843 50       		.byte	0x50
 8012 2844 02       		.uleb128 0x2
 8013 2845 74       		.byte	0x74
 8014 2846 00       		.sleb128 0
 8015 2847 2F       		.uleb128 0x2f
 8016 2848 01       		.uleb128 0x1
 8017 2849 52       		.byte	0x52
 8018 284a 01       		.uleb128 0x1
 8019 284b 30       		.byte	0x30
 8020 284c 00       		.byte	0
 8021 284d 2E       		.uleb128 0x2e
 8022 284e 96050000 		.4byte	.LVL117
 8023 2852 FD3B0000 		.4byte	0x3bfd
 8024 2856 66280000 		.4byte	0x2866
 8025 285a 2F       		.uleb128 0x2f
 8026 285b 01       		.uleb128 0x1
 8027 285c 50       		.byte	0x50
 8028 285d 02       		.uleb128 0x2
 8029 285e 74       		.byte	0x74
 8030 285f 00       		.sleb128 0
 8031 2860 2F       		.uleb128 0x2f
 8032 2861 01       		.uleb128 0x1
 8033 2862 52       		.byte	0x52
 8034 2863 01       		.uleb128 0x1
 8035 2864 30       		.byte	0x30
 8036 2865 00       		.byte	0
 8037 2866 2E       		.uleb128 0x2e
 8038 2867 A4050000 		.4byte	.LVL118
 8039 286b FD3B0000 		.4byte	0x3bfd
 8040 286f 81280000 		.4byte	0x2881
 8041 2873 2F       		.uleb128 0x2f
 8042 2874 01       		.uleb128 0x1
 8043 2875 50       		.byte	0x50
 8044 2876 02       		.uleb128 0x2
 8045 2877 74       		.byte	0x74
 8046 2878 00       		.sleb128 0
 8047 2879 2F       		.uleb128 0x2f
 8048 287a 01       		.uleb128 0x1
ARM GAS  C:\Users\haske\AppData\Local\Temp\ccSAQWsX.s 			page 173


 8049 287b 52       		.byte	0x52
 8050 287c 03       		.uleb128 0x3
 8051 287d 40       		.byte	0x40
 8052 287e 3E       		.byte	0x3e
 8053 287f 24       		.byte	0x24
 8054 2880 00       		.byte	0
 8055 2881 2E       		.uleb128 0x2e
 8056 2882 B0050000 		.4byte	.LVL119
 8057 2886 FD3B0000 		.4byte	0x3bfd
 8058 288a 9A280000 		.4byte	0x289a
 8059 288e 2F       		.uleb128 0x2f
 8060 288f 01       		.uleb128 0x1
 8061 2890 50       		.byte	0x50
 8062 2891 02       		.uleb128 0x2
 8063 2892 74       		.byte	0x74
 8064 2893 00       		.sleb128 0
 8065 2894 2F       		.uleb128 0x2f
 8066 2895 01       		.uleb128 0x1
 8067 2896 52       		.byte	0x52
 8068 2897 01       		.uleb128 0x1
 8069 2898 34       		.byte	0x34
 8070 2899 00       		.byte	0
 8071 289a 2E       		.uleb128 0x2e
 8072 289b BC050000 		.4byte	.LVL120
 8073 289f FD3B0000 		.4byte	0x3bfd
 8074 28a3 B3280000 		.4byte	0x28b3
 8075 28a7 2F       		.uleb128 0x2f
 8076 28a8 01       		.uleb128 0x1
 8077 28a9 50       		.byte	0x50
 8078 28aa 02       		.uleb128 0x2
 8079 28ab 74       		.byte	0x74
 8080 28ac 00       		.sleb128 0
 8081 28ad 2F       		.uleb128 0x2f
 8082 28ae 01       		.uleb128 0x1
 8083 28af 52       		.byte	0x52
 8084 28b0 01       		.uleb128 0x1
 8085 28b1 38       		.byte	0x38
 8086 28b2 00       		.byte	0
 8087 28b3 2E       		.uleb128 0x2e
 8088 28b4 C6050000 		.4byte	.LVL121
 8089 28b8 F13B0000 		.4byte	0x3bf1
 8090 28bc C7280000 		.4byte	0x28c7
 8091 28c0 2F       		.uleb128 0x2f
 8092 28c1 01       		.uleb128 0x1
 8093 28c2 50       		.byte	0x50
 8094 28c3 02       		.uleb128 0x2
 8095 28c4 74       		.byte	0x74
 8096 28c5 00       		.sleb128 0
 8097 28c6 00       		.byte	0
 8098 28c7 2E       		.uleb128 0x2e
 8099 28c8 D8050000 		.4byte	.LVL122
 8100 28cc FD3B0000 		.4byte	0x3bfd
 8101 28d0 E0280000 		.4byte	0x28e0
 8102 28d4 2F       		.uleb128 0x2f
 8103 28d5 01       		.uleb128 0x1
 8104 28d6 50       		.byte	0x50
 8105 28d7 02       		.uleb128 0x2
ARM GAS  C:\Users\haske\AppData\Local\Temp\ccSAQWsX.s 			page 174


 8106 28d8 74       		.byte	0x74
 8107 28d9 00       		.sleb128 0
 8108 28da 2F       		.uleb128 0x2f
 8109 28db 01       		.uleb128 0x1
 8110 28dc 52       		.byte	0x52
 8111 28dd 01       		.uleb128 0x1
 8112 28de 30       		.byte	0x30
 8113 28df 00       		.byte	0
 8114 28e0 2E       		.uleb128 0x2e
 8115 28e1 E4050000 		.4byte	.LVL123
 8116 28e5 FD3B0000 		.4byte	0x3bfd
 8117 28e9 FA280000 		.4byte	0x28fa
 8118 28ed 2F       		.uleb128 0x2f
 8119 28ee 01       		.uleb128 0x1
 8120 28ef 50       		.byte	0x50
 8121 28f0 02       		.uleb128 0x2
 8122 28f1 74       		.byte	0x74
 8123 28f2 00       		.sleb128 0
 8124 28f3 2F       		.uleb128 0x2f
 8125 28f4 01       		.uleb128 0x1
 8126 28f5 52       		.byte	0x52
 8127 28f6 02       		.uleb128 0x2
 8128 28f7 08       		.byte	0x8
 8129 28f8 20       		.byte	0x20
 8130 28f9 00       		.byte	0
 8131 28fa 2E       		.uleb128 0x2e
 8132 28fb F0050000 		.4byte	.LVL124
 8133 28ff FD3B0000 		.4byte	0x3bfd
 8134 2903 13290000 		.4byte	0x2913
 8135 2907 2F       		.uleb128 0x2f
 8136 2908 01       		.uleb128 0x1
 8137 2909 50       		.byte	0x50
 8138 290a 02       		.uleb128 0x2
 8139 290b 74       		.byte	0x74
 8140 290c 00       		.sleb128 0
 8141 290d 2F       		.uleb128 0x2f
 8142 290e 01       		.uleb128 0x1
 8143 290f 52       		.byte	0x52
 8144 2910 01       		.uleb128 0x1
 8145 2911 34       		.byte	0x34
 8146 2912 00       		.byte	0
 8147 2913 2E       		.uleb128 0x2e
 8148 2914 FC050000 		.4byte	.LVL125
 8149 2918 FD3B0000 		.4byte	0x3bfd
 8150 291c 2C290000 		.4byte	0x292c
 8151 2920 2F       		.uleb128 0x2f
 8152 2921 01       		.uleb128 0x1
 8153 2922 50       		.byte	0x50
 8154 2923 02       		.uleb128 0x2
 8155 2924 74       		.byte	0x74
 8156 2925 00       		.sleb128 0
 8157 2926 2F       		.uleb128 0x2f
 8158 2927 01       		.uleb128 0x1
 8159 2928 52       		.byte	0x52
 8160 2929 01       		.uleb128 0x1
 8161 292a 38       		.byte	0x38
 8162 292b 00       		.byte	0
ARM GAS  C:\Users\haske\AppData\Local\Temp\ccSAQWsX.s 			page 175


 8163 292c 2E       		.uleb128 0x2e
 8164 292d 06060000 		.4byte	.LVL126
 8165 2931 F13B0000 		.4byte	0x3bf1
 8166 2935 40290000 		.4byte	0x2940
 8167 2939 2F       		.uleb128 0x2f
 8168 293a 01       		.uleb128 0x1
 8169 293b 50       		.byte	0x50
 8170 293c 02       		.uleb128 0x2
 8171 293d 74       		.byte	0x74
 8172 293e 00       		.sleb128 0
 8173 293f 00       		.byte	0
 8174 2940 2E       		.uleb128 0x2e
 8175 2941 18060000 		.4byte	.LVL127
 8176 2945 FD3B0000 		.4byte	0x3bfd
 8177 2949 59290000 		.4byte	0x2959
 8178 294d 2F       		.uleb128 0x2f
 8179 294e 01       		.uleb128 0x1
 8180 294f 50       		.byte	0x50
 8181 2950 02       		.uleb128 0x2
 8182 2951 74       		.byte	0x74
 8183 2952 00       		.sleb128 0
 8184 2953 2F       		.uleb128 0x2f
 8185 2954 01       		.uleb128 0x1
 8186 2955 52       		.byte	0x52
 8187 2956 01       		.uleb128 0x1
 8188 2957 30       		.byte	0x30
 8189 2958 00       		.byte	0
 8190 2959 2E       		.uleb128 0x2e
 8191 295a 24060000 		.4byte	.LVL128
 8192 295e FD3B0000 		.4byte	0x3bfd
 8193 2962 72290000 		.4byte	0x2972
 8194 2966 2F       		.uleb128 0x2f
 8195 2967 01       		.uleb128 0x1
 8196 2968 50       		.byte	0x50
 8197 2969 02       		.uleb128 0x2
 8198 296a 74       		.byte	0x74
 8199 296b 00       		.sleb128 0
 8200 296c 2F       		.uleb128 0x2f
 8201 296d 01       		.uleb128 0x1
 8202 296e 52       		.byte	0x52
 8203 296f 01       		.uleb128 0x1
 8204 2970 30       		.byte	0x30
 8205 2971 00       		.byte	0
 8206 2972 2E       		.uleb128 0x2e
 8207 2973 32060000 		.4byte	.LVL129
 8208 2977 FD3B0000 		.4byte	0x3bfd
 8209 297b 8D290000 		.4byte	0x298d
 8210 297f 2F       		.uleb128 0x2f
 8211 2980 01       		.uleb128 0x1
 8212 2981 50       		.byte	0x50
 8213 2982 02       		.uleb128 0x2
 8214 2983 74       		.byte	0x74
 8215 2984 00       		.sleb128 0
 8216 2985 2F       		.uleb128 0x2f
 8217 2986 01       		.uleb128 0x1
 8218 2987 52       		.byte	0x52
 8219 2988 03       		.uleb128 0x3
ARM GAS  C:\Users\haske\AppData\Local\Temp\ccSAQWsX.s 			page 176


 8220 2989 40       		.byte	0x40
 8221 298a 3C       		.byte	0x3c
 8222 298b 24       		.byte	0x24
 8223 298c 00       		.byte	0
 8224 298d 2E       		.uleb128 0x2e
 8225 298e 3E060000 		.4byte	.LVL130
 8226 2992 FD3B0000 		.4byte	0x3bfd
 8227 2996 AA290000 		.4byte	0x29aa
 8228 299a 2F       		.uleb128 0x2f
 8229 299b 01       		.uleb128 0x1
 8230 299c 50       		.byte	0x50
 8231 299d 02       		.uleb128 0x2
 8232 299e 74       		.byte	0x74
 8233 299f 00       		.sleb128 0
 8234 29a0 2F       		.uleb128 0x2f
 8235 29a1 01       		.uleb128 0x1
 8236 29a2 52       		.byte	0x52
 8237 29a3 05       		.uleb128 0x5
 8238 29a4 0C       		.byte	0xc
 8239 29a5 01000400 		.4byte	0x40001
 8240 29a9 00       		.byte	0
 8241 29aa 2E       		.uleb128 0x2e
 8242 29ab 4A060000 		.4byte	.LVL131
 8243 29af FD3B0000 		.4byte	0x3bfd
 8244 29b3 C7290000 		.4byte	0x29c7
 8245 29b7 2F       		.uleb128 0x2f
 8246 29b8 01       		.uleb128 0x1
 8247 29b9 50       		.byte	0x50
 8248 29ba 02       		.uleb128 0x2
 8249 29bb 74       		.byte	0x74
 8250 29bc 00       		.sleb128 0
 8251 29bd 2F       		.uleb128 0x2f
 8252 29be 01       		.uleb128 0x1
 8253 29bf 52       		.byte	0x52
 8254 29c0 05       		.uleb128 0x5
 8255 29c1 0C       		.byte	0xc
 8256 29c2 20000400 		.4byte	0x40020
 8257 29c6 00       		.byte	0
 8258 29c7 2E       		.uleb128 0x2e
 8259 29c8 56060000 		.4byte	.LVL132
 8260 29cc FD3B0000 		.4byte	0x3bfd
 8261 29d0 E0290000 		.4byte	0x29e0
 8262 29d4 2F       		.uleb128 0x2f
 8263 29d5 01       		.uleb128 0x1
 8264 29d6 50       		.byte	0x50
 8265 29d7 02       		.uleb128 0x2
 8266 29d8 74       		.byte	0x74
 8267 29d9 00       		.sleb128 0
 8268 29da 2F       		.uleb128 0x2f
 8269 29db 01       		.uleb128 0x1
 8270 29dc 52       		.byte	0x52
 8271 29dd 01       		.uleb128 0x1
 8272 29de 34       		.byte	0x34
 8273 29df 00       		.byte	0
 8274 29e0 2E       		.uleb128 0x2e
 8275 29e1 62060000 		.4byte	.LVL133
 8276 29e5 FD3B0000 		.4byte	0x3bfd
ARM GAS  C:\Users\haske\AppData\Local\Temp\ccSAQWsX.s 			page 177


 8277 29e9 F9290000 		.4byte	0x29f9
 8278 29ed 2F       		.uleb128 0x2f
 8279 29ee 01       		.uleb128 0x1
 8280 29ef 50       		.byte	0x50
 8281 29f0 02       		.uleb128 0x2
 8282 29f1 74       		.byte	0x74
 8283 29f2 00       		.sleb128 0
 8284 29f3 2F       		.uleb128 0x2f
 8285 29f4 01       		.uleb128 0x1
 8286 29f5 52       		.byte	0x52
 8287 29f6 01       		.uleb128 0x1
 8288 29f7 38       		.byte	0x38
 8289 29f8 00       		.byte	0
 8290 29f9 2E       		.uleb128 0x2e
 8291 29fa 6C060000 		.4byte	.LVL134
 8292 29fe F13B0000 		.4byte	0x3bf1
 8293 2a02 0D2A0000 		.4byte	0x2a0d
 8294 2a06 2F       		.uleb128 0x2f
 8295 2a07 01       		.uleb128 0x1
 8296 2a08 50       		.byte	0x50
 8297 2a09 02       		.uleb128 0x2
 8298 2a0a 74       		.byte	0x74
 8299 2a0b 00       		.sleb128 0
 8300 2a0c 00       		.byte	0
 8301 2a0d 2E       		.uleb128 0x2e
 8302 2a0e 7E060000 		.4byte	.LVL135
 8303 2a12 FD3B0000 		.4byte	0x3bfd
 8304 2a16 262A0000 		.4byte	0x2a26
 8305 2a1a 2F       		.uleb128 0x2f
 8306 2a1b 01       		.uleb128 0x1
 8307 2a1c 50       		.byte	0x50
 8308 2a1d 02       		.uleb128 0x2
 8309 2a1e 74       		.byte	0x74
 8310 2a1f 00       		.sleb128 0
 8311 2a20 2F       		.uleb128 0x2f
 8312 2a21 01       		.uleb128 0x1
 8313 2a22 52       		.byte	0x52
 8314 2a23 01       		.uleb128 0x1
 8315 2a24 30       		.byte	0x30
 8316 2a25 00       		.byte	0
 8317 2a26 2E       		.uleb128 0x2e
 8318 2a27 8E060000 		.4byte	.LVL136
 8319 2a2b FD3B0000 		.4byte	0x3bfd
 8320 2a2f 402A0000 		.4byte	0x2a40
 8321 2a33 2F       		.uleb128 0x2f
 8322 2a34 01       		.uleb128 0x1
 8323 2a35 50       		.byte	0x50
 8324 2a36 02       		.uleb128 0x2
 8325 2a37 74       		.byte	0x74
 8326 2a38 00       		.sleb128 0
 8327 2a39 2F       		.uleb128 0x2f
 8328 2a3a 01       		.uleb128 0x1
 8329 2a3b 52       		.byte	0x52
 8330 2a3c 02       		.uleb128 0x2
 8331 2a3d 76       		.byte	0x76
 8332 2a3e 00       		.sleb128 0
 8333 2a3f 00       		.byte	0
ARM GAS  C:\Users\haske\AppData\Local\Temp\ccSAQWsX.s 			page 178


 8334 2a40 2E       		.uleb128 0x2e
 8335 2a41 9A060000 		.4byte	.LVL137
 8336 2a45 FD3B0000 		.4byte	0x3bfd
 8337 2a49 5A2A0000 		.4byte	0x2a5a
 8338 2a4d 2F       		.uleb128 0x2f
 8339 2a4e 01       		.uleb128 0x1
 8340 2a4f 50       		.byte	0x50
 8341 2a50 02       		.uleb128 0x2
 8342 2a51 74       		.byte	0x74
 8343 2a52 00       		.sleb128 0
 8344 2a53 2F       		.uleb128 0x2f
 8345 2a54 01       		.uleb128 0x1
 8346 2a55 52       		.byte	0x52
 8347 2a56 02       		.uleb128 0x2
 8348 2a57 76       		.byte	0x76
 8349 2a58 00       		.sleb128 0
 8350 2a59 00       		.byte	0
 8351 2a5a 2E       		.uleb128 0x2e
 8352 2a5b AA060000 		.4byte	.LVL138
 8353 2a5f FD3B0000 		.4byte	0x3bfd
 8354 2a63 742A0000 		.4byte	0x2a74
 8355 2a67 2F       		.uleb128 0x2f
 8356 2a68 01       		.uleb128 0x1
 8357 2a69 50       		.byte	0x50
 8358 2a6a 02       		.uleb128 0x2
 8359 2a6b 74       		.byte	0x74
 8360 2a6c 00       		.sleb128 0
 8361 2a6d 2F       		.uleb128 0x2f
 8362 2a6e 01       		.uleb128 0x1
 8363 2a6f 52       		.byte	0x52
 8364 2a70 02       		.uleb128 0x2
 8365 2a71 76       		.byte	0x76
 8366 2a72 00       		.sleb128 0
 8367 2a73 00       		.byte	0
 8368 2a74 2E       		.uleb128 0x2e
 8369 2a75 B6060000 		.4byte	.LVL139
 8370 2a79 FD3B0000 		.4byte	0x3bfd
 8371 2a7d 8E2A0000 		.4byte	0x2a8e
 8372 2a81 2F       		.uleb128 0x2f
 8373 2a82 01       		.uleb128 0x1
 8374 2a83 50       		.byte	0x50
 8375 2a84 02       		.uleb128 0x2
 8376 2a85 74       		.byte	0x74
 8377 2a86 00       		.sleb128 0
 8378 2a87 2F       		.uleb128 0x2f
 8379 2a88 01       		.uleb128 0x1
 8380 2a89 52       		.byte	0x52
 8381 2a8a 02       		.uleb128 0x2
 8382 2a8b 76       		.byte	0x76
 8383 2a8c 00       		.sleb128 0
 8384 2a8d 00       		.byte	0
 8385 2a8e 2E       		.uleb128 0x2e
 8386 2a8f C2060000 		.4byte	.LVL140
 8387 2a93 FD3B0000 		.4byte	0x3bfd
 8388 2a97 A72A0000 		.4byte	0x2aa7
 8389 2a9b 2F       		.uleb128 0x2f
 8390 2a9c 01       		.uleb128 0x1
ARM GAS  C:\Users\haske\AppData\Local\Temp\ccSAQWsX.s 			page 179


 8391 2a9d 50       		.byte	0x50
 8392 2a9e 02       		.uleb128 0x2
 8393 2a9f 74       		.byte	0x74
 8394 2aa0 00       		.sleb128 0
 8395 2aa1 2F       		.uleb128 0x2f
 8396 2aa2 01       		.uleb128 0x1
 8397 2aa3 52       		.byte	0x52
 8398 2aa4 01       		.uleb128 0x1
 8399 2aa5 34       		.byte	0x34
 8400 2aa6 00       		.byte	0
 8401 2aa7 2E       		.uleb128 0x2e
 8402 2aa8 CE060000 		.4byte	.LVL141
 8403 2aac FD3B0000 		.4byte	0x3bfd
 8404 2ab0 C02A0000 		.4byte	0x2ac0
 8405 2ab4 2F       		.uleb128 0x2f
 8406 2ab5 01       		.uleb128 0x1
 8407 2ab6 50       		.byte	0x50
 8408 2ab7 02       		.uleb128 0x2
 8409 2ab8 74       		.byte	0x74
 8410 2ab9 00       		.sleb128 0
 8411 2aba 2F       		.uleb128 0x2f
 8412 2abb 01       		.uleb128 0x1
 8413 2abc 52       		.byte	0x52
 8414 2abd 01       		.uleb128 0x1
 8415 2abe 38       		.byte	0x38
 8416 2abf 00       		.byte	0
 8417 2ac0 2E       		.uleb128 0x2e
 8418 2ac1 D8060000 		.4byte	.LVL142
 8419 2ac5 F13B0000 		.4byte	0x3bf1
 8420 2ac9 D42A0000 		.4byte	0x2ad4
 8421 2acd 2F       		.uleb128 0x2f
 8422 2ace 01       		.uleb128 0x1
 8423 2acf 50       		.byte	0x50
 8424 2ad0 02       		.uleb128 0x2
 8425 2ad1 74       		.byte	0x74
 8426 2ad2 00       		.sleb128 0
 8427 2ad3 00       		.byte	0
 8428 2ad4 2E       		.uleb128 0x2e
 8429 2ad5 EA060000 		.4byte	.LVL143
 8430 2ad9 FD3B0000 		.4byte	0x3bfd
 8431 2add ED2A0000 		.4byte	0x2aed
 8432 2ae1 2F       		.uleb128 0x2f
 8433 2ae2 01       		.uleb128 0x1
 8434 2ae3 50       		.byte	0x50
 8435 2ae4 02       		.uleb128 0x2
 8436 2ae5 74       		.byte	0x74
 8437 2ae6 00       		.sleb128 0
 8438 2ae7 2F       		.uleb128 0x2f
 8439 2ae8 01       		.uleb128 0x1
 8440 2ae9 52       		.byte	0x52
 8441 2aea 01       		.uleb128 0x1
 8442 2aeb 30       		.byte	0x30
 8443 2aec 00       		.byte	0
 8444 2aed 2E       		.uleb128 0x2e
 8445 2aee F4060000 		.4byte	.LVL144
 8446 2af2 F13B0000 		.4byte	0x3bf1
 8447 2af6 012B0000 		.4byte	0x2b01
ARM GAS  C:\Users\haske\AppData\Local\Temp\ccSAQWsX.s 			page 180


 8448 2afa 2F       		.uleb128 0x2f
 8449 2afb 01       		.uleb128 0x1
 8450 2afc 50       		.byte	0x50
 8451 2afd 02       		.uleb128 0x2
 8452 2afe 74       		.byte	0x74
 8453 2aff 00       		.sleb128 0
 8454 2b00 00       		.byte	0
 8455 2b01 2E       		.uleb128 0x2e
 8456 2b02 06070000 		.4byte	.LVL145
 8457 2b06 FD3B0000 		.4byte	0x3bfd
 8458 2b0a 1A2B0000 		.4byte	0x2b1a
 8459 2b0e 2F       		.uleb128 0x2f
 8460 2b0f 01       		.uleb128 0x1
 8461 2b10 50       		.byte	0x50
 8462 2b11 02       		.uleb128 0x2
 8463 2b12 74       		.byte	0x74
 8464 2b13 00       		.sleb128 0
 8465 2b14 2F       		.uleb128 0x2f
 8466 2b15 01       		.uleb128 0x1
 8467 2b16 52       		.byte	0x52
 8468 2b17 01       		.uleb128 0x1
 8469 2b18 30       		.byte	0x30
 8470 2b19 00       		.byte	0
 8471 2b1a 2E       		.uleb128 0x2e
 8472 2b1b 14070000 		.4byte	.LVL146
 8473 2b1f FD3B0000 		.4byte	0x3bfd
 8474 2b23 352B0000 		.4byte	0x2b35
 8475 2b27 2F       		.uleb128 0x2f
 8476 2b28 01       		.uleb128 0x1
 8477 2b29 50       		.byte	0x50
 8478 2b2a 02       		.uleb128 0x2
 8479 2b2b 74       		.byte	0x74
 8480 2b2c 00       		.sleb128 0
 8481 2b2d 2F       		.uleb128 0x2f
 8482 2b2e 01       		.uleb128 0x1
 8483 2b2f 52       		.byte	0x52
 8484 2b30 03       		.uleb128 0x3
 8485 2b31 40       		.byte	0x40
 8486 2b32 3C       		.byte	0x3c
 8487 2b33 24       		.byte	0x24
 8488 2b34 00       		.byte	0
 8489 2b35 2E       		.uleb128 0x2e
 8490 2b36 20070000 		.4byte	.LVL147
 8491 2b3a FD3B0000 		.4byte	0x3bfd
 8492 2b3e 522B0000 		.4byte	0x2b52
 8493 2b42 2F       		.uleb128 0x2f
 8494 2b43 01       		.uleb128 0x1
 8495 2b44 50       		.byte	0x50
 8496 2b45 02       		.uleb128 0x2
 8497 2b46 74       		.byte	0x74
 8498 2b47 00       		.sleb128 0
 8499 2b48 2F       		.uleb128 0x2f
 8500 2b49 01       		.uleb128 0x1
 8501 2b4a 52       		.byte	0x52
 8502 2b4b 05       		.uleb128 0x5
 8503 2b4c 0C       		.byte	0xc
 8504 2b4d 02000700 		.4byte	0x70002
ARM GAS  C:\Users\haske\AppData\Local\Temp\ccSAQWsX.s 			page 181


 8505 2b51 00       		.byte	0
 8506 2b52 2E       		.uleb128 0x2e
 8507 2b53 2C070000 		.4byte	.LVL148
 8508 2b57 FD3B0000 		.4byte	0x3bfd
 8509 2b5b 6B2B0000 		.4byte	0x2b6b
 8510 2b5f 2F       		.uleb128 0x2f
 8511 2b60 01       		.uleb128 0x1
 8512 2b61 50       		.byte	0x50
 8513 2b62 02       		.uleb128 0x2
 8514 2b63 74       		.byte	0x74
 8515 2b64 00       		.sleb128 0
 8516 2b65 2F       		.uleb128 0x2f
 8517 2b66 01       		.uleb128 0x1
 8518 2b67 52       		.byte	0x52
 8519 2b68 01       		.uleb128 0x1
 8520 2b69 32       		.byte	0x32
 8521 2b6a 00       		.byte	0
 8522 2b6b 2E       		.uleb128 0x2e
 8523 2b6c 38070000 		.4byte	.LVL149
 8524 2b70 FD3B0000 		.4byte	0x3bfd
 8525 2b74 842B0000 		.4byte	0x2b84
 8526 2b78 2F       		.uleb128 0x2f
 8527 2b79 01       		.uleb128 0x1
 8528 2b7a 50       		.byte	0x50
 8529 2b7b 02       		.uleb128 0x2
 8530 2b7c 74       		.byte	0x74
 8531 2b7d 00       		.sleb128 0
 8532 2b7e 2F       		.uleb128 0x2f
 8533 2b7f 01       		.uleb128 0x1
 8534 2b80 52       		.byte	0x52
 8535 2b81 01       		.uleb128 0x1
 8536 2b82 38       		.byte	0x38
 8537 2b83 00       		.byte	0
 8538 2b84 2E       		.uleb128 0x2e
 8539 2b85 90070000 		.4byte	.LVL150
 8540 2b89 F13B0000 		.4byte	0x3bf1
 8541 2b8d 982B0000 		.4byte	0x2b98
 8542 2b91 2F       		.uleb128 0x2f
 8543 2b92 01       		.uleb128 0x1
 8544 2b93 50       		.byte	0x50
 8545 2b94 02       		.uleb128 0x2
 8546 2b95 74       		.byte	0x74
 8547 2b96 00       		.sleb128 0
 8548 2b97 00       		.byte	0
 8549 2b98 2E       		.uleb128 0x2e
 8550 2b99 A2070000 		.4byte	.LVL151
 8551 2b9d FD3B0000 		.4byte	0x3bfd
 8552 2ba1 B12B0000 		.4byte	0x2bb1
 8553 2ba5 2F       		.uleb128 0x2f
 8554 2ba6 01       		.uleb128 0x1
 8555 2ba7 50       		.byte	0x50
 8556 2ba8 02       		.uleb128 0x2
 8557 2ba9 74       		.byte	0x74
 8558 2baa 00       		.sleb128 0
 8559 2bab 2F       		.uleb128 0x2f
 8560 2bac 01       		.uleb128 0x1
 8561 2bad 52       		.byte	0x52
ARM GAS  C:\Users\haske\AppData\Local\Temp\ccSAQWsX.s 			page 182


 8562 2bae 01       		.uleb128 0x1
 8563 2baf 30       		.byte	0x30
 8564 2bb0 00       		.byte	0
 8565 2bb1 2E       		.uleb128 0x2e
 8566 2bb2 AE070000 		.4byte	.LVL152
 8567 2bb6 FD3B0000 		.4byte	0x3bfd
 8568 2bba CA2B0000 		.4byte	0x2bca
 8569 2bbe 2F       		.uleb128 0x2f
 8570 2bbf 01       		.uleb128 0x1
 8571 2bc0 50       		.byte	0x50
 8572 2bc1 02       		.uleb128 0x2
 8573 2bc2 74       		.byte	0x74
 8574 2bc3 00       		.sleb128 0
 8575 2bc4 2F       		.uleb128 0x2f
 8576 2bc5 01       		.uleb128 0x1
 8577 2bc6 52       		.byte	0x52
 8578 2bc7 01       		.uleb128 0x1
 8579 2bc8 30       		.byte	0x30
 8580 2bc9 00       		.byte	0
 8581 2bca 2E       		.uleb128 0x2e
 8582 2bcb BA070000 		.4byte	.LVL153
 8583 2bcf FD3B0000 		.4byte	0x3bfd
 8584 2bd3 E72B0000 		.4byte	0x2be7
 8585 2bd7 2F       		.uleb128 0x2f
 8586 2bd8 01       		.uleb128 0x1
 8587 2bd9 50       		.byte	0x50
 8588 2bda 02       		.uleb128 0x2
 8589 2bdb 74       		.byte	0x74
 8590 2bdc 00       		.sleb128 0
 8591 2bdd 2F       		.uleb128 0x2f
 8592 2bde 01       		.uleb128 0x1
 8593 2bdf 52       		.byte	0x52
 8594 2be0 05       		.uleb128 0x5
 8595 2be1 0C       		.byte	0xc
 8596 2be2 20000500 		.4byte	0x50020
 8597 2be6 00       		.byte	0
 8598 2be7 2E       		.uleb128 0x2e
 8599 2be8 C6070000 		.4byte	.LVL154
 8600 2bec FD3B0000 		.4byte	0x3bfd
 8601 2bf0 042C0000 		.4byte	0x2c04
 8602 2bf4 2F       		.uleb128 0x2f
 8603 2bf5 01       		.uleb128 0x1
 8604 2bf6 50       		.byte	0x50
 8605 2bf7 02       		.uleb128 0x2
 8606 2bf8 74       		.byte	0x74
 8607 2bf9 00       		.sleb128 0
 8608 2bfa 2F       		.uleb128 0x2f
 8609 2bfb 01       		.uleb128 0x1
 8610 2bfc 52       		.byte	0x52
 8611 2bfd 05       		.uleb128 0x5
 8612 2bfe 0C       		.byte	0xc
 8613 2bff 80000500 		.4byte	0x50080
 8614 2c03 00       		.byte	0
 8615 2c04 2E       		.uleb128 0x2e
 8616 2c05 D2070000 		.4byte	.LVL155
 8617 2c09 FD3B0000 		.4byte	0x3bfd
 8618 2c0d 1D2C0000 		.4byte	0x2c1d
ARM GAS  C:\Users\haske\AppData\Local\Temp\ccSAQWsX.s 			page 183


 8619 2c11 2F       		.uleb128 0x2f
 8620 2c12 01       		.uleb128 0x1
 8621 2c13 50       		.byte	0x50
 8622 2c14 02       		.uleb128 0x2
 8623 2c15 74       		.byte	0x74
 8624 2c16 00       		.sleb128 0
 8625 2c17 2F       		.uleb128 0x2f
 8626 2c18 01       		.uleb128 0x1
 8627 2c19 52       		.byte	0x52
 8628 2c1a 01       		.uleb128 0x1
 8629 2c1b 34       		.byte	0x34
 8630 2c1c 00       		.byte	0
 8631 2c1d 2E       		.uleb128 0x2e
 8632 2c1e DE070000 		.4byte	.LVL156
 8633 2c22 FD3B0000 		.4byte	0x3bfd
 8634 2c26 362C0000 		.4byte	0x2c36
 8635 2c2a 2F       		.uleb128 0x2f
 8636 2c2b 01       		.uleb128 0x1
 8637 2c2c 50       		.byte	0x50
 8638 2c2d 02       		.uleb128 0x2
 8639 2c2e 74       		.byte	0x74
 8640 2c2f 00       		.sleb128 0
 8641 2c30 2F       		.uleb128 0x2f
 8642 2c31 01       		.uleb128 0x1
 8643 2c32 52       		.byte	0x52
 8644 2c33 01       		.uleb128 0x1
 8645 2c34 38       		.byte	0x38
 8646 2c35 00       		.byte	0
 8647 2c36 2E       		.uleb128 0x2e
 8648 2c37 EA070000 		.4byte	.LVL157
 8649 2c3b FD3B0000 		.4byte	0x3bfd
 8650 2c3f 532C0000 		.4byte	0x2c53
 8651 2c43 2F       		.uleb128 0x2f
 8652 2c44 01       		.uleb128 0x1
 8653 2c45 50       		.byte	0x50
 8654 2c46 02       		.uleb128 0x2
 8655 2c47 74       		.byte	0x74
 8656 2c48 00       		.sleb128 0
 8657 2c49 2F       		.uleb128 0x2f
 8658 2c4a 01       		.uleb128 0x1
 8659 2c4b 52       		.byte	0x52
 8660 2c4c 05       		.uleb128 0x5
 8661 2c4d 0C       		.byte	0xc
 8662 2c4e 04000500 		.4byte	0x50004
 8663 2c52 00       		.byte	0
 8664 2c53 2E       		.uleb128 0x2e
 8665 2c54 F4070000 		.4byte	.LVL158
 8666 2c58 F13B0000 		.4byte	0x3bf1
 8667 2c5c 672C0000 		.4byte	0x2c67
 8668 2c60 2F       		.uleb128 0x2f
 8669 2c61 01       		.uleb128 0x1
 8670 2c62 50       		.byte	0x50
 8671 2c63 02       		.uleb128 0x2
 8672 2c64 74       		.byte	0x74
 8673 2c65 00       		.sleb128 0
 8674 2c66 00       		.byte	0
 8675 2c67 2E       		.uleb128 0x2e
ARM GAS  C:\Users\haske\AppData\Local\Temp\ccSAQWsX.s 			page 184


 8676 2c68 06080000 		.4byte	.LVL159
 8677 2c6c FD3B0000 		.4byte	0x3bfd
 8678 2c70 802C0000 		.4byte	0x2c80
 8679 2c74 2F       		.uleb128 0x2f
 8680 2c75 01       		.uleb128 0x1
 8681 2c76 50       		.byte	0x50
 8682 2c77 02       		.uleb128 0x2
 8683 2c78 74       		.byte	0x74
 8684 2c79 00       		.sleb128 0
 8685 2c7a 2F       		.uleb128 0x2f
 8686 2c7b 01       		.uleb128 0x1
 8687 2c7c 52       		.byte	0x52
 8688 2c7d 01       		.uleb128 0x1
 8689 2c7e 30       		.byte	0x30
 8690 2c7f 00       		.byte	0
 8691 2c80 2E       		.uleb128 0x2e
 8692 2c81 14080000 		.4byte	.LVL160
 8693 2c85 FD3B0000 		.4byte	0x3bfd
 8694 2c89 9B2C0000 		.4byte	0x2c9b
 8695 2c8d 2F       		.uleb128 0x2f
 8696 2c8e 01       		.uleb128 0x1
 8697 2c8f 50       		.byte	0x50
 8698 2c90 02       		.uleb128 0x2
 8699 2c91 74       		.byte	0x74
 8700 2c92 00       		.sleb128 0
 8701 2c93 2F       		.uleb128 0x2f
 8702 2c94 01       		.uleb128 0x1
 8703 2c95 52       		.byte	0x52
 8704 2c96 03       		.uleb128 0x3
 8705 2c97 44       		.byte	0x44
 8706 2c98 3E       		.byte	0x3e
 8707 2c99 24       		.byte	0x24
 8708 2c9a 00       		.byte	0
 8709 2c9b 2E       		.uleb128 0x2e
 8710 2c9c 20080000 		.4byte	.LVL161
 8711 2ca0 FD3B0000 		.4byte	0x3bfd
 8712 2ca4 B82C0000 		.4byte	0x2cb8
 8713 2ca8 2F       		.uleb128 0x2f
 8714 2ca9 01       		.uleb128 0x1
 8715 2caa 50       		.byte	0x50
 8716 2cab 02       		.uleb128 0x2
 8717 2cac 74       		.byte	0x74
 8718 2cad 00       		.sleb128 0
 8719 2cae 2F       		.uleb128 0x2f
 8720 2caf 01       		.uleb128 0x1
 8721 2cb0 52       		.byte	0x52
 8722 2cb1 05       		.uleb128 0x5
 8723 2cb2 0C       		.byte	0xc
 8724 2cb3 20000500 		.4byte	0x50020
 8725 2cb7 00       		.byte	0
 8726 2cb8 2E       		.uleb128 0x2e
 8727 2cb9 2C080000 		.4byte	.LVL162
 8728 2cbd FD3B0000 		.4byte	0x3bfd
 8729 2cc1 D52C0000 		.4byte	0x2cd5
 8730 2cc5 2F       		.uleb128 0x2f
 8731 2cc6 01       		.uleb128 0x1
 8732 2cc7 50       		.byte	0x50
ARM GAS  C:\Users\haske\AppData\Local\Temp\ccSAQWsX.s 			page 185


 8733 2cc8 02       		.uleb128 0x2
 8734 2cc9 74       		.byte	0x74
 8735 2cca 00       		.sleb128 0
 8736 2ccb 2F       		.uleb128 0x2f
 8737 2ccc 01       		.uleb128 0x1
 8738 2ccd 52       		.byte	0x52
 8739 2cce 05       		.uleb128 0x5
 8740 2ccf 0C       		.byte	0xc
 8741 2cd0 01000500 		.4byte	0x50001
 8742 2cd4 00       		.byte	0
 8743 2cd5 2E       		.uleb128 0x2e
 8744 2cd6 38080000 		.4byte	.LVL163
 8745 2cda FD3B0000 		.4byte	0x3bfd
 8746 2cde EE2C0000 		.4byte	0x2cee
 8747 2ce2 2F       		.uleb128 0x2f
 8748 2ce3 01       		.uleb128 0x1
 8749 2ce4 50       		.byte	0x50
 8750 2ce5 02       		.uleb128 0x2
 8751 2ce6 74       		.byte	0x74
 8752 2ce7 00       		.sleb128 0
 8753 2ce8 2F       		.uleb128 0x2f
 8754 2ce9 01       		.uleb128 0x1
 8755 2cea 52       		.byte	0x52
 8756 2ceb 01       		.uleb128 0x1
 8757 2cec 34       		.byte	0x34
 8758 2ced 00       		.byte	0
 8759 2cee 2E       		.uleb128 0x2e
 8760 2cef 44080000 		.4byte	.LVL164
 8761 2cf3 FD3B0000 		.4byte	0x3bfd
 8762 2cf7 072D0000 		.4byte	0x2d07
 8763 2cfb 2F       		.uleb128 0x2f
 8764 2cfc 01       		.uleb128 0x1
 8765 2cfd 50       		.byte	0x50
 8766 2cfe 02       		.uleb128 0x2
 8767 2cff 74       		.byte	0x74
 8768 2d00 00       		.sleb128 0
 8769 2d01 2F       		.uleb128 0x2f
 8770 2d02 01       		.uleb128 0x1
 8771 2d03 52       		.byte	0x52
 8772 2d04 01       		.uleb128 0x1
 8773 2d05 38       		.byte	0x38
 8774 2d06 00       		.byte	0
 8775 2d07 2E       		.uleb128 0x2e
 8776 2d08 50080000 		.4byte	.LVL165
 8777 2d0c FD3B0000 		.4byte	0x3bfd
 8778 2d10 242D0000 		.4byte	0x2d24
 8779 2d14 2F       		.uleb128 0x2f
 8780 2d15 01       		.uleb128 0x1
 8781 2d16 50       		.byte	0x50
 8782 2d17 02       		.uleb128 0x2
 8783 2d18 74       		.byte	0x74
 8784 2d19 00       		.sleb128 0
 8785 2d1a 2F       		.uleb128 0x2f
 8786 2d1b 01       		.uleb128 0x1
 8787 2d1c 52       		.byte	0x52
 8788 2d1d 05       		.uleb128 0x5
 8789 2d1e 0C       		.byte	0xc
ARM GAS  C:\Users\haske\AppData\Local\Temp\ccSAQWsX.s 			page 186


 8790 2d1f 08000500 		.4byte	0x50008
 8791 2d23 00       		.byte	0
 8792 2d24 2E       		.uleb128 0x2e
 8793 2d25 5A080000 		.4byte	.LVL166
 8794 2d29 F13B0000 		.4byte	0x3bf1
 8795 2d2d 382D0000 		.4byte	0x2d38
 8796 2d31 2F       		.uleb128 0x2f
 8797 2d32 01       		.uleb128 0x1
 8798 2d33 50       		.byte	0x50
 8799 2d34 02       		.uleb128 0x2
 8800 2d35 74       		.byte	0x74
 8801 2d36 00       		.sleb128 0
 8802 2d37 00       		.byte	0
 8803 2d38 2E       		.uleb128 0x2e
 8804 2d39 6C080000 		.4byte	.LVL167
 8805 2d3d FD3B0000 		.4byte	0x3bfd
 8806 2d41 512D0000 		.4byte	0x2d51
 8807 2d45 2F       		.uleb128 0x2f
 8808 2d46 01       		.uleb128 0x1
 8809 2d47 50       		.byte	0x50
 8810 2d48 02       		.uleb128 0x2
 8811 2d49 74       		.byte	0x74
 8812 2d4a 00       		.sleb128 0
 8813 2d4b 2F       		.uleb128 0x2f
 8814 2d4c 01       		.uleb128 0x1
 8815 2d4d 52       		.byte	0x52
 8816 2d4e 01       		.uleb128 0x1
 8817 2d4f 30       		.byte	0x30
 8818 2d50 00       		.byte	0
 8819 2d51 2E       		.uleb128 0x2e
 8820 2d52 7A080000 		.4byte	.LVL168
 8821 2d56 FD3B0000 		.4byte	0x3bfd
 8822 2d5a 6C2D0000 		.4byte	0x2d6c
 8823 2d5e 2F       		.uleb128 0x2f
 8824 2d5f 01       		.uleb128 0x1
 8825 2d60 50       		.byte	0x50
 8826 2d61 02       		.uleb128 0x2
 8827 2d62 74       		.byte	0x74
 8828 2d63 00       		.sleb128 0
 8829 2d64 2F       		.uleb128 0x2f
 8830 2d65 01       		.uleb128 0x1
 8831 2d66 52       		.byte	0x52
 8832 2d67 03       		.uleb128 0x3
 8833 2d68 40       		.byte	0x40
 8834 2d69 3C       		.byte	0x3c
 8835 2d6a 24       		.byte	0x24
 8836 2d6b 00       		.byte	0
 8837 2d6c 2E       		.uleb128 0x2e
 8838 2d6d 84080000 		.4byte	.LVL169
 8839 2d71 F13B0000 		.4byte	0x3bf1
 8840 2d75 802D0000 		.4byte	0x2d80
 8841 2d79 2F       		.uleb128 0x2f
 8842 2d7a 01       		.uleb128 0x1
 8843 2d7b 50       		.byte	0x50
 8844 2d7c 02       		.uleb128 0x2
 8845 2d7d 74       		.byte	0x74
 8846 2d7e 00       		.sleb128 0
ARM GAS  C:\Users\haske\AppData\Local\Temp\ccSAQWsX.s 			page 187


 8847 2d7f 00       		.byte	0
 8848 2d80 2E       		.uleb128 0x2e
 8849 2d81 90080000 		.4byte	.LVL170
 8850 2d85 F13B0000 		.4byte	0x3bf1
 8851 2d89 942D0000 		.4byte	0x2d94
 8852 2d8d 2F       		.uleb128 0x2f
 8853 2d8e 01       		.uleb128 0x1
 8854 2d8f 50       		.byte	0x50
 8855 2d90 02       		.uleb128 0x2
 8856 2d91 74       		.byte	0x74
 8857 2d92 00       		.sleb128 0
 8858 2d93 00       		.byte	0
 8859 2d94 2E       		.uleb128 0x2e
 8860 2d95 A2080000 		.4byte	.LVL171
 8861 2d99 FD3B0000 		.4byte	0x3bfd
 8862 2d9d AD2D0000 		.4byte	0x2dad
 8863 2da1 2F       		.uleb128 0x2f
 8864 2da2 01       		.uleb128 0x1
 8865 2da3 50       		.byte	0x50
 8866 2da4 02       		.uleb128 0x2
 8867 2da5 74       		.byte	0x74
 8868 2da6 00       		.sleb128 0
 8869 2da7 2F       		.uleb128 0x2f
 8870 2da8 01       		.uleb128 0x1
 8871 2da9 52       		.byte	0x52
 8872 2daa 01       		.uleb128 0x1
 8873 2dab 30       		.byte	0x30
 8874 2dac 00       		.byte	0
 8875 2dad 2E       		.uleb128 0x2e
 8876 2dae AE080000 		.4byte	.LVL172
 8877 2db2 FD3B0000 		.4byte	0x3bfd
 8878 2db6 C72D0000 		.4byte	0x2dc7
 8879 2dba 2F       		.uleb128 0x2f
 8880 2dbb 01       		.uleb128 0x1
 8881 2dbc 50       		.byte	0x50
 8882 2dbd 02       		.uleb128 0x2
 8883 2dbe 74       		.byte	0x74
 8884 2dbf 00       		.sleb128 0
 8885 2dc0 2F       		.uleb128 0x2f
 8886 2dc1 01       		.uleb128 0x1
 8887 2dc2 52       		.byte	0x52
 8888 2dc3 02       		.uleb128 0x2
 8889 2dc4 08       		.byte	0x8
 8890 2dc5 20       		.byte	0x20
 8891 2dc6 00       		.byte	0
 8892 2dc7 2E       		.uleb128 0x2e
 8893 2dc8 BA080000 		.4byte	.LVL173
 8894 2dcc FD3B0000 		.4byte	0x3bfd
 8895 2dd0 E02D0000 		.4byte	0x2de0
 8896 2dd4 2F       		.uleb128 0x2f
 8897 2dd5 01       		.uleb128 0x1
 8898 2dd6 50       		.byte	0x50
 8899 2dd7 02       		.uleb128 0x2
 8900 2dd8 74       		.byte	0x74
 8901 2dd9 00       		.sleb128 0
 8902 2dda 2F       		.uleb128 0x2f
 8903 2ddb 01       		.uleb128 0x1
ARM GAS  C:\Users\haske\AppData\Local\Temp\ccSAQWsX.s 			page 188


 8904 2ddc 52       		.byte	0x52
 8905 2ddd 01       		.uleb128 0x1
 8906 2dde 34       		.byte	0x34
 8907 2ddf 00       		.byte	0
 8908 2de0 2E       		.uleb128 0x2e
 8909 2de1 C6080000 		.4byte	.LVL174
 8910 2de5 FD3B0000 		.4byte	0x3bfd
 8911 2de9 F92D0000 		.4byte	0x2df9
 8912 2ded 2F       		.uleb128 0x2f
 8913 2dee 01       		.uleb128 0x1
 8914 2def 50       		.byte	0x50
 8915 2df0 02       		.uleb128 0x2
 8916 2df1 74       		.byte	0x74
 8917 2df2 00       		.sleb128 0
 8918 2df3 2F       		.uleb128 0x2f
 8919 2df4 01       		.uleb128 0x1
 8920 2df5 52       		.byte	0x52
 8921 2df6 01       		.uleb128 0x1
 8922 2df7 38       		.byte	0x38
 8923 2df8 00       		.byte	0
 8924 2df9 2E       		.uleb128 0x2e
 8925 2dfa D0080000 		.4byte	.LVL175
 8926 2dfe F13B0000 		.4byte	0x3bf1
 8927 2e02 0D2E0000 		.4byte	0x2e0d
 8928 2e06 2F       		.uleb128 0x2f
 8929 2e07 01       		.uleb128 0x1
 8930 2e08 50       		.byte	0x50
 8931 2e09 02       		.uleb128 0x2
 8932 2e0a 74       		.byte	0x74
 8933 2e0b 00       		.sleb128 0
 8934 2e0c 00       		.byte	0
 8935 2e0d 2E       		.uleb128 0x2e
 8936 2e0e E2080000 		.4byte	.LVL176
 8937 2e12 FD3B0000 		.4byte	0x3bfd
 8938 2e16 262E0000 		.4byte	0x2e26
 8939 2e1a 2F       		.uleb128 0x2f
 8940 2e1b 01       		.uleb128 0x1
 8941 2e1c 50       		.byte	0x50
 8942 2e1d 02       		.uleb128 0x2
 8943 2e1e 74       		.byte	0x74
 8944 2e1f 00       		.sleb128 0
 8945 2e20 2F       		.uleb128 0x2f
 8946 2e21 01       		.uleb128 0x1
 8947 2e22 52       		.byte	0x52
 8948 2e23 01       		.uleb128 0x1
 8949 2e24 30       		.byte	0x30
 8950 2e25 00       		.byte	0
 8951 2e26 2E       		.uleb128 0x2e
 8952 2e27 EC080000 		.4byte	.LVL177
 8953 2e2b F13B0000 		.4byte	0x3bf1
 8954 2e2f 3A2E0000 		.4byte	0x2e3a
 8955 2e33 2F       		.uleb128 0x2f
 8956 2e34 01       		.uleb128 0x1
 8957 2e35 50       		.byte	0x50
 8958 2e36 02       		.uleb128 0x2
 8959 2e37 74       		.byte	0x74
 8960 2e38 00       		.sleb128 0
ARM GAS  C:\Users\haske\AppData\Local\Temp\ccSAQWsX.s 			page 189


 8961 2e39 00       		.byte	0
 8962 2e3a 2E       		.uleb128 0x2e
 8963 2e3b FE080000 		.4byte	.LVL178
 8964 2e3f FD3B0000 		.4byte	0x3bfd
 8965 2e43 532E0000 		.4byte	0x2e53
 8966 2e47 2F       		.uleb128 0x2f
 8967 2e48 01       		.uleb128 0x1
 8968 2e49 50       		.byte	0x50
 8969 2e4a 02       		.uleb128 0x2
 8970 2e4b 74       		.byte	0x74
 8971 2e4c 00       		.sleb128 0
 8972 2e4d 2F       		.uleb128 0x2f
 8973 2e4e 01       		.uleb128 0x1
 8974 2e4f 52       		.byte	0x52
 8975 2e50 01       		.uleb128 0x1
 8976 2e51 30       		.byte	0x30
 8977 2e52 00       		.byte	0
 8978 2e53 2E       		.uleb128 0x2e
 8979 2e54 0C090000 		.4byte	.LVL179
 8980 2e58 FD3B0000 		.4byte	0x3bfd
 8981 2e5c 6E2E0000 		.4byte	0x2e6e
 8982 2e60 2F       		.uleb128 0x2f
 8983 2e61 01       		.uleb128 0x1
 8984 2e62 50       		.byte	0x50
 8985 2e63 02       		.uleb128 0x2
 8986 2e64 74       		.byte	0x74
 8987 2e65 00       		.sleb128 0
 8988 2e66 2F       		.uleb128 0x2f
 8989 2e67 01       		.uleb128 0x1
 8990 2e68 52       		.byte	0x52
 8991 2e69 03       		.uleb128 0x3
 8992 2e6a 4C       		.byte	0x4c
 8993 2e6b 3E       		.byte	0x3e
 8994 2e6c 24       		.byte	0x24
 8995 2e6d 00       		.byte	0
 8996 2e6e 2E       		.uleb128 0x2e
 8997 2e6f 18090000 		.4byte	.LVL180
 8998 2e73 FD3B0000 		.4byte	0x3bfd
 8999 2e77 872E0000 		.4byte	0x2e87
 9000 2e7b 2F       		.uleb128 0x2f
 9001 2e7c 01       		.uleb128 0x1
 9002 2e7d 50       		.byte	0x50
 9003 2e7e 02       		.uleb128 0x2
 9004 2e7f 74       		.byte	0x74
 9005 2e80 00       		.sleb128 0
 9006 2e81 2F       		.uleb128 0x2f
 9007 2e82 01       		.uleb128 0x1
 9008 2e83 52       		.byte	0x52
 9009 2e84 01       		.uleb128 0x1
 9010 2e85 34       		.byte	0x34
 9011 2e86 00       		.byte	0
 9012 2e87 2E       		.uleb128 0x2e
 9013 2e88 24090000 		.4byte	.LVL181
 9014 2e8c FD3B0000 		.4byte	0x3bfd
 9015 2e90 A02E0000 		.4byte	0x2ea0
 9016 2e94 2F       		.uleb128 0x2f
 9017 2e95 01       		.uleb128 0x1
ARM GAS  C:\Users\haske\AppData\Local\Temp\ccSAQWsX.s 			page 190


 9018 2e96 50       		.byte	0x50
 9019 2e97 02       		.uleb128 0x2
 9020 2e98 74       		.byte	0x74
 9021 2e99 00       		.sleb128 0
 9022 2e9a 2F       		.uleb128 0x2f
 9023 2e9b 01       		.uleb128 0x1
 9024 2e9c 52       		.byte	0x52
 9025 2e9d 01       		.uleb128 0x1
 9026 2e9e 38       		.byte	0x38
 9027 2e9f 00       		.byte	0
 9028 2ea0 2E       		.uleb128 0x2e
 9029 2ea1 2E090000 		.4byte	.LVL182
 9030 2ea5 F13B0000 		.4byte	0x3bf1
 9031 2ea9 B42E0000 		.4byte	0x2eb4
 9032 2ead 2F       		.uleb128 0x2f
 9033 2eae 01       		.uleb128 0x1
 9034 2eaf 50       		.byte	0x50
 9035 2eb0 02       		.uleb128 0x2
 9036 2eb1 74       		.byte	0x74
 9037 2eb2 00       		.sleb128 0
 9038 2eb3 00       		.byte	0
 9039 2eb4 2E       		.uleb128 0x2e
 9040 2eb5 3E090000 		.4byte	.LVL183
 9041 2eb9 FD3B0000 		.4byte	0x3bfd
 9042 2ebd CD2E0000 		.4byte	0x2ecd
 9043 2ec1 2F       		.uleb128 0x2f
 9044 2ec2 01       		.uleb128 0x1
 9045 2ec3 50       		.byte	0x50
 9046 2ec4 02       		.uleb128 0x2
 9047 2ec5 74       		.byte	0x74
 9048 2ec6 00       		.sleb128 0
 9049 2ec7 2F       		.uleb128 0x2f
 9050 2ec8 01       		.uleb128 0x1
 9051 2ec9 52       		.byte	0x52
 9052 2eca 01       		.uleb128 0x1
 9053 2ecb 30       		.byte	0x30
 9054 2ecc 00       		.byte	0
 9055 2ecd 2E       		.uleb128 0x2e
 9056 2ece 4C090000 		.4byte	.LVL184
 9057 2ed2 FD3B0000 		.4byte	0x3bfd
 9058 2ed6 E82E0000 		.4byte	0x2ee8
 9059 2eda 2F       		.uleb128 0x2f
 9060 2edb 01       		.uleb128 0x1
 9061 2edc 50       		.byte	0x50
 9062 2edd 02       		.uleb128 0x2
 9063 2ede 74       		.byte	0x74
 9064 2edf 00       		.sleb128 0
 9065 2ee0 2F       		.uleb128 0x2f
 9066 2ee1 01       		.uleb128 0x1
 9067 2ee2 52       		.byte	0x52
 9068 2ee3 03       		.uleb128 0x3
 9069 2ee4 40       		.byte	0x40
 9070 2ee5 3C       		.byte	0x3c
 9071 2ee6 24       		.byte	0x24
 9072 2ee7 00       		.byte	0
 9073 2ee8 2E       		.uleb128 0x2e
 9074 2ee9 56090000 		.4byte	.LVL185
ARM GAS  C:\Users\haske\AppData\Local\Temp\ccSAQWsX.s 			page 191


 9075 2eed F13B0000 		.4byte	0x3bf1
 9076 2ef1 FC2E0000 		.4byte	0x2efc
 9077 2ef5 2F       		.uleb128 0x2f
 9078 2ef6 01       		.uleb128 0x1
 9079 2ef7 50       		.byte	0x50
 9080 2ef8 02       		.uleb128 0x2
 9081 2ef9 74       		.byte	0x74
 9082 2efa 00       		.sleb128 0
 9083 2efb 00       		.byte	0
 9084 2efc 2E       		.uleb128 0x2e
 9085 2efd 6A090000 		.4byte	.LVL186
 9086 2f01 FD3B0000 		.4byte	0x3bfd
 9087 2f05 172F0000 		.4byte	0x2f17
 9088 2f09 2F       		.uleb128 0x2f
 9089 2f0a 01       		.uleb128 0x1
 9090 2f0b 50       		.byte	0x50
 9091 2f0c 02       		.uleb128 0x2
 9092 2f0d 74       		.byte	0x74
 9093 2f0e 00       		.sleb128 0
 9094 2f0f 2F       		.uleb128 0x2f
 9095 2f10 01       		.uleb128 0x1
 9096 2f11 52       		.byte	0x52
 9097 2f12 03       		.uleb128 0x3
 9098 2f13 40       		.byte	0x40
 9099 2f14 3C       		.byte	0x3c
 9100 2f15 24       		.byte	0x24
 9101 2f16 00       		.byte	0
 9102 2f17 2E       		.uleb128 0x2e
 9103 2f18 74090000 		.4byte	.LVL187
 9104 2f1c F13B0000 		.4byte	0x3bf1
 9105 2f20 2B2F0000 		.4byte	0x2f2b
 9106 2f24 2F       		.uleb128 0x2f
 9107 2f25 01       		.uleb128 0x1
 9108 2f26 50       		.byte	0x50
 9109 2f27 02       		.uleb128 0x2
 9110 2f28 74       		.byte	0x74
 9111 2f29 00       		.sleb128 0
 9112 2f2a 00       		.byte	0
 9113 2f2b 31       		.uleb128 0x31
 9114 2f2c 86090000 		.4byte	.LVL188
 9115 2f30 FD3B0000 		.4byte	0x3bfd
 9116 2f34 2F       		.uleb128 0x2f
 9117 2f35 01       		.uleb128 0x1
 9118 2f36 50       		.byte	0x50
 9119 2f37 02       		.uleb128 0x2
 9120 2f38 74       		.byte	0x74
 9121 2f39 00       		.sleb128 0
 9122 2f3a 2F       		.uleb128 0x2f
 9123 2f3b 01       		.uleb128 0x1
 9124 2f3c 52       		.byte	0x52
 9125 2f3d 01       		.uleb128 0x1
 9126 2f3e 30       		.byte	0x30
 9127 2f3f 00       		.byte	0
 9128 2f40 00       		.byte	0
 9129 2f41 05       		.uleb128 0x5
 9130 2f42 04       		.byte	0x4
 9131 2f43 301C0000 		.4byte	0x1c30
ARM GAS  C:\Users\haske\AppData\Local\Temp\ccSAQWsX.s 			page 192


 9132 2f47 32       		.uleb128 0x32
 9133 2f48 D00D0000 		.4byte	.LASF538
 9134 2f4c 01       		.byte	0x1
 9135 2f4d EE01     		.2byte	0x1ee
 9136 2f4f 00000000 		.4byte	.LFB206
 9137 2f53 1C000000 		.4byte	.LFE206-.LFB206
 9138 2f57 01       		.uleb128 0x1
 9139 2f58 9C       		.byte	0x9c
 9140 2f59 8C2F0000 		.4byte	0x2f8c
 9141 2f5d 33       		.uleb128 0x33
 9142 2f5e CE1D0000 		.4byte	.LASF418
 9143 2f62 01       		.byte	0x1
 9144 2f63 EE01     		.2byte	0x1ee
 9145 2f65 31180000 		.4byte	0x1831
 9146 2f69 8C000000 		.4byte	.LLST3
 9147 2f6d 2E       		.uleb128 0x2e
 9148 2f6e 0E000000 		.4byte	.LVL191
 9149 2f72 133C0000 		.4byte	0x3c13
 9150 2f76 822F0000 		.4byte	0x2f82
 9151 2f7a 2F       		.uleb128 0x2f
 9152 2f7b 01       		.uleb128 0x1
 9153 2f7c 50       		.byte	0x50
 9154 2f7d 03       		.uleb128 0x3
 9155 2f7e F3       		.byte	0xf3
 9156 2f7f 01       		.uleb128 0x1
 9157 2f80 50       		.byte	0x50
 9158 2f81 00       		.byte	0
 9159 2f82 30       		.uleb128 0x30
 9160 2f83 14000000 		.4byte	.LVL193
 9161 2f87 1F3C0000 		.4byte	0x3c1f
 9162 2f8b 00       		.byte	0
 9163 2f8c 28       		.uleb128 0x28
 9164 2f8d CB0C0000 		.4byte	.LASF540
 9165 2f91 03       		.byte	0x3
 9166 2f92 1102     		.2byte	0x211
 9167 2f94 03       		.byte	0x3
 9168 2f95 B22F0000 		.4byte	0x2fb2
 9169 2f99 29       		.uleb128 0x29
 9170 2f9a CE1D0000 		.4byte	.LASF418
 9171 2f9e 03       		.byte	0x3
 9172 2f9f 1102     		.2byte	0x211
 9173 2fa1 31180000 		.4byte	0x1831
 9174 2fa5 29       		.uleb128 0x29
 9175 2fa6 5D0F0000 		.4byte	.LASF194
 9176 2faa 03       		.byte	0x3
 9177 2fab 1102     		.2byte	0x211
 9178 2fad A1010000 		.4byte	0x1a1
 9179 2fb1 00       		.byte	0
 9180 2fb2 2A       		.uleb128 0x2a
 9181 2fb3 C81F0000 		.4byte	.LASF541
 9182 2fb7 01       		.byte	0x1
 9183 2fb8 4D       		.byte	0x4d
 9184 2fb9 00000000 		.4byte	.LFB202
 9185 2fbd 08040000 		.4byte	.LFE202-.LFB202
 9186 2fc1 01       		.uleb128 0x1
 9187 2fc2 9C       		.byte	0x9c
 9188 2fc3 16390000 		.4byte	0x3916
ARM GAS  C:\Users\haske\AppData\Local\Temp\ccSAQWsX.s 			page 193


 9189 2fc7 34       		.uleb128 0x34
 9190 2fc8 320A0000 		.4byte	.LASF542
 9191 2fcc 01       		.byte	0x1
 9192 2fcd 4D       		.byte	0x4d
 9193 2fce 4A030000 		.4byte	0x34a
 9194 2fd2 C6000000 		.4byte	.LLST4
 9195 2fd6 34       		.uleb128 0x34
 9196 2fd7 61000000 		.4byte	.LASF245
 9197 2fdb 01       		.byte	0x1
 9198 2fdc 4D       		.byte	0x4d
 9199 2fdd B60B0000 		.4byte	0xbb6
 9200 2fe1 E7000000 		.4byte	.LLST5
 9201 2fe5 35       		.uleb128 0x35
 9202 2fe6 A01D0000 		.4byte	0x1da0
 9203 2fea 22000000 		.4byte	.LBB247
 9204 2fee 10000000 		.4byte	.LBE247-.LBB247
 9205 2ff2 01       		.byte	0x1
 9206 2ff3 51       		.byte	0x51
 9207 2ff4 25300000 		.4byte	0x3025
 9208 2ff8 36       		.uleb128 0x36
 9209 2ff9 701D0000 		.4byte	0x1d70
 9210 2ffd 22000000 		.4byte	.LBB248
 9211 3001 10000000 		.4byte	.LBE248-.LBB248
 9212 3005 02       		.byte	0x2
 9213 3006 B302     		.2byte	0x2b3
 9214 3008 37       		.uleb128 0x37
 9215 3009 951D0000 		.4byte	0x1d95
 9216 300d 13010000 		.4byte	.LLST6
 9217 3011 37       		.uleb128 0x37
 9218 3012 8B1D0000 		.4byte	0x1d8b
 9219 3016 13010000 		.4byte	.LLST6
 9220 301a 37       		.uleb128 0x37
 9221 301b 811D0000 		.4byte	0x1d81
 9222 301f 13010000 		.4byte	.LLST6
 9223 3023 00       		.byte	0
 9224 3024 00       		.byte	0
 9225 3025 35       		.uleb128 0x35
 9226 3026 A01D0000 		.4byte	0x1da0
 9227 302a 5A000000 		.4byte	.LBB250
 9228 302e 0C000000 		.4byte	.LBE250-.LBB250
 9229 3032 01       		.byte	0x1
 9230 3033 56       		.byte	0x56
 9231 3034 65300000 		.4byte	0x3065
 9232 3038 36       		.uleb128 0x36
 9233 3039 701D0000 		.4byte	0x1d70
 9234 303d 5A000000 		.4byte	.LBB251
 9235 3041 0C000000 		.4byte	.LBE251-.LBB251
 9236 3045 02       		.byte	0x2
 9237 3046 B302     		.2byte	0x2b3
 9238 3048 37       		.uleb128 0x37
 9239 3049 951D0000 		.4byte	0x1d95
 9240 304d 28010000 		.4byte	.LLST9
 9241 3051 37       		.uleb128 0x37
 9242 3052 8B1D0000 		.4byte	0x1d8b
 9243 3056 28010000 		.4byte	.LLST9
 9244 305a 37       		.uleb128 0x37
 9245 305b 811D0000 		.4byte	0x1d81
ARM GAS  C:\Users\haske\AppData\Local\Temp\ccSAQWsX.s 			page 194


 9246 305f 28010000 		.4byte	.LLST9
 9247 3063 00       		.byte	0
 9248 3064 00       		.byte	0
 9249 3065 35       		.uleb128 0x35
 9250 3066 A01D0000 		.4byte	0x1da0
 9251 306a 72000000 		.4byte	.LBB253
 9252 306e 10000000 		.4byte	.LBE253-.LBB253
 9253 3072 01       		.byte	0x1
 9254 3073 57       		.byte	0x57
 9255 3074 A5300000 		.4byte	0x30a5
 9256 3078 36       		.uleb128 0x36
 9257 3079 701D0000 		.4byte	0x1d70
 9258 307d 72000000 		.4byte	.LBB254
 9259 3081 10000000 		.4byte	.LBE254-.LBB254
 9260 3085 02       		.byte	0x2
 9261 3086 B302     		.2byte	0x2b3
 9262 3088 37       		.uleb128 0x37
 9263 3089 951D0000 		.4byte	0x1d95
 9264 308d 3D010000 		.4byte	.LLST12
 9265 3091 37       		.uleb128 0x37
 9266 3092 8B1D0000 		.4byte	0x1d8b
 9267 3096 3D010000 		.4byte	.LLST12
 9268 309a 37       		.uleb128 0x37
 9269 309b 811D0000 		.4byte	0x1d81
 9270 309f 3D010000 		.4byte	.LLST12
 9271 30a3 00       		.byte	0
 9272 30a4 00       		.byte	0
 9273 30a5 35       		.uleb128 0x35
 9274 30a6 A01D0000 		.4byte	0x1da0
 9275 30aa BE000000 		.4byte	.LBB256
 9276 30ae 0C000000 		.4byte	.LBE256-.LBB256
 9277 30b2 01       		.byte	0x1
 9278 30b3 5E       		.byte	0x5e
 9279 30b4 E5300000 		.4byte	0x30e5
 9280 30b8 36       		.uleb128 0x36
 9281 30b9 701D0000 		.4byte	0x1d70
 9282 30bd BE000000 		.4byte	.LBB257
 9283 30c1 0C000000 		.4byte	.LBE257-.LBB257
 9284 30c5 02       		.byte	0x2
 9285 30c6 B302     		.2byte	0x2b3
 9286 30c8 37       		.uleb128 0x37
 9287 30c9 951D0000 		.4byte	0x1d95
 9288 30cd 52010000 		.4byte	.LLST15
 9289 30d1 37       		.uleb128 0x37
 9290 30d2 8B1D0000 		.4byte	0x1d8b
 9291 30d6 52010000 		.4byte	.LLST15
 9292 30da 37       		.uleb128 0x37
 9293 30db 811D0000 		.4byte	0x1d81
 9294 30df 52010000 		.4byte	.LLST15
 9295 30e3 00       		.byte	0
 9296 30e4 00       		.byte	0
 9297 30e5 35       		.uleb128 0x35
 9298 30e6 A01D0000 		.4byte	0x1da0
 9299 30ea D8000000 		.4byte	.LBB259
 9300 30ee 10000000 		.4byte	.LBE259-.LBB259
 9301 30f2 01       		.byte	0x1
 9302 30f3 5F       		.byte	0x5f
ARM GAS  C:\Users\haske\AppData\Local\Temp\ccSAQWsX.s 			page 195


 9303 30f4 25310000 		.4byte	0x3125
 9304 30f8 36       		.uleb128 0x36
 9305 30f9 701D0000 		.4byte	0x1d70
 9306 30fd D8000000 		.4byte	.LBB260
 9307 3101 10000000 		.4byte	.LBE260-.LBB260
 9308 3105 02       		.byte	0x2
 9309 3106 B302     		.2byte	0x2b3
 9310 3108 37       		.uleb128 0x37
 9311 3109 951D0000 		.4byte	0x1d95
 9312 310d 67010000 		.4byte	.LLST18
 9313 3111 37       		.uleb128 0x37
 9314 3112 8B1D0000 		.4byte	0x1d8b
 9315 3116 67010000 		.4byte	.LLST18
 9316 311a 37       		.uleb128 0x37
 9317 311b 811D0000 		.4byte	0x1d81
 9318 311f 67010000 		.4byte	.LLST18
 9319 3123 00       		.byte	0
 9320 3124 00       		.byte	0
 9321 3125 35       		.uleb128 0x35
 9322 3126 8C2F0000 		.4byte	0x2f8c
 9323 312a 06010000 		.4byte	.LBB262
 9324 312e 20000000 		.4byte	.LBE262-.LBB262
 9325 3132 01       		.byte	0x1
 9326 3133 62       		.byte	0x62
 9327 3134 AB310000 		.4byte	0x31ab
 9328 3138 37       		.uleb128 0x37
 9329 3139 A52F0000 		.4byte	0x2fa5
 9330 313d 7C010000 		.4byte	.LLST21
 9331 3141 37       		.uleb128 0x37
 9332 3142 992F0000 		.4byte	0x2f99
 9333 3146 90010000 		.4byte	.LLST22
 9334 314a 2E       		.uleb128 0x2e
 9335 314b 0E010000 		.4byte	.LVL225
 9336 314f 2B3C0000 		.4byte	0x3c2b
 9337 3153 63310000 		.4byte	0x3163
 9338 3157 2F       		.uleb128 0x2f
 9339 3158 01       		.uleb128 0x1
 9340 3159 50       		.byte	0x50
 9341 315a 02       		.uleb128 0x2
 9342 315b 74       		.byte	0x74
 9343 315c 00       		.sleb128 0
 9344 315d 2F       		.uleb128 0x2f
 9345 315e 01       		.uleb128 0x1
 9346 315f 51       		.byte	0x51
 9347 3160 01       		.uleb128 0x1
 9348 3161 34       		.byte	0x34
 9349 3162 00       		.byte	0
 9350 3163 2E       		.uleb128 0x2e
 9351 3164 16010000 		.4byte	.LVL226
 9352 3168 363C0000 		.4byte	0x3c36
 9353 316c 7C310000 		.4byte	0x317c
 9354 3170 2F       		.uleb128 0x2f
 9355 3171 01       		.uleb128 0x1
 9356 3172 50       		.byte	0x50
 9357 3173 02       		.uleb128 0x2
 9358 3174 74       		.byte	0x74
 9359 3175 00       		.sleb128 0
ARM GAS  C:\Users\haske\AppData\Local\Temp\ccSAQWsX.s 			page 196


 9360 3176 2F       		.uleb128 0x2f
 9361 3177 01       		.uleb128 0x1
 9362 3178 51       		.byte	0x51
 9363 3179 01       		.uleb128 0x1
 9364 317a 34       		.byte	0x34
 9365 317b 00       		.byte	0
 9366 317c 2E       		.uleb128 0x2e
 9367 317d 1E010000 		.4byte	.LVL227
 9368 3181 413C0000 		.4byte	0x3c41
 9369 3185 95310000 		.4byte	0x3195
 9370 3189 2F       		.uleb128 0x2f
 9371 318a 01       		.uleb128 0x1
 9372 318b 50       		.byte	0x50
 9373 318c 02       		.uleb128 0x2
 9374 318d 74       		.byte	0x74
 9375 318e 00       		.sleb128 0
 9376 318f 2F       		.uleb128 0x2f
 9377 3190 01       		.uleb128 0x1
 9378 3191 51       		.byte	0x51
 9379 3192 01       		.uleb128 0x1
 9380 3193 34       		.byte	0x34
 9381 3194 00       		.byte	0
 9382 3195 31       		.uleb128 0x31
 9383 3196 26010000 		.4byte	.LVL228
 9384 319a 4C3C0000 		.4byte	0x3c4c
 9385 319e 2F       		.uleb128 0x2f
 9386 319f 01       		.uleb128 0x1
 9387 31a0 50       		.byte	0x50
 9388 31a1 02       		.uleb128 0x2
 9389 31a2 74       		.byte	0x74
 9390 31a3 00       		.sleb128 0
 9391 31a4 2F       		.uleb128 0x2f
 9392 31a5 01       		.uleb128 0x1
 9393 31a6 51       		.byte	0x51
 9394 31a7 01       		.uleb128 0x1
 9395 31a8 34       		.byte	0x34
 9396 31a9 00       		.byte	0
 9397 31aa 00       		.byte	0
 9398 31ab 35       		.uleb128 0x35
 9399 31ac BA1D0000 		.4byte	0x1dba
 9400 31b0 2A010000 		.4byte	.LBB264
 9401 31b4 10000000 		.4byte	.LBE264-.LBB264
 9402 31b8 01       		.byte	0x1
 9403 31b9 63       		.byte	0x63
 9404 31ba FF310000 		.4byte	0x31ff
 9405 31be 37       		.uleb128 0x37
 9406 31bf D31D0000 		.4byte	0x1dd3
 9407 31c3 A3010000 		.4byte	.LLST23
 9408 31c7 37       		.uleb128 0x37
 9409 31c8 C71D0000 		.4byte	0x1dc7
 9410 31cc B7010000 		.4byte	.LLST24
 9411 31d0 2E       		.uleb128 0x2e
 9412 31d1 32010000 		.4byte	.LVL230
 9413 31d5 573C0000 		.4byte	0x3c57
 9414 31d9 E9310000 		.4byte	0x31e9
 9415 31dd 2F       		.uleb128 0x2f
 9416 31de 01       		.uleb128 0x1
ARM GAS  C:\Users\haske\AppData\Local\Temp\ccSAQWsX.s 			page 197


 9417 31df 50       		.byte	0x50
 9418 31e0 02       		.uleb128 0x2
 9419 31e1 74       		.byte	0x74
 9420 31e2 00       		.sleb128 0
 9421 31e3 2F       		.uleb128 0x2f
 9422 31e4 01       		.uleb128 0x1
 9423 31e5 51       		.byte	0x51
 9424 31e6 01       		.uleb128 0x1
 9425 31e7 34       		.byte	0x34
 9426 31e8 00       		.byte	0
 9427 31e9 31       		.uleb128 0x31
 9428 31ea 3A010000 		.4byte	.LVL231
 9429 31ee 623C0000 		.4byte	0x3c62
 9430 31f2 2F       		.uleb128 0x2f
 9431 31f3 01       		.uleb128 0x1
 9432 31f4 50       		.byte	0x50
 9433 31f5 02       		.uleb128 0x2
 9434 31f6 74       		.byte	0x74
 9435 31f7 00       		.sleb128 0
 9436 31f8 2F       		.uleb128 0x2f
 9437 31f9 01       		.uleb128 0x1
 9438 31fa 51       		.byte	0x51
 9439 31fb 01       		.uleb128 0x1
 9440 31fc 34       		.byte	0x34
 9441 31fd 00       		.byte	0
 9442 31fe 00       		.byte	0
 9443 31ff 35       		.uleb128 0x35
 9444 3200 A01D0000 		.4byte	0x1da0
 9445 3204 42010000 		.4byte	.LBB266
 9446 3208 10000000 		.4byte	.LBE266-.LBB266
 9447 320c 01       		.byte	0x1
 9448 320d 64       		.byte	0x64
 9449 320e 3F320000 		.4byte	0x323f
 9450 3212 36       		.uleb128 0x36
 9451 3213 701D0000 		.4byte	0x1d70
 9452 3217 42010000 		.4byte	.LBB267
 9453 321b 10000000 		.4byte	.LBE267-.LBB267
 9454 321f 02       		.byte	0x2
 9455 3220 B302     		.2byte	0x2b3
 9456 3222 37       		.uleb128 0x37
 9457 3223 951D0000 		.4byte	0x1d95
 9458 3227 CA010000 		.4byte	.LLST25
 9459 322b 37       		.uleb128 0x37
 9460 322c 8B1D0000 		.4byte	0x1d8b
 9461 3230 CA010000 		.4byte	.LLST25
 9462 3234 37       		.uleb128 0x37
 9463 3235 811D0000 		.4byte	0x1d81
 9464 3239 CA010000 		.4byte	.LLST25
 9465 323d 00       		.byte	0
 9466 323e 00       		.byte	0
 9467 323f 35       		.uleb128 0x35
 9468 3240 A01D0000 		.4byte	0x1da0
 9469 3244 6A010000 		.4byte	.LBB269
 9470 3248 10000000 		.4byte	.LBE269-.LBB269
 9471 324c 01       		.byte	0x1
 9472 324d 66       		.byte	0x66
 9473 324e 7F320000 		.4byte	0x327f
ARM GAS  C:\Users\haske\AppData\Local\Temp\ccSAQWsX.s 			page 198


 9474 3252 36       		.uleb128 0x36
 9475 3253 701D0000 		.4byte	0x1d70
 9476 3257 6A010000 		.4byte	.LBB270
 9477 325b 10000000 		.4byte	.LBE270-.LBB270
 9478 325f 02       		.byte	0x2
 9479 3260 B302     		.2byte	0x2b3
 9480 3262 37       		.uleb128 0x37
 9481 3263 951D0000 		.4byte	0x1d95
 9482 3267 DF010000 		.4byte	.LLST28
 9483 326b 37       		.uleb128 0x37
 9484 326c 8B1D0000 		.4byte	0x1d8b
 9485 3270 DF010000 		.4byte	.LLST28
 9486 3274 37       		.uleb128 0x37
 9487 3275 811D0000 		.4byte	0x1d81
 9488 3279 DF010000 		.4byte	.LLST28
 9489 327d 00       		.byte	0
 9490 327e 00       		.byte	0
 9491 327f 35       		.uleb128 0x35
 9492 3280 A01D0000 		.4byte	0x1da0
 9493 3284 92010000 		.4byte	.LBB272
 9494 3288 10000000 		.4byte	.LBE272-.LBB272
 9495 328c 01       		.byte	0x1
 9496 328d 68       		.byte	0x68
 9497 328e BF320000 		.4byte	0x32bf
 9498 3292 36       		.uleb128 0x36
 9499 3293 701D0000 		.4byte	0x1d70
 9500 3297 92010000 		.4byte	.LBB273
 9501 329b 10000000 		.4byte	.LBE273-.LBB273
 9502 329f 02       		.byte	0x2
 9503 32a0 B302     		.2byte	0x2b3
 9504 32a2 37       		.uleb128 0x37
 9505 32a3 951D0000 		.4byte	0x1d95
 9506 32a7 F4010000 		.4byte	.LLST31
 9507 32ab 37       		.uleb128 0x37
 9508 32ac 8B1D0000 		.4byte	0x1d8b
 9509 32b0 F4010000 		.4byte	.LLST31
 9510 32b4 37       		.uleb128 0x37
 9511 32b5 811D0000 		.4byte	0x1d81
 9512 32b9 F4010000 		.4byte	.LLST31
 9513 32bd 00       		.byte	0
 9514 32be 00       		.byte	0
 9515 32bf 35       		.uleb128 0x35
 9516 32c0 A01D0000 		.4byte	0x1da0
 9517 32c4 B0010000 		.4byte	.LBB275
 9518 32c8 10000000 		.4byte	.LBE275-.LBB275
 9519 32cc 01       		.byte	0x1
 9520 32cd 69       		.byte	0x69
 9521 32ce FF320000 		.4byte	0x32ff
 9522 32d2 36       		.uleb128 0x36
 9523 32d3 701D0000 		.4byte	0x1d70
 9524 32d7 B0010000 		.4byte	.LBB276
 9525 32db 10000000 		.4byte	.LBE276-.LBB276
 9526 32df 02       		.byte	0x2
 9527 32e0 B302     		.2byte	0x2b3
 9528 32e2 37       		.uleb128 0x37
 9529 32e3 951D0000 		.4byte	0x1d95
 9530 32e7 09020000 		.4byte	.LLST34
ARM GAS  C:\Users\haske\AppData\Local\Temp\ccSAQWsX.s 			page 199


 9531 32eb 37       		.uleb128 0x37
 9532 32ec 8B1D0000 		.4byte	0x1d8b
 9533 32f0 09020000 		.4byte	.LLST34
 9534 32f4 37       		.uleb128 0x37
 9535 32f5 811D0000 		.4byte	0x1d81
 9536 32f9 09020000 		.4byte	.LLST34
 9537 32fd 00       		.byte	0
 9538 32fe 00       		.byte	0
 9539 32ff 35       		.uleb128 0x35
 9540 3300 A01D0000 		.4byte	0x1da0
 9541 3304 FE010000 		.4byte	.LBB278
 9542 3308 10000000 		.4byte	.LBE278-.LBB278
 9543 330c 01       		.byte	0x1
 9544 330d 71       		.byte	0x71
 9545 330e 3F330000 		.4byte	0x333f
 9546 3312 36       		.uleb128 0x36
 9547 3313 701D0000 		.4byte	0x1d70
 9548 3317 FE010000 		.4byte	.LBB279
 9549 331b 10000000 		.4byte	.LBE279-.LBB279
 9550 331f 02       		.byte	0x2
 9551 3320 B302     		.2byte	0x2b3
 9552 3322 37       		.uleb128 0x37
 9553 3323 951D0000 		.4byte	0x1d95
 9554 3327 1E020000 		.4byte	.LLST37
 9555 332b 37       		.uleb128 0x37
 9556 332c 8B1D0000 		.4byte	0x1d8b
 9557 3330 1E020000 		.4byte	.LLST37
 9558 3334 37       		.uleb128 0x37
 9559 3335 811D0000 		.4byte	0x1d81
 9560 3339 1E020000 		.4byte	.LLST37
 9561 333d 00       		.byte	0
 9562 333e 00       		.byte	0
 9563 333f 35       		.uleb128 0x35
 9564 3340 A01D0000 		.4byte	0x1da0
 9565 3344 20020000 		.4byte	.LBB281
 9566 3348 0C000000 		.4byte	.LBE281-.LBB281
 9567 334c 01       		.byte	0x1
 9568 334d 72       		.byte	0x72
 9569 334e 7F330000 		.4byte	0x337f
 9570 3352 36       		.uleb128 0x36
 9571 3353 701D0000 		.4byte	0x1d70
 9572 3357 20020000 		.4byte	.LBB282
 9573 335b 0C000000 		.4byte	.LBE282-.LBB282
 9574 335f 02       		.byte	0x2
 9575 3360 B302     		.2byte	0x2b3
 9576 3362 37       		.uleb128 0x37
 9577 3363 951D0000 		.4byte	0x1d95
 9578 3367 33020000 		.4byte	.LLST40
 9579 336b 37       		.uleb128 0x37
 9580 336c 8B1D0000 		.4byte	0x1d8b
 9581 3370 33020000 		.4byte	.LLST40
 9582 3374 37       		.uleb128 0x37
 9583 3375 811D0000 		.4byte	0x1d81
 9584 3379 33020000 		.4byte	.LLST40
 9585 337d 00       		.byte	0
 9586 337e 00       		.byte	0
 9587 337f 35       		.uleb128 0x35
ARM GAS  C:\Users\haske\AppData\Local\Temp\ccSAQWsX.s 			page 200


 9588 3380 A01D0000 		.4byte	0x1da0
 9589 3384 3E020000 		.4byte	.LBB284
 9590 3388 0C000000 		.4byte	.LBE284-.LBB284
 9591 338c 01       		.byte	0x1
 9592 338d 73       		.byte	0x73
 9593 338e BF330000 		.4byte	0x33bf
 9594 3392 36       		.uleb128 0x36
 9595 3393 701D0000 		.4byte	0x1d70
 9596 3397 3E020000 		.4byte	.LBB285
 9597 339b 0C000000 		.4byte	.LBE285-.LBB285
 9598 339f 02       		.byte	0x2
 9599 33a0 B302     		.2byte	0x2b3
 9600 33a2 37       		.uleb128 0x37
 9601 33a3 951D0000 		.4byte	0x1d95
 9602 33a7 48020000 		.4byte	.LLST43
 9603 33ab 37       		.uleb128 0x37
 9604 33ac 8B1D0000 		.4byte	0x1d8b
 9605 33b0 48020000 		.4byte	.LLST43
 9606 33b4 37       		.uleb128 0x37
 9607 33b5 811D0000 		.4byte	0x1d81
 9608 33b9 48020000 		.4byte	.LLST43
 9609 33bd 00       		.byte	0
 9610 33be 00       		.byte	0
 9611 33bf 35       		.uleb128 0x35
 9612 33c0 A01D0000 		.4byte	0x1da0
 9613 33c4 5C020000 		.4byte	.LBB287
 9614 33c8 0C000000 		.4byte	.LBE287-.LBB287
 9615 33cc 01       		.byte	0x1
 9616 33cd 74       		.byte	0x74
 9617 33ce FF330000 		.4byte	0x33ff
 9618 33d2 36       		.uleb128 0x36
 9619 33d3 701D0000 		.4byte	0x1d70
 9620 33d7 5C020000 		.4byte	.LBB288
 9621 33db 0C000000 		.4byte	.LBE288-.LBB288
 9622 33df 02       		.byte	0x2
 9623 33e0 B302     		.2byte	0x2b3
 9624 33e2 37       		.uleb128 0x37
 9625 33e3 951D0000 		.4byte	0x1d95
 9626 33e7 5D020000 		.4byte	.LLST46
 9627 33eb 37       		.uleb128 0x37
 9628 33ec 8B1D0000 		.4byte	0x1d8b
 9629 33f0 5D020000 		.4byte	.LLST46
 9630 33f4 37       		.uleb128 0x37
 9631 33f5 811D0000 		.4byte	0x1d81
 9632 33f9 5D020000 		.4byte	.LLST46
 9633 33fd 00       		.byte	0
 9634 33fe 00       		.byte	0
 9635 33ff 35       		.uleb128 0x35
 9636 3400 A01D0000 		.4byte	0x1da0
 9637 3404 7A020000 		.4byte	.LBB290
 9638 3408 0C000000 		.4byte	.LBE290-.LBB290
 9639 340c 01       		.byte	0x1
 9640 340d 75       		.byte	0x75
 9641 340e 3F340000 		.4byte	0x343f
 9642 3412 36       		.uleb128 0x36
 9643 3413 701D0000 		.4byte	0x1d70
 9644 3417 7A020000 		.4byte	.LBB291
ARM GAS  C:\Users\haske\AppData\Local\Temp\ccSAQWsX.s 			page 201


 9645 341b 0C000000 		.4byte	.LBE291-.LBB291
 9646 341f 02       		.byte	0x2
 9647 3420 B302     		.2byte	0x2b3
 9648 3422 37       		.uleb128 0x37
 9649 3423 951D0000 		.4byte	0x1d95
 9650 3427 72020000 		.4byte	.LLST49
 9651 342b 37       		.uleb128 0x37
 9652 342c 8B1D0000 		.4byte	0x1d8b
 9653 3430 72020000 		.4byte	.LLST49
 9654 3434 37       		.uleb128 0x37
 9655 3435 811D0000 		.4byte	0x1d81
 9656 3439 72020000 		.4byte	.LLST49
 9657 343d 00       		.byte	0
 9658 343e 00       		.byte	0
 9659 343f 35       		.uleb128 0x35
 9660 3440 A01D0000 		.4byte	0x1da0
 9661 3444 A0020000 		.4byte	.LBB293
 9662 3448 0C000000 		.4byte	.LBE293-.LBB293
 9663 344c 01       		.byte	0x1
 9664 344d 76       		.byte	0x76
 9665 344e 7F340000 		.4byte	0x347f
 9666 3452 36       		.uleb128 0x36
 9667 3453 701D0000 		.4byte	0x1d70
 9668 3457 A0020000 		.4byte	.LBB294
 9669 345b 0C000000 		.4byte	.LBE294-.LBB294
 9670 345f 02       		.byte	0x2
 9671 3460 B302     		.2byte	0x2b3
 9672 3462 37       		.uleb128 0x37
 9673 3463 951D0000 		.4byte	0x1d95
 9674 3467 87020000 		.4byte	.LLST52
 9675 346b 37       		.uleb128 0x37
 9676 346c 8B1D0000 		.4byte	0x1d8b
 9677 3470 87020000 		.4byte	.LLST52
 9678 3474 37       		.uleb128 0x37
 9679 3475 811D0000 		.4byte	0x1d81
 9680 3479 87020000 		.4byte	.LLST52
 9681 347d 00       		.byte	0
 9682 347e 00       		.byte	0
 9683 347f 35       		.uleb128 0x35
 9684 3480 BA1D0000 		.4byte	0x1dba
 9685 3484 10030000 		.4byte	.LBB296
 9686 3488 10000000 		.4byte	.LBE296-.LBB296
 9687 348c 01       		.byte	0x1
 9688 348d 86       		.byte	0x86
 9689 348e D3340000 		.4byte	0x34d3
 9690 3492 37       		.uleb128 0x37
 9691 3493 D31D0000 		.4byte	0x1dd3
 9692 3497 9C020000 		.4byte	.LLST55
 9693 349b 37       		.uleb128 0x37
 9694 349c C71D0000 		.4byte	0x1dc7
 9695 34a0 B0020000 		.4byte	.LLST56
 9696 34a4 2E       		.uleb128 0x2e
 9697 34a5 18030000 		.4byte	.LVL280
 9698 34a9 573C0000 		.4byte	0x3c57
 9699 34ad BD340000 		.4byte	0x34bd
 9700 34b1 2F       		.uleb128 0x2f
 9701 34b2 01       		.uleb128 0x1
ARM GAS  C:\Users\haske\AppData\Local\Temp\ccSAQWsX.s 			page 202


 9702 34b3 50       		.byte	0x50
 9703 34b4 02       		.uleb128 0x2
 9704 34b5 76       		.byte	0x76
 9705 34b6 00       		.sleb128 0
 9706 34b7 2F       		.uleb128 0x2f
 9707 34b8 01       		.uleb128 0x1
 9708 34b9 51       		.byte	0x51
 9709 34ba 01       		.uleb128 0x1
 9710 34bb 34       		.byte	0x34
 9711 34bc 00       		.byte	0
 9712 34bd 31       		.uleb128 0x31
 9713 34be 20030000 		.4byte	.LVL281
 9714 34c2 623C0000 		.4byte	0x3c62
 9715 34c6 2F       		.uleb128 0x2f
 9716 34c7 01       		.uleb128 0x1
 9717 34c8 50       		.byte	0x50
 9718 34c9 02       		.uleb128 0x2
 9719 34ca 76       		.byte	0x76
 9720 34cb 00       		.sleb128 0
 9721 34cc 2F       		.uleb128 0x2f
 9722 34cd 01       		.uleb128 0x1
 9723 34ce 51       		.byte	0x51
 9724 34cf 01       		.uleb128 0x1
 9725 34d0 34       		.byte	0x34
 9726 34d1 00       		.byte	0
 9727 34d2 00       		.byte	0
 9728 34d3 35       		.uleb128 0x35
 9729 34d4 8C2F0000 		.4byte	0x2f8c
 9730 34d8 2C030000 		.4byte	.LBB298
 9731 34dc 20000000 		.4byte	.LBE298-.LBB298
 9732 34e0 01       		.byte	0x1
 9733 34e1 89       		.byte	0x89
 9734 34e2 59350000 		.4byte	0x3559
 9735 34e6 37       		.uleb128 0x37
 9736 34e7 A52F0000 		.4byte	0x2fa5
 9737 34eb C3020000 		.4byte	.LLST57
 9738 34ef 37       		.uleb128 0x37
 9739 34f0 992F0000 		.4byte	0x2f99
 9740 34f4 D7020000 		.4byte	.LLST58
 9741 34f8 2E       		.uleb128 0x2e
 9742 34f9 34030000 		.4byte	.LVL284
 9743 34fd 2B3C0000 		.4byte	0x3c2b
 9744 3501 11350000 		.4byte	0x3511
 9745 3505 2F       		.uleb128 0x2f
 9746 3506 01       		.uleb128 0x1
 9747 3507 50       		.byte	0x50
 9748 3508 02       		.uleb128 0x2
 9749 3509 76       		.byte	0x76
 9750 350a 00       		.sleb128 0
 9751 350b 2F       		.uleb128 0x2f
 9752 350c 01       		.uleb128 0x1
 9753 350d 51       		.byte	0x51
 9754 350e 01       		.uleb128 0x1
 9755 350f 30       		.byte	0x30
 9756 3510 00       		.byte	0
 9757 3511 2E       		.uleb128 0x2e
 9758 3512 3C030000 		.4byte	.LVL285
ARM GAS  C:\Users\haske\AppData\Local\Temp\ccSAQWsX.s 			page 203


 9759 3516 363C0000 		.4byte	0x3c36
 9760 351a 2A350000 		.4byte	0x352a
 9761 351e 2F       		.uleb128 0x2f
 9762 351f 01       		.uleb128 0x1
 9763 3520 50       		.byte	0x50
 9764 3521 02       		.uleb128 0x2
 9765 3522 76       		.byte	0x76
 9766 3523 00       		.sleb128 0
 9767 3524 2F       		.uleb128 0x2f
 9768 3525 01       		.uleb128 0x1
 9769 3526 51       		.byte	0x51
 9770 3527 01       		.uleb128 0x1
 9771 3528 30       		.byte	0x30
 9772 3529 00       		.byte	0
 9773 352a 2E       		.uleb128 0x2e
 9774 352b 44030000 		.4byte	.LVL286
 9775 352f 413C0000 		.4byte	0x3c41
 9776 3533 43350000 		.4byte	0x3543
 9777 3537 2F       		.uleb128 0x2f
 9778 3538 01       		.uleb128 0x1
 9779 3539 50       		.byte	0x50
 9780 353a 02       		.uleb128 0x2
 9781 353b 76       		.byte	0x76
 9782 353c 00       		.sleb128 0
 9783 353d 2F       		.uleb128 0x2f
 9784 353e 01       		.uleb128 0x1
 9785 353f 51       		.byte	0x51
 9786 3540 01       		.uleb128 0x1
 9787 3541 30       		.byte	0x30
 9788 3542 00       		.byte	0
 9789 3543 31       		.uleb128 0x31
 9790 3544 4C030000 		.4byte	.LVL287
 9791 3548 4C3C0000 		.4byte	0x3c4c
 9792 354c 2F       		.uleb128 0x2f
 9793 354d 01       		.uleb128 0x1
 9794 354e 50       		.byte	0x50
 9795 354f 02       		.uleb128 0x2
 9796 3550 76       		.byte	0x76
 9797 3551 00       		.sleb128 0
 9798 3552 2F       		.uleb128 0x2f
 9799 3553 01       		.uleb128 0x1
 9800 3554 51       		.byte	0x51
 9801 3555 01       		.uleb128 0x1
 9802 3556 30       		.byte	0x30
 9803 3557 00       		.byte	0
 9804 3558 00       		.byte	0
 9805 3559 35       		.uleb128 0x35
 9806 355a BA1D0000 		.4byte	0x1dba
 9807 355e 50030000 		.4byte	.LBB300
 9808 3562 10000000 		.4byte	.LBE300-.LBB300
 9809 3566 01       		.byte	0x1
 9810 3567 8A       		.byte	0x8a
 9811 3568 AD350000 		.4byte	0x35ad
 9812 356c 37       		.uleb128 0x37
 9813 356d D31D0000 		.4byte	0x1dd3
 9814 3571 EA020000 		.4byte	.LLST59
 9815 3575 37       		.uleb128 0x37
ARM GAS  C:\Users\haske\AppData\Local\Temp\ccSAQWsX.s 			page 204


 9816 3576 C71D0000 		.4byte	0x1dc7
 9817 357a FE020000 		.4byte	.LLST60
 9818 357e 2E       		.uleb128 0x2e
 9819 357f 58030000 		.4byte	.LVL289
 9820 3583 573C0000 		.4byte	0x3c57
 9821 3587 97350000 		.4byte	0x3597
 9822 358b 2F       		.uleb128 0x2f
 9823 358c 01       		.uleb128 0x1
 9824 358d 50       		.byte	0x50
 9825 358e 02       		.uleb128 0x2
 9826 358f 76       		.byte	0x76
 9827 3590 00       		.sleb128 0
 9828 3591 2F       		.uleb128 0x2f
 9829 3592 01       		.uleb128 0x1
 9830 3593 51       		.byte	0x51
 9831 3594 01       		.uleb128 0x1
 9832 3595 30       		.byte	0x30
 9833 3596 00       		.byte	0
 9834 3597 31       		.uleb128 0x31
 9835 3598 60030000 		.4byte	.LVL290
 9836 359c 623C0000 		.4byte	0x3c62
 9837 35a0 2F       		.uleb128 0x2f
 9838 35a1 01       		.uleb128 0x1
 9839 35a2 50       		.byte	0x50
 9840 35a3 02       		.uleb128 0x2
 9841 35a4 76       		.byte	0x76
 9842 35a5 00       		.sleb128 0
 9843 35a6 2F       		.uleb128 0x2f
 9844 35a7 01       		.uleb128 0x1
 9845 35a8 51       		.byte	0x51
 9846 35a9 01       		.uleb128 0x1
 9847 35aa 30       		.byte	0x30
 9848 35ab 00       		.byte	0
 9849 35ac 00       		.byte	0
 9850 35ad 35       		.uleb128 0x35
 9851 35ae A01D0000 		.4byte	0x1da0
 9852 35b2 C2030000 		.4byte	.LBB302
 9853 35b6 10000000 		.4byte	.LBE302-.LBB302
 9854 35ba 01       		.byte	0x1
 9855 35bb 9B       		.byte	0x9b
 9856 35bc ED350000 		.4byte	0x35ed
 9857 35c0 36       		.uleb128 0x36
 9858 35c1 701D0000 		.4byte	0x1d70
 9859 35c5 C2030000 		.4byte	.LBB303
 9860 35c9 10000000 		.4byte	.LBE303-.LBB303
 9861 35cd 02       		.byte	0x2
 9862 35ce B302     		.2byte	0x2b3
 9863 35d0 37       		.uleb128 0x37
 9864 35d1 951D0000 		.4byte	0x1d95
 9865 35d5 11030000 		.4byte	.LLST61
 9866 35d9 37       		.uleb128 0x37
 9867 35da 8B1D0000 		.4byte	0x1d8b
 9868 35de 11030000 		.4byte	.LLST61
 9869 35e2 37       		.uleb128 0x37
 9870 35e3 811D0000 		.4byte	0x1d81
 9871 35e7 11030000 		.4byte	.LLST61
 9872 35eb 00       		.byte	0
ARM GAS  C:\Users\haske\AppData\Local\Temp\ccSAQWsX.s 			page 205


 9873 35ec 00       		.byte	0
 9874 35ed 30       		.uleb128 0x30
 9875 35ee 10000000 		.4byte	.LVL196
 9876 35f2 472F0000 		.4byte	0x2f47
 9877 35f6 2E       		.uleb128 0x2e
 9878 35f7 1A000000 		.4byte	.LVL197
 9879 35fb 6D3C0000 		.4byte	0x3c6d
 9880 35ff 0A360000 		.4byte	0x360a
 9881 3603 2F       		.uleb128 0x2f
 9882 3604 01       		.uleb128 0x1
 9883 3605 51       		.byte	0x51
 9884 3606 02       		.uleb128 0x2
 9885 3607 09       		.byte	0x9
 9886 3608 FF       		.byte	0xff
 9887 3609 00       		.byte	0
 9888 360a 30       		.uleb128 0x30
 9889 360b 36000000 		.4byte	.LVL200
 9890 360f 783C0000 		.4byte	0x3c78
 9891 3613 2E       		.uleb128 0x2e
 9892 3614 42000000 		.4byte	.LVL201
 9893 3618 833C0000 		.4byte	0x3c83
 9894 361c 26360000 		.4byte	0x3626
 9895 3620 2F       		.uleb128 0x2f
 9896 3621 01       		.uleb128 0x1
 9897 3622 51       		.byte	0x51
 9898 3623 01       		.uleb128 0x1
 9899 3624 34       		.byte	0x34
 9900 3625 00       		.byte	0
 9901 3626 30       		.uleb128 0x30
 9902 3627 48000000 		.4byte	.LVL202
 9903 362b 472F0000 		.4byte	0x2f47
 9904 362f 2E       		.uleb128 0x2e
 9905 3630 50000000 		.4byte	.LVL203
 9906 3634 6D3C0000 		.4byte	0x3c6d
 9907 3638 43360000 		.4byte	0x3643
 9908 363c 2F       		.uleb128 0x2f
 9909 363d 01       		.uleb128 0x1
 9910 363e 51       		.byte	0x51
 9911 363f 02       		.uleb128 0x2
 9912 3640 09       		.byte	0x9
 9913 3641 FF       		.byte	0xff
 9914 3642 00       		.byte	0
 9915 3643 30       		.uleb128 0x30
 9916 3644 6A000000 		.4byte	.LVL206
 9917 3648 783C0000 		.4byte	0x3c78
 9918 364c 30       		.uleb128 0x30
 9919 364d 86000000 		.4byte	.LVL209
 9920 3651 8E3C0000 		.4byte	0x3c8e
 9921 3655 2E       		.uleb128 0x2e
 9922 3656 90000000 		.4byte	.LVL210
 9923 365a 573C0000 		.4byte	0x3c57
 9924 365e 68360000 		.4byte	0x3668
 9925 3662 2F       		.uleb128 0x2f
 9926 3663 01       		.uleb128 0x1
 9927 3664 51       		.byte	0x51
 9928 3665 01       		.uleb128 0x1
 9929 3666 34       		.byte	0x34
ARM GAS  C:\Users\haske\AppData\Local\Temp\ccSAQWsX.s 			page 206


 9930 3667 00       		.byte	0
 9931 3668 2E       		.uleb128 0x2e
 9932 3669 98000000 		.4byte	.LVL211
 9933 366d 623C0000 		.4byte	0x3c62
 9934 3671 7B360000 		.4byte	0x367b
 9935 3675 2F       		.uleb128 0x2f
 9936 3676 01       		.uleb128 0x1
 9937 3677 51       		.byte	0x51
 9938 3678 01       		.uleb128 0x1
 9939 3679 34       		.byte	0x34
 9940 367a 00       		.byte	0
 9941 367b 2E       		.uleb128 0x2e
 9942 367c A0000000 		.4byte	.LVL212
 9943 3680 993C0000 		.4byte	0x3c99
 9944 3684 8F360000 		.4byte	0x368f
 9945 3688 2F       		.uleb128 0x2f
 9946 3689 01       		.uleb128 0x1
 9947 368a 51       		.byte	0x51
 9948 368b 02       		.uleb128 0x2
 9949 368c 76       		.byte	0x76
 9950 368d 00       		.sleb128 0
 9951 368e 00       		.byte	0
 9952 368f 30       		.uleb128 0x30
 9953 3690 A8000000 		.4byte	.LVL213
 9954 3694 472F0000 		.4byte	0x2f47
 9955 3698 2E       		.uleb128 0x2e
 9956 3699 B2000000 		.4byte	.LVL214
 9957 369d 6D3C0000 		.4byte	0x3c6d
 9958 36a1 AC360000 		.4byte	0x36ac
 9959 36a5 2F       		.uleb128 0x2f
 9960 36a6 01       		.uleb128 0x1
 9961 36a7 51       		.byte	0x51
 9962 36a8 02       		.uleb128 0x2
 9963 36a9 09       		.byte	0x9
 9964 36aa FF       		.byte	0xff
 9965 36ab 00       		.byte	0
 9966 36ac 30       		.uleb128 0x30
 9967 36ad CE000000 		.4byte	.LVL217
 9968 36b1 783C0000 		.4byte	0x3c78
 9969 36b5 30       		.uleb128 0x30
 9970 36b6 EC000000 		.4byte	.LVL220
 9971 36ba A43C0000 		.4byte	0x3ca4
 9972 36be 2E       		.uleb128 0x2e
 9973 36bf F8000000 		.4byte	.LVL222
 9974 36c3 AF3C0000 		.4byte	0x3caf
 9975 36c7 D1360000 		.4byte	0x36d1
 9976 36cb 2F       		.uleb128 0x2f
 9977 36cc 01       		.uleb128 0x1
 9978 36cd 51       		.byte	0x51
 9979 36ce 01       		.uleb128 0x1
 9980 36cf 32       		.byte	0x32
 9981 36d0 00       		.byte	0
 9982 36d1 2E       		.uleb128 0x2e
 9983 36d2 02010000 		.4byte	.LVL223
 9984 36d6 BA3C0000 		.4byte	0x3cba
 9985 36da E4360000 		.4byte	0x36e4
 9986 36de 2F       		.uleb128 0x2f
ARM GAS  C:\Users\haske\AppData\Local\Temp\ccSAQWsX.s 			page 207


 9987 36df 01       		.uleb128 0x1
 9988 36e0 51       		.byte	0x51
 9989 36e1 01       		.uleb128 0x1
 9990 36e2 31       		.byte	0x31
 9991 36e3 00       		.byte	0
 9992 36e4 30       		.uleb128 0x30
 9993 36e5 56010000 		.4byte	.LVL234
 9994 36e9 8E3C0000 		.4byte	0x3c8e
 9995 36ed 2E       		.uleb128 0x2e
 9996 36ee 62010000 		.4byte	.LVL235
 9997 36f2 C53C0000 		.4byte	0x3cc5
 9998 36f6 00370000 		.4byte	0x3700
 9999 36fa 2F       		.uleb128 0x2f
 10000 36fb 01       		.uleb128 0x1
 10001 36fc 51       		.byte	0x51
 10002 36fd 01       		.uleb128 0x1
 10003 36fe 32       		.byte	0x32
 10004 36ff 00       		.byte	0
 10005 3700 30       		.uleb128 0x30
 10006 3701 7E010000 		.4byte	.LVL238
 10007 3705 D03C0000 		.4byte	0x3cd0
 10008 3709 2E       		.uleb128 0x2e
 10009 370a 8A010000 		.4byte	.LVL239
 10010 370e DB3C0000 		.4byte	0x3cdb
 10011 3712 1C370000 		.4byte	0x371c
 10012 3716 2F       		.uleb128 0x2f
 10013 3717 01       		.uleb128 0x1
 10014 3718 51       		.byte	0x51
 10015 3719 01       		.uleb128 0x1
 10016 371a 32       		.byte	0x32
 10017 371b 00       		.byte	0
 10018 371c 30       		.uleb128 0x30
 10019 371d A6010000 		.4byte	.LVL242
 10020 3721 E63C0000 		.4byte	0x3ce6
 10021 3725 30       		.uleb128 0x30
 10022 3726 C4010000 		.4byte	.LVL245
 10023 372a F13C0000 		.4byte	0x3cf1
 10024 372e 2E       		.uleb128 0x2e
 10025 372f D2010000 		.4byte	.LVL246
 10026 3733 FC3C0000 		.4byte	0x3cfc
 10027 3737 43370000 		.4byte	0x3743
 10028 373b 2F       		.uleb128 0x2f
 10029 373c 01       		.uleb128 0x1
 10030 373d 51       		.byte	0x51
 10031 373e 03       		.uleb128 0x3
 10032 373f 0A       		.byte	0xa
 10033 3740 2C01     		.2byte	0x12c
 10034 3742 00       		.byte	0
 10035 3743 30       		.uleb128 0x30
 10036 3744 DA010000 		.4byte	.LVL247
 10037 3748 472F0000 		.4byte	0x2f47
 10038 374c 2E       		.uleb128 0x2e
 10039 374d E4010000 		.4byte	.LVL248
 10040 3751 BA3C0000 		.4byte	0x3cba
 10041 3755 5F370000 		.4byte	0x375f
 10042 3759 2F       		.uleb128 0x2f
 10043 375a 01       		.uleb128 0x1
ARM GAS  C:\Users\haske\AppData\Local\Temp\ccSAQWsX.s 			page 208


 10044 375b 51       		.byte	0x51
 10045 375c 01       		.uleb128 0x1
 10046 375d 33       		.byte	0x33
 10047 375e 00       		.byte	0
 10048 375f 30       		.uleb128 0x30
 10049 3760 EC010000 		.4byte	.LVL249
 10050 3764 472F0000 		.4byte	0x2f47
 10051 3768 2E       		.uleb128 0x2e
 10052 3769 F6010000 		.4byte	.LVL250
 10053 376d 6D3C0000 		.4byte	0x3c6d
 10054 3771 7C370000 		.4byte	0x377c
 10055 3775 2F       		.uleb128 0x2f
 10056 3776 01       		.uleb128 0x1
 10057 3777 51       		.byte	0x51
 10058 3778 02       		.uleb128 0x2
 10059 3779 09       		.byte	0x9
 10060 377a FF       		.byte	0xff
 10061 377b 00       		.byte	0
 10062 377c 30       		.uleb128 0x30
 10063 377d 12020000 		.4byte	.LVL253
 10064 3781 783C0000 		.4byte	0x3c78
 10065 3785 30       		.uleb128 0x30
 10066 3786 30020000 		.4byte	.LVL256
 10067 378a A43C0000 		.4byte	0x3ca4
 10068 378e 30       		.uleb128 0x30
 10069 378f 4E020000 		.4byte	.LVL259
 10070 3793 D03C0000 		.4byte	0x3cd0
 10071 3797 30       		.uleb128 0x30
 10072 3798 6C020000 		.4byte	.LVL262
 10073 379c E63C0000 		.4byte	0x3ce6
 10074 37a0 30       		.uleb128 0x30
 10075 37a1 8A020000 		.4byte	.LVL265
 10076 37a5 8E3C0000 		.4byte	0x3c8e
 10077 37a9 30       		.uleb128 0x30
 10078 37aa B0020000 		.4byte	.LVL268
 10079 37ae F13C0000 		.4byte	0x3cf1
 10080 37b2 30       		.uleb128 0x30
 10081 37b3 BA020000 		.4byte	.LVL269
 10082 37b7 472F0000 		.4byte	0x2f47
 10083 37bb 2E       		.uleb128 0x2e
 10084 37bc C4020000 		.4byte	.LVL270
 10085 37c0 BA3C0000 		.4byte	0x3cba
 10086 37c4 CE370000 		.4byte	0x37ce
 10087 37c8 2F       		.uleb128 0x2f
 10088 37c9 01       		.uleb128 0x1
 10089 37ca 51       		.byte	0x51
 10090 37cb 01       		.uleb128 0x1
 10091 37cc 30       		.byte	0x30
 10092 37cd 00       		.byte	0
 10093 37ce 30       		.uleb128 0x30
 10094 37cf CC020000 		.4byte	.LVL271
 10095 37d3 472F0000 		.4byte	0x2f47
 10096 37d7 2E       		.uleb128 0x2e
 10097 37d8 D6020000 		.4byte	.LVL272
 10098 37dc 073D0000 		.4byte	0x3d07
 10099 37e0 EA370000 		.4byte	0x37ea
 10100 37e4 2F       		.uleb128 0x2f
ARM GAS  C:\Users\haske\AppData\Local\Temp\ccSAQWsX.s 			page 209


 10101 37e5 01       		.uleb128 0x1
 10102 37e6 51       		.byte	0x51
 10103 37e7 01       		.uleb128 0x1
 10104 37e8 31       		.byte	0x31
 10105 37e9 00       		.byte	0
 10106 37ea 2E       		.uleb128 0x2e
 10107 37eb E0020000 		.4byte	.LVL273
 10108 37ef 123D0000 		.4byte	0x3d12
 10109 37f3 FD370000 		.4byte	0x37fd
 10110 37f7 2F       		.uleb128 0x2f
 10111 37f8 01       		.uleb128 0x1
 10112 37f9 51       		.byte	0x51
 10113 37fa 01       		.uleb128 0x1
 10114 37fb 31       		.byte	0x31
 10115 37fc 00       		.byte	0
 10116 37fd 30       		.uleb128 0x30
 10117 37fe E8020000 		.4byte	.LVL274
 10118 3802 472F0000 		.4byte	0x2f47
 10119 3806 2E       		.uleb128 0x2e
 10120 3807 F2020000 		.4byte	.LVL275
 10121 380b 073D0000 		.4byte	0x3d07
 10122 380f 19380000 		.4byte	0x3819
 10123 3813 2F       		.uleb128 0x2f
 10124 3814 01       		.uleb128 0x1
 10125 3815 51       		.byte	0x51
 10126 3816 01       		.uleb128 0x1
 10127 3817 32       		.byte	0x32
 10128 3818 00       		.byte	0
 10129 3819 30       		.uleb128 0x30
 10130 381a FA020000 		.4byte	.LVL276
 10131 381e 472F0000 		.4byte	0x2f47
 10132 3822 2E       		.uleb128 0x2e
 10133 3823 04030000 		.4byte	.LVL277
 10134 3827 BA3C0000 		.4byte	0x3cba
 10135 382b 35380000 		.4byte	0x3835
 10136 382f 2F       		.uleb128 0x2f
 10137 3830 01       		.uleb128 0x1
 10138 3831 51       		.byte	0x51
 10139 3832 01       		.uleb128 0x1
 10140 3833 32       		.byte	0x32
 10141 3834 00       		.byte	0
 10142 3835 30       		.uleb128 0x30
 10143 3836 0C030000 		.4byte	.LVL278
 10144 383a 472F0000 		.4byte	0x2f47
 10145 383e 30       		.uleb128 0x30
 10146 383f 28030000 		.4byte	.LVL282
 10147 3843 472F0000 		.4byte	0x2f47
 10148 3847 30       		.uleb128 0x30
 10149 3848 68030000 		.4byte	.LVL291
 10150 384c 472F0000 		.4byte	0x2f47
 10151 3850 2E       		.uleb128 0x2e
 10152 3851 72030000 		.4byte	.LVL292
 10153 3855 AF3C0000 		.4byte	0x3caf
 10154 3859 63380000 		.4byte	0x3863
 10155 385d 2F       		.uleb128 0x2f
 10156 385e 01       		.uleb128 0x1
 10157 385f 51       		.byte	0x51
ARM GAS  C:\Users\haske\AppData\Local\Temp\ccSAQWsX.s 			page 210


 10158 3860 01       		.uleb128 0x1
 10159 3861 30       		.byte	0x30
 10160 3862 00       		.byte	0
 10161 3863 30       		.uleb128 0x30
 10162 3864 7A030000 		.4byte	.LVL293
 10163 3868 472F0000 		.4byte	0x2f47
 10164 386c 2E       		.uleb128 0x2e
 10165 386d 84030000 		.4byte	.LVL294
 10166 3871 AF3C0000 		.4byte	0x3caf
 10167 3875 81380000 		.4byte	0x3881
 10168 3879 2F       		.uleb128 0x2f
 10169 387a 01       		.uleb128 0x1
 10170 387b 51       		.byte	0x51
 10171 387c 03       		.uleb128 0x3
 10172 387d 0A       		.byte	0xa
 10173 387e FF7F     		.2byte	0x7fff
 10174 3880 00       		.byte	0
 10175 3881 30       		.uleb128 0x30
 10176 3882 8C030000 		.4byte	.LVL295
 10177 3886 472F0000 		.4byte	0x2f47
 10178 388a 2E       		.uleb128 0x2e
 10179 388b 96030000 		.4byte	.LVL296
 10180 388f 1D3D0000 		.4byte	0x3d1d
 10181 3893 9D380000 		.4byte	0x389d
 10182 3897 2F       		.uleb128 0x2f
 10183 3898 01       		.uleb128 0x1
 10184 3899 51       		.byte	0x51
 10185 389a 01       		.uleb128 0x1
 10186 389b 36       		.byte	0x36
 10187 389c 00       		.byte	0
 10188 389d 30       		.uleb128 0x30
 10189 389e 9E030000 		.4byte	.LVL297
 10190 38a2 472F0000 		.4byte	0x2f47
 10191 38a6 2E       		.uleb128 0x2e
 10192 38a7 A8030000 		.4byte	.LVL298
 10193 38ab 283D0000 		.4byte	0x3d28
 10194 38af B9380000 		.4byte	0x38b9
 10195 38b3 2F       		.uleb128 0x2f
 10196 38b4 01       		.uleb128 0x1
 10197 38b5 51       		.byte	0x51
 10198 38b6 01       		.uleb128 0x1
 10199 38b7 31       		.byte	0x31
 10200 38b8 00       		.byte	0
 10201 38b9 30       		.uleb128 0x30
 10202 38ba B0030000 		.4byte	.LVL299
 10203 38be 472F0000 		.4byte	0x2f47
 10204 38c2 2E       		.uleb128 0x2e
 10205 38c3 BA030000 		.4byte	.LVL300
 10206 38c7 333D0000 		.4byte	0x3d33
 10207 38cb D5380000 		.4byte	0x38d5
 10208 38cf 2F       		.uleb128 0x2f
 10209 38d0 01       		.uleb128 0x1
 10210 38d1 51       		.byte	0x51
 10211 38d2 01       		.uleb128 0x1
 10212 38d3 34       		.byte	0x34
 10213 38d4 00       		.byte	0
 10214 38d5 30       		.uleb128 0x30
ARM GAS  C:\Users\haske\AppData\Local\Temp\ccSAQWsX.s 			page 211


 10215 38d6 D6030000 		.4byte	.LVL303
 10216 38da A43C0000 		.4byte	0x3ca4
 10217 38de 2E       		.uleb128 0x2e
 10218 38df E2030000 		.4byte	.LVL304
 10219 38e3 BA3C0000 		.4byte	0x3cba
 10220 38e7 F1380000 		.4byte	0x38f1
 10221 38eb 2F       		.uleb128 0x2f
 10222 38ec 01       		.uleb128 0x1
 10223 38ed 51       		.byte	0x51
 10224 38ee 01       		.uleb128 0x1
 10225 38ef 32       		.byte	0x32
 10226 38f0 00       		.byte	0
 10227 38f1 2E       		.uleb128 0x2e
 10228 38f2 EC030000 		.4byte	.LVL305
 10229 38f6 6D3C0000 		.4byte	0x3c6d
 10230 38fa 04390000 		.4byte	0x3904
 10231 38fe 2F       		.uleb128 0x2f
 10232 38ff 01       		.uleb128 0x1
 10233 3900 51       		.byte	0x51
 10234 3901 01       		.uleb128 0x1
 10235 3902 30       		.byte	0x30
 10236 3903 00       		.byte	0
 10237 3904 31       		.uleb128 0x31
 10238 3905 F8030000 		.4byte	.LVL306
 10239 3909 FC3C0000 		.4byte	0x3cfc
 10240 390d 2F       		.uleb128 0x2f
 10241 390e 01       		.uleb128 0x1
 10242 390f 51       		.byte	0x51
 10243 3910 03       		.uleb128 0x3
 10244 3911 0A       		.byte	0xa
 10245 3912 F401     		.2byte	0x1f4
 10246 3914 00       		.byte	0
 10247 3915 00       		.byte	0
 10248 3916 38       		.uleb128 0x38
 10249 3917 76210000 		.4byte	.LASF627
 10250 391b 01       		.byte	0x1
 10251 391c A7       		.byte	0xa7
 10252 391d 4A030000 		.4byte	0x34a
 10253 3921 00000000 		.4byte	.LFB203
 10254 3925 10000000 		.4byte	.LFE203-.LFB203
 10255 3929 01       		.uleb128 0x1
 10256 392a 9C       		.byte	0x9c
 10257 392b 39       		.uleb128 0x39
 10258 392c 0A130000 		.4byte	.LASF628
 10259 3930 01       		.byte	0x1
 10260 3931 AC       		.byte	0xac
 10261 3932 412F0000 		.4byte	0x2f41
 10262 3936 00000000 		.4byte	.LFB204
 10263 393a 6C000000 		.4byte	.LFE204-.LFB204
 10264 393e 01       		.uleb128 0x1
 10265 393f 9C       		.byte	0x9c
 10266 3940 C3390000 		.4byte	0x39c3
 10267 3944 34       		.uleb128 0x34
 10268 3945 99140000 		.4byte	.LASF374
 10269 3949 01       		.byte	0x1
 10270 394a AC       		.byte	0xac
 10271 394b C3390000 		.4byte	0x39c3
ARM GAS  C:\Users\haske\AppData\Local\Temp\ccSAQWsX.s 			page 212


 10272 394f 26030000 		.4byte	.LLST64
 10273 3953 34       		.uleb128 0x34
 10274 3954 320A0000 		.4byte	.LASF542
 10275 3958 01       		.byte	0x1
 10276 3959 AC       		.byte	0xac
 10277 395a 4A030000 		.4byte	0x34a
 10278 395e 52030000 		.4byte	.LLST65
 10279 3962 34       		.uleb128 0x34
 10280 3963 61000000 		.4byte	.LASF245
 10281 3967 01       		.byte	0x1
 10282 3968 AC       		.byte	0xac
 10283 3969 B60B0000 		.4byte	0xbb6
 10284 396d 73030000 		.4byte	.LLST66
 10285 3971 2E       		.uleb128 0x2e
 10286 3972 1A000000 		.4byte	.LVL309
 10287 3976 3E3D0000 		.4byte	0x3d3e
 10288 397a 85390000 		.4byte	0x3985
 10289 397e 2F       		.uleb128 0x2f
 10290 397f 01       		.uleb128 0x1
 10291 3980 50       		.byte	0x50
 10292 3981 02       		.uleb128 0x2
 10293 3982 08       		.byte	0x8
 10294 3983 88       		.byte	0x88
 10295 3984 00       		.byte	0
 10296 3985 2E       		.uleb128 0x2e
 10297 3986 38000000 		.4byte	.LVL310
 10298 398a B22F0000 		.4byte	0x2fb2
 10299 398e 9F390000 		.4byte	0x399f
 10300 3992 2F       		.uleb128 0x2f
 10301 3993 01       		.uleb128 0x1
 10302 3994 50       		.byte	0x50
 10303 3995 02       		.uleb128 0x2
 10304 3996 74       		.byte	0x74
 10305 3997 00       		.sleb128 0
 10306 3998 2F       		.uleb128 0x2f
 10307 3999 01       		.uleb128 0x1
 10308 399a 51       		.byte	0x51
 10309 399b 02       		.uleb128 0x2
 10310 399c 75       		.byte	0x75
 10311 399d 00       		.sleb128 0
 10312 399e 00       		.byte	0
 10313 399f 2E       		.uleb128 0x2e
 10314 39a0 42000000 		.4byte	.LVL311
 10315 39a4 493D0000 		.4byte	0x3d49
 10316 39a8 B3390000 		.4byte	0x39b3
 10317 39ac 2F       		.uleb128 0x2f
 10318 39ad 01       		.uleb128 0x1
 10319 39ae 50       		.byte	0x50
 10320 39af 02       		.uleb128 0x2
 10321 39b0 76       		.byte	0x76
 10322 39b1 00       		.sleb128 0
 10323 39b2 00       		.byte	0
 10324 39b3 31       		.uleb128 0x31
 10325 39b4 50000000 		.4byte	.LVL312
 10326 39b8 543D0000 		.4byte	0x3d54
 10327 39bc 2F       		.uleb128 0x2f
 10328 39bd 01       		.uleb128 0x1
ARM GAS  C:\Users\haske\AppData\Local\Temp\ccSAQWsX.s 			page 213


 10329 39be 50       		.byte	0x50
 10330 39bf 01       		.uleb128 0x1
 10331 39c0 30       		.byte	0x30
 10332 39c1 00       		.byte	0
 10333 39c2 00       		.byte	0
 10334 39c3 05       		.uleb128 0x5
 10335 39c4 04       		.byte	0x4
 10336 39c5 5D160000 		.4byte	0x165d
 10337 39c9 3A       		.uleb128 0x3a
 10338 39ca EA020000 		.4byte	.LASF208
 10339 39ce 01       		.byte	0x1
 10340 39cf 41       		.byte	0x41
 10341 39d0 DA390000 		.4byte	0x39da
 10342 39d4 05       		.uleb128 0x5
 10343 39d5 03       		.byte	0x3
 10344 39d6 00000000 		.4byte	styles
 10345 39da 05       		.uleb128 0x5
 10346 39db 04       		.byte	0x4
 10347 39dc 651D0000 		.4byte	0x1d65
 10348 39e0 3A       		.uleb128 0x3a
 10349 39e1 4D0D0000 		.4byte	.LASF355
 10350 39e5 01       		.byte	0x1
 10351 39e6 42       		.byte	0x42
 10352 39e7 301C0000 		.4byte	0x1c30
 10353 39eb 05       		.uleb128 0x5
 10354 39ec 03       		.byte	0x3
 10355 39ed 08000000 		.4byte	theme
 10356 39f1 3A       		.uleb128 0x3a
 10357 39f2 65160000 		.4byte	.LASF543
 10358 39f6 01       		.byte	0x1
 10359 39f7 43       		.byte	0x43
 10360 39f8 4A030000 		.4byte	0x34a
 10361 39fc 05       		.uleb128 0x5
 10362 39fd 03       		.byte	0x3
 10363 39fe 04000000 		.4byte	inited
 10364 3a02 3B       		.uleb128 0x3b
 10365 3a03 46160000 		.4byte	.LASF544
 10366 3a07 0A       		.byte	0xa
 10367 3a08 94       		.byte	0x94
 10368 3a09 BC0B0000 		.4byte	0xbbc
 10369 3a0d 3B       		.uleb128 0x3b
 10370 3a0e 59100000 		.4byte	.LASF545
 10371 3a12 0E       		.byte	0xe
 10372 3a13 95       		.byte	0x95
 10373 3a14 ED1B0000 		.4byte	0x1bed
 10374 3a18 3B       		.uleb128 0x3b
 10375 3a19 171C0000 		.4byte	.LASF546
 10376 3a1d 20       		.byte	0x20
 10377 3a1e 37       		.byte	0x37
 10378 3a1f ED1B0000 		.4byte	0x1bed
 10379 3a23 3B       		.uleb128 0x3b
 10380 3a24 BA140000 		.4byte	.LASF547
 10381 3a28 21       		.byte	0x21
 10382 3a29 21       		.byte	0x21
 10383 3a2a ED1B0000 		.4byte	0x1bed
 10384 3a2e 3B       		.uleb128 0x3b
 10385 3a2f CF150000 		.4byte	.LASF548
ARM GAS  C:\Users\haske\AppData\Local\Temp\ccSAQWsX.s 			page 214


 10386 3a33 22       		.byte	0x22
 10387 3a34 3D       		.byte	0x3d
 10388 3a35 ED1B0000 		.4byte	0x1bed
 10389 3a39 3B       		.uleb128 0x3b
 10390 3a3a 371E0000 		.4byte	.LASF549
 10391 3a3e 23       		.byte	0x23
 10392 3a3f 23       		.byte	0x23
 10393 3a40 ED1B0000 		.4byte	0x1bed
 10394 3a44 3B       		.uleb128 0x3b
 10395 3a45 8C030000 		.4byte	.LASF550
 10396 3a49 1E       		.byte	0x1e
 10397 3a4a 3B       		.byte	0x3b
 10398 3a4b ED1B0000 		.4byte	0x1bed
 10399 3a4f 3B       		.uleb128 0x3b
 10400 3a50 BB1B0000 		.4byte	.LASF551
 10401 3a54 24       		.byte	0x24
 10402 3a55 34       		.byte	0x34
 10403 3a56 ED1B0000 		.4byte	0x1bed
 10404 3a5a 3B       		.uleb128 0x3b
 10405 3a5b 80100000 		.4byte	.LASF552
 10406 3a5f 25       		.byte	0x25
 10407 3a60 42       		.byte	0x42
 10408 3a61 ED1B0000 		.4byte	0x1bed
 10409 3a65 3B       		.uleb128 0x3b
 10410 3a66 61220000 		.4byte	.LASF553
 10411 3a6a 26       		.byte	0x26
 10412 3a6b 3A       		.byte	0x3a
 10413 3a6c ED1B0000 		.4byte	0x1bed
 10414 3a70 3B       		.uleb128 0x3b
 10415 3a71 8E070000 		.4byte	.LASF554
 10416 3a75 26       		.byte	0x26
 10417 3a76 3B       		.byte	0x3b
 10418 3a77 ED1B0000 		.4byte	0x1bed
 10419 3a7b 3B       		.uleb128 0x3b
 10420 3a7c 31150000 		.4byte	.LASF555
 10421 3a80 27       		.byte	0x27
 10422 3a81 35       		.byte	0x35
 10423 3a82 ED1B0000 		.4byte	0x1bed
 10424 3a86 3B       		.uleb128 0x3b
 10425 3a87 28180000 		.4byte	.LASF556
 10426 3a8b 28       		.byte	0x28
 10427 3a8c 45       		.byte	0x45
 10428 3a8d ED1B0000 		.4byte	0x1bed
 10429 3a91 3B       		.uleb128 0x3b
 10430 3a92 1F170000 		.4byte	.LASF557
 10431 3a96 29       		.byte	0x29
 10432 3a97 26       		.byte	0x26
 10433 3a98 ED1B0000 		.4byte	0x1bed
 10434 3a9c 3B       		.uleb128 0x3b
 10435 3a9d AE090000 		.4byte	.LASF558
 10436 3aa1 2A       		.byte	0x2a
 10437 3aa2 3D       		.byte	0x3d
 10438 3aa3 F2070000 		.4byte	0x7f2
 10439 3aa7 3B       		.uleb128 0x3b
 10440 3aa8 9C160000 		.4byte	.LASF559
 10441 3aac 2A       		.byte	0x2a
 10442 3aad 3E       		.byte	0x3e
ARM GAS  C:\Users\haske\AppData\Local\Temp\ccSAQWsX.s 			page 215


 10443 3aae F2070000 		.4byte	0x7f2
 10444 3ab2 3B       		.uleb128 0x3b
 10445 3ab3 94090000 		.4byte	.LASF560
 10446 3ab7 2A       		.byte	0x2a
 10447 3ab8 3F       		.byte	0x3f
 10448 3ab9 F2070000 		.4byte	0x7f2
 10449 3abd 3B       		.uleb128 0x3b
 10450 3abe BC250000 		.4byte	.LASF561
 10451 3ac2 2A       		.byte	0x2a
 10452 3ac3 40       		.byte	0x40
 10453 3ac4 F2070000 		.4byte	0x7f2
 10454 3ac8 3B       		.uleb128 0x3b
 10455 3ac9 EA0B0000 		.4byte	.LASF562
 10456 3acd 2A       		.byte	0x2a
 10457 3ace 41       		.byte	0x41
 10458 3acf F2070000 		.4byte	0x7f2
 10459 3ad3 3B       		.uleb128 0x3b
 10460 3ad4 C5060000 		.4byte	.LASF563
 10461 3ad8 2B       		.byte	0x2b
 10462 3ad9 39       		.byte	0x39
 10463 3ada F2070000 		.4byte	0x7f2
 10464 3ade 3B       		.uleb128 0x3b
 10465 3adf A0100000 		.4byte	.LASF564
 10466 3ae3 2B       		.byte	0x2b
 10467 3ae4 3A       		.byte	0x3a
 10468 3ae5 F2070000 		.4byte	0x7f2
 10469 3ae9 3B       		.uleb128 0x3b
 10470 3aea 8F020000 		.4byte	.LASF565
 10471 3aee 2B       		.byte	0x2b
 10472 3aef 3B       		.byte	0x3b
 10473 3af0 F2070000 		.4byte	0x7f2
 10474 3af4 3B       		.uleb128 0x3b
 10475 3af5 6A020000 		.4byte	.LASF566
 10476 3af9 2B       		.byte	0x2b
 10477 3afa 3C       		.byte	0x3c
 10478 3afb F2070000 		.4byte	0x7f2
 10479 3aff 3B       		.uleb128 0x3b
 10480 3b00 DB100000 		.4byte	.LASF567
 10481 3b04 2B       		.byte	0x2b
 10482 3b05 3D       		.byte	0x3d
 10483 3b06 F2070000 		.4byte	0x7f2
 10484 3b0a 3B       		.uleb128 0x3b
 10485 3b0b 8A180000 		.4byte	.LASF568
 10486 3b0f 2B       		.byte	0x2b
 10487 3b10 3E       		.byte	0x3e
 10488 3b11 F2070000 		.4byte	0x7f2
 10489 3b15 3B       		.uleb128 0x3b
 10490 3b16 D1140000 		.4byte	.LASF569
 10491 3b1a 2B       		.byte	0x2b
 10492 3b1b 3F       		.byte	0x3f
 10493 3b1c F2070000 		.4byte	0x7f2
 10494 3b20 3B       		.uleb128 0x3b
 10495 3b21 191D0000 		.4byte	.LASF570
 10496 3b25 2B       		.byte	0x2b
 10497 3b26 40       		.byte	0x40
 10498 3b27 F2070000 		.4byte	0x7f2
 10499 3b2b 3B       		.uleb128 0x3b
ARM GAS  C:\Users\haske\AppData\Local\Temp\ccSAQWsX.s 			page 216


 10500 3b2c A0150000 		.4byte	.LASF571
 10501 3b30 2B       		.byte	0x2b
 10502 3b31 41       		.byte	0x41
 10503 3b32 F2070000 		.4byte	0x7f2
 10504 3b36 3B       		.uleb128 0x3b
 10505 3b37 141E0000 		.4byte	.LASF572
 10506 3b3b 2B       		.byte	0x2b
 10507 3b3c 42       		.byte	0x42
 10508 3b3d F2070000 		.4byte	0x7f2
 10509 3b41 3B       		.uleb128 0x3b
 10510 3b42 73220000 		.4byte	.LASF573
 10511 3b46 2C       		.byte	0x2c
 10512 3b47 33       		.byte	0x33
 10513 3b48 ED1B0000 		.4byte	0x1bed
 10514 3b4c 3B       		.uleb128 0x3b
 10515 3b4d F3240000 		.4byte	.LASF574
 10516 3b51 2D       		.byte	0x2d
 10517 3b52 79       		.byte	0x79
 10518 3b53 ED1B0000 		.4byte	0x1bed
 10519 3b57 3B       		.uleb128 0x3b
 10520 3b58 CE210000 		.4byte	.LASF575
 10521 3b5c 2E       		.byte	0x2e
 10522 3b5d 3B       		.byte	0x3b
 10523 3b5e ED1B0000 		.4byte	0x1bed
 10524 3b62 3B       		.uleb128 0x3b
 10525 3b63 39170000 		.4byte	.LASF576
 10526 3b67 2F       		.byte	0x2f
 10527 3b68 1D       		.byte	0x1d
 10528 3b69 ED1B0000 		.4byte	0x1bed
 10529 3b6d 3B       		.uleb128 0x3b
 10530 3b6e 4A250000 		.4byte	.LASF577
 10531 3b72 2F       		.byte	0x2f
 10532 3b73 1E       		.byte	0x1e
 10533 3b74 ED1B0000 		.4byte	0x1bed
 10534 3b78 3B       		.uleb128 0x3b
 10535 3b79 C20A0000 		.4byte	.LASF578
 10536 3b7d 2F       		.byte	0x2f
 10537 3b7e 1F       		.byte	0x1f
 10538 3b7f ED1B0000 		.4byte	0x1bed
 10539 3b83 3B       		.uleb128 0x3b
 10540 3b84 731E0000 		.4byte	.LASF579
 10541 3b88 30       		.byte	0x30
 10542 3b89 2E       		.byte	0x2e
 10543 3b8a ED1B0000 		.4byte	0x1bed
 10544 3b8e 3B       		.uleb128 0x3b
 10545 3b8f 0F010000 		.4byte	.LASF580
 10546 3b93 31       		.byte	0x31
 10547 3b94 64       		.byte	0x64
 10548 3b95 ED1B0000 		.4byte	0x1bed
 10549 3b99 3B       		.uleb128 0x3b
 10550 3b9a AC0D0000 		.4byte	.LASF581
 10551 3b9e 32       		.byte	0x32
 10552 3b9f 30       		.byte	0x30
 10553 3ba0 ED1B0000 		.4byte	0x1bed
 10554 3ba4 3B       		.uleb128 0x3b
 10555 3ba5 4B010000 		.4byte	.LASF582
 10556 3ba9 33       		.byte	0x33
ARM GAS  C:\Users\haske\AppData\Local\Temp\ccSAQWsX.s 			page 217


 10557 3baa 24       		.byte	0x24
 10558 3bab ED1B0000 		.4byte	0x1bed
 10559 3baf 3B       		.uleb128 0x3b
 10560 3bb0 B2210000 		.4byte	.LASF583
 10561 3bb4 34       		.byte	0x34
 10562 3bb5 25       		.byte	0x25
 10563 3bb6 ED1B0000 		.4byte	0x1bed
 10564 3bba 3B       		.uleb128 0x3b
 10565 3bbb 22100000 		.4byte	.LASF584
 10566 3bbf 34       		.byte	0x34
 10567 3bc0 26       		.byte	0x26
 10568 3bc1 ED1B0000 		.4byte	0x1bed
 10569 3bc5 3B       		.uleb128 0x3b
 10570 3bc6 66100000 		.4byte	.LASF585
 10571 3bca 35       		.byte	0x35
 10572 3bcb 1D       		.byte	0x1d
 10573 3bcc ED1B0000 		.4byte	0x1bed
 10574 3bd0 3B       		.uleb128 0x3b
 10575 3bd1 A5080000 		.4byte	.LASF586
 10576 3bd5 36       		.byte	0x36
 10577 3bd6 2D       		.byte	0x2d
 10578 3bd7 ED1B0000 		.4byte	0x1bed
 10579 3bdb 3B       		.uleb128 0x3b
 10580 3bdc 48240000 		.4byte	.LASF587
 10581 3be0 37       		.byte	0x37
 10582 3be1 4C       		.byte	0x4c
 10583 3be2 74010000 		.4byte	0x174
 10584 3be6 3C       		.uleb128 0x3c
 10585 3be7 6E090000 		.4byte	.LASF588
 10586 3beb 6E090000 		.4byte	.LASF588
 10587 3bef 38       		.byte	0x38
 10588 3bf0 7D       		.byte	0x7d
 10589 3bf1 3D       		.uleb128 0x3d
 10590 3bf2 37040000 		.4byte	.LASF589
 10591 3bf6 37040000 		.4byte	.LASF589
 10592 3bfa 0E       		.byte	0xe
 10593 3bfb 5801     		.2byte	0x158
 10594 3bfd 3C       		.uleb128 0x3c
 10595 3bfe 6F040000 		.4byte	.LASF590
 10596 3c02 6F040000 		.4byte	.LASF590
 10597 3c06 1B       		.byte	0x1b
 10598 3c07 4B       		.byte	0x4b
 10599 3c08 3C       		.uleb128 0x3c
 10600 3c09 E5200000 		.4byte	.LASF591
 10601 3c0d E5200000 		.4byte	.LASF591
 10602 3c11 38       		.byte	0x38
 10603 3c12 99       		.byte	0x99
 10604 3c13 3D       		.uleb128 0x3d
 10605 3c14 C9170000 		.4byte	.LASF592
 10606 3c18 C9170000 		.4byte	.LASF592
 10607 3c1c 03       		.byte	0x3
 10608 3c1d 6301     		.2byte	0x163
 10609 3c1f 3D       		.uleb128 0x3d
 10610 3c20 1B110000 		.4byte	.LASF593
 10611 3c24 1B110000 		.4byte	.LASF593
 10612 3c28 03       		.byte	0x3
 10613 3c29 5D01     		.2byte	0x15d
ARM GAS  C:\Users\haske\AppData\Local\Temp\ccSAQWsX.s 			page 218


 10614 3c2b 3C       		.uleb128 0x3c
 10615 3c2c 60210000 		.4byte	.LASF594
 10616 3c30 60210000 		.4byte	.LASF594
 10617 3c34 39       		.byte	0x39
 10618 3c35 14       		.byte	0x14
 10619 3c36 3C       		.uleb128 0x3c
 10620 3c37 B1220000 		.4byte	.LASF595
 10621 3c3b B1220000 		.4byte	.LASF595
 10622 3c3f 39       		.byte	0x39
 10623 3c40 15       		.byte	0x15
 10624 3c41 3C       		.uleb128 0x3c
 10625 3c42 99030000 		.4byte	.LASF596
 10626 3c46 99030000 		.4byte	.LASF596
 10627 3c4a 39       		.byte	0x39
 10628 3c4b 12       		.byte	0x12
 10629 3c4c 3C       		.uleb128 0x3c
 10630 3c4d 0E070000 		.4byte	.LASF597
 10631 3c51 0E070000 		.4byte	.LASF597
 10632 3c55 39       		.byte	0x39
 10633 3c56 13       		.byte	0x13
 10634 3c57 3C       		.uleb128 0x3c
 10635 3c58 DE1B0000 		.4byte	.LASF598
 10636 3c5c DE1B0000 		.4byte	.LASF598
 10637 3c60 39       		.byte	0x39
 10638 3c61 16       		.byte	0x16
 10639 3c62 3C       		.uleb128 0x3c
 10640 3c63 2C200000 		.4byte	.LASF599
 10641 3c67 2C200000 		.4byte	.LASF599
 10642 3c6b 39       		.byte	0x39
 10643 3c6c 17       		.byte	0x17
 10644 3c6d 3C       		.uleb128 0x3c
 10645 3c6e A71B0000 		.4byte	.LASF600
 10646 3c72 A71B0000 		.4byte	.LASF600
 10647 3c76 39       		.byte	0x39
 10648 3c77 19       		.byte	0x19
 10649 3c78 3C       		.uleb128 0x3c
 10650 3c79 E9030000 		.4byte	.LASF601
 10651 3c7d E9030000 		.4byte	.LASF601
 10652 3c81 39       		.byte	0x39
 10653 3c82 18       		.byte	0x18
 10654 3c83 3C       		.uleb128 0x3c
 10655 3c84 92200000 		.4byte	.LASF602
 10656 3c88 92200000 		.4byte	.LASF602
 10657 3c8c 39       		.byte	0x39
 10658 3c8d 01       		.byte	0x1
 10659 3c8e 3C       		.uleb128 0x3c
 10660 3c8f F6090000 		.4byte	.LASF603
 10661 3c93 F6090000 		.4byte	.LASF603
 10662 3c97 39       		.byte	0x39
 10663 3c98 42       		.byte	0x42
 10664 3c99 3C       		.uleb128 0x3c
 10665 3c9a 9E230000 		.4byte	.LASF604
 10666 3c9e 9E230000 		.4byte	.LASF604
 10667 3ca2 39       		.byte	0x39
 10668 3ca3 44       		.byte	0x44
 10669 3ca4 3C       		.uleb128 0x3c
 10670 3ca5 76050000 		.4byte	.LASF605
ARM GAS  C:\Users\haske\AppData\Local\Temp\ccSAQWsX.s 			page 219


 10671 3ca9 76050000 		.4byte	.LASF605
 10672 3cad 39       		.byte	0x39
 10673 3cae 25       		.byte	0x25
 10674 3caf 3C       		.uleb128 0x3c
 10675 3cb0 521B0000 		.4byte	.LASF606
 10676 3cb4 521B0000 		.4byte	.LASF606
 10677 3cb8 39       		.byte	0x39
 10678 3cb9 49       		.byte	0x49
 10679 3cba 3C       		.uleb128 0x3c
 10680 3cbb 430F0000 		.4byte	.LASF607
 10681 3cbf 430F0000 		.4byte	.LASF607
 10682 3cc3 39       		.byte	0x39
 10683 3cc4 27       		.byte	0x27
 10684 3cc5 3C       		.uleb128 0x3c
 10685 3cc6 EC070000 		.4byte	.LASF608
 10686 3cca EC070000 		.4byte	.LASF608
 10687 3cce 39       		.byte	0x39
 10688 3ccf 37       		.byte	0x37
 10689 3cd0 3C       		.uleb128 0x3c
 10690 3cd1 BF130000 		.4byte	.LASF609
 10691 3cd5 BF130000 		.4byte	.LASF609
 10692 3cd9 39       		.byte	0x39
 10693 3cda 3B       		.byte	0x3b
 10694 3cdb 3C       		.uleb128 0x3c
 10695 3cdc 6B0D0000 		.4byte	.LASF610
 10696 3ce0 6B0D0000 		.4byte	.LASF610
 10697 3ce4 39       		.byte	0x39
 10698 3ce5 3D       		.byte	0x3d
 10699 3ce6 3C       		.uleb128 0x3c
 10700 3ce7 A91A0000 		.4byte	.LASF611
 10701 3ceb A91A0000 		.4byte	.LASF611
 10702 3cef 39       		.byte	0x39
 10703 3cf0 3F       		.byte	0x3f
 10704 3cf1 3C       		.uleb128 0x3c
 10705 3cf2 BD070000 		.4byte	.LASF612
 10706 3cf6 BD070000 		.4byte	.LASF612
 10707 3cfa 39       		.byte	0x39
 10708 3cfb 2B       		.byte	0x2b
 10709 3cfc 3C       		.uleb128 0x3c
 10710 3cfd 0E0A0000 		.4byte	.LASF613
 10711 3d01 0E0A0000 		.4byte	.LASF613
 10712 3d05 39       		.byte	0x39
 10713 3d06 4F       		.byte	0x4f
 10714 3d07 3C       		.uleb128 0x3c
 10715 3d08 92010000 		.4byte	.LASF614
 10716 3d0c 92010000 		.4byte	.LASF614
 10717 3d10 39       		.byte	0x39
 10718 3d11 2A       		.byte	0x2a
 10719 3d12 3C       		.uleb128 0x3c
 10720 3d13 02190000 		.4byte	.LASF615
 10721 3d17 02190000 		.4byte	.LASF615
 10722 3d1b 39       		.byte	0x39
 10723 3d1c 2D       		.byte	0x2d
 10724 3d1d 3C       		.uleb128 0x3c
 10725 3d1e 47060000 		.4byte	.LASF616
 10726 3d22 47060000 		.4byte	.LASF616
 10727 3d26 39       		.byte	0x39
ARM GAS  C:\Users\haske\AppData\Local\Temp\ccSAQWsX.s 			page 220


 10728 3d27 46       		.byte	0x46
 10729 3d28 3C       		.uleb128 0x3c
 10730 3d29 2D220000 		.4byte	.LASF617
 10731 3d2d 2D220000 		.4byte	.LASF617
 10732 3d31 39       		.byte	0x39
 10733 3d32 47       		.byte	0x47
 10734 3d33 3C       		.uleb128 0x3c
 10735 3d34 0A150000 		.4byte	.LASF618
 10736 3d38 0A150000 		.4byte	.LASF618
 10737 3d3c 39       		.byte	0x39
 10738 3d3d 28       		.byte	0x28
 10739 3d3e 3C       		.uleb128 0x3c
 10740 3d3f 45130000 		.4byte	.LASF619
 10741 3d43 45130000 		.4byte	.LASF619
 10742 3d47 3A       		.byte	0x3a
 10743 3d48 4A       		.byte	0x4a
 10744 3d49 3C       		.uleb128 0x3c
 10745 3d4a B20C0000 		.4byte	.LASF620
 10746 3d4e B20C0000 		.4byte	.LASF620
 10747 3d52 3B       		.byte	0x3b
 10748 3d53 63       		.byte	0x63
 10749 3d54 3C       		.uleb128 0x3c
 10750 3d55 D6190000 		.4byte	.LASF621
 10751 3d59 D6190000 		.4byte	.LASF621
 10752 3d5d 1B       		.byte	0x1b
 10753 3d5e 66       		.byte	0x66
 10754 3d5f 00       		.byte	0
 10755              		.section	.debug_abbrev,"",%progbits
 10756              	.Ldebug_abbrev0:
 10757 0000 01       		.uleb128 0x1
 10758 0001 11       		.uleb128 0x11
 10759 0002 01       		.byte	0x1
 10760 0003 25       		.uleb128 0x25
 10761 0004 0E       		.uleb128 0xe
 10762 0005 13       		.uleb128 0x13
 10763 0006 0B       		.uleb128 0xb
 10764 0007 03       		.uleb128 0x3
 10765 0008 0E       		.uleb128 0xe
 10766 0009 1B       		.uleb128 0x1b
 10767 000a 0E       		.uleb128 0xe
 10768 000b 55       		.uleb128 0x55
 10769 000c 17       		.uleb128 0x17
 10770 000d 11       		.uleb128 0x11
 10771 000e 01       		.uleb128 0x1
 10772 000f 10       		.uleb128 0x10
 10773 0010 17       		.uleb128 0x17
 10774 0011 00       		.byte	0
 10775 0012 00       		.byte	0
 10776 0013 02       		.uleb128 0x2
 10777 0014 16       		.uleb128 0x16
 10778 0015 00       		.byte	0
 10779 0016 03       		.uleb128 0x3
 10780 0017 0E       		.uleb128 0xe
 10781 0018 3A       		.uleb128 0x3a
 10782 0019 0B       		.uleb128 0xb
 10783 001a 3B       		.uleb128 0x3b
 10784 001b 0B       		.uleb128 0xb
ARM GAS  C:\Users\haske\AppData\Local\Temp\ccSAQWsX.s 			page 221


 10785 001c 49       		.uleb128 0x49
 10786 001d 13       		.uleb128 0x13
 10787 001e 00       		.byte	0
 10788 001f 00       		.byte	0
 10789 0020 03       		.uleb128 0x3
 10790 0021 24       		.uleb128 0x24
 10791 0022 00       		.byte	0
 10792 0023 0B       		.uleb128 0xb
 10793 0024 0B       		.uleb128 0xb
 10794 0025 3E       		.uleb128 0x3e
 10795 0026 0B       		.uleb128 0xb
 10796 0027 03       		.uleb128 0x3
 10797 0028 0E       		.uleb128 0xe
 10798 0029 00       		.byte	0
 10799 002a 00       		.byte	0
 10800 002b 04       		.uleb128 0x4
 10801 002c 24       		.uleb128 0x24
 10802 002d 00       		.byte	0
 10803 002e 0B       		.uleb128 0xb
 10804 002f 0B       		.uleb128 0xb
 10805 0030 3E       		.uleb128 0x3e
 10806 0031 0B       		.uleb128 0xb
 10807 0032 03       		.uleb128 0x3
 10808 0033 08       		.uleb128 0x8
 10809 0034 00       		.byte	0
 10810 0035 00       		.byte	0
 10811 0036 05       		.uleb128 0x5
 10812 0037 0F       		.uleb128 0xf
 10813 0038 00       		.byte	0
 10814 0039 0B       		.uleb128 0xb
 10815 003a 0B       		.uleb128 0xb
 10816 003b 49       		.uleb128 0x49
 10817 003c 13       		.uleb128 0x13
 10818 003d 00       		.byte	0
 10819 003e 00       		.byte	0
 10820 003f 06       		.uleb128 0x6
 10821 0040 15       		.uleb128 0x15
 10822 0041 01       		.byte	0x1
 10823 0042 27       		.uleb128 0x27
 10824 0043 19       		.uleb128 0x19
 10825 0044 01       		.uleb128 0x1
 10826 0045 13       		.uleb128 0x13
 10827 0046 00       		.byte	0
 10828 0047 00       		.byte	0
 10829 0048 07       		.uleb128 0x7
 10830 0049 05       		.uleb128 0x5
 10831 004a 00       		.byte	0
 10832 004b 49       		.uleb128 0x49
 10833 004c 13       		.uleb128 0x13
 10834 004d 00       		.byte	0
 10835 004e 00       		.byte	0
 10836 004f 08       		.uleb128 0x8
 10837 0050 13       		.uleb128 0x13
 10838 0051 01       		.byte	0x1
 10839 0052 03       		.uleb128 0x3
 10840 0053 0E       		.uleb128 0xe
 10841 0054 0B       		.uleb128 0xb
ARM GAS  C:\Users\haske\AppData\Local\Temp\ccSAQWsX.s 			page 222


 10842 0055 0B       		.uleb128 0xb
 10843 0056 3A       		.uleb128 0x3a
 10844 0057 0B       		.uleb128 0xb
 10845 0058 3B       		.uleb128 0x3b
 10846 0059 0B       		.uleb128 0xb
 10847 005a 01       		.uleb128 0x1
 10848 005b 13       		.uleb128 0x13
 10849 005c 00       		.byte	0
 10850 005d 00       		.byte	0
 10851 005e 09       		.uleb128 0x9
 10852 005f 0D       		.uleb128 0xd
 10853 0060 00       		.byte	0
 10854 0061 03       		.uleb128 0x3
 10855 0062 0E       		.uleb128 0xe
 10856 0063 3A       		.uleb128 0x3a
 10857 0064 0B       		.uleb128 0xb
 10858 0065 3B       		.uleb128 0x3b
 10859 0066 0B       		.uleb128 0xb
 10860 0067 49       		.uleb128 0x49
 10861 0068 13       		.uleb128 0x13
 10862 0069 38       		.uleb128 0x38
 10863 006a 0B       		.uleb128 0xb
 10864 006b 00       		.byte	0
 10865 006c 00       		.byte	0
 10866 006d 0A       		.uleb128 0xa
 10867 006e 0D       		.uleb128 0xd
 10868 006f 00       		.byte	0
 10869 0070 03       		.uleb128 0x3
 10870 0071 0E       		.uleb128 0xe
 10871 0072 3A       		.uleb128 0x3a
 10872 0073 0B       		.uleb128 0xb
 10873 0074 3B       		.uleb128 0x3b
 10874 0075 0B       		.uleb128 0xb
 10875 0076 49       		.uleb128 0x49
 10876 0077 13       		.uleb128 0x13
 10877 0078 0B       		.uleb128 0xb
 10878 0079 0B       		.uleb128 0xb
 10879 007a 0D       		.uleb128 0xd
 10880 007b 0B       		.uleb128 0xb
 10881 007c 0C       		.uleb128 0xc
 10882 007d 0B       		.uleb128 0xb
 10883 007e 38       		.uleb128 0x38
 10884 007f 0B       		.uleb128 0xb
 10885 0080 00       		.byte	0
 10886 0081 00       		.byte	0
 10887 0082 0B       		.uleb128 0xb
 10888 0083 0F       		.uleb128 0xf
 10889 0084 00       		.byte	0
 10890 0085 0B       		.uleb128 0xb
 10891 0086 0B       		.uleb128 0xb
 10892 0087 00       		.byte	0
 10893 0088 00       		.byte	0
 10894 0089 0C       		.uleb128 0xc
 10895 008a 13       		.uleb128 0x13
 10896 008b 01       		.byte	0x1
 10897 008c 0B       		.uleb128 0xb
 10898 008d 0B       		.uleb128 0xb
ARM GAS  C:\Users\haske\AppData\Local\Temp\ccSAQWsX.s 			page 223


 10899 008e 3A       		.uleb128 0x3a
 10900 008f 0B       		.uleb128 0xb
 10901 0090 3B       		.uleb128 0x3b
 10902 0091 0B       		.uleb128 0xb
 10903 0092 01       		.uleb128 0x1
 10904 0093 13       		.uleb128 0x13
 10905 0094 00       		.byte	0
 10906 0095 00       		.byte	0
 10907 0096 0D       		.uleb128 0xd
 10908 0097 0D       		.uleb128 0xd
 10909 0098 00       		.byte	0
 10910 0099 03       		.uleb128 0x3
 10911 009a 08       		.uleb128 0x8
 10912 009b 3A       		.uleb128 0x3a
 10913 009c 0B       		.uleb128 0xb
 10914 009d 3B       		.uleb128 0x3b
 10915 009e 0B       		.uleb128 0xb
 10916 009f 49       		.uleb128 0x49
 10917 00a0 13       		.uleb128 0x13
 10918 00a1 38       		.uleb128 0x38
 10919 00a2 0B       		.uleb128 0xb
 10920 00a3 00       		.byte	0
 10921 00a4 00       		.byte	0
 10922 00a5 0E       		.uleb128 0xe
 10923 00a6 0D       		.uleb128 0xd
 10924 00a7 00       		.byte	0
 10925 00a8 03       		.uleb128 0x3
 10926 00a9 08       		.uleb128 0x8
 10927 00aa 3A       		.uleb128 0x3a
 10928 00ab 0B       		.uleb128 0xb
 10929 00ac 3B       		.uleb128 0x3b
 10930 00ad 0B       		.uleb128 0xb
 10931 00ae 49       		.uleb128 0x49
 10932 00af 13       		.uleb128 0x13
 10933 00b0 0B       		.uleb128 0xb
 10934 00b1 0B       		.uleb128 0xb
 10935 00b2 0D       		.uleb128 0xd
 10936 00b3 0B       		.uleb128 0xb
 10937 00b4 0C       		.uleb128 0xc
 10938 00b5 0B       		.uleb128 0xb
 10939 00b6 38       		.uleb128 0x38
 10940 00b7 0B       		.uleb128 0xb
 10941 00b8 00       		.byte	0
 10942 00b9 00       		.byte	0
 10943 00ba 0F       		.uleb128 0xf
 10944 00bb 26       		.uleb128 0x26
 10945 00bc 00       		.byte	0
 10946 00bd 49       		.uleb128 0x49
 10947 00be 13       		.uleb128 0x13
 10948 00bf 00       		.byte	0
 10949 00c0 00       		.byte	0
 10950 00c1 10       		.uleb128 0x10
 10951 00c2 15       		.uleb128 0x15
 10952 00c3 01       		.byte	0x1
 10953 00c4 27       		.uleb128 0x27
 10954 00c5 19       		.uleb128 0x19
 10955 00c6 49       		.uleb128 0x49
ARM GAS  C:\Users\haske\AppData\Local\Temp\ccSAQWsX.s 			page 224


 10956 00c7 13       		.uleb128 0x13
 10957 00c8 01       		.uleb128 0x1
 10958 00c9 13       		.uleb128 0x13
 10959 00ca 00       		.byte	0
 10960 00cb 00       		.byte	0
 10961 00cc 11       		.uleb128 0x11
 10962 00cd 26       		.uleb128 0x26
 10963 00ce 00       		.byte	0
 10964 00cf 00       		.byte	0
 10965 00d0 00       		.byte	0
 10966 00d1 12       		.uleb128 0x12
 10967 00d2 04       		.uleb128 0x4
 10968 00d3 01       		.byte	0x1
 10969 00d4 0B       		.uleb128 0xb
 10970 00d5 0B       		.uleb128 0xb
 10971 00d6 49       		.uleb128 0x49
 10972 00d7 13       		.uleb128 0x13
 10973 00d8 3A       		.uleb128 0x3a
 10974 00d9 0B       		.uleb128 0xb
 10975 00da 3B       		.uleb128 0x3b
 10976 00db 0B       		.uleb128 0xb
 10977 00dc 01       		.uleb128 0x1
 10978 00dd 13       		.uleb128 0x13
 10979 00de 00       		.byte	0
 10980 00df 00       		.byte	0
 10981 00e0 13       		.uleb128 0x13
 10982 00e1 28       		.uleb128 0x28
 10983 00e2 00       		.byte	0
 10984 00e3 03       		.uleb128 0x3
 10985 00e4 0E       		.uleb128 0xe
 10986 00e5 1C       		.uleb128 0x1c
 10987 00e6 0B       		.uleb128 0xb
 10988 00e7 00       		.byte	0
 10989 00e8 00       		.byte	0
 10990 00e9 14       		.uleb128 0x14
 10991 00ea 17       		.uleb128 0x17
 10992 00eb 01       		.byte	0x1
 10993 00ec 0B       		.uleb128 0xb
 10994 00ed 0B       		.uleb128 0xb
 10995 00ee 3A       		.uleb128 0x3a
 10996 00ef 0B       		.uleb128 0xb
 10997 00f0 3B       		.uleb128 0x3b
 10998 00f1 0B       		.uleb128 0xb
 10999 00f2 01       		.uleb128 0x1
 11000 00f3 13       		.uleb128 0x13
 11001 00f4 00       		.byte	0
 11002 00f5 00       		.byte	0
 11003 00f6 15       		.uleb128 0x15
 11004 00f7 0D       		.uleb128 0xd
 11005 00f8 00       		.byte	0
 11006 00f9 03       		.uleb128 0x3
 11007 00fa 08       		.uleb128 0x8
 11008 00fb 3A       		.uleb128 0x3a
 11009 00fc 0B       		.uleb128 0xb
 11010 00fd 3B       		.uleb128 0x3b
 11011 00fe 0B       		.uleb128 0xb
 11012 00ff 49       		.uleb128 0x49
ARM GAS  C:\Users\haske\AppData\Local\Temp\ccSAQWsX.s 			page 225


 11013 0100 13       		.uleb128 0x13
 11014 0101 00       		.byte	0
 11015 0102 00       		.byte	0
 11016 0103 16       		.uleb128 0x16
 11017 0104 0D       		.uleb128 0xd
 11018 0105 00       		.byte	0
 11019 0106 03       		.uleb128 0x3
 11020 0107 0E       		.uleb128 0xe
 11021 0108 3A       		.uleb128 0x3a
 11022 0109 0B       		.uleb128 0xb
 11023 010a 3B       		.uleb128 0x3b
 11024 010b 0B       		.uleb128 0xb
 11025 010c 49       		.uleb128 0x49
 11026 010d 13       		.uleb128 0x13
 11027 010e 00       		.byte	0
 11028 010f 00       		.byte	0
 11029 0110 17       		.uleb128 0x17
 11030 0111 01       		.uleb128 0x1
 11031 0112 01       		.byte	0x1
 11032 0113 49       		.uleb128 0x49
 11033 0114 13       		.uleb128 0x13
 11034 0115 01       		.uleb128 0x1
 11035 0116 13       		.uleb128 0x13
 11036 0117 00       		.byte	0
 11037 0118 00       		.byte	0
 11038 0119 18       		.uleb128 0x18
 11039 011a 21       		.uleb128 0x21
 11040 011b 00       		.byte	0
 11041 011c 49       		.uleb128 0x49
 11042 011d 13       		.uleb128 0x13
 11043 011e 2F       		.uleb128 0x2f
 11044 011f 0B       		.uleb128 0xb
 11045 0120 00       		.byte	0
 11046 0121 00       		.byte	0
 11047 0122 19       		.uleb128 0x19
 11048 0123 28       		.uleb128 0x28
 11049 0124 00       		.byte	0
 11050 0125 03       		.uleb128 0x3
 11051 0126 0E       		.uleb128 0xe
 11052 0127 1C       		.uleb128 0x1c
 11053 0128 05       		.uleb128 0x5
 11054 0129 00       		.byte	0
 11055 012a 00       		.byte	0
 11056 012b 1A       		.uleb128 0x1a
 11057 012c 16       		.uleb128 0x16
 11058 012d 00       		.byte	0
 11059 012e 03       		.uleb128 0x3
 11060 012f 0E       		.uleb128 0xe
 11061 0130 3A       		.uleb128 0x3a
 11062 0131 0B       		.uleb128 0xb
 11063 0132 3B       		.uleb128 0x3b
 11064 0133 05       		.uleb128 0x5
 11065 0134 49       		.uleb128 0x49
 11066 0135 13       		.uleb128 0x13
 11067 0136 00       		.byte	0
 11068 0137 00       		.byte	0
 11069 0138 1B       		.uleb128 0x1b
ARM GAS  C:\Users\haske\AppData\Local\Temp\ccSAQWsX.s 			page 226


 11070 0139 13       		.uleb128 0x13
 11071 013a 01       		.byte	0x1
 11072 013b 0B       		.uleb128 0xb
 11073 013c 0B       		.uleb128 0xb
 11074 013d 3A       		.uleb128 0x3a
 11075 013e 0B       		.uleb128 0xb
 11076 013f 3B       		.uleb128 0x3b
 11077 0140 05       		.uleb128 0x5
 11078 0141 01       		.uleb128 0x1
 11079 0142 13       		.uleb128 0x13
 11080 0143 00       		.byte	0
 11081 0144 00       		.byte	0
 11082 0145 1C       		.uleb128 0x1c
 11083 0146 0D       		.uleb128 0xd
 11084 0147 00       		.byte	0
 11085 0148 03       		.uleb128 0x3
 11086 0149 0E       		.uleb128 0xe
 11087 014a 3A       		.uleb128 0x3a
 11088 014b 0B       		.uleb128 0xb
 11089 014c 3B       		.uleb128 0x3b
 11090 014d 05       		.uleb128 0x5
 11091 014e 49       		.uleb128 0x49
 11092 014f 13       		.uleb128 0x13
 11093 0150 38       		.uleb128 0x38
 11094 0151 0B       		.uleb128 0xb
 11095 0152 00       		.byte	0
 11096 0153 00       		.byte	0
 11097 0154 1D       		.uleb128 0x1d
 11098 0155 17       		.uleb128 0x17
 11099 0156 01       		.byte	0x1
 11100 0157 0B       		.uleb128 0xb
 11101 0158 0B       		.uleb128 0xb
 11102 0159 3A       		.uleb128 0x3a
 11103 015a 0B       		.uleb128 0xb
 11104 015b 3B       		.uleb128 0x3b
 11105 015c 05       		.uleb128 0x5
 11106 015d 01       		.uleb128 0x1
 11107 015e 13       		.uleb128 0x13
 11108 015f 00       		.byte	0
 11109 0160 00       		.byte	0
 11110 0161 1E       		.uleb128 0x1e
 11111 0162 0D       		.uleb128 0xd
 11112 0163 00       		.byte	0
 11113 0164 03       		.uleb128 0x3
 11114 0165 0E       		.uleb128 0xe
 11115 0166 3A       		.uleb128 0x3a
 11116 0167 0B       		.uleb128 0xb
 11117 0168 3B       		.uleb128 0x3b
 11118 0169 05       		.uleb128 0x5
 11119 016a 49       		.uleb128 0x49
 11120 016b 13       		.uleb128 0x13
 11121 016c 00       		.byte	0
 11122 016d 00       		.byte	0
 11123 016e 1F       		.uleb128 0x1f
 11124 016f 0D       		.uleb128 0xd
 11125 0170 00       		.byte	0
 11126 0171 03       		.uleb128 0x3
ARM GAS  C:\Users\haske\AppData\Local\Temp\ccSAQWsX.s 			page 227


 11127 0172 08       		.uleb128 0x8
 11128 0173 3A       		.uleb128 0x3a
 11129 0174 0B       		.uleb128 0xb
 11130 0175 3B       		.uleb128 0x3b
 11131 0176 05       		.uleb128 0x5
 11132 0177 49       		.uleb128 0x49
 11133 0178 13       		.uleb128 0x13
 11134 0179 38       		.uleb128 0x38
 11135 017a 0B       		.uleb128 0xb
 11136 017b 00       		.byte	0
 11137 017c 00       		.byte	0
 11138 017d 20       		.uleb128 0x20
 11139 017e 35       		.uleb128 0x35
 11140 017f 00       		.byte	0
 11141 0180 49       		.uleb128 0x49
 11142 0181 13       		.uleb128 0x13
 11143 0182 00       		.byte	0
 11144 0183 00       		.byte	0
 11145 0184 21       		.uleb128 0x21
 11146 0185 13       		.uleb128 0x13
 11147 0186 01       		.byte	0x1
 11148 0187 03       		.uleb128 0x3
 11149 0188 0E       		.uleb128 0xe
 11150 0189 0B       		.uleb128 0xb
 11151 018a 05       		.uleb128 0x5
 11152 018b 3A       		.uleb128 0x3a
 11153 018c 0B       		.uleb128 0xb
 11154 018d 3B       		.uleb128 0x3b
 11155 018e 0B       		.uleb128 0xb
 11156 018f 01       		.uleb128 0x1
 11157 0190 13       		.uleb128 0x13
 11158 0191 00       		.byte	0
 11159 0192 00       		.byte	0
 11160 0193 22       		.uleb128 0x22
 11161 0194 0D       		.uleb128 0xd
 11162 0195 00       		.byte	0
 11163 0196 03       		.uleb128 0x3
 11164 0197 0E       		.uleb128 0xe
 11165 0198 3A       		.uleb128 0x3a
 11166 0199 0B       		.uleb128 0xb
 11167 019a 3B       		.uleb128 0x3b
 11168 019b 0B       		.uleb128 0xb
 11169 019c 49       		.uleb128 0x49
 11170 019d 13       		.uleb128 0x13
 11171 019e 38       		.uleb128 0x38
 11172 019f 05       		.uleb128 0x5
 11173 01a0 00       		.byte	0
 11174 01a1 00       		.byte	0
 11175 01a2 23       		.uleb128 0x23
 11176 01a3 28       		.uleb128 0x28
 11177 01a4 00       		.byte	0
 11178 01a5 03       		.uleb128 0x3
 11179 01a6 0E       		.uleb128 0xe
 11180 01a7 1C       		.uleb128 0x1c
 11181 01a8 06       		.uleb128 0x6
 11182 01a9 00       		.byte	0
 11183 01aa 00       		.byte	0
ARM GAS  C:\Users\haske\AppData\Local\Temp\ccSAQWsX.s 			page 228


 11184 01ab 24       		.uleb128 0x24
 11185 01ac 13       		.uleb128 0x13
 11186 01ad 00       		.byte	0
 11187 01ae 03       		.uleb128 0x3
 11188 01af 0E       		.uleb128 0xe
 11189 01b0 3C       		.uleb128 0x3c
 11190 01b1 19       		.uleb128 0x19
 11191 01b2 00       		.byte	0
 11192 01b3 00       		.byte	0
 11193 01b4 25       		.uleb128 0x25
 11194 01b5 2E       		.uleb128 0x2e
 11195 01b6 01       		.byte	0x1
 11196 01b7 03       		.uleb128 0x3
 11197 01b8 0E       		.uleb128 0xe
 11198 01b9 3A       		.uleb128 0x3a
 11199 01ba 0B       		.uleb128 0xb
 11200 01bb 3B       		.uleb128 0x3b
 11201 01bc 05       		.uleb128 0x5
 11202 01bd 27       		.uleb128 0x27
 11203 01be 19       		.uleb128 0x19
 11204 01bf 49       		.uleb128 0x49
 11205 01c0 13       		.uleb128 0x13
 11206 01c1 20       		.uleb128 0x20
 11207 01c2 0B       		.uleb128 0xb
 11208 01c3 01       		.uleb128 0x1
 11209 01c4 13       		.uleb128 0x13
 11210 01c5 00       		.byte	0
 11211 01c6 00       		.byte	0
 11212 01c7 26       		.uleb128 0x26
 11213 01c8 05       		.uleb128 0x5
 11214 01c9 00       		.byte	0
 11215 01ca 03       		.uleb128 0x3
 11216 01cb 08       		.uleb128 0x8
 11217 01cc 3A       		.uleb128 0x3a
 11218 01cd 0B       		.uleb128 0xb
 11219 01ce 3B       		.uleb128 0x3b
 11220 01cf 05       		.uleb128 0x5
 11221 01d0 49       		.uleb128 0x49
 11222 01d1 13       		.uleb128 0x13
 11223 01d2 00       		.byte	0
 11224 01d3 00       		.byte	0
 11225 01d4 27       		.uleb128 0x27
 11226 01d5 2E       		.uleb128 0x2e
 11227 01d6 00       		.byte	0
 11228 01d7 03       		.uleb128 0x3
 11229 01d8 0E       		.uleb128 0xe
 11230 01d9 3A       		.uleb128 0x3a
 11231 01da 0B       		.uleb128 0xb
 11232 01db 3B       		.uleb128 0x3b
 11233 01dc 05       		.uleb128 0x5
 11234 01dd 27       		.uleb128 0x27
 11235 01de 19       		.uleb128 0x19
 11236 01df 49       		.uleb128 0x49
 11237 01e0 13       		.uleb128 0x13
 11238 01e1 20       		.uleb128 0x20
 11239 01e2 0B       		.uleb128 0xb
 11240 01e3 00       		.byte	0
ARM GAS  C:\Users\haske\AppData\Local\Temp\ccSAQWsX.s 			page 229


 11241 01e4 00       		.byte	0
 11242 01e5 28       		.uleb128 0x28
 11243 01e6 2E       		.uleb128 0x2e
 11244 01e7 01       		.byte	0x1
 11245 01e8 03       		.uleb128 0x3
 11246 01e9 0E       		.uleb128 0xe
 11247 01ea 3A       		.uleb128 0x3a
 11248 01eb 0B       		.uleb128 0xb
 11249 01ec 3B       		.uleb128 0x3b
 11250 01ed 05       		.uleb128 0x5
 11251 01ee 27       		.uleb128 0x27
 11252 01ef 19       		.uleb128 0x19
 11253 01f0 20       		.uleb128 0x20
 11254 01f1 0B       		.uleb128 0xb
 11255 01f2 01       		.uleb128 0x1
 11256 01f3 13       		.uleb128 0x13
 11257 01f4 00       		.byte	0
 11258 01f5 00       		.byte	0
 11259 01f6 29       		.uleb128 0x29
 11260 01f7 05       		.uleb128 0x5
 11261 01f8 00       		.byte	0
 11262 01f9 03       		.uleb128 0x3
 11263 01fa 0E       		.uleb128 0xe
 11264 01fb 3A       		.uleb128 0x3a
 11265 01fc 0B       		.uleb128 0xb
 11266 01fd 3B       		.uleb128 0x3b
 11267 01fe 05       		.uleb128 0x5
 11268 01ff 49       		.uleb128 0x49
 11269 0200 13       		.uleb128 0x13
 11270 0201 00       		.byte	0
 11271 0202 00       		.byte	0
 11272 0203 2A       		.uleb128 0x2a
 11273 0204 2E       		.uleb128 0x2e
 11274 0205 01       		.byte	0x1
 11275 0206 03       		.uleb128 0x3
 11276 0207 0E       		.uleb128 0xe
 11277 0208 3A       		.uleb128 0x3a
 11278 0209 0B       		.uleb128 0xb
 11279 020a 3B       		.uleb128 0x3b
 11280 020b 0B       		.uleb128 0xb
 11281 020c 27       		.uleb128 0x27
 11282 020d 19       		.uleb128 0x19
 11283 020e 11       		.uleb128 0x11
 11284 020f 01       		.uleb128 0x1
 11285 0210 12       		.uleb128 0x12
 11286 0211 06       		.uleb128 0x6
 11287 0212 40       		.uleb128 0x40
 11288 0213 18       		.uleb128 0x18
 11289 0214 9742     		.uleb128 0x2117
 11290 0216 19       		.uleb128 0x19
 11291 0217 01       		.uleb128 0x1
 11292 0218 13       		.uleb128 0x13
 11293 0219 00       		.byte	0
 11294 021a 00       		.byte	0
 11295 021b 2B       		.uleb128 0x2b
 11296 021c 05       		.uleb128 0x5
 11297 021d 00       		.byte	0
ARM GAS  C:\Users\haske\AppData\Local\Temp\ccSAQWsX.s 			page 230


 11298 021e 03       		.uleb128 0x3
 11299 021f 08       		.uleb128 0x8
 11300 0220 3A       		.uleb128 0x3a
 11301 0221 0B       		.uleb128 0xb
 11302 0222 3B       		.uleb128 0x3b
 11303 0223 0B       		.uleb128 0xb
 11304 0224 49       		.uleb128 0x49
 11305 0225 13       		.uleb128 0x13
 11306 0226 02       		.uleb128 0x2
 11307 0227 17       		.uleb128 0x17
 11308 0228 00       		.byte	0
 11309 0229 00       		.byte	0
 11310 022a 2C       		.uleb128 0x2c
 11311 022b 0B       		.uleb128 0xb
 11312 022c 01       		.byte	0x1
 11313 022d 11       		.uleb128 0x11
 11314 022e 01       		.uleb128 0x1
 11315 022f 12       		.uleb128 0x12
 11316 0230 06       		.uleb128 0x6
 11317 0231 01       		.uleb128 0x1
 11318 0232 13       		.uleb128 0x13
 11319 0233 00       		.byte	0
 11320 0234 00       		.byte	0
 11321 0235 2D       		.uleb128 0x2d
 11322 0236 34       		.uleb128 0x34
 11323 0237 00       		.byte	0
 11324 0238 03       		.uleb128 0x3
 11325 0239 0E       		.uleb128 0xe
 11326 023a 3A       		.uleb128 0x3a
 11327 023b 0B       		.uleb128 0xb
 11328 023c 3B       		.uleb128 0x3b
 11329 023d 0B       		.uleb128 0xb
 11330 023e 49       		.uleb128 0x49
 11331 023f 13       		.uleb128 0x13
 11332 0240 02       		.uleb128 0x2
 11333 0241 17       		.uleb128 0x17
 11334 0242 00       		.byte	0
 11335 0243 00       		.byte	0
 11336 0244 2E       		.uleb128 0x2e
 11337 0245 898201   		.uleb128 0x4109
 11338 0248 01       		.byte	0x1
 11339 0249 11       		.uleb128 0x11
 11340 024a 01       		.uleb128 0x1
 11341 024b 31       		.uleb128 0x31
 11342 024c 13       		.uleb128 0x13
 11343 024d 01       		.uleb128 0x1
 11344 024e 13       		.uleb128 0x13
 11345 024f 00       		.byte	0
 11346 0250 00       		.byte	0
 11347 0251 2F       		.uleb128 0x2f
 11348 0252 8A8201   		.uleb128 0x410a
 11349 0255 00       		.byte	0
 11350 0256 02       		.uleb128 0x2
 11351 0257 18       		.uleb128 0x18
 11352 0258 9142     		.uleb128 0x2111
 11353 025a 18       		.uleb128 0x18
 11354 025b 00       		.byte	0
ARM GAS  C:\Users\haske\AppData\Local\Temp\ccSAQWsX.s 			page 231


 11355 025c 00       		.byte	0
 11356 025d 30       		.uleb128 0x30
 11357 025e 898201   		.uleb128 0x4109
 11358 0261 00       		.byte	0
 11359 0262 11       		.uleb128 0x11
 11360 0263 01       		.uleb128 0x1
 11361 0264 31       		.uleb128 0x31
 11362 0265 13       		.uleb128 0x13
 11363 0266 00       		.byte	0
 11364 0267 00       		.byte	0
 11365 0268 31       		.uleb128 0x31
 11366 0269 898201   		.uleb128 0x4109
 11367 026c 01       		.byte	0x1
 11368 026d 11       		.uleb128 0x11
 11369 026e 01       		.uleb128 0x1
 11370 026f 31       		.uleb128 0x31
 11371 0270 13       		.uleb128 0x13
 11372 0271 00       		.byte	0
 11373 0272 00       		.byte	0
 11374 0273 32       		.uleb128 0x32
 11375 0274 2E       		.uleb128 0x2e
 11376 0275 01       		.byte	0x1
 11377 0276 03       		.uleb128 0x3
 11378 0277 0E       		.uleb128 0xe
 11379 0278 3A       		.uleb128 0x3a
 11380 0279 0B       		.uleb128 0xb
 11381 027a 3B       		.uleb128 0x3b
 11382 027b 05       		.uleb128 0x5
 11383 027c 27       		.uleb128 0x27
 11384 027d 19       		.uleb128 0x19
 11385 027e 11       		.uleb128 0x11
 11386 027f 01       		.uleb128 0x1
 11387 0280 12       		.uleb128 0x12
 11388 0281 06       		.uleb128 0x6
 11389 0282 40       		.uleb128 0x40
 11390 0283 18       		.uleb128 0x18
 11391 0284 9742     		.uleb128 0x2117
 11392 0286 19       		.uleb128 0x19
 11393 0287 01       		.uleb128 0x1
 11394 0288 13       		.uleb128 0x13
 11395 0289 00       		.byte	0
 11396 028a 00       		.byte	0
 11397 028b 33       		.uleb128 0x33
 11398 028c 05       		.uleb128 0x5
 11399 028d 00       		.byte	0
 11400 028e 03       		.uleb128 0x3
 11401 028f 0E       		.uleb128 0xe
 11402 0290 3A       		.uleb128 0x3a
 11403 0291 0B       		.uleb128 0xb
 11404 0292 3B       		.uleb128 0x3b
 11405 0293 05       		.uleb128 0x5
 11406 0294 49       		.uleb128 0x49
 11407 0295 13       		.uleb128 0x13
 11408 0296 02       		.uleb128 0x2
 11409 0297 17       		.uleb128 0x17
 11410 0298 00       		.byte	0
 11411 0299 00       		.byte	0
ARM GAS  C:\Users\haske\AppData\Local\Temp\ccSAQWsX.s 			page 232


 11412 029a 34       		.uleb128 0x34
 11413 029b 05       		.uleb128 0x5
 11414 029c 00       		.byte	0
 11415 029d 03       		.uleb128 0x3
 11416 029e 0E       		.uleb128 0xe
 11417 029f 3A       		.uleb128 0x3a
 11418 02a0 0B       		.uleb128 0xb
 11419 02a1 3B       		.uleb128 0x3b
 11420 02a2 0B       		.uleb128 0xb
 11421 02a3 49       		.uleb128 0x49
 11422 02a4 13       		.uleb128 0x13
 11423 02a5 02       		.uleb128 0x2
 11424 02a6 17       		.uleb128 0x17
 11425 02a7 00       		.byte	0
 11426 02a8 00       		.byte	0
 11427 02a9 35       		.uleb128 0x35
 11428 02aa 1D       		.uleb128 0x1d
 11429 02ab 01       		.byte	0x1
 11430 02ac 31       		.uleb128 0x31
 11431 02ad 13       		.uleb128 0x13
 11432 02ae 11       		.uleb128 0x11
 11433 02af 01       		.uleb128 0x1
 11434 02b0 12       		.uleb128 0x12
 11435 02b1 06       		.uleb128 0x6
 11436 02b2 58       		.uleb128 0x58
 11437 02b3 0B       		.uleb128 0xb
 11438 02b4 59       		.uleb128 0x59
 11439 02b5 0B       		.uleb128 0xb
 11440 02b6 01       		.uleb128 0x1
 11441 02b7 13       		.uleb128 0x13
 11442 02b8 00       		.byte	0
 11443 02b9 00       		.byte	0
 11444 02ba 36       		.uleb128 0x36
 11445 02bb 1D       		.uleb128 0x1d
 11446 02bc 01       		.byte	0x1
 11447 02bd 31       		.uleb128 0x31
 11448 02be 13       		.uleb128 0x13
 11449 02bf 11       		.uleb128 0x11
 11450 02c0 01       		.uleb128 0x1
 11451 02c1 12       		.uleb128 0x12
 11452 02c2 06       		.uleb128 0x6
 11453 02c3 58       		.uleb128 0x58
 11454 02c4 0B       		.uleb128 0xb
 11455 02c5 59       		.uleb128 0x59
 11456 02c6 05       		.uleb128 0x5
 11457 02c7 00       		.byte	0
 11458 02c8 00       		.byte	0
 11459 02c9 37       		.uleb128 0x37
 11460 02ca 05       		.uleb128 0x5
 11461 02cb 00       		.byte	0
 11462 02cc 31       		.uleb128 0x31
 11463 02cd 13       		.uleb128 0x13
 11464 02ce 02       		.uleb128 0x2
 11465 02cf 17       		.uleb128 0x17
 11466 02d0 00       		.byte	0
 11467 02d1 00       		.byte	0
 11468 02d2 38       		.uleb128 0x38
ARM GAS  C:\Users\haske\AppData\Local\Temp\ccSAQWsX.s 			page 233


 11469 02d3 2E       		.uleb128 0x2e
 11470 02d4 00       		.byte	0
 11471 02d5 3F       		.uleb128 0x3f
 11472 02d6 19       		.uleb128 0x19
 11473 02d7 03       		.uleb128 0x3
 11474 02d8 0E       		.uleb128 0xe
 11475 02d9 3A       		.uleb128 0x3a
 11476 02da 0B       		.uleb128 0xb
 11477 02db 3B       		.uleb128 0x3b
 11478 02dc 0B       		.uleb128 0xb
 11479 02dd 27       		.uleb128 0x27
 11480 02de 19       		.uleb128 0x19
 11481 02df 49       		.uleb128 0x49
 11482 02e0 13       		.uleb128 0x13
 11483 02e1 11       		.uleb128 0x11
 11484 02e2 01       		.uleb128 0x1
 11485 02e3 12       		.uleb128 0x12
 11486 02e4 06       		.uleb128 0x6
 11487 02e5 40       		.uleb128 0x40
 11488 02e6 18       		.uleb128 0x18
 11489 02e7 9742     		.uleb128 0x2117
 11490 02e9 19       		.uleb128 0x19
 11491 02ea 00       		.byte	0
 11492 02eb 00       		.byte	0
 11493 02ec 39       		.uleb128 0x39
 11494 02ed 2E       		.uleb128 0x2e
 11495 02ee 01       		.byte	0x1
 11496 02ef 3F       		.uleb128 0x3f
 11497 02f0 19       		.uleb128 0x19
 11498 02f1 03       		.uleb128 0x3
 11499 02f2 0E       		.uleb128 0xe
 11500 02f3 3A       		.uleb128 0x3a
 11501 02f4 0B       		.uleb128 0xb
 11502 02f5 3B       		.uleb128 0x3b
 11503 02f6 0B       		.uleb128 0xb
 11504 02f7 27       		.uleb128 0x27
 11505 02f8 19       		.uleb128 0x19
 11506 02f9 49       		.uleb128 0x49
 11507 02fa 13       		.uleb128 0x13
 11508 02fb 11       		.uleb128 0x11
 11509 02fc 01       		.uleb128 0x1
 11510 02fd 12       		.uleb128 0x12
 11511 02fe 06       		.uleb128 0x6
 11512 02ff 40       		.uleb128 0x40
 11513 0300 18       		.uleb128 0x18
 11514 0301 9742     		.uleb128 0x2117
 11515 0303 19       		.uleb128 0x19
 11516 0304 01       		.uleb128 0x1
 11517 0305 13       		.uleb128 0x13
 11518 0306 00       		.byte	0
 11519 0307 00       		.byte	0
 11520 0308 3A       		.uleb128 0x3a
 11521 0309 34       		.uleb128 0x34
 11522 030a 00       		.byte	0
 11523 030b 03       		.uleb128 0x3
 11524 030c 0E       		.uleb128 0xe
 11525 030d 3A       		.uleb128 0x3a
ARM GAS  C:\Users\haske\AppData\Local\Temp\ccSAQWsX.s 			page 234


 11526 030e 0B       		.uleb128 0xb
 11527 030f 3B       		.uleb128 0x3b
 11528 0310 0B       		.uleb128 0xb
 11529 0311 49       		.uleb128 0x49
 11530 0312 13       		.uleb128 0x13
 11531 0313 02       		.uleb128 0x2
 11532 0314 18       		.uleb128 0x18
 11533 0315 00       		.byte	0
 11534 0316 00       		.byte	0
 11535 0317 3B       		.uleb128 0x3b
 11536 0318 34       		.uleb128 0x34
 11537 0319 00       		.byte	0
 11538 031a 03       		.uleb128 0x3
 11539 031b 0E       		.uleb128 0xe
 11540 031c 3A       		.uleb128 0x3a
 11541 031d 0B       		.uleb128 0xb
 11542 031e 3B       		.uleb128 0x3b
 11543 031f 0B       		.uleb128 0xb
 11544 0320 49       		.uleb128 0x49
 11545 0321 13       		.uleb128 0x13
 11546 0322 3F       		.uleb128 0x3f
 11547 0323 19       		.uleb128 0x19
 11548 0324 3C       		.uleb128 0x3c
 11549 0325 19       		.uleb128 0x19
 11550 0326 00       		.byte	0
 11551 0327 00       		.byte	0
 11552 0328 3C       		.uleb128 0x3c
 11553 0329 2E       		.uleb128 0x2e
 11554 032a 00       		.byte	0
 11555 032b 3F       		.uleb128 0x3f
 11556 032c 19       		.uleb128 0x19
 11557 032d 3C       		.uleb128 0x3c
 11558 032e 19       		.uleb128 0x19
 11559 032f 6E       		.uleb128 0x6e
 11560 0330 0E       		.uleb128 0xe
 11561 0331 03       		.uleb128 0x3
 11562 0332 0E       		.uleb128 0xe
 11563 0333 3A       		.uleb128 0x3a
 11564 0334 0B       		.uleb128 0xb
 11565 0335 3B       		.uleb128 0x3b
 11566 0336 0B       		.uleb128 0xb
 11567 0337 00       		.byte	0
 11568 0338 00       		.byte	0
 11569 0339 3D       		.uleb128 0x3d
 11570 033a 2E       		.uleb128 0x2e
 11571 033b 00       		.byte	0
 11572 033c 3F       		.uleb128 0x3f
 11573 033d 19       		.uleb128 0x19
 11574 033e 3C       		.uleb128 0x3c
 11575 033f 19       		.uleb128 0x19
 11576 0340 6E       		.uleb128 0x6e
 11577 0341 0E       		.uleb128 0xe
 11578 0342 03       		.uleb128 0x3
 11579 0343 0E       		.uleb128 0xe
 11580 0344 3A       		.uleb128 0x3a
 11581 0345 0B       		.uleb128 0xb
 11582 0346 3B       		.uleb128 0x3b
ARM GAS  C:\Users\haske\AppData\Local\Temp\ccSAQWsX.s 			page 235


 11583 0347 05       		.uleb128 0x5
 11584 0348 00       		.byte	0
 11585 0349 00       		.byte	0
 11586 034a 00       		.byte	0
 11587              		.section	.debug_loc,"",%progbits
 11588              	.Ldebug_loc0:
 11589              	.LLST0:
 11590 0000 00000000 		.4byte	.LVL0
 11591 0004 06000000 		.4byte	.LVL1
 11592 0008 0100     		.2byte	0x1
 11593 000a 50       		.byte	0x50
 11594 000b 06000000 		.4byte	.LVL1
 11595 000f C8090000 		.4byte	.LFE205
 11596 0013 0400     		.2byte	0x4
 11597 0015 F3       		.byte	0xf3
 11598 0016 01       		.uleb128 0x1
 11599 0017 50       		.byte	0x50
 11600 0018 9F       		.byte	0x9f
 11601 0019 00000000 		.4byte	0
 11602 001d 00000000 		.4byte	0
 11603              	.LLST1:
 11604 0021 00000000 		.4byte	.LVL0
 11605 0025 09000000 		.4byte	.LVL2-1
 11606 0029 0100     		.2byte	0x1
 11607 002b 51       		.byte	0x51
 11608 002c 09000000 		.4byte	.LVL2-1
 11609 0030 86090000 		.4byte	.LVL189
 11610 0034 0100     		.2byte	0x1
 11611 0036 54       		.byte	0x54
 11612 0037 86090000 		.4byte	.LVL189
 11613 003b C8090000 		.4byte	.LFE205
 11614 003f 0400     		.2byte	0x4
 11615 0041 F3       		.byte	0xf3
 11616 0042 01       		.uleb128 0x1
 11617 0043 51       		.byte	0x51
 11618 0044 9F       		.byte	0x9f
 11619 0045 00000000 		.4byte	0
 11620 0049 00000000 		.4byte	0
 11621              	.LLST2:
 11622 004d 40000000 		.4byte	.LVL7
 11623 0051 45000000 		.4byte	.LVL8-1
 11624 0055 0100     		.2byte	0x1
 11625 0057 50       		.byte	0x50
 11626 0058 45000000 		.4byte	.LVL8-1
 11627 005c 60000000 		.4byte	.LVL11
 11628 0060 0100     		.2byte	0x1
 11629 0062 55       		.byte	0x55
 11630 0063 8A000000 		.4byte	.LVL15
 11631 0067 A6000000 		.4byte	.LVL19
 11632 006b 0100     		.2byte	0x1
 11633 006d 55       		.byte	0x55
 11634 006e C2000000 		.4byte	.LVL22
 11635 0072 DE000000 		.4byte	.LVL26
 11636 0076 0100     		.2byte	0x1
 11637 0078 55       		.byte	0x55
 11638 0079 08010000 		.4byte	.LVL30
 11639 007d 0A010000 		.4byte	.LVL31
ARM GAS  C:\Users\haske\AppData\Local\Temp\ccSAQWsX.s 			page 236


 11640 0081 0100     		.2byte	0x1
 11641 0083 55       		.byte	0x55
 11642 0084 00000000 		.4byte	0
 11643 0088 00000000 		.4byte	0
 11644              	.LLST3:
 11645 008c 00000000 		.4byte	.LVL190
 11646 0090 0D000000 		.4byte	.LVL191-1
 11647 0094 0100     		.2byte	0x1
 11648 0096 50       		.byte	0x50
 11649 0097 0D000000 		.4byte	.LVL191-1
 11650 009b 10000000 		.4byte	.LVL192
 11651 009f 0400     		.2byte	0x4
 11652 00a1 F3       		.byte	0xf3
 11653 00a2 01       		.uleb128 0x1
 11654 00a3 50       		.byte	0x50
 11655 00a4 9F       		.byte	0x9f
 11656 00a5 10000000 		.4byte	.LVL192
 11657 00a9 13000000 		.4byte	.LVL193-1
 11658 00ad 0100     		.2byte	0x1
 11659 00af 50       		.byte	0x50
 11660 00b0 13000000 		.4byte	.LVL193-1
 11661 00b4 1C000000 		.4byte	.LFE206
 11662 00b8 0400     		.2byte	0x4
 11663 00ba F3       		.byte	0xf3
 11664 00bb 01       		.uleb128 0x1
 11665 00bc 50       		.byte	0x50
 11666 00bd 9F       		.byte	0x9f
 11667 00be 00000000 		.4byte	0
 11668 00c2 00000000 		.4byte	0
 11669              	.LLST4:
 11670 00c6 00000000 		.4byte	.LVL194
 11671 00ca 0A000000 		.4byte	.LVL195
 11672 00ce 0100     		.2byte	0x1
 11673 00d0 50       		.byte	0x50
 11674 00d1 0A000000 		.4byte	.LVL195
 11675 00d5 08040000 		.4byte	.LFE202
 11676 00d9 0400     		.2byte	0x4
 11677 00db F3       		.byte	0xf3
 11678 00dc 01       		.uleb128 0x1
 11679 00dd 50       		.byte	0x50
 11680 00de 9F       		.byte	0x9f
 11681 00df 00000000 		.4byte	0
 11682 00e3 00000000 		.4byte	0
 11683              	.LLST5:
 11684 00e7 00000000 		.4byte	.LVL194
 11685 00eb 0F000000 		.4byte	.LVL196-1
 11686 00ef 0100     		.2byte	0x1
 11687 00f1 51       		.byte	0x51
 11688 00f2 0F000000 		.4byte	.LVL196-1
 11689 00f6 EE000000 		.4byte	.LVL221
 11690 00fa 0100     		.2byte	0x1
 11691 00fc 56       		.byte	0x56
 11692 00fd EE000000 		.4byte	.LVL221
 11693 0101 08040000 		.4byte	.LFE202
 11694 0105 0400     		.2byte	0x4
 11695 0107 F3       		.byte	0xf3
 11696 0108 01       		.uleb128 0x1
ARM GAS  C:\Users\haske\AppData\Local\Temp\ccSAQWsX.s 			page 237


 11697 0109 51       		.byte	0x51
 11698 010a 9F       		.byte	0x9f
 11699 010b 00000000 		.4byte	0
 11700 010f 00000000 		.4byte	0
 11701              	.LLST6:
 11702 0113 22000000 		.4byte	.LVL198
 11703 0117 2A000000 		.4byte	.LVL199
 11704 011b 0300     		.2byte	0x3
 11705 011d 09       		.byte	0x9
 11706 011e FF       		.byte	0xff
 11707 011f 9F       		.byte	0x9f
 11708 0120 00000000 		.4byte	0
 11709 0124 00000000 		.4byte	0
 11710              	.LLST9:
 11711 0128 5A000000 		.4byte	.LVL204
 11712 012c 62000000 		.4byte	.LVL205
 11713 0130 0300     		.2byte	0x3
 11714 0132 09       		.byte	0x9
 11715 0133 FF       		.byte	0xff
 11716 0134 9F       		.byte	0x9f
 11717 0135 00000000 		.4byte	0
 11718 0139 00000000 		.4byte	0
 11719              	.LLST12:
 11720 013d 72000000 		.4byte	.LVL207
 11721 0141 7A000000 		.4byte	.LVL208
 11722 0145 0300     		.2byte	0x3
 11723 0147 09       		.byte	0x9
 11724 0148 FF       		.byte	0xff
 11725 0149 9F       		.byte	0x9f
 11726 014a 00000000 		.4byte	0
 11727 014e 00000000 		.4byte	0
 11728              	.LLST15:
 11729 0152 BE000000 		.4byte	.LVL215
 11730 0156 C6000000 		.4byte	.LVL216
 11731 015a 0300     		.2byte	0x3
 11732 015c 09       		.byte	0x9
 11733 015d FF       		.byte	0xff
 11734 015e 9F       		.byte	0x9f
 11735 015f 00000000 		.4byte	0
 11736 0163 00000000 		.4byte	0
 11737              	.LLST18:
 11738 0167 D8000000 		.4byte	.LVL218
 11739 016b E0000000 		.4byte	.LVL219
 11740 016f 0300     		.2byte	0x3
 11741 0171 09       		.byte	0x9
 11742 0172 FF       		.byte	0xff
 11743 0173 9F       		.byte	0x9f
 11744 0174 00000000 		.4byte	0
 11745 0178 00000000 		.4byte	0
 11746              	.LLST21:
 11747 017c 06010000 		.4byte	.LVL224
 11748 0180 26010000 		.4byte	.LVL228
 11749 0184 0200     		.2byte	0x2
 11750 0186 34       		.byte	0x34
 11751 0187 9F       		.byte	0x9f
 11752 0188 00000000 		.4byte	0
 11753 018c 00000000 		.4byte	0
ARM GAS  C:\Users\haske\AppData\Local\Temp\ccSAQWsX.s 			page 238


 11754              	.LLST22:
 11755 0190 06010000 		.4byte	.LVL224
 11756 0194 26010000 		.4byte	.LVL228
 11757 0198 0100     		.2byte	0x1
 11758 019a 54       		.byte	0x54
 11759 019b 00000000 		.4byte	0
 11760 019f 00000000 		.4byte	0
 11761              	.LLST23:
 11762 01a3 2A010000 		.4byte	.LVL229
 11763 01a7 3A010000 		.4byte	.LVL231
 11764 01ab 0200     		.2byte	0x2
 11765 01ad 34       		.byte	0x34
 11766 01ae 9F       		.byte	0x9f
 11767 01af 00000000 		.4byte	0
 11768 01b3 00000000 		.4byte	0
 11769              	.LLST24:
 11770 01b7 2A010000 		.4byte	.LVL229
 11771 01bb 3A010000 		.4byte	.LVL231
 11772 01bf 0100     		.2byte	0x1
 11773 01c1 54       		.byte	0x54
 11774 01c2 00000000 		.4byte	0
 11775 01c6 00000000 		.4byte	0
 11776              	.LLST25:
 11777 01ca 42010000 		.4byte	.LVL232
 11778 01ce 4A010000 		.4byte	.LVL233
 11779 01d2 0300     		.2byte	0x3
 11780 01d4 09       		.byte	0x9
 11781 01d5 FF       		.byte	0xff
 11782 01d6 9F       		.byte	0x9f
 11783 01d7 00000000 		.4byte	0
 11784 01db 00000000 		.4byte	0
 11785              	.LLST28:
 11786 01df 6A010000 		.4byte	.LVL236
 11787 01e3 72010000 		.4byte	.LVL237
 11788 01e7 0300     		.2byte	0x3
 11789 01e9 09       		.byte	0x9
 11790 01ea FF       		.byte	0xff
 11791 01eb 9F       		.byte	0x9f
 11792 01ec 00000000 		.4byte	0
 11793 01f0 00000000 		.4byte	0
 11794              	.LLST31:
 11795 01f4 92010000 		.4byte	.LVL240
 11796 01f8 9A010000 		.4byte	.LVL241
 11797 01fc 0300     		.2byte	0x3
 11798 01fe 09       		.byte	0x9
 11799 01ff FF       		.byte	0xff
 11800 0200 9F       		.byte	0x9f
 11801 0201 00000000 		.4byte	0
 11802 0205 00000000 		.4byte	0
 11803              	.LLST34:
 11804 0209 B0010000 		.4byte	.LVL243
 11805 020d B8010000 		.4byte	.LVL244
 11806 0211 0300     		.2byte	0x3
 11807 0213 09       		.byte	0x9
 11808 0214 FF       		.byte	0xff
 11809 0215 9F       		.byte	0x9f
 11810 0216 00000000 		.4byte	0
ARM GAS  C:\Users\haske\AppData\Local\Temp\ccSAQWsX.s 			page 239


 11811 021a 00000000 		.4byte	0
 11812              	.LLST37:
 11813 021e FE010000 		.4byte	.LVL251
 11814 0222 06020000 		.4byte	.LVL252
 11815 0226 0300     		.2byte	0x3
 11816 0228 09       		.byte	0x9
 11817 0229 FF       		.byte	0xff
 11818 022a 9F       		.byte	0x9f
 11819 022b 00000000 		.4byte	0
 11820 022f 00000000 		.4byte	0
 11821              	.LLST40:
 11822 0233 20020000 		.4byte	.LVL254
 11823 0237 28020000 		.4byte	.LVL255
 11824 023b 0300     		.2byte	0x3
 11825 023d 09       		.byte	0x9
 11826 023e FF       		.byte	0xff
 11827 023f 9F       		.byte	0x9f
 11828 0240 00000000 		.4byte	0
 11829 0244 00000000 		.4byte	0
 11830              	.LLST43:
 11831 0248 3E020000 		.4byte	.LVL257
 11832 024c 46020000 		.4byte	.LVL258
 11833 0250 0300     		.2byte	0x3
 11834 0252 09       		.byte	0x9
 11835 0253 FF       		.byte	0xff
 11836 0254 9F       		.byte	0x9f
 11837 0255 00000000 		.4byte	0
 11838 0259 00000000 		.4byte	0
 11839              	.LLST46:
 11840 025d 5C020000 		.4byte	.LVL260
 11841 0261 64020000 		.4byte	.LVL261
 11842 0265 0300     		.2byte	0x3
 11843 0267 09       		.byte	0x9
 11844 0268 FF       		.byte	0xff
 11845 0269 9F       		.byte	0x9f
 11846 026a 00000000 		.4byte	0
 11847 026e 00000000 		.4byte	0
 11848              	.LLST49:
 11849 0272 7A020000 		.4byte	.LVL263
 11850 0276 82020000 		.4byte	.LVL264
 11851 027a 0300     		.2byte	0x3
 11852 027c 09       		.byte	0x9
 11853 027d FF       		.byte	0xff
 11854 027e 9F       		.byte	0x9f
 11855 027f 00000000 		.4byte	0
 11856 0283 00000000 		.4byte	0
 11857              	.LLST52:
 11858 0287 A0020000 		.4byte	.LVL266
 11859 028b A8020000 		.4byte	.LVL267
 11860 028f 0300     		.2byte	0x3
 11861 0291 09       		.byte	0x9
 11862 0292 FF       		.byte	0xff
 11863 0293 9F       		.byte	0x9f
 11864 0294 00000000 		.4byte	0
 11865 0298 00000000 		.4byte	0
 11866              	.LLST55:
 11867 029c 10030000 		.4byte	.LVL279
ARM GAS  C:\Users\haske\AppData\Local\Temp\ccSAQWsX.s 			page 240


 11868 02a0 20030000 		.4byte	.LVL281
 11869 02a4 0200     		.2byte	0x2
 11870 02a6 34       		.byte	0x34
 11871 02a7 9F       		.byte	0x9f
 11872 02a8 00000000 		.4byte	0
 11873 02ac 00000000 		.4byte	0
 11874              	.LLST56:
 11875 02b0 10030000 		.4byte	.LVL279
 11876 02b4 20030000 		.4byte	.LVL281
 11877 02b8 0100     		.2byte	0x1
 11878 02ba 56       		.byte	0x56
 11879 02bb 00000000 		.4byte	0
 11880 02bf 00000000 		.4byte	0
 11881              	.LLST57:
 11882 02c3 2C030000 		.4byte	.LVL283
 11883 02c7 4C030000 		.4byte	.LVL287
 11884 02cb 0200     		.2byte	0x2
 11885 02cd 30       		.byte	0x30
 11886 02ce 9F       		.byte	0x9f
 11887 02cf 00000000 		.4byte	0
 11888 02d3 00000000 		.4byte	0
 11889              	.LLST58:
 11890 02d7 2C030000 		.4byte	.LVL283
 11891 02db 4C030000 		.4byte	.LVL287
 11892 02df 0100     		.2byte	0x1
 11893 02e1 56       		.byte	0x56
 11894 02e2 00000000 		.4byte	0
 11895 02e6 00000000 		.4byte	0
 11896              	.LLST59:
 11897 02ea 50030000 		.4byte	.LVL288
 11898 02ee 60030000 		.4byte	.LVL290
 11899 02f2 0200     		.2byte	0x2
 11900 02f4 30       		.byte	0x30
 11901 02f5 9F       		.byte	0x9f
 11902 02f6 00000000 		.4byte	0
 11903 02fa 00000000 		.4byte	0
 11904              	.LLST60:
 11905 02fe 50030000 		.4byte	.LVL288
 11906 0302 60030000 		.4byte	.LVL290
 11907 0306 0100     		.2byte	0x1
 11908 0308 56       		.byte	0x56
 11909 0309 00000000 		.4byte	0
 11910 030d 00000000 		.4byte	0
 11911              	.LLST61:
 11912 0311 C2030000 		.4byte	.LVL301
 11913 0315 CA030000 		.4byte	.LVL302
 11914 0319 0300     		.2byte	0x3
 11915 031b 09       		.byte	0x9
 11916 031c FF       		.byte	0xff
 11917 031d 9F       		.byte	0x9f
 11918 031e 00000000 		.4byte	0
 11919 0322 00000000 		.4byte	0
 11920              	.LLST64:
 11921 0326 00000000 		.4byte	.LVL307
 11922 032a 16000000 		.4byte	.LVL308
 11923 032e 0100     		.2byte	0x1
 11924 0330 50       		.byte	0x50
ARM GAS  C:\Users\haske\AppData\Local\Temp\ccSAQWsX.s 			page 241


 11925 0331 16000000 		.4byte	.LVL308
 11926 0335 58000000 		.4byte	.LVL314
 11927 0339 0100     		.2byte	0x1
 11928 033b 56       		.byte	0x56
 11929 033c 58000000 		.4byte	.LVL314
 11930 0340 6C000000 		.4byte	.LFE204
 11931 0344 0400     		.2byte	0x4
 11932 0346 F3       		.byte	0xf3
 11933 0347 01       		.uleb128 0x1
 11934 0348 50       		.byte	0x50
 11935 0349 9F       		.byte	0x9f
 11936 034a 00000000 		.4byte	0
 11937 034e 00000000 		.4byte	0
 11938              	.LLST65:
 11939 0352 00000000 		.4byte	.LVL307
 11940 0356 19000000 		.4byte	.LVL309-1
 11941 035a 0100     		.2byte	0x1
 11942 035c 51       		.byte	0x51
 11943 035d 19000000 		.4byte	.LVL309-1
 11944 0361 6C000000 		.4byte	.LFE204
 11945 0365 0400     		.2byte	0x4
 11946 0367 F3       		.byte	0xf3
 11947 0368 01       		.uleb128 0x1
 11948 0369 51       		.byte	0x51
 11949 036a 9F       		.byte	0x9f
 11950 036b 00000000 		.4byte	0
 11951 036f 00000000 		.4byte	0
 11952              	.LLST66:
 11953 0373 00000000 		.4byte	.LVL307
 11954 0377 19000000 		.4byte	.LVL309-1
 11955 037b 0100     		.2byte	0x1
 11956 037d 52       		.byte	0x52
 11957 037e 19000000 		.4byte	.LVL309-1
 11958 0382 58000000 		.4byte	.LVL313
 11959 0386 0100     		.2byte	0x1
 11960 0388 55       		.byte	0x55
 11961 0389 58000000 		.4byte	.LVL313
 11962 038d 6C000000 		.4byte	.LFE204
 11963 0391 0400     		.2byte	0x4
 11964 0393 F3       		.byte	0xf3
 11965 0394 01       		.uleb128 0x1
 11966 0395 52       		.byte	0x52
 11967 0396 9F       		.byte	0x9f
 11968 0397 00000000 		.4byte	0
 11969 039b 00000000 		.4byte	0
 11970              		.section	.debug_aranges,"",%progbits
 11971 0000 3C000000 		.4byte	0x3c
 11972 0004 0200     		.2byte	0x2
 11973 0006 00000000 		.4byte	.Ldebug_info0
 11974 000a 04       		.byte	0x4
 11975 000b 00       		.byte	0
 11976 000c 0000     		.2byte	0
 11977 000e 0000     		.2byte	0
 11978 0010 00000000 		.4byte	.LFB205
 11979 0014 C8090000 		.4byte	.LFE205-.LFB205
 11980 0018 00000000 		.4byte	.LFB206
 11981 001c 1C000000 		.4byte	.LFE206-.LFB206
ARM GAS  C:\Users\haske\AppData\Local\Temp\ccSAQWsX.s 			page 242


 11982 0020 00000000 		.4byte	.LFB202
 11983 0024 08040000 		.4byte	.LFE202-.LFB202
 11984 0028 00000000 		.4byte	.LFB203
 11985 002c 10000000 		.4byte	.LFE203-.LFB203
 11986 0030 00000000 		.4byte	.LFB204
 11987 0034 6C000000 		.4byte	.LFE204-.LFB204
 11988 0038 00000000 		.4byte	0
 11989 003c 00000000 		.4byte	0
 11990              		.section	.debug_ranges,"",%progbits
 11991              	.Ldebug_ranges0:
 11992 0000 00000000 		.4byte	.LFB205
 11993 0004 C8090000 		.4byte	.LFE205
 11994 0008 00000000 		.4byte	.LFB206
 11995 000c 1C000000 		.4byte	.LFE206
 11996 0010 00000000 		.4byte	.LFB202
 11997 0014 08040000 		.4byte	.LFE202
 11998 0018 00000000 		.4byte	.LFB203
 11999 001c 10000000 		.4byte	.LFE203
 12000 0020 00000000 		.4byte	.LFB204
 12001 0024 6C000000 		.4byte	.LFE204
 12002 0028 00000000 		.4byte	0
 12003 002c 00000000 		.4byte	0
 12004              		.section	.debug_line,"",%progbits
 12005              	.Ldebug_line0:
 12006 0000 9F0F0000 		.section	.debug_str,"MS",%progbits,1
 12006      0200B20B 
 12006      00000201 
 12006      FB0E0D00 
 12006      01010101 
 12007              	.LASF220:
 12008 0000 62675F6F 		.ascii	"bg_opa\000"
 12008      706100
 12009              	.LASF471:
 12010 0007 4C565F45 		.ascii	"LV_EVENT_VALUE_CHANGED\000"
 12010      56454E54 
 12010      5F56414C 
 12010      55455F43 
 12010      48414E47 
 12011              	.LASF216:
 12012 001e 685F6C61 		.ascii	"h_layout\000"
 12012      796F7574 
 12012      00
 12013              	.LASF279:
 12014 0027 4C565F44 		.ascii	"LV_DRAW_LAYER_FLAG_CAN_SUBDIVIDE\000"
 12014      5241575F 
 12014      4C415945 
 12014      525F464C 
 12014      41475F43 
 12015              	.LASF113:
 12016 0048 4C565F53 		.ascii	"LV_STYLE_LAYOUT\000"
 12016      54594C45 
 12016      5F4C4159 
 12016      4F555400 
 12017              	.LASF21:
 12018 0058 6C765F72 		.ascii	"lv_res_t\000"
 12018      65735F74 
 12018      00
ARM GAS  C:\Users\haske\AppData\Local\Temp\ccSAQWsX.s 			page 243


 12019              	.LASF245:
 12020 0061 666F6E74 		.ascii	"font\000"
 12020      00
 12021              	.LASF250:
 12022 0066 6C696E65 		.ascii	"line_space\000"
 12022      5F737061 
 12022      636500
 12023              	.LASF85:
 12024 0071 4C565F42 		.ascii	"LV_BORDER_SIDE_NONE\000"
 12024      4F524445 
 12024      525F5349 
 12024      44455F4E 
 12024      4F4E4500 
 12025              	.LASF78:
 12026 0085 6C765F74 		.ascii	"lv_text_align_t\000"
 12026      6578745F 
 12026      616C6967 
 12026      6E5F7400 
 12027              	.LASF36:
 12028 0095 6C765F64 		.ascii	"lv_dir_t\000"
 12028      69725F74 
 12028      00
 12029              	.LASF200:
 12030 009e 6861735F 		.ascii	"has_group\000"
 12030      67726F75 
 12030      7000
 12031              	.LASF1:
 12032 00a8 5F5F7569 		.ascii	"__uint8_t\000"
 12032      6E74385F 
 12032      7400
 12033              	.LASF381:
 12034 00b2 5F6C765F 		.ascii	"_lv_group_t\000"
 12034      67726F75 
 12034      705F7400 
 12035              	.LASF56:
 12036 00be 5F426F6F 		.ascii	"_Bool\000"
 12036      6C00
 12037              	.LASF512:
 12038 00c4 4C565F42 		.ascii	"LV_BAR_MODE_SYMMETRICAL\000"
 12038      41525F4D 
 12038      4F44455F 
 12038      53594D4D 
 12038      45545249 
 12039              	.LASF393:
 12040 00dc 4C565F53 		.ascii	"LV_STATE_FOCUS_KEY\000"
 12040      54415445 
 12040      5F464F43 
 12040      55535F4B 
 12040      455900
 12041              	.LASF413:
 12042 00ef 4C565F50 		.ascii	"LV_PART_CUSTOM_FIRST\000"
 12042      4152545F 
 12042      43555354 
 12042      4F4D5F46 
 12042      49525354 
 12043              	.LASF28:
 12044 0104 6C765F74 		.ascii	"lv_timer_t\000"
ARM GAS  C:\Users\haske\AppData\Local\Temp\ccSAQWsX.s 			page 244


 12044      696D6572 
 12044      5F7400
 12045              	.LASF580:
 12046 010f 6C765F6D 		.ascii	"lv_meter_class\000"
 12046      65746572 
 12046      5F636C61 
 12046      737300
 12047              	.LASF266:
 12048 011e 64617368 		.ascii	"dash_width\000"
 12048      5F776964 
 12048      746800
 12049              	.LASF351:
 12050 0129 64726177 		.ascii	"draw_ctx_size\000"
 12050      5F637478 
 12050      5F73697A 
 12050      6500
 12051              	.LASF53:
 12052 0137 756E6465 		.ascii	"underline_thickness\000"
 12052      726C696E 
 12052      655F7468 
 12052      69636B6E 
 12052      65737300 
 12053              	.LASF582:
 12054 014b 6C765F74 		.ascii	"lv_tabview_class\000"
 12054      61627669 
 12054      65775F63 
 12054      6C617373 
 12054      00
 12055              	.LASF458:
 12056 015c 4C565F45 		.ascii	"LV_EVENT_DEFOCUSED\000"
 12056      56454E54 
 12056      5F444546 
 12056      4F435553 
 12056      454400
 12057              	.LASF127:
 12058 016f 4C565F53 		.ascii	"LV_STYLE_BG_MAIN_STOP\000"
 12058      54594C45 
 12058      5F42475F 
 12058      4D41494E 
 12058      5F53544F 
 12059              	.LASF305:
 12060 0185 6C617965 		.ascii	"layer_adjust\000"
 12060      725F6164 
 12060      6A757374 
 12060      00
 12061              	.LASF614:
 12062 0192 6C765F73 		.ascii	"lv_style_set_outline_width\000"
 12062      74796C65 
 12062      5F736574 
 12062      5F6F7574 
 12062      6C696E65 
 12063              	.LASF371:
 12064 01ad 6C617374 		.ascii	"last_activity_time\000"
 12064      5F616374 
 12064      69766974 
 12064      795F7469 
 12064      6D6500
ARM GAS  C:\Users\haske\AppData\Local\Temp\ccSAQWsX.s 			page 245


 12065              	.LASF257:
 12066 01c0 616E676C 		.ascii	"angle\000"
 12066      6500
 12067              	.LASF120:
 12068 01c6 4C565F53 		.ascii	"LV_STYLE_PAD_COLUMN\000"
 12068      54594C45 
 12068      5F504144 
 12068      5F434F4C 
 12068      554D4E00 
 12069              	.LASF55:
 12070 01da 6C765F66 		.ascii	"lv_font_glyph_dsc_t\000"
 12070      6F6E745F 
 12070      676C7970 
 12070      685F6473 
 12070      635F7400 
 12071              	.LASF181:
 12072 01ee 4C565F53 		.ascii	"LV_STYLE_TRANSFORM_HEIGHT\000"
 12072      54594C45 
 12072      5F545241 
 12072      4E53464F 
 12072      524D5F48 
 12073              	.LASF18:
 12074 0208 75696E74 		.ascii	"uint16_t\000"
 12074      31365F74 
 12074      00
 12075              	.LASF212:
 12076 0211 6C61796F 		.ascii	"layout_inv\000"
 12076      75745F69 
 12076      6E7600
 12077              	.LASF378:
 12078 021c 666F6E74 		.ascii	"font_normal\000"
 12078      5F6E6F72 
 12078      6D616C00 
 12079              	.LASF132:
 12080 0228 4C565F53 		.ascii	"LV_STYLE_BG_IMG_OPA\000"
 12080      54594C45 
 12080      5F42475F 
 12080      494D475F 
 12080      4F504100 
 12081              	.LASF480:
 12082 023c 4C565F45 		.ascii	"LV_EVENT_SCREEN_UNLOAD_START\000"
 12082      56454E54 
 12082      5F534352 
 12082      45454E5F 
 12082      554E4C4F 
 12083              	.LASF531:
 12084 0259 6C617267 		.ascii	"large_line_space\000"
 12084      655F6C69 
 12084      6E655F73 
 12084      70616365 
 12084      00
 12085              	.LASF566:
 12086 026a 4C565F53 		.ascii	"LV_STYLE_GRID_ROW_ALIGN\000"
 12086      54594C45 
 12086      5F475249 
 12086      445F524F 
 12086      575F414C 
ARM GAS  C:\Users\haske\AppData\Local\Temp\ccSAQWsX.s 			page 246


 12087              	.LASF405:
 12088 0282 4C565F50 		.ascii	"LV_PART_MAIN\000"
 12088      4152545F 
 12088      4D41494E 
 12088      00
 12089              	.LASF565:
 12090 028f 4C565F53 		.ascii	"LV_STYLE_GRID_ROW_DSC_ARRAY\000"
 12090      54594C45 
 12090      5F475249 
 12090      445F524F 
 12090      575F4453 
 12091              	.LASF167:
 12092 02ab 4C565F53 		.ascii	"LV_STYLE_TEXT_FONT\000"
 12092      54594C45 
 12092      5F544558 
 12092      545F464F 
 12092      4E5400
 12093              	.LASF415:
 12094 02be 6C765F6F 		.ascii	"lv_obj_flag_t\000"
 12094      626A5F66 
 12094      6C61675F 
 12094      7400
 12095              	.LASF476:
 12096 02cc 4C565F45 		.ascii	"LV_EVENT_DELETE\000"
 12096      56454E54 
 12096      5F44454C 
 12096      45544500 
 12097              	.LASF54:
 12098 02dc 66616C6C 		.ascii	"fallback\000"
 12098      6261636B 
 12098      00
 12099              	.LASF96:
 12100 02e5 66726163 		.ascii	"frac\000"
 12100      00
 12101              	.LASF208:
 12102 02ea 7374796C 		.ascii	"styles\000"
 12102      657300
 12103              	.LASF51:
 12104 02f1 73756270 		.ascii	"subpx\000"
 12104      7800
 12105              	.LASF180:
 12106 02f7 4C565F53 		.ascii	"LV_STYLE_TRANSFORM_WIDTH\000"
 12106      54594C45 
 12106      5F545241 
 12106      4E53464F 
 12106      524D5F57 
 12107              	.LASF154:
 12108 0310 4C565F53 		.ascii	"LV_STYLE_LINE_WIDTH\000"
 12108      54594C45 
 12108      5F4C494E 
 12108      455F5749 
 12108      44544800 
 12109              	.LASF291:
 12110 0324 5F6C765F 		.ascii	"_lv_draw_ctx_t\000"
 12110      64726177 
 12110      5F637478 
 12110      5F7400
ARM GAS  C:\Users\haske\AppData\Local\Temp\ccSAQWsX.s 			page 247


 12111              	.LASF106:
 12112 0333 4C565F53 		.ascii	"LV_STYLE_MAX_WIDTH\000"
 12112      54594C45 
 12112      5F4D4158 
 12112      5F574944 
 12112      544800
 12113              	.LASF507:
 12114 0346 5F6C765F 		.ascii	"_lv_obj_spec_attr_t\000"
 12114      6F626A5F 
 12114      73706563 
 12114      5F617474 
 12114      725F7400 
 12115              	.LASF157:
 12116 035a 4C565F53 		.ascii	"LV_STYLE_LINE_ROUNDED\000"
 12116      54594C45 
 12116      5F4C494E 
 12116      455F524F 
 12116      554E4445 
 12117              	.LASF83:
 12118 0370 4C565F54 		.ascii	"LV_TEXT_DECOR_STRIKETHROUGH\000"
 12118      4558545F 
 12118      4445434F 
 12118      525F5354 
 12118      52494B45 
 12119              	.LASF550:
 12120 038c 6C765F62 		.ascii	"lv_bar_class\000"
 12120      61725F63 
 12120      6C617373 
 12120      00
 12121              	.LASF596:
 12122 0399 6C765F73 		.ascii	"lv_style_set_pad_top\000"
 12122      74796C65 
 12122      5F736574 
 12122      5F706164 
 12122      5F746F70 
 12123              	.LASF459:
 12124 03ae 4C565F45 		.ascii	"LV_EVENT_LEAVE\000"
 12124      56454E54 
 12124      5F4C4541 
 12124      564500
 12125              	.LASF467:
 12126 03bd 4C565F45 		.ascii	"LV_EVENT_DRAW_POST\000"
 12126      56454E54 
 12126      5F445241 
 12126      575F504F 
 12126      535400
 12127              	.LASF19:
 12128 03d0 696E7433 		.ascii	"int32_t\000"
 12128      325F7400 
 12129              	.LASF322:
 12130 03d8 6C617374 		.ascii	"last_area\000"
 12130      5F617265 
 12130      6100
 12131              	.LASF196:
 12132 03e2 76616C75 		.ascii	"value1\000"
 12132      653100
 12133              	.LASF601:
ARM GAS  C:\Users\haske\AppData\Local\Temp\ccSAQWsX.s 			page 248


 12134 03e9 6C765F73 		.ascii	"lv_style_set_bg_color\000"
 12134      74796C65 
 12134      5F736574 
 12134      5F62675F 
 12134      636F6C6F 
 12135              	.LASF191:
 12136 03ff 5F4C565F 		.ascii	"_LV_STYLE_PROP_CONST\000"
 12136      5354594C 
 12136      455F5052 
 12136      4F505F43 
 12136      4F4E5354 
 12137              	.LASF337:
 12138 0414 726F7461 		.ascii	"rotated\000"
 12138      74656400 
 12139              	.LASF172:
 12140 041c 4C565F53 		.ascii	"LV_STYLE_OPA\000"
 12140      54594C45 
 12140      5F4F5041 
 12140      00
 12141              	.LASF283:
 12142 0429 73637265 		.ascii	"screen_transp\000"
 12142      656E5F74 
 12142      72616E73 
 12142      7000
 12143              	.LASF589:
 12144 0437 6C765F6F 		.ascii	"lv_obj_check_type\000"
 12144      626A5F63 
 12144      6865636B 
 12144      5F747970 
 12144      6500
 12145              	.LASF37:
 12146 0449 7265736F 		.ascii	"resolved_font\000"
 12146      6C766564 
 12146      5F666F6E 
 12146      7400
 12147              	.LASF486:
 12148 0457 4C565F45 		.ascii	"LV_EVENT_LAYOUT_CHANGED\000"
 12148      56454E54 
 12148      5F4C4159 
 12148      4F55545F 
 12148      4348414E 
 12149              	.LASF590:
 12150 046f 6C765F6F 		.ascii	"lv_obj_add_style\000"
 12150      626A5F61 
 12150      64645F73 
 12150      74796C65 
 12150      00
 12151              	.LASF278:
 12152 0480 4C565F44 		.ascii	"LV_DRAW_LAYER_FLAG_HAS_ALPHA\000"
 12152      5241575F 
 12152      4C415945 
 12152      525F464C 
 12152      41475F48 
 12153              	.LASF177:
 12154 049d 4C565F53 		.ascii	"LV_STYLE_ANIM_SPEED\000"
 12154      54594C45 
 12154      5F414E49 
ARM GAS  C:\Users\haske\AppData\Local\Temp\ccSAQWsX.s 			page 249


 12154      4D5F5350 
 12154      45454400 
 12155              	.LASF222:
 12156 04b1 62675F67 		.ascii	"bg_grad\000"
 12156      72616400 
 12157              	.LASF86:
 12158 04b9 4C565F42 		.ascii	"LV_BORDER_SIDE_BOTTOM\000"
 12158      4F524445 
 12158      525F5349 
 12158      44455F42 
 12158      4F54544F 
 12159              	.LASF193:
 12160 04cf 70726F70 		.ascii	"prop\000"
 12160      00
 12161              	.LASF517:
 12162 04d4 4C565F49 		.ascii	"LV_IMGBTN_STATE_CHECKED_RELEASED\000"
 12162      4D474254 
 12162      4E5F5354 
 12162      4154455F 
 12162      43484543 
 12163              	.LASF513:
 12164 04f5 4C565F42 		.ascii	"LV_BAR_MODE_RANGE\000"
 12164      41525F4D 
 12164      4F44455F 
 12164      52414E47 
 12164      4500
 12165              	.LASF464:
 12166 0507 4C565F45 		.ascii	"LV_EVENT_DRAW_MAIN\000"
 12166      56454E54 
 12166      5F445241 
 12166      575F4D41 
 12166      494E00
 12167              	.LASF105:
 12168 051a 4C565F53 		.ascii	"LV_STYLE_MIN_WIDTH\000"
 12168      54594C45 
 12168      5F4D494E 
 12168      5F574944 
 12168      544800
 12169              	.LASF179:
 12170 052d 4C565F53 		.ascii	"LV_STYLE_BLEND_MODE\000"
 12170      54594C45 
 12170      5F424C45 
 12170      4E445F4D 
 12170      4F444500 
 12171              	.LASF384:
 12172 0541 666F6375 		.ascii	"focus_cb\000"
 12172      735F6362 
 12172      00
 12173              	.LASF510:
 12174 054a 6C765F74 		.ascii	"lv_theme_t\000"
 12174      68656D65 
 12174      5F7400
 12175              	.LASF398:
 12176 0555 4C565F53 		.ascii	"LV_STATE_DISABLED\000"
 12176      54415445 
 12176      5F444953 
 12176      41424C45 
ARM GAS  C:\Users\haske\AppData\Local\Temp\ccSAQWsX.s 			page 250


 12176      4400
 12177              	.LASF225:
 12178 0567 62675F69 		.ascii	"bg_img_recolor\000"
 12178      6D675F72 
 12178      65636F6C 
 12178      6F7200
 12179              	.LASF605:
 12180 0576 6C765F73 		.ascii	"lv_style_set_border_color\000"
 12180      74796C65 
 12180      5F736574 
 12180      5F626F72 
 12180      6465725F 
 12181              	.LASF275:
 12182 0590 726F756E 		.ascii	"rounded\000"
 12182      64656400 
 12183              	.LASF449:
 12184 0598 4C565F45 		.ascii	"LV_EVENT_LONG_PRESSED_REPEAT\000"
 12184      56454E54 
 12184      5F4C4F4E 
 12184      475F5052 
 12184      45535345 
 12185              	.LASF526:
 12186 05b5 7061645F 		.ascii	"pad_gap\000"
 12186      67617000 
 12187              	.LASF457:
 12188 05bd 4C565F45 		.ascii	"LV_EVENT_FOCUSED\000"
 12188      56454E54 
 12188      5F464F43 
 12188      55534544 
 12188      00
 12189              	.LASF110:
 12190 05ce 4C565F53 		.ascii	"LV_STYLE_X\000"
 12190      54594C45 
 12190      5F5800
 12191              	.LASF111:
 12192 05d9 4C565F53 		.ascii	"LV_STYLE_Y\000"
 12192      54594C45 
 12192      5F5900
 12193              	.LASF493:
 12194 05e4 6C765F67 		.ascii	"lv_group_t\000"
 12194      726F7570 
 12194      5F7400
 12195              	.LASF125:
 12196 05ef 4C565F53 		.ascii	"LV_STYLE_BG_GRAD_COLOR\000"
 12196      54594C45 
 12196      5F42475F 
 12196      47524144 
 12196      5F434F4C 
 12197              	.LASF190:
 12198 0606 4C565F53 		.ascii	"LV_STYLE_PROP_ANY\000"
 12198      54594C45 
 12198      5F50524F 
 12198      505F414E 
 12198      5900
 12199              	.LASF272:
 12200 0618 73746172 		.ascii	"start_angle\000"
 12200      745F616E 
ARM GAS  C:\Users\haske\AppData\Local\Temp\ccSAQWsX.s 			page 251


 12200      676C6500 
 12201              	.LASF523:
 12202 0624 64697361 		.ascii	"disabled\000"
 12202      626C6564 
 12202      00
 12203              	.LASF335:
 12204 062d 73775F72 		.ascii	"sw_rotate\000"
 12204      6F746174 
 12204      6500
 12205              	.LASF107:
 12206 0637 4C565F53 		.ascii	"LV_STYLE_HEIGHT\000"
 12206      54594C45 
 12206      5F484549 
 12206      47485400 
 12207              	.LASF616:
 12208 0647 6C765F73 		.ascii	"lv_style_set_text_line_space\000"
 12208      74796C65 
 12208      5F736574 
 12208      5F746578 
 12208      745F6C69 
 12209              	.LASF482:
 12210 0664 4C565F45 		.ascii	"LV_EVENT_SCREEN_LOADED\000"
 12210      56454E54 
 12210      5F534352 
 12210      45454E5F 
 12210      4C4F4144 
 12211              	.LASF126:
 12212 067b 4C565F53 		.ascii	"LV_STYLE_BG_GRAD_DIR\000"
 12212      54594C45 
 12212      5F42475F 
 12212      47524144 
 12212      5F444952 
 12213              	.LASF440:
 12214 0690 73746F70 		.ascii	"stop_processing\000"
 12214      5F70726F 
 12214      63657373 
 12214      696E6700 
 12215              	.LASF479:
 12216 06a0 4C565F45 		.ascii	"LV_EVENT_CHILD_DELETED\000"
 12216      56454E54 
 12216      5F434849 
 12216      4C445F44 
 12216      454C4554 
 12217              	.LASF626:
 12218 06b7 6C765F63 		.ascii	"lv_color_make\000"
 12218      6F6C6F72 
 12218      5F6D616B 
 12218      6500
 12219              	.LASF563:
 12220 06c5 4C565F53 		.ascii	"LV_STYLE_GRID_COLUMN_DSC_ARRAY\000"
 12220      54594C45 
 12220      5F475249 
 12220      445F434F 
 12220      4C554D4E 
 12221              	.LASF93:
 12222 06e4 6C765F67 		.ascii	"lv_grad_dir_t\000"
 12222      7261645F 
ARM GAS  C:\Users\haske\AppData\Local\Temp\ccSAQWsX.s 			page 252


 12222      6469725F 
 12222      7400
 12223              	.LASF462:
 12224 06f2 4C565F45 		.ascii	"LV_EVENT_REFR_EXT_DRAW_SIZE\000"
 12224      56454E54 
 12224      5F524546 
 12224      525F4558 
 12224      545F4452 
 12225              	.LASF597:
 12226 070e 6C765F73 		.ascii	"lv_style_set_pad_bottom\000"
 12226      74796C65 
 12226      5F736574 
 12226      5F706164 
 12226      5F626F74 
 12227              	.LASF253:
 12228 0726 616C6967 		.ascii	"align\000"
 12228      6E00
 12229              	.LASF399:
 12230 072c 4C565F53 		.ascii	"LV_STATE_USER_1\000"
 12230      54415445 
 12230      5F555345 
 12230      525F3100 
 12231              	.LASF400:
 12232 073c 4C565F53 		.ascii	"LV_STATE_USER_2\000"
 12232      54415445 
 12232      5F555345 
 12232      525F3200 
 12233              	.LASF401:
 12234 074c 4C565F53 		.ascii	"LV_STATE_USER_3\000"
 12234      54415445 
 12234      5F555345 
 12234      525F3300 
 12235              	.LASF402:
 12236 075c 4C565F53 		.ascii	"LV_STATE_USER_4\000"
 12236      54415445 
 12236      5F555345 
 12236      525F3400 
 12237              	.LASF515:
 12238 076c 4C565F49 		.ascii	"LV_IMGBTN_STATE_PRESSED\000"
 12238      4D474254 
 12238      4E5F5354 
 12238      4154455F 
 12238      50524553 
 12239              	.LASF4:
 12240 0784 5F5F696E 		.ascii	"__int16_t\000"
 12240      7431365F 
 12240      7400
 12241              	.LASF554:
 12242 078e 6C765F64 		.ascii	"lv_dropdownlist_class\000"
 12242      726F7064 
 12242      6F776E6C 
 12242      6973745F 
 12242      636C6173 
 12243              	.LASF6:
 12244 07a4 5F5F7569 		.ascii	"__uint16_t\000"
 12244      6E743136 
 12244      5F7400
ARM GAS  C:\Users\haske\AppData\Local\Temp\ccSAQWsX.s 			page 253


 12245              	.LASF411:
 12246 07af 4C565F50 		.ascii	"LV_PART_TICKS\000"
 12246      4152545F 
 12246      5449434B 
 12246      5300
 12247              	.LASF612:
 12248 07bd 6C765F73 		.ascii	"lv_style_set_outline_color\000"
 12248      74796C65 
 12248      5F736574 
 12248      5F6F7574 
 12248      6C696E65 
 12249              	.LASF171:
 12250 07d8 4C565F53 		.ascii	"LV_STYLE_TEXT_ALIGN\000"
 12250      54594C45 
 12250      5F544558 
 12250      545F414C 
 12250      49474E00 
 12251              	.LASF608:
 12252 07ec 6C765F73 		.ascii	"lv_style_set_line_width\000"
 12252      74796C65 
 12252      5F736574 
 12252      5F6C696E 
 12252      655F7769 
 12253              	.LASF246:
 12254 0804 73656C5F 		.ascii	"sel_start\000"
 12254      73746172 
 12254      7400
 12255              	.LASF429:
 12256 080e 68656967 		.ascii	"height_def\000"
 12256      68745F64 
 12256      656600
 12257              	.LASF262:
 12258 0819 6672616D 		.ascii	"frame_id\000"
 12258      655F6964 
 12258      00
 12259              	.LASF308:
 12260 0822 6C617965 		.ascii	"layer_instance_size\000"
 12260      725F696E 
 12260      7374616E 
 12260      63655F73 
 12260      697A6500 
 12261              	.LASF495:
 12262 0836 6368696C 		.ascii	"child_cnt\000"
 12262      645F636E 
 12262      7400
 12263              	.LASF423:
 12264 0840 5F6C765F 		.ascii	"_lv_obj_class_t\000"
 12264      6F626A5F 
 12264      636C6173 
 12264      735F7400 
 12265              	.LASF454:
 12266 0850 4C565F45 		.ascii	"LV_EVENT_SCROLL\000"
 12266      56454E54 
 12266      5F534352 
 12266      4F4C4C00 
 12267              	.LASF506:
 12268 0860 6C617965 		.ascii	"layer_type\000"
ARM GAS  C:\Users\haske\AppData\Local\Temp\ccSAQWsX.s 			page 254


 12268      725F7479 
 12268      706500
 12269              	.LASF370:
 12270 086b 696E765F 		.ascii	"inv_en_cnt\000"
 12270      656E5F63 
 12270      6E7400
 12271              	.LASF383:
 12272 0876 6F626A5F 		.ascii	"obj_focus\000"
 12272      666F6375 
 12272      7300
 12273              	.LASF528:
 12274 0880 6E6F5F72 		.ascii	"no_radius\000"
 12274      61646975 
 12274      7300
 12275              	.LASF532:
 12276 088a 756E6465 		.ascii	"underline\000"
 12276      726C696E 
 12276      6500
 12277              	.LASF163:
 12278 0894 4C565F53 		.ascii	"LV_STYLE_ARC_OPA\000"
 12278      54594C45 
 12278      5F415243 
 12278      5F4F5041 
 12278      00
 12279              	.LASF586:
 12280 08a5 6C765F6C 		.ascii	"lv_led_class\000"
 12280      65645F63 
 12280      6C617373 
 12280      00
 12281              	.LASF152:
 12282 08b2 4C565F53 		.ascii	"LV_STYLE_IMG_RECOLOR\000"
 12282      54594C45 
 12282      5F494D47 
 12282      5F524543 
 12282      4F4C4F52 
 12283              	.LASF3:
 12284 08c7 756E7369 		.ascii	"unsigned char\000"
 12284      676E6564 
 12284      20636861 
 12284      7200
 12285              	.LASF92:
 12286 08d5 6C765F62 		.ascii	"lv_border_side_t\000"
 12286      6F726465 
 12286      725F7369 
 12286      64655F74 
 12286      00
 12287              	.LASF52:
 12288 08e6 756E6465 		.ascii	"underline_position\000"
 12288      726C696E 
 12288      655F706F 
 12288      73697469 
 12288      6F6E00
 12289              	.LASF509:
 12290 08f9 6C765F74 		.ascii	"lv_theme_apply_cb_t\000"
 12290      68656D65 
 12290      5F617070 
 12290      6C795F63 
ARM GAS  C:\Users\haske\AppData\Local\Temp\ccSAQWsX.s 			page 255


 12290      625F7400 
 12291              	.LASF433:
 12292 090d 5F6C765F 		.ascii	"_lv_event_t\000"
 12292      6576656E 
 12292      745F7400 
 12293              	.LASF394:
 12294 0919 4C565F53 		.ascii	"LV_STATE_EDITED\000"
 12294      54415445 
 12294      5F454449 
 12294      54454400 
 12295              	.LASF133:
 12296 0929 4C565F53 		.ascii	"LV_STYLE_BG_IMG_RECOLOR\000"
 12296      54594C45 
 12296      5F42475F 
 12296      494D475F 
 12296      5245434F 
 12297              	.LASF84:
 12298 0941 6C765F74 		.ascii	"lv_text_decor_t\000"
 12298      6578745F 
 12298      6465636F 
 12298      725F7400 
 12299              	.LASF188:
 12300 0951 5F4C565F 		.ascii	"_LV_STYLE_LAST_BUILT_IN_PROP\000"
 12300      5354594C 
 12300      455F4C41 
 12300      53545F42 
 12300      55494C54 
 12301              	.LASF588:
 12302 096e 6C765F6F 		.ascii	"lv_obj_get_parent\000"
 12302      626A5F67 
 12302      65745F70 
 12302      6172656E 
 12302      7400
 12303              	.LASF364:
 12304 0980 64656C5F 		.ascii	"del_prev\000"
 12304      70726576 
 12304      00
 12305              	.LASF34:
 12306 0989 6C765F70 		.ascii	"lv_point_t\000"
 12306      6F696E74 
 12306      5F7400
 12307              	.LASF560:
 12308 0994 4C565F53 		.ascii	"LV_STYLE_FLEX_CROSS_PLACE\000"
 12308      54594C45 
 12308      5F464C45 
 12308      585F4352 
 12308      4F53535F 
 12309              	.LASF558:
 12310 09ae 4C565F53 		.ascii	"LV_STYLE_FLEX_FLOW\000"
 12310      54594C45 
 12310      5F464C45 
 12310      585F464C 
 12310      4F5700
 12311              	.LASF321:
 12312 09c1 666C7573 		.ascii	"flushing_last\000"
 12312      68696E67 
 12312      5F6C6173 
ARM GAS  C:\Users\haske\AppData\Local\Temp\ccSAQWsX.s 			page 256


 12312      7400
 12313              	.LASF363:
 12314 09cf 64726177 		.ascii	"draw_prev_over_act\000"
 12314      5F707265 
 12314      765F6F76 
 12314      65725F61 
 12314      637400
 12315              	.LASF310:
 12316 09e2 6C765F6C 		.ascii	"lv_ll_node_t\000"
 12316      6C5F6E6F 
 12316      64655F74 
 12316      00
 12317              	.LASF434:
 12318 09ef 74617267 		.ascii	"target\000"
 12318      657400
 12319              	.LASF603:
 12320 09f6 6C765F73 		.ascii	"lv_style_set_text_color\000"
 12320      74796C65 
 12320      5F736574 
 12320      5F746578 
 12320      745F636F 
 12321              	.LASF613:
 12322 0a0e 6C765F73 		.ascii	"lv_style_set_anim_time\000"
 12322      74796C65 
 12322      5F736574 
 12322      5F616E69 
 12322      6D5F7469 
 12323              	.LASF443:
 12324 0a25 4C565F45 		.ascii	"LV_EVENT_ALL\000"
 12324      56454E54 
 12324      5F414C4C 
 12324      00
 12325              	.LASF542:
 12326 0a32 6461726B 		.ascii	"dark_bg\000"
 12326      5F626700 
 12327              	.LASF244:
 12328 0a3a 6C765F64 		.ascii	"lv_draw_rect_dsc_t\000"
 12328      7261775F 
 12328      72656374 
 12328      5F647363 
 12328      5F7400
 12329              	.LASF421:
 12330 0a4d 69735F74 		.ascii	"is_trans\000"
 12330      72616E73 
 12330      00
 12331              	.LASF521:
 12332 0a56 63617264 		.ascii	"card\000"
 12332      00
 12333              	.LASF75:
 12334 0a5b 6C765F63 		.ascii	"lv_color_t\000"
 12334      6F6C6F72 
 12334      5F7400
 12335              	.LASF40:
 12336 0a66 626F785F 		.ascii	"box_h\000"
 12336      6800
 12337              	.LASF451:
 12338 0a6c 4C565F45 		.ascii	"LV_EVENT_RELEASED\000"
ARM GAS  C:\Users\haske\AppData\Local\Temp\ccSAQWsX.s 			page 257


 12338      56454E54 
 12338      5F52454C 
 12338      45415345 
 12338      4400
 12339              	.LASF328:
 12340 0a7e 70687973 		.ascii	"physical_hor_res\000"
 12340      6963616C 
 12340      5F686F72 
 12340      5F726573 
 12340      00
 12341              	.LASF39:
 12342 0a8f 626F785F 		.ascii	"box_w\000"
 12342      7700
 12343              	.LASF77:
 12344 0a95 6C765F74 		.ascii	"lv_text_flag_t\000"
 12344      6578745F 
 12344      666C6167 
 12344      5F7400
 12345              	.LASF343:
 12346 0aa4 77616974 		.ascii	"wait_cb\000"
 12346      5F636200 
 12347              	.LASF74:
 12348 0aac 6C765F63 		.ascii	"lv_color16_t\000"
 12348      6F6C6F72 
 12348      31365F74 
 12348      00
 12349              	.LASF25:
 12350 0ab9 74696D65 		.ascii	"timer_cb\000"
 12350      725F6362 
 12350      00
 12351              	.LASF578:
 12352 0ac2 6C765F6C 		.ascii	"lv_list_btn_class\000"
 12352      6973745F 
 12352      62746E5F 
 12352      636C6173 
 12352      7300
 12353              	.LASF410:
 12354 0ad4 4C565F50 		.ascii	"LV_PART_ITEMS\000"
 12354      4152545F 
 12354      4954454D 
 12354      5300
 12355              	.LASF419:
 12356 0ae2 73656C65 		.ascii	"selector\000"
 12356      63746F72 
 12356      00
 12357              	.LASF420:
 12358 0aeb 69735F6C 		.ascii	"is_local\000"
 12358      6F63616C 
 12358      00
 12359              	.LASF162:
 12360 0af4 4C565F53 		.ascii	"LV_STYLE_ARC_COLOR\000"
 12360      54594C45 
 12360      5F415243 
 12360      5F434F4C 
 12360      4F5200
 12361              	.LASF514:
 12362 0b07 4C565F49 		.ascii	"LV_IMGBTN_STATE_RELEASED\000"
ARM GAS  C:\Users\haske\AppData\Local\Temp\ccSAQWsX.s 			page 258


 12362      4D474254 
 12362      4E5F5354 
 12362      4154455F 
 12362      52454C45 
 12363              	.LASF489:
 12364 0b20 4C565F45 		.ascii	"LV_EVENT_PREPROCESS\000"
 12364      56454E54 
 12364      5F505245 
 12364      50524F43 
 12364      45535300 
 12365              	.LASF223:
 12366 0b34 62675F69 		.ascii	"bg_img_src\000"
 12366      6D675F73 
 12366      726300
 12367              	.LASF307:
 12368 0b3f 6C617965 		.ascii	"layer_destroy\000"
 12368      725F6465 
 12368      7374726F 
 12368      7900
 12369              	.LASF166:
 12370 0b4d 4C565F53 		.ascii	"LV_STYLE_TEXT_OPA\000"
 12370      54594C45 
 12370      5F544558 
 12370      545F4F50 
 12370      4100
 12371              	.LASF336:
 12372 0b5f 616E7469 		.ascii	"antialiasing\000"
 12372      616C6961 
 12372      73696E67 
 12372      00
 12373              	.LASF379:
 12374 0b6c 666F6E74 		.ascii	"font_large\000"
 12374      5F6C6172 
 12374      676500
 12375              	.LASF209:
 12376 0b77 636F6F72 		.ascii	"coords\000"
 12376      647300
 12377              	.LASF149:
 12378 0b7e 4C565F53 		.ascii	"LV_STYLE_SHADOW_COLOR\000"
 12378      54594C45 
 12378      5F534841 
 12378      444F575F 
 12378      434F4C4F 
 12379              	.LASF33:
 12380 0b94 6C765F63 		.ascii	"lv_coord_t\000"
 12380      6F6F7264 
 12380      5F7400
 12381              	.LASF235:
 12382 0b9f 6F75746C 		.ascii	"outline_width\000"
 12382      696E655F 
 12382      77696474 
 12382      6800
 12383              	.LASF306:
 12384 0bad 6C617965 		.ascii	"layer_blend\000"
 12384      725F626C 
 12384      656E6400 
 12385              	.LASF427:
ARM GAS  C:\Users\haske\AppData\Local\Temp\ccSAQWsX.s 			page 259


 12386 0bb9 6576656E 		.ascii	"event_cb\000"
 12386      745F6362 
 12386      00
 12387              	.LASF255:
 12388 0bc2 6465636F 		.ascii	"decor\000"
 12388      7200
 12389              	.LASF213:
 12390 0bc8 7363725F 		.ascii	"scr_layout_inv\000"
 12390      6C61796F 
 12390      75745F69 
 12390      6E7600
 12391              	.LASF492:
 12392 0bd7 6C765F67 		.ascii	"lv_group_edge_cb_t\000"
 12392      726F7570 
 12392      5F656467 
 12392      655F6362 
 12392      5F7400
 12393              	.LASF562:
 12394 0bea 4C565F53 		.ascii	"LV_STYLE_FLEX_GROW\000"
 12394      54594C45 
 12394      5F464C45 
 12394      585F4752 
 12394      4F5700
 12395              	.LASF442:
 12396 0bfd 6C765F6F 		.ascii	"lv_obj_class_t\000"
 12396      626A5F63 
 12396      6C617373 
 12396      5F7400
 12397              	.LASF139:
 12398 0c0c 4C565F53 		.ascii	"LV_STYLE_BORDER_SIDE\000"
 12398      54594C45 
 12398      5F424F52 
 12398      4445525F 
 12398      53494445 
 12399              	.LASF170:
 12400 0c21 4C565F53 		.ascii	"LV_STYLE_TEXT_DECOR\000"
 12400      54594C45 
 12400      5F544558 
 12400      545F4445 
 12400      434F5200 
 12401              	.LASF496:
 12402 0c35 67726F75 		.ascii	"group_p\000"
 12402      705F7000 
 12403              	.LASF242:
 12404 0c3d 73686164 		.ascii	"shadow_spread\000"
 12404      6F775F73 
 12404      70726561 
 12404      6400
 12405              	.LASF518:
 12406 0c4b 4C565F49 		.ascii	"LV_IMGBTN_STATE_CHECKED_PRESSED\000"
 12406      4D474254 
 12406      4E5F5354 
 12406      4154455F 
 12406      43484543 
 12407              	.LASF22:
 12408 0c6b 6C765F74 		.ascii	"lv_timer_cb_t\000"
 12408      696D6572 
ARM GAS  C:\Users\haske\AppData\Local\Temp\ccSAQWsX.s 			page 260


 12408      5F63625F 
 12408      7400
 12409              	.LASF380:
 12410 0c79 6C765F64 		.ascii	"lv_disp_t\000"
 12410      6973705F 
 12410      7400
 12411              	.LASF319:
 12412 0c83 73697A65 		.ascii	"size\000"
 12412      00
 12413              	.LASF342:
 12414 0c88 6D6F6E69 		.ascii	"monitor_cb\000"
 12414      746F725F 
 12414      636200
 12415              	.LASF407:
 12416 0c93 4C565F50 		.ascii	"LV_PART_INDICATOR\000"
 12416      4152545F 
 12416      494E4449 
 12416      4341544F 
 12416      5200
 12417              	.LASF334:
 12418 0ca5 66756C6C 		.ascii	"full_refresh\000"
 12418      5F726566 
 12418      72657368 
 12418      00
 12419              	.LASF620:
 12420 0cb2 6C765F64 		.ascii	"lv_disp_get_theme\000"
 12420      6973705F 
 12420      6765745F 
 12420      7468656D 
 12420      6500
 12421              	.LASF29:
 12422 0cc4 73697A65 		.ascii	"size_t\000"
 12422      5F7400
 12423              	.LASF540:
 12424 0ccb 6C765F73 		.ascii	"lv_style_set_pad_all\000"
 12424      74796C65 
 12424      5F736574 
 12424      5F706164 
 12424      5F616C6C 
 12425              	.LASF16:
 12426 0ce0 75696E74 		.ascii	"uint8_t\000"
 12426      385F7400 
 12427              	.LASF409:
 12428 0ce8 4C565F50 		.ascii	"LV_PART_SELECTED\000"
 12428      4152545F 
 12428      53454C45 
 12428      43544544 
 12428      00
 12429              	.LASF155:
 12430 0cf9 4C565F53 		.ascii	"LV_STYLE_LINE_DASH_WIDTH\000"
 12430      54594C45 
 12430      5F4C494E 
 12430      455F4441 
 12430      53485F57 
 12431              	.LASF130:
 12432 0d12 4C565F53 		.ascii	"LV_STYLE_BG_DITHER_MODE\000"
 12432      54594C45 
ARM GAS  C:\Users\haske\AppData\Local\Temp\ccSAQWsX.s 			page 261


 12432      5F42475F 
 12432      44495448 
 12432      45525F4D 
 12433              	.LASF333:
 12434 0d2a 64697265 		.ascii	"direct_mode\000"
 12434      63745F6D 
 12434      6F646500 
 12435              	.LASF295:
 12436 0d36 64726177 		.ascii	"draw_img_decoded\000"
 12436      5F696D67 
 12436      5F646563 
 12436      6F646564 
 12436      00
 12437              	.LASF437:
 12438 0d47 70617261 		.ascii	"param\000"
 12438      6D00
 12439              	.LASF355:
 12440 0d4d 7468656D 		.ascii	"theme\000"
 12440      6500
 12441              	.LASF327:
 12442 0d53 7665725F 		.ascii	"ver_res\000"
 12442      72657300 
 12443              	.LASF475:
 12444 0d5b 4C565F45 		.ascii	"LV_EVENT_CANCEL\000"
 12444      56454E54 
 12444      5F43414E 
 12444      43454C00 
 12445              	.LASF610:
 12446 0d6b 6C765F73 		.ascii	"lv_style_set_arc_width\000"
 12446      74796C65 
 12446      5F736574 
 12446      5F617263 
 12446      5F776964 
 12447              	.LASF284:
 12448 0d82 5F6C765F 		.ascii	"_lv_draw_layer_ctx_t\000"
 12448      64726177 
 12448      5F6C6179 
 12448      65725F63 
 12448      74785F74 
 12449              	.LASF366:
 12450 0d97 62675F69 		.ascii	"bg_img\000"
 12450      6D6700
 12451              	.LASF201:
 12452 0d9e 70726F70 		.ascii	"prop_cnt\000"
 12452      5F636E74 
 12452      00
 12453              	.LASF525:
 12454 0da7 65646974 		.ascii	"edit\000"
 12454      00
 12455              	.LASF581:
 12456 0dac 6C765F73 		.ascii	"lv_spinbox_class\000"
 12456      70696E62 
 12456      6F785F63 
 12456      6C617373 
 12456      00
 12457              	.LASF231:
 12458 0dbd 626F7264 		.ascii	"border_opa\000"
ARM GAS  C:\Users\haske\AppData\Local\Temp\ccSAQWsX.s 			page 262


 12458      65725F6F 
 12458      706100
 12459              	.LASF247:
 12460 0dc8 73656C5F 		.ascii	"sel_end\000"
 12460      656E6400 
 12461              	.LASF538:
 12462 0dd0 7374796C 		.ascii	"style_init_reset\000"
 12462      655F696E 
 12462      69745F72 
 12462      65736574 
 12462      00
 12463              	.LASF285:
 12464 0de1 61726561 		.ascii	"area_full\000"
 12464      5F66756C 
 12464      6C00
 12465              	.LASF357:
 12466 0deb 6163745F 		.ascii	"act_scr\000"
 12466      73637200 
 12467              	.LASF182:
 12468 0df3 4C565F53 		.ascii	"LV_STYLE_TRANSLATE_X\000"
 12468      54594C45 
 12468      5F545241 
 12468      4E534C41 
 12468      54455F58 
 12469              	.LASF183:
 12470 0e08 4C565F53 		.ascii	"LV_STYLE_TRANSLATE_Y\000"
 12470      54594C45 
 12470      5F545241 
 12470      4E534C41 
 12470      54455F59 
 12471              	.LASF329:
 12472 0e1d 70687973 		.ascii	"physical_ver_res\000"
 12472      6963616C 
 12472      5F766572 
 12472      5F726573 
 12472      00
 12473              	.LASF391:
 12474 0e2e 4C565F53 		.ascii	"LV_STATE_CHECKED\000"
 12474      54415445 
 12474      5F434845 
 12474      434B4544 
 12474      00
 12475              	.LASF436:
 12476 0e3f 636F6465 		.ascii	"code\000"
 12476      00
 12477              	.LASF219:
 12478 0e44 626C656E 		.ascii	"blend_mode\000"
 12478      645F6D6F 
 12478      646500
 12479              	.LASF168:
 12480 0e4f 4C565F53 		.ascii	"LV_STYLE_TEXT_LETTER_SPACE\000"
 12480      54594C45 
 12480      5F544558 
 12480      545F4C45 
 12480      54544552 
 12481              	.LASF288:
 12482 0e6a 6D61785F 		.ascii	"max_row_with_no_alpha\000"
ARM GAS  C:\Users\haske\AppData\Local\Temp\ccSAQWsX.s 			page 263


 12482      726F775F 
 12482      77697468 
 12482      5F6E6F5F 
 12482      616C7068 
 12483              	.LASF533:
 12484 0e80 74615F63 		.ascii	"ta_cursor\000"
 12484      7572736F 
 12484      7200
 12485              	.LASF478:
 12486 0e8a 4C565F45 		.ascii	"LV_EVENT_CHILD_CREATED\000"
 12486      56454E54 
 12486      5F434849 
 12486      4C445F43 
 12486      52454154 
 12487              	.LASF189:
 12488 0ea1 5F4C565F 		.ascii	"_LV_STYLE_NUM_BUILT_IN_PROPS\000"
 12488      5354594C 
 12488      455F4E55 
 12488      4D5F4255 
 12488      494C545F 
 12489              	.LASF176:
 12490 0ebe 4C565F53 		.ascii	"LV_STYLE_ANIM_TIME\000"
 12490      54594C45 
 12490      5F414E49 
 12490      4D5F5449 
 12490      4D4500
 12491              	.LASF128:
 12492 0ed1 4C565F53 		.ascii	"LV_STYLE_BG_GRAD_STOP\000"
 12492      54594C45 
 12492      5F42475F 
 12492      47524144 
 12492      5F53544F 
 12493              	.LASF292:
 12494 0ee7 696E6974 		.ascii	"init_buf\000"
 12494      5F627566 
 12494      00
 12495              	.LASF447:
 12496 0ef0 4C565F45 		.ascii	"LV_EVENT_SHORT_CLICKED\000"
 12496      56454E54 
 12496      5F53484F 
 12496      52545F43 
 12496      4C49434B 
 12497              	.LASF158:
 12498 0f07 4C565F53 		.ascii	"LV_STYLE_LINE_COLOR\000"
 12498      54594C45 
 12498      5F4C494E 
 12498      455F434F 
 12498      4C4F5200 
 12499              	.LASF330:
 12500 0f1b 6F666673 		.ascii	"offset_x\000"
 12500      65745F78 
 12500      00
 12501              	.LASF331:
 12502 0f24 6F666673 		.ascii	"offset_y\000"
 12502      65745F79 
 12502      00
 12503              	.LASF365:
ARM GAS  C:\Users\haske\AppData\Local\Temp\ccSAQWsX.s 			page 264


 12504 0f2d 72656E64 		.ascii	"rendering_in_progress\000"
 12504      6572696E 
 12504      675F696E 
 12504      5F70726F 
 12504      67726573 
 12505              	.LASF607:
 12506 0f43 6C765F73 		.ascii	"lv_style_set_border_width\000"
 12506      74796C65 
 12506      5F736574 
 12506      5F626F72 
 12506      6465725F 
 12507              	.LASF194:
 12508 0f5d 76616C75 		.ascii	"value\000"
 12508      6500
 12509              	.LASF349:
 12510 0f63 64726177 		.ascii	"draw_ctx_init\000"
 12510      5F637478 
 12510      5F696E69 
 12510      7400
 12511              	.LASF233:
 12512 0f71 626F7264 		.ascii	"border_side\000"
 12512      65725F73 
 12512      69646500 
 12513              	.LASF386:
 12514 0f7d 66726F7A 		.ascii	"frozen\000"
 12514      656E00
 12515              	.LASF24:
 12516 0f84 6C617374 		.ascii	"last_run\000"
 12516      5F72756E 
 12516      00
 12517              	.LASF481:
 12518 0f8d 4C565F45 		.ascii	"LV_EVENT_SCREEN_LOAD_START\000"
 12518      56454E54 
 12518      5F534352 
 12518      45454E5F 
 12518      4C4F4144 
 12519              	.LASF535:
 12520 0fa8 6C765F63 		.ascii	"lv_color_white\000"
 12520      6F6C6F72 
 12520      5F776869 
 12520      746500
 12521              	.LASF453:
 12522 0fb7 4C565F45 		.ascii	"LV_EVENT_SCROLL_END\000"
 12522      56454E54 
 12522      5F534352 
 12522      4F4C4C5F 
 12522      454E4400 
 12523              	.LASF99:
 12524 0fcb 73746F70 		.ascii	"stops_count\000"
 12524      735F636F 
 12524      756E7400 
 12525              	.LASF296:
 12526 0fd7 64726177 		.ascii	"draw_img\000"
 12526      5F696D67 
 12526      00
 12527              	.LASF373:
 12528 0fe0 6170706C 		.ascii	"apply_cb\000"
ARM GAS  C:\Users\haske\AppData\Local\Temp\ccSAQWsX.s 			page 265


 12528      795F6362 
 12528      00
 12529              	.LASF269:
 12530 0fe9 726F756E 		.ascii	"round_end\000"
 12530      645F656E 
 12530      6400
 12531              	.LASF534:
 12532 0ff3 6D795F74 		.ascii	"my_theme_styles_t\000"
 12532      68656D65 
 12532      5F737479 
 12532      6C65735F 
 12532      7400
 12533              	.LASF297:
 12534 1005 64726177 		.ascii	"draw_letter\000"
 12534      5F6C6574 
 12534      74657200 
 12535              	.LASF417:
 12536 1011 6C765F73 		.ascii	"lv_scroll_snap_t\000"
 12536      63726F6C 
 12536      6C5F736E 
 12536      61705F74 
 12536      00
 12537              	.LASF584:
 12538 1022 6C765F74 		.ascii	"lv_tileview_tile_class\000"
 12538      696C6576 
 12538      6965775F 
 12538      74696C65 
 12538      5F636C61 
 12539              	.LASF141:
 12540 1039 4C565F53 		.ascii	"LV_STYLE_OUTLINE_WIDTH\000"
 12540      54594C45 
 12540      5F4F5554 
 12540      4C494E45 
 12540      5F574944 
 12541              	.LASF289:
 12542 1050 6F726967 		.ascii	"original\000"
 12542      696E616C 
 12542      00
 12543              	.LASF545:
 12544 1059 6C765F6F 		.ascii	"lv_obj_class\000"
 12544      626A5F63 
 12544      6C617373 
 12544      00
 12545              	.LASF585:
 12546 1066 6C765F77 		.ascii	"lv_win_class\000"
 12546      696E5F63 
 12546      6C617373 
 12546      00
 12547              	.LASF408:
 12548 1073 4C565F50 		.ascii	"LV_PART_KNOB\000"
 12548      4152545F 
 12548      4B4E4F42 
 12548      00
 12549              	.LASF552:
 12550 1080 6C765F62 		.ascii	"lv_btnmatrix_class\000"
 12550      746E6D61 
 12550      74726978 
ARM GAS  C:\Users\haske\AppData\Local\Temp\ccSAQWsX.s 			page 266


 12550      5F636C61 
 12550      737300
 12551              	.LASF239:
 12552 1093 73686164 		.ascii	"shadow_width\000"
 12552      6F775F77 
 12552      69647468 
 12552      00
 12553              	.LASF564:
 12554 10a0 4C565F53 		.ascii	"LV_STYLE_GRID_COLUMN_ALIGN\000"
 12554      54594C45 
 12554      5F475249 
 12554      445F434F 
 12554      4C554D4E 
 12555              	.LASF227:
 12556 10bb 62675F69 		.ascii	"bg_img_recolor_opa\000"
 12556      6D675F72 
 12556      65636F6C 
 12556      6F725F6F 
 12556      706100
 12557              	.LASF230:
 12558 10ce 626F7264 		.ascii	"border_width\000"
 12558      65725F77 
 12558      69647468 
 12558      00
 12559              	.LASF567:
 12560 10db 4C565F53 		.ascii	"LV_STYLE_GRID_CELL_COLUMN_POS\000"
 12560      54594C45 
 12560      5F475249 
 12560      445F4345 
 12560      4C4C5F43 
 12561              	.LASF243:
 12562 10f9 73686164 		.ascii	"shadow_opa\000"
 12562      6F775F6F 
 12562      706100
 12563              	.LASF38:
 12564 1104 6164765F 		.ascii	"adv_w\000"
 12564      7700
 12565              	.LASF314:
 12566 110a 6C765F6C 		.ascii	"lv_ll_t\000"
 12566      6C5F7400 
 12567              	.LASF358:
 12568 1112 70726576 		.ascii	"prev_scr\000"
 12568      5F736372 
 12568      00
 12569              	.LASF593:
 12570 111b 6C765F73 		.ascii	"lv_style_init\000"
 12570      74796C65 
 12570      5F696E69 
 12570      7400
 12571              	.LASF277:
 12572 1129 4C565F44 		.ascii	"LV_DRAW_LAYER_FLAG_NONE\000"
 12572      5241575F 
 12572      4C415945 
 12572      525F464C 
 12572      41475F4E 
 12573              	.LASF445:
 12574 1141 4C565F45 		.ascii	"LV_EVENT_PRESSING\000"
ARM GAS  C:\Users\haske\AppData\Local\Temp\ccSAQWsX.s 			page 267


 12574      56454E54 
 12574      5F505245 
 12574      5353494E 
 12574      4700
 12575              	.LASF530:
 12576 1153 6C617267 		.ascii	"large_border\000"
 12576      655F626F 
 12576      72646572 
 12576      00
 12577              	.LASF504:
 12578 1160 7363726F 		.ascii	"scroll_dir\000"
 12578      6C6C5F64 
 12578      697200
 12579              	.LASF485:
 12580 116b 4C565F45 		.ascii	"LV_EVENT_STYLE_CHANGED\000"
 12580      56454E54 
 12580      5F535459 
 12580      4C455F43 
 12580      48414E47 
 12581              	.LASF91:
 12582 1182 4C565F42 		.ascii	"LV_BORDER_SIDE_INTERNAL\000"
 12582      4F524445 
 12582      525F5349 
 12582      44455F49 
 12582      4E544552 
 12583              	.LASF290:
 12584 119a 6C765F64 		.ascii	"lv_draw_layer_ctx_t\000"
 12584      7261775F 
 12584      6C617965 
 12584      725F6374 
 12584      785F7400 
 12585              	.LASF276:
 12586 11ae 6C765F64 		.ascii	"lv_draw_arc_dsc_t\000"
 12586      7261775F 
 12586      6172635F 
 12586      6473635F 
 12586      7400
 12587              	.LASF135:
 12588 11c0 4C565F53 		.ascii	"LV_STYLE_BG_IMG_TILED\000"
 12588      54594C45 
 12588      5F42475F 
 12588      494D475F 
 12588      54494C45 
 12589              	.LASF43:
 12590 11d6 70617573 		.ascii	"paused\000"
 12590      656400
 12591              	.LASF625:
 12592 11dd 5F6C765F 		.ascii	"_lv_event_dsc_t\000"
 12592      6576656E 
 12592      745F6473 
 12592      635F7400 
 12593              	.LASF131:
 12594 11ed 4C565F53 		.ascii	"LV_STYLE_BG_IMG_SRC\000"
 12594      54594C45 
 12594      5F42475F 
 12594      494D475F 
 12594      53524300 
ARM GAS  C:\Users\haske\AppData\Local\Temp\ccSAQWsX.s 			page 268


 12595              	.LASF23:
 12596 1201 70657269 		.ascii	"period\000"
 12596      6F6400
 12597              	.LASF178:
 12598 1208 4C565F53 		.ascii	"LV_STYLE_TRANSITION\000"
 12598      54594C45 
 12598      5F545241 
 12598      4E534954 
 12598      494F4E00 
 12599              	.LASF121:
 12600 121c 4C565F53 		.ascii	"LV_STYLE_BASE_DIR\000"
 12600      54594C45 
 12600      5F424153 
 12600      455F4449 
 12600      5200
 12601              	.LASF118:
 12602 122e 4C565F53 		.ascii	"LV_STYLE_PAD_RIGHT\000"
 12602      54594C45 
 12602      5F504144 
 12602      5F524947 
 12602      485400
 12603              	.LASF15:
 12604 1241 696E7438 		.ascii	"int8_t\000"
 12604      5F7400
 12605              	.LASF338:
 12606 1248 666C7573 		.ascii	"flush_cb\000"
 12606      685F6362 
 12606      00
 12607              	.LASF317:
 12608 1251 62756632 		.ascii	"buf2\000"
 12608      00
 12609              	.LASF199:
 12610 1256 70726F70 		.ascii	"prop1\000"
 12610      3100
 12611              	.LASF256:
 12612 125c 6C765F64 		.ascii	"lv_draw_label_dsc_t\000"
 12612      7261775F 
 12612      6C616265 
 12612      6C5F6473 
 12612      635F7400 
 12613              	.LASF424:
 12614 1270 62617365 		.ascii	"base_class\000"
 12614      5F636C61 
 12614      737300
 12615              	.LASF254:
 12616 127b 666C6167 		.ascii	"flag\000"
 12616      00
 12617              	.LASF470:
 12618 1280 4C565F45 		.ascii	"LV_EVENT_DRAW_PART_END\000"
 12618      56454E54 
 12618      5F445241 
 12618      575F5041 
 12618      52545F45 
 12619              	.LASF195:
 12620 1297 6C765F73 		.ascii	"lv_style_const_prop_t\000"
 12620      74796C65 
 12620      5F636F6E 
ARM GAS  C:\Users\haske\AppData\Local\Temp\ccSAQWsX.s 			page 269


 12620      73745F70 
 12620      726F705F 
 12621              	.LASF432:
 12622 12ad 696E7374 		.ascii	"instance_size\000"
 12622      616E6365 
 12622      5F73697A 
 12622      6500
 12623              	.LASF228:
 12624 12bb 62675F69 		.ascii	"bg_img_tiled\000"
 12624      6D675F74 
 12624      696C6564 
 12624      00
 12625              	.LASF455:
 12626 12c8 4C565F45 		.ascii	"LV_EVENT_GESTURE\000"
 12626      56454E54 
 12626      5F474553 
 12626      54555245 
 12626      00
 12627              	.LASF347:
 12628 12d9 636F6C6F 		.ascii	"color_chroma_key\000"
 12628      725F6368 
 12628      726F6D61 
 12628      5F6B6579 
 12628      00
 12629              	.LASF316:
 12630 12ea 62756631 		.ascii	"buf1\000"
 12630      00
 12631              	.LASF112:
 12632 12ef 4C565F53 		.ascii	"LV_STYLE_ALIGN\000"
 12632      54594C45 
 12632      5F414C49 
 12632      474E00
 12633              	.LASF236:
 12634 12fe 6F75746C 		.ascii	"outline_pad\000"
 12634      696E655F 
 12634      70616400 
 12635              	.LASF628:
 12636 130a 6C765F74 		.ascii	"lv_theme_mono_init\000"
 12636      68656D65 
 12636      5F6D6F6E 
 12636      6F5F696E 
 12636      697400
 12637              	.LASF441:
 12638 131d 73746F70 		.ascii	"stop_bubbling\000"
 12638      5F627562 
 12638      626C696E 
 12638      6700
 12639              	.LASF119:
 12640 132b 4C565F53 		.ascii	"LV_STYLE_PAD_ROW\000"
 12640      54594C45 
 12640      5F504144 
 12640      5F524F57 
 12640      00
 12641              	.LASF31:
 12642 133c 73697A65 		.ascii	"sizetype\000"
 12642      74797065 
 12642      00
ARM GAS  C:\Users\haske\AppData\Local\Temp\ccSAQWsX.s 			page 270


 12643              	.LASF619:
 12644 1345 6C765F6D 		.ascii	"lv_mem_alloc\000"
 12644      656D5F61 
 12644      6C6C6F63 
 12644      00
 12645              	.LASF124:
 12646 1352 4C565F53 		.ascii	"LV_STYLE_BG_OPA\000"
 12646      54594C45 
 12646      5F42475F 
 12646      4F504100 
 12647              	.LASF352:
 12648 1362 5F6C765F 		.ascii	"_lv_disp_t\000"
 12648      64697370 
 12648      5F7400
 12649              	.LASF41:
 12650 136d 6F66735F 		.ascii	"ofs_x\000"
 12650      7800
 12651              	.LASF42:
 12652 1373 6F66735F 		.ascii	"ofs_y\000"
 12652      7900
 12653              	.LASF17:
 12654 1379 696E7431 		.ascii	"int16_t\000"
 12654      365F7400 
 12655              	.LASF461:
 12656 1381 4C565F45 		.ascii	"LV_EVENT_COVER_CHECK\000"
 12656      56454E54 
 12656      5F434F56 
 12656      45525F43 
 12656      4845434B 
 12657              	.LASF7:
 12658 1396 73686F72 		.ascii	"short unsigned int\000"
 12658      7420756E 
 12658      7369676E 
 12658      65642069 
 12658      6E7400
 12659              	.LASF204:
 12660 13a9 5F6C765F 		.ascii	"_lv_obj_t\000"
 12660      6F626A5F 
 12660      7400
 12661              	.LASF2:
 12662 13b3 7369676E 		.ascii	"signed char\000"
 12662      65642063 
 12662      68617200 
 12663              	.LASF609:
 12664 13bf 6C765F73 		.ascii	"lv_style_set_line_color\000"
 12664      74796C65 
 12664      5F736574 
 12664      5F6C696E 
 12664      655F636F 
 12665              	.LASF499:
 12666 13d7 6578745F 		.ascii	"ext_click_pad\000"
 12666      636C6963 
 12666      6B5F7061 
 12666      6400
 12667              	.LASF129:
 12668 13e5 4C565F53 		.ascii	"LV_STYLE_BG_GRAD\000"
 12668      54594C45 
ARM GAS  C:\Users\haske\AppData\Local\Temp\ccSAQWsX.s 			page 271


 12668      5F42475F 
 12668      47524144 
 12668      00
 12669              	.LASF89:
 12670 13f6 4C565F42 		.ascii	"LV_BORDER_SIDE_RIGHT\000"
 12670      4F524445 
 12670      525F5349 
 12670      44455F52 
 12670      49474854 
 12671              	.LASF27:
 12672 140b 72657065 		.ascii	"repeat_count\000"
 12672      61745F63 
 12672      6F756E74 
 12672      00
 12673              	.LASF137:
 12674 1418 4C565F53 		.ascii	"LV_STYLE_BORDER_OPA\000"
 12674      54594C45 
 12674      5F424F52 
 12674      4445525F 
 12674      4F504100 
 12675              	.LASF97:
 12676 142c 6C765F67 		.ascii	"lv_gradient_stop_t\000"
 12676      72616469 
 12676      656E745F 
 12676      73746F70 
 12676      5F7400
 12677              	.LASF624:
 12678 143f 433A5C50 		.ascii	"C:\\Projects\\PainDrain\\firmware\\PainDrain\\PainD"
 12678      726F6A65 
 12678      6374735C 
 12678      5061696E 
 12678      44726169 
 12679 146d 7261696E 		.ascii	"rain.cydsn\000"
 12679      2E637964 
 12679      736E00
 12680              	.LASF258:
 12681 1478 7A6F6F6D 		.ascii	"zoom\000"
 12681      00
 12682              	.LASF491:
 12683 147d 6C765F67 		.ascii	"lv_group_focus_cb_t\000"
 12683      726F7570 
 12683      5F666F63 
 12683      75735F63 
 12683      625F7400 
 12684              	.LASF385:
 12685 1491 65646765 		.ascii	"edge_cb\000"
 12685      5F636200 
 12686              	.LASF374:
 12687 1499 64697370 		.ascii	"disp\000"
 12687      00
 12688              	.LASF138:
 12689 149e 4C565F53 		.ascii	"LV_STYLE_BORDER_WIDTH\000"
 12689      54594C45 
 12689      5F424F52 
 12689      4445525F 
 12689      57494454 
 12690              	.LASF72:
ARM GAS  C:\Users\haske\AppData\Local\Temp\ccSAQWsX.s 			page 272


 12691 14b4 67726565 		.ascii	"green\000"
 12691      6E00
 12692              	.LASF547:
 12693 14ba 6C765F62 		.ascii	"lv_btn_class\000"
 12693      746E5F63 
 12693      6C617373 
 12693      00
 12694              	.LASF35:
 12695 14c7 6C765F61 		.ascii	"lv_area_t\000"
 12695      7265615F 
 12695      7400
 12696              	.LASF569:
 12697 14d1 4C565F53 		.ascii	"LV_STYLE_GRID_CELL_X_ALIGN\000"
 12697      54594C45 
 12697      5F475249 
 12697      445F4345 
 12697      4C4C5F58 
 12698              	.LASF387:
 12699 14ec 65646974 		.ascii	"editing\000"
 12699      696E6700 
 12700              	.LASF197:
 12701 14f4 76616C75 		.ascii	"values_and_props\000"
 12701      65735F61 
 12701      6E645F70 
 12701      726F7073 
 12701      00
 12702              	.LASF73:
 12703 1505 66756C6C 		.ascii	"full\000"
 12703      00
 12704              	.LASF618:
 12705 150a 6C765F73 		.ascii	"lv_style_set_border_side\000"
 12705      74796C65 
 12705      5F736574 
 12705      5F626F72 
 12705      6465725F 
 12706              	.LASF101:
 12707 1523 6C765F67 		.ascii	"lv_grad_dsc_t\000"
 12707      7261645F 
 12707      6473635F 
 12707      7400
 12708              	.LASF555:
 12709 1531 6C765F72 		.ascii	"lv_roller_class\000"
 12709      6F6C6C65 
 12709      725F636C 
 12709      61737300 
 12710              	.LASF248:
 12711 1541 73656C5F 		.ascii	"sel_color\000"
 12711      636F6C6F 
 12711      7200
 12712              	.LASF215:
 12713 154b 7374796C 		.ascii	"style_cnt\000"
 12713      655F636E 
 12713      7400
 12714              	.LASF251:
 12715 1555 6C657474 		.ascii	"letter_space\000"
 12715      65725F73 
 12715      70616365 
ARM GAS  C:\Users\haske\AppData\Local\Temp\ccSAQWsX.s 			page 273


 12715      00
 12716              	.LASF477:
 12717 1562 4C565F45 		.ascii	"LV_EVENT_CHILD_CHANGED\000"
 12717      56454E54 
 12717      5F434849 
 12717      4C445F43 
 12717      48414E47 
 12718              	.LASF519:
 12719 1579 4C565F49 		.ascii	"LV_IMGBTN_STATE_CHECKED_DISABLED\000"
 12719      4D474254 
 12719      4E5F5354 
 12719      4154455F 
 12719      43484543 
 12720              	.LASF211:
 12721 159a 73746174 		.ascii	"state\000"
 12721      6500
 12722              	.LASF571:
 12723 15a0 4C565F53 		.ascii	"LV_STYLE_GRID_CELL_ROW_SPAN\000"
 12723      54594C45 
 12723      5F475249 
 12723      445F4345 
 12723      4C4C5F52 
 12724              	.LASF224:
 12725 15bc 62675F69 		.ascii	"bg_img_symbol_font\000"
 12725      6D675F73 
 12725      796D626F 
 12725      6C5F666F 
 12725      6E7400
 12726              	.LASF548:
 12727 15cf 6C765F74 		.ascii	"lv_table_class\000"
 12727      61626C65 
 12727      5F636C61 
 12727      737300
 12728              	.LASF372:
 12729 15de 5F6C765F 		.ascii	"_lv_theme_t\000"
 12729      7468656D 
 12729      655F7400 
 12730              	.LASF49:
 12731 15ea 6C696E65 		.ascii	"line_height\000"
 12731      5F686569 
 12731      67687400 
 12732              	.LASF430:
 12733 15f6 65646974 		.ascii	"editable\000"
 12733      61626C65 
 12733      00
 12734              	.LASF325:
 12735 15ff 5F6C765F 		.ascii	"_lv_disp_drv_t\000"
 12735      64697370 
 12735      5F647276 
 12735      5F7400
 12736              	.LASF344:
 12737 160e 636C6561 		.ascii	"clean_dcache_cb\000"
 12737      6E5F6463 
 12737      61636865 
 12737      5F636200 
 12738              	.LASF261:
 12739 161e 7265636F 		.ascii	"recolor_opa\000"
ARM GAS  C:\Users\haske\AppData\Local\Temp\ccSAQWsX.s 			page 274


 12739      6C6F725F 
 12739      6F706100 
 12740              	.LASF490:
 12741 162a 6C765F65 		.ascii	"lv_event_code_t\000"
 12741      76656E74 
 12741      5F636F64 
 12741      655F7400 
 12742              	.LASF303:
 12743 163a 62756666 		.ascii	"buffer_copy\000"
 12743      65725F63 
 12743      6F707900 
 12744              	.LASF544:
 12745 1646 6C765F66 		.ascii	"lv_font_montserrat_14\000"
 12745      6F6E745F 
 12745      6D6F6E74 
 12745      73657272 
 12745      61745F31 
 12746              	.LASF282:
 12747 165c 6275665F 		.ascii	"buf_area\000"
 12747      61726561 
 12747      00
 12748              	.LASF543:
 12749 1665 696E6974 		.ascii	"inited\000"
 12749      656400
 12750              	.LASF520:
 12751 166c 5F4C565F 		.ascii	"_LV_IMGBTN_STATE_NUM\000"
 12751      494D4742 
 12751      544E5F53 
 12751      54415445 
 12751      5F4E554D 
 12752              	.LASF57:
 12753 1681 6C765F66 		.ascii	"lv_font_t\000"
 12753      6F6E745F 
 12753      7400
 12754              	.LASF392:
 12755 168b 4C565F53 		.ascii	"LV_STATE_FOCUSED\000"
 12755      54415445 
 12755      5F464F43 
 12755      55534544 
 12755      00
 12756              	.LASF559:
 12757 169c 4C565F53 		.ascii	"LV_STYLE_FLEX_MAIN_PLACE\000"
 12757      54594C45 
 12757      5F464C45 
 12757      585F4D41 
 12757      494E5F50 
 12758              	.LASF346:
 12759 16b5 72656E64 		.ascii	"render_start_cb\000"
 12759      65725F73 
 12759      74617274 
 12759      5F636200 
 12760              	.LASF406:
 12761 16c5 4C565F50 		.ascii	"LV_PART_SCROLLBAR\000"
 12761      4152545F 
 12761      5343524F 
 12761      4C4C4241 
 12761      5200
ARM GAS  C:\Users\haske\AppData\Local\Temp\ccSAQWsX.s 			page 275


 12762              	.LASF9:
 12763 16d7 6C6F6E67 		.ascii	"long int\000"
 12763      20696E74 
 12763      00
 12764              	.LASF425:
 12765 16e0 636F6E73 		.ascii	"constructor_cb\000"
 12765      74727563 
 12765      746F725F 
 12765      636200
 12766              	.LASF192:
 12767 16ef 6C765F73 		.ascii	"lv_style_prop_t\000"
 12767      74796C65 
 12767      5F70726F 
 12767      705F7400 
 12768              	.LASF422:
 12769 16ff 5F6C765F 		.ascii	"_lv_obj_style_t\000"
 12769      6F626A5F 
 12769      7374796C 
 12769      655F7400 
 12770              	.LASF472:
 12771 170f 4C565F45 		.ascii	"LV_EVENT_INSERT\000"
 12771      56454E54 
 12771      5F494E53 
 12771      45525400 
 12772              	.LASF557:
 12773 171f 6C765F73 		.ascii	"lv_switch_class\000"
 12773      77697463 
 12773      685F636C 
 12773      61737300 
 12774              	.LASF298:
 12775 172f 64726177 		.ascii	"draw_line\000"
 12775      5F6C696E 
 12775      6500
 12776              	.LASF576:
 12777 1739 6C765F6C 		.ascii	"lv_list_class\000"
 12777      6973745F 
 12777      636C6173 
 12777      7300
 12778              	.LASF240:
 12779 1747 73686164 		.ascii	"shadow_ofs_x\000"
 12779      6F775F6F 
 12779      66735F78 
 12779      00
 12780              	.LASF241:
 12781 1754 73686164 		.ascii	"shadow_ofs_y\000"
 12781      6F775F6F 
 12781      66735F79 
 12781      00
 12782              	.LASF483:
 12783 1761 4C565F45 		.ascii	"LV_EVENT_SCREEN_UNLOADED\000"
 12783      56454E54 
 12783      5F534352 
 12783      45454E5F 
 12783      554E4C4F 
 12784              	.LASF109:
 12785 177a 4C565F53 		.ascii	"LV_STYLE_MAX_HEIGHT\000"
 12785      54594C45 
ARM GAS  C:\Users\haske\AppData\Local\Temp\ccSAQWsX.s 			page 276


 12785      5F4D4158 
 12785      5F484549 
 12785      47485400 
 12786              	.LASF345:
 12787 178e 6472765F 		.ascii	"drv_update_cb\000"
 12787      75706461 
 12787      74655F63 
 12787      6200
 12788              	.LASF270:
 12789 179c 7261775F 		.ascii	"raw_end\000"
 12789      656E6400 
 12790              	.LASF150:
 12791 17a4 4C565F53 		.ascii	"LV_STYLE_SHADOW_OPA\000"
 12791      54594C45 
 12791      5F534841 
 12791      444F575F 
 12791      4F504100 
 12792              	.LASF48:
 12793 17b8 6765745F 		.ascii	"get_glyph_bitmap\000"
 12793      676C7970 
 12793      685F6269 
 12793      746D6170 
 12793      00
 12794              	.LASF592:
 12795 17c9 6C765F73 		.ascii	"lv_style_reset\000"
 12795      74796C65 
 12795      5F726573 
 12795      657400
 12796              	.LASF428:
 12797 17d8 77696474 		.ascii	"width_def\000"
 12797      685F6465 
 12797      6600
 12798              	.LASF205:
 12799 17e2 636C6173 		.ascii	"class_p\000"
 12799      735F7000 
 12800              	.LASF44:
 12801 17ea 69735F70 		.ascii	"is_placeholder\000"
 12801      6C616365 
 12801      686F6C64 
 12801      657200
 12802              	.LASF280:
 12803 17f9 6C765F64 		.ascii	"lv_draw_layer_flags_t\000"
 12803      7261775F 
 12803      6C617965 
 12803      725F666C 
 12803      6167735F 
 12804              	.LASF404:
 12805 180f 6C765F73 		.ascii	"lv_state_t\000"
 12805      74617465 
 12805      5F7400
 12806              	.LASF234:
 12807 181a 6F75746C 		.ascii	"outline_color\000"
 12807      696E655F 
 12807      636F6C6F 
 12807      7200
 12808              	.LASF556:
 12809 1828 6C765F74 		.ascii	"lv_textarea_class\000"
ARM GAS  C:\Users\haske\AppData\Local\Temp\ccSAQWsX.s 			page 277


 12809      65787461 
 12809      7265615F 
 12809      636C6173 
 12809      7300
 12810              	.LASF26:
 12811 183a 75736572 		.ascii	"user_data\000"
 12811      5F646174 
 12811      6100
 12812              	.LASF403:
 12813 1844 4C565F53 		.ascii	"LV_STATE_ANY\000"
 12813      54415445 
 12813      5F414E59 
 12813      00
 12814              	.LASF76:
 12815 1851 6C765F6F 		.ascii	"lv_opa_t\000"
 12815      70615F74 
 12815      00
 12816              	.LASF395:
 12817 185a 4C565F53 		.ascii	"LV_STATE_HOVERED\000"
 12817      54415445 
 12817      5F484F56 
 12817      45524544 
 12817      00
 12818              	.LASF20:
 12819 186b 75696E74 		.ascii	"uint32_t\000"
 12819      33325F74 
 12819      00
 12820              	.LASF494:
 12821 1874 6368696C 		.ascii	"children\000"
 12821      6472656E 
 12821      00
 12822              	.LASF299:
 12823 187d 64726177 		.ascii	"draw_polygon\000"
 12823      5F706F6C 
 12823      79676F6E 
 12823      00
 12824              	.LASF568:
 12825 188a 4C565F53 		.ascii	"LV_STYLE_GRID_CELL_COLUMN_SPAN\000"
 12825      54594C45 
 12825      5F475249 
 12825      445F4345 
 12825      4C4C5F43 
 12826              	.LASF431:
 12827 18a9 67726F75 		.ascii	"group_def\000"
 12827      705F6465 
 12827      6600
 12828              	.LASF82:
 12829 18b3 4C565F54 		.ascii	"LV_TEXT_DECOR_UNDERLINE\000"
 12829      4558545F 
 12829      4445434F 
 12829      525F554E 
 12829      4445524C 
 12830              	.LASF30:
 12831 18cb 6C6F6E67 		.ascii	"long double\000"
 12831      20646F75 
 12831      626C6500 
 12832              	.LASF390:
ARM GAS  C:\Users\haske\AppData\Local\Temp\ccSAQWsX.s 			page 278


 12833 18d7 4C565F53 		.ascii	"LV_STATE_DEFAULT\000"
 12833      54415445 
 12833      5F444546 
 12833      41554C54 
 12833      00
 12834              	.LASF473:
 12835 18e8 4C565F45 		.ascii	"LV_EVENT_REFRESH\000"
 12835      56454E54 
 12835      5F524546 
 12835      52455348 
 12835      00
 12836              	.LASF320:
 12837 18f9 666C7573 		.ascii	"flushing\000"
 12837      68696E67 
 12837      00
 12838              	.LASF615:
 12839 1902 6C765F73 		.ascii	"lv_style_set_outline_pad\000"
 12839      74796C65 
 12839      5F736574 
 12839      5F6F7574 
 12839      6C696E65 
 12840              	.LASF11:
 12841 191b 6C6F6E67 		.ascii	"long unsigned int\000"
 12841      20756E73 
 12841      69676E65 
 12841      6420696E 
 12841      7400
 12842              	.LASF367:
 12843 192d 696E765F 		.ascii	"inv_areas\000"
 12843      61726561 
 12843      7300
 12844              	.LASF340:
 12845 1937 7365745F 		.ascii	"set_px_cb\000"
 12845      70785F63 
 12845      6200
 12846              	.LASF60:
 12847 1941 4C565F4F 		.ascii	"LV_OPA_10\000"
 12847      50415F31 
 12847      3000
 12848              	.LASF505:
 12849 194b 6576656E 		.ascii	"event_dsc_cnt\000"
 12849      745F6473 
 12849      635F636E 
 12849      7400
 12850              	.LASF267:
 12851 1959 64617368 		.ascii	"dash_gap\000"
 12851      5F676170 
 12851      00
 12852              	.LASF341:
 12853 1962 636C6561 		.ascii	"clear_cb\000"
 12853      725F6362 
 12853      00
 12854              	.LASF161:
 12855 196b 4C565F53 		.ascii	"LV_STYLE_ARC_ROUNDED\000"
 12855      54594C45 
 12855      5F415243 
 12855      5F524F55 
ARM GAS  C:\Users\haske\AppData\Local\Temp\ccSAQWsX.s 			page 279


 12855      4E444544 
 12856              	.LASF146:
 12857 1980 4C565F53 		.ascii	"LV_STYLE_SHADOW_OFS_X\000"
 12857      54594C45 
 12857      5F534841 
 12857      444F575F 
 12857      4F46535F 
 12858              	.LASF147:
 12859 1996 4C565F53 		.ascii	"LV_STYLE_SHADOW_OFS_Y\000"
 12859      54594C45 
 12859      5F534841 
 12859      444F575F 
 12859      4F46535F 
 12860              	.LASF237:
 12861 19ac 6F75746C 		.ascii	"outline_opa\000"
 12861      696E655F 
 12861      6F706100 
 12862              	.LASF452:
 12863 19b8 4C565F45 		.ascii	"LV_EVENT_SCROLL_BEGIN\000"
 12863      56454E54 
 12863      5F534352 
 12863      4F4C4C5F 
 12863      42454749 
 12864              	.LASF301:
 12865 19ce 64726177 		.ascii	"draw_bg\000"
 12865      5F626700 
 12866              	.LASF621:
 12867 19d6 6C765F6F 		.ascii	"lv_obj_report_style_change\000"
 12867      626A5F72 
 12867      65706F72 
 12867      745F7374 
 12867      796C655F 
 12868              	.LASF159:
 12869 19f1 4C565F53 		.ascii	"LV_STYLE_LINE_OPA\000"
 12869      54594C45 
 12869      5F4C494E 
 12869      455F4F50 
 12869      4100
 12870              	.LASF32:
 12871 1a03 63686172 		.ascii	"char\000"
 12871      00
 12872              	.LASF61:
 12873 1a08 4C565F4F 		.ascii	"LV_OPA_20\000"
 12873      50415F32 
 12873      3000
 12874              	.LASF416:
 12875 1a12 6C765F73 		.ascii	"lv_scrollbar_mode_t\000"
 12875      63726F6C 
 12875      6C626172 
 12875      5F6D6F64 
 12875      655F7400 
 12876              	.LASF360:
 12877 1a26 746F705F 		.ascii	"top_layer\000"
 12877      6C617965 
 12877      7200
 12878              	.LASF359:
 12879 1a30 7363725F 		.ascii	"scr_to_load\000"
ARM GAS  C:\Users\haske\AppData\Local\Temp\ccSAQWsX.s 			page 280


 12879      746F5F6C 
 12879      6F616400 
 12880              	.LASF446:
 12881 1a3c 4C565F45 		.ascii	"LV_EVENT_PRESS_LOST\000"
 12881      56454E54 
 12881      5F505245 
 12881      53535F4C 
 12881      4F535400 
 12882              	.LASF271:
 12883 1a50 6C765F64 		.ascii	"lv_draw_line_dsc_t\000"
 12883      7261775F 
 12883      6C696E65 
 12883      5F647363 
 12883      5F7400
 12884              	.LASF527:
 12885 1a63 7061645F 		.ascii	"pad_zero\000"
 12885      7A65726F 
 12885      00
 12886              	.LASF104:
 12887 1a6c 4C565F53 		.ascii	"LV_STYLE_WIDTH\000"
 12887      54594C45 
 12887      5F574944 
 12887      544800
 12888              	.LASF382:
 12889 1a7b 6F626A5F 		.ascii	"obj_ll\000"
 12889      6C6C00
 12890              	.LASF148:
 12891 1a82 4C565F53 		.ascii	"LV_STYLE_SHADOW_SPREAD\000"
 12891      54594C45 
 12891      5F534841 
 12891      444F575F 
 12891      53505245 
 12892              	.LASF95:
 12893 1a99 636F6C6F 		.ascii	"color\000"
 12893      7200
 12894              	.LASF62:
 12895 1a9f 4C565F4F 		.ascii	"LV_OPA_30\000"
 12895      50415F33 
 12895      3000
 12896              	.LASF611:
 12897 1aa9 6C765F73 		.ascii	"lv_style_set_arc_color\000"
 12897      74796C65 
 12897      5F736574 
 12897      5F617263 
 12897      5F636F6C 
 12898              	.LASF202:
 12899 1ac0 6C765F73 		.ascii	"lv_style_t\000"
 12899      74796C65 
 12899      5F7400
 12900              	.LASF474:
 12901 1acb 4C565F45 		.ascii	"LV_EVENT_READY\000"
 12901      56454E54 
 12901      5F524541 
 12901      445900
 12902              	.LASF50:
 12903 1ada 62617365 		.ascii	"base_line\000"
 12903      5F6C696E 
ARM GAS  C:\Users\haske\AppData\Local\Temp\ccSAQWsX.s 			page 281


 12903      6500
 12904              	.LASF165:
 12905 1ae4 4C565F53 		.ascii	"LV_STYLE_TEXT_COLOR\000"
 12905      54594C45 
 12905      5F544558 
 12905      545F434F 
 12905      4C4F5200 
 12906              	.LASF140:
 12907 1af8 4C565F53 		.ascii	"LV_STYLE_BORDER_POST\000"
 12907      54594C45 
 12907      5F424F52 
 12907      4445525F 
 12907      504F5354 
 12908              	.LASF309:
 12909 1b0d 6C765F64 		.ascii	"lv_draw_ctx_t\000"
 12909      7261775F 
 12909      6374785F 
 12909      7400
 12910              	.LASF90:
 12911 1b1b 4C565F42 		.ascii	"LV_BORDER_SIDE_FULL\000"
 12911      4F524445 
 12911      525F5349 
 12911      44455F46 
 12911      554C4C00 
 12912              	.LASF315:
 12913 1b2f 5F6C765F 		.ascii	"_lv_disp_draw_buf_t\000"
 12913      64697370 
 12913      5F647261 
 12913      775F6275 
 12913      665F7400 
 12914              	.LASF435:
 12915 1b43 63757272 		.ascii	"current_target\000"
 12915      656E745F 
 12915      74617267 
 12915      657400
 12916              	.LASF606:
 12917 1b52 6C765F73 		.ascii	"lv_style_set_radius\000"
 12917      74796C65 
 12917      5F736574 
 12917      5F726164 
 12917      69757300 
 12918              	.LASF63:
 12919 1b66 4C565F4F 		.ascii	"LV_OPA_40\000"
 12919      50415F34 
 12919      3000
 12920              	.LASF184:
 12921 1b70 4C565F53 		.ascii	"LV_STYLE_TRANSFORM_ZOOM\000"
 12921      54594C45 
 12921      5F545241 
 12921      4E53464F 
 12921      524D5F5A 
 12922              	.LASF58:
 12923 1b88 4C565F4F 		.ascii	"LV_OPA_TRANSP\000"
 12923      50415F54 
 12923      52414E53 
 12923      5000
 12924              	.LASF115:
ARM GAS  C:\Users\haske\AppData\Local\Temp\ccSAQWsX.s 			page 282


 12925 1b96 4C565F53 		.ascii	"LV_STYLE_PAD_TOP\000"
 12925      54594C45 
 12925      5F504144 
 12925      5F544F50 
 12925      00
 12926              	.LASF600:
 12927 1ba7 6C765F73 		.ascii	"lv_style_set_bg_opa\000"
 12927      74796C65 
 12927      5F736574 
 12927      5F62675F 
 12927      6F706100 
 12928              	.LASF551:
 12929 1bbb 6C765F73 		.ascii	"lv_slider_class\000"
 12929      6C696465 
 12929      725F636C 
 12929      61737300 
 12930              	.LASF252:
 12931 1bcb 62696469 		.ascii	"bidi_dir\000"
 12931      5F646972 
 12931      00
 12932              	.LASF497:
 12933 1bd4 6576656E 		.ascii	"event_dsc\000"
 12933      745F6473 
 12933      6300
 12934              	.LASF598:
 12935 1bde 6C765F73 		.ascii	"lv_style_set_pad_row\000"
 12935      74796C65 
 12935      5F736574 
 12935      5F706164 
 12935      5F726F77 
 12936              	.LASF516:
 12937 1bf3 4C565F49 		.ascii	"LV_IMGBTN_STATE_DISABLED\000"
 12937      4D474254 
 12937      4E5F5354 
 12937      4154455F 
 12937      44495341 
 12938              	.LASF377:
 12939 1c0c 666F6E74 		.ascii	"font_small\000"
 12939      5F736D61 
 12939      6C6C00
 12940              	.LASF546:
 12941 1c17 6C765F61 		.ascii	"lv_arc_class\000"
 12941      72635F63 
 12941      6C617373 
 12941      00
 12942              	.LASF389:
 12943 1c24 77726170 		.ascii	"wrap\000"
 12943      00
 12944              	.LASF186:
 12945 1c29 4C565F53 		.ascii	"LV_STYLE_TRANSFORM_PIVOT_X\000"
 12945      54594C45 
 12945      5F545241 
 12945      4E53464F 
 12945      524D5F50 
 12946              	.LASF187:
 12947 1c44 4C565F53 		.ascii	"LV_STYLE_TRANSFORM_PIVOT_Y\000"
 12947      54594C45 
ARM GAS  C:\Users\haske\AppData\Local\Temp\ccSAQWsX.s 			page 283


 12947      5F545241 
 12947      4E53464F 
 12947      524D5F50 
 12948              	.LASF64:
 12949 1c5f 4C565F4F 		.ascii	"LV_OPA_50\000"
 12949      50415F35 
 12949      3000
 12950              	.LASF81:
 12951 1c69 4C565F54 		.ascii	"LV_TEXT_DECOR_NONE\000"
 12951      4558545F 
 12951      4445434F 
 12951      525F4E4F 
 12951      4E4500
 12952              	.LASF79:
 12953 1c7c 6C765F62 		.ascii	"lv_base_dir_t\000"
 12953      6173655F 
 12953      6469725F 
 12953      7400
 12954              	.LASF536:
 12955 1c8a 6C765F63 		.ascii	"lv_color_black\000"
 12955      6F6C6F72 
 12955      5F626C61 
 12955      636B00
 12956              	.LASF94:
 12957 1c99 6C765F64 		.ascii	"lv_dither_mode_t\000"
 12957      69746865 
 12957      725F6D6F 
 12957      64655F74 
 12957      00
 12958              	.LASF502:
 12959 1caa 7363726F 		.ascii	"scroll_snap_x\000"
 12959      6C6C5F73 
 12959      6E61705F 
 12959      7800
 12960              	.LASF503:
 12961 1cb8 7363726F 		.ascii	"scroll_snap_y\000"
 12961      6C6C5F73 
 12961      6E61705F 
 12961      7900
 12962              	.LASF353:
 12963 1cc6 64726976 		.ascii	"driver\000"
 12963      657200
 12964              	.LASF117:
 12965 1ccd 4C565F53 		.ascii	"LV_STYLE_PAD_LEFT\000"
 12965      54594C45 
 12965      5F504144 
 12965      5F4C4546 
 12965      5400
 12966              	.LASF65:
 12967 1cdf 4C565F4F 		.ascii	"LV_OPA_60\000"
 12967      50415F36 
 12967      3000
 12968              	.LASF156:
 12969 1ce9 4C565F53 		.ascii	"LV_STYLE_LINE_DASH_GAP\000"
 12969      54594C45 
 12969      5F4C494E 
 12969      455F4441 
ARM GAS  C:\Users\haske\AppData\Local\Temp\ccSAQWsX.s 			page 284


 12969      53485F47 
 12970              	.LASF304:
 12971 1d00 6C617965 		.ascii	"layer_init\000"
 12971      725F696E 
 12971      697400
 12972              	.LASF175:
 12973 1d0b 4C565F53 		.ascii	"LV_STYLE_ANIM\000"
 12973      54594C45 
 12973      5F414E49 
 12973      4D00
 12974              	.LASF570:
 12975 1d19 4C565F53 		.ascii	"LV_STYLE_GRID_CELL_ROW_POS\000"
 12975      54594C45 
 12975      5F475249 
 12975      445F4345 
 12975      4C4C5F52 
 12976              	.LASF362:
 12977 1d34 73637265 		.ascii	"screen_cnt\000"
 12977      656E5F63 
 12977      6E7400
 12978              	.LASF529:
 12979 1d3f 72616469 		.ascii	"radius_circle\000"
 12979      75735F63 
 12979      6972636C 
 12979      6500
 12980              	.LASF539:
 12981 1d4d 6C765F73 		.ascii	"lv_style_set_pad_gap\000"
 12981      74796C65 
 12981      5F736574 
 12981      5F706164 
 12981      5F676170 
 12982              	.LASF294:
 12983 1d62 64726177 		.ascii	"draw_arc\000"
 12983      5F617263 
 12983      00
 12984              	.LASF444:
 12985 1d6b 4C565F45 		.ascii	"LV_EVENT_PRESSED\000"
 12985      56454E54 
 12985      5F505245 
 12985      53534544 
 12985      00
 12986              	.LASF47:
 12987 1d7c 6765745F 		.ascii	"get_glyph_dsc\000"
 12987      676C7970 
 12987      685F6473 
 12987      6300
 12988              	.LASF375:
 12989 1d8a 636F6C6F 		.ascii	"color_primary\000"
 12989      725F7072 
 12989      696D6172 
 12989      7900
 12990              	.LASF508:
 12991 1d98 6C765F6F 		.ascii	"lv_obj_t\000"
 12991      626A5F74 
 12991      00
 12992              	.LASF356:
 12993 1da1 73637265 		.ascii	"screens\000"
ARM GAS  C:\Users\haske\AppData\Local\Temp\ccSAQWsX.s 			page 285


 12993      656E7300 
 12994              	.LASF460:
 12995 1da9 4C565F45 		.ascii	"LV_EVENT_HIT_TEST\000"
 12995      56454E54 
 12995      5F484954 
 12995      5F544553 
 12995      5400
 12996              	.LASF87:
 12997 1dbb 4C565F42 		.ascii	"LV_BORDER_SIDE_TOP\000"
 12997      4F524445 
 12997      525F5349 
 12997      44455F54 
 12997      4F5000
 12998              	.LASF418:
 12999 1dce 7374796C 		.ascii	"style\000"
 12999      6500
 13000              	.LASF66:
 13001 1dd4 4C565F4F 		.ascii	"LV_OPA_70\000"
 13001      50415F37 
 13001      3000
 13002              	.LASF114:
 13003 1dde 4C565F53 		.ascii	"LV_STYLE_RADIUS\000"
 13003      54594C45 
 13003      5F524144 
 13003      49555300 
 13004              	.LASF313:
 13005 1dee 7461696C 		.ascii	"tail\000"
 13005      00
 13006              	.LASF185:
 13007 1df3 4C565F53 		.ascii	"LV_STYLE_TRANSFORM_ANGLE\000"
 13007      54594C45 
 13007      5F545241 
 13007      4E53464F 
 13007      524D5F41 
 13008              	.LASF326:
 13009 1e0c 686F725F 		.ascii	"hor_res\000"
 13009      72657300 
 13010              	.LASF572:
 13011 1e14 4C565F53 		.ascii	"LV_STYLE_GRID_CELL_Y_ALIGN\000"
 13011      54594C45 
 13011      5F475249 
 13011      445F4345 
 13011      4C4C5F59 
 13012              	.LASF260:
 13013 1e2f 7265636F 		.ascii	"recolor\000"
 13013      6C6F7200 
 13014              	.LASF549:
 13015 1e37 6C765F63 		.ascii	"lv_checkbox_class\000"
 13015      6865636B 
 13015      626F785F 
 13015      636C6173 
 13015      7300
 13016              	.LASF67:
 13017 1e49 4C565F4F 		.ascii	"LV_OPA_80\000"
 13017      50415F38 
 13017      3000
 13018              	.LASF217:
ARM GAS  C:\Users\haske\AppData\Local\Temp\ccSAQWsX.s 			page 286


 13019 1e53 775F6C61 		.ascii	"w_layout\000"
 13019      796F7574 
 13019      00
 13020              	.LASF142:
 13021 1e5c 4C565F53 		.ascii	"LV_STYLE_OUTLINE_COLOR\000"
 13021      54594C45 
 13021      5F4F5554 
 13021      4C494E45 
 13021      5F434F4C 
 13022              	.LASF579:
 13023 1e73 6C765F6D 		.ascii	"lv_msgbox_class\000"
 13023      7367626F 
 13023      785F636C 
 13023      61737300 
 13024              	.LASF396:
 13025 1e83 4C565F53 		.ascii	"LV_STATE_PRESSED\000"
 13025      54415445 
 13025      5F505245 
 13025      53534544 
 13025      00
 13026              	.LASF8:
 13027 1e94 5F5F696E 		.ascii	"__int32_t\000"
 13027      7433325F 
 13027      7400
 13028              	.LASF10:
 13029 1e9e 5F5F7569 		.ascii	"__uint32_t\000"
 13029      6E743332 
 13029      5F7400
 13030              	.LASF238:
 13031 1ea9 73686164 		.ascii	"shadow_color\000"
 13031      6F775F63 
 13031      6F6C6F72 
 13031      00
 13032              	.LASF463:
 13033 1eb6 4C565F45 		.ascii	"LV_EVENT_DRAW_MAIN_BEGIN\000"
 13033      56454E54 
 13033      5F445241 
 13033      575F4D41 
 13033      494E5F42 
 13034              	.LASF622:
 13035 1ecf 474E5520 		.ascii	"GNU C11 5.4.1 20160609 (release) [ARM/embedded-5-br"
 13035      43313120 
 13035      352E342E 
 13035      31203230 
 13035      31363036 
 13036 1f02 616E6368 		.ascii	"anch revision 237715] -mcpu=cortex-m0plus -mthumb -"
 13036      20726576 
 13036      6973696F 
 13036      6E203233 
 13036      37373135 
 13037 1f35 67202D4F 		.ascii	"g -Og -ffunction-sections -ffat-lto-objects\000"
 13037      67202D66 
 13037      66756E63 
 13037      74696F6E 
 13037      2D736563 
 13038              	.LASF498:
 13039 1f61 7363726F 		.ascii	"scroll\000"
ARM GAS  C:\Users\haske\AppData\Local\Temp\ccSAQWsX.s 			page 287


 13039      6C6C00
 13040              	.LASF229:
 13041 1f68 626F7264 		.ascii	"border_color\000"
 13041      65725F63 
 13041      6F6C6F72 
 13041      00
 13042              	.LASF46:
 13043 1f75 5F6C765F 		.ascii	"_lv_font_t\000"
 13043      666F6E74 
 13043      5F7400
 13044              	.LASF68:
 13045 1f80 4C565F4F 		.ascii	"LV_OPA_90\000"
 13045      50415F39 
 13045      3000
 13046              	.LASF312:
 13047 1f8a 68656164 		.ascii	"head\000"
 13047      00
 13048              	.LASF300:
 13049 1f8f 64726177 		.ascii	"draw_transform\000"
 13049      5F747261 
 13049      6E73666F 
 13049      726D00
 13050              	.LASF388:
 13051 1f9e 7265666F 		.ascii	"refocus_policy\000"
 13051      6375735F 
 13051      706F6C69 
 13051      637900
 13052              	.LASF369:
 13053 1fad 696E765F 		.ascii	"inv_p\000"
 13053      7000
 13054              	.LASF122:
 13055 1fb3 4C565F53 		.ascii	"LV_STYLE_CLIP_CORNER\000"
 13055      54594C45 
 13055      5F434C49 
 13055      505F434F 
 13055      524E4552 
 13056              	.LASF541:
 13057 1fc8 7374796C 		.ascii	"style_init\000"
 13057      655F696E 
 13057      697400
 13058              	.LASF264:
 13059 1fd3 6C765F64 		.ascii	"lv_draw_img_dsc_t\000"
 13059      7261775F 
 13059      696D675F 
 13059      6473635F 
 13059      7400
 13060              	.LASF265:
 13061 1fe5 77696474 		.ascii	"width\000"
 13061      6800
 13062              	.LASF354:
 13063 1feb 72656672 		.ascii	"refr_timer\000"
 13063      5F74696D 
 13063      657200
 13064              	.LASF232:
 13065 1ff6 626F7264 		.ascii	"border_post\000"
 13065      65725F70 
 13065      6F737400 
ARM GAS  C:\Users\haske\AppData\Local\Temp\ccSAQWsX.s 			page 288


 13066              	.LASF339:
 13067 2002 726F756E 		.ascii	"rounder_cb\000"
 13067      6465725F 
 13067      636200
 13068              	.LASF164:
 13069 200d 4C565F53 		.ascii	"LV_STYLE_ARC_IMG_SRC\000"
 13069      54594C45 
 13069      5F415243 
 13069      5F494D47 
 13069      5F535243 
 13070              	.LASF273:
 13071 2022 656E645F 		.ascii	"end_angle\000"
 13071      616E676C 
 13071      6500
 13072              	.LASF599:
 13073 202c 6C765F73 		.ascii	"lv_style_set_pad_column\000"
 13073      74796C65 
 13073      5F736574 
 13073      5F706164 
 13073      5F636F6C 
 13074              	.LASF144:
 13075 2044 4C565F53 		.ascii	"LV_STYLE_OUTLINE_PAD\000"
 13075      54594C45 
 13075      5F4F5554 
 13075      4C494E45 
 13075      5F504144 
 13076              	.LASF281:
 13077 2059 636C6970 		.ascii	"clip_area\000"
 13077      5F617265 
 13077      6100
 13078              	.LASF151:
 13079 2063 4C565F53 		.ascii	"LV_STYLE_IMG_OPA\000"
 13079      54594C45 
 13079      5F494D47 
 13079      5F4F5041 
 13079      00
 13080              	.LASF13:
 13081 2074 6C6F6E67 		.ascii	"long long unsigned int\000"
 13081      206C6F6E 
 13081      6720756E 
 13081      7369676E 
 13081      65642069 
 13082              	.LASF206:
 13083 208b 70617265 		.ascii	"parent\000"
 13083      6E7400
 13084              	.LASF602:
 13085 2092 6C765F73 		.ascii	"lv_style_set_width\000"
 13085      74796C65 
 13085      5F736574 
 13085      5F776964 
 13085      746800
 13086              	.LASF469:
 13087 20a5 4C565F45 		.ascii	"LV_EVENT_DRAW_PART_BEGIN\000"
 13087      56454E54 
 13087      5F445241 
 13087      575F5041 
 13087      52545F42 
ARM GAS  C:\Users\haske\AppData\Local\Temp\ccSAQWsX.s 			page 289


 13088              	.LASF259:
 13089 20be 7069766F 		.ascii	"pivot\000"
 13089      7400
 13090              	.LASF318:
 13091 20c4 6275665F 		.ascii	"buf_act\000"
 13091      61637400 
 13092              	.LASF153:
 13093 20cc 4C565F53 		.ascii	"LV_STYLE_IMG_RECOLOR_OPA\000"
 13093      54594C45 
 13093      5F494D47 
 13093      5F524543 
 13093      4F4C4F52 
 13094              	.LASF591:
 13095 20e5 6C765F6F 		.ascii	"lv_obj_get_index\000"
 13095      626A5F67 
 13095      65745F69 
 13095      6E646578 
 13095      00
 13096              	.LASF69:
 13097 20f6 4C565F4F 		.ascii	"LV_OPA_100\000"
 13097      50415F31 
 13097      303000
 13098              	.LASF116:
 13099 2101 4C565F53 		.ascii	"LV_STYLE_PAD_BOTTOM\000"
 13099      54594C45 
 13099      5F504144 
 13099      5F424F54 
 13099      544F4D00 
 13100              	.LASF487:
 13101 2115 4C565F45 		.ascii	"LV_EVENT_GET_SELF_SIZE\000"
 13101      56454E54 
 13101      5F474554 
 13101      5F53454C 
 13101      465F5349 
 13102              	.LASF98:
 13103 212c 73746F70 		.ascii	"stops\000"
 13103      7300
 13104              	.LASF524:
 13105 2132 666F6375 		.ascii	"focus\000"
 13105      7300
 13106              	.LASF311:
 13107 2138 6E5F7369 		.ascii	"n_size\000"
 13107      7A6500
 13108              	.LASF501:
 13109 213f 7363726F 		.ascii	"scrollbar_mode\000"
 13109      6C6C6261 
 13109      725F6D6F 
 13109      646500
 13110              	.LASF397:
 13111 214e 4C565F53 		.ascii	"LV_STATE_SCROLLED\000"
 13111      54415445 
 13111      5F534352 
 13111      4F4C4C45 
 13111      4400
 13112              	.LASF594:
 13113 2160 6C765F73 		.ascii	"lv_style_set_pad_left\000"
 13113      74796C65 
ARM GAS  C:\Users\haske\AppData\Local\Temp\ccSAQWsX.s 			page 290


 13113      5F736574 
 13113      5F706164 
 13113      5F6C6566 
 13114              	.LASF627:
 13115 2176 6C765F74 		.ascii	"lv_theme_mono_is_inited\000"
 13115      68656D65 
 13115      5F6D6F6E 
 13115      6F5F6973 
 13115      5F696E69 
 13116              	.LASF350:
 13117 218e 64726177 		.ascii	"draw_ctx_deinit\000"
 13117      5F637478 
 13117      5F646569 
 13117      6E697400 
 13118              	.LASF274:
 13119 219e 696D675F 		.ascii	"img_src\000"
 13119      73726300 
 13120              	.LASF414:
 13121 21a6 4C565F50 		.ascii	"LV_PART_ANY\000"
 13121      4152545F 
 13121      414E5900 
 13122              	.LASF583:
 13123 21b2 6C765F74 		.ascii	"lv_tileview_class\000"
 13123      696C6576 
 13123      6965775F 
 13123      636C6173 
 13123      7300
 13124              	.LASF263:
 13125 21c4 616E7469 		.ascii	"antialias\000"
 13125      616C6961 
 13125      7300
 13126              	.LASF575:
 13127 21ce 6C765F6B 		.ascii	"lv_keyboard_class\000"
 13127      6579626F 
 13127      6172645F 
 13127      636C6173 
 13127      7300
 13128              	.LASF287:
 13129 21e0 6D61785F 		.ascii	"max_row_with_alpha\000"
 13129      726F775F 
 13129      77697468 
 13129      5F616C70 
 13129      686100
 13130              	.LASF100:
 13131 21f3 64697468 		.ascii	"dither\000"
 13131      657200
 13132              	.LASF136:
 13133 21fa 4C565F53 		.ascii	"LV_STYLE_BORDER_COLOR\000"
 13133      54594C45 
 13133      5F424F52 
 13133      4445525F 
 13133      434F4C4F 
 13134              	.LASF123:
 13135 2210 4C565F53 		.ascii	"LV_STYLE_BG_COLOR\000"
 13135      54594C45 
 13135      5F42475F 
 13135      434F4C4F 
ARM GAS  C:\Users\haske\AppData\Local\Temp\ccSAQWsX.s 			page 291


 13135      5200
 13136              	.LASF226:
 13137 2222 62675F69 		.ascii	"bg_img_opa\000"
 13137      6D675F6F 
 13137      706100
 13138              	.LASF617:
 13139 222d 6C765F73 		.ascii	"lv_style_set_text_decor\000"
 13139      74796C65 
 13139      5F736574 
 13139      5F746578 
 13139      745F6465 
 13140              	.LASF134:
 13141 2245 4C565F53 		.ascii	"LV_STYLE_BG_IMG_RECOLOR_OPA\000"
 13141      54594C45 
 13141      5F42475F 
 13141      494D475F 
 13141      5245434F 
 13142              	.LASF553:
 13143 2261 6C765F64 		.ascii	"lv_dropdown_class\000"
 13143      726F7064 
 13143      6F776E5F 
 13143      636C6173 
 13143      7300
 13144              	.LASF573:
 13145 2273 6C765F63 		.ascii	"lv_calendar_class\000"
 13145      616C656E 
 13145      6461725F 
 13145      636C6173 
 13145      7300
 13146              	.LASF324:
 13147 2285 6C765F64 		.ascii	"lv_disp_draw_buf_t\000"
 13147      6973705F 
 13147      64726177 
 13147      5F627566 
 13147      5F7400
 13148              	.LASF80:
 13149 2298 6C765F62 		.ascii	"lv_blend_mode_t\000"
 13149      6C656E64 
 13149      5F6D6F64 
 13149      655F7400 
 13150              	.LASF332:
 13151 22a8 64726177 		.ascii	"draw_buf\000"
 13151      5F627566 
 13151      00
 13152              	.LASF595:
 13153 22b1 6C765F73 		.ascii	"lv_style_set_pad_right\000"
 13153      74796C65 
 13153      5F736574 
 13153      5F706164 
 13153      5F726967 
 13154              	.LASF12:
 13155 22c8 6C6F6E67 		.ascii	"long long int\000"
 13155      206C6F6E 
 13155      6720696E 
 13155      7400
 13156              	.LASF466:
 13157 22d6 4C565F45 		.ascii	"LV_EVENT_DRAW_POST_BEGIN\000"
ARM GAS  C:\Users\haske\AppData\Local\Temp\ccSAQWsX.s 			page 292


 13157      56454E54 
 13157      5F445241 
 13157      575F504F 
 13157      53545F42 
 13158              	.LASF45:
 13159 22ef 5F6C765F 		.ascii	"_lv_timer_t\000"
 13159      74696D65 
 13159      725F7400 
 13160              	.LASF488:
 13161 22fb 5F4C565F 		.ascii	"_LV_EVENT_LAST\000"
 13161      4556454E 
 13161      545F4C41 
 13161      535400
 13162              	.LASF71:
 13163 230a 626C7565 		.ascii	"blue\000"
 13163      00
 13164              	.LASF59:
 13165 230f 4C565F4F 		.ascii	"LV_OPA_0\000"
 13165      50415F30 
 13165      00
 13166              	.LASF468:
 13167 2318 4C565F45 		.ascii	"LV_EVENT_DRAW_POST_END\000"
 13167      56454E54 
 13167      5F445241 
 13167      575F504F 
 13167      53545F45 
 13168              	.LASF302:
 13169 232f 77616974 		.ascii	"wait_for_finish\000"
 13169      5F666F72 
 13169      5F66696E 
 13169      69736800 
 13170              	.LASF102:
 13171 233f 6C765F73 		.ascii	"lv_style_value_t\000"
 13171      74796C65 
 13171      5F76616C 
 13171      75655F74 
 13171      00
 13172              	.LASF323:
 13173 2350 6C617374 		.ascii	"last_part\000"
 13173      5F706172 
 13173      7400
 13174              	.LASF511:
 13175 235a 4C565F42 		.ascii	"LV_BAR_MODE_NORMAL\000"
 13175      41525F4D 
 13175      4F44455F 
 13175      4E4F524D 
 13175      414C00
 13176              	.LASF500:
 13177 236d 6578745F 		.ascii	"ext_draw_size\000"
 13177      64726177 
 13177      5F73697A 
 13177      6500
 13178              	.LASF169:
 13179 237b 4C565F53 		.ascii	"LV_STYLE_TEXT_LINE_SPACE\000"
 13179      54594C45 
 13179      5F544558 
 13179      545F4C49 
ARM GAS  C:\Users\haske\AppData\Local\Temp\ccSAQWsX.s 			page 293


 13179      4E455F53 
 13180              	.LASF522:
 13181 2394 7363726F 		.ascii	"scrollbar\000"
 13181      6C6C6261 
 13181      7200
 13182              	.LASF604:
 13183 239e 6C765F73 		.ascii	"lv_style_set_text_font\000"
 13183      74796C65 
 13183      5F736574 
 13183      5F746578 
 13183      745F666F 
 13184              	.LASF286:
 13185 23b5 61726561 		.ascii	"area_act\000"
 13185      5F616374 
 13185      00
 13186              	.LASF368:
 13187 23be 696E765F 		.ascii	"inv_area_joined\000"
 13187      61726561 
 13187      5F6A6F69 
 13187      6E656400 
 13188              	.LASF348:
 13189 23ce 64726177 		.ascii	"draw_ctx\000"
 13189      5F637478 
 13189      00
 13190              	.LASF103:
 13191 23d7 4C565F53 		.ascii	"LV_STYLE_PROP_INV\000"
 13191      54594C45 
 13191      5F50524F 
 13191      505F494E 
 13191      5600
 13192              	.LASF484:
 13193 23e9 4C565F45 		.ascii	"LV_EVENT_SIZE_CHANGED\000"
 13193      56454E54 
 13193      5F53495A 
 13193      455F4348 
 13193      414E4745 
 13194              	.LASF465:
 13195 23ff 4C565F45 		.ascii	"LV_EVENT_DRAW_MAIN_END\000"
 13195      56454E54 
 13195      5F445241 
 13195      575F4D41 
 13195      494E5F45 
 13196              	.LASF293:
 13197 2416 64726177 		.ascii	"draw_rect\000"
 13197      5F726563 
 13197      7400
 13198              	.LASF203:
 13199 2420 6C765F69 		.ascii	"lv_img_cf_t\000"
 13199      6D675F63 
 13199      665F7400 
 13200              	.LASF70:
 13201 242c 4C565F4F 		.ascii	"LV_OPA_COVER\000"
 13201      50415F43 
 13201      4F564552 
 13201      00
 13202              	.LASF412:
 13203 2439 4C565F50 		.ascii	"LV_PART_CURSOR\000"
ARM GAS  C:\Users\haske\AppData\Local\Temp\ccSAQWsX.s 			page 294


 13203      4152545F 
 13203      43555253 
 13203      4F5200
 13204              	.LASF587:
 13205 2448 5F6C765F 		.ascii	"_lv_theme_default_styles\000"
 13205      7468656D 
 13205      655F6465 
 13205      6661756C 
 13205      745F7374 
 13206              	.LASF0:
 13207 2461 5F5F696E 		.ascii	"__int8_t\000"
 13207      74385F74 
 13207      00
 13208              	.LASF173:
 13209 246a 4C565F53 		.ascii	"LV_STYLE_COLOR_FILTER_DSC\000"
 13209      54594C45 
 13209      5F434F4C 
 13209      4F525F46 
 13209      494C5445 
 13210              	.LASF623:
 13211 2484 2E2E5C2E 		.ascii	"..\\..\\..\\arduinoLCD\\test\\Pain Drain\\libraries"
 13211      2E5C2E2E 
 13211      5C617264 
 13211      75696E6F 
 13211      4C43445C 
 13212 24b1 5C6C7667 		.ascii	"\\lvgl\\src\\extra\\themes\\mono\\lv_theme_mono.c\000"
 13212      6C5C7372 
 13212      635C6578 
 13212      7472615C 
 13212      7468656D 
 13213              	.LASF426:
 13214 24dd 64657374 		.ascii	"destructor_cb\000"
 13214      72756374 
 13214      6F725F63 
 13214      6200
 13215              	.LASF439:
 13216 24eb 64656C65 		.ascii	"deleted\000"
 13216      74656400 
 13217              	.LASF574:
 13218 24f3 6C765F63 		.ascii	"lv_chart_class\000"
 13218      68617274 
 13218      5F636C61 
 13218      737300
 13219              	.LASF88:
 13220 2502 4C565F42 		.ascii	"LV_BORDER_SIDE_LEFT\000"
 13220      4F524445 
 13220      525F5349 
 13220      44455F4C 
 13220      45465400 
 13221              	.LASF450:
 13222 2516 4C565F45 		.ascii	"LV_EVENT_CLICKED\000"
 13222      56454E54 
 13222      5F434C49 
 13222      434B4544 
 13222      00
 13223              	.LASF448:
 13224 2527 4C565F45 		.ascii	"LV_EVENT_LONG_PRESSED\000"
ARM GAS  C:\Users\haske\AppData\Local\Temp\ccSAQWsX.s 			page 295


 13224      56454E54 
 13224      5F4C4F4E 
 13224      475F5052 
 13224      45535345 
 13225              	.LASF14:
 13226 253d 756E7369 		.ascii	"unsigned int\000"
 13226      676E6564 
 13226      20696E74 
 13226      00
 13227              	.LASF577:
 13228 254a 6C765F6C 		.ascii	"lv_list_text_class\000"
 13228      6973745F 
 13228      74657874 
 13228      5F636C61 
 13228      737300
 13229              	.LASF174:
 13230 255d 4C565F53 		.ascii	"LV_STYLE_COLOR_FILTER_OPA\000"
 13230      54594C45 
 13230      5F434F4C 
 13230      4F525F46 
 13230      494C5445 
 13231              	.LASF376:
 13232 2577 636F6C6F 		.ascii	"color_secondary\000"
 13232      725F7365 
 13232      636F6E64 
 13232      61727900 
 13233              	.LASF160:
 13234 2587 4C565F53 		.ascii	"LV_STYLE_ARC_WIDTH\000"
 13234      54594C45 
 13234      5F415243 
 13234      5F574944 
 13234      544800
 13235              	.LASF456:
 13236 259a 4C565F45 		.ascii	"LV_EVENT_KEY\000"
 13236      56454E54 
 13236      5F4B4559 
 13236      00
 13237              	.LASF143:
 13238 25a7 4C565F53 		.ascii	"LV_STYLE_OUTLINE_OPA\000"
 13238      54594C45 
 13238      5F4F5554 
 13238      4C494E45 
 13238      5F4F5041 
 13239              	.LASF561:
 13240 25bc 4C565F53 		.ascii	"LV_STYLE_FLEX_TRACK_PLACE\000"
 13240      54594C45 
 13240      5F464C45 
 13240      585F5452 
 13240      41434B5F 
 13241              	.LASF214:
 13242 25d6 736B6970 		.ascii	"skip_trans\000"
 13242      5F747261 
 13242      6E7300
 13243              	.LASF5:
 13244 25e1 73686F72 		.ascii	"short int\000"
 13244      7420696E 
 13244      7400
ARM GAS  C:\Users\haske\AppData\Local\Temp\ccSAQWsX.s 			page 296


 13245              	.LASF198:
 13246 25eb 636F6E73 		.ascii	"const_props\000"
 13246      745F7072 
 13246      6F707300 
 13247              	.LASF361:
 13248 25f7 7379735F 		.ascii	"sys_layer\000"
 13248      6C617965 
 13248      7200
 13249              	.LASF249:
 13250 2601 73656C5F 		.ascii	"sel_bg_color\000"
 13250      62675F63 
 13250      6F6C6F72 
 13250      00
 13251              	.LASF438:
 13252 260e 70726576 		.ascii	"prev\000"
 13252      00
 13253              	.LASF108:
 13254 2613 4C565F53 		.ascii	"LV_STYLE_MIN_HEIGHT\000"
 13254      54594C45 
 13254      5F4D494E 
 13254      5F484549 
 13254      47485400 
 13255              	.LASF145:
 13256 2627 4C565F53 		.ascii	"LV_STYLE_SHADOW_WIDTH\000"
 13256      54594C45 
 13256      5F534841 
 13256      444F575F 
 13256      57494454 
 13257              	.LASF207:
 13258 263d 73706563 		.ascii	"spec_attr\000"
 13258      5F617474 
 13258      7200
 13259              	.LASF221:
 13260 2647 62675F63 		.ascii	"bg_color\000"
 13260      6F6C6F72 
 13260      00
 13261              	.LASF537:
 13262 2650 7468656D 		.ascii	"theme_apply\000"
 13262      655F6170 
 13262      706C7900 
 13263              	.LASF210:
 13264 265c 666C6167 		.ascii	"flags\000"
 13264      7300
 13265              	.LASF218:
 13266 2662 72616469 		.ascii	"radius\000"
 13266      757300
 13267              	.LASF268:
 13268 2669 726F756E 		.ascii	"round_start\000"
 13268      645F7374 
 13268      61727400 
 13269              		.ident	"GCC: (GNU Tools for ARM Embedded Processors) 5.4.1 20160609 (release) [ARM/embedded-5-bran
