ARM GAS  C:\Users\haske\AppData\Local\Temp\ccswauRt.s 			page 1


   1              		.syntax unified
   2              		.cpu cortex-m0plus
   3              		.fpu softvfp
   4              		.eabi_attribute 20, 1
   5              		.eabi_attribute 21, 1
   6              		.eabi_attribute 23, 3
   7              		.eabi_attribute 24, 1
   8              		.eabi_attribute 25, 1
   9              		.eabi_attribute 26, 1
  10              		.eabi_attribute 30, 1
  11              		.eabi_attribute 34, 0
  12              		.eabi_attribute 18, 4
  13              		.thumb
  14              		.syntax unified
  15              		.file	"lv_tlsf.c"
  16              		.text
  17              	.Ltext0:
  18              		.cfi_sections	.debug_frame
  19              		.section	.text.block_size,"ax",%progbits
  20              		.align	2
  21              		.code	16
  22              		.thumb_func
  23              		.type	block_size, %function
  24              	block_size:
  25              	.LFB3:
  26              		.file 1 "..\\..\\..\\arduinoLCD\\test\\Pain Drain\\libraries\\lvgl\\src\\misc\\lv_tlsf.c"
   1:..\..\..\arduinoLCD\test\Pain Drain\libraries\lvgl\src\misc/lv_tlsf.c **** #include "../lv_conf_internal.h"
   2:..\..\..\arduinoLCD\test\Pain Drain\libraries\lvgl\src\misc/lv_tlsf.c **** #if LV_MEM_CUSTOM == 0
   3:..\..\..\arduinoLCD\test\Pain Drain\libraries\lvgl\src\misc/lv_tlsf.c **** 
   4:..\..\..\arduinoLCD\test\Pain Drain\libraries\lvgl\src\misc/lv_tlsf.c **** #include <limits.h>
   5:..\..\..\arduinoLCD\test\Pain Drain\libraries\lvgl\src\misc/lv_tlsf.c **** #include "lv_tlsf.h"
   6:..\..\..\arduinoLCD\test\Pain Drain\libraries\lvgl\src\misc/lv_tlsf.c **** #include "lv_mem.h"
   7:..\..\..\arduinoLCD\test\Pain Drain\libraries\lvgl\src\misc/lv_tlsf.c **** #include "lv_log.h"
   8:..\..\..\arduinoLCD\test\Pain Drain\libraries\lvgl\src\misc/lv_tlsf.c **** #include "lv_assert.h"
   9:..\..\..\arduinoLCD\test\Pain Drain\libraries\lvgl\src\misc/lv_tlsf.c **** 
  10:..\..\..\arduinoLCD\test\Pain Drain\libraries\lvgl\src\misc/lv_tlsf.c **** #undef  printf
  11:..\..\..\arduinoLCD\test\Pain Drain\libraries\lvgl\src\misc/lv_tlsf.c **** #define printf LV_LOG_ERROR
  12:..\..\..\arduinoLCD\test\Pain Drain\libraries\lvgl\src\misc/lv_tlsf.c **** 
  13:..\..\..\arduinoLCD\test\Pain Drain\libraries\lvgl\src\misc/lv_tlsf.c **** #define TLSF_MAX_POOL_SIZE LV_MEM_SIZE
  14:..\..\..\arduinoLCD\test\Pain Drain\libraries\lvgl\src\misc/lv_tlsf.c **** 
  15:..\..\..\arduinoLCD\test\Pain Drain\libraries\lvgl\src\misc/lv_tlsf.c **** #if !defined(_DEBUG)
  16:..\..\..\arduinoLCD\test\Pain Drain\libraries\lvgl\src\misc/lv_tlsf.c ****     #define _DEBUG 0
  17:..\..\..\arduinoLCD\test\Pain Drain\libraries\lvgl\src\misc/lv_tlsf.c **** #endif
  18:..\..\..\arduinoLCD\test\Pain Drain\libraries\lvgl\src\misc/lv_tlsf.c **** 
  19:..\..\..\arduinoLCD\test\Pain Drain\libraries\lvgl\src\misc/lv_tlsf.c **** #if defined(__cplusplus)
  20:..\..\..\arduinoLCD\test\Pain Drain\libraries\lvgl\src\misc/lv_tlsf.c ****     #define tlsf_decl inline
  21:..\..\..\arduinoLCD\test\Pain Drain\libraries\lvgl\src\misc/lv_tlsf.c **** #else
  22:..\..\..\arduinoLCD\test\Pain Drain\libraries\lvgl\src\misc/lv_tlsf.c ****     #define tlsf_decl static
  23:..\..\..\arduinoLCD\test\Pain Drain\libraries\lvgl\src\misc/lv_tlsf.c **** #endif
  24:..\..\..\arduinoLCD\test\Pain Drain\libraries\lvgl\src\misc/lv_tlsf.c **** 
  25:..\..\..\arduinoLCD\test\Pain Drain\libraries\lvgl\src\misc/lv_tlsf.c **** /*
  26:..\..\..\arduinoLCD\test\Pain Drain\libraries\lvgl\src\misc/lv_tlsf.c **** ** Architecture-specific bit manipulation routines.
  27:..\..\..\arduinoLCD\test\Pain Drain\libraries\lvgl\src\misc/lv_tlsf.c **** **
  28:..\..\..\arduinoLCD\test\Pain Drain\libraries\lvgl\src\misc/lv_tlsf.c **** ** TLSF achieves O(1) cost for malloc and free operations by limiting
  29:..\..\..\arduinoLCD\test\Pain Drain\libraries\lvgl\src\misc/lv_tlsf.c **** ** the search for a free block to a free list of guaranteed size
  30:..\..\..\arduinoLCD\test\Pain Drain\libraries\lvgl\src\misc/lv_tlsf.c **** ** adequate to fulfill the request, combined with efficient free list
  31:..\..\..\arduinoLCD\test\Pain Drain\libraries\lvgl\src\misc/lv_tlsf.c **** ** queries using bitmasks and architecture-specific bit-manipulation
ARM GAS  C:\Users\haske\AppData\Local\Temp\ccswauRt.s 			page 2


  32:..\..\..\arduinoLCD\test\Pain Drain\libraries\lvgl\src\misc/lv_tlsf.c **** ** routines.
  33:..\..\..\arduinoLCD\test\Pain Drain\libraries\lvgl\src\misc/lv_tlsf.c **** **
  34:..\..\..\arduinoLCD\test\Pain Drain\libraries\lvgl\src\misc/lv_tlsf.c **** ** Most modern processors provide instructions to count leading zeroes
  35:..\..\..\arduinoLCD\test\Pain Drain\libraries\lvgl\src\misc/lv_tlsf.c **** ** in a word, find the lowest and highest set bit, etc. These
  36:..\..\..\arduinoLCD\test\Pain Drain\libraries\lvgl\src\misc/lv_tlsf.c **** ** specific implementations will be used when available, falling back
  37:..\..\..\arduinoLCD\test\Pain Drain\libraries\lvgl\src\misc/lv_tlsf.c **** ** to a reasonably efficient generic implementation.
  38:..\..\..\arduinoLCD\test\Pain Drain\libraries\lvgl\src\misc/lv_tlsf.c **** **
  39:..\..\..\arduinoLCD\test\Pain Drain\libraries\lvgl\src\misc/lv_tlsf.c **** ** NOTE: TLSF spec relies on ffs/fls returning value 0..31.
  40:..\..\..\arduinoLCD\test\Pain Drain\libraries\lvgl\src\misc/lv_tlsf.c **** ** ffs/fls return 1-32 by default, returning 0 for error.
  41:..\..\..\arduinoLCD\test\Pain Drain\libraries\lvgl\src\misc/lv_tlsf.c **** */
  42:..\..\..\arduinoLCD\test\Pain Drain\libraries\lvgl\src\misc/lv_tlsf.c **** 
  43:..\..\..\arduinoLCD\test\Pain Drain\libraries\lvgl\src\misc/lv_tlsf.c **** /*
  44:..\..\..\arduinoLCD\test\Pain Drain\libraries\lvgl\src\misc/lv_tlsf.c **** ** Detect whether or not we are building for a 32- or 64-bit (LP/LLP)
  45:..\..\..\arduinoLCD\test\Pain Drain\libraries\lvgl\src\misc/lv_tlsf.c **** ** architecture. There is no reliable portable method at compile-time.
  46:..\..\..\arduinoLCD\test\Pain Drain\libraries\lvgl\src\misc/lv_tlsf.c **** */
  47:..\..\..\arduinoLCD\test\Pain Drain\libraries\lvgl\src\misc/lv_tlsf.c **** #if defined (__alpha__) || defined (__ia64__) || defined (__x86_64__) \
  48:..\..\..\arduinoLCD\test\Pain Drain\libraries\lvgl\src\misc/lv_tlsf.c ****     || defined (_WIN64) || defined (__LP64__) || defined (__LLP64__)
  49:..\..\..\arduinoLCD\test\Pain Drain\libraries\lvgl\src\misc/lv_tlsf.c ****     #define TLSF_64BIT
  50:..\..\..\arduinoLCD\test\Pain Drain\libraries\lvgl\src\misc/lv_tlsf.c **** #endif
  51:..\..\..\arduinoLCD\test\Pain Drain\libraries\lvgl\src\misc/lv_tlsf.c **** 
  52:..\..\..\arduinoLCD\test\Pain Drain\libraries\lvgl\src\misc/lv_tlsf.c **** /*
  53:..\..\..\arduinoLCD\test\Pain Drain\libraries\lvgl\src\misc/lv_tlsf.c **** ** Returns one plus the index of the most significant 1-bit of n,
  54:..\..\..\arduinoLCD\test\Pain Drain\libraries\lvgl\src\misc/lv_tlsf.c **** ** or if n is zero, returns zero.
  55:..\..\..\arduinoLCD\test\Pain Drain\libraries\lvgl\src\misc/lv_tlsf.c **** */
  56:..\..\..\arduinoLCD\test\Pain Drain\libraries\lvgl\src\misc/lv_tlsf.c **** #ifdef TLSF_64BIT
  57:..\..\..\arduinoLCD\test\Pain Drain\libraries\lvgl\src\misc/lv_tlsf.c ****     #define TLSF_FLS(n) ((n) & 0xffffffff00000000ull ? 32 + TLSF_FLS32((size_t)(n) >> 32) : TLSF_FL
  58:..\..\..\arduinoLCD\test\Pain Drain\libraries\lvgl\src\misc/lv_tlsf.c **** #else
  59:..\..\..\arduinoLCD\test\Pain Drain\libraries\lvgl\src\misc/lv_tlsf.c ****     #define TLSF_FLS(n) TLSF_FLS32(n)
  60:..\..\..\arduinoLCD\test\Pain Drain\libraries\lvgl\src\misc/lv_tlsf.c **** #endif
  61:..\..\..\arduinoLCD\test\Pain Drain\libraries\lvgl\src\misc/lv_tlsf.c **** 
  62:..\..\..\arduinoLCD\test\Pain Drain\libraries\lvgl\src\misc/lv_tlsf.c **** #define TLSF_FLS32(n) ((n) & 0xffff0000 ? 16 + TLSF_FLS16((n) >> 16) : TLSF_FLS16(n))
  63:..\..\..\arduinoLCD\test\Pain Drain\libraries\lvgl\src\misc/lv_tlsf.c **** #define TLSF_FLS16(n) ((n) & 0xff00     ?  8 + TLSF_FLS8 ((n) >>  8) : TLSF_FLS8 (n))
  64:..\..\..\arduinoLCD\test\Pain Drain\libraries\lvgl\src\misc/lv_tlsf.c **** #define TLSF_FLS8(n)  ((n) & 0xf0       ?  4 + TLSF_FLS4 ((n) >>  4) : TLSF_FLS4 (n))
  65:..\..\..\arduinoLCD\test\Pain Drain\libraries\lvgl\src\misc/lv_tlsf.c **** #define TLSF_FLS4(n)  ((n) & 0xc        ?  2 + TLSF_FLS2 ((n) >>  2) : TLSF_FLS2 (n))
  66:..\..\..\arduinoLCD\test\Pain Drain\libraries\lvgl\src\misc/lv_tlsf.c **** #define TLSF_FLS2(n)  ((n) & 0x2        ?  1 + TLSF_FLS1 ((n) >>  1) : TLSF_FLS1 (n))
  67:..\..\..\arduinoLCD\test\Pain Drain\libraries\lvgl\src\misc/lv_tlsf.c **** #define TLSF_FLS1(n)  ((n) & 0x1        ?  1 : 0)
  68:..\..\..\arduinoLCD\test\Pain Drain\libraries\lvgl\src\misc/lv_tlsf.c **** 
  69:..\..\..\arduinoLCD\test\Pain Drain\libraries\lvgl\src\misc/lv_tlsf.c **** /*
  70:..\..\..\arduinoLCD\test\Pain Drain\libraries\lvgl\src\misc/lv_tlsf.c **** ** Returns round up value of log2(n).
  71:..\..\..\arduinoLCD\test\Pain Drain\libraries\lvgl\src\misc/lv_tlsf.c **** ** Note: it is used at compile time.
  72:..\..\..\arduinoLCD\test\Pain Drain\libraries\lvgl\src\misc/lv_tlsf.c **** */
  73:..\..\..\arduinoLCD\test\Pain Drain\libraries\lvgl\src\misc/lv_tlsf.c **** #define TLSF_LOG2_CEIL(n) ((n) & (n - 1) ? TLSF_FLS(n) : TLSF_FLS(n) - 1)
  74:..\..\..\arduinoLCD\test\Pain Drain\libraries\lvgl\src\misc/lv_tlsf.c **** 
  75:..\..\..\arduinoLCD\test\Pain Drain\libraries\lvgl\src\misc/lv_tlsf.c **** /*
  76:..\..\..\arduinoLCD\test\Pain Drain\libraries\lvgl\src\misc/lv_tlsf.c **** ** gcc 3.4 and above have builtin support, specialized for architecture.
  77:..\..\..\arduinoLCD\test\Pain Drain\libraries\lvgl\src\misc/lv_tlsf.c **** ** Some compilers masquerade as gcc; patchlevel test filters them out.
  78:..\..\..\arduinoLCD\test\Pain Drain\libraries\lvgl\src\misc/lv_tlsf.c **** */
  79:..\..\..\arduinoLCD\test\Pain Drain\libraries\lvgl\src\misc/lv_tlsf.c **** #if defined (__GNUC__) && (__GNUC__ > 3 || (__GNUC__ == 3 && __GNUC_MINOR__ >= 4)) \
  80:..\..\..\arduinoLCD\test\Pain Drain\libraries\lvgl\src\misc/lv_tlsf.c ****     && defined (__GNUC_PATCHLEVEL__)
  81:..\..\..\arduinoLCD\test\Pain Drain\libraries\lvgl\src\misc/lv_tlsf.c **** 
  82:..\..\..\arduinoLCD\test\Pain Drain\libraries\lvgl\src\misc/lv_tlsf.c **** #if defined (__SNC__)
  83:..\..\..\arduinoLCD\test\Pain Drain\libraries\lvgl\src\misc/lv_tlsf.c **** /* SNC for Playstation 3. */
  84:..\..\..\arduinoLCD\test\Pain Drain\libraries\lvgl\src\misc/lv_tlsf.c **** 
  85:..\..\..\arduinoLCD\test\Pain Drain\libraries\lvgl\src\misc/lv_tlsf.c **** tlsf_decl int tlsf_ffs(unsigned int word)
  86:..\..\..\arduinoLCD\test\Pain Drain\libraries\lvgl\src\misc/lv_tlsf.c **** {
  87:..\..\..\arduinoLCD\test\Pain Drain\libraries\lvgl\src\misc/lv_tlsf.c ****     const unsigned int reverse = word & (~word + 1);
  88:..\..\..\arduinoLCD\test\Pain Drain\libraries\lvgl\src\misc/lv_tlsf.c ****     const int bit = 32 - __builtin_clz(reverse);
ARM GAS  C:\Users\haske\AppData\Local\Temp\ccswauRt.s 			page 3


  89:..\..\..\arduinoLCD\test\Pain Drain\libraries\lvgl\src\misc/lv_tlsf.c ****     return bit - 1;
  90:..\..\..\arduinoLCD\test\Pain Drain\libraries\lvgl\src\misc/lv_tlsf.c **** }
  91:..\..\..\arduinoLCD\test\Pain Drain\libraries\lvgl\src\misc/lv_tlsf.c **** 
  92:..\..\..\arduinoLCD\test\Pain Drain\libraries\lvgl\src\misc/lv_tlsf.c **** #else
  93:..\..\..\arduinoLCD\test\Pain Drain\libraries\lvgl\src\misc/lv_tlsf.c **** 
  94:..\..\..\arduinoLCD\test\Pain Drain\libraries\lvgl\src\misc/lv_tlsf.c **** tlsf_decl int tlsf_ffs(unsigned int word)
  95:..\..\..\arduinoLCD\test\Pain Drain\libraries\lvgl\src\misc/lv_tlsf.c **** {
  96:..\..\..\arduinoLCD\test\Pain Drain\libraries\lvgl\src\misc/lv_tlsf.c ****     return __builtin_ffs(word) - 1;
  97:..\..\..\arduinoLCD\test\Pain Drain\libraries\lvgl\src\misc/lv_tlsf.c **** }
  98:..\..\..\arduinoLCD\test\Pain Drain\libraries\lvgl\src\misc/lv_tlsf.c **** 
  99:..\..\..\arduinoLCD\test\Pain Drain\libraries\lvgl\src\misc/lv_tlsf.c **** #endif
 100:..\..\..\arduinoLCD\test\Pain Drain\libraries\lvgl\src\misc/lv_tlsf.c **** 
 101:..\..\..\arduinoLCD\test\Pain Drain\libraries\lvgl\src\misc/lv_tlsf.c **** tlsf_decl int tlsf_fls(unsigned int word)
 102:..\..\..\arduinoLCD\test\Pain Drain\libraries\lvgl\src\misc/lv_tlsf.c **** {
 103:..\..\..\arduinoLCD\test\Pain Drain\libraries\lvgl\src\misc/lv_tlsf.c ****     const int bit = word ? 32 - __builtin_clz(word) : 0;
 104:..\..\..\arduinoLCD\test\Pain Drain\libraries\lvgl\src\misc/lv_tlsf.c ****     return bit - 1;
 105:..\..\..\arduinoLCD\test\Pain Drain\libraries\lvgl\src\misc/lv_tlsf.c **** }
 106:..\..\..\arduinoLCD\test\Pain Drain\libraries\lvgl\src\misc/lv_tlsf.c **** 
 107:..\..\..\arduinoLCD\test\Pain Drain\libraries\lvgl\src\misc/lv_tlsf.c **** #elif defined (_MSC_VER) && (_MSC_VER >= 1400) && (defined (_M_IX86) || defined (_M_X64))
 108:..\..\..\arduinoLCD\test\Pain Drain\libraries\lvgl\src\misc/lv_tlsf.c **** /* Microsoft Visual C++ support on x86/X64 architectures. */
 109:..\..\..\arduinoLCD\test\Pain Drain\libraries\lvgl\src\misc/lv_tlsf.c **** 
 110:..\..\..\arduinoLCD\test\Pain Drain\libraries\lvgl\src\misc/lv_tlsf.c **** #include <intrin.h>
 111:..\..\..\arduinoLCD\test\Pain Drain\libraries\lvgl\src\misc/lv_tlsf.c **** 
 112:..\..\..\arduinoLCD\test\Pain Drain\libraries\lvgl\src\misc/lv_tlsf.c **** #pragma intrinsic(_BitScanReverse)
 113:..\..\..\arduinoLCD\test\Pain Drain\libraries\lvgl\src\misc/lv_tlsf.c **** #pragma intrinsic(_BitScanForward)
 114:..\..\..\arduinoLCD\test\Pain Drain\libraries\lvgl\src\misc/lv_tlsf.c **** 
 115:..\..\..\arduinoLCD\test\Pain Drain\libraries\lvgl\src\misc/lv_tlsf.c **** tlsf_decl int tlsf_fls(unsigned int word)
 116:..\..\..\arduinoLCD\test\Pain Drain\libraries\lvgl\src\misc/lv_tlsf.c **** {
 117:..\..\..\arduinoLCD\test\Pain Drain\libraries\lvgl\src\misc/lv_tlsf.c ****     unsigned long index;
 118:..\..\..\arduinoLCD\test\Pain Drain\libraries\lvgl\src\misc/lv_tlsf.c ****     return _BitScanReverse(&index, word) ? index : -1;
 119:..\..\..\arduinoLCD\test\Pain Drain\libraries\lvgl\src\misc/lv_tlsf.c **** }
 120:..\..\..\arduinoLCD\test\Pain Drain\libraries\lvgl\src\misc/lv_tlsf.c **** 
 121:..\..\..\arduinoLCD\test\Pain Drain\libraries\lvgl\src\misc/lv_tlsf.c **** tlsf_decl int tlsf_ffs(unsigned int word)
 122:..\..\..\arduinoLCD\test\Pain Drain\libraries\lvgl\src\misc/lv_tlsf.c **** {
 123:..\..\..\arduinoLCD\test\Pain Drain\libraries\lvgl\src\misc/lv_tlsf.c ****     unsigned long index;
 124:..\..\..\arduinoLCD\test\Pain Drain\libraries\lvgl\src\misc/lv_tlsf.c ****     return _BitScanForward(&index, word) ? index : -1;
 125:..\..\..\arduinoLCD\test\Pain Drain\libraries\lvgl\src\misc/lv_tlsf.c **** }
 126:..\..\..\arduinoLCD\test\Pain Drain\libraries\lvgl\src\misc/lv_tlsf.c **** 
 127:..\..\..\arduinoLCD\test\Pain Drain\libraries\lvgl\src\misc/lv_tlsf.c **** #elif defined (_MSC_VER) && defined (_M_PPC)
 128:..\..\..\arduinoLCD\test\Pain Drain\libraries\lvgl\src\misc/lv_tlsf.c **** /* Microsoft Visual C++ support on PowerPC architectures. */
 129:..\..\..\arduinoLCD\test\Pain Drain\libraries\lvgl\src\misc/lv_tlsf.c **** 
 130:..\..\..\arduinoLCD\test\Pain Drain\libraries\lvgl\src\misc/lv_tlsf.c **** #include <ppcintrinsics.h>
 131:..\..\..\arduinoLCD\test\Pain Drain\libraries\lvgl\src\misc/lv_tlsf.c **** 
 132:..\..\..\arduinoLCD\test\Pain Drain\libraries\lvgl\src\misc/lv_tlsf.c **** tlsf_decl int tlsf_fls(unsigned int word)
 133:..\..\..\arduinoLCD\test\Pain Drain\libraries\lvgl\src\misc/lv_tlsf.c **** {
 134:..\..\..\arduinoLCD\test\Pain Drain\libraries\lvgl\src\misc/lv_tlsf.c ****     const int bit = 32 - _CountLeadingZeros(word);
 135:..\..\..\arduinoLCD\test\Pain Drain\libraries\lvgl\src\misc/lv_tlsf.c ****     return bit - 1;
 136:..\..\..\arduinoLCD\test\Pain Drain\libraries\lvgl\src\misc/lv_tlsf.c **** }
 137:..\..\..\arduinoLCD\test\Pain Drain\libraries\lvgl\src\misc/lv_tlsf.c **** 
 138:..\..\..\arduinoLCD\test\Pain Drain\libraries\lvgl\src\misc/lv_tlsf.c **** tlsf_decl int tlsf_ffs(unsigned int word)
 139:..\..\..\arduinoLCD\test\Pain Drain\libraries\lvgl\src\misc/lv_tlsf.c **** {
 140:..\..\..\arduinoLCD\test\Pain Drain\libraries\lvgl\src\misc/lv_tlsf.c ****     const unsigned int reverse = word & (~word + 1);
 141:..\..\..\arduinoLCD\test\Pain Drain\libraries\lvgl\src\misc/lv_tlsf.c ****     const int bit = 32 - _CountLeadingZeros(reverse);
 142:..\..\..\arduinoLCD\test\Pain Drain\libraries\lvgl\src\misc/lv_tlsf.c ****     return bit - 1;
 143:..\..\..\arduinoLCD\test\Pain Drain\libraries\lvgl\src\misc/lv_tlsf.c **** }
 144:..\..\..\arduinoLCD\test\Pain Drain\libraries\lvgl\src\misc/lv_tlsf.c **** 
 145:..\..\..\arduinoLCD\test\Pain Drain\libraries\lvgl\src\misc/lv_tlsf.c **** #elif defined (__ARMCC_VERSION)
ARM GAS  C:\Users\haske\AppData\Local\Temp\ccswauRt.s 			page 4


 146:..\..\..\arduinoLCD\test\Pain Drain\libraries\lvgl\src\misc/lv_tlsf.c **** /* RealView Compilation Tools for ARM */
 147:..\..\..\arduinoLCD\test\Pain Drain\libraries\lvgl\src\misc/lv_tlsf.c **** 
 148:..\..\..\arduinoLCD\test\Pain Drain\libraries\lvgl\src\misc/lv_tlsf.c **** tlsf_decl int tlsf_ffs(unsigned int word)
 149:..\..\..\arduinoLCD\test\Pain Drain\libraries\lvgl\src\misc/lv_tlsf.c **** {
 150:..\..\..\arduinoLCD\test\Pain Drain\libraries\lvgl\src\misc/lv_tlsf.c ****     const unsigned int reverse = word & (~word + 1);
 151:..\..\..\arduinoLCD\test\Pain Drain\libraries\lvgl\src\misc/lv_tlsf.c ****     const int bit = 32 - __clz(reverse);
 152:..\..\..\arduinoLCD\test\Pain Drain\libraries\lvgl\src\misc/lv_tlsf.c ****     return bit - 1;
 153:..\..\..\arduinoLCD\test\Pain Drain\libraries\lvgl\src\misc/lv_tlsf.c **** }
 154:..\..\..\arduinoLCD\test\Pain Drain\libraries\lvgl\src\misc/lv_tlsf.c **** 
 155:..\..\..\arduinoLCD\test\Pain Drain\libraries\lvgl\src\misc/lv_tlsf.c **** tlsf_decl int tlsf_fls(unsigned int word)
 156:..\..\..\arduinoLCD\test\Pain Drain\libraries\lvgl\src\misc/lv_tlsf.c **** {
 157:..\..\..\arduinoLCD\test\Pain Drain\libraries\lvgl\src\misc/lv_tlsf.c ****     const int bit = word ? 32 - __clz(word) : 0;
 158:..\..\..\arduinoLCD\test\Pain Drain\libraries\lvgl\src\misc/lv_tlsf.c ****     return bit - 1;
 159:..\..\..\arduinoLCD\test\Pain Drain\libraries\lvgl\src\misc/lv_tlsf.c **** }
 160:..\..\..\arduinoLCD\test\Pain Drain\libraries\lvgl\src\misc/lv_tlsf.c **** 
 161:..\..\..\arduinoLCD\test\Pain Drain\libraries\lvgl\src\misc/lv_tlsf.c **** #elif defined (__ghs__)
 162:..\..\..\arduinoLCD\test\Pain Drain\libraries\lvgl\src\misc/lv_tlsf.c **** /* Green Hills support for PowerPC */
 163:..\..\..\arduinoLCD\test\Pain Drain\libraries\lvgl\src\misc/lv_tlsf.c **** 
 164:..\..\..\arduinoLCD\test\Pain Drain\libraries\lvgl\src\misc/lv_tlsf.c **** #include <ppc_ghs.h>
 165:..\..\..\arduinoLCD\test\Pain Drain\libraries\lvgl\src\misc/lv_tlsf.c **** 
 166:..\..\..\arduinoLCD\test\Pain Drain\libraries\lvgl\src\misc/lv_tlsf.c **** tlsf_decl int tlsf_ffs(unsigned int word)
 167:..\..\..\arduinoLCD\test\Pain Drain\libraries\lvgl\src\misc/lv_tlsf.c **** {
 168:..\..\..\arduinoLCD\test\Pain Drain\libraries\lvgl\src\misc/lv_tlsf.c ****     const unsigned int reverse = word & (~word + 1);
 169:..\..\..\arduinoLCD\test\Pain Drain\libraries\lvgl\src\misc/lv_tlsf.c ****     const int bit = 32 - __CLZ32(reverse);
 170:..\..\..\arduinoLCD\test\Pain Drain\libraries\lvgl\src\misc/lv_tlsf.c ****     return bit - 1;
 171:..\..\..\arduinoLCD\test\Pain Drain\libraries\lvgl\src\misc/lv_tlsf.c **** }
 172:..\..\..\arduinoLCD\test\Pain Drain\libraries\lvgl\src\misc/lv_tlsf.c **** 
 173:..\..\..\arduinoLCD\test\Pain Drain\libraries\lvgl\src\misc/lv_tlsf.c **** tlsf_decl int tlsf_fls(unsigned int word)
 174:..\..\..\arduinoLCD\test\Pain Drain\libraries\lvgl\src\misc/lv_tlsf.c **** {
 175:..\..\..\arduinoLCD\test\Pain Drain\libraries\lvgl\src\misc/lv_tlsf.c ****     const int bit = word ? 32 - __CLZ32(word) : 0;
 176:..\..\..\arduinoLCD\test\Pain Drain\libraries\lvgl\src\misc/lv_tlsf.c ****     return bit - 1;
 177:..\..\..\arduinoLCD\test\Pain Drain\libraries\lvgl\src\misc/lv_tlsf.c **** }
 178:..\..\..\arduinoLCD\test\Pain Drain\libraries\lvgl\src\misc/lv_tlsf.c **** 
 179:..\..\..\arduinoLCD\test\Pain Drain\libraries\lvgl\src\misc/lv_tlsf.c **** #else
 180:..\..\..\arduinoLCD\test\Pain Drain\libraries\lvgl\src\misc/lv_tlsf.c **** /* Fall back to generic implementation. */
 181:..\..\..\arduinoLCD\test\Pain Drain\libraries\lvgl\src\misc/lv_tlsf.c **** 
 182:..\..\..\arduinoLCD\test\Pain Drain\libraries\lvgl\src\misc/lv_tlsf.c **** /* Implement ffs in terms of fls. */
 183:..\..\..\arduinoLCD\test\Pain Drain\libraries\lvgl\src\misc/lv_tlsf.c **** tlsf_decl int tlsf_ffs(unsigned int word)
 184:..\..\..\arduinoLCD\test\Pain Drain\libraries\lvgl\src\misc/lv_tlsf.c **** {
 185:..\..\..\arduinoLCD\test\Pain Drain\libraries\lvgl\src\misc/lv_tlsf.c ****     const unsigned int reverse = word & (~word + 1);
 186:..\..\..\arduinoLCD\test\Pain Drain\libraries\lvgl\src\misc/lv_tlsf.c ****     return TLSF_FLS32(reverse) - 1;
 187:..\..\..\arduinoLCD\test\Pain Drain\libraries\lvgl\src\misc/lv_tlsf.c **** }
 188:..\..\..\arduinoLCD\test\Pain Drain\libraries\lvgl\src\misc/lv_tlsf.c **** 
 189:..\..\..\arduinoLCD\test\Pain Drain\libraries\lvgl\src\misc/lv_tlsf.c **** tlsf_decl int tlsf_fls(unsigned int word)
 190:..\..\..\arduinoLCD\test\Pain Drain\libraries\lvgl\src\misc/lv_tlsf.c **** {
 191:..\..\..\arduinoLCD\test\Pain Drain\libraries\lvgl\src\misc/lv_tlsf.c ****     return TLSF_FLS32(word) - 1;
 192:..\..\..\arduinoLCD\test\Pain Drain\libraries\lvgl\src\misc/lv_tlsf.c **** }
 193:..\..\..\arduinoLCD\test\Pain Drain\libraries\lvgl\src\misc/lv_tlsf.c **** 
 194:..\..\..\arduinoLCD\test\Pain Drain\libraries\lvgl\src\misc/lv_tlsf.c **** #endif
 195:..\..\..\arduinoLCD\test\Pain Drain\libraries\lvgl\src\misc/lv_tlsf.c **** 
 196:..\..\..\arduinoLCD\test\Pain Drain\libraries\lvgl\src\misc/lv_tlsf.c **** /* Possibly 64-bit version of tlsf_fls. */
 197:..\..\..\arduinoLCD\test\Pain Drain\libraries\lvgl\src\misc/lv_tlsf.c **** #if defined (TLSF_64BIT)
 198:..\..\..\arduinoLCD\test\Pain Drain\libraries\lvgl\src\misc/lv_tlsf.c **** tlsf_decl int tlsf_fls_sizet(size_t size)
 199:..\..\..\arduinoLCD\test\Pain Drain\libraries\lvgl\src\misc/lv_tlsf.c **** {
 200:..\..\..\arduinoLCD\test\Pain Drain\libraries\lvgl\src\misc/lv_tlsf.c ****     int high = (int)(size >> 32);
 201:..\..\..\arduinoLCD\test\Pain Drain\libraries\lvgl\src\misc/lv_tlsf.c ****     int bits = 0;
 202:..\..\..\arduinoLCD\test\Pain Drain\libraries\lvgl\src\misc/lv_tlsf.c ****     if(high) {
ARM GAS  C:\Users\haske\AppData\Local\Temp\ccswauRt.s 			page 5


 203:..\..\..\arduinoLCD\test\Pain Drain\libraries\lvgl\src\misc/lv_tlsf.c ****         bits = 32 + tlsf_fls(high);
 204:..\..\..\arduinoLCD\test\Pain Drain\libraries\lvgl\src\misc/lv_tlsf.c ****     }
 205:..\..\..\arduinoLCD\test\Pain Drain\libraries\lvgl\src\misc/lv_tlsf.c ****     else {
 206:..\..\..\arduinoLCD\test\Pain Drain\libraries\lvgl\src\misc/lv_tlsf.c ****         bits = tlsf_fls((int)size & 0xffffffff);
 207:..\..\..\arduinoLCD\test\Pain Drain\libraries\lvgl\src\misc/lv_tlsf.c **** 
 208:..\..\..\arduinoLCD\test\Pain Drain\libraries\lvgl\src\misc/lv_tlsf.c ****     }
 209:..\..\..\arduinoLCD\test\Pain Drain\libraries\lvgl\src\misc/lv_tlsf.c ****     return bits;
 210:..\..\..\arduinoLCD\test\Pain Drain\libraries\lvgl\src\misc/lv_tlsf.c **** }
 211:..\..\..\arduinoLCD\test\Pain Drain\libraries\lvgl\src\misc/lv_tlsf.c **** #else
 212:..\..\..\arduinoLCD\test\Pain Drain\libraries\lvgl\src\misc/lv_tlsf.c **** #define tlsf_fls_sizet tlsf_fls
 213:..\..\..\arduinoLCD\test\Pain Drain\libraries\lvgl\src\misc/lv_tlsf.c **** #endif
 214:..\..\..\arduinoLCD\test\Pain Drain\libraries\lvgl\src\misc/lv_tlsf.c **** 
 215:..\..\..\arduinoLCD\test\Pain Drain\libraries\lvgl\src\misc/lv_tlsf.c **** #undef tlsf_decl
 216:..\..\..\arduinoLCD\test\Pain Drain\libraries\lvgl\src\misc/lv_tlsf.c **** 
 217:..\..\..\arduinoLCD\test\Pain Drain\libraries\lvgl\src\misc/lv_tlsf.c **** /*
 218:..\..\..\arduinoLCD\test\Pain Drain\libraries\lvgl\src\misc/lv_tlsf.c **** ** Constants.
 219:..\..\..\arduinoLCD\test\Pain Drain\libraries\lvgl\src\misc/lv_tlsf.c **** */
 220:..\..\..\arduinoLCD\test\Pain Drain\libraries\lvgl\src\misc/lv_tlsf.c **** 
 221:..\..\..\arduinoLCD\test\Pain Drain\libraries\lvgl\src\misc/lv_tlsf.c **** /* Public constants: may be modified. */
 222:..\..\..\arduinoLCD\test\Pain Drain\libraries\lvgl\src\misc/lv_tlsf.c **** enum tlsf_public {
 223:..\..\..\arduinoLCD\test\Pain Drain\libraries\lvgl\src\misc/lv_tlsf.c ****     /* log2 of number of linear subdivisions of block sizes. Larger
 224:..\..\..\arduinoLCD\test\Pain Drain\libraries\lvgl\src\misc/lv_tlsf.c ****     ** values require more memory in the control structure. Values of
 225:..\..\..\arduinoLCD\test\Pain Drain\libraries\lvgl\src\misc/lv_tlsf.c ****     ** 4 or 5 are typical.
 226:..\..\..\arduinoLCD\test\Pain Drain\libraries\lvgl\src\misc/lv_tlsf.c ****     */
 227:..\..\..\arduinoLCD\test\Pain Drain\libraries\lvgl\src\misc/lv_tlsf.c ****     SL_INDEX_COUNT_LOG2 = 5,
 228:..\..\..\arduinoLCD\test\Pain Drain\libraries\lvgl\src\misc/lv_tlsf.c **** };
 229:..\..\..\arduinoLCD\test\Pain Drain\libraries\lvgl\src\misc/lv_tlsf.c **** 
 230:..\..\..\arduinoLCD\test\Pain Drain\libraries\lvgl\src\misc/lv_tlsf.c **** /* Private constants: do not modify. */
 231:..\..\..\arduinoLCD\test\Pain Drain\libraries\lvgl\src\misc/lv_tlsf.c **** enum tlsf_private {
 232:..\..\..\arduinoLCD\test\Pain Drain\libraries\lvgl\src\misc/lv_tlsf.c **** #if defined (TLSF_64BIT)
 233:..\..\..\arduinoLCD\test\Pain Drain\libraries\lvgl\src\misc/lv_tlsf.c ****     /* All allocation sizes and addresses are aligned to 8 bytes. */
 234:..\..\..\arduinoLCD\test\Pain Drain\libraries\lvgl\src\misc/lv_tlsf.c ****     ALIGN_SIZE_LOG2 = 3,
 235:..\..\..\arduinoLCD\test\Pain Drain\libraries\lvgl\src\misc/lv_tlsf.c **** #else
 236:..\..\..\arduinoLCD\test\Pain Drain\libraries\lvgl\src\misc/lv_tlsf.c ****     /* All allocation sizes and addresses are aligned to 4 bytes. */
 237:..\..\..\arduinoLCD\test\Pain Drain\libraries\lvgl\src\misc/lv_tlsf.c ****     ALIGN_SIZE_LOG2 = 2,
 238:..\..\..\arduinoLCD\test\Pain Drain\libraries\lvgl\src\misc/lv_tlsf.c **** #endif
 239:..\..\..\arduinoLCD\test\Pain Drain\libraries\lvgl\src\misc/lv_tlsf.c ****     ALIGN_SIZE = (1 << ALIGN_SIZE_LOG2),
 240:..\..\..\arduinoLCD\test\Pain Drain\libraries\lvgl\src\misc/lv_tlsf.c **** 
 241:..\..\..\arduinoLCD\test\Pain Drain\libraries\lvgl\src\misc/lv_tlsf.c ****     /*
 242:..\..\..\arduinoLCD\test\Pain Drain\libraries\lvgl\src\misc/lv_tlsf.c ****     ** We support allocations of sizes up to (1 << FL_INDEX_MAX) bits.
 243:..\..\..\arduinoLCD\test\Pain Drain\libraries\lvgl\src\misc/lv_tlsf.c ****     ** However, because we linearly subdivide the second-level lists, and
 244:..\..\..\arduinoLCD\test\Pain Drain\libraries\lvgl\src\misc/lv_tlsf.c ****     ** our minimum size granularity is 4 bytes, it doesn't make sense to
 245:..\..\..\arduinoLCD\test\Pain Drain\libraries\lvgl\src\misc/lv_tlsf.c ****     ** create first-level lists for sizes smaller than SL_INDEX_COUNT * 4,
 246:..\..\..\arduinoLCD\test\Pain Drain\libraries\lvgl\src\misc/lv_tlsf.c ****     ** or (1 << (SL_INDEX_COUNT_LOG2 + 2)) bytes, as there we will be
 247:..\..\..\arduinoLCD\test\Pain Drain\libraries\lvgl\src\misc/lv_tlsf.c ****     ** trying to split size ranges into more slots than we have available.
 248:..\..\..\arduinoLCD\test\Pain Drain\libraries\lvgl\src\misc/lv_tlsf.c ****     ** Instead, we calculate the minimum threshold size, and place all
 249:..\..\..\arduinoLCD\test\Pain Drain\libraries\lvgl\src\misc/lv_tlsf.c ****     ** blocks below that size into the 0th first-level list.
 250:..\..\..\arduinoLCD\test\Pain Drain\libraries\lvgl\src\misc/lv_tlsf.c ****     */
 251:..\..\..\arduinoLCD\test\Pain Drain\libraries\lvgl\src\misc/lv_tlsf.c **** 
 252:..\..\..\arduinoLCD\test\Pain Drain\libraries\lvgl\src\misc/lv_tlsf.c **** #if defined (TLSF_MAX_POOL_SIZE)
 253:..\..\..\arduinoLCD\test\Pain Drain\libraries\lvgl\src\misc/lv_tlsf.c ****     FL_INDEX_MAX = TLSF_LOG2_CEIL(TLSF_MAX_POOL_SIZE),
 254:..\..\..\arduinoLCD\test\Pain Drain\libraries\lvgl\src\misc/lv_tlsf.c **** #elif defined (TLSF_64BIT)
 255:..\..\..\arduinoLCD\test\Pain Drain\libraries\lvgl\src\misc/lv_tlsf.c ****     /*
 256:..\..\..\arduinoLCD\test\Pain Drain\libraries\lvgl\src\misc/lv_tlsf.c ****     ** TODO: We can increase this to support larger sizes, at the expense
 257:..\..\..\arduinoLCD\test\Pain Drain\libraries\lvgl\src\misc/lv_tlsf.c ****     ** of more overhead in the TLSF structure.
 258:..\..\..\arduinoLCD\test\Pain Drain\libraries\lvgl\src\misc/lv_tlsf.c ****     */
 259:..\..\..\arduinoLCD\test\Pain Drain\libraries\lvgl\src\misc/lv_tlsf.c ****     FL_INDEX_MAX = 32,
ARM GAS  C:\Users\haske\AppData\Local\Temp\ccswauRt.s 			page 6


 260:..\..\..\arduinoLCD\test\Pain Drain\libraries\lvgl\src\misc/lv_tlsf.c **** #else
 261:..\..\..\arduinoLCD\test\Pain Drain\libraries\lvgl\src\misc/lv_tlsf.c ****     FL_INDEX_MAX = 30,
 262:..\..\..\arduinoLCD\test\Pain Drain\libraries\lvgl\src\misc/lv_tlsf.c **** #endif
 263:..\..\..\arduinoLCD\test\Pain Drain\libraries\lvgl\src\misc/lv_tlsf.c ****     SL_INDEX_COUNT = (1 << SL_INDEX_COUNT_LOG2),
 264:..\..\..\arduinoLCD\test\Pain Drain\libraries\lvgl\src\misc/lv_tlsf.c ****     FL_INDEX_SHIFT = (SL_INDEX_COUNT_LOG2 + ALIGN_SIZE_LOG2),
 265:..\..\..\arduinoLCD\test\Pain Drain\libraries\lvgl\src\misc/lv_tlsf.c ****     FL_INDEX_COUNT = (FL_INDEX_MAX - FL_INDEX_SHIFT + 1),
 266:..\..\..\arduinoLCD\test\Pain Drain\libraries\lvgl\src\misc/lv_tlsf.c **** 
 267:..\..\..\arduinoLCD\test\Pain Drain\libraries\lvgl\src\misc/lv_tlsf.c ****     SMALL_BLOCK_SIZE = (1 << FL_INDEX_SHIFT),
 268:..\..\..\arduinoLCD\test\Pain Drain\libraries\lvgl\src\misc/lv_tlsf.c **** };
 269:..\..\..\arduinoLCD\test\Pain Drain\libraries\lvgl\src\misc/lv_tlsf.c **** 
 270:..\..\..\arduinoLCD\test\Pain Drain\libraries\lvgl\src\misc/lv_tlsf.c **** /*
 271:..\..\..\arduinoLCD\test\Pain Drain\libraries\lvgl\src\misc/lv_tlsf.c **** ** Cast and min/max macros.
 272:..\..\..\arduinoLCD\test\Pain Drain\libraries\lvgl\src\misc/lv_tlsf.c **** */
 273:..\..\..\arduinoLCD\test\Pain Drain\libraries\lvgl\src\misc/lv_tlsf.c **** 
 274:..\..\..\arduinoLCD\test\Pain Drain\libraries\lvgl\src\misc/lv_tlsf.c **** #define tlsf_cast(t, exp)   ((t) (exp))
 275:..\..\..\arduinoLCD\test\Pain Drain\libraries\lvgl\src\misc/lv_tlsf.c **** #define tlsf_min(a, b)      ((a) < (b) ? (a) : (b))
 276:..\..\..\arduinoLCD\test\Pain Drain\libraries\lvgl\src\misc/lv_tlsf.c **** #define tlsf_max(a, b)      ((a) > (b) ? (a) : (b))
 277:..\..\..\arduinoLCD\test\Pain Drain\libraries\lvgl\src\misc/lv_tlsf.c **** 
 278:..\..\..\arduinoLCD\test\Pain Drain\libraries\lvgl\src\misc/lv_tlsf.c **** /*
 279:..\..\..\arduinoLCD\test\Pain Drain\libraries\lvgl\src\misc/lv_tlsf.c **** ** Set assert macro, if it has not been provided by the user.
 280:..\..\..\arduinoLCD\test\Pain Drain\libraries\lvgl\src\misc/lv_tlsf.c **** */
 281:..\..\..\arduinoLCD\test\Pain Drain\libraries\lvgl\src\misc/lv_tlsf.c **** #define tlsf_assert LV_ASSERT
 282:..\..\..\arduinoLCD\test\Pain Drain\libraries\lvgl\src\misc/lv_tlsf.c **** 
 283:..\..\..\arduinoLCD\test\Pain Drain\libraries\lvgl\src\misc/lv_tlsf.c **** #if !defined (tlsf_assert)
 284:..\..\..\arduinoLCD\test\Pain Drain\libraries\lvgl\src\misc/lv_tlsf.c ****     #define tlsf_assert assert
 285:..\..\..\arduinoLCD\test\Pain Drain\libraries\lvgl\src\misc/lv_tlsf.c **** #endif
 286:..\..\..\arduinoLCD\test\Pain Drain\libraries\lvgl\src\misc/lv_tlsf.c **** 
 287:..\..\..\arduinoLCD\test\Pain Drain\libraries\lvgl\src\misc/lv_tlsf.c **** /*
 288:..\..\..\arduinoLCD\test\Pain Drain\libraries\lvgl\src\misc/lv_tlsf.c **** ** Static assertion mechanism.
 289:..\..\..\arduinoLCD\test\Pain Drain\libraries\lvgl\src\misc/lv_tlsf.c **** */
 290:..\..\..\arduinoLCD\test\Pain Drain\libraries\lvgl\src\misc/lv_tlsf.c **** 
 291:..\..\..\arduinoLCD\test\Pain Drain\libraries\lvgl\src\misc/lv_tlsf.c **** #define _tlsf_glue2(x, y) x ## y
 292:..\..\..\arduinoLCD\test\Pain Drain\libraries\lvgl\src\misc/lv_tlsf.c **** #define _tlsf_glue(x, y) _tlsf_glue2(x, y)
 293:..\..\..\arduinoLCD\test\Pain Drain\libraries\lvgl\src\misc/lv_tlsf.c **** #define tlsf_static_assert(exp) \
 294:..\..\..\arduinoLCD\test\Pain Drain\libraries\lvgl\src\misc/lv_tlsf.c ****     typedef char _tlsf_glue(static_assert, __LINE__) [(exp) ? 1 : -1]
 295:..\..\..\arduinoLCD\test\Pain Drain\libraries\lvgl\src\misc/lv_tlsf.c **** 
 296:..\..\..\arduinoLCD\test\Pain Drain\libraries\lvgl\src\misc/lv_tlsf.c **** /* This code has been tested on 32- and 64-bit (LP/LLP) architectures. */
 297:..\..\..\arduinoLCD\test\Pain Drain\libraries\lvgl\src\misc/lv_tlsf.c **** tlsf_static_assert(sizeof(int) * CHAR_BIT == 32);
 298:..\..\..\arduinoLCD\test\Pain Drain\libraries\lvgl\src\misc/lv_tlsf.c **** tlsf_static_assert(sizeof(size_t) * CHAR_BIT >= 32);
 299:..\..\..\arduinoLCD\test\Pain Drain\libraries\lvgl\src\misc/lv_tlsf.c **** tlsf_static_assert(sizeof(size_t) * CHAR_BIT <= 64);
 300:..\..\..\arduinoLCD\test\Pain Drain\libraries\lvgl\src\misc/lv_tlsf.c **** 
 301:..\..\..\arduinoLCD\test\Pain Drain\libraries\lvgl\src\misc/lv_tlsf.c **** /* SL_INDEX_COUNT must be <= number of bits in sl_bitmap's storage type. */
 302:..\..\..\arduinoLCD\test\Pain Drain\libraries\lvgl\src\misc/lv_tlsf.c **** tlsf_static_assert(sizeof(unsigned int) * CHAR_BIT >= SL_INDEX_COUNT);
 303:..\..\..\arduinoLCD\test\Pain Drain\libraries\lvgl\src\misc/lv_tlsf.c **** 
 304:..\..\..\arduinoLCD\test\Pain Drain\libraries\lvgl\src\misc/lv_tlsf.c **** /* Ensure we've properly tuned our sizes. */
 305:..\..\..\arduinoLCD\test\Pain Drain\libraries\lvgl\src\misc/lv_tlsf.c **** tlsf_static_assert(ALIGN_SIZE == SMALL_BLOCK_SIZE / SL_INDEX_COUNT);
 306:..\..\..\arduinoLCD\test\Pain Drain\libraries\lvgl\src\misc/lv_tlsf.c **** 
 307:..\..\..\arduinoLCD\test\Pain Drain\libraries\lvgl\src\misc/lv_tlsf.c **** /*
 308:..\..\..\arduinoLCD\test\Pain Drain\libraries\lvgl\src\misc/lv_tlsf.c **** ** Data structures and associated constants.
 309:..\..\..\arduinoLCD\test\Pain Drain\libraries\lvgl\src\misc/lv_tlsf.c **** */
 310:..\..\..\arduinoLCD\test\Pain Drain\libraries\lvgl\src\misc/lv_tlsf.c **** 
 311:..\..\..\arduinoLCD\test\Pain Drain\libraries\lvgl\src\misc/lv_tlsf.c **** /*
 312:..\..\..\arduinoLCD\test\Pain Drain\libraries\lvgl\src\misc/lv_tlsf.c **** ** Block header structure.
 313:..\..\..\arduinoLCD\test\Pain Drain\libraries\lvgl\src\misc/lv_tlsf.c **** **
 314:..\..\..\arduinoLCD\test\Pain Drain\libraries\lvgl\src\misc/lv_tlsf.c **** ** There are several implementation subtleties involved:
 315:..\..\..\arduinoLCD\test\Pain Drain\libraries\lvgl\src\misc/lv_tlsf.c **** ** - The prev_phys_block field is only valid if the previous block is free.
 316:..\..\..\arduinoLCD\test\Pain Drain\libraries\lvgl\src\misc/lv_tlsf.c **** ** - The prev_phys_block field is actually stored at the end of the
ARM GAS  C:\Users\haske\AppData\Local\Temp\ccswauRt.s 			page 7


 317:..\..\..\arduinoLCD\test\Pain Drain\libraries\lvgl\src\misc/lv_tlsf.c **** **   previous block. It appears at the beginning of this structure only to
 318:..\..\..\arduinoLCD\test\Pain Drain\libraries\lvgl\src\misc/lv_tlsf.c **** **   simplify the implementation.
 319:..\..\..\arduinoLCD\test\Pain Drain\libraries\lvgl\src\misc/lv_tlsf.c **** ** - The next_free / prev_free fields are only valid if the block is free.
 320:..\..\..\arduinoLCD\test\Pain Drain\libraries\lvgl\src\misc/lv_tlsf.c **** */
 321:..\..\..\arduinoLCD\test\Pain Drain\libraries\lvgl\src\misc/lv_tlsf.c **** typedef struct block_header_t {
 322:..\..\..\arduinoLCD\test\Pain Drain\libraries\lvgl\src\misc/lv_tlsf.c ****     /* Points to the previous physical block. */
 323:..\..\..\arduinoLCD\test\Pain Drain\libraries\lvgl\src\misc/lv_tlsf.c ****     struct block_header_t * prev_phys_block;
 324:..\..\..\arduinoLCD\test\Pain Drain\libraries\lvgl\src\misc/lv_tlsf.c **** 
 325:..\..\..\arduinoLCD\test\Pain Drain\libraries\lvgl\src\misc/lv_tlsf.c ****     /* The size of this block, excluding the block header. */
 326:..\..\..\arduinoLCD\test\Pain Drain\libraries\lvgl\src\misc/lv_tlsf.c ****     size_t size;
 327:..\..\..\arduinoLCD\test\Pain Drain\libraries\lvgl\src\misc/lv_tlsf.c **** 
 328:..\..\..\arduinoLCD\test\Pain Drain\libraries\lvgl\src\misc/lv_tlsf.c ****     /* Next and previous free blocks. */
 329:..\..\..\arduinoLCD\test\Pain Drain\libraries\lvgl\src\misc/lv_tlsf.c ****     struct block_header_t * next_free;
 330:..\..\..\arduinoLCD\test\Pain Drain\libraries\lvgl\src\misc/lv_tlsf.c ****     struct block_header_t * prev_free;
 331:..\..\..\arduinoLCD\test\Pain Drain\libraries\lvgl\src\misc/lv_tlsf.c **** } block_header_t;
 332:..\..\..\arduinoLCD\test\Pain Drain\libraries\lvgl\src\misc/lv_tlsf.c **** 
 333:..\..\..\arduinoLCD\test\Pain Drain\libraries\lvgl\src\misc/lv_tlsf.c **** /*
 334:..\..\..\arduinoLCD\test\Pain Drain\libraries\lvgl\src\misc/lv_tlsf.c **** ** Since block sizes are always at least a multiple of 4, the two least
 335:..\..\..\arduinoLCD\test\Pain Drain\libraries\lvgl\src\misc/lv_tlsf.c **** ** significant bits of the size field are used to store the block status:
 336:..\..\..\arduinoLCD\test\Pain Drain\libraries\lvgl\src\misc/lv_tlsf.c **** ** - bit 0: whether block is busy or free
 337:..\..\..\arduinoLCD\test\Pain Drain\libraries\lvgl\src\misc/lv_tlsf.c **** ** - bit 1: whether previous block is busy or free
 338:..\..\..\arduinoLCD\test\Pain Drain\libraries\lvgl\src\misc/lv_tlsf.c **** */
 339:..\..\..\arduinoLCD\test\Pain Drain\libraries\lvgl\src\misc/lv_tlsf.c **** static const size_t block_header_free_bit = 1 << 0;
 340:..\..\..\arduinoLCD\test\Pain Drain\libraries\lvgl\src\misc/lv_tlsf.c **** static const size_t block_header_prev_free_bit = 1 << 1;
 341:..\..\..\arduinoLCD\test\Pain Drain\libraries\lvgl\src\misc/lv_tlsf.c **** 
 342:..\..\..\arduinoLCD\test\Pain Drain\libraries\lvgl\src\misc/lv_tlsf.c **** /*
 343:..\..\..\arduinoLCD\test\Pain Drain\libraries\lvgl\src\misc/lv_tlsf.c **** ** The size of the block header exposed to used blocks is the size field.
 344:..\..\..\arduinoLCD\test\Pain Drain\libraries\lvgl\src\misc/lv_tlsf.c **** ** The prev_phys_block field is stored *inside* the previous free block.
 345:..\..\..\arduinoLCD\test\Pain Drain\libraries\lvgl\src\misc/lv_tlsf.c **** */
 346:..\..\..\arduinoLCD\test\Pain Drain\libraries\lvgl\src\misc/lv_tlsf.c **** static const size_t block_header_overhead = sizeof(size_t);
 347:..\..\..\arduinoLCD\test\Pain Drain\libraries\lvgl\src\misc/lv_tlsf.c **** 
 348:..\..\..\arduinoLCD\test\Pain Drain\libraries\lvgl\src\misc/lv_tlsf.c **** /* User data starts directly after the size field in a used block. */
 349:..\..\..\arduinoLCD\test\Pain Drain\libraries\lvgl\src\misc/lv_tlsf.c **** static const size_t block_start_offset =
 350:..\..\..\arduinoLCD\test\Pain Drain\libraries\lvgl\src\misc/lv_tlsf.c ****     offsetof(block_header_t, size) + sizeof(size_t);
 351:..\..\..\arduinoLCD\test\Pain Drain\libraries\lvgl\src\misc/lv_tlsf.c **** 
 352:..\..\..\arduinoLCD\test\Pain Drain\libraries\lvgl\src\misc/lv_tlsf.c **** /*
 353:..\..\..\arduinoLCD\test\Pain Drain\libraries\lvgl\src\misc/lv_tlsf.c **** ** A free block must be large enough to store its header minus the size of
 354:..\..\..\arduinoLCD\test\Pain Drain\libraries\lvgl\src\misc/lv_tlsf.c **** ** the prev_phys_block field, and no larger than the number of addressable
 355:..\..\..\arduinoLCD\test\Pain Drain\libraries\lvgl\src\misc/lv_tlsf.c **** ** bits for FL_INDEX.
 356:..\..\..\arduinoLCD\test\Pain Drain\libraries\lvgl\src\misc/lv_tlsf.c **** */
 357:..\..\..\arduinoLCD\test\Pain Drain\libraries\lvgl\src\misc/lv_tlsf.c **** static const size_t block_size_min =
 358:..\..\..\arduinoLCD\test\Pain Drain\libraries\lvgl\src\misc/lv_tlsf.c ****     sizeof(block_header_t) - sizeof(block_header_t *);
 359:..\..\..\arduinoLCD\test\Pain Drain\libraries\lvgl\src\misc/lv_tlsf.c **** static const size_t block_size_max = tlsf_cast(size_t, 1) << FL_INDEX_MAX;
 360:..\..\..\arduinoLCD\test\Pain Drain\libraries\lvgl\src\misc/lv_tlsf.c **** 
 361:..\..\..\arduinoLCD\test\Pain Drain\libraries\lvgl\src\misc/lv_tlsf.c **** 
 362:..\..\..\arduinoLCD\test\Pain Drain\libraries\lvgl\src\misc/lv_tlsf.c **** /* The TLSF control structure. */
 363:..\..\..\arduinoLCD\test\Pain Drain\libraries\lvgl\src\misc/lv_tlsf.c **** typedef struct control_t {
 364:..\..\..\arduinoLCD\test\Pain Drain\libraries\lvgl\src\misc/lv_tlsf.c ****     /* Empty lists point at this block to indicate they are free. */
 365:..\..\..\arduinoLCD\test\Pain Drain\libraries\lvgl\src\misc/lv_tlsf.c ****     block_header_t block_null;
 366:..\..\..\arduinoLCD\test\Pain Drain\libraries\lvgl\src\misc/lv_tlsf.c **** 
 367:..\..\..\arduinoLCD\test\Pain Drain\libraries\lvgl\src\misc/lv_tlsf.c ****     /* Bitmaps for free lists. */
 368:..\..\..\arduinoLCD\test\Pain Drain\libraries\lvgl\src\misc/lv_tlsf.c ****     unsigned int fl_bitmap;
 369:..\..\..\arduinoLCD\test\Pain Drain\libraries\lvgl\src\misc/lv_tlsf.c ****     unsigned int sl_bitmap[FL_INDEX_COUNT];
 370:..\..\..\arduinoLCD\test\Pain Drain\libraries\lvgl\src\misc/lv_tlsf.c **** 
 371:..\..\..\arduinoLCD\test\Pain Drain\libraries\lvgl\src\misc/lv_tlsf.c ****     /* Head of free lists. */
 372:..\..\..\arduinoLCD\test\Pain Drain\libraries\lvgl\src\misc/lv_tlsf.c ****     block_header_t * blocks[FL_INDEX_COUNT][SL_INDEX_COUNT];
 373:..\..\..\arduinoLCD\test\Pain Drain\libraries\lvgl\src\misc/lv_tlsf.c **** } control_t;
ARM GAS  C:\Users\haske\AppData\Local\Temp\ccswauRt.s 			page 8


 374:..\..\..\arduinoLCD\test\Pain Drain\libraries\lvgl\src\misc/lv_tlsf.c **** 
 375:..\..\..\arduinoLCD\test\Pain Drain\libraries\lvgl\src\misc/lv_tlsf.c **** /* A type used for casting when doing pointer arithmetic. */
 376:..\..\..\arduinoLCD\test\Pain Drain\libraries\lvgl\src\misc/lv_tlsf.c **** typedef ptrdiff_t tlsfptr_t;
 377:..\..\..\arduinoLCD\test\Pain Drain\libraries\lvgl\src\misc/lv_tlsf.c **** 
 378:..\..\..\arduinoLCD\test\Pain Drain\libraries\lvgl\src\misc/lv_tlsf.c **** /*
 379:..\..\..\arduinoLCD\test\Pain Drain\libraries\lvgl\src\misc/lv_tlsf.c **** ** block_header_t member functions.
 380:..\..\..\arduinoLCD\test\Pain Drain\libraries\lvgl\src\misc/lv_tlsf.c **** */
 381:..\..\..\arduinoLCD\test\Pain Drain\libraries\lvgl\src\misc/lv_tlsf.c **** 
 382:..\..\..\arduinoLCD\test\Pain Drain\libraries\lvgl\src\misc/lv_tlsf.c **** static size_t block_size(const block_header_t * block)
 383:..\..\..\arduinoLCD\test\Pain Drain\libraries\lvgl\src\misc/lv_tlsf.c **** {
  27              		.loc 1 383 0
  28              		.cfi_startproc
  29              		@ args = 0, pretend = 0, frame = 0
  30              		@ frame_needed = 0, uses_anonymous_args = 0
  31              		@ link register save eliminated.
  32              	.LVL0:
 384:..\..\..\arduinoLCD\test\Pain Drain\libraries\lvgl\src\misc/lv_tlsf.c ****     return block->size & ~(block_header_free_bit | block_header_prev_free_bit);
  33              		.loc 1 384 0
  34 0000 4068     		ldr	r0, [r0, #4]
  35              	.LVL1:
  36 0002 0323     		movs	r3, #3
  37 0004 9843     		bics	r0, r3
 385:..\..\..\arduinoLCD\test\Pain Drain\libraries\lvgl\src\misc/lv_tlsf.c **** }
  38              		.loc 1 385 0
  39              		@ sp needed
  40 0006 7047     		bx	lr
  41              		.cfi_endproc
  42              	.LFE3:
  43              		.size	block_size, .-block_size
  44              		.section	.text.block_set_size,"ax",%progbits
  45              		.align	2
  46              		.code	16
  47              		.thumb_func
  48              		.type	block_set_size, %function
  49              	block_set_size:
  50              	.LFB4:
 386:..\..\..\arduinoLCD\test\Pain Drain\libraries\lvgl\src\misc/lv_tlsf.c **** 
 387:..\..\..\arduinoLCD\test\Pain Drain\libraries\lvgl\src\misc/lv_tlsf.c **** static void block_set_size(block_header_t * block, size_t size)
 388:..\..\..\arduinoLCD\test\Pain Drain\libraries\lvgl\src\misc/lv_tlsf.c **** {
  51              		.loc 1 388 0
  52              		.cfi_startproc
  53              		@ args = 0, pretend = 0, frame = 0
  54              		@ frame_needed = 0, uses_anonymous_args = 0
  55              		@ link register save eliminated.
  56              	.LVL2:
 389:..\..\..\arduinoLCD\test\Pain Drain\libraries\lvgl\src\misc/lv_tlsf.c ****     const size_t oldsize = block->size;
 390:..\..\..\arduinoLCD\test\Pain Drain\libraries\lvgl\src\misc/lv_tlsf.c ****     block->size = size | (oldsize & (block_header_free_bit | block_header_prev_free_bit));
  57              		.loc 1 390 0
  58 0000 0323     		movs	r3, #3
  59 0002 4268     		ldr	r2, [r0, #4]
  60 0004 1340     		ands	r3, r2
  61 0006 1943     		orrs	r1, r3
  62              	.LVL3:
  63 0008 4160     		str	r1, [r0, #4]
  64              	.LVL4:
 391:..\..\..\arduinoLCD\test\Pain Drain\libraries\lvgl\src\misc/lv_tlsf.c **** }
  65              		.loc 1 391 0
ARM GAS  C:\Users\haske\AppData\Local\Temp\ccswauRt.s 			page 9


  66              		@ sp needed
  67 000a 7047     		bx	lr
  68              		.cfi_endproc
  69              	.LFE4:
  70              		.size	block_set_size, .-block_set_size
  71              		.section	.text.block_is_last,"ax",%progbits
  72              		.align	2
  73              		.code	16
  74              		.thumb_func
  75              		.type	block_is_last, %function
  76              	block_is_last:
  77              	.LFB5:
 392:..\..\..\arduinoLCD\test\Pain Drain\libraries\lvgl\src\misc/lv_tlsf.c **** 
 393:..\..\..\arduinoLCD\test\Pain Drain\libraries\lvgl\src\misc/lv_tlsf.c **** static int block_is_last(const block_header_t * block)
 394:..\..\..\arduinoLCD\test\Pain Drain\libraries\lvgl\src\misc/lv_tlsf.c **** {
  78              		.loc 1 394 0
  79              		.cfi_startproc
  80              		@ args = 0, pretend = 0, frame = 0
  81              		@ frame_needed = 0, uses_anonymous_args = 0
  82              	.LVL5:
  83 0000 10B5     		push	{r4, lr}
  84              		.cfi_def_cfa_offset 8
  85              		.cfi_offset 4, -8
  86              		.cfi_offset 14, -4
 395:..\..\..\arduinoLCD\test\Pain Drain\libraries\lvgl\src\misc/lv_tlsf.c ****     return block_size(block) == 0;
  87              		.loc 1 395 0
  88 0002 FFF7FEFF 		bl	block_size
  89              	.LVL6:
  90 0006 4342     		rsbs	r3, r0, #0
  91 0008 5841     		adcs	r0, r0, r3
  92 000a C0B2     		uxtb	r0, r0
 396:..\..\..\arduinoLCD\test\Pain Drain\libraries\lvgl\src\misc/lv_tlsf.c **** }
  93              		.loc 1 396 0
  94              		@ sp needed
  95 000c 10BD     		pop	{r4, pc}
  96              		.cfi_endproc
  97              	.LFE5:
  98              		.size	block_is_last, .-block_is_last
  99 000e C046     		.section	.text.block_is_free,"ax",%progbits
 100              		.align	2
 101              		.code	16
 102              		.thumb_func
 103              		.type	block_is_free, %function
 104              	block_is_free:
 105              	.LFB6:
 397:..\..\..\arduinoLCD\test\Pain Drain\libraries\lvgl\src\misc/lv_tlsf.c **** 
 398:..\..\..\arduinoLCD\test\Pain Drain\libraries\lvgl\src\misc/lv_tlsf.c **** static int block_is_free(const block_header_t * block)
 399:..\..\..\arduinoLCD\test\Pain Drain\libraries\lvgl\src\misc/lv_tlsf.c **** {
 106              		.loc 1 399 0
 107              		.cfi_startproc
 108              		@ args = 0, pretend = 0, frame = 0
 109              		@ frame_needed = 0, uses_anonymous_args = 0
 110              		@ link register save eliminated.
 111              	.LVL7:
 400:..\..\..\arduinoLCD\test\Pain Drain\libraries\lvgl\src\misc/lv_tlsf.c ****     return tlsf_cast(int, block->size & block_header_free_bit);
 112              		.loc 1 400 0
 113 0000 4368     		ldr	r3, [r0, #4]
ARM GAS  C:\Users\haske\AppData\Local\Temp\ccswauRt.s 			page 10


 114 0002 0120     		movs	r0, #1
 115              	.LVL8:
 116 0004 1840     		ands	r0, r3
 401:..\..\..\arduinoLCD\test\Pain Drain\libraries\lvgl\src\misc/lv_tlsf.c **** }
 117              		.loc 1 401 0
 118              		@ sp needed
 119 0006 7047     		bx	lr
 120              		.cfi_endproc
 121              	.LFE6:
 122              		.size	block_is_free, .-block_is_free
 123              		.section	.text.block_set_free,"ax",%progbits
 124              		.align	2
 125              		.code	16
 126              		.thumb_func
 127              		.type	block_set_free, %function
 128              	block_set_free:
 129              	.LFB7:
 402:..\..\..\arduinoLCD\test\Pain Drain\libraries\lvgl\src\misc/lv_tlsf.c **** 
 403:..\..\..\arduinoLCD\test\Pain Drain\libraries\lvgl\src\misc/lv_tlsf.c **** static void block_set_free(block_header_t * block)
 404:..\..\..\arduinoLCD\test\Pain Drain\libraries\lvgl\src\misc/lv_tlsf.c **** {
 130              		.loc 1 404 0
 131              		.cfi_startproc
 132              		@ args = 0, pretend = 0, frame = 0
 133              		@ frame_needed = 0, uses_anonymous_args = 0
 134              		@ link register save eliminated.
 135              	.LVL9:
 405:..\..\..\arduinoLCD\test\Pain Drain\libraries\lvgl\src\misc/lv_tlsf.c ****     block->size |= block_header_free_bit;
 136              		.loc 1 405 0
 137 0000 0123     		movs	r3, #1
 138 0002 4268     		ldr	r2, [r0, #4]
 139 0004 1343     		orrs	r3, r2
 140 0006 4360     		str	r3, [r0, #4]
 406:..\..\..\arduinoLCD\test\Pain Drain\libraries\lvgl\src\misc/lv_tlsf.c **** }
 141              		.loc 1 406 0
 142              		@ sp needed
 143 0008 7047     		bx	lr
 144              		.cfi_endproc
 145              	.LFE7:
 146              		.size	block_set_free, .-block_set_free
 147 000a C046     		.section	.text.block_set_used,"ax",%progbits
 148              		.align	2
 149              		.code	16
 150              		.thumb_func
 151              		.type	block_set_used, %function
 152              	block_set_used:
 153              	.LFB8:
 407:..\..\..\arduinoLCD\test\Pain Drain\libraries\lvgl\src\misc/lv_tlsf.c **** 
 408:..\..\..\arduinoLCD\test\Pain Drain\libraries\lvgl\src\misc/lv_tlsf.c **** static void block_set_used(block_header_t * block)
 409:..\..\..\arduinoLCD\test\Pain Drain\libraries\lvgl\src\misc/lv_tlsf.c **** {
 154              		.loc 1 409 0
 155              		.cfi_startproc
 156              		@ args = 0, pretend = 0, frame = 0
 157              		@ frame_needed = 0, uses_anonymous_args = 0
 158              		@ link register save eliminated.
 159              	.LVL10:
 410:..\..\..\arduinoLCD\test\Pain Drain\libraries\lvgl\src\misc/lv_tlsf.c ****     block->size &= ~block_header_free_bit;
 160              		.loc 1 410 0
ARM GAS  C:\Users\haske\AppData\Local\Temp\ccswauRt.s 			page 11


 161 0000 0123     		movs	r3, #1
 162 0002 4268     		ldr	r2, [r0, #4]
 163 0004 9A43     		bics	r2, r3
 164 0006 4260     		str	r2, [r0, #4]
 411:..\..\..\arduinoLCD\test\Pain Drain\libraries\lvgl\src\misc/lv_tlsf.c **** }
 165              		.loc 1 411 0
 166              		@ sp needed
 167 0008 7047     		bx	lr
 168              		.cfi_endproc
 169              	.LFE8:
 170              		.size	block_set_used, .-block_set_used
 171 000a C046     		.section	.text.block_is_prev_free,"ax",%progbits
 172              		.align	2
 173              		.code	16
 174              		.thumb_func
 175              		.type	block_is_prev_free, %function
 176              	block_is_prev_free:
 177              	.LFB9:
 412:..\..\..\arduinoLCD\test\Pain Drain\libraries\lvgl\src\misc/lv_tlsf.c **** 
 413:..\..\..\arduinoLCD\test\Pain Drain\libraries\lvgl\src\misc/lv_tlsf.c **** static int block_is_prev_free(const block_header_t * block)
 414:..\..\..\arduinoLCD\test\Pain Drain\libraries\lvgl\src\misc/lv_tlsf.c **** {
 178              		.loc 1 414 0
 179              		.cfi_startproc
 180              		@ args = 0, pretend = 0, frame = 0
 181              		@ frame_needed = 0, uses_anonymous_args = 0
 182              		@ link register save eliminated.
 183              	.LVL11:
 415:..\..\..\arduinoLCD\test\Pain Drain\libraries\lvgl\src\misc/lv_tlsf.c ****     return tlsf_cast(int, block->size & block_header_prev_free_bit);
 184              		.loc 1 415 0
 185 0000 4368     		ldr	r3, [r0, #4]
 186 0002 0220     		movs	r0, #2
 187              	.LVL12:
 188 0004 1840     		ands	r0, r3
 416:..\..\..\arduinoLCD\test\Pain Drain\libraries\lvgl\src\misc/lv_tlsf.c **** }
 189              		.loc 1 416 0
 190              		@ sp needed
 191 0006 7047     		bx	lr
 192              		.cfi_endproc
 193              	.LFE9:
 194              		.size	block_is_prev_free, .-block_is_prev_free
 195              		.section	.text.block_set_prev_free,"ax",%progbits
 196              		.align	2
 197              		.code	16
 198              		.thumb_func
 199              		.type	block_set_prev_free, %function
 200              	block_set_prev_free:
 201              	.LFB10:
 417:..\..\..\arduinoLCD\test\Pain Drain\libraries\lvgl\src\misc/lv_tlsf.c **** 
 418:..\..\..\arduinoLCD\test\Pain Drain\libraries\lvgl\src\misc/lv_tlsf.c **** static void block_set_prev_free(block_header_t * block)
 419:..\..\..\arduinoLCD\test\Pain Drain\libraries\lvgl\src\misc/lv_tlsf.c **** {
 202              		.loc 1 419 0
 203              		.cfi_startproc
 204              		@ args = 0, pretend = 0, frame = 0
 205              		@ frame_needed = 0, uses_anonymous_args = 0
 206              		@ link register save eliminated.
 207              	.LVL13:
 420:..\..\..\arduinoLCD\test\Pain Drain\libraries\lvgl\src\misc/lv_tlsf.c ****     block->size |= block_header_prev_free_bit;
ARM GAS  C:\Users\haske\AppData\Local\Temp\ccswauRt.s 			page 12


 208              		.loc 1 420 0
 209 0000 0223     		movs	r3, #2
 210 0002 4268     		ldr	r2, [r0, #4]
 211 0004 1343     		orrs	r3, r2
 212 0006 4360     		str	r3, [r0, #4]
 421:..\..\..\arduinoLCD\test\Pain Drain\libraries\lvgl\src\misc/lv_tlsf.c **** }
 213              		.loc 1 421 0
 214              		@ sp needed
 215 0008 7047     		bx	lr
 216              		.cfi_endproc
 217              	.LFE10:
 218              		.size	block_set_prev_free, .-block_set_prev_free
 219 000a C046     		.section	.text.block_set_prev_used,"ax",%progbits
 220              		.align	2
 221              		.code	16
 222              		.thumb_func
 223              		.type	block_set_prev_used, %function
 224              	block_set_prev_used:
 225              	.LFB11:
 422:..\..\..\arduinoLCD\test\Pain Drain\libraries\lvgl\src\misc/lv_tlsf.c **** 
 423:..\..\..\arduinoLCD\test\Pain Drain\libraries\lvgl\src\misc/lv_tlsf.c **** static void block_set_prev_used(block_header_t * block)
 424:..\..\..\arduinoLCD\test\Pain Drain\libraries\lvgl\src\misc/lv_tlsf.c **** {
 226              		.loc 1 424 0
 227              		.cfi_startproc
 228              		@ args = 0, pretend = 0, frame = 0
 229              		@ frame_needed = 0, uses_anonymous_args = 0
 230              		@ link register save eliminated.
 231              	.LVL14:
 425:..\..\..\arduinoLCD\test\Pain Drain\libraries\lvgl\src\misc/lv_tlsf.c ****     block->size &= ~block_header_prev_free_bit;
 232              		.loc 1 425 0
 233 0000 0223     		movs	r3, #2
 234 0002 4268     		ldr	r2, [r0, #4]
 235 0004 9A43     		bics	r2, r3
 236 0006 4260     		str	r2, [r0, #4]
 426:..\..\..\arduinoLCD\test\Pain Drain\libraries\lvgl\src\misc/lv_tlsf.c **** }
 237              		.loc 1 426 0
 238              		@ sp needed
 239 0008 7047     		bx	lr
 240              		.cfi_endproc
 241              	.LFE11:
 242              		.size	block_set_prev_used, .-block_set_prev_used
 243 000a C046     		.section	.text.block_from_ptr,"ax",%progbits
 244              		.align	2
 245              		.code	16
 246              		.thumb_func
 247              		.type	block_from_ptr, %function
 248              	block_from_ptr:
 249              	.LFB12:
 427:..\..\..\arduinoLCD\test\Pain Drain\libraries\lvgl\src\misc/lv_tlsf.c **** 
 428:..\..\..\arduinoLCD\test\Pain Drain\libraries\lvgl\src\misc/lv_tlsf.c **** static block_header_t * block_from_ptr(const void * ptr)
 429:..\..\..\arduinoLCD\test\Pain Drain\libraries\lvgl\src\misc/lv_tlsf.c **** {
 250              		.loc 1 429 0
 251              		.cfi_startproc
 252              		@ args = 0, pretend = 0, frame = 0
 253              		@ frame_needed = 0, uses_anonymous_args = 0
 254              		@ link register save eliminated.
 255              	.LVL15:
ARM GAS  C:\Users\haske\AppData\Local\Temp\ccswauRt.s 			page 13


 430:..\..\..\arduinoLCD\test\Pain Drain\libraries\lvgl\src\misc/lv_tlsf.c ****     return tlsf_cast(block_header_t *,
 256              		.loc 1 430 0
 257 0000 0838     		subs	r0, r0, #8
 258              	.LVL16:
 431:..\..\..\arduinoLCD\test\Pain Drain\libraries\lvgl\src\misc/lv_tlsf.c ****                      tlsf_cast(unsigned char *, ptr) - block_start_offset);
 432:..\..\..\arduinoLCD\test\Pain Drain\libraries\lvgl\src\misc/lv_tlsf.c **** }
 259              		.loc 1 432 0
 260              		@ sp needed
 261 0002 7047     		bx	lr
 262              		.cfi_endproc
 263              	.LFE12:
 264              		.size	block_from_ptr, .-block_from_ptr
 265              		.section	.text.block_to_ptr,"ax",%progbits
 266              		.align	2
 267              		.code	16
 268              		.thumb_func
 269              		.type	block_to_ptr, %function
 270              	block_to_ptr:
 271              	.LFB13:
 433:..\..\..\arduinoLCD\test\Pain Drain\libraries\lvgl\src\misc/lv_tlsf.c **** 
 434:..\..\..\arduinoLCD\test\Pain Drain\libraries\lvgl\src\misc/lv_tlsf.c **** static void * block_to_ptr(const block_header_t * block)
 435:..\..\..\arduinoLCD\test\Pain Drain\libraries\lvgl\src\misc/lv_tlsf.c **** {
 272              		.loc 1 435 0
 273              		.cfi_startproc
 274              		@ args = 0, pretend = 0, frame = 0
 275              		@ frame_needed = 0, uses_anonymous_args = 0
 276              		@ link register save eliminated.
 277              	.LVL17:
 436:..\..\..\arduinoLCD\test\Pain Drain\libraries\lvgl\src\misc/lv_tlsf.c ****     return tlsf_cast(void *,
 278              		.loc 1 436 0
 279 0000 0830     		adds	r0, r0, #8
 280              	.LVL18:
 437:..\..\..\arduinoLCD\test\Pain Drain\libraries\lvgl\src\misc/lv_tlsf.c ****                      tlsf_cast(unsigned char *, block) + block_start_offset);
 438:..\..\..\arduinoLCD\test\Pain Drain\libraries\lvgl\src\misc/lv_tlsf.c **** }
 281              		.loc 1 438 0
 282              		@ sp needed
 283 0002 7047     		bx	lr
 284              		.cfi_endproc
 285              	.LFE13:
 286              		.size	block_to_ptr, .-block_to_ptr
 287              		.section	.text.offset_to_block,"ax",%progbits
 288              		.align	2
 289              		.code	16
 290              		.thumb_func
 291              		.type	offset_to_block, %function
 292              	offset_to_block:
 293              	.LFB14:
 439:..\..\..\arduinoLCD\test\Pain Drain\libraries\lvgl\src\misc/lv_tlsf.c **** 
 440:..\..\..\arduinoLCD\test\Pain Drain\libraries\lvgl\src\misc/lv_tlsf.c **** /* Return location of next block after block of given size. */
 441:..\..\..\arduinoLCD\test\Pain Drain\libraries\lvgl\src\misc/lv_tlsf.c **** static block_header_t * offset_to_block(const void * ptr, size_t size)
 442:..\..\..\arduinoLCD\test\Pain Drain\libraries\lvgl\src\misc/lv_tlsf.c **** {
 294              		.loc 1 442 0
 295              		.cfi_startproc
 296              		@ args = 0, pretend = 0, frame = 0
 297              		@ frame_needed = 0, uses_anonymous_args = 0
 298              		@ link register save eliminated.
 299              	.LVL19:
ARM GAS  C:\Users\haske\AppData\Local\Temp\ccswauRt.s 			page 14


 443:..\..\..\arduinoLCD\test\Pain Drain\libraries\lvgl\src\misc/lv_tlsf.c ****     return tlsf_cast(block_header_t *, tlsf_cast(tlsfptr_t, ptr) + size);
 300              		.loc 1 443 0
 301 0000 4018     		adds	r0, r0, r1
 302              	.LVL20:
 444:..\..\..\arduinoLCD\test\Pain Drain\libraries\lvgl\src\misc/lv_tlsf.c **** }
 303              		.loc 1 444 0
 304              		@ sp needed
 305 0002 7047     		bx	lr
 306              		.cfi_endproc
 307              	.LFE14:
 308              		.size	offset_to_block, .-offset_to_block
 309              		.section	.text.block_prev,"ax",%progbits
 310              		.align	2
 311              		.code	16
 312              		.thumb_func
 313              		.type	block_prev, %function
 314              	block_prev:
 315              	.LFB15:
 445:..\..\..\arduinoLCD\test\Pain Drain\libraries\lvgl\src\misc/lv_tlsf.c **** 
 446:..\..\..\arduinoLCD\test\Pain Drain\libraries\lvgl\src\misc/lv_tlsf.c **** /* Return location of previous block. */
 447:..\..\..\arduinoLCD\test\Pain Drain\libraries\lvgl\src\misc/lv_tlsf.c **** static block_header_t * block_prev(const block_header_t * block)
 448:..\..\..\arduinoLCD\test\Pain Drain\libraries\lvgl\src\misc/lv_tlsf.c **** {
 316              		.loc 1 448 0
 317              		.cfi_startproc
 318              		@ args = 0, pretend = 0, frame = 0
 319              		@ frame_needed = 0, uses_anonymous_args = 0
 320              	.LVL21:
 321 0000 10B5     		push	{r4, lr}
 322              		.cfi_def_cfa_offset 8
 323              		.cfi_offset 4, -8
 324              		.cfi_offset 14, -4
 325 0002 0400     		movs	r4, r0
 449:..\..\..\arduinoLCD\test\Pain Drain\libraries\lvgl\src\misc/lv_tlsf.c ****     tlsf_assert(block_is_prev_free(block) && "previous block must be free");
 326              		.loc 1 449 0
 327 0004 FFF7FEFF 		bl	block_is_prev_free
 328              	.LVL22:
 329 0008 0028     		cmp	r0, #0
 330 000a 00D1     		bne	.L14
 331              	.L15:
 332 000c FEE7     		b	.L15
 333              	.L14:
 450:..\..\..\arduinoLCD\test\Pain Drain\libraries\lvgl\src\misc/lv_tlsf.c ****     return block->prev_phys_block;
 334              		.loc 1 450 0
 335 000e 2068     		ldr	r0, [r4]
 451:..\..\..\arduinoLCD\test\Pain Drain\libraries\lvgl\src\misc/lv_tlsf.c **** }
 336              		.loc 1 451 0
 337              		@ sp needed
 338              	.LVL23:
 339 0010 10BD     		pop	{r4, pc}
 340              		.cfi_endproc
 341              	.LFE15:
 342              		.size	block_prev, .-block_prev
 343 0012 C046     		.section	.text.block_next,"ax",%progbits
 344              		.align	2
 345              		.code	16
 346              		.thumb_func
 347              		.type	block_next, %function
ARM GAS  C:\Users\haske\AppData\Local\Temp\ccswauRt.s 			page 15


 348              	block_next:
 349              	.LFB16:
 452:..\..\..\arduinoLCD\test\Pain Drain\libraries\lvgl\src\misc/lv_tlsf.c **** 
 453:..\..\..\arduinoLCD\test\Pain Drain\libraries\lvgl\src\misc/lv_tlsf.c **** /* Return location of next existing block. */
 454:..\..\..\arduinoLCD\test\Pain Drain\libraries\lvgl\src\misc/lv_tlsf.c **** static block_header_t * block_next(const block_header_t * block)
 455:..\..\..\arduinoLCD\test\Pain Drain\libraries\lvgl\src\misc/lv_tlsf.c **** {
 350              		.loc 1 455 0
 351              		.cfi_startproc
 352              		@ args = 0, pretend = 0, frame = 0
 353              		@ frame_needed = 0, uses_anonymous_args = 0
 354              	.LVL24:
 355 0000 70B5     		push	{r4, r5, r6, lr}
 356              		.cfi_def_cfa_offset 16
 357              		.cfi_offset 4, -16
 358              		.cfi_offset 5, -12
 359              		.cfi_offset 6, -8
 360              		.cfi_offset 14, -4
 361 0002 0400     		movs	r4, r0
 456:..\..\..\arduinoLCD\test\Pain Drain\libraries\lvgl\src\misc/lv_tlsf.c ****     block_header_t * next = offset_to_block(block_to_ptr(block),
 362              		.loc 1 456 0
 363 0004 FFF7FEFF 		bl	block_to_ptr
 364              	.LVL25:
 365 0008 0500     		movs	r5, r0
 457:..\..\..\arduinoLCD\test\Pain Drain\libraries\lvgl\src\misc/lv_tlsf.c ****                                             block_size(block) - block_header_overhead);
 366              		.loc 1 457 0
 367 000a 2000     		movs	r0, r4
 368 000c FFF7FEFF 		bl	block_size
 369              	.LVL26:
 456:..\..\..\arduinoLCD\test\Pain Drain\libraries\lvgl\src\misc/lv_tlsf.c ****     block_header_t * next = offset_to_block(block_to_ptr(block),
 370              		.loc 1 456 0
 371 0010 011F     		subs	r1, r0, #4
 372 0012 2800     		movs	r0, r5
 373 0014 FFF7FEFF 		bl	offset_to_block
 374              	.LVL27:
 375 0018 0500     		movs	r5, r0
 376              	.LVL28:
 458:..\..\..\arduinoLCD\test\Pain Drain\libraries\lvgl\src\misc/lv_tlsf.c ****     tlsf_assert(!block_is_last(block));
 377              		.loc 1 458 0
 378 001a 2000     		movs	r0, r4
 379              	.LVL29:
 380 001c FFF7FEFF 		bl	block_is_last
 381              	.LVL30:
 382 0020 0028     		cmp	r0, #0
 383 0022 00D0     		beq	.L17
 384              	.L18:
 385 0024 FEE7     		b	.L18
 386              	.L17:
 459:..\..\..\arduinoLCD\test\Pain Drain\libraries\lvgl\src\misc/lv_tlsf.c ****     return next;
 460:..\..\..\arduinoLCD\test\Pain Drain\libraries\lvgl\src\misc/lv_tlsf.c **** }
 387              		.loc 1 460 0
 388 0026 2800     		movs	r0, r5
 389              		@ sp needed
 390              	.LVL31:
 391              	.LVL32:
 392 0028 70BD     		pop	{r4, r5, r6, pc}
 393              		.cfi_endproc
 394              	.LFE16:
ARM GAS  C:\Users\haske\AppData\Local\Temp\ccswauRt.s 			page 16


 395              		.size	block_next, .-block_next
 396 002a C046     		.section	.text.block_link_next,"ax",%progbits
 397              		.align	2
 398              		.code	16
 399              		.thumb_func
 400              		.type	block_link_next, %function
 401              	block_link_next:
 402              	.LFB17:
 461:..\..\..\arduinoLCD\test\Pain Drain\libraries\lvgl\src\misc/lv_tlsf.c **** 
 462:..\..\..\arduinoLCD\test\Pain Drain\libraries\lvgl\src\misc/lv_tlsf.c **** /* Link a new block with its physical neighbor, return the neighbor. */
 463:..\..\..\arduinoLCD\test\Pain Drain\libraries\lvgl\src\misc/lv_tlsf.c **** static block_header_t * block_link_next(block_header_t * block)
 464:..\..\..\arduinoLCD\test\Pain Drain\libraries\lvgl\src\misc/lv_tlsf.c **** {
 403              		.loc 1 464 0
 404              		.cfi_startproc
 405              		@ args = 0, pretend = 0, frame = 0
 406              		@ frame_needed = 0, uses_anonymous_args = 0
 407              	.LVL33:
 408 0000 10B5     		push	{r4, lr}
 409              		.cfi_def_cfa_offset 8
 410              		.cfi_offset 4, -8
 411              		.cfi_offset 14, -4
 412 0002 0400     		movs	r4, r0
 465:..\..\..\arduinoLCD\test\Pain Drain\libraries\lvgl\src\misc/lv_tlsf.c ****     block_header_t * next = block_next(block);
 413              		.loc 1 465 0
 414 0004 FFF7FEFF 		bl	block_next
 415              	.LVL34:
 466:..\..\..\arduinoLCD\test\Pain Drain\libraries\lvgl\src\misc/lv_tlsf.c ****     next->prev_phys_block = block;
 416              		.loc 1 466 0
 417 0008 0460     		str	r4, [r0]
 467:..\..\..\arduinoLCD\test\Pain Drain\libraries\lvgl\src\misc/lv_tlsf.c ****     return next;
 468:..\..\..\arduinoLCD\test\Pain Drain\libraries\lvgl\src\misc/lv_tlsf.c **** }
 418              		.loc 1 468 0
 419              		@ sp needed
 420              	.LVL35:
 421 000a 10BD     		pop	{r4, pc}
 422              		.cfi_endproc
 423              	.LFE17:
 424              		.size	block_link_next, .-block_link_next
 425              		.section	.text.block_mark_as_free,"ax",%progbits
 426              		.align	2
 427              		.code	16
 428              		.thumb_func
 429              		.type	block_mark_as_free, %function
 430              	block_mark_as_free:
 431              	.LFB18:
 469:..\..\..\arduinoLCD\test\Pain Drain\libraries\lvgl\src\misc/lv_tlsf.c **** 
 470:..\..\..\arduinoLCD\test\Pain Drain\libraries\lvgl\src\misc/lv_tlsf.c **** static void block_mark_as_free(block_header_t * block)
 471:..\..\..\arduinoLCD\test\Pain Drain\libraries\lvgl\src\misc/lv_tlsf.c **** {
 432              		.loc 1 471 0
 433              		.cfi_startproc
 434              		@ args = 0, pretend = 0, frame = 0
 435              		@ frame_needed = 0, uses_anonymous_args = 0
 436              	.LVL36:
 437 0000 10B5     		push	{r4, lr}
 438              		.cfi_def_cfa_offset 8
 439              		.cfi_offset 4, -8
 440              		.cfi_offset 14, -4
ARM GAS  C:\Users\haske\AppData\Local\Temp\ccswauRt.s 			page 17


 441 0002 0400     		movs	r4, r0
 472:..\..\..\arduinoLCD\test\Pain Drain\libraries\lvgl\src\misc/lv_tlsf.c ****     /* Link the block to the next block, first. */
 473:..\..\..\arduinoLCD\test\Pain Drain\libraries\lvgl\src\misc/lv_tlsf.c ****     block_header_t * next = block_link_next(block);
 442              		.loc 1 473 0
 443 0004 FFF7FEFF 		bl	block_link_next
 444              	.LVL37:
 474:..\..\..\arduinoLCD\test\Pain Drain\libraries\lvgl\src\misc/lv_tlsf.c ****     block_set_prev_free(next);
 445              		.loc 1 474 0
 446 0008 FFF7FEFF 		bl	block_set_prev_free
 447              	.LVL38:
 475:..\..\..\arduinoLCD\test\Pain Drain\libraries\lvgl\src\misc/lv_tlsf.c ****     block_set_free(block);
 448              		.loc 1 475 0
 449 000c 2000     		movs	r0, r4
 450 000e FFF7FEFF 		bl	block_set_free
 451              	.LVL39:
 476:..\..\..\arduinoLCD\test\Pain Drain\libraries\lvgl\src\misc/lv_tlsf.c **** }
 452              		.loc 1 476 0
 453              		@ sp needed
 454              	.LVL40:
 455 0012 10BD     		pop	{r4, pc}
 456              		.cfi_endproc
 457              	.LFE18:
 458              		.size	block_mark_as_free, .-block_mark_as_free
 459              		.section	.text.block_mark_as_used,"ax",%progbits
 460              		.align	2
 461              		.code	16
 462              		.thumb_func
 463              		.type	block_mark_as_used, %function
 464              	block_mark_as_used:
 465              	.LFB19:
 477:..\..\..\arduinoLCD\test\Pain Drain\libraries\lvgl\src\misc/lv_tlsf.c **** 
 478:..\..\..\arduinoLCD\test\Pain Drain\libraries\lvgl\src\misc/lv_tlsf.c **** static void block_mark_as_used(block_header_t * block)
 479:..\..\..\arduinoLCD\test\Pain Drain\libraries\lvgl\src\misc/lv_tlsf.c **** {
 466              		.loc 1 479 0
 467              		.cfi_startproc
 468              		@ args = 0, pretend = 0, frame = 0
 469              		@ frame_needed = 0, uses_anonymous_args = 0
 470              	.LVL41:
 471 0000 10B5     		push	{r4, lr}
 472              		.cfi_def_cfa_offset 8
 473              		.cfi_offset 4, -8
 474              		.cfi_offset 14, -4
 475 0002 0400     		movs	r4, r0
 480:..\..\..\arduinoLCD\test\Pain Drain\libraries\lvgl\src\misc/lv_tlsf.c ****     block_header_t * next = block_next(block);
 476              		.loc 1 480 0
 477 0004 FFF7FEFF 		bl	block_next
 478              	.LVL42:
 481:..\..\..\arduinoLCD\test\Pain Drain\libraries\lvgl\src\misc/lv_tlsf.c ****     block_set_prev_used(next);
 479              		.loc 1 481 0
 480 0008 FFF7FEFF 		bl	block_set_prev_used
 481              	.LVL43:
 482:..\..\..\arduinoLCD\test\Pain Drain\libraries\lvgl\src\misc/lv_tlsf.c ****     block_set_used(block);
 482              		.loc 1 482 0
 483 000c 2000     		movs	r0, r4
 484 000e FFF7FEFF 		bl	block_set_used
 485              	.LVL44:
 483:..\..\..\arduinoLCD\test\Pain Drain\libraries\lvgl\src\misc/lv_tlsf.c **** }
ARM GAS  C:\Users\haske\AppData\Local\Temp\ccswauRt.s 			page 18


 486              		.loc 1 483 0
 487              		@ sp needed
 488              	.LVL45:
 489 0012 10BD     		pop	{r4, pc}
 490              		.cfi_endproc
 491              	.LFE19:
 492              		.size	block_mark_as_used, .-block_mark_as_used
 493              		.section	.text.align_up,"ax",%progbits
 494              		.align	2
 495              		.code	16
 496              		.thumb_func
 497              		.type	align_up, %function
 498              	align_up:
 499              	.LFB20:
 484:..\..\..\arduinoLCD\test\Pain Drain\libraries\lvgl\src\misc/lv_tlsf.c **** 
 485:..\..\..\arduinoLCD\test\Pain Drain\libraries\lvgl\src\misc/lv_tlsf.c **** static size_t align_up(size_t x, size_t align)
 486:..\..\..\arduinoLCD\test\Pain Drain\libraries\lvgl\src\misc/lv_tlsf.c **** {
 500              		.loc 1 486 0
 501              		.cfi_startproc
 502              		@ args = 0, pretend = 0, frame = 0
 503              		@ frame_needed = 0, uses_anonymous_args = 0
 504              		@ link register save eliminated.
 505              	.LVL46:
 487:..\..\..\arduinoLCD\test\Pain Drain\libraries\lvgl\src\misc/lv_tlsf.c ****     tlsf_assert(0 == (align & (align - 1)) && "must align to a power of two");
 506              		.loc 1 487 0
 507 0000 4B1E     		subs	r3, r1, #1
 508 0002 0B42     		tst	r3, r1
 509 0004 00D0     		beq	.L23
 510              	.L24:
 511 0006 FEE7     		b	.L24
 512              	.L23:
 488:..\..\..\arduinoLCD\test\Pain Drain\libraries\lvgl\src\misc/lv_tlsf.c ****     return (x + (align - 1)) & ~(align - 1);
 513              		.loc 1 488 0
 514 0008 0818     		adds	r0, r1, r0
 515              	.LVL47:
 516 000a 431E     		subs	r3, r0, #1
 517 000c 4842     		rsbs	r0, r1, #0
 518 000e 1840     		ands	r0, r3
 489:..\..\..\arduinoLCD\test\Pain Drain\libraries\lvgl\src\misc/lv_tlsf.c **** }
 519              		.loc 1 489 0
 520              		@ sp needed
 521 0010 7047     		bx	lr
 522              		.cfi_endproc
 523              	.LFE20:
 524              		.size	align_up, .-align_up
 525 0012 C046     		.section	.text.align_down,"ax",%progbits
 526              		.align	2
 527              		.code	16
 528              		.thumb_func
 529              		.type	align_down, %function
 530              	align_down:
 531              	.LFB21:
 490:..\..\..\arduinoLCD\test\Pain Drain\libraries\lvgl\src\misc/lv_tlsf.c **** 
 491:..\..\..\arduinoLCD\test\Pain Drain\libraries\lvgl\src\misc/lv_tlsf.c **** static size_t align_down(size_t x, size_t align)
 492:..\..\..\arduinoLCD\test\Pain Drain\libraries\lvgl\src\misc/lv_tlsf.c **** {
 532              		.loc 1 492 0
 533              		.cfi_startproc
ARM GAS  C:\Users\haske\AppData\Local\Temp\ccswauRt.s 			page 19


 534              		@ args = 0, pretend = 0, frame = 0
 535              		@ frame_needed = 0, uses_anonymous_args = 0
 536              		@ link register save eliminated.
 537              	.LVL48:
 493:..\..\..\arduinoLCD\test\Pain Drain\libraries\lvgl\src\misc/lv_tlsf.c ****     tlsf_assert(0 == (align & (align - 1)) && "must align to a power of two");
 538              		.loc 1 493 0
 539 0000 4B1E     		subs	r3, r1, #1
 540 0002 0B42     		tst	r3, r1
 541 0004 00D0     		beq	.L26
 542              	.L27:
 543 0006 FEE7     		b	.L27
 544              	.L26:
 494:..\..\..\arduinoLCD\test\Pain Drain\libraries\lvgl\src\misc/lv_tlsf.c ****     return x - (x & (align - 1));
 545              		.loc 1 494 0
 546 0008 4942     		rsbs	r1, r1, #0
 547              	.LVL49:
 548 000a 0840     		ands	r0, r1
 549              	.LVL50:
 495:..\..\..\arduinoLCD\test\Pain Drain\libraries\lvgl\src\misc/lv_tlsf.c **** }
 550              		.loc 1 495 0
 551              		@ sp needed
 552 000c 7047     		bx	lr
 553              		.cfi_endproc
 554              	.LFE21:
 555              		.size	align_down, .-align_down
 556 000e C046     		.section	.text.align_ptr,"ax",%progbits
 557              		.align	2
 558              		.code	16
 559              		.thumb_func
 560              		.type	align_ptr, %function
 561              	align_ptr:
 562              	.LFB22:
 496:..\..\..\arduinoLCD\test\Pain Drain\libraries\lvgl\src\misc/lv_tlsf.c **** 
 497:..\..\..\arduinoLCD\test\Pain Drain\libraries\lvgl\src\misc/lv_tlsf.c **** static void * align_ptr(const void * ptr, size_t align)
 498:..\..\..\arduinoLCD\test\Pain Drain\libraries\lvgl\src\misc/lv_tlsf.c **** {
 563              		.loc 1 498 0
 564              		.cfi_startproc
 565              		@ args = 0, pretend = 0, frame = 0
 566              		@ frame_needed = 0, uses_anonymous_args = 0
 567              		@ link register save eliminated.
 568              	.LVL51:
 499:..\..\..\arduinoLCD\test\Pain Drain\libraries\lvgl\src\misc/lv_tlsf.c ****     const tlsfptr_t aligned =
 500:..\..\..\arduinoLCD\test\Pain Drain\libraries\lvgl\src\misc/lv_tlsf.c ****         (tlsf_cast(tlsfptr_t, ptr) + (align - 1)) & ~(align - 1);
 569              		.loc 1 500 0
 570 0000 4018     		adds	r0, r0, r1
 571              	.LVL52:
 572 0002 0138     		subs	r0, r0, #1
 573 0004 4B42     		rsbs	r3, r1, #0
 574 0006 1840     		ands	r0, r3
 575              	.LVL53:
 501:..\..\..\arduinoLCD\test\Pain Drain\libraries\lvgl\src\misc/lv_tlsf.c ****     tlsf_assert(0 == (align & (align - 1)) && "must align to a power of two");
 576              		.loc 1 501 0
 577 0008 4B1E     		subs	r3, r1, #1
 578 000a 0B42     		tst	r3, r1
 579 000c 00D0     		beq	.L29
 580              	.L30:
 581 000e FEE7     		b	.L30
ARM GAS  C:\Users\haske\AppData\Local\Temp\ccswauRt.s 			page 20


 582              	.L29:
 502:..\..\..\arduinoLCD\test\Pain Drain\libraries\lvgl\src\misc/lv_tlsf.c ****     return tlsf_cast(void *, aligned);
 503:..\..\..\arduinoLCD\test\Pain Drain\libraries\lvgl\src\misc/lv_tlsf.c **** }
 583              		.loc 1 503 0
 584              		@ sp needed
 585 0010 7047     		bx	lr
 586              		.cfi_endproc
 587              	.LFE22:
 588              		.size	align_ptr, .-align_ptr
 589 0012 C046     		.section	.text.adjust_request_size,"ax",%progbits
 590              		.align	2
 591              		.code	16
 592              		.thumb_func
 593              		.type	adjust_request_size, %function
 594              	adjust_request_size:
 595              	.LFB23:
 504:..\..\..\arduinoLCD\test\Pain Drain\libraries\lvgl\src\misc/lv_tlsf.c **** 
 505:..\..\..\arduinoLCD\test\Pain Drain\libraries\lvgl\src\misc/lv_tlsf.c **** /*
 506:..\..\..\arduinoLCD\test\Pain Drain\libraries\lvgl\src\misc/lv_tlsf.c **** ** Adjust an allocation size to be aligned to word size, and no smaller
 507:..\..\..\arduinoLCD\test\Pain Drain\libraries\lvgl\src\misc/lv_tlsf.c **** ** than internal minimum.
 508:..\..\..\arduinoLCD\test\Pain Drain\libraries\lvgl\src\misc/lv_tlsf.c **** */
 509:..\..\..\arduinoLCD\test\Pain Drain\libraries\lvgl\src\misc/lv_tlsf.c **** static size_t adjust_request_size(size_t size, size_t align)
 510:..\..\..\arduinoLCD\test\Pain Drain\libraries\lvgl\src\misc/lv_tlsf.c **** {
 596              		.loc 1 510 0
 597              		.cfi_startproc
 598              		@ args = 0, pretend = 0, frame = 0
 599              		@ frame_needed = 0, uses_anonymous_args = 0
 600              	.LVL54:
 601 0000 10B5     		push	{r4, lr}
 602              		.cfi_def_cfa_offset 8
 603              		.cfi_offset 4, -8
 604              		.cfi_offset 14, -4
 605              	.LVL55:
 511:..\..\..\arduinoLCD\test\Pain Drain\libraries\lvgl\src\misc/lv_tlsf.c ****     size_t adjust = 0;
 512:..\..\..\arduinoLCD\test\Pain Drain\libraries\lvgl\src\misc/lv_tlsf.c ****     if(size) {
 606              		.loc 1 512 0
 607 0002 0028     		cmp	r0, #0
 608 0004 08D0     		beq	.L33
 609              	.LBB2:
 513:..\..\..\arduinoLCD\test\Pain Drain\libraries\lvgl\src\misc/lv_tlsf.c ****         const size_t aligned = align_up(size, align);
 610              		.loc 1 513 0
 611 0006 FFF7FEFF 		bl	align_up
 612              	.LVL56:
 514:..\..\..\arduinoLCD\test\Pain Drain\libraries\lvgl\src\misc/lv_tlsf.c **** 
 515:..\..\..\arduinoLCD\test\Pain Drain\libraries\lvgl\src\misc/lv_tlsf.c ****         /* aligned sized must not exceed block_size_max or we'll go out of bounds on sl_bitmap */
 516:..\..\..\arduinoLCD\test\Pain Drain\libraries\lvgl\src\misc/lv_tlsf.c ****         if(aligned < block_size_max) {
 613              		.loc 1 516 0
 614 000a 054B     		ldr	r3, .L35
 615 000c 9842     		cmp	r0, r3
 616 000e 05D8     		bhi	.L34
 517:..\..\..\arduinoLCD\test\Pain Drain\libraries\lvgl\src\misc/lv_tlsf.c ****             adjust = tlsf_max(aligned, block_size_min);
 617              		.loc 1 517 0
 618 0010 0C28     		cmp	r0, #12
 619 0012 04D8     		bhi	.L32
 620 0014 0C20     		movs	r0, #12
 621              	.LVL57:
 622 0016 02E0     		b	.L32
ARM GAS  C:\Users\haske\AppData\Local\Temp\ccswauRt.s 			page 21


 623              	.LVL58:
 624              	.L33:
 625              	.LBE2:
 511:..\..\..\arduinoLCD\test\Pain Drain\libraries\lvgl\src\misc/lv_tlsf.c ****     if(size) {
 626              		.loc 1 511 0
 627 0018 0020     		movs	r0, #0
 628              	.LVL59:
 629 001a 00E0     		b	.L32
 630              	.LVL60:
 631              	.L34:
 632 001c 0020     		movs	r0, #0
 633              	.LVL61:
 634              	.L32:
 518:..\..\..\arduinoLCD\test\Pain Drain\libraries\lvgl\src\misc/lv_tlsf.c ****         }
 519:..\..\..\arduinoLCD\test\Pain Drain\libraries\lvgl\src\misc/lv_tlsf.c ****     }
 520:..\..\..\arduinoLCD\test\Pain Drain\libraries\lvgl\src\misc/lv_tlsf.c ****     return adjust;
 521:..\..\..\arduinoLCD\test\Pain Drain\libraries\lvgl\src\misc/lv_tlsf.c **** }
 635              		.loc 1 521 0
 636              		@ sp needed
 637 001e 10BD     		pop	{r4, pc}
 638              	.L36:
 639              		.align	2
 640              	.L35:
 641 0020 FFFF0000 		.word	65535
 642              		.cfi_endproc
 643              	.LFE23:
 644              		.size	adjust_request_size, .-adjust_request_size
 645              		.section	.text.remove_free_block,"ax",%progbits
 646              		.align	2
 647              		.code	16
 648              		.thumb_func
 649              		.type	remove_free_block, %function
 650              	remove_free_block:
 651              	.LFB27:
 522:..\..\..\arduinoLCD\test\Pain Drain\libraries\lvgl\src\misc/lv_tlsf.c **** 
 523:..\..\..\arduinoLCD\test\Pain Drain\libraries\lvgl\src\misc/lv_tlsf.c **** /*
 524:..\..\..\arduinoLCD\test\Pain Drain\libraries\lvgl\src\misc/lv_tlsf.c **** ** TLSF utility functions. In most cases, these are direct translations of
 525:..\..\..\arduinoLCD\test\Pain Drain\libraries\lvgl\src\misc/lv_tlsf.c **** ** the documentation found in the white paper.
 526:..\..\..\arduinoLCD\test\Pain Drain\libraries\lvgl\src\misc/lv_tlsf.c **** */
 527:..\..\..\arduinoLCD\test\Pain Drain\libraries\lvgl\src\misc/lv_tlsf.c **** 
 528:..\..\..\arduinoLCD\test\Pain Drain\libraries\lvgl\src\misc/lv_tlsf.c **** static void mapping_insert(size_t size, int * fli, int * sli)
 529:..\..\..\arduinoLCD\test\Pain Drain\libraries\lvgl\src\misc/lv_tlsf.c **** {
 530:..\..\..\arduinoLCD\test\Pain Drain\libraries\lvgl\src\misc/lv_tlsf.c ****     int fl, sl;
 531:..\..\..\arduinoLCD\test\Pain Drain\libraries\lvgl\src\misc/lv_tlsf.c ****     if(size < SMALL_BLOCK_SIZE) {
 532:..\..\..\arduinoLCD\test\Pain Drain\libraries\lvgl\src\misc/lv_tlsf.c ****         /* Store small blocks in first list. */
 533:..\..\..\arduinoLCD\test\Pain Drain\libraries\lvgl\src\misc/lv_tlsf.c ****         fl = 0;
 534:..\..\..\arduinoLCD\test\Pain Drain\libraries\lvgl\src\misc/lv_tlsf.c ****         sl = tlsf_cast(int, size) / (SMALL_BLOCK_SIZE / SL_INDEX_COUNT);
 535:..\..\..\arduinoLCD\test\Pain Drain\libraries\lvgl\src\misc/lv_tlsf.c ****     }
 536:..\..\..\arduinoLCD\test\Pain Drain\libraries\lvgl\src\misc/lv_tlsf.c ****     else {
 537:..\..\..\arduinoLCD\test\Pain Drain\libraries\lvgl\src\misc/lv_tlsf.c ****         fl = tlsf_fls_sizet(size);
 538:..\..\..\arduinoLCD\test\Pain Drain\libraries\lvgl\src\misc/lv_tlsf.c ****         sl = tlsf_cast(int, size >> (fl - SL_INDEX_COUNT_LOG2)) ^ (1 << SL_INDEX_COUNT_LOG2);
 539:..\..\..\arduinoLCD\test\Pain Drain\libraries\lvgl\src\misc/lv_tlsf.c ****         fl -= (FL_INDEX_SHIFT - 1);
 540:..\..\..\arduinoLCD\test\Pain Drain\libraries\lvgl\src\misc/lv_tlsf.c ****     }
 541:..\..\..\arduinoLCD\test\Pain Drain\libraries\lvgl\src\misc/lv_tlsf.c ****     *fli = fl;
 542:..\..\..\arduinoLCD\test\Pain Drain\libraries\lvgl\src\misc/lv_tlsf.c ****     *sli = sl;
 543:..\..\..\arduinoLCD\test\Pain Drain\libraries\lvgl\src\misc/lv_tlsf.c **** }
 544:..\..\..\arduinoLCD\test\Pain Drain\libraries\lvgl\src\misc/lv_tlsf.c **** 
ARM GAS  C:\Users\haske\AppData\Local\Temp\ccswauRt.s 			page 22


 545:..\..\..\arduinoLCD\test\Pain Drain\libraries\lvgl\src\misc/lv_tlsf.c **** /* This version rounds up to the next block size (for allocations) */
 546:..\..\..\arduinoLCD\test\Pain Drain\libraries\lvgl\src\misc/lv_tlsf.c **** static void mapping_search(size_t size, int * fli, int * sli)
 547:..\..\..\arduinoLCD\test\Pain Drain\libraries\lvgl\src\misc/lv_tlsf.c **** {
 548:..\..\..\arduinoLCD\test\Pain Drain\libraries\lvgl\src\misc/lv_tlsf.c ****     if(size >= SMALL_BLOCK_SIZE) {
 549:..\..\..\arduinoLCD\test\Pain Drain\libraries\lvgl\src\misc/lv_tlsf.c ****         const size_t round = (1 << (tlsf_fls_sizet(size) - SL_INDEX_COUNT_LOG2)) - 1;
 550:..\..\..\arduinoLCD\test\Pain Drain\libraries\lvgl\src\misc/lv_tlsf.c ****         size += round;
 551:..\..\..\arduinoLCD\test\Pain Drain\libraries\lvgl\src\misc/lv_tlsf.c ****     }
 552:..\..\..\arduinoLCD\test\Pain Drain\libraries\lvgl\src\misc/lv_tlsf.c ****     mapping_insert(size, fli, sli);
 553:..\..\..\arduinoLCD\test\Pain Drain\libraries\lvgl\src\misc/lv_tlsf.c **** }
 554:..\..\..\arduinoLCD\test\Pain Drain\libraries\lvgl\src\misc/lv_tlsf.c **** 
 555:..\..\..\arduinoLCD\test\Pain Drain\libraries\lvgl\src\misc/lv_tlsf.c **** static block_header_t * search_suitable_block(control_t * control, int * fli, int * sli)
 556:..\..\..\arduinoLCD\test\Pain Drain\libraries\lvgl\src\misc/lv_tlsf.c **** {
 557:..\..\..\arduinoLCD\test\Pain Drain\libraries\lvgl\src\misc/lv_tlsf.c ****     int fl = *fli;
 558:..\..\..\arduinoLCD\test\Pain Drain\libraries\lvgl\src\misc/lv_tlsf.c ****     int sl = *sli;
 559:..\..\..\arduinoLCD\test\Pain Drain\libraries\lvgl\src\misc/lv_tlsf.c **** 
 560:..\..\..\arduinoLCD\test\Pain Drain\libraries\lvgl\src\misc/lv_tlsf.c ****     /*
 561:..\..\..\arduinoLCD\test\Pain Drain\libraries\lvgl\src\misc/lv_tlsf.c ****     ** First, search for a block in the list associated with the given
 562:..\..\..\arduinoLCD\test\Pain Drain\libraries\lvgl\src\misc/lv_tlsf.c ****     ** fl/sl index.
 563:..\..\..\arduinoLCD\test\Pain Drain\libraries\lvgl\src\misc/lv_tlsf.c ****     */
 564:..\..\..\arduinoLCD\test\Pain Drain\libraries\lvgl\src\misc/lv_tlsf.c ****     unsigned int sl_map = control->sl_bitmap[fl] & (~0U << sl);
 565:..\..\..\arduinoLCD\test\Pain Drain\libraries\lvgl\src\misc/lv_tlsf.c ****     if(!sl_map) {
 566:..\..\..\arduinoLCD\test\Pain Drain\libraries\lvgl\src\misc/lv_tlsf.c ****         /* No block exists. Search in the next largest first-level list. */
 567:..\..\..\arduinoLCD\test\Pain Drain\libraries\lvgl\src\misc/lv_tlsf.c ****         const unsigned int fl_map = control->fl_bitmap & (~0U << (fl + 1));
 568:..\..\..\arduinoLCD\test\Pain Drain\libraries\lvgl\src\misc/lv_tlsf.c ****         if(!fl_map) {
 569:..\..\..\arduinoLCD\test\Pain Drain\libraries\lvgl\src\misc/lv_tlsf.c ****             /* No free blocks available, memory has been exhausted. */
 570:..\..\..\arduinoLCD\test\Pain Drain\libraries\lvgl\src\misc/lv_tlsf.c ****             return 0;
 571:..\..\..\arduinoLCD\test\Pain Drain\libraries\lvgl\src\misc/lv_tlsf.c ****         }
 572:..\..\..\arduinoLCD\test\Pain Drain\libraries\lvgl\src\misc/lv_tlsf.c **** 
 573:..\..\..\arduinoLCD\test\Pain Drain\libraries\lvgl\src\misc/lv_tlsf.c ****         fl = tlsf_ffs(fl_map);
 574:..\..\..\arduinoLCD\test\Pain Drain\libraries\lvgl\src\misc/lv_tlsf.c ****         *fli = fl;
 575:..\..\..\arduinoLCD\test\Pain Drain\libraries\lvgl\src\misc/lv_tlsf.c ****         sl_map = control->sl_bitmap[fl];
 576:..\..\..\arduinoLCD\test\Pain Drain\libraries\lvgl\src\misc/lv_tlsf.c ****     }
 577:..\..\..\arduinoLCD\test\Pain Drain\libraries\lvgl\src\misc/lv_tlsf.c ****     tlsf_assert(sl_map && "internal error - second level bitmap is null");
 578:..\..\..\arduinoLCD\test\Pain Drain\libraries\lvgl\src\misc/lv_tlsf.c ****     sl = tlsf_ffs(sl_map);
 579:..\..\..\arduinoLCD\test\Pain Drain\libraries\lvgl\src\misc/lv_tlsf.c ****     *sli = sl;
 580:..\..\..\arduinoLCD\test\Pain Drain\libraries\lvgl\src\misc/lv_tlsf.c **** 
 581:..\..\..\arduinoLCD\test\Pain Drain\libraries\lvgl\src\misc/lv_tlsf.c ****     /* Return the first block in the free list. */
 582:..\..\..\arduinoLCD\test\Pain Drain\libraries\lvgl\src\misc/lv_tlsf.c ****     return control->blocks[fl][sl];
 583:..\..\..\arduinoLCD\test\Pain Drain\libraries\lvgl\src\misc/lv_tlsf.c **** }
 584:..\..\..\arduinoLCD\test\Pain Drain\libraries\lvgl\src\misc/lv_tlsf.c **** 
 585:..\..\..\arduinoLCD\test\Pain Drain\libraries\lvgl\src\misc/lv_tlsf.c **** /* Remove a free block from the free list.*/
 586:..\..\..\arduinoLCD\test\Pain Drain\libraries\lvgl\src\misc/lv_tlsf.c **** static void remove_free_block(control_t * control, block_header_t * block, int fl, int sl)
 587:..\..\..\arduinoLCD\test\Pain Drain\libraries\lvgl\src\misc/lv_tlsf.c **** {
 652              		.loc 1 587 0
 653              		.cfi_startproc
 654              		@ args = 0, pretend = 0, frame = 0
 655              		@ frame_needed = 0, uses_anonymous_args = 0
 656              	.LVL62:
 657 0000 30B5     		push	{r4, r5, lr}
 658              		.cfi_def_cfa_offset 12
 659              		.cfi_offset 4, -12
 660              		.cfi_offset 5, -8
 661              		.cfi_offset 14, -4
 588:..\..\..\arduinoLCD\test\Pain Drain\libraries\lvgl\src\misc/lv_tlsf.c ****     block_header_t * prev = block->prev_free;
 662              		.loc 1 588 0
 663 0002 CC68     		ldr	r4, [r1, #12]
 664              	.LVL63:
ARM GAS  C:\Users\haske\AppData\Local\Temp\ccswauRt.s 			page 23


 589:..\..\..\arduinoLCD\test\Pain Drain\libraries\lvgl\src\misc/lv_tlsf.c ****     block_header_t * next = block->next_free;
 665              		.loc 1 589 0
 666 0004 8D68     		ldr	r5, [r1, #8]
 667              	.LVL64:
 590:..\..\..\arduinoLCD\test\Pain Drain\libraries\lvgl\src\misc/lv_tlsf.c ****     tlsf_assert(prev && "prev_free field can not be null");
 668              		.loc 1 590 0
 669 0006 002C     		cmp	r4, #0
 670 0008 00D1     		bne	.L38
 671              	.L39:
 672 000a FEE7     		b	.L39
 673              	.L38:
 591:..\..\..\arduinoLCD\test\Pain Drain\libraries\lvgl\src\misc/lv_tlsf.c ****     tlsf_assert(next && "next_free field can not be null");
 674              		.loc 1 591 0
 675 000c 002D     		cmp	r5, #0
 676 000e 00D1     		bne	.L40
 677              	.L41:
 678 0010 FEE7     		b	.L41
 679              	.L40:
 592:..\..\..\arduinoLCD\test\Pain Drain\libraries\lvgl\src\misc/lv_tlsf.c ****     next->prev_free = prev;
 680              		.loc 1 592 0
 681 0012 EC60     		str	r4, [r5, #12]
 593:..\..\..\arduinoLCD\test\Pain Drain\libraries\lvgl\src\misc/lv_tlsf.c ****     prev->next_free = next;
 682              		.loc 1 593 0
 683 0014 A560     		str	r5, [r4, #8]
 594:..\..\..\arduinoLCD\test\Pain Drain\libraries\lvgl\src\misc/lv_tlsf.c **** 
 595:..\..\..\arduinoLCD\test\Pain Drain\libraries\lvgl\src\misc/lv_tlsf.c ****     /* If this block is the head of the free list, set new head. */
 596:..\..\..\arduinoLCD\test\Pain Drain\libraries\lvgl\src\misc/lv_tlsf.c ****     if(control->blocks[fl][sl] == block) {
 684              		.loc 1 596 0
 685 0016 5401     		lsls	r4, r2, #5
 686              	.LVL65:
 687 0018 E418     		adds	r4, r4, r3
 688 001a 0E34     		adds	r4, r4, #14
 689 001c A400     		lsls	r4, r4, #2
 690 001e 0419     		adds	r4, r0, r4
 691 0020 6468     		ldr	r4, [r4, #4]
 692 0022 A142     		cmp	r1, r4
 693 0024 15D1     		bne	.L37
 597:..\..\..\arduinoLCD\test\Pain Drain\libraries\lvgl\src\misc/lv_tlsf.c ****         control->blocks[fl][sl] = next;
 694              		.loc 1 597 0
 695 0026 5101     		lsls	r1, r2, #5
 696              	.LVL66:
 697 0028 C918     		adds	r1, r1, r3
 698 002a 0E31     		adds	r1, r1, #14
 699 002c 8900     		lsls	r1, r1, #2
 700 002e 4118     		adds	r1, r0, r1
 701 0030 4D60     		str	r5, [r1, #4]
 598:..\..\..\arduinoLCD\test\Pain Drain\libraries\lvgl\src\misc/lv_tlsf.c **** 
 599:..\..\..\arduinoLCD\test\Pain Drain\libraries\lvgl\src\misc/lv_tlsf.c ****         /* If the new head is null, clear the bitmap. */
 600:..\..\..\arduinoLCD\test\Pain Drain\libraries\lvgl\src\misc/lv_tlsf.c ****         if(next == &control->block_null) {
 702              		.loc 1 600 0
 703 0032 8542     		cmp	r5, r0
 704 0034 0DD1     		bne	.L37
 601:..\..\..\arduinoLCD\test\Pain Drain\libraries\lvgl\src\misc/lv_tlsf.c ****             control->sl_bitmap[fl] &= ~(1U << sl);
 705              		.loc 1 601 0
 706 0036 0121     		movs	r1, #1
 707 0038 9940     		lsls	r1, r1, r3
 708 003a 131D     		adds	r3, r2, #4
ARM GAS  C:\Users\haske\AppData\Local\Temp\ccswauRt.s 			page 24


 709              	.LVL67:
 710 003c 9B00     		lsls	r3, r3, #2
 711 003e C318     		adds	r3, r0, r3
 712 0040 5C68     		ldr	r4, [r3, #4]
 713 0042 8C43     		bics	r4, r1
 714 0044 5C60     		str	r4, [r3, #4]
 602:..\..\..\arduinoLCD\test\Pain Drain\libraries\lvgl\src\misc/lv_tlsf.c **** 
 603:..\..\..\arduinoLCD\test\Pain Drain\libraries\lvgl\src\misc/lv_tlsf.c ****             /* If the second bitmap is now empty, clear the fl bitmap. */
 604:..\..\..\arduinoLCD\test\Pain Drain\libraries\lvgl\src\misc/lv_tlsf.c ****             if(!control->sl_bitmap[fl]) {
 715              		.loc 1 604 0
 716 0046 04D1     		bne	.L37
 605:..\..\..\arduinoLCD\test\Pain Drain\libraries\lvgl\src\misc/lv_tlsf.c ****                 control->fl_bitmap &= ~(1U << fl);
 717              		.loc 1 605 0
 718 0048 0123     		movs	r3, #1
 719 004a 9340     		lsls	r3, r3, r2
 720 004c 0269     		ldr	r2, [r0, #16]
 721              	.LVL68:
 722 004e 9A43     		bics	r2, r3
 723 0050 0261     		str	r2, [r0, #16]
 724              	.L37:
 606:..\..\..\arduinoLCD\test\Pain Drain\libraries\lvgl\src\misc/lv_tlsf.c ****             }
 607:..\..\..\arduinoLCD\test\Pain Drain\libraries\lvgl\src\misc/lv_tlsf.c ****         }
 608:..\..\..\arduinoLCD\test\Pain Drain\libraries\lvgl\src\misc/lv_tlsf.c ****     }
 609:..\..\..\arduinoLCD\test\Pain Drain\libraries\lvgl\src\misc/lv_tlsf.c **** }
 725              		.loc 1 609 0
 726              		@ sp needed
 727              	.LVL69:
 728 0052 30BD     		pop	{r4, r5, pc}
 729              		.cfi_endproc
 730              	.LFE27:
 731              		.size	remove_free_block, .-remove_free_block
 732              		.section	.text.insert_free_block,"ax",%progbits
 733              		.align	2
 734              		.code	16
 735              		.thumb_func
 736              		.type	insert_free_block, %function
 737              	insert_free_block:
 738              	.LFB28:
 610:..\..\..\arduinoLCD\test\Pain Drain\libraries\lvgl\src\misc/lv_tlsf.c **** 
 611:..\..\..\arduinoLCD\test\Pain Drain\libraries\lvgl\src\misc/lv_tlsf.c **** /* Insert a free block into the free block list. */
 612:..\..\..\arduinoLCD\test\Pain Drain\libraries\lvgl\src\misc/lv_tlsf.c **** static void insert_free_block(control_t * control, block_header_t * block, int fl, int sl)
 613:..\..\..\arduinoLCD\test\Pain Drain\libraries\lvgl\src\misc/lv_tlsf.c **** {
 739              		.loc 1 613 0
 740              		.cfi_startproc
 741              		@ args = 0, pretend = 0, frame = 8
 742              		@ frame_needed = 0, uses_anonymous_args = 0
 743              	.LVL70:
 744 0000 F0B5     		push	{r4, r5, r6, r7, lr}
 745              		.cfi_def_cfa_offset 20
 746              		.cfi_offset 4, -20
 747              		.cfi_offset 5, -16
 748              		.cfi_offset 6, -12
 749              		.cfi_offset 7, -8
 750              		.cfi_offset 14, -4
 751 0002 83B0     		sub	sp, sp, #12
 752              		.cfi_def_cfa_offset 32
 753 0004 0500     		movs	r5, r0
ARM GAS  C:\Users\haske\AppData\Local\Temp\ccswauRt.s 			page 25


 754 0006 0E00     		movs	r6, r1
 755 0008 1400     		movs	r4, r2
 756 000a 1F00     		movs	r7, r3
 614:..\..\..\arduinoLCD\test\Pain Drain\libraries\lvgl\src\misc/lv_tlsf.c ****     block_header_t * current = control->blocks[fl][sl];
 757              		.loc 1 614 0
 758 000c 5301     		lsls	r3, r2, #5
 759              	.LVL71:
 760 000e DB19     		adds	r3, r3, r7
 761 0010 0E33     		adds	r3, r3, #14
 762 0012 9B00     		lsls	r3, r3, #2
 763 0014 C318     		adds	r3, r0, r3
 764 0016 5B68     		ldr	r3, [r3, #4]
 765              	.LVL72:
 615:..\..\..\arduinoLCD\test\Pain Drain\libraries\lvgl\src\misc/lv_tlsf.c ****     tlsf_assert(current && "free list cannot have a null entry");
 766              		.loc 1 615 0
 767 0018 002B     		cmp	r3, #0
 768 001a 00D1     		bne	.L44
 769              	.L45:
 770 001c FEE7     		b	.L45
 771              	.L44:
 616:..\..\..\arduinoLCD\test\Pain Drain\libraries\lvgl\src\misc/lv_tlsf.c ****     tlsf_assert(block && "cannot insert a null entry into the free list");
 772              		.loc 1 616 0
 773 001e 0029     		cmp	r1, #0
 774 0020 00D1     		bne	.L46
 775              	.L47:
 776 0022 FEE7     		b	.L47
 777              	.L46:
 617:..\..\..\arduinoLCD\test\Pain Drain\libraries\lvgl\src\misc/lv_tlsf.c ****     block->next_free = current;
 778              		.loc 1 617 0
 779 0024 8B60     		str	r3, [r1, #8]
 618:..\..\..\arduinoLCD\test\Pain Drain\libraries\lvgl\src\misc/lv_tlsf.c ****     block->prev_free = &control->block_null;
 780              		.loc 1 618 0
 781 0026 F060     		str	r0, [r6, #12]
 619:..\..\..\arduinoLCD\test\Pain Drain\libraries\lvgl\src\misc/lv_tlsf.c ****     current->prev_free = block;
 782              		.loc 1 619 0
 783 0028 D960     		str	r1, [r3, #12]
 620:..\..\..\arduinoLCD\test\Pain Drain\libraries\lvgl\src\misc/lv_tlsf.c **** 
 621:..\..\..\arduinoLCD\test\Pain Drain\libraries\lvgl\src\misc/lv_tlsf.c ****     tlsf_assert(block_to_ptr(block) == align_ptr(block_to_ptr(block), ALIGN_SIZE)
 784              		.loc 1 621 0
 785 002a 0800     		movs	r0, r1
 786              	.LVL73:
 787 002c FFF7FEFF 		bl	block_to_ptr
 788              	.LVL74:
 789 0030 0421     		movs	r1, #4
 790 0032 0190     		str	r0, [sp, #4]
 791 0034 FFF7FEFF 		bl	align_ptr
 792              	.LVL75:
 793 0038 019B     		ldr	r3, [sp, #4]
 794 003a 8342     		cmp	r3, r0
 795 003c 00D0     		beq	.L48
 796              	.L49:
 797 003e FEE7     		b	.L49
 798              	.L48:
 622:..\..\..\arduinoLCD\test\Pain Drain\libraries\lvgl\src\misc/lv_tlsf.c ****                 && "block not aligned properly");
 623:..\..\..\arduinoLCD\test\Pain Drain\libraries\lvgl\src\misc/lv_tlsf.c ****     /*
 624:..\..\..\arduinoLCD\test\Pain Drain\libraries\lvgl\src\misc/lv_tlsf.c ****     ** Insert the new block at the head of the list, and mark the first-
 625:..\..\..\arduinoLCD\test\Pain Drain\libraries\lvgl\src\misc/lv_tlsf.c ****     ** and second-level bitmaps appropriately.
ARM GAS  C:\Users\haske\AppData\Local\Temp\ccswauRt.s 			page 26


 626:..\..\..\arduinoLCD\test\Pain Drain\libraries\lvgl\src\misc/lv_tlsf.c ****     */
 627:..\..\..\arduinoLCD\test\Pain Drain\libraries\lvgl\src\misc/lv_tlsf.c ****     control->blocks[fl][sl] = block;
 799              		.loc 1 627 0
 800 0040 6301     		lsls	r3, r4, #5
 801 0042 DB19     		adds	r3, r3, r7
 802 0044 0E33     		adds	r3, r3, #14
 803 0046 9B00     		lsls	r3, r3, #2
 804 0048 EB18     		adds	r3, r5, r3
 805 004a 5E60     		str	r6, [r3, #4]
 628:..\..\..\arduinoLCD\test\Pain Drain\libraries\lvgl\src\misc/lv_tlsf.c ****     control->fl_bitmap |= (1U << fl);
 806              		.loc 1 628 0
 807 004c 0123     		movs	r3, #1
 808 004e 1A00     		movs	r2, r3
 809 0050 A240     		lsls	r2, r2, r4
 810 0052 2969     		ldr	r1, [r5, #16]
 811 0054 0A43     		orrs	r2, r1
 812 0056 2A61     		str	r2, [r5, #16]
 629:..\..\..\arduinoLCD\test\Pain Drain\libraries\lvgl\src\misc/lv_tlsf.c ****     control->sl_bitmap[fl] |= (1U << sl);
 813              		.loc 1 629 0
 814 0058 BB40     		lsls	r3, r3, r7
 815 005a 1A00     		movs	r2, r3
 816 005c 231D     		adds	r3, r4, #4
 817 005e 9B00     		lsls	r3, r3, #2
 818 0060 EB18     		adds	r3, r5, r3
 819 0062 5968     		ldr	r1, [r3, #4]
 820 0064 0A43     		orrs	r2, r1
 821 0066 5A60     		str	r2, [r3, #4]
 630:..\..\..\arduinoLCD\test\Pain Drain\libraries\lvgl\src\misc/lv_tlsf.c **** }
 822              		.loc 1 630 0
 823 0068 03B0     		add	sp, sp, #12
 824              		@ sp needed
 825              	.LVL76:
 826              	.LVL77:
 827              	.LVL78:
 828              	.LVL79:
 829 006a F0BD     		pop	{r4, r5, r6, r7, pc}
 830              		.cfi_endproc
 831              	.LFE28:
 832              		.size	insert_free_block, .-insert_free_block
 833              		.section	.text.block_can_split,"ax",%progbits
 834              		.align	2
 835              		.code	16
 836              		.thumb_func
 837              		.type	block_can_split, %function
 838              	block_can_split:
 839              	.LFB31:
 631:..\..\..\arduinoLCD\test\Pain Drain\libraries\lvgl\src\misc/lv_tlsf.c **** 
 632:..\..\..\arduinoLCD\test\Pain Drain\libraries\lvgl\src\misc/lv_tlsf.c **** /* Remove a given block from the free list. */
 633:..\..\..\arduinoLCD\test\Pain Drain\libraries\lvgl\src\misc/lv_tlsf.c **** static void block_remove(control_t * control, block_header_t * block)
 634:..\..\..\arduinoLCD\test\Pain Drain\libraries\lvgl\src\misc/lv_tlsf.c **** {
 635:..\..\..\arduinoLCD\test\Pain Drain\libraries\lvgl\src\misc/lv_tlsf.c ****     int fl, sl;
 636:..\..\..\arduinoLCD\test\Pain Drain\libraries\lvgl\src\misc/lv_tlsf.c ****     mapping_insert(block_size(block), &fl, &sl);
 637:..\..\..\arduinoLCD\test\Pain Drain\libraries\lvgl\src\misc/lv_tlsf.c ****     remove_free_block(control, block, fl, sl);
 638:..\..\..\arduinoLCD\test\Pain Drain\libraries\lvgl\src\misc/lv_tlsf.c **** }
 639:..\..\..\arduinoLCD\test\Pain Drain\libraries\lvgl\src\misc/lv_tlsf.c **** 
 640:..\..\..\arduinoLCD\test\Pain Drain\libraries\lvgl\src\misc/lv_tlsf.c **** /* Insert a given block into the free list. */
 641:..\..\..\arduinoLCD\test\Pain Drain\libraries\lvgl\src\misc/lv_tlsf.c **** static void block_insert(control_t * control, block_header_t * block)
ARM GAS  C:\Users\haske\AppData\Local\Temp\ccswauRt.s 			page 27


 642:..\..\..\arduinoLCD\test\Pain Drain\libraries\lvgl\src\misc/lv_tlsf.c **** {
 643:..\..\..\arduinoLCD\test\Pain Drain\libraries\lvgl\src\misc/lv_tlsf.c ****     int fl, sl;
 644:..\..\..\arduinoLCD\test\Pain Drain\libraries\lvgl\src\misc/lv_tlsf.c ****     mapping_insert(block_size(block), &fl, &sl);
 645:..\..\..\arduinoLCD\test\Pain Drain\libraries\lvgl\src\misc/lv_tlsf.c ****     insert_free_block(control, block, fl, sl);
 646:..\..\..\arduinoLCD\test\Pain Drain\libraries\lvgl\src\misc/lv_tlsf.c **** }
 647:..\..\..\arduinoLCD\test\Pain Drain\libraries\lvgl\src\misc/lv_tlsf.c **** 
 648:..\..\..\arduinoLCD\test\Pain Drain\libraries\lvgl\src\misc/lv_tlsf.c **** static int block_can_split(block_header_t * block, size_t size)
 649:..\..\..\arduinoLCD\test\Pain Drain\libraries\lvgl\src\misc/lv_tlsf.c **** {
 840              		.loc 1 649 0
 841              		.cfi_startproc
 842              		@ args = 0, pretend = 0, frame = 0
 843              		@ frame_needed = 0, uses_anonymous_args = 0
 844              	.LVL80:
 845 0000 10B5     		push	{r4, lr}
 846              		.cfi_def_cfa_offset 8
 847              		.cfi_offset 4, -8
 848              		.cfi_offset 14, -4
 849 0002 0C00     		movs	r4, r1
 650:..\..\..\arduinoLCD\test\Pain Drain\libraries\lvgl\src\misc/lv_tlsf.c ****     return block_size(block) >= sizeof(block_header_t) + size;
 850              		.loc 1 650 0
 851 0004 FFF7FEFF 		bl	block_size
 852              	.LVL81:
 853 0008 1034     		adds	r4, r4, #16
 854              	.LVL82:
 855 000a 0023     		movs	r3, #0
 856 000c A042     		cmp	r0, r4
 857 000e 5B41     		adcs	r3, r3, r3
 858 0010 D8B2     		uxtb	r0, r3
 651:..\..\..\arduinoLCD\test\Pain Drain\libraries\lvgl\src\misc/lv_tlsf.c **** }
 859              		.loc 1 651 0
 860              		@ sp needed
 861              	.LVL83:
 862 0012 10BD     		pop	{r4, pc}
 863              		.cfi_endproc
 864              	.LFE31:
 865              		.size	block_can_split, .-block_can_split
 866              		.section	.text.block_split,"ax",%progbits
 867              		.align	2
 868              		.code	16
 869              		.thumb_func
 870              		.type	block_split, %function
 871              	block_split:
 872              	.LFB32:
 652:..\..\..\arduinoLCD\test\Pain Drain\libraries\lvgl\src\misc/lv_tlsf.c **** 
 653:..\..\..\arduinoLCD\test\Pain Drain\libraries\lvgl\src\misc/lv_tlsf.c **** /* Split a block into two, the second of which is free. */
 654:..\..\..\arduinoLCD\test\Pain Drain\libraries\lvgl\src\misc/lv_tlsf.c **** static block_header_t * block_split(block_header_t * block, size_t size)
 655:..\..\..\arduinoLCD\test\Pain Drain\libraries\lvgl\src\misc/lv_tlsf.c **** {
 873              		.loc 1 655 0
 874              		.cfi_startproc
 875              		@ args = 0, pretend = 0, frame = 8
 876              		@ frame_needed = 0, uses_anonymous_args = 0
 877              	.LVL84:
 878 0000 F0B5     		push	{r4, r5, r6, r7, lr}
 879              		.cfi_def_cfa_offset 20
 880              		.cfi_offset 4, -20
 881              		.cfi_offset 5, -16
 882              		.cfi_offset 6, -12
ARM GAS  C:\Users\haske\AppData\Local\Temp\ccswauRt.s 			page 28


 883              		.cfi_offset 7, -8
 884              		.cfi_offset 14, -4
 885 0002 83B0     		sub	sp, sp, #12
 886              		.cfi_def_cfa_offset 32
 887 0004 0190     		str	r0, [sp, #4]
 888 0006 0D00     		movs	r5, r1
 656:..\..\..\arduinoLCD\test\Pain Drain\libraries\lvgl\src\misc/lv_tlsf.c ****     /* Calculate the amount of space left in the remaining block. */
 657:..\..\..\arduinoLCD\test\Pain Drain\libraries\lvgl\src\misc/lv_tlsf.c ****     block_header_t * remaining =
 658:..\..\..\arduinoLCD\test\Pain Drain\libraries\lvgl\src\misc/lv_tlsf.c ****         offset_to_block(block_to_ptr(block), size - block_header_overhead);
 889              		.loc 1 658 0
 890 0008 FFF7FEFF 		bl	block_to_ptr
 891              	.LVL85:
 892 000c 291F     		subs	r1, r5, #4
 657:..\..\..\arduinoLCD\test\Pain Drain\libraries\lvgl\src\misc/lv_tlsf.c ****         offset_to_block(block_to_ptr(block), size - block_header_overhead);
 893              		.loc 1 657 0
 894 000e FFF7FEFF 		bl	offset_to_block
 895              	.LVL86:
 896 0012 0090     		str	r0, [sp]
 897              	.LVL87:
 659:..\..\..\arduinoLCD\test\Pain Drain\libraries\lvgl\src\misc/lv_tlsf.c **** 
 660:..\..\..\arduinoLCD\test\Pain Drain\libraries\lvgl\src\misc/lv_tlsf.c ****     const size_t remain_size = block_size(block) - (size + block_header_overhead);
 898              		.loc 1 660 0
 899 0014 0198     		ldr	r0, [sp, #4]
 900              	.LVL88:
 901 0016 FFF7FEFF 		bl	block_size
 902              	.LVL89:
 903 001a 0400     		movs	r4, r0
 904 001c 431B     		subs	r3, r0, r5
 905 001e 1E1F     		subs	r6, r3, #4
 906              	.LVL90:
 661:..\..\..\arduinoLCD\test\Pain Drain\libraries\lvgl\src\misc/lv_tlsf.c **** 
 662:..\..\..\arduinoLCD\test\Pain Drain\libraries\lvgl\src\misc/lv_tlsf.c ****     tlsf_assert(block_to_ptr(remaining) == align_ptr(block_to_ptr(remaining), ALIGN_SIZE)
 907              		.loc 1 662 0
 908 0020 0098     		ldr	r0, [sp]
 909 0022 FFF7FEFF 		bl	block_to_ptr
 910              	.LVL91:
 911 0026 0700     		movs	r7, r0
 912 0028 0421     		movs	r1, #4
 913 002a FFF7FEFF 		bl	align_ptr
 914              	.LVL92:
 915 002e 8742     		cmp	r7, r0
 916 0030 00D0     		beq	.L52
 917              	.L53:
 918 0032 FEE7     		b	.L53
 919              	.L52:
 663:..\..\..\arduinoLCD\test\Pain Drain\libraries\lvgl\src\misc/lv_tlsf.c ****                 && "remaining block not aligned properly");
 664:..\..\..\arduinoLCD\test\Pain Drain\libraries\lvgl\src\misc/lv_tlsf.c **** 
 665:..\..\..\arduinoLCD\test\Pain Drain\libraries\lvgl\src\misc/lv_tlsf.c ****     tlsf_assert(block_size(block) == remain_size + size + block_header_overhead);
 920              		.loc 1 665 0
 921 0034 AB19     		adds	r3, r5, r6
 922 0036 0433     		adds	r3, r3, #4
 923 0038 9C42     		cmp	r4, r3
 924 003a 00D0     		beq	.L54
 925              	.L55:
 926 003c FEE7     		b	.L55
 927              	.L54:
 666:..\..\..\arduinoLCD\test\Pain Drain\libraries\lvgl\src\misc/lv_tlsf.c ****     block_set_size(remaining, remain_size);
ARM GAS  C:\Users\haske\AppData\Local\Temp\ccswauRt.s 			page 29


 928              		.loc 1 666 0
 929 003e 3100     		movs	r1, r6
 930 0040 0098     		ldr	r0, [sp]
 931 0042 FFF7FEFF 		bl	block_set_size
 932              	.LVL93:
 667:..\..\..\arduinoLCD\test\Pain Drain\libraries\lvgl\src\misc/lv_tlsf.c ****     tlsf_assert(block_size(remaining) >= block_size_min && "block split with invalid size");
 933              		.loc 1 667 0
 934 0046 0098     		ldr	r0, [sp]
 935 0048 FFF7FEFF 		bl	block_size
 936              	.LVL94:
 937 004c 0B28     		cmp	r0, #11
 938 004e 00D8     		bhi	.L56
 939              	.L57:
 940 0050 FEE7     		b	.L57
 941              	.L56:
 668:..\..\..\arduinoLCD\test\Pain Drain\libraries\lvgl\src\misc/lv_tlsf.c **** 
 669:..\..\..\arduinoLCD\test\Pain Drain\libraries\lvgl\src\misc/lv_tlsf.c ****     block_set_size(block, size);
 942              		.loc 1 669 0
 943 0052 2900     		movs	r1, r5
 944 0054 0198     		ldr	r0, [sp, #4]
 945 0056 FFF7FEFF 		bl	block_set_size
 946              	.LVL95:
 670:..\..\..\arduinoLCD\test\Pain Drain\libraries\lvgl\src\misc/lv_tlsf.c ****     block_mark_as_free(remaining);
 947              		.loc 1 670 0
 948 005a 0098     		ldr	r0, [sp]
 949 005c FFF7FEFF 		bl	block_mark_as_free
 950              	.LVL96:
 671:..\..\..\arduinoLCD\test\Pain Drain\libraries\lvgl\src\misc/lv_tlsf.c **** 
 672:..\..\..\arduinoLCD\test\Pain Drain\libraries\lvgl\src\misc/lv_tlsf.c ****     return remaining;
 673:..\..\..\arduinoLCD\test\Pain Drain\libraries\lvgl\src\misc/lv_tlsf.c **** }
 951              		.loc 1 673 0
 952 0060 0098     		ldr	r0, [sp]
 953 0062 03B0     		add	sp, sp, #12
 954              	.LVL97:
 955              		@ sp needed
 956              	.LVL98:
 957              	.LVL99:
 958 0064 F0BD     		pop	{r4, r5, r6, r7, pc}
 959              		.cfi_endproc
 960              	.LFE32:
 961              		.size	block_split, .-block_split
 962 0066 C046     		.section	.text.block_absorb,"ax",%progbits
 963              		.align	2
 964              		.code	16
 965              		.thumb_func
 966              		.type	block_absorb, %function
 967              	block_absorb:
 968              	.LFB33:
 674:..\..\..\arduinoLCD\test\Pain Drain\libraries\lvgl\src\misc/lv_tlsf.c **** 
 675:..\..\..\arduinoLCD\test\Pain Drain\libraries\lvgl\src\misc/lv_tlsf.c **** /* Absorb a free block's storage into an adjacent previous free block. */
 676:..\..\..\arduinoLCD\test\Pain Drain\libraries\lvgl\src\misc/lv_tlsf.c **** static block_header_t * block_absorb(block_header_t * prev, block_header_t * block)
 677:..\..\..\arduinoLCD\test\Pain Drain\libraries\lvgl\src\misc/lv_tlsf.c **** {
 969              		.loc 1 677 0
 970              		.cfi_startproc
 971              		@ args = 0, pretend = 0, frame = 0
 972              		@ frame_needed = 0, uses_anonymous_args = 0
 973              	.LVL100:
ARM GAS  C:\Users\haske\AppData\Local\Temp\ccswauRt.s 			page 30


 974 0000 70B5     		push	{r4, r5, r6, lr}
 975              		.cfi_def_cfa_offset 16
 976              		.cfi_offset 4, -16
 977              		.cfi_offset 5, -12
 978              		.cfi_offset 6, -8
 979              		.cfi_offset 14, -4
 980 0002 0400     		movs	r4, r0
 981 0004 0D00     		movs	r5, r1
 678:..\..\..\arduinoLCD\test\Pain Drain\libraries\lvgl\src\misc/lv_tlsf.c ****     tlsf_assert(!block_is_last(prev) && "previous block can't be last");
 982              		.loc 1 678 0
 983 0006 FFF7FEFF 		bl	block_is_last
 984              	.LVL101:
 985 000a 0028     		cmp	r0, #0
 986 000c 00D0     		beq	.L59
 987              	.L60:
 988 000e FEE7     		b	.L60
 989              	.L59:
 679:..\..\..\arduinoLCD\test\Pain Drain\libraries\lvgl\src\misc/lv_tlsf.c ****     /* Note: Leaves flags untouched. */
 680:..\..\..\arduinoLCD\test\Pain Drain\libraries\lvgl\src\misc/lv_tlsf.c ****     prev->size += block_size(block) + block_header_overhead;
 990              		.loc 1 680 0
 991 0010 2800     		movs	r0, r5
 992 0012 FFF7FEFF 		bl	block_size
 993              	.LVL102:
 994 0016 0430     		adds	r0, r0, #4
 995 0018 6368     		ldr	r3, [r4, #4]
 996 001a 9C46     		mov	ip, r3
 997 001c 6044     		add	r0, r0, ip
 998 001e 6060     		str	r0, [r4, #4]
 681:..\..\..\arduinoLCD\test\Pain Drain\libraries\lvgl\src\misc/lv_tlsf.c ****     block_link_next(prev);
 999              		.loc 1 681 0
 1000 0020 2000     		movs	r0, r4
 1001 0022 FFF7FEFF 		bl	block_link_next
 1002              	.LVL103:
 682:..\..\..\arduinoLCD\test\Pain Drain\libraries\lvgl\src\misc/lv_tlsf.c ****     return prev;
 683:..\..\..\arduinoLCD\test\Pain Drain\libraries\lvgl\src\misc/lv_tlsf.c **** }
 1003              		.loc 1 683 0
 1004 0026 2000     		movs	r0, r4
 1005              		@ sp needed
 1006              	.LVL104:
 1007              	.LVL105:
 1008 0028 70BD     		pop	{r4, r5, r6, pc}
 1009              		.cfi_endproc
 1010              	.LFE33:
 1011              		.size	block_absorb, .-block_absorb
 1012 002a C046     		.section	.text.control_constructor,"ax",%progbits
 1013              		.align	2
 1014              		.code	16
 1015              		.thumb_func
 1016              		.type	control_constructor, %function
 1017              	control_constructor:
 1018              	.LFB41:
 684:..\..\..\arduinoLCD\test\Pain Drain\libraries\lvgl\src\misc/lv_tlsf.c **** 
 685:..\..\..\arduinoLCD\test\Pain Drain\libraries\lvgl\src\misc/lv_tlsf.c **** /* Merge a just-freed block with an adjacent previous free block. */
 686:..\..\..\arduinoLCD\test\Pain Drain\libraries\lvgl\src\misc/lv_tlsf.c **** static block_header_t * block_merge_prev(control_t * control, block_header_t * block)
 687:..\..\..\arduinoLCD\test\Pain Drain\libraries\lvgl\src\misc/lv_tlsf.c **** {
 688:..\..\..\arduinoLCD\test\Pain Drain\libraries\lvgl\src\misc/lv_tlsf.c ****     if(block_is_prev_free(block)) {
 689:..\..\..\arduinoLCD\test\Pain Drain\libraries\lvgl\src\misc/lv_tlsf.c ****         block_header_t * prev = block_prev(block);
ARM GAS  C:\Users\haske\AppData\Local\Temp\ccswauRt.s 			page 31


 690:..\..\..\arduinoLCD\test\Pain Drain\libraries\lvgl\src\misc/lv_tlsf.c ****         tlsf_assert(prev && "prev physical block can't be null");
 691:..\..\..\arduinoLCD\test\Pain Drain\libraries\lvgl\src\misc/lv_tlsf.c ****         tlsf_assert(block_is_free(prev) && "prev block is not free though marked as such");
 692:..\..\..\arduinoLCD\test\Pain Drain\libraries\lvgl\src\misc/lv_tlsf.c ****         block_remove(control, prev);
 693:..\..\..\arduinoLCD\test\Pain Drain\libraries\lvgl\src\misc/lv_tlsf.c ****         block = block_absorb(prev, block);
 694:..\..\..\arduinoLCD\test\Pain Drain\libraries\lvgl\src\misc/lv_tlsf.c ****     }
 695:..\..\..\arduinoLCD\test\Pain Drain\libraries\lvgl\src\misc/lv_tlsf.c **** 
 696:..\..\..\arduinoLCD\test\Pain Drain\libraries\lvgl\src\misc/lv_tlsf.c ****     return block;
 697:..\..\..\arduinoLCD\test\Pain Drain\libraries\lvgl\src\misc/lv_tlsf.c **** }
 698:..\..\..\arduinoLCD\test\Pain Drain\libraries\lvgl\src\misc/lv_tlsf.c **** 
 699:..\..\..\arduinoLCD\test\Pain Drain\libraries\lvgl\src\misc/lv_tlsf.c **** /* Merge a just-freed block with an adjacent free block. */
 700:..\..\..\arduinoLCD\test\Pain Drain\libraries\lvgl\src\misc/lv_tlsf.c **** static block_header_t * block_merge_next(control_t * control, block_header_t * block)
 701:..\..\..\arduinoLCD\test\Pain Drain\libraries\lvgl\src\misc/lv_tlsf.c **** {
 702:..\..\..\arduinoLCD\test\Pain Drain\libraries\lvgl\src\misc/lv_tlsf.c ****     block_header_t * next = block_next(block);
 703:..\..\..\arduinoLCD\test\Pain Drain\libraries\lvgl\src\misc/lv_tlsf.c ****     tlsf_assert(next && "next physical block can't be null");
 704:..\..\..\arduinoLCD\test\Pain Drain\libraries\lvgl\src\misc/lv_tlsf.c **** 
 705:..\..\..\arduinoLCD\test\Pain Drain\libraries\lvgl\src\misc/lv_tlsf.c ****     if(block_is_free(next)) {
 706:..\..\..\arduinoLCD\test\Pain Drain\libraries\lvgl\src\misc/lv_tlsf.c ****         tlsf_assert(!block_is_last(block) && "previous block can't be last");
 707:..\..\..\arduinoLCD\test\Pain Drain\libraries\lvgl\src\misc/lv_tlsf.c ****         block_remove(control, next);
 708:..\..\..\arduinoLCD\test\Pain Drain\libraries\lvgl\src\misc/lv_tlsf.c ****         block = block_absorb(block, next);
 709:..\..\..\arduinoLCD\test\Pain Drain\libraries\lvgl\src\misc/lv_tlsf.c ****     }
 710:..\..\..\arduinoLCD\test\Pain Drain\libraries\lvgl\src\misc/lv_tlsf.c **** 
 711:..\..\..\arduinoLCD\test\Pain Drain\libraries\lvgl\src\misc/lv_tlsf.c ****     return block;
 712:..\..\..\arduinoLCD\test\Pain Drain\libraries\lvgl\src\misc/lv_tlsf.c **** }
 713:..\..\..\arduinoLCD\test\Pain Drain\libraries\lvgl\src\misc/lv_tlsf.c **** 
 714:..\..\..\arduinoLCD\test\Pain Drain\libraries\lvgl\src\misc/lv_tlsf.c **** /* Trim any trailing block space off the end of a block, return to pool. */
 715:..\..\..\arduinoLCD\test\Pain Drain\libraries\lvgl\src\misc/lv_tlsf.c **** static void block_trim_free(control_t * control, block_header_t * block, size_t size)
 716:..\..\..\arduinoLCD\test\Pain Drain\libraries\lvgl\src\misc/lv_tlsf.c **** {
 717:..\..\..\arduinoLCD\test\Pain Drain\libraries\lvgl\src\misc/lv_tlsf.c ****     tlsf_assert(block_is_free(block) && "block must be free");
 718:..\..\..\arduinoLCD\test\Pain Drain\libraries\lvgl\src\misc/lv_tlsf.c ****     if(block_can_split(block, size)) {
 719:..\..\..\arduinoLCD\test\Pain Drain\libraries\lvgl\src\misc/lv_tlsf.c ****         block_header_t * remaining_block = block_split(block, size);
 720:..\..\..\arduinoLCD\test\Pain Drain\libraries\lvgl\src\misc/lv_tlsf.c ****         block_link_next(block);
 721:..\..\..\arduinoLCD\test\Pain Drain\libraries\lvgl\src\misc/lv_tlsf.c ****         block_set_prev_free(remaining_block);
 722:..\..\..\arduinoLCD\test\Pain Drain\libraries\lvgl\src\misc/lv_tlsf.c ****         block_insert(control, remaining_block);
 723:..\..\..\arduinoLCD\test\Pain Drain\libraries\lvgl\src\misc/lv_tlsf.c ****     }
 724:..\..\..\arduinoLCD\test\Pain Drain\libraries\lvgl\src\misc/lv_tlsf.c **** }
 725:..\..\..\arduinoLCD\test\Pain Drain\libraries\lvgl\src\misc/lv_tlsf.c **** 
 726:..\..\..\arduinoLCD\test\Pain Drain\libraries\lvgl\src\misc/lv_tlsf.c **** /* Trim any trailing block space off the end of a used block, return to pool. */
 727:..\..\..\arduinoLCD\test\Pain Drain\libraries\lvgl\src\misc/lv_tlsf.c **** static void block_trim_used(control_t * control, block_header_t * block, size_t size)
 728:..\..\..\arduinoLCD\test\Pain Drain\libraries\lvgl\src\misc/lv_tlsf.c **** {
 729:..\..\..\arduinoLCD\test\Pain Drain\libraries\lvgl\src\misc/lv_tlsf.c ****     tlsf_assert(!block_is_free(block) && "block must be used");
 730:..\..\..\arduinoLCD\test\Pain Drain\libraries\lvgl\src\misc/lv_tlsf.c ****     if(block_can_split(block, size)) {
 731:..\..\..\arduinoLCD\test\Pain Drain\libraries\lvgl\src\misc/lv_tlsf.c ****         /* If the next block is free, we must coalesce. */
 732:..\..\..\arduinoLCD\test\Pain Drain\libraries\lvgl\src\misc/lv_tlsf.c ****         block_header_t * remaining_block = block_split(block, size);
 733:..\..\..\arduinoLCD\test\Pain Drain\libraries\lvgl\src\misc/lv_tlsf.c ****         block_set_prev_used(remaining_block);
 734:..\..\..\arduinoLCD\test\Pain Drain\libraries\lvgl\src\misc/lv_tlsf.c **** 
 735:..\..\..\arduinoLCD\test\Pain Drain\libraries\lvgl\src\misc/lv_tlsf.c ****         remaining_block = block_merge_next(control, remaining_block);
 736:..\..\..\arduinoLCD\test\Pain Drain\libraries\lvgl\src\misc/lv_tlsf.c ****         block_insert(control, remaining_block);
 737:..\..\..\arduinoLCD\test\Pain Drain\libraries\lvgl\src\misc/lv_tlsf.c ****     }
 738:..\..\..\arduinoLCD\test\Pain Drain\libraries\lvgl\src\misc/lv_tlsf.c **** }
 739:..\..\..\arduinoLCD\test\Pain Drain\libraries\lvgl\src\misc/lv_tlsf.c **** 
 740:..\..\..\arduinoLCD\test\Pain Drain\libraries\lvgl\src\misc/lv_tlsf.c **** static block_header_t * block_trim_free_leading(control_t * control, block_header_t * block, size_t
 741:..\..\..\arduinoLCD\test\Pain Drain\libraries\lvgl\src\misc/lv_tlsf.c **** {
 742:..\..\..\arduinoLCD\test\Pain Drain\libraries\lvgl\src\misc/lv_tlsf.c ****     block_header_t * remaining_block = block;
 743:..\..\..\arduinoLCD\test\Pain Drain\libraries\lvgl\src\misc/lv_tlsf.c ****     if(block_can_split(block, size)) {
 744:..\..\..\arduinoLCD\test\Pain Drain\libraries\lvgl\src\misc/lv_tlsf.c ****         /* We want the 2nd block. */
 745:..\..\..\arduinoLCD\test\Pain Drain\libraries\lvgl\src\misc/lv_tlsf.c ****         remaining_block = block_split(block, size - block_header_overhead);
 746:..\..\..\arduinoLCD\test\Pain Drain\libraries\lvgl\src\misc/lv_tlsf.c ****         block_set_prev_free(remaining_block);
ARM GAS  C:\Users\haske\AppData\Local\Temp\ccswauRt.s 			page 32


 747:..\..\..\arduinoLCD\test\Pain Drain\libraries\lvgl\src\misc/lv_tlsf.c **** 
 748:..\..\..\arduinoLCD\test\Pain Drain\libraries\lvgl\src\misc/lv_tlsf.c ****         block_link_next(block);
 749:..\..\..\arduinoLCD\test\Pain Drain\libraries\lvgl\src\misc/lv_tlsf.c ****         block_insert(control, block);
 750:..\..\..\arduinoLCD\test\Pain Drain\libraries\lvgl\src\misc/lv_tlsf.c ****     }
 751:..\..\..\arduinoLCD\test\Pain Drain\libraries\lvgl\src\misc/lv_tlsf.c **** 
 752:..\..\..\arduinoLCD\test\Pain Drain\libraries\lvgl\src\misc/lv_tlsf.c ****     return remaining_block;
 753:..\..\..\arduinoLCD\test\Pain Drain\libraries\lvgl\src\misc/lv_tlsf.c **** }
 754:..\..\..\arduinoLCD\test\Pain Drain\libraries\lvgl\src\misc/lv_tlsf.c **** 
 755:..\..\..\arduinoLCD\test\Pain Drain\libraries\lvgl\src\misc/lv_tlsf.c **** static block_header_t * block_locate_free(control_t * control, size_t size)
 756:..\..\..\arduinoLCD\test\Pain Drain\libraries\lvgl\src\misc/lv_tlsf.c **** {
 757:..\..\..\arduinoLCD\test\Pain Drain\libraries\lvgl\src\misc/lv_tlsf.c ****     int fl = 0, sl = 0;
 758:..\..\..\arduinoLCD\test\Pain Drain\libraries\lvgl\src\misc/lv_tlsf.c ****     block_header_t * block = 0;
 759:..\..\..\arduinoLCD\test\Pain Drain\libraries\lvgl\src\misc/lv_tlsf.c **** 
 760:..\..\..\arduinoLCD\test\Pain Drain\libraries\lvgl\src\misc/lv_tlsf.c ****     if(size) {
 761:..\..\..\arduinoLCD\test\Pain Drain\libraries\lvgl\src\misc/lv_tlsf.c ****         mapping_search(size, &fl, &sl);
 762:..\..\..\arduinoLCD\test\Pain Drain\libraries\lvgl\src\misc/lv_tlsf.c **** 
 763:..\..\..\arduinoLCD\test\Pain Drain\libraries\lvgl\src\misc/lv_tlsf.c ****         /*
 764:..\..\..\arduinoLCD\test\Pain Drain\libraries\lvgl\src\misc/lv_tlsf.c ****         ** mapping_search can futz with the size, so for excessively large sizes it can sometimes w
 765:..\..\..\arduinoLCD\test\Pain Drain\libraries\lvgl\src\misc/lv_tlsf.c ****         ** with indices that are off the end of the block array.
 766:..\..\..\arduinoLCD\test\Pain Drain\libraries\lvgl\src\misc/lv_tlsf.c ****         ** So, we protect against that here, since this is the only callsite of mapping_search.
 767:..\..\..\arduinoLCD\test\Pain Drain\libraries\lvgl\src\misc/lv_tlsf.c ****         ** Note that we don't need to check sl, since it comes from a modulo operation that guarant
 768:..\..\..\arduinoLCD\test\Pain Drain\libraries\lvgl\src\misc/lv_tlsf.c ****         */
 769:..\..\..\arduinoLCD\test\Pain Drain\libraries\lvgl\src\misc/lv_tlsf.c ****         if(fl < FL_INDEX_COUNT) {
 770:..\..\..\arduinoLCD\test\Pain Drain\libraries\lvgl\src\misc/lv_tlsf.c ****             block = search_suitable_block(control, &fl, &sl);
 771:..\..\..\arduinoLCD\test\Pain Drain\libraries\lvgl\src\misc/lv_tlsf.c ****         }
 772:..\..\..\arduinoLCD\test\Pain Drain\libraries\lvgl\src\misc/lv_tlsf.c ****     }
 773:..\..\..\arduinoLCD\test\Pain Drain\libraries\lvgl\src\misc/lv_tlsf.c **** 
 774:..\..\..\arduinoLCD\test\Pain Drain\libraries\lvgl\src\misc/lv_tlsf.c ****     if(block) {
 775:..\..\..\arduinoLCD\test\Pain Drain\libraries\lvgl\src\misc/lv_tlsf.c ****         tlsf_assert(block_size(block) >= size);
 776:..\..\..\arduinoLCD\test\Pain Drain\libraries\lvgl\src\misc/lv_tlsf.c ****         remove_free_block(control, block, fl, sl);
 777:..\..\..\arduinoLCD\test\Pain Drain\libraries\lvgl\src\misc/lv_tlsf.c ****     }
 778:..\..\..\arduinoLCD\test\Pain Drain\libraries\lvgl\src\misc/lv_tlsf.c **** 
 779:..\..\..\arduinoLCD\test\Pain Drain\libraries\lvgl\src\misc/lv_tlsf.c ****     return block;
 780:..\..\..\arduinoLCD\test\Pain Drain\libraries\lvgl\src\misc/lv_tlsf.c **** }
 781:..\..\..\arduinoLCD\test\Pain Drain\libraries\lvgl\src\misc/lv_tlsf.c **** 
 782:..\..\..\arduinoLCD\test\Pain Drain\libraries\lvgl\src\misc/lv_tlsf.c **** static void * block_prepare_used(control_t * control, block_header_t * block, size_t size)
 783:..\..\..\arduinoLCD\test\Pain Drain\libraries\lvgl\src\misc/lv_tlsf.c **** {
 784:..\..\..\arduinoLCD\test\Pain Drain\libraries\lvgl\src\misc/lv_tlsf.c ****     void * p = 0;
 785:..\..\..\arduinoLCD\test\Pain Drain\libraries\lvgl\src\misc/lv_tlsf.c ****     if(block) {
 786:..\..\..\arduinoLCD\test\Pain Drain\libraries\lvgl\src\misc/lv_tlsf.c ****         tlsf_assert(size && "size must be non-zero");
 787:..\..\..\arduinoLCD\test\Pain Drain\libraries\lvgl\src\misc/lv_tlsf.c ****         block_trim_free(control, block, size);
 788:..\..\..\arduinoLCD\test\Pain Drain\libraries\lvgl\src\misc/lv_tlsf.c ****         block_mark_as_used(block);
 789:..\..\..\arduinoLCD\test\Pain Drain\libraries\lvgl\src\misc/lv_tlsf.c ****         p = block_to_ptr(block);
 790:..\..\..\arduinoLCD\test\Pain Drain\libraries\lvgl\src\misc/lv_tlsf.c ****     }
 791:..\..\..\arduinoLCD\test\Pain Drain\libraries\lvgl\src\misc/lv_tlsf.c ****     return p;
 792:..\..\..\arduinoLCD\test\Pain Drain\libraries\lvgl\src\misc/lv_tlsf.c **** }
 793:..\..\..\arduinoLCD\test\Pain Drain\libraries\lvgl\src\misc/lv_tlsf.c **** 
 794:..\..\..\arduinoLCD\test\Pain Drain\libraries\lvgl\src\misc/lv_tlsf.c **** /* Clear structure and point all empty lists at the null block. */
 795:..\..\..\arduinoLCD\test\Pain Drain\libraries\lvgl\src\misc/lv_tlsf.c **** static void control_constructor(control_t * control)
 796:..\..\..\arduinoLCD\test\Pain Drain\libraries\lvgl\src\misc/lv_tlsf.c **** {
 1019              		.loc 1 796 0
 1020              		.cfi_startproc
 1021              		@ args = 0, pretend = 0, frame = 0
 1022              		@ frame_needed = 0, uses_anonymous_args = 0
 1023              	.LVL106:
 1024 0000 10B5     		push	{r4, lr}
 1025              		.cfi_def_cfa_offset 8
ARM GAS  C:\Users\haske\AppData\Local\Temp\ccswauRt.s 			page 33


 1026              		.cfi_offset 4, -8
 1027              		.cfi_offset 14, -4
 797:..\..\..\arduinoLCD\test\Pain Drain\libraries\lvgl\src\misc/lv_tlsf.c ****     int i, j;
 798:..\..\..\arduinoLCD\test\Pain Drain\libraries\lvgl\src\misc/lv_tlsf.c **** 
 799:..\..\..\arduinoLCD\test\Pain Drain\libraries\lvgl\src\misc/lv_tlsf.c ****     control->block_null.next_free = &control->block_null;
 1028              		.loc 1 799 0
 1029 0002 0400     		movs	r4, r0
 1030 0004 8060     		str	r0, [r0, #8]
 800:..\..\..\arduinoLCD\test\Pain Drain\libraries\lvgl\src\misc/lv_tlsf.c ****     control->block_null.prev_free = &control->block_null;
 1031              		.loc 1 800 0
 1032 0006 C060     		str	r0, [r0, #12]
 801:..\..\..\arduinoLCD\test\Pain Drain\libraries\lvgl\src\misc/lv_tlsf.c **** 
 802:..\..\..\arduinoLCD\test\Pain Drain\libraries\lvgl\src\misc/lv_tlsf.c ****     control->fl_bitmap = 0;
 1033              		.loc 1 802 0
 1034 0008 0023     		movs	r3, #0
 1035 000a 0361     		str	r3, [r0, #16]
 1036              	.LVL107:
 803:..\..\..\arduinoLCD\test\Pain Drain\libraries\lvgl\src\misc/lv_tlsf.c ****     for(i = 0; i < FL_INDEX_COUNT; ++i) {
 1037              		.loc 1 803 0
 1038 000c 0021     		movs	r1, #0
 1039 000e 0FE0     		b	.L62
 1040              	.LVL108:
 1041              	.L65:
 804:..\..\..\arduinoLCD\test\Pain Drain\libraries\lvgl\src\misc/lv_tlsf.c ****         control->sl_bitmap[i] = 0;
 1042              		.loc 1 804 0
 1043 0010 0B1D     		adds	r3, r1, #4
 1044 0012 9B00     		lsls	r3, r3, #2
 1045 0014 C318     		adds	r3, r0, r3
 1046 0016 0022     		movs	r2, #0
 1047 0018 5A60     		str	r2, [r3, #4]
 1048              	.LVL109:
 805:..\..\..\arduinoLCD\test\Pain Drain\libraries\lvgl\src\misc/lv_tlsf.c ****         for(j = 0; j < SL_INDEX_COUNT; ++j) {
 1049              		.loc 1 805 0
 1050 001a 06E0     		b	.L63
 1051              	.LVL110:
 1052              	.L64:
 806:..\..\..\arduinoLCD\test\Pain Drain\libraries\lvgl\src\misc/lv_tlsf.c ****             control->blocks[i][j] = &control->block_null;
 1053              		.loc 1 806 0 discriminator 3
 1054 001c 4B01     		lsls	r3, r1, #5
 1055 001e 9B18     		adds	r3, r3, r2
 1056 0020 0E33     		adds	r3, r3, #14
 1057 0022 9B00     		lsls	r3, r3, #2
 1058 0024 C318     		adds	r3, r0, r3
 1059 0026 5C60     		str	r4, [r3, #4]
 805:..\..\..\arduinoLCD\test\Pain Drain\libraries\lvgl\src\misc/lv_tlsf.c ****         for(j = 0; j < SL_INDEX_COUNT; ++j) {
 1060              		.loc 1 805 0 discriminator 3
 1061 0028 0132     		adds	r2, r2, #1
 1062              	.LVL111:
 1063              	.L63:
 805:..\..\..\arduinoLCD\test\Pain Drain\libraries\lvgl\src\misc/lv_tlsf.c ****         for(j = 0; j < SL_INDEX_COUNT; ++j) {
 1064              		.loc 1 805 0 is_stmt 0 discriminator 1
 1065 002a 1F2A     		cmp	r2, #31
 1066 002c F6DD     		ble	.L64
 803:..\..\..\arduinoLCD\test\Pain Drain\libraries\lvgl\src\misc/lv_tlsf.c ****         control->sl_bitmap[i] = 0;
 1067              		.loc 1 803 0 is_stmt 1 discriminator 2
 1068 002e 0131     		adds	r1, r1, #1
 1069              	.LVL112:
ARM GAS  C:\Users\haske\AppData\Local\Temp\ccswauRt.s 			page 34


 1070              	.L62:
 803:..\..\..\arduinoLCD\test\Pain Drain\libraries\lvgl\src\misc/lv_tlsf.c ****         control->sl_bitmap[i] = 0;
 1071              		.loc 1 803 0 is_stmt 0 discriminator 1
 1072 0030 0929     		cmp	r1, #9
 1073 0032 EDDD     		ble	.L65
 807:..\..\..\arduinoLCD\test\Pain Drain\libraries\lvgl\src\misc/lv_tlsf.c ****         }
 808:..\..\..\arduinoLCD\test\Pain Drain\libraries\lvgl\src\misc/lv_tlsf.c ****     }
 809:..\..\..\arduinoLCD\test\Pain Drain\libraries\lvgl\src\misc/lv_tlsf.c **** }
 1074              		.loc 1 809 0 is_stmt 1
 1075              		@ sp needed
 1076 0034 10BD     		pop	{r4, pc}
 1077              		.cfi_endproc
 1078              	.LFE41:
 1079              		.size	control_constructor, .-control_constructor
 1080 0036 C046     		.section	.text.integrity_walker,"ax",%progbits
 1081              		.align	2
 1082              		.code	16
 1083              		.thumb_func
 1084              		.type	integrity_walker, %function
 1085              	integrity_walker:
 1086              	.LFB42:
 810:..\..\..\arduinoLCD\test\Pain Drain\libraries\lvgl\src\misc/lv_tlsf.c **** 
 811:..\..\..\arduinoLCD\test\Pain Drain\libraries\lvgl\src\misc/lv_tlsf.c **** /*
 812:..\..\..\arduinoLCD\test\Pain Drain\libraries\lvgl\src\misc/lv_tlsf.c **** ** Debugging utilities.
 813:..\..\..\arduinoLCD\test\Pain Drain\libraries\lvgl\src\misc/lv_tlsf.c **** */
 814:..\..\..\arduinoLCD\test\Pain Drain\libraries\lvgl\src\misc/lv_tlsf.c **** 
 815:..\..\..\arduinoLCD\test\Pain Drain\libraries\lvgl\src\misc/lv_tlsf.c **** typedef struct integrity_t {
 816:..\..\..\arduinoLCD\test\Pain Drain\libraries\lvgl\src\misc/lv_tlsf.c ****     int prev_status;
 817:..\..\..\arduinoLCD\test\Pain Drain\libraries\lvgl\src\misc/lv_tlsf.c ****     int status;
 818:..\..\..\arduinoLCD\test\Pain Drain\libraries\lvgl\src\misc/lv_tlsf.c **** } integrity_t;
 819:..\..\..\arduinoLCD\test\Pain Drain\libraries\lvgl\src\misc/lv_tlsf.c **** 
 820:..\..\..\arduinoLCD\test\Pain Drain\libraries\lvgl\src\misc/lv_tlsf.c **** #define tlsf_insist(x) { tlsf_assert(x); if (!(x)) { status--; } }
 821:..\..\..\arduinoLCD\test\Pain Drain\libraries\lvgl\src\misc/lv_tlsf.c **** 
 822:..\..\..\arduinoLCD\test\Pain Drain\libraries\lvgl\src\misc/lv_tlsf.c **** static void integrity_walker(void * ptr, size_t size, int used, void * user)
 823:..\..\..\arduinoLCD\test\Pain Drain\libraries\lvgl\src\misc/lv_tlsf.c **** {
 1087              		.loc 1 823 0
 1088              		.cfi_startproc
 1089              		@ args = 0, pretend = 0, frame = 8
 1090              		@ frame_needed = 0, uses_anonymous_args = 0
 1091              	.LVL113:
 1092 0000 F0B5     		push	{r4, r5, r6, r7, lr}
 1093              		.cfi_def_cfa_offset 20
 1094              		.cfi_offset 4, -20
 1095              		.cfi_offset 5, -16
 1096              		.cfi_offset 6, -12
 1097              		.cfi_offset 7, -8
 1098              		.cfi_offset 14, -4
 1099 0002 83B0     		sub	sp, sp, #12
 1100              		.cfi_def_cfa_offset 32
 1101 0004 0E00     		movs	r6, r1
 1102 0006 1F00     		movs	r7, r3
 824:..\..\..\arduinoLCD\test\Pain Drain\libraries\lvgl\src\misc/lv_tlsf.c ****     block_header_t * block = block_from_ptr(ptr);
 1103              		.loc 1 824 0
 1104 0008 FFF7FEFF 		bl	block_from_ptr
 1105              	.LVL114:
 1106 000c 0500     		movs	r5, r0
 1107              	.LVL115:
ARM GAS  C:\Users\haske\AppData\Local\Temp\ccswauRt.s 			page 35


 825:..\..\..\arduinoLCD\test\Pain Drain\libraries\lvgl\src\misc/lv_tlsf.c ****     integrity_t * integ = tlsf_cast(integrity_t *, user);
 826:..\..\..\arduinoLCD\test\Pain Drain\libraries\lvgl\src\misc/lv_tlsf.c ****     const int this_prev_status = block_is_prev_free(block) ? 1 : 0;
 1108              		.loc 1 826 0
 1109 000e FFF7FEFF 		bl	block_is_prev_free
 1110              	.LVL116:
 1111 0012 0400     		movs	r4, r0
 1112 0014 601E     		subs	r0, r4, #1
 1113 0016 8441     		sbcs	r4, r4, r0
 1114 0018 E4B2     		uxtb	r4, r4
 1115              	.LVL117:
 827:..\..\..\arduinoLCD\test\Pain Drain\libraries\lvgl\src\misc/lv_tlsf.c ****     const int this_status = block_is_free(block) ? 1 : 0;
 1116              		.loc 1 827 0
 1117 001a 0195     		str	r5, [sp, #4]
 1118 001c 2800     		movs	r0, r5
 1119 001e FFF7FEFF 		bl	block_is_free
 1120              	.LVL118:
 1121 0022 0300     		movs	r3, r0
 1122 0024 581E     		subs	r0, r3, #1
 1123 0026 8341     		sbcs	r3, r3, r0
 1124 0028 DDB2     		uxtb	r5, r3
 1125              	.LVL119:
 828:..\..\..\arduinoLCD\test\Pain Drain\libraries\lvgl\src\misc/lv_tlsf.c ****     const size_t this_block_size = block_size(block);
 1126              		.loc 1 828 0
 1127 002a 0198     		ldr	r0, [sp, #4]
 1128 002c FFF7FEFF 		bl	block_size
 1129              	.LVL120:
 829:..\..\..\arduinoLCD\test\Pain Drain\libraries\lvgl\src\misc/lv_tlsf.c **** 
 830:..\..\..\arduinoLCD\test\Pain Drain\libraries\lvgl\src\misc/lv_tlsf.c ****     int status = 0;
 831:..\..\..\arduinoLCD\test\Pain Drain\libraries\lvgl\src\misc/lv_tlsf.c ****     LV_UNUSED(used);
 832:..\..\..\arduinoLCD\test\Pain Drain\libraries\lvgl\src\misc/lv_tlsf.c ****     tlsf_insist(integ->prev_status == this_prev_status && "prev status incorrect");
 1130              		.loc 1 832 0
 1131 0030 3B68     		ldr	r3, [r7]
 1132 0032 9C42     		cmp	r4, r3
 1133 0034 00D0     		beq	.L67
 1134              	.L68:
 1135 0036 FEE7     		b	.L68
 1136              	.L67:
 1137              		.loc 1 832 0 is_stmt 0 discriminator 1
 1138 0038 9C42     		cmp	r4, r3
 1139 003a 01D1     		bne	.L73
 830:..\..\..\arduinoLCD\test\Pain Drain\libraries\lvgl\src\misc/lv_tlsf.c ****     LV_UNUSED(used);
 1140              		.loc 1 830 0 is_stmt 1
 1141 003c 0023     		movs	r3, #0
 1142 003e 01E0     		b	.L69
 1143              	.L73:
 1144              		.loc 1 832 0
 1145 0040 0123     		movs	r3, #1
 1146 0042 5B42     		rsbs	r3, r3, #0
 1147              	.L69:
 1148              	.LVL121:
 833:..\..\..\arduinoLCD\test\Pain Drain\libraries\lvgl\src\misc/lv_tlsf.c ****     tlsf_insist(size == this_block_size && "block size incorrect");
 1149              		.loc 1 833 0
 1150 0044 B042     		cmp	r0, r6
 1151 0046 00D0     		beq	.L70
 1152              	.L71:
 1153 0048 FEE7     		b	.L71
 1154              	.L70:
ARM GAS  C:\Users\haske\AppData\Local\Temp\ccswauRt.s 			page 36


 1155              		.loc 1 833 0 is_stmt 0 discriminator 1
 1156 004a B042     		cmp	r0, r6
 1157 004c 00D0     		beq	.L72
 1158              		.loc 1 833 0 discriminator 2
 1159 004e 013B     		subs	r3, r3, #1
 1160              	.LVL122:
 1161              	.L72:
 834:..\..\..\arduinoLCD\test\Pain Drain\libraries\lvgl\src\misc/lv_tlsf.c **** 
 835:..\..\..\arduinoLCD\test\Pain Drain\libraries\lvgl\src\misc/lv_tlsf.c ****     integ->prev_status = this_status;
 1162              		.loc 1 835 0 is_stmt 1
 1163 0050 3D60     		str	r5, [r7]
 836:..\..\..\arduinoLCD\test\Pain Drain\libraries\lvgl\src\misc/lv_tlsf.c ****     integ->status += status;
 1164              		.loc 1 836 0
 1165 0052 7A68     		ldr	r2, [r7, #4]
 1166 0054 9446     		mov	ip, r2
 1167 0056 6344     		add	r3, r3, ip
 1168              	.LVL123:
 1169 0058 7B60     		str	r3, [r7, #4]
 837:..\..\..\arduinoLCD\test\Pain Drain\libraries\lvgl\src\misc/lv_tlsf.c **** }
 1170              		.loc 1 837 0
 1171 005a 03B0     		add	sp, sp, #12
 1172              		@ sp needed
 1173              	.LVL124:
 1174              	.LVL125:
 1175              	.LVL126:
 1176              	.LVL127:
 1177 005c F0BD     		pop	{r4, r5, r6, r7, pc}
 1178              		.cfi_endproc
 1179              	.LFE42:
 1180              		.size	integrity_walker, .-integrity_walker
 1181 005e C046     		.section	.text.default_walker,"ax",%progbits
 1182              		.align	2
 1183              		.code	16
 1184              		.thumb_func
 1185              		.type	default_walker, %function
 1186              	default_walker:
 1187              	.LFB44:
 838:..\..\..\arduinoLCD\test\Pain Drain\libraries\lvgl\src\misc/lv_tlsf.c **** 
 839:..\..\..\arduinoLCD\test\Pain Drain\libraries\lvgl\src\misc/lv_tlsf.c **** int lv_tlsf_check(lv_tlsf_t tlsf)
 840:..\..\..\arduinoLCD\test\Pain Drain\libraries\lvgl\src\misc/lv_tlsf.c **** {
 841:..\..\..\arduinoLCD\test\Pain Drain\libraries\lvgl\src\misc/lv_tlsf.c ****     int i, j;
 842:..\..\..\arduinoLCD\test\Pain Drain\libraries\lvgl\src\misc/lv_tlsf.c **** 
 843:..\..\..\arduinoLCD\test\Pain Drain\libraries\lvgl\src\misc/lv_tlsf.c ****     control_t * control = tlsf_cast(control_t *, tlsf);
 844:..\..\..\arduinoLCD\test\Pain Drain\libraries\lvgl\src\misc/lv_tlsf.c ****     int status = 0;
 845:..\..\..\arduinoLCD\test\Pain Drain\libraries\lvgl\src\misc/lv_tlsf.c **** 
 846:..\..\..\arduinoLCD\test\Pain Drain\libraries\lvgl\src\misc/lv_tlsf.c ****     /* Check that the free lists and bitmaps are accurate. */
 847:..\..\..\arduinoLCD\test\Pain Drain\libraries\lvgl\src\misc/lv_tlsf.c ****     for(i = 0; i < FL_INDEX_COUNT; ++i) {
 848:..\..\..\arduinoLCD\test\Pain Drain\libraries\lvgl\src\misc/lv_tlsf.c ****         for(j = 0; j < SL_INDEX_COUNT; ++j) {
 849:..\..\..\arduinoLCD\test\Pain Drain\libraries\lvgl\src\misc/lv_tlsf.c ****             const int fl_map = control->fl_bitmap & (1U << i);
 850:..\..\..\arduinoLCD\test\Pain Drain\libraries\lvgl\src\misc/lv_tlsf.c ****             const int sl_list = control->sl_bitmap[i];
 851:..\..\..\arduinoLCD\test\Pain Drain\libraries\lvgl\src\misc/lv_tlsf.c ****             const int sl_map = sl_list & (1U << j);
 852:..\..\..\arduinoLCD\test\Pain Drain\libraries\lvgl\src\misc/lv_tlsf.c ****             const block_header_t * block = control->blocks[i][j];
 853:..\..\..\arduinoLCD\test\Pain Drain\libraries\lvgl\src\misc/lv_tlsf.c **** 
 854:..\..\..\arduinoLCD\test\Pain Drain\libraries\lvgl\src\misc/lv_tlsf.c ****             /* Check that first- and second-level lists agree. */
 855:..\..\..\arduinoLCD\test\Pain Drain\libraries\lvgl\src\misc/lv_tlsf.c ****             if(!fl_map) {
 856:..\..\..\arduinoLCD\test\Pain Drain\libraries\lvgl\src\misc/lv_tlsf.c ****                 tlsf_insist(!sl_map && "second-level map must be null");
 857:..\..\..\arduinoLCD\test\Pain Drain\libraries\lvgl\src\misc/lv_tlsf.c ****             }
ARM GAS  C:\Users\haske\AppData\Local\Temp\ccswauRt.s 			page 37


 858:..\..\..\arduinoLCD\test\Pain Drain\libraries\lvgl\src\misc/lv_tlsf.c **** 
 859:..\..\..\arduinoLCD\test\Pain Drain\libraries\lvgl\src\misc/lv_tlsf.c ****             if(!sl_map) {
 860:..\..\..\arduinoLCD\test\Pain Drain\libraries\lvgl\src\misc/lv_tlsf.c ****                 tlsf_insist(block == &control->block_null && "block list must be null");
 861:..\..\..\arduinoLCD\test\Pain Drain\libraries\lvgl\src\misc/lv_tlsf.c ****                 continue;
 862:..\..\..\arduinoLCD\test\Pain Drain\libraries\lvgl\src\misc/lv_tlsf.c ****             }
 863:..\..\..\arduinoLCD\test\Pain Drain\libraries\lvgl\src\misc/lv_tlsf.c **** 
 864:..\..\..\arduinoLCD\test\Pain Drain\libraries\lvgl\src\misc/lv_tlsf.c ****             /* Check that there is at least one free block. */
 865:..\..\..\arduinoLCD\test\Pain Drain\libraries\lvgl\src\misc/lv_tlsf.c ****             tlsf_insist(sl_list && "no free blocks in second-level map");
 866:..\..\..\arduinoLCD\test\Pain Drain\libraries\lvgl\src\misc/lv_tlsf.c ****             tlsf_insist(block != &control->block_null && "block should not be null");
 867:..\..\..\arduinoLCD\test\Pain Drain\libraries\lvgl\src\misc/lv_tlsf.c **** 
 868:..\..\..\arduinoLCD\test\Pain Drain\libraries\lvgl\src\misc/lv_tlsf.c ****             while(block != &control->block_null) {
 869:..\..\..\arduinoLCD\test\Pain Drain\libraries\lvgl\src\misc/lv_tlsf.c ****                 int fli, sli;
 870:..\..\..\arduinoLCD\test\Pain Drain\libraries\lvgl\src\misc/lv_tlsf.c ****                 tlsf_insist(block_is_free(block) && "block should be free");
 871:..\..\..\arduinoLCD\test\Pain Drain\libraries\lvgl\src\misc/lv_tlsf.c ****                 tlsf_insist(!block_is_prev_free(block) && "blocks should have coalesced");
 872:..\..\..\arduinoLCD\test\Pain Drain\libraries\lvgl\src\misc/lv_tlsf.c ****                 tlsf_insist(!block_is_free(block_next(block)) && "blocks should have coalesced");
 873:..\..\..\arduinoLCD\test\Pain Drain\libraries\lvgl\src\misc/lv_tlsf.c ****                 tlsf_insist(block_is_prev_free(block_next(block)) && "block should be free");
 874:..\..\..\arduinoLCD\test\Pain Drain\libraries\lvgl\src\misc/lv_tlsf.c ****                 tlsf_insist(block_size(block) >= block_size_min && "block not minimum size");
 875:..\..\..\arduinoLCD\test\Pain Drain\libraries\lvgl\src\misc/lv_tlsf.c **** 
 876:..\..\..\arduinoLCD\test\Pain Drain\libraries\lvgl\src\misc/lv_tlsf.c ****                 mapping_insert(block_size(block), &fli, &sli);
 877:..\..\..\arduinoLCD\test\Pain Drain\libraries\lvgl\src\misc/lv_tlsf.c ****                 tlsf_insist(fli == i && sli == j && "block size indexed in wrong list");
 878:..\..\..\arduinoLCD\test\Pain Drain\libraries\lvgl\src\misc/lv_tlsf.c ****                 block = block->next_free;
 879:..\..\..\arduinoLCD\test\Pain Drain\libraries\lvgl\src\misc/lv_tlsf.c ****             }
 880:..\..\..\arduinoLCD\test\Pain Drain\libraries\lvgl\src\misc/lv_tlsf.c ****         }
 881:..\..\..\arduinoLCD\test\Pain Drain\libraries\lvgl\src\misc/lv_tlsf.c ****     }
 882:..\..\..\arduinoLCD\test\Pain Drain\libraries\lvgl\src\misc/lv_tlsf.c **** 
 883:..\..\..\arduinoLCD\test\Pain Drain\libraries\lvgl\src\misc/lv_tlsf.c ****     return status;
 884:..\..\..\arduinoLCD\test\Pain Drain\libraries\lvgl\src\misc/lv_tlsf.c **** }
 885:..\..\..\arduinoLCD\test\Pain Drain\libraries\lvgl\src\misc/lv_tlsf.c **** 
 886:..\..\..\arduinoLCD\test\Pain Drain\libraries\lvgl\src\misc/lv_tlsf.c **** #undef tlsf_insist
 887:..\..\..\arduinoLCD\test\Pain Drain\libraries\lvgl\src\misc/lv_tlsf.c **** 
 888:..\..\..\arduinoLCD\test\Pain Drain\libraries\lvgl\src\misc/lv_tlsf.c **** static void default_walker(void * ptr, size_t size, int used, void * user)
 889:..\..\..\arduinoLCD\test\Pain Drain\libraries\lvgl\src\misc/lv_tlsf.c **** {
 1188              		.loc 1 889 0
 1189              		.cfi_startproc
 1190              		@ args = 0, pretend = 0, frame = 0
 1191              		@ frame_needed = 0, uses_anonymous_args = 0
 1192              		@ link register save eliminated.
 1193              	.LVL128:
 890:..\..\..\arduinoLCD\test\Pain Drain\libraries\lvgl\src\misc/lv_tlsf.c ****     LV_UNUSED(user);
 891:..\..\..\arduinoLCD\test\Pain Drain\libraries\lvgl\src\misc/lv_tlsf.c ****     printf("\t%p %s size: %x (%p)\n", ptr, used ? "used" : "free", (unsigned int)size, (void *)bloc
 892:..\..\..\arduinoLCD\test\Pain Drain\libraries\lvgl\src\misc/lv_tlsf.c **** }
 1194              		.loc 1 892 0
 1195              		@ sp needed
 1196 0000 7047     		bx	lr
 1197              		.cfi_endproc
 1198              	.LFE44:
 1199              		.size	default_walker, .-default_walker
 1200              		.global	__clzsi2
 1201 0002 C046     		.section	.text.tlsf_fls,"ax",%progbits
 1202              		.align	2
 1203              		.code	16
 1204              		.thumb_func
 1205              		.type	tlsf_fls, %function
 1206              	tlsf_fls:
 1207              	.LFB2:
 102:..\..\..\arduinoLCD\test\Pain Drain\libraries\lvgl\src\misc/lv_tlsf.c ****     const int bit = word ? 32 - __builtin_clz(word) : 0;
 1208              		.loc 1 102 0
ARM GAS  C:\Users\haske\AppData\Local\Temp\ccswauRt.s 			page 38


 1209              		.cfi_startproc
 1210              		@ args = 0, pretend = 0, frame = 0
 1211              		@ frame_needed = 0, uses_anonymous_args = 0
 1212              	.LVL129:
 1213 0000 10B5     		push	{r4, lr}
 1214              		.cfi_def_cfa_offset 8
 1215              		.cfi_offset 4, -8
 1216              		.cfi_offset 14, -4
 103:..\..\..\arduinoLCD\test\Pain Drain\libraries\lvgl\src\misc/lv_tlsf.c ****     return bit - 1;
 1217              		.loc 1 103 0
 1218 0002 0028     		cmp	r0, #0
 1219 0004 04D0     		beq	.L77
 103:..\..\..\arduinoLCD\test\Pain Drain\libraries\lvgl\src\misc/lv_tlsf.c ****     return bit - 1;
 1220              		.loc 1 103 0 is_stmt 0 discriminator 1
 1221 0006 FFF7FEFF 		bl	__clzsi2
 1222              	.LVL130:
 1223 000a 2023     		movs	r3, #32
 1224 000c 181A     		subs	r0, r3, r0
 1225 000e 00E0     		b	.L76
 1226              	.LVL131:
 1227              	.L77:
 103:..\..\..\arduinoLCD\test\Pain Drain\libraries\lvgl\src\misc/lv_tlsf.c ****     return bit - 1;
 1228              		.loc 1 103 0
 1229 0010 0020     		movs	r0, #0
 1230              	.LVL132:
 1231              	.L76:
 104:..\..\..\arduinoLCD\test\Pain Drain\libraries\lvgl\src\misc/lv_tlsf.c **** }
 1232              		.loc 1 104 0 is_stmt 1 discriminator 4
 1233 0012 0138     		subs	r0, r0, #1
 1234              	.LVL133:
 105:..\..\..\arduinoLCD\test\Pain Drain\libraries\lvgl\src\misc/lv_tlsf.c **** 
 1235              		.loc 1 105 0 discriminator 4
 1236              		@ sp needed
 1237 0014 10BD     		pop	{r4, pc}
 1238              		.cfi_endproc
 1239              	.LFE2:
 1240              		.size	tlsf_fls, .-tlsf_fls
 1241 0016 C046     		.section	.text.mapping_insert,"ax",%progbits
 1242              		.align	2
 1243              		.code	16
 1244              		.thumb_func
 1245              		.type	mapping_insert, %function
 1246              	mapping_insert:
 1247              	.LFB24:
 529:..\..\..\arduinoLCD\test\Pain Drain\libraries\lvgl\src\misc/lv_tlsf.c ****     int fl, sl;
 1248              		.loc 1 529 0
 1249              		.cfi_startproc
 1250              		@ args = 0, pretend = 0, frame = 0
 1251              		@ frame_needed = 0, uses_anonymous_args = 0
 1252              	.LVL134:
 1253 0000 70B5     		push	{r4, r5, r6, lr}
 1254              		.cfi_def_cfa_offset 16
 1255              		.cfi_offset 4, -16
 1256              		.cfi_offset 5, -12
 1257              		.cfi_offset 6, -8
 1258              		.cfi_offset 14, -4
 1259 0002 0400     		movs	r4, r0
ARM GAS  C:\Users\haske\AppData\Local\Temp\ccswauRt.s 			page 39


 1260 0004 0E00     		movs	r6, r1
 1261 0006 1500     		movs	r5, r2
 531:..\..\..\arduinoLCD\test\Pain Drain\libraries\lvgl\src\misc/lv_tlsf.c ****         /* Store small blocks in first list. */
 1262              		.loc 1 531 0
 1263 0008 7F28     		cmp	r0, #127
 1264 000a 06D8     		bhi	.L79
 1265              	.LVL135:
 534:..\..\..\arduinoLCD\test\Pain Drain\libraries\lvgl\src\misc/lv_tlsf.c ****     }
 1266              		.loc 1 534 0
 1267 000c C317     		asrs	r3, r0, #31
 1268 000e 0322     		movs	r2, #3
 1269              	.LVL136:
 1270 0010 1340     		ands	r3, r2
 1271 0012 1C18     		adds	r4, r3, r0
 1272 0014 A410     		asrs	r4, r4, #2
 1273              	.LVL137:
 533:..\..\..\arduinoLCD\test\Pain Drain\libraries\lvgl\src\misc/lv_tlsf.c ****         sl = tlsf_cast(int, size) / (SMALL_BLOCK_SIZE / SL_INDEX_COUNT);
 1274              		.loc 1 533 0
 1275 0016 0020     		movs	r0, #0
 1276              	.LVL138:
 1277 0018 06E0     		b	.L80
 1278              	.LVL139:
 1279              	.L79:
 537:..\..\..\arduinoLCD\test\Pain Drain\libraries\lvgl\src\misc/lv_tlsf.c ****         sl = tlsf_cast(int, size >> (fl - SL_INDEX_COUNT_LOG2)) ^ (1 << SL_INDEX_COUNT_LOG2);
 1280              		.loc 1 537 0
 1281 001a FFF7FEFF 		bl	tlsf_fls
 1282              	.LVL140:
 538:..\..\..\arduinoLCD\test\Pain Drain\libraries\lvgl\src\misc/lv_tlsf.c ****         fl -= (FL_INDEX_SHIFT - 1);
 1283              		.loc 1 538 0
 1284 001e 431F     		subs	r3, r0, #5
 1285 0020 DC40     		lsrs	r4, r4, r3
 1286              	.LVL141:
 1287 0022 2023     		movs	r3, #32
 1288 0024 5C40     		eors	r4, r3
 1289              	.LVL142:
 539:..\..\..\arduinoLCD\test\Pain Drain\libraries\lvgl\src\misc/lv_tlsf.c ****     }
 1290              		.loc 1 539 0
 1291 0026 0638     		subs	r0, r0, #6
 1292              	.LVL143:
 1293              	.L80:
 541:..\..\..\arduinoLCD\test\Pain Drain\libraries\lvgl\src\misc/lv_tlsf.c ****     *sli = sl;
 1294              		.loc 1 541 0
 1295 0028 3060     		str	r0, [r6]
 542:..\..\..\arduinoLCD\test\Pain Drain\libraries\lvgl\src\misc/lv_tlsf.c **** }
 1296              		.loc 1 542 0
 1297 002a 2C60     		str	r4, [r5]
 543:..\..\..\arduinoLCD\test\Pain Drain\libraries\lvgl\src\misc/lv_tlsf.c **** 
 1298              		.loc 1 543 0
 1299              		@ sp needed
 1300              	.LVL144:
 1301              	.LVL145:
 1302              	.LVL146:
 1303 002c 70BD     		pop	{r4, r5, r6, pc}
 1304              		.cfi_endproc
 1305              	.LFE24:
 1306              		.size	mapping_insert, .-mapping_insert
 1307 002e C046     		.section	.text.block_insert,"ax",%progbits
ARM GAS  C:\Users\haske\AppData\Local\Temp\ccswauRt.s 			page 40


 1308              		.align	2
 1309              		.code	16
 1310              		.thumb_func
 1311              		.type	block_insert, %function
 1312              	block_insert:
 1313              	.LFB30:
 642:..\..\..\arduinoLCD\test\Pain Drain\libraries\lvgl\src\misc/lv_tlsf.c ****     int fl, sl;
 1314              		.loc 1 642 0
 1315              		.cfi_startproc
 1316              		@ args = 0, pretend = 0, frame = 8
 1317              		@ frame_needed = 0, uses_anonymous_args = 0
 1318              	.LVL147:
 1319 0000 30B5     		push	{r4, r5, lr}
 1320              		.cfi_def_cfa_offset 12
 1321              		.cfi_offset 4, -12
 1322              		.cfi_offset 5, -8
 1323              		.cfi_offset 14, -4
 1324 0002 83B0     		sub	sp, sp, #12
 1325              		.cfi_def_cfa_offset 24
 1326 0004 0500     		movs	r5, r0
 1327 0006 0C00     		movs	r4, r1
 644:..\..\..\arduinoLCD\test\Pain Drain\libraries\lvgl\src\misc/lv_tlsf.c ****     insert_free_block(control, block, fl, sl);
 1328              		.loc 1 644 0
 1329 0008 0800     		movs	r0, r1
 1330              	.LVL148:
 1331 000a FFF7FEFF 		bl	block_size
 1332              	.LVL149:
 1333 000e 6A46     		mov	r2, sp
 1334 0010 01A9     		add	r1, sp, #4
 1335 0012 FFF7FEFF 		bl	mapping_insert
 1336              	.LVL150:
 645:..\..\..\arduinoLCD\test\Pain Drain\libraries\lvgl\src\misc/lv_tlsf.c **** }
 1337              		.loc 1 645 0
 1338 0016 009B     		ldr	r3, [sp]
 1339 0018 019A     		ldr	r2, [sp, #4]
 1340 001a 2100     		movs	r1, r4
 1341 001c 2800     		movs	r0, r5
 1342 001e FFF7FEFF 		bl	insert_free_block
 1343              	.LVL151:
 646:..\..\..\arduinoLCD\test\Pain Drain\libraries\lvgl\src\misc/lv_tlsf.c **** 
 1344              		.loc 1 646 0
 1345 0022 03B0     		add	sp, sp, #12
 1346              		@ sp needed
 1347              	.LVL152:
 1348              	.LVL153:
 1349 0024 30BD     		pop	{r4, r5, pc}
 1350              		.cfi_endproc
 1351              	.LFE30:
 1352              		.size	block_insert, .-block_insert
 1353 0026 C046     		.section	.text.block_trim_free,"ax",%progbits
 1354              		.align	2
 1355              		.code	16
 1356              		.thumb_func
 1357              		.type	block_trim_free, %function
 1358              	block_trim_free:
 1359              	.LFB36:
 716:..\..\..\arduinoLCD\test\Pain Drain\libraries\lvgl\src\misc/lv_tlsf.c ****     tlsf_assert(block_is_free(block) && "block must be free");
ARM GAS  C:\Users\haske\AppData\Local\Temp\ccswauRt.s 			page 41


 1360              		.loc 1 716 0
 1361              		.cfi_startproc
 1362              		@ args = 0, pretend = 0, frame = 0
 1363              		@ frame_needed = 0, uses_anonymous_args = 0
 1364              	.LVL154:
 1365 0000 70B5     		push	{r4, r5, r6, lr}
 1366              		.cfi_def_cfa_offset 16
 1367              		.cfi_offset 4, -16
 1368              		.cfi_offset 5, -12
 1369              		.cfi_offset 6, -8
 1370              		.cfi_offset 14, -4
 1371 0002 0600     		movs	r6, r0
 1372 0004 0C00     		movs	r4, r1
 1373 0006 1500     		movs	r5, r2
 717:..\..\..\arduinoLCD\test\Pain Drain\libraries\lvgl\src\misc/lv_tlsf.c ****     if(block_can_split(block, size)) {
 1374              		.loc 1 717 0
 1375 0008 0800     		movs	r0, r1
 1376              	.LVL155:
 1377 000a FFF7FEFF 		bl	block_is_free
 1378              	.LVL156:
 1379 000e 0028     		cmp	r0, #0
 1380 0010 00D1     		bne	.L83
 1381              	.L84:
 1382 0012 FEE7     		b	.L84
 1383              	.L83:
 718:..\..\..\arduinoLCD\test\Pain Drain\libraries\lvgl\src\misc/lv_tlsf.c ****         block_header_t * remaining_block = block_split(block, size);
 1384              		.loc 1 718 0
 1385 0014 2900     		movs	r1, r5
 1386 0016 2000     		movs	r0, r4
 1387 0018 FFF7FEFF 		bl	block_can_split
 1388              	.LVL157:
 1389 001c 0028     		cmp	r0, #0
 1390 001e 0ED0     		beq	.L82
 1391              	.LBB3:
 719:..\..\..\arduinoLCD\test\Pain Drain\libraries\lvgl\src\misc/lv_tlsf.c ****         block_link_next(block);
 1392              		.loc 1 719 0
 1393 0020 2900     		movs	r1, r5
 1394 0022 2000     		movs	r0, r4
 1395 0024 FFF7FEFF 		bl	block_split
 1396              	.LVL158:
 1397 0028 0500     		movs	r5, r0
 1398              	.LVL159:
 720:..\..\..\arduinoLCD\test\Pain Drain\libraries\lvgl\src\misc/lv_tlsf.c ****         block_set_prev_free(remaining_block);
 1399              		.loc 1 720 0
 1400 002a 2000     		movs	r0, r4
 1401              	.LVL160:
 1402 002c FFF7FEFF 		bl	block_link_next
 1403              	.LVL161:
 721:..\..\..\arduinoLCD\test\Pain Drain\libraries\lvgl\src\misc/lv_tlsf.c ****         block_insert(control, remaining_block);
 1404              		.loc 1 721 0
 1405 0030 2800     		movs	r0, r5
 1406 0032 FFF7FEFF 		bl	block_set_prev_free
 1407              	.LVL162:
 722:..\..\..\arduinoLCD\test\Pain Drain\libraries\lvgl\src\misc/lv_tlsf.c ****     }
 1408              		.loc 1 722 0
 1409 0036 2900     		movs	r1, r5
 1410 0038 3000     		movs	r0, r6
ARM GAS  C:\Users\haske\AppData\Local\Temp\ccswauRt.s 			page 42


 1411 003a FFF7FEFF 		bl	block_insert
 1412              	.LVL163:
 1413              	.L82:
 1414              	.LBE3:
 724:..\..\..\arduinoLCD\test\Pain Drain\libraries\lvgl\src\misc/lv_tlsf.c **** 
 1415              		.loc 1 724 0
 1416              		@ sp needed
 1417              	.LVL164:
 1418              	.LVL165:
 1419 003e 70BD     		pop	{r4, r5, r6, pc}
 1420              		.cfi_endproc
 1421              	.LFE36:
 1422              		.size	block_trim_free, .-block_trim_free
 1423              		.section	.text.block_prepare_used,"ax",%progbits
 1424              		.align	2
 1425              		.code	16
 1426              		.thumb_func
 1427              		.type	block_prepare_used, %function
 1428              	block_prepare_used:
 1429              	.LFB40:
 783:..\..\..\arduinoLCD\test\Pain Drain\libraries\lvgl\src\misc/lv_tlsf.c ****     void * p = 0;
 1430              		.loc 1 783 0
 1431              		.cfi_startproc
 1432              		@ args = 0, pretend = 0, frame = 0
 1433              		@ frame_needed = 0, uses_anonymous_args = 0
 1434              	.LVL166:
 1435 0000 10B5     		push	{r4, lr}
 1436              		.cfi_def_cfa_offset 8
 1437              		.cfi_offset 4, -8
 1438              		.cfi_offset 14, -4
 1439 0002 0C1E     		subs	r4, r1, #0
 1440              	.LVL167:
 785:..\..\..\arduinoLCD\test\Pain Drain\libraries\lvgl\src\misc/lv_tlsf.c ****         tlsf_assert(size && "size must be non-zero");
 1441              		.loc 1 785 0
 1442 0004 0BD0     		beq	.L90
 786:..\..\..\arduinoLCD\test\Pain Drain\libraries\lvgl\src\misc/lv_tlsf.c ****         block_trim_free(control, block, size);
 1443              		.loc 1 786 0
 1444 0006 002A     		cmp	r2, #0
 1445 0008 00D1     		bne	.L88
 1446              	.L89:
 1447 000a FEE7     		b	.L89
 1448              	.L88:
 787:..\..\..\arduinoLCD\test\Pain Drain\libraries\lvgl\src\misc/lv_tlsf.c ****         block_mark_as_used(block);
 1449              		.loc 1 787 0
 1450 000c FFF7FEFF 		bl	block_trim_free
 1451              	.LVL168:
 788:..\..\..\arduinoLCD\test\Pain Drain\libraries\lvgl\src\misc/lv_tlsf.c ****         p = block_to_ptr(block);
 1452              		.loc 1 788 0
 1453 0010 2000     		movs	r0, r4
 1454 0012 FFF7FEFF 		bl	block_mark_as_used
 1455              	.LVL169:
 789:..\..\..\arduinoLCD\test\Pain Drain\libraries\lvgl\src\misc/lv_tlsf.c ****     }
 1456              		.loc 1 789 0
 1457 0016 2000     		movs	r0, r4
 1458 0018 FFF7FEFF 		bl	block_to_ptr
 1459              	.LVL170:
 1460 001c 00E0     		b	.L87
ARM GAS  C:\Users\haske\AppData\Local\Temp\ccswauRt.s 			page 43


 1461              	.LVL171:
 1462              	.L90:
 784:..\..\..\arduinoLCD\test\Pain Drain\libraries\lvgl\src\misc/lv_tlsf.c ****     if(block) {
 1463              		.loc 1 784 0
 1464 001e 0020     		movs	r0, #0
 1465              	.LVL172:
 1466              	.L87:
 792:..\..\..\arduinoLCD\test\Pain Drain\libraries\lvgl\src\misc/lv_tlsf.c **** 
 1467              		.loc 1 792 0
 1468              		@ sp needed
 1469              	.LVL173:
 1470 0020 10BD     		pop	{r4, pc}
 1471              		.cfi_endproc
 1472              	.LFE40:
 1473              		.size	block_prepare_used, .-block_prepare_used
 1474 0022 C046     		.section	.text.block_trim_free_leading,"ax",%progbits
 1475              		.align	2
 1476              		.code	16
 1477              		.thumb_func
 1478              		.type	block_trim_free_leading, %function
 1479              	block_trim_free_leading:
 1480              	.LFB38:
 741:..\..\..\arduinoLCD\test\Pain Drain\libraries\lvgl\src\misc/lv_tlsf.c ****     block_header_t * remaining_block = block;
 1481              		.loc 1 741 0
 1482              		.cfi_startproc
 1483              		@ args = 0, pretend = 0, frame = 0
 1484              		@ frame_needed = 0, uses_anonymous_args = 0
 1485              	.LVL174:
 1486 0000 70B5     		push	{r4, r5, r6, lr}
 1487              		.cfi_def_cfa_offset 16
 1488              		.cfi_offset 4, -16
 1489              		.cfi_offset 5, -12
 1490              		.cfi_offset 6, -8
 1491              		.cfi_offset 14, -4
 1492 0002 0600     		movs	r6, r0
 1493 0004 0C00     		movs	r4, r1
 1494 0006 1500     		movs	r5, r2
 1495              	.LVL175:
 743:..\..\..\arduinoLCD\test\Pain Drain\libraries\lvgl\src\misc/lv_tlsf.c ****         /* We want the 2nd block. */
 1496              		.loc 1 743 0
 1497 0008 1100     		movs	r1, r2
 1498              	.LVL176:
 1499 000a 2000     		movs	r0, r4
 1500              	.LVL177:
 1501 000c FFF7FEFF 		bl	block_can_split
 1502              	.LVL178:
 1503 0010 0028     		cmp	r0, #0
 1504 0012 0ED0     		beq	.L92
 745:..\..\..\arduinoLCD\test\Pain Drain\libraries\lvgl\src\misc/lv_tlsf.c ****         block_set_prev_free(remaining_block);
 1505              		.loc 1 745 0
 1506 0014 291F     		subs	r1, r5, #4
 1507 0016 2000     		movs	r0, r4
 1508 0018 FFF7FEFF 		bl	block_split
 1509              	.LVL179:
 1510 001c 0500     		movs	r5, r0
 1511              	.LVL180:
 746:..\..\..\arduinoLCD\test\Pain Drain\libraries\lvgl\src\misc/lv_tlsf.c **** 
ARM GAS  C:\Users\haske\AppData\Local\Temp\ccswauRt.s 			page 44


 1512              		.loc 1 746 0
 1513 001e FFF7FEFF 		bl	block_set_prev_free
 1514              	.LVL181:
 748:..\..\..\arduinoLCD\test\Pain Drain\libraries\lvgl\src\misc/lv_tlsf.c ****         block_insert(control, block);
 1515              		.loc 1 748 0
 1516 0022 2000     		movs	r0, r4
 1517 0024 FFF7FEFF 		bl	block_link_next
 1518              	.LVL182:
 749:..\..\..\arduinoLCD\test\Pain Drain\libraries\lvgl\src\misc/lv_tlsf.c ****     }
 1519              		.loc 1 749 0
 1520 0028 2100     		movs	r1, r4
 1521 002a 3000     		movs	r0, r6
 1522 002c FFF7FEFF 		bl	block_insert
 1523              	.LVL183:
 745:..\..\..\arduinoLCD\test\Pain Drain\libraries\lvgl\src\misc/lv_tlsf.c ****         block_set_prev_free(remaining_block);
 1524              		.loc 1 745 0
 1525 0030 2C00     		movs	r4, r5
 1526              	.LVL184:
 1527              	.L92:
 753:..\..\..\arduinoLCD\test\Pain Drain\libraries\lvgl\src\misc/lv_tlsf.c **** 
 1528              		.loc 1 753 0
 1529 0032 2000     		movs	r0, r4
 1530              		@ sp needed
 1531              	.LVL185:
 1532              	.LVL186:
 1533 0034 70BD     		pop	{r4, r5, r6, pc}
 1534              		.cfi_endproc
 1535              	.LFE38:
 1536              		.size	block_trim_free_leading, .-block_trim_free_leading
 1537 0036 C046     		.section	.text.block_remove,"ax",%progbits
 1538              		.align	2
 1539              		.code	16
 1540              		.thumb_func
 1541              		.type	block_remove, %function
 1542              	block_remove:
 1543              	.LFB29:
 634:..\..\..\arduinoLCD\test\Pain Drain\libraries\lvgl\src\misc/lv_tlsf.c ****     int fl, sl;
 1544              		.loc 1 634 0
 1545              		.cfi_startproc
 1546              		@ args = 0, pretend = 0, frame = 8
 1547              		@ frame_needed = 0, uses_anonymous_args = 0
 1548              	.LVL187:
 1549 0000 30B5     		push	{r4, r5, lr}
 1550              		.cfi_def_cfa_offset 12
 1551              		.cfi_offset 4, -12
 1552              		.cfi_offset 5, -8
 1553              		.cfi_offset 14, -4
 1554 0002 83B0     		sub	sp, sp, #12
 1555              		.cfi_def_cfa_offset 24
 1556 0004 0500     		movs	r5, r0
 1557 0006 0C00     		movs	r4, r1
 636:..\..\..\arduinoLCD\test\Pain Drain\libraries\lvgl\src\misc/lv_tlsf.c ****     remove_free_block(control, block, fl, sl);
 1558              		.loc 1 636 0
 1559 0008 0800     		movs	r0, r1
 1560              	.LVL188:
 1561 000a FFF7FEFF 		bl	block_size
 1562              	.LVL189:
ARM GAS  C:\Users\haske\AppData\Local\Temp\ccswauRt.s 			page 45


 1563 000e 6A46     		mov	r2, sp
 1564 0010 01A9     		add	r1, sp, #4
 1565 0012 FFF7FEFF 		bl	mapping_insert
 1566              	.LVL190:
 637:..\..\..\arduinoLCD\test\Pain Drain\libraries\lvgl\src\misc/lv_tlsf.c **** }
 1567              		.loc 1 637 0
 1568 0016 009B     		ldr	r3, [sp]
 1569 0018 019A     		ldr	r2, [sp, #4]
 1570 001a 2100     		movs	r1, r4
 1571 001c 2800     		movs	r0, r5
 1572 001e FFF7FEFF 		bl	remove_free_block
 1573              	.LVL191:
 638:..\..\..\arduinoLCD\test\Pain Drain\libraries\lvgl\src\misc/lv_tlsf.c **** 
 1574              		.loc 1 638 0
 1575 0022 03B0     		add	sp, sp, #12
 1576              		@ sp needed
 1577              	.LVL192:
 1578              	.LVL193:
 1579 0024 30BD     		pop	{r4, r5, pc}
 1580              		.cfi_endproc
 1581              	.LFE29:
 1582              		.size	block_remove, .-block_remove
 1583 0026 C046     		.section	.text.block_merge_prev,"ax",%progbits
 1584              		.align	2
 1585              		.code	16
 1586              		.thumb_func
 1587              		.type	block_merge_prev, %function
 1588              	block_merge_prev:
 1589              	.LFB34:
 687:..\..\..\arduinoLCD\test\Pain Drain\libraries\lvgl\src\misc/lv_tlsf.c ****     if(block_is_prev_free(block)) {
 1590              		.loc 1 687 0
 1591              		.cfi_startproc
 1592              		@ args = 0, pretend = 0, frame = 0
 1593              		@ frame_needed = 0, uses_anonymous_args = 0
 1594              	.LVL194:
 1595 0000 70B5     		push	{r4, r5, r6, lr}
 1596              		.cfi_def_cfa_offset 16
 1597              		.cfi_offset 4, -16
 1598              		.cfi_offset 5, -12
 1599              		.cfi_offset 6, -8
 1600              		.cfi_offset 14, -4
 1601 0002 0600     		movs	r6, r0
 1602 0004 0C00     		movs	r4, r1
 688:..\..\..\arduinoLCD\test\Pain Drain\libraries\lvgl\src\misc/lv_tlsf.c ****         block_header_t * prev = block_prev(block);
 1603              		.loc 1 688 0
 1604 0006 0800     		movs	r0, r1
 1605              	.LVL195:
 1606 0008 FFF7FEFF 		bl	block_is_prev_free
 1607              	.LVL196:
 1608 000c 0028     		cmp	r0, #0
 1609 000e 13D0     		beq	.L95
 1610              	.LBB4:
 689:..\..\..\arduinoLCD\test\Pain Drain\libraries\lvgl\src\misc/lv_tlsf.c ****         tlsf_assert(prev && "prev physical block can't be null");
 1611              		.loc 1 689 0
 1612 0010 2000     		movs	r0, r4
 1613 0012 FFF7FEFF 		bl	block_prev
 1614              	.LVL197:
ARM GAS  C:\Users\haske\AppData\Local\Temp\ccswauRt.s 			page 46


 1615 0016 051E     		subs	r5, r0, #0
 1616              	.LVL198:
 690:..\..\..\arduinoLCD\test\Pain Drain\libraries\lvgl\src\misc/lv_tlsf.c ****         tlsf_assert(block_is_free(prev) && "prev block is not free though marked as such");
 1617              		.loc 1 690 0
 1618 0018 00D1     		bne	.L96
 1619              	.L97:
 1620 001a FEE7     		b	.L97
 1621              	.L96:
 691:..\..\..\arduinoLCD\test\Pain Drain\libraries\lvgl\src\misc/lv_tlsf.c ****         block_remove(control, prev);
 1622              		.loc 1 691 0
 1623 001c FFF7FEFF 		bl	block_is_free
 1624              	.LVL199:
 1625 0020 0028     		cmp	r0, #0
 1626 0022 00D1     		bne	.L98
 1627              	.L99:
 1628 0024 FEE7     		b	.L99
 1629              	.L98:
 692:..\..\..\arduinoLCD\test\Pain Drain\libraries\lvgl\src\misc/lv_tlsf.c ****         block = block_absorb(prev, block);
 1630              		.loc 1 692 0
 1631 0026 2900     		movs	r1, r5
 1632 0028 3000     		movs	r0, r6
 1633 002a FFF7FEFF 		bl	block_remove
 1634              	.LVL200:
 693:..\..\..\arduinoLCD\test\Pain Drain\libraries\lvgl\src\misc/lv_tlsf.c ****     }
 1635              		.loc 1 693 0
 1636 002e 2100     		movs	r1, r4
 1637 0030 2800     		movs	r0, r5
 1638 0032 FFF7FEFF 		bl	block_absorb
 1639              	.LVL201:
 1640 0036 0400     		movs	r4, r0
 1641              	.LVL202:
 1642              	.L95:
 1643              	.LBE4:
 697:..\..\..\arduinoLCD\test\Pain Drain\libraries\lvgl\src\misc/lv_tlsf.c **** 
 1644              		.loc 1 697 0
 1645 0038 2000     		movs	r0, r4
 1646              		@ sp needed
 1647              	.LVL203:
 1648              	.LVL204:
 1649 003a 70BD     		pop	{r4, r5, r6, pc}
 1650              		.cfi_endproc
 1651              	.LFE34:
 1652              		.size	block_merge_prev, .-block_merge_prev
 1653              		.section	.text.block_merge_next,"ax",%progbits
 1654              		.align	2
 1655              		.code	16
 1656              		.thumb_func
 1657              		.type	block_merge_next, %function
 1658              	block_merge_next:
 1659              	.LFB35:
 701:..\..\..\arduinoLCD\test\Pain Drain\libraries\lvgl\src\misc/lv_tlsf.c ****     block_header_t * next = block_next(block);
 1660              		.loc 1 701 0
 1661              		.cfi_startproc
 1662              		@ args = 0, pretend = 0, frame = 0
 1663              		@ frame_needed = 0, uses_anonymous_args = 0
 1664              	.LVL205:
 1665 0000 70B5     		push	{r4, r5, r6, lr}
ARM GAS  C:\Users\haske\AppData\Local\Temp\ccswauRt.s 			page 47


 1666              		.cfi_def_cfa_offset 16
 1667              		.cfi_offset 4, -16
 1668              		.cfi_offset 5, -12
 1669              		.cfi_offset 6, -8
 1670              		.cfi_offset 14, -4
 1671 0002 0600     		movs	r6, r0
 1672 0004 0C00     		movs	r4, r1
 702:..\..\..\arduinoLCD\test\Pain Drain\libraries\lvgl\src\misc/lv_tlsf.c ****     tlsf_assert(next && "next physical block can't be null");
 1673              		.loc 1 702 0
 1674 0006 0800     		movs	r0, r1
 1675              	.LVL206:
 1676 0008 FFF7FEFF 		bl	block_next
 1677              	.LVL207:
 1678 000c 051E     		subs	r5, r0, #0
 1679              	.LVL208:
 703:..\..\..\arduinoLCD\test\Pain Drain\libraries\lvgl\src\misc/lv_tlsf.c **** 
 1680              		.loc 1 703 0
 1681 000e 00D1     		bne	.L101
 1682              	.L102:
 1683 0010 FEE7     		b	.L102
 1684              	.L101:
 705:..\..\..\arduinoLCD\test\Pain Drain\libraries\lvgl\src\misc/lv_tlsf.c ****         tlsf_assert(!block_is_last(block) && "previous block can't be last");
 1685              		.loc 1 705 0
 1686 0012 FFF7FEFF 		bl	block_is_free
 1687              	.LVL209:
 1688 0016 0028     		cmp	r0, #0
 1689 0018 0ED0     		beq	.L103
 706:..\..\..\arduinoLCD\test\Pain Drain\libraries\lvgl\src\misc/lv_tlsf.c ****         block_remove(control, next);
 1690              		.loc 1 706 0
 1691 001a 2000     		movs	r0, r4
 1692 001c FFF7FEFF 		bl	block_is_last
 1693              	.LVL210:
 1694 0020 0028     		cmp	r0, #0
 1695 0022 00D0     		beq	.L104
 1696              	.L105:
 1697 0024 FEE7     		b	.L105
 1698              	.L104:
 707:..\..\..\arduinoLCD\test\Pain Drain\libraries\lvgl\src\misc/lv_tlsf.c ****         block = block_absorb(block, next);
 1699              		.loc 1 707 0
 1700 0026 2900     		movs	r1, r5
 1701 0028 3000     		movs	r0, r6
 1702 002a FFF7FEFF 		bl	block_remove
 1703              	.LVL211:
 708:..\..\..\arduinoLCD\test\Pain Drain\libraries\lvgl\src\misc/lv_tlsf.c ****     }
 1704              		.loc 1 708 0
 1705 002e 2900     		movs	r1, r5
 1706 0030 2000     		movs	r0, r4
 1707 0032 FFF7FEFF 		bl	block_absorb
 1708              	.LVL212:
 1709 0036 0400     		movs	r4, r0
 1710              	.LVL213:
 1711              	.L103:
 712:..\..\..\arduinoLCD\test\Pain Drain\libraries\lvgl\src\misc/lv_tlsf.c **** 
 1712              		.loc 1 712 0
 1713 0038 2000     		movs	r0, r4
 1714              		@ sp needed
 1715              	.LVL214:
ARM GAS  C:\Users\haske\AppData\Local\Temp\ccswauRt.s 			page 48


 1716              	.LVL215:
 1717              	.LVL216:
 1718 003a 70BD     		pop	{r4, r5, r6, pc}
 1719              		.cfi_endproc
 1720              	.LFE35:
 1721              		.size	block_merge_next, .-block_merge_next
 1722              		.section	.text.block_trim_used,"ax",%progbits
 1723              		.align	2
 1724              		.code	16
 1725              		.thumb_func
 1726              		.type	block_trim_used, %function
 1727              	block_trim_used:
 1728              	.LFB37:
 728:..\..\..\arduinoLCD\test\Pain Drain\libraries\lvgl\src\misc/lv_tlsf.c ****     tlsf_assert(!block_is_free(block) && "block must be used");
 1729              		.loc 1 728 0
 1730              		.cfi_startproc
 1731              		@ args = 0, pretend = 0, frame = 0
 1732              		@ frame_needed = 0, uses_anonymous_args = 0
 1733              	.LVL217:
 1734 0000 70B5     		push	{r4, r5, r6, lr}
 1735              		.cfi_def_cfa_offset 16
 1736              		.cfi_offset 4, -16
 1737              		.cfi_offset 5, -12
 1738              		.cfi_offset 6, -8
 1739              		.cfi_offset 14, -4
 1740 0002 0500     		movs	r5, r0
 1741 0004 0C00     		movs	r4, r1
 1742 0006 1600     		movs	r6, r2
 729:..\..\..\arduinoLCD\test\Pain Drain\libraries\lvgl\src\misc/lv_tlsf.c ****     if(block_can_split(block, size)) {
 1743              		.loc 1 729 0
 1744 0008 0800     		movs	r0, r1
 1745              	.LVL218:
 1746 000a FFF7FEFF 		bl	block_is_free
 1747              	.LVL219:
 1748 000e 0028     		cmp	r0, #0
 1749 0010 00D0     		beq	.L107
 1750              	.L108:
 1751 0012 FEE7     		b	.L108
 1752              	.L107:
 730:..\..\..\arduinoLCD\test\Pain Drain\libraries\lvgl\src\misc/lv_tlsf.c ****         /* If the next block is free, we must coalesce. */
 1753              		.loc 1 730 0
 1754 0014 3100     		movs	r1, r6
 1755 0016 2000     		movs	r0, r4
 1756 0018 FFF7FEFF 		bl	block_can_split
 1757              	.LVL220:
 1758 001c 0028     		cmp	r0, #0
 1759 001e 0ED0     		beq	.L106
 1760              	.LBB5:
 732:..\..\..\arduinoLCD\test\Pain Drain\libraries\lvgl\src\misc/lv_tlsf.c ****         block_set_prev_used(remaining_block);
 1761              		.loc 1 732 0
 1762 0020 3100     		movs	r1, r6
 1763 0022 2000     		movs	r0, r4
 1764 0024 FFF7FEFF 		bl	block_split
 1765              	.LVL221:
 1766 0028 0400     		movs	r4, r0
 1767              	.LVL222:
 733:..\..\..\arduinoLCD\test\Pain Drain\libraries\lvgl\src\misc/lv_tlsf.c **** 
ARM GAS  C:\Users\haske\AppData\Local\Temp\ccswauRt.s 			page 49


 1768              		.loc 1 733 0
 1769 002a FFF7FEFF 		bl	block_set_prev_used
 1770              	.LVL223:
 735:..\..\..\arduinoLCD\test\Pain Drain\libraries\lvgl\src\misc/lv_tlsf.c ****         block_insert(control, remaining_block);
 1771              		.loc 1 735 0
 1772 002e 2100     		movs	r1, r4
 1773 0030 2800     		movs	r0, r5
 1774 0032 FFF7FEFF 		bl	block_merge_next
 1775              	.LVL224:
 1776 0036 0100     		movs	r1, r0
 1777              	.LVL225:
 736:..\..\..\arduinoLCD\test\Pain Drain\libraries\lvgl\src\misc/lv_tlsf.c ****     }
 1778              		.loc 1 736 0
 1779 0038 2800     		movs	r0, r5
 1780              	.LVL226:
 1781 003a FFF7FEFF 		bl	block_insert
 1782              	.LVL227:
 1783              	.L106:
 1784              	.LBE5:
 738:..\..\..\arduinoLCD\test\Pain Drain\libraries\lvgl\src\misc/lv_tlsf.c **** 
 1785              		.loc 1 738 0
 1786              		@ sp needed
 1787              	.LVL228:
 1788              	.LVL229:
 1789 003e 70BD     		pop	{r4, r5, r6, pc}
 1790              		.cfi_endproc
 1791              	.LFE37:
 1792              		.size	block_trim_used, .-block_trim_used
 1793              		.section	.text.mapping_search,"ax",%progbits
 1794              		.align	2
 1795              		.code	16
 1796              		.thumb_func
 1797              		.type	mapping_search, %function
 1798              	mapping_search:
 1799              	.LFB25:
 547:..\..\..\arduinoLCD\test\Pain Drain\libraries\lvgl\src\misc/lv_tlsf.c ****     if(size >= SMALL_BLOCK_SIZE) {
 1800              		.loc 1 547 0
 1801              		.cfi_startproc
 1802              		@ args = 0, pretend = 0, frame = 0
 1803              		@ frame_needed = 0, uses_anonymous_args = 0
 1804              	.LVL230:
 1805 0000 70B5     		push	{r4, r5, r6, lr}
 1806              		.cfi_def_cfa_offset 16
 1807              		.cfi_offset 4, -16
 1808              		.cfi_offset 5, -12
 1809              		.cfi_offset 6, -8
 1810              		.cfi_offset 14, -4
 1811 0002 0400     		movs	r4, r0
 1812 0004 0D00     		movs	r5, r1
 1813 0006 1600     		movs	r6, r2
 548:..\..\..\arduinoLCD\test\Pain Drain\libraries\lvgl\src\misc/lv_tlsf.c ****         const size_t round = (1 << (tlsf_fls_sizet(size) - SL_INDEX_COUNT_LOG2)) - 1;
 1814              		.loc 1 548 0
 1815 0008 7F28     		cmp	r0, #127
 1816 000a 06D9     		bls	.L111
 1817              	.LBB6:
 549:..\..\..\arduinoLCD\test\Pain Drain\libraries\lvgl\src\misc/lv_tlsf.c ****         size += round;
 1818              		.loc 1 549 0
ARM GAS  C:\Users\haske\AppData\Local\Temp\ccswauRt.s 			page 50


 1819 000c FFF7FEFF 		bl	tlsf_fls
 1820              	.LVL231:
 1821 0010 0538     		subs	r0, r0, #5
 1822 0012 0123     		movs	r3, #1
 1823 0014 8340     		lsls	r3, r3, r0
 1824 0016 013B     		subs	r3, r3, #1
 1825              	.LVL232:
 550:..\..\..\arduinoLCD\test\Pain Drain\libraries\lvgl\src\misc/lv_tlsf.c ****     }
 1826              		.loc 1 550 0
 1827 0018 E418     		adds	r4, r4, r3
 1828              	.LVL233:
 1829              	.L111:
 1830              	.LBE6:
 552:..\..\..\arduinoLCD\test\Pain Drain\libraries\lvgl\src\misc/lv_tlsf.c **** }
 1831              		.loc 1 552 0
 1832 001a 3200     		movs	r2, r6
 1833 001c 2900     		movs	r1, r5
 1834 001e 2000     		movs	r0, r4
 1835 0020 FFF7FEFF 		bl	mapping_insert
 1836              	.LVL234:
 553:..\..\..\arduinoLCD\test\Pain Drain\libraries\lvgl\src\misc/lv_tlsf.c **** 
 1837              		.loc 1 553 0
 1838              		@ sp needed
 1839              	.LVL235:
 1840              	.LVL236:
 1841              	.LVL237:
 1842 0024 70BD     		pop	{r4, r5, r6, pc}
 1843              		.cfi_endproc
 1844              	.LFE25:
 1845              		.size	mapping_search, .-mapping_search
 1846              		.global	__ffssi2
 1847 0026 C046     		.section	.text.tlsf_ffs,"ax",%progbits
 1848              		.align	2
 1849              		.code	16
 1850              		.thumb_func
 1851              		.type	tlsf_ffs, %function
 1852              	tlsf_ffs:
 1853              	.LFB1:
  95:..\..\..\arduinoLCD\test\Pain Drain\libraries\lvgl\src\misc/lv_tlsf.c ****     return __builtin_ffs(word) - 1;
 1854              		.loc 1 95 0
 1855              		.cfi_startproc
 1856              		@ args = 0, pretend = 0, frame = 0
 1857              		@ frame_needed = 0, uses_anonymous_args = 0
 1858              	.LVL238:
 1859 0000 10B5     		push	{r4, lr}
 1860              		.cfi_def_cfa_offset 8
 1861              		.cfi_offset 4, -8
 1862              		.cfi_offset 14, -4
  96:..\..\..\arduinoLCD\test\Pain Drain\libraries\lvgl\src\misc/lv_tlsf.c **** }
 1863              		.loc 1 96 0
 1864 0002 FFF7FEFF 		bl	__ffssi2
 1865              	.LVL239:
 1866 0006 0138     		subs	r0, r0, #1
  97:..\..\..\arduinoLCD\test\Pain Drain\libraries\lvgl\src\misc/lv_tlsf.c **** 
 1867              		.loc 1 97 0
 1868              		@ sp needed
 1869 0008 10BD     		pop	{r4, pc}
ARM GAS  C:\Users\haske\AppData\Local\Temp\ccswauRt.s 			page 51


 1870              		.cfi_endproc
 1871              	.LFE1:
 1872              		.size	tlsf_ffs, .-tlsf_ffs
 1873 000a C046     		.section	.text.search_suitable_block,"ax",%progbits
 1874              		.align	2
 1875              		.code	16
 1876              		.thumb_func
 1877              		.type	search_suitable_block, %function
 1878              	search_suitable_block:
 1879              	.LFB26:
 556:..\..\..\arduinoLCD\test\Pain Drain\libraries\lvgl\src\misc/lv_tlsf.c ****     int fl = *fli;
 1880              		.loc 1 556 0
 1881              		.cfi_startproc
 1882              		@ args = 0, pretend = 0, frame = 0
 1883              		@ frame_needed = 0, uses_anonymous_args = 0
 1884              	.LVL240:
 1885 0000 F8B5     		push	{r3, r4, r5, r6, r7, lr}
 1886              		.cfi_def_cfa_offset 24
 1887              		.cfi_offset 3, -24
 1888              		.cfi_offset 4, -20
 1889              		.cfi_offset 5, -16
 1890              		.cfi_offset 6, -12
 1891              		.cfi_offset 7, -8
 1892              		.cfi_offset 14, -4
 1893 0002 0500     		movs	r5, r0
 1894 0004 0F00     		movs	r7, r1
 1895 0006 1600     		movs	r6, r2
 557:..\..\..\arduinoLCD\test\Pain Drain\libraries\lvgl\src\misc/lv_tlsf.c ****     int sl = *sli;
 1896              		.loc 1 557 0
 1897 0008 0C68     		ldr	r4, [r1]
 1898              	.LVL241:
 564:..\..\..\arduinoLCD\test\Pain Drain\libraries\lvgl\src\misc/lv_tlsf.c ****     if(!sl_map) {
 1899              		.loc 1 564 0
 1900 000a 231D     		adds	r3, r4, #4
 1901 000c 9B00     		lsls	r3, r3, #2
 1902 000e C318     		adds	r3, r0, r3
 1903 0010 5B68     		ldr	r3, [r3, #4]
 1904 0012 0120     		movs	r0, #1
 1905              	.LVL242:
 1906 0014 4042     		rsbs	r0, r0, #0
 1907 0016 1268     		ldr	r2, [r2]
 1908              	.LVL243:
 1909 0018 9040     		lsls	r0, r0, r2
 1910 001a 1840     		ands	r0, r3
 1911              	.LVL244:
 565:..\..\..\arduinoLCD\test\Pain Drain\libraries\lvgl\src\misc/lv_tlsf.c ****         /* No block exists. Search in the next largest first-level list. */
 1912              		.loc 1 565 0
 1913 001c 0DD1     		bne	.L114
 1914              	.LBB7:
 567:..\..\..\arduinoLCD\test\Pain Drain\libraries\lvgl\src\misc/lv_tlsf.c ****         if(!fl_map) {
 1915              		.loc 1 567 0
 1916 001e 0134     		adds	r4, r4, #1
 1917              	.LVL245:
 1918 0020 0138     		subs	r0, r0, #1
 1919              	.LVL246:
 1920 0022 A040     		lsls	r0, r0, r4
 1921              	.LVL247:
ARM GAS  C:\Users\haske\AppData\Local\Temp\ccswauRt.s 			page 52


 1922 0024 2B69     		ldr	r3, [r5, #16]
 1923              	.LVL248:
 1924 0026 1840     		ands	r0, r3
 1925              	.LVL249:
 568:..\..\..\arduinoLCD\test\Pain Drain\libraries\lvgl\src\misc/lv_tlsf.c ****             /* No free blocks available, memory has been exhausted. */
 1926              		.loc 1 568 0
 1927 0028 14D0     		beq	.L118
 573:..\..\..\arduinoLCD\test\Pain Drain\libraries\lvgl\src\misc/lv_tlsf.c ****         *fli = fl;
 1928              		.loc 1 573 0
 1929 002a FFF7FEFF 		bl	tlsf_ffs
 1930              	.LVL250:
 1931 002e 0400     		movs	r4, r0
 1932              	.LVL251:
 574:..\..\..\arduinoLCD\test\Pain Drain\libraries\lvgl\src\misc/lv_tlsf.c ****         sl_map = control->sl_bitmap[fl];
 1933              		.loc 1 574 0
 1934 0030 3860     		str	r0, [r7]
 575:..\..\..\arduinoLCD\test\Pain Drain\libraries\lvgl\src\misc/lv_tlsf.c ****     }
 1935              		.loc 1 575 0
 1936 0032 031D     		adds	r3, r0, #4
 1937 0034 9B00     		lsls	r3, r3, #2
 1938 0036 EB18     		adds	r3, r5, r3
 1939 0038 5868     		ldr	r0, [r3, #4]
 1940              	.LVL252:
 1941              	.L114:
 1942              	.LBE7:
 577:..\..\..\arduinoLCD\test\Pain Drain\libraries\lvgl\src\misc/lv_tlsf.c ****     sl = tlsf_ffs(sl_map);
 1943              		.loc 1 577 0
 1944 003a 0028     		cmp	r0, #0
 1945 003c 00D1     		bne	.L116
 1946              	.L117:
 1947 003e FEE7     		b	.L117
 1948              	.L116:
 578:..\..\..\arduinoLCD\test\Pain Drain\libraries\lvgl\src\misc/lv_tlsf.c ****     *sli = sl;
 1949              		.loc 1 578 0
 1950 0040 FFF7FEFF 		bl	tlsf_ffs
 1951              	.LVL253:
 579:..\..\..\arduinoLCD\test\Pain Drain\libraries\lvgl\src\misc/lv_tlsf.c **** 
 1952              		.loc 1 579 0
 1953 0044 3060     		str	r0, [r6]
 582:..\..\..\arduinoLCD\test\Pain Drain\libraries\lvgl\src\misc/lv_tlsf.c **** }
 1954              		.loc 1 582 0
 1955 0046 6301     		lsls	r3, r4, #5
 1956 0048 1B18     		adds	r3, r3, r0
 1957 004a 0E33     		adds	r3, r3, #14
 1958 004c 9B00     		lsls	r3, r3, #2
 1959 004e EB18     		adds	r3, r5, r3
 1960 0050 5868     		ldr	r0, [r3, #4]
 1961              	.LVL254:
 1962 0052 00E0     		b	.L115
 1963              	.LVL255:
 1964              	.L118:
 1965              	.LBB8:
 570:..\..\..\arduinoLCD\test\Pain Drain\libraries\lvgl\src\misc/lv_tlsf.c ****         }
 1966              		.loc 1 570 0
 1967 0054 0020     		movs	r0, #0
 1968              	.LVL256:
 1969              	.L115:
ARM GAS  C:\Users\haske\AppData\Local\Temp\ccswauRt.s 			page 53


 1970              	.LBE8:
 583:..\..\..\arduinoLCD\test\Pain Drain\libraries\lvgl\src\misc/lv_tlsf.c **** 
 1971              		.loc 1 583 0
 1972              		@ sp needed
 1973              	.LVL257:
 1974              	.LVL258:
 1975              	.LVL259:
 1976 0056 F8BD     		pop	{r3, r4, r5, r6, r7, pc}
 1977              		.cfi_endproc
 1978              	.LFE26:
 1979              		.size	search_suitable_block, .-search_suitable_block
 1980              		.section	.text.block_locate_free,"ax",%progbits
 1981              		.align	2
 1982              		.code	16
 1983              		.thumb_func
 1984              		.type	block_locate_free, %function
 1985              	block_locate_free:
 1986              	.LFB39:
 756:..\..\..\arduinoLCD\test\Pain Drain\libraries\lvgl\src\misc/lv_tlsf.c ****     int fl = 0, sl = 0;
 1987              		.loc 1 756 0
 1988              		.cfi_startproc
 1989              		@ args = 0, pretend = 0, frame = 8
 1990              		@ frame_needed = 0, uses_anonymous_args = 0
 1991              	.LVL260:
 1992 0000 70B5     		push	{r4, r5, r6, lr}
 1993              		.cfi_def_cfa_offset 16
 1994              		.cfi_offset 4, -16
 1995              		.cfi_offset 5, -12
 1996              		.cfi_offset 6, -8
 1997              		.cfi_offset 14, -4
 1998 0002 82B0     		sub	sp, sp, #8
 1999              		.cfi_def_cfa_offset 24
 2000 0004 0600     		movs	r6, r0
 2001 0006 0D00     		movs	r5, r1
 757:..\..\..\arduinoLCD\test\Pain Drain\libraries\lvgl\src\misc/lv_tlsf.c ****     block_header_t * block = 0;
 2002              		.loc 1 757 0
 2003 0008 0023     		movs	r3, #0
 2004 000a 0193     		str	r3, [sp, #4]
 2005 000c 0093     		str	r3, [sp]
 2006              	.LVL261:
 760:..\..\..\arduinoLCD\test\Pain Drain\libraries\lvgl\src\misc/lv_tlsf.c ****         mapping_search(size, &fl, &sl);
 2007              		.loc 1 760 0
 2008 000e 0029     		cmp	r1, #0
 2009 0010 0ED0     		beq	.L124
 761:..\..\..\arduinoLCD\test\Pain Drain\libraries\lvgl\src\misc/lv_tlsf.c **** 
 2010              		.loc 1 761 0
 2011 0012 6A46     		mov	r2, sp
 2012 0014 01A9     		add	r1, sp, #4
 2013              	.LVL262:
 2014 0016 2800     		movs	r0, r5
 2015              	.LVL263:
 2016 0018 FFF7FEFF 		bl	mapping_search
 2017              	.LVL264:
 769:..\..\..\arduinoLCD\test\Pain Drain\libraries\lvgl\src\misc/lv_tlsf.c ****             block = search_suitable_block(control, &fl, &sl);
 2018              		.loc 1 769 0
 2019 001c 019B     		ldr	r3, [sp, #4]
 2020 001e 092B     		cmp	r3, #9
ARM GAS  C:\Users\haske\AppData\Local\Temp\ccswauRt.s 			page 54


 2021 0020 08DC     		bgt	.L125
 770:..\..\..\arduinoLCD\test\Pain Drain\libraries\lvgl\src\misc/lv_tlsf.c ****         }
 2022              		.loc 1 770 0
 2023 0022 6A46     		mov	r2, sp
 2024 0024 01A9     		add	r1, sp, #4
 2025 0026 3000     		movs	r0, r6
 2026 0028 FFF7FEFF 		bl	search_suitable_block
 2027              	.LVL265:
 2028 002c 0400     		movs	r4, r0
 2029              	.LVL266:
 2030 002e 02E0     		b	.L120
 2031              	.LVL267:
 2032              	.L124:
 758:..\..\..\arduinoLCD\test\Pain Drain\libraries\lvgl\src\misc/lv_tlsf.c **** 
 2033              		.loc 1 758 0
 2034 0030 0024     		movs	r4, #0
 2035 0032 00E0     		b	.L120
 2036              	.LVL268:
 2037              	.L125:
 2038 0034 0024     		movs	r4, #0
 2039              	.LVL269:
 2040              	.L120:
 774:..\..\..\arduinoLCD\test\Pain Drain\libraries\lvgl\src\misc/lv_tlsf.c ****         tlsf_assert(block_size(block) >= size);
 2041              		.loc 1 774 0
 2042 0036 002C     		cmp	r4, #0
 2043 0038 0BD0     		beq	.L121
 775:..\..\..\arduinoLCD\test\Pain Drain\libraries\lvgl\src\misc/lv_tlsf.c ****         remove_free_block(control, block, fl, sl);
 2044              		.loc 1 775 0
 2045 003a 2000     		movs	r0, r4
 2046 003c FFF7FEFF 		bl	block_size
 2047              	.LVL270:
 2048 0040 8542     		cmp	r5, r0
 2049 0042 00D9     		bls	.L122
 2050              	.L123:
 2051 0044 FEE7     		b	.L123
 2052              	.L122:
 776:..\..\..\arduinoLCD\test\Pain Drain\libraries\lvgl\src\misc/lv_tlsf.c ****     }
 2053              		.loc 1 776 0
 2054 0046 009B     		ldr	r3, [sp]
 2055 0048 019A     		ldr	r2, [sp, #4]
 2056 004a 2100     		movs	r1, r4
 2057 004c 3000     		movs	r0, r6
 2058 004e FFF7FEFF 		bl	remove_free_block
 2059              	.LVL271:
 2060              	.L121:
 780:..\..\..\arduinoLCD\test\Pain Drain\libraries\lvgl\src\misc/lv_tlsf.c **** 
 2061              		.loc 1 780 0
 2062 0052 2000     		movs	r0, r4
 2063 0054 02B0     		add	sp, sp, #8
 2064              		@ sp needed
 2065              	.LVL272:
 2066              	.LVL273:
 2067              	.LVL274:
 2068 0056 70BD     		pop	{r4, r5, r6, pc}
 2069              		.cfi_endproc
 2070              	.LFE39:
 2071              		.size	block_locate_free, .-block_locate_free
ARM GAS  C:\Users\haske\AppData\Local\Temp\ccswauRt.s 			page 55


 2072              		.section	.text.lv_tlsf_check,"ax",%progbits
 2073              		.align	2
 2074              		.global	lv_tlsf_check
 2075              		.code	16
 2076              		.thumb_func
 2077              		.type	lv_tlsf_check, %function
 2078              	lv_tlsf_check:
 2079              	.LFB43:
 840:..\..\..\arduinoLCD\test\Pain Drain\libraries\lvgl\src\misc/lv_tlsf.c ****     int i, j;
 2080              		.loc 1 840 0
 2081              		.cfi_startproc
 2082              		@ args = 0, pretend = 0, frame = 16
 2083              		@ frame_needed = 0, uses_anonymous_args = 0
 2084              	.LVL275:
 2085 0000 F0B5     		push	{r4, r5, r6, r7, lr}
 2086              		.cfi_def_cfa_offset 20
 2087              		.cfi_offset 4, -20
 2088              		.cfi_offset 5, -16
 2089              		.cfi_offset 6, -12
 2090              		.cfi_offset 7, -8
 2091              		.cfi_offset 14, -4
 2092 0002 5746     		mov	r7, r10
 2093 0004 4E46     		mov	r6, r9
 2094 0006 C0B4     		push	{r6, r7}
 2095              		.cfi_def_cfa_offset 28
 2096              		.cfi_offset 9, -28
 2097              		.cfi_offset 10, -24
 2098 0008 85B0     		sub	sp, sp, #20
 2099              		.cfi_def_cfa_offset 48
 2100 000a 0700     		movs	r7, r0
 2101              	.LVL276:
 844:..\..\..\arduinoLCD\test\Pain Drain\libraries\lvgl\src\misc/lv_tlsf.c **** 
 2102              		.loc 1 844 0
 2103 000c 0024     		movs	r4, #0
 847:..\..\..\arduinoLCD\test\Pain Drain\libraries\lvgl\src\misc/lv_tlsf.c ****         for(j = 0; j < SL_INDEX_COUNT; ++j) {
 2104              		.loc 1 847 0
 2105 000e 0026     		movs	r6, #0
 2106 0010 7CE0     		b	.L127
 2107              	.LVL277:
 2108              	.L163:
 2109              	.LBB9:
 849:..\..\..\arduinoLCD\test\Pain Drain\libraries\lvgl\src\misc/lv_tlsf.c ****             const int sl_list = control->sl_bitmap[i];
 2110              		.loc 1 849 0
 2111 0012 0122     		movs	r2, #1
 2112 0014 1000     		movs	r0, r2
 2113 0016 B040     		lsls	r0, r0, r6
 2114              	.LVL278:
 850:..\..\..\arduinoLCD\test\Pain Drain\libraries\lvgl\src\misc/lv_tlsf.c ****             const int sl_map = sl_list & (1U << j);
 2115              		.loc 1 850 0
 2116 0018 331D     		adds	r3, r6, #4
 2117              	.LVL279:
 2118 001a 9B00     		lsls	r3, r3, #2
 2119 001c FB18     		adds	r3, r7, r3
 2120 001e 5968     		ldr	r1, [r3, #4]
 2121              	.LVL280:
 851:..\..\..\arduinoLCD\test\Pain Drain\libraries\lvgl\src\misc/lv_tlsf.c ****             const block_header_t * block = control->blocks[i][j];
 2122              		.loc 1 851 0
ARM GAS  C:\Users\haske\AppData\Local\Temp\ccswauRt.s 			page 56


 2123 0020 4B46     		mov	r3, r9
 2124 0022 9A40     		lsls	r2, r2, r3
 2125 0024 0A40     		ands	r2, r1
 2126              	.LVL281:
 852:..\..\..\arduinoLCD\test\Pain Drain\libraries\lvgl\src\misc/lv_tlsf.c **** 
 2127              		.loc 1 852 0
 2128 0026 7301     		lsls	r3, r6, #5
 2129 0028 4B44     		add	r3, r3, r9
 2130 002a 0E33     		adds	r3, r3, #14
 2131 002c 9B00     		lsls	r3, r3, #2
 2132 002e FB18     		adds	r3, r7, r3
 2133 0030 5D68     		ldr	r5, [r3, #4]
 2134              	.LVL282:
 855:..\..\..\arduinoLCD\test\Pain Drain\libraries\lvgl\src\misc/lv_tlsf.c ****                 tlsf_insist(!sl_map && "second-level map must be null");
 2135              		.loc 1 855 0
 2136 0032 3B69     		ldr	r3, [r7, #16]
 2137 0034 1842     		tst	r0, r3
 2138 0036 05D1     		bne	.L128
 856:..\..\..\arduinoLCD\test\Pain Drain\libraries\lvgl\src\misc/lv_tlsf.c ****             }
 2139              		.loc 1 856 0
 2140 0038 002A     		cmp	r2, #0
 2141 003a 00D0     		beq	.L129
 2142              	.L130:
 2143 003c FEE7     		b	.L130
 2144              	.L129:
 856:..\..\..\arduinoLCD\test\Pain Drain\libraries\lvgl\src\misc/lv_tlsf.c ****             }
 2145              		.loc 1 856 0 is_stmt 0 discriminator 1
 2146 003e 002A     		cmp	r2, #0
 2147 0040 00D0     		beq	.L128
 856:..\..\..\arduinoLCD\test\Pain Drain\libraries\lvgl\src\misc/lv_tlsf.c ****             }
 2148              		.loc 1 856 0 discriminator 2
 2149 0042 013C     		subs	r4, r4, #1
 2150              	.LVL283:
 2151              	.L128:
 859:..\..\..\arduinoLCD\test\Pain Drain\libraries\lvgl\src\misc/lv_tlsf.c ****                 tlsf_insist(block == &control->block_null && "block list must be null");
 2152              		.loc 1 859 0 is_stmt 1
 2153 0044 002A     		cmp	r2, #0
 2154 0046 06D1     		bne	.L131
 860:..\..\..\arduinoLCD\test\Pain Drain\libraries\lvgl\src\misc/lv_tlsf.c ****                 continue;
 2155              		.loc 1 860 0
 2156 0048 BD42     		cmp	r5, r7
 2157 004a 00D0     		beq	.L132
 2158              	.L133:
 2159 004c FEE7     		b	.L133
 2160              	.L132:
 860:..\..\..\arduinoLCD\test\Pain Drain\libraries\lvgl\src\misc/lv_tlsf.c ****                 continue;
 2161              		.loc 1 860 0 is_stmt 0 discriminator 1
 2162 004e BD42     		cmp	r5, r7
 2163 0050 52D0     		beq	.L135
 860:..\..\..\arduinoLCD\test\Pain Drain\libraries\lvgl\src\misc/lv_tlsf.c ****                 continue;
 2164              		.loc 1 860 0 discriminator 2
 2165 0052 013C     		subs	r4, r4, #1
 2166              	.LVL284:
 861:..\..\..\arduinoLCD\test\Pain Drain\libraries\lvgl\src\misc/lv_tlsf.c ****             }
 2167              		.loc 1 861 0 is_stmt 1 discriminator 2
 2168 0054 50E0     		b	.L135
 2169              	.L131:
ARM GAS  C:\Users\haske\AppData\Local\Temp\ccswauRt.s 			page 57


 865:..\..\..\arduinoLCD\test\Pain Drain\libraries\lvgl\src\misc/lv_tlsf.c ****             tlsf_insist(block != &control->block_null && "block should not be null");
 2170              		.loc 1 865 0
 2171 0056 0029     		cmp	r1, #0
 2172 0058 00D1     		bne	.L136
 2173              	.L137:
 2174 005a FEE7     		b	.L137
 2175              	.L136:
 865:..\..\..\arduinoLCD\test\Pain Drain\libraries\lvgl\src\misc/lv_tlsf.c ****             tlsf_insist(block != &control->block_null && "block should not be null");
 2176              		.loc 1 865 0 is_stmt 0 discriminator 1
 2177 005c 0029     		cmp	r1, #0
 2178 005e 00D1     		bne	.L138
 865:..\..\..\arduinoLCD\test\Pain Drain\libraries\lvgl\src\misc/lv_tlsf.c ****             tlsf_insist(block != &control->block_null && "block should not be null");
 2179              		.loc 1 865 0 discriminator 2
 2180 0060 013C     		subs	r4, r4, #1
 2181              	.LVL285:
 2182              	.L138:
 866:..\..\..\arduinoLCD\test\Pain Drain\libraries\lvgl\src\misc/lv_tlsf.c **** 
 2183              		.loc 1 866 0 is_stmt 1
 2184 0062 BA46     		mov	r10, r7
 2185 0064 BD42     		cmp	r5, r7
 2186 0066 00D1     		bne	.L139
 2187              	.LVL286:
 2188              	.L140:
 2189 0068 FEE7     		b	.L140
 2190              	.L139:
 866:..\..\..\arduinoLCD\test\Pain Drain\libraries\lvgl\src\misc/lv_tlsf.c **** 
 2191              		.loc 1 866 0 is_stmt 0 discriminator 1
 2192 006a BD42     		cmp	r5, r7
 2193 006c 42D1     		bne	.L142
 866:..\..\..\arduinoLCD\test\Pain Drain\libraries\lvgl\src\misc/lv_tlsf.c **** 
 2194              		.loc 1 866 0 discriminator 2
 2195 006e 013C     		subs	r4, r4, #1
 2196              	.LVL287:
 2197 0070 40E0     		b	.L142
 2198              	.LVL288:
 2199              	.L162:
 2200              	.LBB10:
 870:..\..\..\arduinoLCD\test\Pain Drain\libraries\lvgl\src\misc/lv_tlsf.c ****                 tlsf_insist(!block_is_prev_free(block) && "blocks should have coalesced");
 2201              		.loc 1 870 0 is_stmt 1
 2202 0072 2800     		movs	r0, r5
 2203 0074 FFF7FEFF 		bl	block_is_free
 2204              	.LVL289:
 2205 0078 0028     		cmp	r0, #0
 2206 007a 00D1     		bne	.L143
 2207              	.L144:
 2208 007c FEE7     		b	.L144
 2209              	.L143:
 870:..\..\..\arduinoLCD\test\Pain Drain\libraries\lvgl\src\misc/lv_tlsf.c ****                 tlsf_insist(!block_is_prev_free(block) && "blocks should have coalesced");
 2210              		.loc 1 870 0 is_stmt 0 discriminator 2
 2211 007e 0028     		cmp	r0, #0
 2212 0080 00D1     		bne	.L145
 870:..\..\..\arduinoLCD\test\Pain Drain\libraries\lvgl\src\misc/lv_tlsf.c ****                 tlsf_insist(!block_is_prev_free(block) && "blocks should have coalesced");
 2213              		.loc 1 870 0 discriminator 5
 2214 0082 013C     		subs	r4, r4, #1
 2215              	.LVL290:
 2216              	.L145:
 871:..\..\..\arduinoLCD\test\Pain Drain\libraries\lvgl\src\misc/lv_tlsf.c ****                 tlsf_insist(!block_is_free(block_next(block)) && "blocks should have coalesced");
ARM GAS  C:\Users\haske\AppData\Local\Temp\ccswauRt.s 			page 58


 2217              		.loc 1 871 0 is_stmt 1
 2218 0084 2800     		movs	r0, r5
 2219 0086 FFF7FEFF 		bl	block_is_prev_free
 2220              	.LVL291:
 2221 008a 0028     		cmp	r0, #0
 2222 008c 00D0     		beq	.L146
 2223              	.L147:
 2224 008e FEE7     		b	.L147
 2225              	.L146:
 871:..\..\..\arduinoLCD\test\Pain Drain\libraries\lvgl\src\misc/lv_tlsf.c ****                 tlsf_insist(!block_is_free(block_next(block)) && "blocks should have coalesced");
 2226              		.loc 1 871 0 is_stmt 0 discriminator 1
 2227 0090 0028     		cmp	r0, #0
 2228 0092 00D0     		beq	.L148
 871:..\..\..\arduinoLCD\test\Pain Drain\libraries\lvgl\src\misc/lv_tlsf.c ****                 tlsf_insist(!block_is_free(block_next(block)) && "blocks should have coalesced");
 2229              		.loc 1 871 0 discriminator 2
 2230 0094 013C     		subs	r4, r4, #1
 2231              	.LVL292:
 2232              	.L148:
 872:..\..\..\arduinoLCD\test\Pain Drain\libraries\lvgl\src\misc/lv_tlsf.c ****                 tlsf_insist(block_is_prev_free(block_next(block)) && "block should be free");
 2233              		.loc 1 872 0 is_stmt 1
 2234 0096 2800     		movs	r0, r5
 2235 0098 FFF7FEFF 		bl	block_next
 2236              	.LVL293:
 2237 009c 0190     		str	r0, [sp, #4]
 2238 009e FFF7FEFF 		bl	block_is_free
 2239              	.LVL294:
 2240 00a2 0028     		cmp	r0, #0
 2241 00a4 00D0     		beq	.L149
 2242              	.L150:
 2243 00a6 FEE7     		b	.L150
 2244              	.L149:
 872:..\..\..\arduinoLCD\test\Pain Drain\libraries\lvgl\src\misc/lv_tlsf.c ****                 tlsf_insist(block_is_prev_free(block_next(block)) && "block should be free");
 2245              		.loc 1 872 0 is_stmt 0 discriminator 1
 2246 00a8 0028     		cmp	r0, #0
 2247 00aa 00D0     		beq	.L151
 872:..\..\..\arduinoLCD\test\Pain Drain\libraries\lvgl\src\misc/lv_tlsf.c ****                 tlsf_insist(block_is_prev_free(block_next(block)) && "block should be free");
 2248              		.loc 1 872 0 discriminator 2
 2249 00ac 013C     		subs	r4, r4, #1
 2250              	.LVL295:
 2251              	.L151:
 873:..\..\..\arduinoLCD\test\Pain Drain\libraries\lvgl\src\misc/lv_tlsf.c ****                 tlsf_insist(block_size(block) >= block_size_min && "block not minimum size");
 2252              		.loc 1 873 0 is_stmt 1
 2253 00ae 0198     		ldr	r0, [sp, #4]
 2254 00b0 FFF7FEFF 		bl	block_is_prev_free
 2255              	.LVL296:
 2256 00b4 0028     		cmp	r0, #0
 2257 00b6 00D1     		bne	.L152
 2258              	.L153:
 2259 00b8 FEE7     		b	.L153
 2260              	.L152:
 873:..\..\..\arduinoLCD\test\Pain Drain\libraries\lvgl\src\misc/lv_tlsf.c ****                 tlsf_insist(block_size(block) >= block_size_min && "block not minimum size");
 2261              		.loc 1 873 0 is_stmt 0 discriminator 2
 2262 00ba 0028     		cmp	r0, #0
 2263 00bc 00D1     		bne	.L154
 873:..\..\..\arduinoLCD\test\Pain Drain\libraries\lvgl\src\misc/lv_tlsf.c ****                 tlsf_insist(block_size(block) >= block_size_min && "block not minimum size");
 2264              		.loc 1 873 0 discriminator 5
 2265 00be 013C     		subs	r4, r4, #1
ARM GAS  C:\Users\haske\AppData\Local\Temp\ccswauRt.s 			page 59


 2266              	.LVL297:
 2267              	.L154:
 874:..\..\..\arduinoLCD\test\Pain Drain\libraries\lvgl\src\misc/lv_tlsf.c **** 
 2268              		.loc 1 874 0 is_stmt 1
 2269 00c0 2800     		movs	r0, r5
 2270 00c2 FFF7FEFF 		bl	block_size
 2271              	.LVL298:
 2272 00c6 0B28     		cmp	r0, #11
 2273 00c8 00D8     		bhi	.L155
 2274              	.L156:
 2275 00ca FEE7     		b	.L156
 2276              	.L155:
 874:..\..\..\arduinoLCD\test\Pain Drain\libraries\lvgl\src\misc/lv_tlsf.c **** 
 2277              		.loc 1 874 0 is_stmt 0 discriminator 2
 2278 00cc 0B28     		cmp	r0, #11
 2279 00ce 00D8     		bhi	.L157
 874:..\..\..\arduinoLCD\test\Pain Drain\libraries\lvgl\src\misc/lv_tlsf.c **** 
 2280              		.loc 1 874 0 discriminator 5
 2281 00d0 013C     		subs	r4, r4, #1
 2282              	.LVL299:
 2283              	.L157:
 876:..\..\..\arduinoLCD\test\Pain Drain\libraries\lvgl\src\misc/lv_tlsf.c ****                 tlsf_insist(fli == i && sli == j && "block size indexed in wrong list");
 2284              		.loc 1 876 0 is_stmt 1
 2285 00d2 03AA     		add	r2, sp, #12
 2286 00d4 02A9     		add	r1, sp, #8
 2287 00d6 FFF7FEFF 		bl	mapping_insert
 2288              	.LVL300:
 877:..\..\..\arduinoLCD\test\Pain Drain\libraries\lvgl\src\misc/lv_tlsf.c ****                 block = block->next_free;
 2289              		.loc 1 877 0
 2290 00da 029A     		ldr	r2, [sp, #8]
 2291 00dc 9642     		cmp	r6, r2
 2292 00de 02D1     		bne	.L158
 877:..\..\..\arduinoLCD\test\Pain Drain\libraries\lvgl\src\misc/lv_tlsf.c ****                 block = block->next_free;
 2293              		.loc 1 877 0 is_stmt 0 discriminator 1
 2294 00e0 039B     		ldr	r3, [sp, #12]
 2295 00e2 9945     		cmp	r9, r3
 2296 00e4 00D0     		beq	.L159
 2297              	.L158:
 2298 00e6 FEE7     		b	.L158
 2299              	.L159:
 877:..\..\..\arduinoLCD\test\Pain Drain\libraries\lvgl\src\misc/lv_tlsf.c ****                 block = block->next_free;
 2300              		.loc 1 877 0 discriminator 2
 2301 00e8 9642     		cmp	r6, r2
 2302 00ea 01D1     		bne	.L160
 877:..\..\..\arduinoLCD\test\Pain Drain\libraries\lvgl\src\misc/lv_tlsf.c ****                 block = block->next_free;
 2303              		.loc 1 877 0 discriminator 4
 2304 00ec 9945     		cmp	r9, r3
 2305 00ee 00D0     		beq	.L161
 2306              	.L160:
 877:..\..\..\arduinoLCD\test\Pain Drain\libraries\lvgl\src\misc/lv_tlsf.c ****                 block = block->next_free;
 2307              		.loc 1 877 0 discriminator 5
 2308 00f0 013C     		subs	r4, r4, #1
 2309              	.LVL301:
 2310              	.L161:
 878:..\..\..\arduinoLCD\test\Pain Drain\libraries\lvgl\src\misc/lv_tlsf.c ****             }
 2311              		.loc 1 878 0 is_stmt 1
 2312 00f2 AD68     		ldr	r5, [r5, #8]
ARM GAS  C:\Users\haske\AppData\Local\Temp\ccswauRt.s 			page 60


 2313              	.LVL302:
 2314              	.L142:
 2315              	.LBE10:
 868:..\..\..\arduinoLCD\test\Pain Drain\libraries\lvgl\src\misc/lv_tlsf.c ****                 int fli, sli;
 2316              		.loc 1 868 0
 2317 00f4 5545     		cmp	r5, r10
 2318 00f6 BCD1     		bne	.L162
 2319              	.L135:
 2320              	.LBE9:
 848:..\..\..\arduinoLCD\test\Pain Drain\libraries\lvgl\src\misc/lv_tlsf.c ****             const int fl_map = control->fl_bitmap & (1U << i);
 2321              		.loc 1 848 0 discriminator 2
 2322 00f8 0123     		movs	r3, #1
 2323 00fa 9C46     		mov	ip, r3
 2324 00fc E144     		add	r9, r9, ip
 2325              	.LVL303:
 2326 00fe 01E0     		b	.L164
 2327              	.LVL304:
 2328              	.L165:
 2329 0100 0023     		movs	r3, #0
 2330 0102 9946     		mov	r9, r3
 2331              	.L164:
 2332              	.LVL305:
 848:..\..\..\arduinoLCD\test\Pain Drain\libraries\lvgl\src\misc/lv_tlsf.c ****             const int fl_map = control->fl_bitmap & (1U << i);
 2333              		.loc 1 848 0 is_stmt 0 discriminator 1
 2334 0104 4B46     		mov	r3, r9
 2335 0106 1F2B     		cmp	r3, #31
 2336 0108 83DD     		ble	.L163
 847:..\..\..\arduinoLCD\test\Pain Drain\libraries\lvgl\src\misc/lv_tlsf.c ****         for(j = 0; j < SL_INDEX_COUNT; ++j) {
 2337              		.loc 1 847 0 is_stmt 1 discriminator 2
 2338 010a 0136     		adds	r6, r6, #1
 2339              	.LVL306:
 2340              	.L127:
 847:..\..\..\arduinoLCD\test\Pain Drain\libraries\lvgl\src\misc/lv_tlsf.c ****         for(j = 0; j < SL_INDEX_COUNT; ++j) {
 2341              		.loc 1 847 0 is_stmt 0 discriminator 1
 2342 010c 092E     		cmp	r6, #9
 2343 010e F7DD     		ble	.L165
 884:..\..\..\arduinoLCD\test\Pain Drain\libraries\lvgl\src\misc/lv_tlsf.c **** 
 2344              		.loc 1 884 0 is_stmt 1
 2345 0110 2000     		movs	r0, r4
 2346 0112 05B0     		add	sp, sp, #20
 2347              		@ sp needed
 2348              	.LVL307:
 2349              	.LVL308:
 2350              	.LVL309:
 2351 0114 0CBC     		pop	{r2, r3}
 2352 0116 9146     		mov	r9, r2
 2353 0118 9A46     		mov	r10, r3
 2354 011a F0BD     		pop	{r4, r5, r6, r7, pc}
 2355              		.cfi_endproc
 2356              	.LFE43:
 2357              		.size	lv_tlsf_check, .-lv_tlsf_check
 2358              		.section	.text.lv_tlsf_walk_pool,"ax",%progbits
 2359              		.align	2
 2360              		.global	lv_tlsf_walk_pool
 2361              		.code	16
 2362              		.thumb_func
 2363              		.type	lv_tlsf_walk_pool, %function
ARM GAS  C:\Users\haske\AppData\Local\Temp\ccswauRt.s 			page 61


 2364              	lv_tlsf_walk_pool:
 2365              	.LFB45:
 893:..\..\..\arduinoLCD\test\Pain Drain\libraries\lvgl\src\misc/lv_tlsf.c **** 
 894:..\..\..\arduinoLCD\test\Pain Drain\libraries\lvgl\src\misc/lv_tlsf.c **** void lv_tlsf_walk_pool(lv_pool_t pool, lv_tlsf_walker walker, void * user)
 895:..\..\..\arduinoLCD\test\Pain Drain\libraries\lvgl\src\misc/lv_tlsf.c **** {
 2366              		.loc 1 895 0
 2367              		.cfi_startproc
 2368              		@ args = 0, pretend = 0, frame = 8
 2369              		@ frame_needed = 0, uses_anonymous_args = 0
 2370              	.LVL310:
 2371 0000 F0B5     		push	{r4, r5, r6, r7, lr}
 2372              		.cfi_def_cfa_offset 20
 2373              		.cfi_offset 4, -20
 2374              		.cfi_offset 5, -16
 2375              		.cfi_offset 6, -12
 2376              		.cfi_offset 7, -8
 2377              		.cfi_offset 14, -4
 2378 0002 83B0     		sub	sp, sp, #12
 2379              		.cfi_def_cfa_offset 32
 2380 0004 0F1E     		subs	r7, r1, #0
 2381 0006 0192     		str	r2, [sp, #4]
 896:..\..\..\arduinoLCD\test\Pain Drain\libraries\lvgl\src\misc/lv_tlsf.c ****     lv_tlsf_walker pool_walker = walker ? walker : default_walker;
 2382              		.loc 1 896 0
 2383 0008 00D1     		bne	.L167
 2384 000a 124F     		ldr	r7, .L171
 2385              	.L167:
 2386              	.LVL311:
 897:..\..\..\arduinoLCD\test\Pain Drain\libraries\lvgl\src\misc/lv_tlsf.c ****     block_header_t * block =
 2387              		.loc 1 897 0 discriminator 4
 2388 000c 0421     		movs	r1, #4
 2389              	.LVL312:
 2390 000e 4942     		rsbs	r1, r1, #0
 2391 0010 FFF7FEFF 		bl	offset_to_block
 2392              	.LVL313:
 2393 0014 0400     		movs	r4, r0
 2394              	.LVL314:
 898:..\..\..\arduinoLCD\test\Pain Drain\libraries\lvgl\src\misc/lv_tlsf.c ****         offset_to_block(pool, -(int)block_header_overhead);
 899:..\..\..\arduinoLCD\test\Pain Drain\libraries\lvgl\src\misc/lv_tlsf.c **** 
 900:..\..\..\arduinoLCD\test\Pain Drain\libraries\lvgl\src\misc/lv_tlsf.c ****     while(block && !block_is_last(block)) {
 2395              		.loc 1 900 0 discriminator 4
 2396 0016 14E0     		b	.L168
 2397              	.LVL315:
 2398              	.L170:
 901:..\..\..\arduinoLCD\test\Pain Drain\libraries\lvgl\src\misc/lv_tlsf.c ****         pool_walker(
 2399              		.loc 1 901 0
 2400 0018 2000     		movs	r0, r4
 2401 001a FFF7FEFF 		bl	block_to_ptr
 2402              	.LVL316:
 2403 001e 0500     		movs	r5, r0
 2404 0020 2000     		movs	r0, r4
 2405 0022 FFF7FEFF 		bl	block_size
 2406              	.LVL317:
 2407 0026 0600     		movs	r6, r0
 902:..\..\..\arduinoLCD\test\Pain Drain\libraries\lvgl\src\misc/lv_tlsf.c ****             block_to_ptr(block),
 903:..\..\..\arduinoLCD\test\Pain Drain\libraries\lvgl\src\misc/lv_tlsf.c ****             block_size(block),
 904:..\..\..\arduinoLCD\test\Pain Drain\libraries\lvgl\src\misc/lv_tlsf.c ****             !block_is_free(block),
 2408              		.loc 1 904 0
ARM GAS  C:\Users\haske\AppData\Local\Temp\ccswauRt.s 			page 62


 2409 0028 2000     		movs	r0, r4
 2410 002a FFF7FEFF 		bl	block_is_free
 2411              	.LVL318:
 901:..\..\..\arduinoLCD\test\Pain Drain\libraries\lvgl\src\misc/lv_tlsf.c ****         pool_walker(
 2412              		.loc 1 901 0
 2413 002e 4242     		rsbs	r2, r0, #0
 2414 0030 4241     		adcs	r2, r2, r0
 2415 0032 019B     		ldr	r3, [sp, #4]
 2416 0034 3100     		movs	r1, r6
 2417 0036 2800     		movs	r0, r5
 2418 0038 B847     		blx	r7
 2419              	.LVL319:
 905:..\..\..\arduinoLCD\test\Pain Drain\libraries\lvgl\src\misc/lv_tlsf.c ****             user);
 906:..\..\..\arduinoLCD\test\Pain Drain\libraries\lvgl\src\misc/lv_tlsf.c ****         block = block_next(block);
 2420              		.loc 1 906 0
 2421 003a 2000     		movs	r0, r4
 2422 003c FFF7FEFF 		bl	block_next
 2423              	.LVL320:
 2424 0040 0400     		movs	r4, r0
 2425              	.LVL321:
 2426              	.L168:
 900:..\..\..\arduinoLCD\test\Pain Drain\libraries\lvgl\src\misc/lv_tlsf.c ****         pool_walker(
 2427              		.loc 1 900 0
 2428 0042 002C     		cmp	r4, #0
 2429 0044 04D0     		beq	.L166
 900:..\..\..\arduinoLCD\test\Pain Drain\libraries\lvgl\src\misc/lv_tlsf.c ****         pool_walker(
 2430              		.loc 1 900 0 is_stmt 0 discriminator 1
 2431 0046 2000     		movs	r0, r4
 2432 0048 FFF7FEFF 		bl	block_is_last
 2433              	.LVL322:
 2434 004c 0028     		cmp	r0, #0
 2435 004e E3D0     		beq	.L170
 2436              	.L166:
 907:..\..\..\arduinoLCD\test\Pain Drain\libraries\lvgl\src\misc/lv_tlsf.c ****     }
 908:..\..\..\arduinoLCD\test\Pain Drain\libraries\lvgl\src\misc/lv_tlsf.c **** }
 2437              		.loc 1 908 0 is_stmt 1
 2438 0050 03B0     		add	sp, sp, #12
 2439              		@ sp needed
 2440              	.LVL323:
 2441              	.LVL324:
 2442 0052 F0BD     		pop	{r4, r5, r6, r7, pc}
 2443              	.L172:
 2444              		.align	2
 2445              	.L171:
 2446 0054 00000000 		.word	default_walker
 2447              		.cfi_endproc
 2448              	.LFE45:
 2449              		.size	lv_tlsf_walk_pool, .-lv_tlsf_walk_pool
 2450              		.section	.text.lv_tlsf_block_size,"ax",%progbits
 2451              		.align	2
 2452              		.global	lv_tlsf_block_size
 2453              		.code	16
 2454              		.thumb_func
 2455              		.type	lv_tlsf_block_size, %function
 2456              	lv_tlsf_block_size:
 2457              	.LFB46:
 909:..\..\..\arduinoLCD\test\Pain Drain\libraries\lvgl\src\misc/lv_tlsf.c **** 
ARM GAS  C:\Users\haske\AppData\Local\Temp\ccswauRt.s 			page 63


 910:..\..\..\arduinoLCD\test\Pain Drain\libraries\lvgl\src\misc/lv_tlsf.c **** size_t lv_tlsf_block_size(void * ptr)
 911:..\..\..\arduinoLCD\test\Pain Drain\libraries\lvgl\src\misc/lv_tlsf.c **** {
 2458              		.loc 1 911 0
 2459              		.cfi_startproc
 2460              		@ args = 0, pretend = 0, frame = 0
 2461              		@ frame_needed = 0, uses_anonymous_args = 0
 2462              	.LVL325:
 2463 0000 10B5     		push	{r4, lr}
 2464              		.cfi_def_cfa_offset 8
 2465              		.cfi_offset 4, -8
 2466              		.cfi_offset 14, -4
 2467              	.LVL326:
 912:..\..\..\arduinoLCD\test\Pain Drain\libraries\lvgl\src\misc/lv_tlsf.c ****     size_t size = 0;
 913:..\..\..\arduinoLCD\test\Pain Drain\libraries\lvgl\src\misc/lv_tlsf.c ****     if(ptr) {
 2468              		.loc 1 913 0
 2469 0002 0028     		cmp	r0, #0
 2470 0004 04D0     		beq	.L175
 2471              	.LBB11:
 914:..\..\..\arduinoLCD\test\Pain Drain\libraries\lvgl\src\misc/lv_tlsf.c ****         const block_header_t * block = block_from_ptr(ptr);
 2472              		.loc 1 914 0
 2473 0006 FFF7FEFF 		bl	block_from_ptr
 2474              	.LVL327:
 915:..\..\..\arduinoLCD\test\Pain Drain\libraries\lvgl\src\misc/lv_tlsf.c ****         size = block_size(block);
 2475              		.loc 1 915 0
 2476 000a FFF7FEFF 		bl	block_size
 2477              	.LVL328:
 2478 000e 00E0     		b	.L174
 2479              	.LVL329:
 2480              	.L175:
 2481              	.LBE11:
 912:..\..\..\arduinoLCD\test\Pain Drain\libraries\lvgl\src\misc/lv_tlsf.c ****     size_t size = 0;
 2482              		.loc 1 912 0
 2483 0010 0020     		movs	r0, #0
 2484              	.LVL330:
 2485              	.L174:
 916:..\..\..\arduinoLCD\test\Pain Drain\libraries\lvgl\src\misc/lv_tlsf.c ****     }
 917:..\..\..\arduinoLCD\test\Pain Drain\libraries\lvgl\src\misc/lv_tlsf.c ****     return size;
 918:..\..\..\arduinoLCD\test\Pain Drain\libraries\lvgl\src\misc/lv_tlsf.c **** }
 2486              		.loc 1 918 0
 2487              		@ sp needed
 2488 0012 10BD     		pop	{r4, pc}
 2489              		.cfi_endproc
 2490              	.LFE46:
 2491              		.size	lv_tlsf_block_size, .-lv_tlsf_block_size
 2492              		.section	.text.lv_tlsf_check_pool,"ax",%progbits
 2493              		.align	2
 2494              		.global	lv_tlsf_check_pool
 2495              		.code	16
 2496              		.thumb_func
 2497              		.type	lv_tlsf_check_pool, %function
 2498              	lv_tlsf_check_pool:
 2499              	.LFB47:
 919:..\..\..\arduinoLCD\test\Pain Drain\libraries\lvgl\src\misc/lv_tlsf.c **** 
 920:..\..\..\arduinoLCD\test\Pain Drain\libraries\lvgl\src\misc/lv_tlsf.c **** int lv_tlsf_check_pool(lv_pool_t pool)
 921:..\..\..\arduinoLCD\test\Pain Drain\libraries\lvgl\src\misc/lv_tlsf.c **** {
 2500              		.loc 1 921 0
 2501              		.cfi_startproc
ARM GAS  C:\Users\haske\AppData\Local\Temp\ccswauRt.s 			page 64


 2502              		@ args = 0, pretend = 0, frame = 8
 2503              		@ frame_needed = 0, uses_anonymous_args = 0
 2504              	.LVL331:
 2505 0000 00B5     		push	{lr}
 2506              		.cfi_def_cfa_offset 4
 2507              		.cfi_offset 14, -4
 2508 0002 83B0     		sub	sp, sp, #12
 2509              		.cfi_def_cfa_offset 16
 922:..\..\..\arduinoLCD\test\Pain Drain\libraries\lvgl\src\misc/lv_tlsf.c ****     /* Check that the blocks are physically correct. */
 923:..\..\..\arduinoLCD\test\Pain Drain\libraries\lvgl\src\misc/lv_tlsf.c ****     integrity_t integ = { 0, 0 };
 2510              		.loc 1 923 0
 2511 0004 0023     		movs	r3, #0
 2512 0006 0093     		str	r3, [sp]
 2513 0008 0193     		str	r3, [sp, #4]
 924:..\..\..\arduinoLCD\test\Pain Drain\libraries\lvgl\src\misc/lv_tlsf.c ****     lv_tlsf_walk_pool(pool, integrity_walker, &integ);
 2514              		.loc 1 924 0
 2515 000a 6A46     		mov	r2, sp
 2516 000c 0249     		ldr	r1, .L177
 2517 000e FFF7FEFF 		bl	lv_tlsf_walk_pool
 2518              	.LVL332:
 925:..\..\..\arduinoLCD\test\Pain Drain\libraries\lvgl\src\misc/lv_tlsf.c **** 
 926:..\..\..\arduinoLCD\test\Pain Drain\libraries\lvgl\src\misc/lv_tlsf.c ****     return integ.status;
 2519              		.loc 1 926 0
 2520 0012 0198     		ldr	r0, [sp, #4]
 927:..\..\..\arduinoLCD\test\Pain Drain\libraries\lvgl\src\misc/lv_tlsf.c **** }
 2521              		.loc 1 927 0
 2522 0014 03B0     		add	sp, sp, #12
 2523              		@ sp needed
 2524 0016 00BD     		pop	{pc}
 2525              	.L178:
 2526              		.align	2
 2527              	.L177:
 2528 0018 00000000 		.word	integrity_walker
 2529              		.cfi_endproc
 2530              	.LFE47:
 2531              		.size	lv_tlsf_check_pool, .-lv_tlsf_check_pool
 2532              		.section	.text.lv_tlsf_size,"ax",%progbits
 2533              		.align	2
 2534              		.global	lv_tlsf_size
 2535              		.code	16
 2536              		.thumb_func
 2537              		.type	lv_tlsf_size, %function
 2538              	lv_tlsf_size:
 2539              	.LFB48:
 928:..\..\..\arduinoLCD\test\Pain Drain\libraries\lvgl\src\misc/lv_tlsf.c **** 
 929:..\..\..\arduinoLCD\test\Pain Drain\libraries\lvgl\src\misc/lv_tlsf.c **** /*
 930:..\..\..\arduinoLCD\test\Pain Drain\libraries\lvgl\src\misc/lv_tlsf.c **** ** Size of the TLSF structures in a given memory block passed to
 931:..\..\..\arduinoLCD\test\Pain Drain\libraries\lvgl\src\misc/lv_tlsf.c **** ** lv_tlsf_create, equal to the size of a control_t
 932:..\..\..\arduinoLCD\test\Pain Drain\libraries\lvgl\src\misc/lv_tlsf.c **** */
 933:..\..\..\arduinoLCD\test\Pain Drain\libraries\lvgl\src\misc/lv_tlsf.c **** size_t lv_tlsf_size(void)
 934:..\..\..\arduinoLCD\test\Pain Drain\libraries\lvgl\src\misc/lv_tlsf.c **** {
 2540              		.loc 1 934 0
 2541              		.cfi_startproc
 2542              		@ args = 0, pretend = 0, frame = 0
 2543              		@ frame_needed = 0, uses_anonymous_args = 0
 2544              		@ link register save eliminated.
 935:..\..\..\arduinoLCD\test\Pain Drain\libraries\lvgl\src\misc/lv_tlsf.c ****     return sizeof(control_t);
ARM GAS  C:\Users\haske\AppData\Local\Temp\ccswauRt.s 			page 65


 936:..\..\..\arduinoLCD\test\Pain Drain\libraries\lvgl\src\misc/lv_tlsf.c **** }
 2545              		.loc 1 936 0
 2546 0000 0048     		ldr	r0, .L180
 2547              		@ sp needed
 2548 0002 7047     		bx	lr
 2549              	.L181:
 2550              		.align	2
 2551              	.L180:
 2552 0004 3C050000 		.word	1340
 2553              		.cfi_endproc
 2554              	.LFE48:
 2555              		.size	lv_tlsf_size, .-lv_tlsf_size
 2556              		.section	.text.lv_tlsf_align_size,"ax",%progbits
 2557              		.align	2
 2558              		.global	lv_tlsf_align_size
 2559              		.code	16
 2560              		.thumb_func
 2561              		.type	lv_tlsf_align_size, %function
 2562              	lv_tlsf_align_size:
 2563              	.LFB49:
 937:..\..\..\arduinoLCD\test\Pain Drain\libraries\lvgl\src\misc/lv_tlsf.c **** 
 938:..\..\..\arduinoLCD\test\Pain Drain\libraries\lvgl\src\misc/lv_tlsf.c **** size_t lv_tlsf_align_size(void)
 939:..\..\..\arduinoLCD\test\Pain Drain\libraries\lvgl\src\misc/lv_tlsf.c **** {
 2564              		.loc 1 939 0
 2565              		.cfi_startproc
 2566              		@ args = 0, pretend = 0, frame = 0
 2567              		@ frame_needed = 0, uses_anonymous_args = 0
 2568              		@ link register save eliminated.
 940:..\..\..\arduinoLCD\test\Pain Drain\libraries\lvgl\src\misc/lv_tlsf.c ****     return ALIGN_SIZE;
 941:..\..\..\arduinoLCD\test\Pain Drain\libraries\lvgl\src\misc/lv_tlsf.c **** }
 2569              		.loc 1 941 0
 2570 0000 0420     		movs	r0, #4
 2571              		@ sp needed
 2572 0002 7047     		bx	lr
 2573              		.cfi_endproc
 2574              	.LFE49:
 2575              		.size	lv_tlsf_align_size, .-lv_tlsf_align_size
 2576              		.section	.text.lv_tlsf_block_size_min,"ax",%progbits
 2577              		.align	2
 2578              		.global	lv_tlsf_block_size_min
 2579              		.code	16
 2580              		.thumb_func
 2581              		.type	lv_tlsf_block_size_min, %function
 2582              	lv_tlsf_block_size_min:
 2583              	.LFB50:
 942:..\..\..\arduinoLCD\test\Pain Drain\libraries\lvgl\src\misc/lv_tlsf.c **** 
 943:..\..\..\arduinoLCD\test\Pain Drain\libraries\lvgl\src\misc/lv_tlsf.c **** size_t lv_tlsf_block_size_min(void)
 944:..\..\..\arduinoLCD\test\Pain Drain\libraries\lvgl\src\misc/lv_tlsf.c **** {
 2584              		.loc 1 944 0
 2585              		.cfi_startproc
 2586              		@ args = 0, pretend = 0, frame = 0
 2587              		@ frame_needed = 0, uses_anonymous_args = 0
 2588              		@ link register save eliminated.
 945:..\..\..\arduinoLCD\test\Pain Drain\libraries\lvgl\src\misc/lv_tlsf.c ****     return block_size_min;
 946:..\..\..\arduinoLCD\test\Pain Drain\libraries\lvgl\src\misc/lv_tlsf.c **** }
 2589              		.loc 1 946 0
 2590 0000 0C20     		movs	r0, #12
ARM GAS  C:\Users\haske\AppData\Local\Temp\ccswauRt.s 			page 66


 2591              		@ sp needed
 2592 0002 7047     		bx	lr
 2593              		.cfi_endproc
 2594              	.LFE50:
 2595              		.size	lv_tlsf_block_size_min, .-lv_tlsf_block_size_min
 2596              		.section	.text.lv_tlsf_block_size_max,"ax",%progbits
 2597              		.align	2
 2598              		.global	lv_tlsf_block_size_max
 2599              		.code	16
 2600              		.thumb_func
 2601              		.type	lv_tlsf_block_size_max, %function
 2602              	lv_tlsf_block_size_max:
 2603              	.LFB51:
 947:..\..\..\arduinoLCD\test\Pain Drain\libraries\lvgl\src\misc/lv_tlsf.c **** 
 948:..\..\..\arduinoLCD\test\Pain Drain\libraries\lvgl\src\misc/lv_tlsf.c **** size_t lv_tlsf_block_size_max(void)
 949:..\..\..\arduinoLCD\test\Pain Drain\libraries\lvgl\src\misc/lv_tlsf.c **** {
 2604              		.loc 1 949 0
 2605              		.cfi_startproc
 2606              		@ args = 0, pretend = 0, frame = 0
 2607              		@ frame_needed = 0, uses_anonymous_args = 0
 2608              		@ link register save eliminated.
 950:..\..\..\arduinoLCD\test\Pain Drain\libraries\lvgl\src\misc/lv_tlsf.c ****     return block_size_max;
 951:..\..\..\arduinoLCD\test\Pain Drain\libraries\lvgl\src\misc/lv_tlsf.c **** }
 2609              		.loc 1 951 0
 2610 0000 8020     		movs	r0, #128
 2611 0002 4002     		lsls	r0, r0, #9
 2612              		@ sp needed
 2613 0004 7047     		bx	lr
 2614              		.cfi_endproc
 2615              	.LFE51:
 2616              		.size	lv_tlsf_block_size_max, .-lv_tlsf_block_size_max
 2617 0006 C046     		.section	.text.lv_tlsf_pool_overhead,"ax",%progbits
 2618              		.align	2
 2619              		.global	lv_tlsf_pool_overhead
 2620              		.code	16
 2621              		.thumb_func
 2622              		.type	lv_tlsf_pool_overhead, %function
 2623              	lv_tlsf_pool_overhead:
 2624              	.LFB52:
 952:..\..\..\arduinoLCD\test\Pain Drain\libraries\lvgl\src\misc/lv_tlsf.c **** 
 953:..\..\..\arduinoLCD\test\Pain Drain\libraries\lvgl\src\misc/lv_tlsf.c **** /*
 954:..\..\..\arduinoLCD\test\Pain Drain\libraries\lvgl\src\misc/lv_tlsf.c **** ** Overhead of the TLSF structures in a given memory block passed to
 955:..\..\..\arduinoLCD\test\Pain Drain\libraries\lvgl\src\misc/lv_tlsf.c **** ** lv_tlsf_add_pool, equal to the overhead of a free block and the
 956:..\..\..\arduinoLCD\test\Pain Drain\libraries\lvgl\src\misc/lv_tlsf.c **** ** sentinel block.
 957:..\..\..\arduinoLCD\test\Pain Drain\libraries\lvgl\src\misc/lv_tlsf.c **** */
 958:..\..\..\arduinoLCD\test\Pain Drain\libraries\lvgl\src\misc/lv_tlsf.c **** size_t lv_tlsf_pool_overhead(void)
 959:..\..\..\arduinoLCD\test\Pain Drain\libraries\lvgl\src\misc/lv_tlsf.c **** {
 2625              		.loc 1 959 0
 2626              		.cfi_startproc
 2627              		@ args = 0, pretend = 0, frame = 0
 2628              		@ frame_needed = 0, uses_anonymous_args = 0
 2629              		@ link register save eliminated.
 960:..\..\..\arduinoLCD\test\Pain Drain\libraries\lvgl\src\misc/lv_tlsf.c ****     return 2 * block_header_overhead;
 961:..\..\..\arduinoLCD\test\Pain Drain\libraries\lvgl\src\misc/lv_tlsf.c **** }
 2630              		.loc 1 961 0
 2631 0000 0820     		movs	r0, #8
 2632              		@ sp needed
ARM GAS  C:\Users\haske\AppData\Local\Temp\ccswauRt.s 			page 67


 2633 0002 7047     		bx	lr
 2634              		.cfi_endproc
 2635              	.LFE52:
 2636              		.size	lv_tlsf_pool_overhead, .-lv_tlsf_pool_overhead
 2637              		.section	.text.lv_tlsf_alloc_overhead,"ax",%progbits
 2638              		.align	2
 2639              		.global	lv_tlsf_alloc_overhead
 2640              		.code	16
 2641              		.thumb_func
 2642              		.type	lv_tlsf_alloc_overhead, %function
 2643              	lv_tlsf_alloc_overhead:
 2644              	.LFB53:
 962:..\..\..\arduinoLCD\test\Pain Drain\libraries\lvgl\src\misc/lv_tlsf.c **** 
 963:..\..\..\arduinoLCD\test\Pain Drain\libraries\lvgl\src\misc/lv_tlsf.c **** size_t lv_tlsf_alloc_overhead(void)
 964:..\..\..\arduinoLCD\test\Pain Drain\libraries\lvgl\src\misc/lv_tlsf.c **** {
 2645              		.loc 1 964 0
 2646              		.cfi_startproc
 2647              		@ args = 0, pretend = 0, frame = 0
 2648              		@ frame_needed = 0, uses_anonymous_args = 0
 2649              		@ link register save eliminated.
 965:..\..\..\arduinoLCD\test\Pain Drain\libraries\lvgl\src\misc/lv_tlsf.c ****     return block_header_overhead;
 966:..\..\..\arduinoLCD\test\Pain Drain\libraries\lvgl\src\misc/lv_tlsf.c **** }
 2650              		.loc 1 966 0
 2651 0000 0420     		movs	r0, #4
 2652              		@ sp needed
 2653 0002 7047     		bx	lr
 2654              		.cfi_endproc
 2655              	.LFE53:
 2656              		.size	lv_tlsf_alloc_overhead, .-lv_tlsf_alloc_overhead
 2657              		.section	.text.lv_tlsf_add_pool,"ax",%progbits
 2658              		.align	2
 2659              		.global	lv_tlsf_add_pool
 2660              		.code	16
 2661              		.thumb_func
 2662              		.type	lv_tlsf_add_pool, %function
 2663              	lv_tlsf_add_pool:
 2664              	.LFB54:
 967:..\..\..\arduinoLCD\test\Pain Drain\libraries\lvgl\src\misc/lv_tlsf.c **** 
 968:..\..\..\arduinoLCD\test\Pain Drain\libraries\lvgl\src\misc/lv_tlsf.c **** lv_pool_t lv_tlsf_add_pool(lv_tlsf_t tlsf, void * mem, size_t bytes)
 969:..\..\..\arduinoLCD\test\Pain Drain\libraries\lvgl\src\misc/lv_tlsf.c **** {
 2665              		.loc 1 969 0
 2666              		.cfi_startproc
 2667              		@ args = 0, pretend = 0, frame = 0
 2668              		@ frame_needed = 0, uses_anonymous_args = 0
 2669              	.LVL333:
 2670 0000 F8B5     		push	{r3, r4, r5, r6, r7, lr}
 2671              		.cfi_def_cfa_offset 24
 2672              		.cfi_offset 3, -24
 2673              		.cfi_offset 4, -20
 2674              		.cfi_offset 5, -16
 2675              		.cfi_offset 6, -12
 2676              		.cfi_offset 7, -8
 2677              		.cfi_offset 14, -4
 2678 0002 0600     		movs	r6, r0
 2679 0004 0C00     		movs	r4, r1
 2680 0006 1500     		movs	r5, r2
 970:..\..\..\arduinoLCD\test\Pain Drain\libraries\lvgl\src\misc/lv_tlsf.c ****     block_header_t * block;
ARM GAS  C:\Users\haske\AppData\Local\Temp\ccswauRt.s 			page 68


 971:..\..\..\arduinoLCD\test\Pain Drain\libraries\lvgl\src\misc/lv_tlsf.c ****     block_header_t * next;
 972:..\..\..\arduinoLCD\test\Pain Drain\libraries\lvgl\src\misc/lv_tlsf.c **** 
 973:..\..\..\arduinoLCD\test\Pain Drain\libraries\lvgl\src\misc/lv_tlsf.c ****     const size_t pool_overhead = lv_tlsf_pool_overhead();
 2681              		.loc 1 973 0
 2682 0008 FFF7FEFF 		bl	lv_tlsf_pool_overhead
 2683              	.LVL334:
 974:..\..\..\arduinoLCD\test\Pain Drain\libraries\lvgl\src\misc/lv_tlsf.c ****     const size_t pool_bytes = align_down(bytes - pool_overhead, ALIGN_SIZE);
 2684              		.loc 1 974 0
 2685 000c 281A     		subs	r0, r5, r0
 2686              	.LVL335:
 2687 000e 0421     		movs	r1, #4
 2688 0010 FFF7FEFF 		bl	align_down
 2689              	.LVL336:
 2690 0014 0700     		movs	r7, r0
 2691              	.LVL337:
 975:..\..\..\arduinoLCD\test\Pain Drain\libraries\lvgl\src\misc/lv_tlsf.c **** 
 976:..\..\..\arduinoLCD\test\Pain Drain\libraries\lvgl\src\misc/lv_tlsf.c ****     if(((ptrdiff_t)mem % ALIGN_SIZE) != 0) {
 2692              		.loc 1 976 0
 2693 0016 A307     		lsls	r3, r4, #30
 2694 0018 26D1     		bne	.L189
 977:..\..\..\arduinoLCD\test\Pain Drain\libraries\lvgl\src\misc/lv_tlsf.c ****         printf("lv_tlsf_add_pool: Memory must be aligned by %u bytes.\n",
 978:..\..\..\arduinoLCD\test\Pain Drain\libraries\lvgl\src\misc/lv_tlsf.c ****                (unsigned int)ALIGN_SIZE);
 979:..\..\..\arduinoLCD\test\Pain Drain\libraries\lvgl\src\misc/lv_tlsf.c ****         return 0;
 980:..\..\..\arduinoLCD\test\Pain Drain\libraries\lvgl\src\misc/lv_tlsf.c ****     }
 981:..\..\..\arduinoLCD\test\Pain Drain\libraries\lvgl\src\misc/lv_tlsf.c **** 
 982:..\..\..\arduinoLCD\test\Pain Drain\libraries\lvgl\src\misc/lv_tlsf.c ****     if(pool_bytes < block_size_min || pool_bytes > block_size_max) {
 2695              		.loc 1 982 0
 2696 001a 154A     		ldr	r2, .L191
 2697 001c 0300     		movs	r3, r0
 2698 001e 0C3B     		subs	r3, r3, #12
 2699 0020 9342     		cmp	r3, r2
 2700 0022 23D8     		bhi	.L190
 983:..\..\..\arduinoLCD\test\Pain Drain\libraries\lvgl\src\misc/lv_tlsf.c **** #if defined (TLSF_64BIT)
 984:..\..\..\arduinoLCD\test\Pain Drain\libraries\lvgl\src\misc/lv_tlsf.c ****         printf("lv_tlsf_add_pool: Memory size must be between 0x%x and 0x%x00 bytes.\n",
 985:..\..\..\arduinoLCD\test\Pain Drain\libraries\lvgl\src\misc/lv_tlsf.c ****                (unsigned int)(pool_overhead + block_size_min),
 986:..\..\..\arduinoLCD\test\Pain Drain\libraries\lvgl\src\misc/lv_tlsf.c ****                (unsigned int)((pool_overhead + block_size_max) / 256));
 987:..\..\..\arduinoLCD\test\Pain Drain\libraries\lvgl\src\misc/lv_tlsf.c **** #else
 988:..\..\..\arduinoLCD\test\Pain Drain\libraries\lvgl\src\misc/lv_tlsf.c ****         printf("lv_tlsf_add_pool: Memory size must be between %u and %u bytes.\n",
 989:..\..\..\arduinoLCD\test\Pain Drain\libraries\lvgl\src\misc/lv_tlsf.c ****                (unsigned int)(pool_overhead + block_size_min),
 990:..\..\..\arduinoLCD\test\Pain Drain\libraries\lvgl\src\misc/lv_tlsf.c ****                (unsigned int)(pool_overhead + block_size_max));
 991:..\..\..\arduinoLCD\test\Pain Drain\libraries\lvgl\src\misc/lv_tlsf.c **** #endif
 992:..\..\..\arduinoLCD\test\Pain Drain\libraries\lvgl\src\misc/lv_tlsf.c ****         return 0;
 993:..\..\..\arduinoLCD\test\Pain Drain\libraries\lvgl\src\misc/lv_tlsf.c ****     }
 994:..\..\..\arduinoLCD\test\Pain Drain\libraries\lvgl\src\misc/lv_tlsf.c **** 
 995:..\..\..\arduinoLCD\test\Pain Drain\libraries\lvgl\src\misc/lv_tlsf.c ****     /*
 996:..\..\..\arduinoLCD\test\Pain Drain\libraries\lvgl\src\misc/lv_tlsf.c ****     ** Create the main free block. Offset the start of the block slightly
 997:..\..\..\arduinoLCD\test\Pain Drain\libraries\lvgl\src\misc/lv_tlsf.c ****     ** so that the prev_phys_block field falls outside of the pool -
 998:..\..\..\arduinoLCD\test\Pain Drain\libraries\lvgl\src\misc/lv_tlsf.c ****     ** it will never be used.
 999:..\..\..\arduinoLCD\test\Pain Drain\libraries\lvgl\src\misc/lv_tlsf.c ****     */
1000:..\..\..\arduinoLCD\test\Pain Drain\libraries\lvgl\src\misc/lv_tlsf.c ****     block = offset_to_block(mem, -(tlsfptr_t)block_header_overhead);
 2701              		.loc 1 1000 0
 2702 0024 0421     		movs	r1, #4
 2703 0026 4942     		rsbs	r1, r1, #0
 2704 0028 2000     		movs	r0, r4
 2705              	.LVL338:
 2706 002a FFF7FEFF 		bl	offset_to_block
 2707              	.LVL339:
ARM GAS  C:\Users\haske\AppData\Local\Temp\ccswauRt.s 			page 69


 2708 002e 0500     		movs	r5, r0
 2709              	.LVL340:
1001:..\..\..\arduinoLCD\test\Pain Drain\libraries\lvgl\src\misc/lv_tlsf.c ****     block_set_size(block, pool_bytes);
 2710              		.loc 1 1001 0
 2711 0030 3900     		movs	r1, r7
 2712 0032 FFF7FEFF 		bl	block_set_size
 2713              	.LVL341:
1002:..\..\..\arduinoLCD\test\Pain Drain\libraries\lvgl\src\misc/lv_tlsf.c ****     block_set_free(block);
 2714              		.loc 1 1002 0
 2715 0036 2800     		movs	r0, r5
 2716 0038 FFF7FEFF 		bl	block_set_free
 2717              	.LVL342:
1003:..\..\..\arduinoLCD\test\Pain Drain\libraries\lvgl\src\misc/lv_tlsf.c ****     block_set_prev_used(block);
 2718              		.loc 1 1003 0
 2719 003c 2800     		movs	r0, r5
 2720 003e FFF7FEFF 		bl	block_set_prev_used
 2721              	.LVL343:
1004:..\..\..\arduinoLCD\test\Pain Drain\libraries\lvgl\src\misc/lv_tlsf.c ****     block_insert(tlsf_cast(control_t *, tlsf), block);
 2722              		.loc 1 1004 0
 2723 0042 2900     		movs	r1, r5
 2724 0044 3000     		movs	r0, r6
 2725 0046 FFF7FEFF 		bl	block_insert
 2726              	.LVL344:
1005:..\..\..\arduinoLCD\test\Pain Drain\libraries\lvgl\src\misc/lv_tlsf.c **** 
1006:..\..\..\arduinoLCD\test\Pain Drain\libraries\lvgl\src\misc/lv_tlsf.c ****     /* Split the block to create a zero-size sentinel block. */
1007:..\..\..\arduinoLCD\test\Pain Drain\libraries\lvgl\src\misc/lv_tlsf.c ****     next = block_link_next(block);
 2727              		.loc 1 1007 0
 2728 004a 2800     		movs	r0, r5
 2729 004c FFF7FEFF 		bl	block_link_next
 2730              	.LVL345:
 2731 0050 0500     		movs	r5, r0
 2732              	.LVL346:
1008:..\..\..\arduinoLCD\test\Pain Drain\libraries\lvgl\src\misc/lv_tlsf.c ****     block_set_size(next, 0);
 2733              		.loc 1 1008 0
 2734 0052 0021     		movs	r1, #0
 2735 0054 FFF7FEFF 		bl	block_set_size
 2736              	.LVL347:
1009:..\..\..\arduinoLCD\test\Pain Drain\libraries\lvgl\src\misc/lv_tlsf.c ****     block_set_used(next);
 2737              		.loc 1 1009 0
 2738 0058 2800     		movs	r0, r5
 2739 005a FFF7FEFF 		bl	block_set_used
 2740              	.LVL348:
1010:..\..\..\arduinoLCD\test\Pain Drain\libraries\lvgl\src\misc/lv_tlsf.c ****     block_set_prev_free(next);
 2741              		.loc 1 1010 0
 2742 005e 2800     		movs	r0, r5
 2743 0060 FFF7FEFF 		bl	block_set_prev_free
 2744              	.LVL349:
1011:..\..\..\arduinoLCD\test\Pain Drain\libraries\lvgl\src\misc/lv_tlsf.c **** 
1012:..\..\..\arduinoLCD\test\Pain Drain\libraries\lvgl\src\misc/lv_tlsf.c ****     return mem;
 2745              		.loc 1 1012 0
 2746 0064 2000     		movs	r0, r4
 2747 0066 02E0     		b	.L188
 2748              	.LVL350:
 2749              	.L189:
 979:..\..\..\arduinoLCD\test\Pain Drain\libraries\lvgl\src\misc/lv_tlsf.c ****     }
 2750              		.loc 1 979 0
 2751 0068 0020     		movs	r0, #0
ARM GAS  C:\Users\haske\AppData\Local\Temp\ccswauRt.s 			page 70


 2752              	.LVL351:
 2753 006a 00E0     		b	.L188
 2754              	.LVL352:
 2755              	.L190:
 992:..\..\..\arduinoLCD\test\Pain Drain\libraries\lvgl\src\misc/lv_tlsf.c ****     }
 2756              		.loc 1 992 0
 2757 006c 0020     		movs	r0, #0
 2758              	.LVL353:
 2759              	.L188:
1013:..\..\..\arduinoLCD\test\Pain Drain\libraries\lvgl\src\misc/lv_tlsf.c **** }
 2760              		.loc 1 1013 0
 2761              		@ sp needed
 2762              	.LVL354:
 2763              	.LVL355:
 2764              	.LVL356:
 2765 006e F8BD     		pop	{r3, r4, r5, r6, r7, pc}
 2766              	.L192:
 2767              		.align	2
 2768              	.L191:
 2769 0070 F4FF0000 		.word	65524
 2770              		.cfi_endproc
 2771              	.LFE54:
 2772              		.size	lv_tlsf_add_pool, .-lv_tlsf_add_pool
 2773              		.section	.text.lv_tlsf_remove_pool,"ax",%progbits
 2774              		.align	2
 2775              		.global	lv_tlsf_remove_pool
 2776              		.code	16
 2777              		.thumb_func
 2778              		.type	lv_tlsf_remove_pool, %function
 2779              	lv_tlsf_remove_pool:
 2780              	.LFB55:
1014:..\..\..\arduinoLCD\test\Pain Drain\libraries\lvgl\src\misc/lv_tlsf.c **** 
1015:..\..\..\arduinoLCD\test\Pain Drain\libraries\lvgl\src\misc/lv_tlsf.c **** void lv_tlsf_remove_pool(lv_tlsf_t tlsf, lv_pool_t pool)
1016:..\..\..\arduinoLCD\test\Pain Drain\libraries\lvgl\src\misc/lv_tlsf.c **** {
 2781              		.loc 1 1016 0
 2782              		.cfi_startproc
 2783              		@ args = 0, pretend = 0, frame = 8
 2784              		@ frame_needed = 0, uses_anonymous_args = 0
 2785              	.LVL357:
 2786 0000 70B5     		push	{r4, r5, r6, lr}
 2787              		.cfi_def_cfa_offset 16
 2788              		.cfi_offset 4, -16
 2789              		.cfi_offset 5, -12
 2790              		.cfi_offset 6, -8
 2791              		.cfi_offset 14, -4
 2792 0002 82B0     		sub	sp, sp, #8
 2793              		.cfi_def_cfa_offset 24
 2794 0004 0600     		movs	r6, r0
 2795 0006 0800     		movs	r0, r1
 2796              	.LVL358:
1017:..\..\..\arduinoLCD\test\Pain Drain\libraries\lvgl\src\misc/lv_tlsf.c ****     control_t * control = tlsf_cast(control_t *, tlsf);
1018:..\..\..\arduinoLCD\test\Pain Drain\libraries\lvgl\src\misc/lv_tlsf.c ****     block_header_t * block = offset_to_block(pool, -(int)block_header_overhead);
 2797              		.loc 1 1018 0
 2798 0008 0421     		movs	r1, #4
 2799              	.LVL359:
 2800 000a 4942     		rsbs	r1, r1, #0
 2801 000c FFF7FEFF 		bl	offset_to_block
ARM GAS  C:\Users\haske\AppData\Local\Temp\ccswauRt.s 			page 71


 2802              	.LVL360:
 2803 0010 0400     		movs	r4, r0
 2804              	.LVL361:
1019:..\..\..\arduinoLCD\test\Pain Drain\libraries\lvgl\src\misc/lv_tlsf.c **** 
1020:..\..\..\arduinoLCD\test\Pain Drain\libraries\lvgl\src\misc/lv_tlsf.c ****     int fl = 0, sl = 0;
 2805              		.loc 1 1020 0
 2806 0012 0023     		movs	r3, #0
 2807 0014 0193     		str	r3, [sp, #4]
 2808 0016 0093     		str	r3, [sp]
1021:..\..\..\arduinoLCD\test\Pain Drain\libraries\lvgl\src\misc/lv_tlsf.c **** 
1022:..\..\..\arduinoLCD\test\Pain Drain\libraries\lvgl\src\misc/lv_tlsf.c ****     tlsf_assert(block_is_free(block) && "block should be free");
 2809              		.loc 1 1022 0
 2810 0018 FFF7FEFF 		bl	block_is_free
 2811              	.LVL362:
 2812 001c 0028     		cmp	r0, #0
 2813 001e 00D1     		bne	.L194
 2814              	.L195:
 2815 0020 FEE7     		b	.L195
 2816              	.L194:
1023:..\..\..\arduinoLCD\test\Pain Drain\libraries\lvgl\src\misc/lv_tlsf.c ****     tlsf_assert(!block_is_free(block_next(block)) && "next block should not be free");
 2817              		.loc 1 1023 0
 2818 0022 2000     		movs	r0, r4
 2819 0024 FFF7FEFF 		bl	block_next
 2820              	.LVL363:
 2821 0028 0500     		movs	r5, r0
 2822 002a FFF7FEFF 		bl	block_is_free
 2823              	.LVL364:
 2824 002e 0028     		cmp	r0, #0
 2825 0030 00D0     		beq	.L196
 2826              	.L197:
 2827 0032 FEE7     		b	.L197
 2828              	.L196:
1024:..\..\..\arduinoLCD\test\Pain Drain\libraries\lvgl\src\misc/lv_tlsf.c ****     tlsf_assert(block_size(block_next(block)) == 0 && "next block size should be zero");
 2829              		.loc 1 1024 0
 2830 0034 2800     		movs	r0, r5
 2831 0036 FFF7FEFF 		bl	block_size
 2832              	.LVL365:
 2833 003a 0028     		cmp	r0, #0
 2834 003c 00D0     		beq	.L198
 2835              	.L199:
 2836 003e FEE7     		b	.L199
 2837              	.L198:
1025:..\..\..\arduinoLCD\test\Pain Drain\libraries\lvgl\src\misc/lv_tlsf.c **** 
1026:..\..\..\arduinoLCD\test\Pain Drain\libraries\lvgl\src\misc/lv_tlsf.c ****     mapping_insert(block_size(block), &fl, &sl);
 2838              		.loc 1 1026 0
 2839 0040 2000     		movs	r0, r4
 2840 0042 FFF7FEFF 		bl	block_size
 2841              	.LVL366:
 2842 0046 6A46     		mov	r2, sp
 2843 0048 01A9     		add	r1, sp, #4
 2844 004a FFF7FEFF 		bl	mapping_insert
 2845              	.LVL367:
1027:..\..\..\arduinoLCD\test\Pain Drain\libraries\lvgl\src\misc/lv_tlsf.c ****     remove_free_block(control, block, fl, sl);
 2846              		.loc 1 1027 0
 2847 004e 009B     		ldr	r3, [sp]
 2848 0050 019A     		ldr	r2, [sp, #4]
 2849 0052 2100     		movs	r1, r4
ARM GAS  C:\Users\haske\AppData\Local\Temp\ccswauRt.s 			page 72


 2850 0054 3000     		movs	r0, r6
 2851 0056 FFF7FEFF 		bl	remove_free_block
 2852              	.LVL368:
1028:..\..\..\arduinoLCD\test\Pain Drain\libraries\lvgl\src\misc/lv_tlsf.c **** }
 2853              		.loc 1 1028 0
 2854 005a 02B0     		add	sp, sp, #8
 2855              		@ sp needed
 2856              	.LVL369:
 2857              	.LVL370:
 2858 005c 70BD     		pop	{r4, r5, r6, pc}
 2859              		.cfi_endproc
 2860              	.LFE55:
 2861              		.size	lv_tlsf_remove_pool, .-lv_tlsf_remove_pool
 2862 005e C046     		.section	.text.lv_tlsf_create,"ax",%progbits
 2863              		.align	2
 2864              		.global	lv_tlsf_create
 2865              		.code	16
 2866              		.thumb_func
 2867              		.type	lv_tlsf_create, %function
 2868              	lv_tlsf_create:
 2869              	.LFB56:
1029:..\..\..\arduinoLCD\test\Pain Drain\libraries\lvgl\src\misc/lv_tlsf.c **** 
1030:..\..\..\arduinoLCD\test\Pain Drain\libraries\lvgl\src\misc/lv_tlsf.c **** /*
1031:..\..\..\arduinoLCD\test\Pain Drain\libraries\lvgl\src\misc/lv_tlsf.c **** ** TLSF main interface.
1032:..\..\..\arduinoLCD\test\Pain Drain\libraries\lvgl\src\misc/lv_tlsf.c **** */
1033:..\..\..\arduinoLCD\test\Pain Drain\libraries\lvgl\src\misc/lv_tlsf.c **** 
1034:..\..\..\arduinoLCD\test\Pain Drain\libraries\lvgl\src\misc/lv_tlsf.c **** #if _DEBUG
1035:..\..\..\arduinoLCD\test\Pain Drain\libraries\lvgl\src\misc/lv_tlsf.c **** int test_ffs_fls()
1036:..\..\..\arduinoLCD\test\Pain Drain\libraries\lvgl\src\misc/lv_tlsf.c **** {
1037:..\..\..\arduinoLCD\test\Pain Drain\libraries\lvgl\src\misc/lv_tlsf.c ****     /* Verify ffs/fls work properly. */
1038:..\..\..\arduinoLCD\test\Pain Drain\libraries\lvgl\src\misc/lv_tlsf.c ****     int rv = 0;
1039:..\..\..\arduinoLCD\test\Pain Drain\libraries\lvgl\src\misc/lv_tlsf.c ****     rv += (tlsf_ffs(0) == -1) ? 0 : 0x1;
1040:..\..\..\arduinoLCD\test\Pain Drain\libraries\lvgl\src\misc/lv_tlsf.c ****     rv += (tlsf_fls(0) == -1) ? 0 : 0x2;
1041:..\..\..\arduinoLCD\test\Pain Drain\libraries\lvgl\src\misc/lv_tlsf.c ****     rv += (tlsf_ffs(1) == 0) ? 0 : 0x4;
1042:..\..\..\arduinoLCD\test\Pain Drain\libraries\lvgl\src\misc/lv_tlsf.c ****     rv += (tlsf_fls(1) == 0) ? 0 : 0x8;
1043:..\..\..\arduinoLCD\test\Pain Drain\libraries\lvgl\src\misc/lv_tlsf.c ****     rv += (tlsf_ffs(0x80000000) == 31) ? 0 : 0x10;
1044:..\..\..\arduinoLCD\test\Pain Drain\libraries\lvgl\src\misc/lv_tlsf.c ****     rv += (tlsf_ffs(0x80008000) == 15) ? 0 : 0x20;
1045:..\..\..\arduinoLCD\test\Pain Drain\libraries\lvgl\src\misc/lv_tlsf.c ****     rv += (tlsf_fls(0x80000008) == 31) ? 0 : 0x40;
1046:..\..\..\arduinoLCD\test\Pain Drain\libraries\lvgl\src\misc/lv_tlsf.c ****     rv += (tlsf_fls(0x7FFFFFFF) == 30) ? 0 : 0x80;
1047:..\..\..\arduinoLCD\test\Pain Drain\libraries\lvgl\src\misc/lv_tlsf.c **** 
1048:..\..\..\arduinoLCD\test\Pain Drain\libraries\lvgl\src\misc/lv_tlsf.c **** #if defined (TLSF_64BIT)
1049:..\..\..\arduinoLCD\test\Pain Drain\libraries\lvgl\src\misc/lv_tlsf.c ****     rv += (tlsf_fls_sizet(0x80000000) == 31) ? 0 : 0x100;
1050:..\..\..\arduinoLCD\test\Pain Drain\libraries\lvgl\src\misc/lv_tlsf.c ****     rv += (tlsf_fls_sizet(0x100000000) == 32) ? 0 : 0x200;
1051:..\..\..\arduinoLCD\test\Pain Drain\libraries\lvgl\src\misc/lv_tlsf.c ****     rv += (tlsf_fls_sizet(0xffffffffffffffff) == 63) ? 0 : 0x400;
1052:..\..\..\arduinoLCD\test\Pain Drain\libraries\lvgl\src\misc/lv_tlsf.c **** #endif
1053:..\..\..\arduinoLCD\test\Pain Drain\libraries\lvgl\src\misc/lv_tlsf.c **** 
1054:..\..\..\arduinoLCD\test\Pain Drain\libraries\lvgl\src\misc/lv_tlsf.c ****     if(rv) {
1055:..\..\..\arduinoLCD\test\Pain Drain\libraries\lvgl\src\misc/lv_tlsf.c ****         printf("test_ffs_fls: %x ffs/fls tests failed.\n", rv);
1056:..\..\..\arduinoLCD\test\Pain Drain\libraries\lvgl\src\misc/lv_tlsf.c ****     }
1057:..\..\..\arduinoLCD\test\Pain Drain\libraries\lvgl\src\misc/lv_tlsf.c ****     return rv;
1058:..\..\..\arduinoLCD\test\Pain Drain\libraries\lvgl\src\misc/lv_tlsf.c **** }
1059:..\..\..\arduinoLCD\test\Pain Drain\libraries\lvgl\src\misc/lv_tlsf.c **** #endif
1060:..\..\..\arduinoLCD\test\Pain Drain\libraries\lvgl\src\misc/lv_tlsf.c **** 
1061:..\..\..\arduinoLCD\test\Pain Drain\libraries\lvgl\src\misc/lv_tlsf.c **** lv_tlsf_t lv_tlsf_create(void * mem)
1062:..\..\..\arduinoLCD\test\Pain Drain\libraries\lvgl\src\misc/lv_tlsf.c **** {
 2870              		.loc 1 1062 0
 2871              		.cfi_startproc
ARM GAS  C:\Users\haske\AppData\Local\Temp\ccswauRt.s 			page 73


 2872              		@ args = 0, pretend = 0, frame = 0
 2873              		@ frame_needed = 0, uses_anonymous_args = 0
 2874              	.LVL371:
 2875 0000 10B5     		push	{r4, lr}
 2876              		.cfi_def_cfa_offset 8
 2877              		.cfi_offset 4, -8
 2878              		.cfi_offset 14, -4
 2879 0002 0400     		movs	r4, r0
1063:..\..\..\arduinoLCD\test\Pain Drain\libraries\lvgl\src\misc/lv_tlsf.c **** #if _DEBUG
1064:..\..\..\arduinoLCD\test\Pain Drain\libraries\lvgl\src\misc/lv_tlsf.c ****     if(test_ffs_fls()) {
1065:..\..\..\arduinoLCD\test\Pain Drain\libraries\lvgl\src\misc/lv_tlsf.c ****         return 0;
1066:..\..\..\arduinoLCD\test\Pain Drain\libraries\lvgl\src\misc/lv_tlsf.c ****     }
1067:..\..\..\arduinoLCD\test\Pain Drain\libraries\lvgl\src\misc/lv_tlsf.c **** #endif
1068:..\..\..\arduinoLCD\test\Pain Drain\libraries\lvgl\src\misc/lv_tlsf.c **** 
1069:..\..\..\arduinoLCD\test\Pain Drain\libraries\lvgl\src\misc/lv_tlsf.c ****     if(((tlsfptr_t)mem % ALIGN_SIZE) != 0) {
 2880              		.loc 1 1069 0
 2881 0004 8307     		lsls	r3, r0, #30
 2882 0006 03D1     		bne	.L202
1070:..\..\..\arduinoLCD\test\Pain Drain\libraries\lvgl\src\misc/lv_tlsf.c ****         printf("lv_tlsf_create: Memory must be aligned to %u bytes.\n",
1071:..\..\..\arduinoLCD\test\Pain Drain\libraries\lvgl\src\misc/lv_tlsf.c ****                (unsigned int)ALIGN_SIZE);
1072:..\..\..\arduinoLCD\test\Pain Drain\libraries\lvgl\src\misc/lv_tlsf.c ****         return 0;
1073:..\..\..\arduinoLCD\test\Pain Drain\libraries\lvgl\src\misc/lv_tlsf.c ****     }
1074:..\..\..\arduinoLCD\test\Pain Drain\libraries\lvgl\src\misc/lv_tlsf.c **** 
1075:..\..\..\arduinoLCD\test\Pain Drain\libraries\lvgl\src\misc/lv_tlsf.c ****     control_constructor(tlsf_cast(control_t *, mem));
 2883              		.loc 1 1075 0
 2884 0008 FFF7FEFF 		bl	control_constructor
 2885              	.LVL372:
1076:..\..\..\arduinoLCD\test\Pain Drain\libraries\lvgl\src\misc/lv_tlsf.c **** 
1077:..\..\..\arduinoLCD\test\Pain Drain\libraries\lvgl\src\misc/lv_tlsf.c ****     return tlsf_cast(lv_tlsf_t, mem);
 2886              		.loc 1 1077 0
 2887 000c 2000     		movs	r0, r4
 2888 000e 00E0     		b	.L201
 2889              	.L202:
1072:..\..\..\arduinoLCD\test\Pain Drain\libraries\lvgl\src\misc/lv_tlsf.c ****     }
 2890              		.loc 1 1072 0
 2891 0010 0020     		movs	r0, #0
 2892              	.L201:
1078:..\..\..\arduinoLCD\test\Pain Drain\libraries\lvgl\src\misc/lv_tlsf.c **** }
 2893              		.loc 1 1078 0
 2894              		@ sp needed
 2895              	.LVL373:
 2896 0012 10BD     		pop	{r4, pc}
 2897              		.cfi_endproc
 2898              	.LFE56:
 2899              		.size	lv_tlsf_create, .-lv_tlsf_create
 2900              		.section	.text.lv_tlsf_create_with_pool,"ax",%progbits
 2901              		.align	2
 2902              		.global	lv_tlsf_create_with_pool
 2903              		.code	16
 2904              		.thumb_func
 2905              		.type	lv_tlsf_create_with_pool, %function
 2906              	lv_tlsf_create_with_pool:
 2907              	.LFB57:
1079:..\..\..\arduinoLCD\test\Pain Drain\libraries\lvgl\src\misc/lv_tlsf.c **** 
1080:..\..\..\arduinoLCD\test\Pain Drain\libraries\lvgl\src\misc/lv_tlsf.c **** lv_tlsf_t lv_tlsf_create_with_pool(void * mem, size_t bytes)
1081:..\..\..\arduinoLCD\test\Pain Drain\libraries\lvgl\src\misc/lv_tlsf.c **** {
 2908              		.loc 1 1081 0
ARM GAS  C:\Users\haske\AppData\Local\Temp\ccswauRt.s 			page 74


 2909              		.cfi_startproc
 2910              		@ args = 0, pretend = 0, frame = 0
 2911              		@ frame_needed = 0, uses_anonymous_args = 0
 2912              	.LVL374:
 2913 0000 70B5     		push	{r4, r5, r6, lr}
 2914              		.cfi_def_cfa_offset 16
 2915              		.cfi_offset 4, -16
 2916              		.cfi_offset 5, -12
 2917              		.cfi_offset 6, -8
 2918              		.cfi_offset 14, -4
 2919 0002 0600     		movs	r6, r0
 2920 0004 0C00     		movs	r4, r1
1082:..\..\..\arduinoLCD\test\Pain Drain\libraries\lvgl\src\misc/lv_tlsf.c ****     lv_tlsf_t tlsf = lv_tlsf_create(mem);
 2921              		.loc 1 1082 0
 2922 0006 FFF7FEFF 		bl	lv_tlsf_create
 2923              	.LVL375:
 2924 000a 0500     		movs	r5, r0
 2925              	.LVL376:
1083:..\..\..\arduinoLCD\test\Pain Drain\libraries\lvgl\src\misc/lv_tlsf.c ****     lv_tlsf_add_pool(tlsf, (char *)mem + lv_tlsf_size(), bytes - lv_tlsf_size());
 2926              		.loc 1 1083 0
 2927 000c FFF7FEFF 		bl	lv_tlsf_size
