ARM GAS  C:\Users\haske\AppData\Local\Temp\ccVOiHBd.s 			page 1


   1              		.syntax unified
   2              		.cpu cortex-m0plus
   3              		.fpu softvfp
   4              		.eabi_attribute 20, 1
   5              		.eabi_attribute 21, 1
   6              		.eabi_attribute 23, 3
   7              		.eabi_attribute 24, 1
   8              		.eabi_attribute 25, 1
   9              		.eabi_attribute 26, 1
  10              		.eabi_attribute 30, 1
  11              		.eabi_attribute 34, 0
  12              		.eabi_attribute 18, 4
  13              		.thumb
  14              		.syntax unified
  15              		.file	"lv_theme_basic.c"
  16              		.text
  17              	.Ltext0:
  18              		.cfi_sections	.debug_frame
  19              		.section	.text.theme_apply,"ax",%progbits
  20              		.align	2
  21              		.code	16
  22              		.thumb_func
  23              		.type	theme_apply, %function
  24              	theme_apply:
  25              	.LFB205:
  26              		.file 1 "..\\..\\..\\arduinoLCD\\test\\Pain Drain\\libraries\\lvgl\\src\\extra\\themes\\basic\\lv_
   1:..\..\..\arduinoLCD\test\Pain Drain\libraries\lvgl\src\extra\themes\basic/lv_theme_basic.c **** /**
   2:..\..\..\arduinoLCD\test\Pain Drain\libraries\lvgl\src\extra\themes\basic/lv_theme_basic.c ****  * @file lv_theme_basic.c
   3:..\..\..\arduinoLCD\test\Pain Drain\libraries\lvgl\src\extra\themes\basic/lv_theme_basic.c ****  *
   4:..\..\..\arduinoLCD\test\Pain Drain\libraries\lvgl\src\extra\themes\basic/lv_theme_basic.c ****  */
   5:..\..\..\arduinoLCD\test\Pain Drain\libraries\lvgl\src\extra\themes\basic/lv_theme_basic.c **** 
   6:..\..\..\arduinoLCD\test\Pain Drain\libraries\lvgl\src\extra\themes\basic/lv_theme_basic.c **** /*********************
   7:..\..\..\arduinoLCD\test\Pain Drain\libraries\lvgl\src\extra\themes\basic/lv_theme_basic.c ****  *      INCLUDES
   8:..\..\..\arduinoLCD\test\Pain Drain\libraries\lvgl\src\extra\themes\basic/lv_theme_basic.c ****  *********************/
   9:..\..\..\arduinoLCD\test\Pain Drain\libraries\lvgl\src\extra\themes\basic/lv_theme_basic.c **** #include "../../../lvgl.h" /*To see all the widgets*/
  10:..\..\..\arduinoLCD\test\Pain Drain\libraries\lvgl\src\extra\themes\basic/lv_theme_basic.c **** 
  11:..\..\..\arduinoLCD\test\Pain Drain\libraries\lvgl\src\extra\themes\basic/lv_theme_basic.c **** #if LV_USE_THEME_BASIC
  12:..\..\..\arduinoLCD\test\Pain Drain\libraries\lvgl\src\extra\themes\basic/lv_theme_basic.c **** 
  13:..\..\..\arduinoLCD\test\Pain Drain\libraries\lvgl\src\extra\themes\basic/lv_theme_basic.c **** #include "lv_theme_basic.h"
  14:..\..\..\arduinoLCD\test\Pain Drain\libraries\lvgl\src\extra\themes\basic/lv_theme_basic.c **** #include "../../../misc/lv_gc.h"
  15:..\..\..\arduinoLCD\test\Pain Drain\libraries\lvgl\src\extra\themes\basic/lv_theme_basic.c **** 
  16:..\..\..\arduinoLCD\test\Pain Drain\libraries\lvgl\src\extra\themes\basic/lv_theme_basic.c **** /*********************
  17:..\..\..\arduinoLCD\test\Pain Drain\libraries\lvgl\src\extra\themes\basic/lv_theme_basic.c ****  *      DEFINES
  18:..\..\..\arduinoLCD\test\Pain Drain\libraries\lvgl\src\extra\themes\basic/lv_theme_basic.c ****  *********************/
  19:..\..\..\arduinoLCD\test\Pain Drain\libraries\lvgl\src\extra\themes\basic/lv_theme_basic.c **** #define COLOR_SCR     lv_palette_lighten(LV_PALETTE_GREY, 4)
  20:..\..\..\arduinoLCD\test\Pain Drain\libraries\lvgl\src\extra\themes\basic/lv_theme_basic.c **** #define COLOR_WHITE   lv_color_white()
  21:..\..\..\arduinoLCD\test\Pain Drain\libraries\lvgl\src\extra\themes\basic/lv_theme_basic.c **** #define COLOR_LIGHT   lv_palette_lighten(LV_PALETTE_GREY, 2)
  22:..\..\..\arduinoLCD\test\Pain Drain\libraries\lvgl\src\extra\themes\basic/lv_theme_basic.c **** #define COLOR_DARK    lv_palette_main(LV_PALETTE_GREY)
  23:..\..\..\arduinoLCD\test\Pain Drain\libraries\lvgl\src\extra\themes\basic/lv_theme_basic.c **** #define COLOR_DIM     lv_palette_darken(LV_PALETTE_GREY, 2)
  24:..\..\..\arduinoLCD\test\Pain Drain\libraries\lvgl\src\extra\themes\basic/lv_theme_basic.c **** #define SCROLLBAR_WIDTH     2
  25:..\..\..\arduinoLCD\test\Pain Drain\libraries\lvgl\src\extra\themes\basic/lv_theme_basic.c **** 
  26:..\..\..\arduinoLCD\test\Pain Drain\libraries\lvgl\src\extra\themes\basic/lv_theme_basic.c **** /**********************
  27:..\..\..\arduinoLCD\test\Pain Drain\libraries\lvgl\src\extra\themes\basic/lv_theme_basic.c ****  *      TYPEDEFS
  28:..\..\..\arduinoLCD\test\Pain Drain\libraries\lvgl\src\extra\themes\basic/lv_theme_basic.c ****  **********************/
  29:..\..\..\arduinoLCD\test\Pain Drain\libraries\lvgl\src\extra\themes\basic/lv_theme_basic.c **** typedef struct {
  30:..\..\..\arduinoLCD\test\Pain Drain\libraries\lvgl\src\extra\themes\basic/lv_theme_basic.c ****     lv_style_t scr;
  31:..\..\..\arduinoLCD\test\Pain Drain\libraries\lvgl\src\extra\themes\basic/lv_theme_basic.c ****     lv_style_t transp;
ARM GAS  C:\Users\haske\AppData\Local\Temp\ccVOiHBd.s 			page 2


  32:..\..\..\arduinoLCD\test\Pain Drain\libraries\lvgl\src\extra\themes\basic/lv_theme_basic.c ****     lv_style_t white;
  33:..\..\..\arduinoLCD\test\Pain Drain\libraries\lvgl\src\extra\themes\basic/lv_theme_basic.c ****     lv_style_t light;
  34:..\..\..\arduinoLCD\test\Pain Drain\libraries\lvgl\src\extra\themes\basic/lv_theme_basic.c ****     lv_style_t dark;
  35:..\..\..\arduinoLCD\test\Pain Drain\libraries\lvgl\src\extra\themes\basic/lv_theme_basic.c ****     lv_style_t dim;
  36:..\..\..\arduinoLCD\test\Pain Drain\libraries\lvgl\src\extra\themes\basic/lv_theme_basic.c ****     lv_style_t scrollbar;
  37:..\..\..\arduinoLCD\test\Pain Drain\libraries\lvgl\src\extra\themes\basic/lv_theme_basic.c **** #if LV_USE_ARC || LV_USE_COLORWHEEL
  38:..\..\..\arduinoLCD\test\Pain Drain\libraries\lvgl\src\extra\themes\basic/lv_theme_basic.c ****     lv_style_t arc_line;
  39:..\..\..\arduinoLCD\test\Pain Drain\libraries\lvgl\src\extra\themes\basic/lv_theme_basic.c ****     lv_style_t arc_knob;
  40:..\..\..\arduinoLCD\test\Pain Drain\libraries\lvgl\src\extra\themes\basic/lv_theme_basic.c **** #endif
  41:..\..\..\arduinoLCD\test\Pain Drain\libraries\lvgl\src\extra\themes\basic/lv_theme_basic.c **** #if LV_USE_TEXTAREA
  42:..\..\..\arduinoLCD\test\Pain Drain\libraries\lvgl\src\extra\themes\basic/lv_theme_basic.c ****     lv_style_t ta_cursor;
  43:..\..\..\arduinoLCD\test\Pain Drain\libraries\lvgl\src\extra\themes\basic/lv_theme_basic.c **** #endif
  44:..\..\..\arduinoLCD\test\Pain Drain\libraries\lvgl\src\extra\themes\basic/lv_theme_basic.c **** } my_theme_styles_t;
  45:..\..\..\arduinoLCD\test\Pain Drain\libraries\lvgl\src\extra\themes\basic/lv_theme_basic.c **** 
  46:..\..\..\arduinoLCD\test\Pain Drain\libraries\lvgl\src\extra\themes\basic/lv_theme_basic.c **** 
  47:..\..\..\arduinoLCD\test\Pain Drain\libraries\lvgl\src\extra\themes\basic/lv_theme_basic.c **** /**********************
  48:..\..\..\arduinoLCD\test\Pain Drain\libraries\lvgl\src\extra\themes\basic/lv_theme_basic.c ****  *  STATIC PROTOTYPES
  49:..\..\..\arduinoLCD\test\Pain Drain\libraries\lvgl\src\extra\themes\basic/lv_theme_basic.c ****  **********************/
  50:..\..\..\arduinoLCD\test\Pain Drain\libraries\lvgl\src\extra\themes\basic/lv_theme_basic.c **** static void style_init_reset(lv_style_t * style);
  51:..\..\..\arduinoLCD\test\Pain Drain\libraries\lvgl\src\extra\themes\basic/lv_theme_basic.c **** static void theme_apply(lv_theme_t * th, lv_obj_t * obj);
  52:..\..\..\arduinoLCD\test\Pain Drain\libraries\lvgl\src\extra\themes\basic/lv_theme_basic.c **** 
  53:..\..\..\arduinoLCD\test\Pain Drain\libraries\lvgl\src\extra\themes\basic/lv_theme_basic.c **** /**********************
  54:..\..\..\arduinoLCD\test\Pain Drain\libraries\lvgl\src\extra\themes\basic/lv_theme_basic.c ****  *  STATIC VARIABLES
  55:..\..\..\arduinoLCD\test\Pain Drain\libraries\lvgl\src\extra\themes\basic/lv_theme_basic.c ****  **********************/
  56:..\..\..\arduinoLCD\test\Pain Drain\libraries\lvgl\src\extra\themes\basic/lv_theme_basic.c **** static my_theme_styles_t * styles;
  57:..\..\..\arduinoLCD\test\Pain Drain\libraries\lvgl\src\extra\themes\basic/lv_theme_basic.c **** static lv_theme_t theme;
  58:..\..\..\arduinoLCD\test\Pain Drain\libraries\lvgl\src\extra\themes\basic/lv_theme_basic.c **** static bool inited;
  59:..\..\..\arduinoLCD\test\Pain Drain\libraries\lvgl\src\extra\themes\basic/lv_theme_basic.c **** 
  60:..\..\..\arduinoLCD\test\Pain Drain\libraries\lvgl\src\extra\themes\basic/lv_theme_basic.c **** /**********************
  61:..\..\..\arduinoLCD\test\Pain Drain\libraries\lvgl\src\extra\themes\basic/lv_theme_basic.c ****  *      MACROS
  62:..\..\..\arduinoLCD\test\Pain Drain\libraries\lvgl\src\extra\themes\basic/lv_theme_basic.c ****  **********************/
  63:..\..\..\arduinoLCD\test\Pain Drain\libraries\lvgl\src\extra\themes\basic/lv_theme_basic.c **** 
  64:..\..\..\arduinoLCD\test\Pain Drain\libraries\lvgl\src\extra\themes\basic/lv_theme_basic.c **** /**********************
  65:..\..\..\arduinoLCD\test\Pain Drain\libraries\lvgl\src\extra\themes\basic/lv_theme_basic.c ****  *   STATIC FUNCTIONS
  66:..\..\..\arduinoLCD\test\Pain Drain\libraries\lvgl\src\extra\themes\basic/lv_theme_basic.c ****  **********************/
  67:..\..\..\arduinoLCD\test\Pain Drain\libraries\lvgl\src\extra\themes\basic/lv_theme_basic.c **** 
  68:..\..\..\arduinoLCD\test\Pain Drain\libraries\lvgl\src\extra\themes\basic/lv_theme_basic.c **** static void style_init(void)
  69:..\..\..\arduinoLCD\test\Pain Drain\libraries\lvgl\src\extra\themes\basic/lv_theme_basic.c **** {
  70:..\..\..\arduinoLCD\test\Pain Drain\libraries\lvgl\src\extra\themes\basic/lv_theme_basic.c ****     style_init_reset(&styles->scrollbar);
  71:..\..\..\arduinoLCD\test\Pain Drain\libraries\lvgl\src\extra\themes\basic/lv_theme_basic.c ****     lv_style_set_bg_opa(&styles->scrollbar, LV_OPA_COVER);
  72:..\..\..\arduinoLCD\test\Pain Drain\libraries\lvgl\src\extra\themes\basic/lv_theme_basic.c ****     lv_style_set_bg_color(&styles->scrollbar, COLOR_DARK);
  73:..\..\..\arduinoLCD\test\Pain Drain\libraries\lvgl\src\extra\themes\basic/lv_theme_basic.c ****     lv_style_set_width(&styles->scrollbar,  SCROLLBAR_WIDTH);
  74:..\..\..\arduinoLCD\test\Pain Drain\libraries\lvgl\src\extra\themes\basic/lv_theme_basic.c **** 
  75:..\..\..\arduinoLCD\test\Pain Drain\libraries\lvgl\src\extra\themes\basic/lv_theme_basic.c ****     style_init_reset(&styles->scr);
  76:..\..\..\arduinoLCD\test\Pain Drain\libraries\lvgl\src\extra\themes\basic/lv_theme_basic.c ****     lv_style_set_bg_opa(&styles->scr, LV_OPA_COVER);
  77:..\..\..\arduinoLCD\test\Pain Drain\libraries\lvgl\src\extra\themes\basic/lv_theme_basic.c ****     lv_style_set_bg_color(&styles->scr, COLOR_SCR);
  78:..\..\..\arduinoLCD\test\Pain Drain\libraries\lvgl\src\extra\themes\basic/lv_theme_basic.c ****     lv_style_set_text_color(&styles->scr, COLOR_DIM);
  79:..\..\..\arduinoLCD\test\Pain Drain\libraries\lvgl\src\extra\themes\basic/lv_theme_basic.c **** 
  80:..\..\..\arduinoLCD\test\Pain Drain\libraries\lvgl\src\extra\themes\basic/lv_theme_basic.c **** 
  81:..\..\..\arduinoLCD\test\Pain Drain\libraries\lvgl\src\extra\themes\basic/lv_theme_basic.c ****     style_init_reset(&styles->transp);
  82:..\..\..\arduinoLCD\test\Pain Drain\libraries\lvgl\src\extra\themes\basic/lv_theme_basic.c ****     lv_style_set_bg_opa(&styles->transp, LV_OPA_TRANSP);
  83:..\..\..\arduinoLCD\test\Pain Drain\libraries\lvgl\src\extra\themes\basic/lv_theme_basic.c **** 
  84:..\..\..\arduinoLCD\test\Pain Drain\libraries\lvgl\src\extra\themes\basic/lv_theme_basic.c ****     style_init_reset(&styles->white);
  85:..\..\..\arduinoLCD\test\Pain Drain\libraries\lvgl\src\extra\themes\basic/lv_theme_basic.c ****     lv_style_set_bg_opa(&styles->white, LV_OPA_COVER);
  86:..\..\..\arduinoLCD\test\Pain Drain\libraries\lvgl\src\extra\themes\basic/lv_theme_basic.c ****     lv_style_set_bg_color(&styles->white, COLOR_WHITE);
  87:..\..\..\arduinoLCD\test\Pain Drain\libraries\lvgl\src\extra\themes\basic/lv_theme_basic.c ****     lv_style_set_line_width(&styles->white, 1);
  88:..\..\..\arduinoLCD\test\Pain Drain\libraries\lvgl\src\extra\themes\basic/lv_theme_basic.c ****     lv_style_set_line_color(&styles->white, COLOR_WHITE);
ARM GAS  C:\Users\haske\AppData\Local\Temp\ccVOiHBd.s 			page 3


  89:..\..\..\arduinoLCD\test\Pain Drain\libraries\lvgl\src\extra\themes\basic/lv_theme_basic.c ****     lv_style_set_arc_width(&styles->white, 2);
  90:..\..\..\arduinoLCD\test\Pain Drain\libraries\lvgl\src\extra\themes\basic/lv_theme_basic.c ****     lv_style_set_arc_color(&styles->white, COLOR_WHITE);
  91:..\..\..\arduinoLCD\test\Pain Drain\libraries\lvgl\src\extra\themes\basic/lv_theme_basic.c **** 
  92:..\..\..\arduinoLCD\test\Pain Drain\libraries\lvgl\src\extra\themes\basic/lv_theme_basic.c ****     style_init_reset(&styles->light);
  93:..\..\..\arduinoLCD\test\Pain Drain\libraries\lvgl\src\extra\themes\basic/lv_theme_basic.c ****     lv_style_set_bg_opa(&styles->light, LV_OPA_COVER);
  94:..\..\..\arduinoLCD\test\Pain Drain\libraries\lvgl\src\extra\themes\basic/lv_theme_basic.c ****     lv_style_set_bg_color(&styles->light, COLOR_LIGHT);
  95:..\..\..\arduinoLCD\test\Pain Drain\libraries\lvgl\src\extra\themes\basic/lv_theme_basic.c ****     lv_style_set_line_width(&styles->light, 1);
  96:..\..\..\arduinoLCD\test\Pain Drain\libraries\lvgl\src\extra\themes\basic/lv_theme_basic.c ****     lv_style_set_line_color(&styles->light, COLOR_LIGHT);
  97:..\..\..\arduinoLCD\test\Pain Drain\libraries\lvgl\src\extra\themes\basic/lv_theme_basic.c ****     lv_style_set_arc_width(&styles->light, 2);
  98:..\..\..\arduinoLCD\test\Pain Drain\libraries\lvgl\src\extra\themes\basic/lv_theme_basic.c ****     lv_style_set_arc_color(&styles->light, COLOR_LIGHT);
  99:..\..\..\arduinoLCD\test\Pain Drain\libraries\lvgl\src\extra\themes\basic/lv_theme_basic.c **** 
 100:..\..\..\arduinoLCD\test\Pain Drain\libraries\lvgl\src\extra\themes\basic/lv_theme_basic.c ****     style_init_reset(&styles->dark);
 101:..\..\..\arduinoLCD\test\Pain Drain\libraries\lvgl\src\extra\themes\basic/lv_theme_basic.c ****     lv_style_set_bg_opa(&styles->dark, LV_OPA_COVER);
 102:..\..\..\arduinoLCD\test\Pain Drain\libraries\lvgl\src\extra\themes\basic/lv_theme_basic.c ****     lv_style_set_bg_color(&styles->dark, COLOR_DARK);
 103:..\..\..\arduinoLCD\test\Pain Drain\libraries\lvgl\src\extra\themes\basic/lv_theme_basic.c ****     lv_style_set_line_width(&styles->dark, 1);
 104:..\..\..\arduinoLCD\test\Pain Drain\libraries\lvgl\src\extra\themes\basic/lv_theme_basic.c ****     lv_style_set_line_color(&styles->dark, COLOR_DARK);
 105:..\..\..\arduinoLCD\test\Pain Drain\libraries\lvgl\src\extra\themes\basic/lv_theme_basic.c ****     lv_style_set_arc_width(&styles->dark, 2);
 106:..\..\..\arduinoLCD\test\Pain Drain\libraries\lvgl\src\extra\themes\basic/lv_theme_basic.c ****     lv_style_set_arc_color(&styles->dark, COLOR_DARK);
 107:..\..\..\arduinoLCD\test\Pain Drain\libraries\lvgl\src\extra\themes\basic/lv_theme_basic.c **** 
 108:..\..\..\arduinoLCD\test\Pain Drain\libraries\lvgl\src\extra\themes\basic/lv_theme_basic.c ****     style_init_reset(&styles->dim);
 109:..\..\..\arduinoLCD\test\Pain Drain\libraries\lvgl\src\extra\themes\basic/lv_theme_basic.c ****     lv_style_set_bg_opa(&styles->dim, LV_OPA_COVER);
 110:..\..\..\arduinoLCD\test\Pain Drain\libraries\lvgl\src\extra\themes\basic/lv_theme_basic.c ****     lv_style_set_bg_color(&styles->dim, COLOR_DIM);
 111:..\..\..\arduinoLCD\test\Pain Drain\libraries\lvgl\src\extra\themes\basic/lv_theme_basic.c ****     lv_style_set_line_width(&styles->dim, 1);
 112:..\..\..\arduinoLCD\test\Pain Drain\libraries\lvgl\src\extra\themes\basic/lv_theme_basic.c ****     lv_style_set_line_color(&styles->dim, COLOR_DIM);
 113:..\..\..\arduinoLCD\test\Pain Drain\libraries\lvgl\src\extra\themes\basic/lv_theme_basic.c ****     lv_style_set_arc_width(&styles->dim, 2);
 114:..\..\..\arduinoLCD\test\Pain Drain\libraries\lvgl\src\extra\themes\basic/lv_theme_basic.c ****     lv_style_set_arc_color(&styles->dim, COLOR_DIM);
 115:..\..\..\arduinoLCD\test\Pain Drain\libraries\lvgl\src\extra\themes\basic/lv_theme_basic.c **** 
 116:..\..\..\arduinoLCD\test\Pain Drain\libraries\lvgl\src\extra\themes\basic/lv_theme_basic.c **** #if LV_USE_ARC || LV_USE_COLORWHEEL
 117:..\..\..\arduinoLCD\test\Pain Drain\libraries\lvgl\src\extra\themes\basic/lv_theme_basic.c ****     style_init_reset(&styles->arc_line);
 118:..\..\..\arduinoLCD\test\Pain Drain\libraries\lvgl\src\extra\themes\basic/lv_theme_basic.c ****     lv_style_set_arc_width(&styles->arc_line, 6);
 119:..\..\..\arduinoLCD\test\Pain Drain\libraries\lvgl\src\extra\themes\basic/lv_theme_basic.c ****     style_init_reset(&styles->arc_knob);
 120:..\..\..\arduinoLCD\test\Pain Drain\libraries\lvgl\src\extra\themes\basic/lv_theme_basic.c ****     lv_style_set_pad_all(&styles->arc_knob, 5);
 121:..\..\..\arduinoLCD\test\Pain Drain\libraries\lvgl\src\extra\themes\basic/lv_theme_basic.c **** #endif
 122:..\..\..\arduinoLCD\test\Pain Drain\libraries\lvgl\src\extra\themes\basic/lv_theme_basic.c **** 
 123:..\..\..\arduinoLCD\test\Pain Drain\libraries\lvgl\src\extra\themes\basic/lv_theme_basic.c **** #if LV_USE_TEXTAREA
 124:..\..\..\arduinoLCD\test\Pain Drain\libraries\lvgl\src\extra\themes\basic/lv_theme_basic.c ****     style_init_reset(&styles->ta_cursor);
 125:..\..\..\arduinoLCD\test\Pain Drain\libraries\lvgl\src\extra\themes\basic/lv_theme_basic.c ****     lv_style_set_border_side(&styles->ta_cursor, LV_BORDER_SIDE_LEFT);
 126:..\..\..\arduinoLCD\test\Pain Drain\libraries\lvgl\src\extra\themes\basic/lv_theme_basic.c ****     lv_style_set_border_color(&styles->ta_cursor, COLOR_DIM);
 127:..\..\..\arduinoLCD\test\Pain Drain\libraries\lvgl\src\extra\themes\basic/lv_theme_basic.c ****     lv_style_set_border_width(&styles->ta_cursor, 2);
 128:..\..\..\arduinoLCD\test\Pain Drain\libraries\lvgl\src\extra\themes\basic/lv_theme_basic.c ****     lv_style_set_bg_opa(&styles->ta_cursor, LV_OPA_TRANSP);
 129:..\..\..\arduinoLCD\test\Pain Drain\libraries\lvgl\src\extra\themes\basic/lv_theme_basic.c ****     lv_style_set_anim_time(&styles->ta_cursor, 500);
 130:..\..\..\arduinoLCD\test\Pain Drain\libraries\lvgl\src\extra\themes\basic/lv_theme_basic.c **** #endif
 131:..\..\..\arduinoLCD\test\Pain Drain\libraries\lvgl\src\extra\themes\basic/lv_theme_basic.c **** }
 132:..\..\..\arduinoLCD\test\Pain Drain\libraries\lvgl\src\extra\themes\basic/lv_theme_basic.c **** 
 133:..\..\..\arduinoLCD\test\Pain Drain\libraries\lvgl\src\extra\themes\basic/lv_theme_basic.c **** 
 134:..\..\..\arduinoLCD\test\Pain Drain\libraries\lvgl\src\extra\themes\basic/lv_theme_basic.c **** /**********************
 135:..\..\..\arduinoLCD\test\Pain Drain\libraries\lvgl\src\extra\themes\basic/lv_theme_basic.c ****  *   GLOBAL FUNCTIONS
 136:..\..\..\arduinoLCD\test\Pain Drain\libraries\lvgl\src\extra\themes\basic/lv_theme_basic.c ****  **********************/
 137:..\..\..\arduinoLCD\test\Pain Drain\libraries\lvgl\src\extra\themes\basic/lv_theme_basic.c **** 
 138:..\..\..\arduinoLCD\test\Pain Drain\libraries\lvgl\src\extra\themes\basic/lv_theme_basic.c **** bool lv_theme_basic_is_inited(void)
 139:..\..\..\arduinoLCD\test\Pain Drain\libraries\lvgl\src\extra\themes\basic/lv_theme_basic.c **** {
 140:..\..\..\arduinoLCD\test\Pain Drain\libraries\lvgl\src\extra\themes\basic/lv_theme_basic.c ****     return  LV_GC_ROOT(_lv_theme_basic_styles) == NULL ? false : true;
 141:..\..\..\arduinoLCD\test\Pain Drain\libraries\lvgl\src\extra\themes\basic/lv_theme_basic.c **** }
 142:..\..\..\arduinoLCD\test\Pain Drain\libraries\lvgl\src\extra\themes\basic/lv_theme_basic.c **** 
 143:..\..\..\arduinoLCD\test\Pain Drain\libraries\lvgl\src\extra\themes\basic/lv_theme_basic.c **** lv_theme_t * lv_theme_basic_init(lv_disp_t * disp)
 144:..\..\..\arduinoLCD\test\Pain Drain\libraries\lvgl\src\extra\themes\basic/lv_theme_basic.c **** {
 145:..\..\..\arduinoLCD\test\Pain Drain\libraries\lvgl\src\extra\themes\basic/lv_theme_basic.c **** 
ARM GAS  C:\Users\haske\AppData\Local\Temp\ccVOiHBd.s 			page 4


 146:..\..\..\arduinoLCD\test\Pain Drain\libraries\lvgl\src\extra\themes\basic/lv_theme_basic.c ****     /*This trick is required only to avoid the garbage collection of
 147:..\..\..\arduinoLCD\test\Pain Drain\libraries\lvgl\src\extra\themes\basic/lv_theme_basic.c ****      *styles' data if LVGL is used in a binding (e.g. Micropython)
 148:..\..\..\arduinoLCD\test\Pain Drain\libraries\lvgl\src\extra\themes\basic/lv_theme_basic.c ****      *In a general case styles could be in simple `static lv_style_t my_style...` variables*/
 149:..\..\..\arduinoLCD\test\Pain Drain\libraries\lvgl\src\extra\themes\basic/lv_theme_basic.c ****     if(!lv_theme_basic_is_inited()) {
 150:..\..\..\arduinoLCD\test\Pain Drain\libraries\lvgl\src\extra\themes\basic/lv_theme_basic.c ****         inited = false;
 151:..\..\..\arduinoLCD\test\Pain Drain\libraries\lvgl\src\extra\themes\basic/lv_theme_basic.c ****         LV_GC_ROOT(_lv_theme_basic_styles) = lv_mem_alloc(sizeof(my_theme_styles_t));
 152:..\..\..\arduinoLCD\test\Pain Drain\libraries\lvgl\src\extra\themes\basic/lv_theme_basic.c ****         styles = (my_theme_styles_t *)LV_GC_ROOT(_lv_theme_basic_styles);
 153:..\..\..\arduinoLCD\test\Pain Drain\libraries\lvgl\src\extra\themes\basic/lv_theme_basic.c ****     }
 154:..\..\..\arduinoLCD\test\Pain Drain\libraries\lvgl\src\extra\themes\basic/lv_theme_basic.c **** 
 155:..\..\..\arduinoLCD\test\Pain Drain\libraries\lvgl\src\extra\themes\basic/lv_theme_basic.c ****     theme.disp = disp;
 156:..\..\..\arduinoLCD\test\Pain Drain\libraries\lvgl\src\extra\themes\basic/lv_theme_basic.c ****     theme.font_small = LV_FONT_DEFAULT;
 157:..\..\..\arduinoLCD\test\Pain Drain\libraries\lvgl\src\extra\themes\basic/lv_theme_basic.c ****     theme.font_normal = LV_FONT_DEFAULT;
 158:..\..\..\arduinoLCD\test\Pain Drain\libraries\lvgl\src\extra\themes\basic/lv_theme_basic.c ****     theme.font_large = LV_FONT_DEFAULT;
 159:..\..\..\arduinoLCD\test\Pain Drain\libraries\lvgl\src\extra\themes\basic/lv_theme_basic.c ****     theme.apply_cb = theme_apply;
 160:..\..\..\arduinoLCD\test\Pain Drain\libraries\lvgl\src\extra\themes\basic/lv_theme_basic.c **** 
 161:..\..\..\arduinoLCD\test\Pain Drain\libraries\lvgl\src\extra\themes\basic/lv_theme_basic.c ****     style_init();
 162:..\..\..\arduinoLCD\test\Pain Drain\libraries\lvgl\src\extra\themes\basic/lv_theme_basic.c **** 
 163:..\..\..\arduinoLCD\test\Pain Drain\libraries\lvgl\src\extra\themes\basic/lv_theme_basic.c ****     if(disp == NULL || lv_disp_get_theme(disp) == &theme) {
 164:..\..\..\arduinoLCD\test\Pain Drain\libraries\lvgl\src\extra\themes\basic/lv_theme_basic.c ****         lv_obj_report_style_change(NULL);
 165:..\..\..\arduinoLCD\test\Pain Drain\libraries\lvgl\src\extra\themes\basic/lv_theme_basic.c ****     }
 166:..\..\..\arduinoLCD\test\Pain Drain\libraries\lvgl\src\extra\themes\basic/lv_theme_basic.c **** 
 167:..\..\..\arduinoLCD\test\Pain Drain\libraries\lvgl\src\extra\themes\basic/lv_theme_basic.c ****     inited = true;
 168:..\..\..\arduinoLCD\test\Pain Drain\libraries\lvgl\src\extra\themes\basic/lv_theme_basic.c **** 
 169:..\..\..\arduinoLCD\test\Pain Drain\libraries\lvgl\src\extra\themes\basic/lv_theme_basic.c ****     return (lv_theme_t *)&theme;
 170:..\..\..\arduinoLCD\test\Pain Drain\libraries\lvgl\src\extra\themes\basic/lv_theme_basic.c **** }
 171:..\..\..\arduinoLCD\test\Pain Drain\libraries\lvgl\src\extra\themes\basic/lv_theme_basic.c **** 
 172:..\..\..\arduinoLCD\test\Pain Drain\libraries\lvgl\src\extra\themes\basic/lv_theme_basic.c **** 
 173:..\..\..\arduinoLCD\test\Pain Drain\libraries\lvgl\src\extra\themes\basic/lv_theme_basic.c **** static void theme_apply(lv_theme_t * th, lv_obj_t * obj)
 174:..\..\..\arduinoLCD\test\Pain Drain\libraries\lvgl\src\extra\themes\basic/lv_theme_basic.c **** {
  27              		.loc 1 174 0
  28              		.cfi_startproc
  29              		@ args = 0, pretend = 0, frame = 0
  30              		@ frame_needed = 0, uses_anonymous_args = 0
  31              	.LVL0:
  32 0000 70B5     		push	{r4, r5, r6, lr}
  33              		.cfi_def_cfa_offset 16
  34              		.cfi_offset 4, -16
  35              		.cfi_offset 5, -12
  36              		.cfi_offset 6, -8
  37              		.cfi_offset 14, -4
  38 0002 0C00     		movs	r4, r1
 175:..\..\..\arduinoLCD\test\Pain Drain\libraries\lvgl\src\extra\themes\basic/lv_theme_basic.c ****     LV_UNUSED(th);
 176:..\..\..\arduinoLCD\test\Pain Drain\libraries\lvgl\src\extra\themes\basic/lv_theme_basic.c **** 
 177:..\..\..\arduinoLCD\test\Pain Drain\libraries\lvgl\src\extra\themes\basic/lv_theme_basic.c ****     if(lv_obj_get_parent(obj) == NULL) {
  39              		.loc 1 177 0
  40 0004 0800     		movs	r0, r1
  41              	.LVL1:
  42 0006 FFF7FEFF 		bl	lv_obj_get_parent
  43              	.LVL2:
  44 000a 0028     		cmp	r0, #0
  45 000c 0DD1     		bne	.L2
 178:..\..\..\arduinoLCD\test\Pain Drain\libraries\lvgl\src\extra\themes\basic/lv_theme_basic.c ****         lv_obj_add_style(obj, &styles->scr, 0);
  46              		.loc 1 178 0
  47 000e CF4D     		ldr	r5, .L36
  48 0010 0022     		movs	r2, #0
  49 0012 2968     		ldr	r1, [r5]
  50 0014 2000     		movs	r0, r4
ARM GAS  C:\Users\haske\AppData\Local\Temp\ccVOiHBd.s 			page 5


  51 0016 FFF7FEFF 		bl	lv_obj_add_style
  52              	.LVL3:
 179:..\..\..\arduinoLCD\test\Pain Drain\libraries\lvgl\src\extra\themes\basic/lv_theme_basic.c ****         lv_obj_add_style(obj, &styles->scrollbar, LV_PART_SCROLLBAR);
  53              		.loc 1 179 0
  54 001a 2968     		ldr	r1, [r5]
  55 001c 3031     		adds	r1, r1, #48
  56 001e 8022     		movs	r2, #128
  57 0020 5202     		lsls	r2, r2, #9
  58 0022 2000     		movs	r0, r4
  59 0024 FFF7FEFF 		bl	lv_obj_add_style
  60              	.LVL4:
 180:..\..\..\arduinoLCD\test\Pain Drain\libraries\lvgl\src\extra\themes\basic/lv_theme_basic.c ****         return;
  61              		.loc 1 180 0
  62 0028 1CE3     		b	.L1
  63              	.L2:
 181:..\..\..\arduinoLCD\test\Pain Drain\libraries\lvgl\src\extra\themes\basic/lv_theme_basic.c ****     }
 182:..\..\..\arduinoLCD\test\Pain Drain\libraries\lvgl\src\extra\themes\basic/lv_theme_basic.c **** 
 183:..\..\..\arduinoLCD\test\Pain Drain\libraries\lvgl\src\extra\themes\basic/lv_theme_basic.c ****     if(lv_obj_check_type(obj, &lv_obj_class)) {
  64              		.loc 1 183 0
  65 002a C949     		ldr	r1, .L36+4
  66 002c 2000     		movs	r0, r4
  67 002e FFF7FEFF 		bl	lv_obj_check_type
  68              	.LVL5:
  69 0032 0028     		cmp	r0, #0
  70 0034 65D0     		beq	.L4
  71              	.LBB16:
 184:..\..\..\arduinoLCD\test\Pain Drain\libraries\lvgl\src\extra\themes\basic/lv_theme_basic.c **** #if LV_USE_TABVIEW
 185:..\..\..\arduinoLCD\test\Pain Drain\libraries\lvgl\src\extra\themes\basic/lv_theme_basic.c ****         lv_obj_t * parent = lv_obj_get_parent(obj);
  72              		.loc 1 185 0
  73 0036 2000     		movs	r0, r4
  74 0038 FFF7FEFF 		bl	lv_obj_get_parent
  75              	.LVL6:
  76 003c 0500     		movs	r5, r0
  77              	.LVL7:
 186:..\..\..\arduinoLCD\test\Pain Drain\libraries\lvgl\src\extra\themes\basic/lv_theme_basic.c ****         /*Tabview content area*/
 187:..\..\..\arduinoLCD\test\Pain Drain\libraries\lvgl\src\extra\themes\basic/lv_theme_basic.c ****         if(lv_obj_check_type(parent, &lv_tabview_class)) {
  78              		.loc 1 187 0
  79 003e C549     		ldr	r1, .L36+8
  80 0040 FFF7FEFF 		bl	lv_obj_check_type
  81              	.LVL8:
  82 0044 0028     		cmp	r0, #0
  83 0046 06D0     		beq	.L5
 188:..\..\..\arduinoLCD\test\Pain Drain\libraries\lvgl\src\extra\themes\basic/lv_theme_basic.c ****             lv_obj_add_style(obj, &styles->scr, 0);
  84              		.loc 1 188 0
  85 0048 C04B     		ldr	r3, .L36
  86 004a 1968     		ldr	r1, [r3]
  87 004c 0022     		movs	r2, #0
  88 004e 2000     		movs	r0, r4
  89 0050 FFF7FEFF 		bl	lv_obj_add_style
  90              	.LVL9:
 189:..\..\..\arduinoLCD\test\Pain Drain\libraries\lvgl\src\extra\themes\basic/lv_theme_basic.c ****             return;
  91              		.loc 1 189 0
  92 0054 06E3     		b	.L1
  93              	.L5:
 190:..\..\..\arduinoLCD\test\Pain Drain\libraries\lvgl\src\extra\themes\basic/lv_theme_basic.c ****         }
 191:..\..\..\arduinoLCD\test\Pain Drain\libraries\lvgl\src\extra\themes\basic/lv_theme_basic.c ****         /*Tabview pages*/
 192:..\..\..\arduinoLCD\test\Pain Drain\libraries\lvgl\src\extra\themes\basic/lv_theme_basic.c ****         else if(lv_obj_check_type(lv_obj_get_parent(parent), &lv_tabview_class)) {
ARM GAS  C:\Users\haske\AppData\Local\Temp\ccVOiHBd.s 			page 6


  94              		.loc 1 192 0
  95 0056 2800     		movs	r0, r5
  96 0058 FFF7FEFF 		bl	lv_obj_get_parent
  97              	.LVL10:
  98 005c BD49     		ldr	r1, .L36+8
  99 005e FFF7FEFF 		bl	lv_obj_check_type
 100              	.LVL11:
 101 0062 0028     		cmp	r0, #0
 102 0064 0DD0     		beq	.L6
 193:..\..\..\arduinoLCD\test\Pain Drain\libraries\lvgl\src\extra\themes\basic/lv_theme_basic.c ****             lv_obj_add_style(obj, &styles->scr, 0);
 103              		.loc 1 193 0
 104 0066 B94D     		ldr	r5, .L36
 105              	.LVL12:
 106 0068 0022     		movs	r2, #0
 107 006a 2968     		ldr	r1, [r5]
 108 006c 2000     		movs	r0, r4
 109 006e FFF7FEFF 		bl	lv_obj_add_style
 110              	.LVL13:
 194:..\..\..\arduinoLCD\test\Pain Drain\libraries\lvgl\src\extra\themes\basic/lv_theme_basic.c ****             lv_obj_add_style(obj, &styles->scrollbar, LV_PART_SCROLLBAR);
 111              		.loc 1 194 0
 112 0072 2968     		ldr	r1, [r5]
 113 0074 3031     		adds	r1, r1, #48
 114 0076 8022     		movs	r2, #128
 115 0078 5202     		lsls	r2, r2, #9
 116 007a 2000     		movs	r0, r4
 117 007c FFF7FEFF 		bl	lv_obj_add_style
 118              	.LVL14:
 195:..\..\..\arduinoLCD\test\Pain Drain\libraries\lvgl\src\extra\themes\basic/lv_theme_basic.c ****             return;
 119              		.loc 1 195 0
 120 0080 F0E2     		b	.L1
 121              	.LVL15:
 122              	.L6:
 196:..\..\..\arduinoLCD\test\Pain Drain\libraries\lvgl\src\extra\themes\basic/lv_theme_basic.c ****         }
 197:..\..\..\arduinoLCD\test\Pain Drain\libraries\lvgl\src\extra\themes\basic/lv_theme_basic.c **** #endif
 198:..\..\..\arduinoLCD\test\Pain Drain\libraries\lvgl\src\extra\themes\basic/lv_theme_basic.c **** 
 199:..\..\..\arduinoLCD\test\Pain Drain\libraries\lvgl\src\extra\themes\basic/lv_theme_basic.c **** #if LV_USE_WIN
 200:..\..\..\arduinoLCD\test\Pain Drain\libraries\lvgl\src\extra\themes\basic/lv_theme_basic.c ****         /*Header*/
 201:..\..\..\arduinoLCD\test\Pain Drain\libraries\lvgl\src\extra\themes\basic/lv_theme_basic.c ****         if(lv_obj_get_index(obj) == 0 && lv_obj_check_type(lv_obj_get_parent(obj), &lv_win_class)) 
 123              		.loc 1 201 0
 124 0082 2000     		movs	r0, r4
 125 0084 FFF7FEFF 		bl	lv_obj_get_index
 126              	.LVL16:
 127 0088 0028     		cmp	r0, #0
 128 008a 0FD1     		bne	.L7
 129              		.loc 1 201 0 is_stmt 0 discriminator 1
 130 008c 2000     		movs	r0, r4
 131 008e FFF7FEFF 		bl	lv_obj_get_parent
 132              	.LVL17:
 133 0092 B149     		ldr	r1, .L36+12
 134 0094 FFF7FEFF 		bl	lv_obj_check_type
 135              	.LVL18:
 136 0098 0028     		cmp	r0, #0
 137 009a 07D0     		beq	.L7
 202:..\..\..\arduinoLCD\test\Pain Drain\libraries\lvgl\src\extra\themes\basic/lv_theme_basic.c ****             lv_obj_add_style(obj, &styles->light, 0);
 138              		.loc 1 202 0 is_stmt 1
 139 009c AB4B     		ldr	r3, .L36
 140 009e 1968     		ldr	r1, [r3]
ARM GAS  C:\Users\haske\AppData\Local\Temp\ccVOiHBd.s 			page 7


 141 00a0 1831     		adds	r1, r1, #24
 142 00a2 0022     		movs	r2, #0
 143 00a4 2000     		movs	r0, r4
 144 00a6 FFF7FEFF 		bl	lv_obj_add_style
 145              	.LVL19:
 203:..\..\..\arduinoLCD\test\Pain Drain\libraries\lvgl\src\extra\themes\basic/lv_theme_basic.c ****             return;
 146              		.loc 1 203 0
 147 00aa DBE2     		b	.L1
 148              	.L7:
 204:..\..\..\arduinoLCD\test\Pain Drain\libraries\lvgl\src\extra\themes\basic/lv_theme_basic.c ****         }
 205:..\..\..\arduinoLCD\test\Pain Drain\libraries\lvgl\src\extra\themes\basic/lv_theme_basic.c ****         /*Content*/
 206:..\..\..\arduinoLCD\test\Pain Drain\libraries\lvgl\src\extra\themes\basic/lv_theme_basic.c ****         else if(lv_obj_get_index(obj) == 1 && lv_obj_check_type(lv_obj_get_parent(obj), &lv_win_cla
 149              		.loc 1 206 0
 150 00ac 2000     		movs	r0, r4
 151 00ae FFF7FEFF 		bl	lv_obj_get_index
 152              	.LVL20:
 153 00b2 0128     		cmp	r0, #1
 154 00b4 16D1     		bne	.L8
 155              		.loc 1 206 0 is_stmt 0 discriminator 1
 156 00b6 2000     		movs	r0, r4
 157 00b8 FFF7FEFF 		bl	lv_obj_get_parent
 158              	.LVL21:
 159 00bc A649     		ldr	r1, .L36+12
 160 00be FFF7FEFF 		bl	lv_obj_check_type
 161              	.LVL22:
 162 00c2 0028     		cmp	r0, #0
 163 00c4 0ED0     		beq	.L8
 207:..\..\..\arduinoLCD\test\Pain Drain\libraries\lvgl\src\extra\themes\basic/lv_theme_basic.c ****             lv_obj_add_style(obj, &styles->light, 0);
 164              		.loc 1 207 0 is_stmt 1
 165 00c6 A14D     		ldr	r5, .L36
 166              	.LVL23:
 167 00c8 2968     		ldr	r1, [r5]
 168 00ca 1831     		adds	r1, r1, #24
 169 00cc 0022     		movs	r2, #0
 170 00ce 2000     		movs	r0, r4
 171 00d0 FFF7FEFF 		bl	lv_obj_add_style
 172              	.LVL24:
 208:..\..\..\arduinoLCD\test\Pain Drain\libraries\lvgl\src\extra\themes\basic/lv_theme_basic.c ****             lv_obj_add_style(obj, &styles->scrollbar, LV_PART_SCROLLBAR);
 173              		.loc 1 208 0
 174 00d4 2968     		ldr	r1, [r5]
 175 00d6 3031     		adds	r1, r1, #48
 176 00d8 8022     		movs	r2, #128
 177 00da 5202     		lsls	r2, r2, #9
 178 00dc 2000     		movs	r0, r4
 179 00de FFF7FEFF 		bl	lv_obj_add_style
 180              	.LVL25:
 209:..\..\..\arduinoLCD\test\Pain Drain\libraries\lvgl\src\extra\themes\basic/lv_theme_basic.c ****             return;
 181              		.loc 1 209 0
 182 00e2 BFE2     		b	.L1
 183              	.LVL26:
 184              	.L8:
 210:..\..\..\arduinoLCD\test\Pain Drain\libraries\lvgl\src\extra\themes\basic/lv_theme_basic.c ****         }
 211:..\..\..\arduinoLCD\test\Pain Drain\libraries\lvgl\src\extra\themes\basic/lv_theme_basic.c **** #endif
 212:..\..\..\arduinoLCD\test\Pain Drain\libraries\lvgl\src\extra\themes\basic/lv_theme_basic.c ****         lv_obj_add_style(obj, &styles->white, 0);
 185              		.loc 1 212 0
 186 00e4 994D     		ldr	r5, .L36
 187              	.LVL27:
ARM GAS  C:\Users\haske\AppData\Local\Temp\ccVOiHBd.s 			page 8


 188 00e6 2968     		ldr	r1, [r5]
 189 00e8 1031     		adds	r1, r1, #16
 190 00ea 0022     		movs	r2, #0
 191 00ec 2000     		movs	r0, r4
 192 00ee FFF7FEFF 		bl	lv_obj_add_style
 193              	.LVL28:
 213:..\..\..\arduinoLCD\test\Pain Drain\libraries\lvgl\src\extra\themes\basic/lv_theme_basic.c ****         lv_obj_add_style(obj, &styles->scrollbar, LV_PART_SCROLLBAR);
 194              		.loc 1 213 0
 195 00f2 2968     		ldr	r1, [r5]
 196 00f4 3031     		adds	r1, r1, #48
 197 00f6 8022     		movs	r2, #128
 198 00f8 5202     		lsls	r2, r2, #9
 199 00fa 2000     		movs	r0, r4
 200 00fc FFF7FEFF 		bl	lv_obj_add_style
 201              	.LVL29:
 202              	.LBE16:
 203 0100 B0E2     		b	.L1
 204              	.L4:
 214:..\..\..\arduinoLCD\test\Pain Drain\libraries\lvgl\src\extra\themes\basic/lv_theme_basic.c ****     }
 215:..\..\..\arduinoLCD\test\Pain Drain\libraries\lvgl\src\extra\themes\basic/lv_theme_basic.c **** #if LV_USE_BTN
 216:..\..\..\arduinoLCD\test\Pain Drain\libraries\lvgl\src\extra\themes\basic/lv_theme_basic.c ****     else if(lv_obj_check_type(obj, &lv_btn_class)) {
 205              		.loc 1 216 0
 206 0102 9649     		ldr	r1, .L36+16
 207 0104 2000     		movs	r0, r4
 208 0106 FFF7FEFF 		bl	lv_obj_check_type
 209              	.LVL30:
 210 010a 0028     		cmp	r0, #0
 211 010c 07D0     		beq	.L9
 217:..\..\..\arduinoLCD\test\Pain Drain\libraries\lvgl\src\extra\themes\basic/lv_theme_basic.c ****         lv_obj_add_style(obj, &styles->dark, 0);
 212              		.loc 1 217 0
 213 010e 8F4B     		ldr	r3, .L36
 214 0110 1968     		ldr	r1, [r3]
 215 0112 2031     		adds	r1, r1, #32
 216 0114 0022     		movs	r2, #0
 217 0116 2000     		movs	r0, r4
 218 0118 FFF7FEFF 		bl	lv_obj_add_style
 219              	.LVL31:
 220 011c A2E2     		b	.L1
 221              	.L9:
 218:..\..\..\arduinoLCD\test\Pain Drain\libraries\lvgl\src\extra\themes\basic/lv_theme_basic.c ****     }
 219:..\..\..\arduinoLCD\test\Pain Drain\libraries\lvgl\src\extra\themes\basic/lv_theme_basic.c **** #endif
 220:..\..\..\arduinoLCD\test\Pain Drain\libraries\lvgl\src\extra\themes\basic/lv_theme_basic.c **** 
 221:..\..\..\arduinoLCD\test\Pain Drain\libraries\lvgl\src\extra\themes\basic/lv_theme_basic.c **** #if LV_USE_BTNMATRIX
 222:..\..\..\arduinoLCD\test\Pain Drain\libraries\lvgl\src\extra\themes\basic/lv_theme_basic.c ****     else if(lv_obj_check_type(obj, &lv_btnmatrix_class)) {
 222              		.loc 1 222 0
 223 011e 9049     		ldr	r1, .L36+20
 224 0120 2000     		movs	r0, r4
 225 0122 FFF7FEFF 		bl	lv_obj_check_type
 226              	.LVL32:
 227 0126 0028     		cmp	r0, #0
 228 0128 30D0     		beq	.L10
 223:..\..\..\arduinoLCD\test\Pain Drain\libraries\lvgl\src\extra\themes\basic/lv_theme_basic.c **** #if LV_USE_MSGBOX
 224:..\..\..\arduinoLCD\test\Pain Drain\libraries\lvgl\src\extra\themes\basic/lv_theme_basic.c ****         if(lv_obj_check_type(lv_obj_get_parent(obj), &lv_msgbox_class)) {
 229              		.loc 1 224 0
 230 012a 2000     		movs	r0, r4
 231 012c FFF7FEFF 		bl	lv_obj_get_parent
 232              	.LVL33:
ARM GAS  C:\Users\haske\AppData\Local\Temp\ccVOiHBd.s 			page 9


 233 0130 8C49     		ldr	r1, .L36+24
 234 0132 FFF7FEFF 		bl	lv_obj_check_type
 235              	.LVL34:
 236 0136 0028     		cmp	r0, #0
 237 0138 08D0     		beq	.L11
 225:..\..\..\arduinoLCD\test\Pain Drain\libraries\lvgl\src\extra\themes\basic/lv_theme_basic.c ****             lv_obj_add_style(obj, &styles->light, LV_PART_ITEMS);
 238              		.loc 1 225 0
 239 013a 844B     		ldr	r3, .L36
 240 013c 1968     		ldr	r1, [r3]
 241 013e 1831     		adds	r1, r1, #24
 242 0140 A022     		movs	r2, #160
 243 0142 D202     		lsls	r2, r2, #11
 244 0144 2000     		movs	r0, r4
 245 0146 FFF7FEFF 		bl	lv_obj_add_style
 246              	.LVL35:
 226:..\..\..\arduinoLCD\test\Pain Drain\libraries\lvgl\src\extra\themes\basic/lv_theme_basic.c ****             return;
 247              		.loc 1 226 0
 248 014a 8BE2     		b	.L1
 249              	.L11:
 227:..\..\..\arduinoLCD\test\Pain Drain\libraries\lvgl\src\extra\themes\basic/lv_theme_basic.c ****         }
 228:..\..\..\arduinoLCD\test\Pain Drain\libraries\lvgl\src\extra\themes\basic/lv_theme_basic.c **** #endif
 229:..\..\..\arduinoLCD\test\Pain Drain\libraries\lvgl\src\extra\themes\basic/lv_theme_basic.c **** #if LV_USE_TABVIEW
 230:..\..\..\arduinoLCD\test\Pain Drain\libraries\lvgl\src\extra\themes\basic/lv_theme_basic.c ****         if(lv_obj_check_type(lv_obj_get_parent(obj), &lv_tabview_class)) {
 250              		.loc 1 230 0
 251 014c 2000     		movs	r0, r4
 252 014e FFF7FEFF 		bl	lv_obj_get_parent
 253              	.LVL36:
 254 0152 8049     		ldr	r1, .L36+8
 255 0154 FFF7FEFF 		bl	lv_obj_check_type
 256              	.LVL37:
 257 0158 0028     		cmp	r0, #0
 258 015a 08D0     		beq	.L12
 231:..\..\..\arduinoLCD\test\Pain Drain\libraries\lvgl\src\extra\themes\basic/lv_theme_basic.c ****             lv_obj_add_style(obj, &styles->light, LV_PART_ITEMS);
 259              		.loc 1 231 0
 260 015c 7B4B     		ldr	r3, .L36
 261 015e 1968     		ldr	r1, [r3]
 262 0160 1831     		adds	r1, r1, #24
 263 0162 A022     		movs	r2, #160
 264 0164 D202     		lsls	r2, r2, #11
 265 0166 2000     		movs	r0, r4
 266 0168 FFF7FEFF 		bl	lv_obj_add_style
 267              	.LVL38:
 232:..\..\..\arduinoLCD\test\Pain Drain\libraries\lvgl\src\extra\themes\basic/lv_theme_basic.c ****             return;
 268              		.loc 1 232 0
 269 016c 7AE2     		b	.L1
 270              	.L12:
 233:..\..\..\arduinoLCD\test\Pain Drain\libraries\lvgl\src\extra\themes\basic/lv_theme_basic.c ****         }
 234:..\..\..\arduinoLCD\test\Pain Drain\libraries\lvgl\src\extra\themes\basic/lv_theme_basic.c **** #endif
 235:..\..\..\arduinoLCD\test\Pain Drain\libraries\lvgl\src\extra\themes\basic/lv_theme_basic.c ****         lv_obj_add_style(obj, &styles->white, 0);
 271              		.loc 1 235 0
 272 016e 774D     		ldr	r5, .L36
 273 0170 2968     		ldr	r1, [r5]
 274 0172 1031     		adds	r1, r1, #16
 275 0174 0022     		movs	r2, #0
 276 0176 2000     		movs	r0, r4
 277 0178 FFF7FEFF 		bl	lv_obj_add_style
 278              	.LVL39:
ARM GAS  C:\Users\haske\AppData\Local\Temp\ccVOiHBd.s 			page 10


 236:..\..\..\arduinoLCD\test\Pain Drain\libraries\lvgl\src\extra\themes\basic/lv_theme_basic.c ****         lv_obj_add_style(obj, &styles->light, LV_PART_ITEMS);
 279              		.loc 1 236 0
 280 017c 2968     		ldr	r1, [r5]
 281 017e 1831     		adds	r1, r1, #24
 282 0180 A022     		movs	r2, #160
 283 0182 D202     		lsls	r2, r2, #11
 284 0184 2000     		movs	r0, r4
 285 0186 FFF7FEFF 		bl	lv_obj_add_style
 286              	.LVL40:
 287 018a 6BE2     		b	.L1
 288              	.L10:
 237:..\..\..\arduinoLCD\test\Pain Drain\libraries\lvgl\src\extra\themes\basic/lv_theme_basic.c ****     }
 238:..\..\..\arduinoLCD\test\Pain Drain\libraries\lvgl\src\extra\themes\basic/lv_theme_basic.c **** #endif
 239:..\..\..\arduinoLCD\test\Pain Drain\libraries\lvgl\src\extra\themes\basic/lv_theme_basic.c **** 
 240:..\..\..\arduinoLCD\test\Pain Drain\libraries\lvgl\src\extra\themes\basic/lv_theme_basic.c **** #if LV_USE_BAR
 241:..\..\..\arduinoLCD\test\Pain Drain\libraries\lvgl\src\extra\themes\basic/lv_theme_basic.c ****     else if(lv_obj_check_type(obj, &lv_bar_class)) {
 289              		.loc 1 241 0
 290 018c 7649     		ldr	r1, .L36+28
 291 018e 2000     		movs	r0, r4
 292 0190 FFF7FEFF 		bl	lv_obj_check_type
 293              	.LVL41:
 294 0194 0028     		cmp	r0, #0
 295 0196 0ED0     		beq	.L13
 242:..\..\..\arduinoLCD\test\Pain Drain\libraries\lvgl\src\extra\themes\basic/lv_theme_basic.c ****         lv_obj_add_style(obj, &styles->light, 0);
 296              		.loc 1 242 0
 297 0198 6C4D     		ldr	r5, .L36
 298 019a 2968     		ldr	r1, [r5]
 299 019c 1831     		adds	r1, r1, #24
 300 019e 0022     		movs	r2, #0
 301 01a0 2000     		movs	r0, r4
 302 01a2 FFF7FEFF 		bl	lv_obj_add_style
 303              	.LVL42:
 243:..\..\..\arduinoLCD\test\Pain Drain\libraries\lvgl\src\extra\themes\basic/lv_theme_basic.c ****         lv_obj_add_style(obj, &styles->dark, LV_PART_INDICATOR);
 304              		.loc 1 243 0
 305 01a6 2968     		ldr	r1, [r5]
 306 01a8 2031     		adds	r1, r1, #32
 307 01aa 8022     		movs	r2, #128
 308 01ac 9202     		lsls	r2, r2, #10
 309 01ae 2000     		movs	r0, r4
 310 01b0 FFF7FEFF 		bl	lv_obj_add_style
 311              	.LVL43:
 312 01b4 56E2     		b	.L1
 313              	.L13:
 244:..\..\..\arduinoLCD\test\Pain Drain\libraries\lvgl\src\extra\themes\basic/lv_theme_basic.c ****     }
 245:..\..\..\arduinoLCD\test\Pain Drain\libraries\lvgl\src\extra\themes\basic/lv_theme_basic.c **** #endif
 246:..\..\..\arduinoLCD\test\Pain Drain\libraries\lvgl\src\extra\themes\basic/lv_theme_basic.c **** 
 247:..\..\..\arduinoLCD\test\Pain Drain\libraries\lvgl\src\extra\themes\basic/lv_theme_basic.c **** #if LV_USE_SLIDER
 248:..\..\..\arduinoLCD\test\Pain Drain\libraries\lvgl\src\extra\themes\basic/lv_theme_basic.c ****     else if(lv_obj_check_type(obj, &lv_slider_class)) {
 314              		.loc 1 248 0
 315 01b6 6D49     		ldr	r1, .L36+32
 316 01b8 2000     		movs	r0, r4
 317 01ba FFF7FEFF 		bl	lv_obj_check_type
 318              	.LVL44:
 319 01be 0028     		cmp	r0, #0
 320 01c0 15D0     		beq	.L14
 249:..\..\..\arduinoLCD\test\Pain Drain\libraries\lvgl\src\extra\themes\basic/lv_theme_basic.c ****         lv_obj_add_style(obj, &styles->light, 0);
 321              		.loc 1 249 0
ARM GAS  C:\Users\haske\AppData\Local\Temp\ccVOiHBd.s 			page 11


 322 01c2 624D     		ldr	r5, .L36
 323 01c4 2968     		ldr	r1, [r5]
 324 01c6 1831     		adds	r1, r1, #24
 325 01c8 0022     		movs	r2, #0
 326 01ca 2000     		movs	r0, r4
 327 01cc FFF7FEFF 		bl	lv_obj_add_style
 328              	.LVL45:
 250:..\..\..\arduinoLCD\test\Pain Drain\libraries\lvgl\src\extra\themes\basic/lv_theme_basic.c ****         lv_obj_add_style(obj, &styles->dark, LV_PART_INDICATOR);
 329              		.loc 1 250 0
 330 01d0 2968     		ldr	r1, [r5]
 331 01d2 2031     		adds	r1, r1, #32
 332 01d4 8022     		movs	r2, #128
 333 01d6 9202     		lsls	r2, r2, #10
 334 01d8 2000     		movs	r0, r4
 335 01da FFF7FEFF 		bl	lv_obj_add_style
 336              	.LVL46:
 251:..\..\..\arduinoLCD\test\Pain Drain\libraries\lvgl\src\extra\themes\basic/lv_theme_basic.c ****         lv_obj_add_style(obj, &styles->dim, LV_PART_KNOB);
 337              		.loc 1 251 0
 338 01de 2968     		ldr	r1, [r5]
 339 01e0 2831     		adds	r1, r1, #40
 340 01e2 C022     		movs	r2, #192
 341 01e4 9202     		lsls	r2, r2, #10
 342 01e6 2000     		movs	r0, r4
 343 01e8 FFF7FEFF 		bl	lv_obj_add_style
 344              	.LVL47:
 345 01ec 3AE2     		b	.L1
 346              	.L14:
 252:..\..\..\arduinoLCD\test\Pain Drain\libraries\lvgl\src\extra\themes\basic/lv_theme_basic.c ****     }
 253:..\..\..\arduinoLCD\test\Pain Drain\libraries\lvgl\src\extra\themes\basic/lv_theme_basic.c **** #endif
 254:..\..\..\arduinoLCD\test\Pain Drain\libraries\lvgl\src\extra\themes\basic/lv_theme_basic.c **** 
 255:..\..\..\arduinoLCD\test\Pain Drain\libraries\lvgl\src\extra\themes\basic/lv_theme_basic.c **** #if LV_USE_TABLE
 256:..\..\..\arduinoLCD\test\Pain Drain\libraries\lvgl\src\extra\themes\basic/lv_theme_basic.c ****     else if(lv_obj_check_type(obj, &lv_table_class)) {
 347              		.loc 1 256 0
 348 01ee 6049     		ldr	r1, .L36+36
 349 01f0 2000     		movs	r0, r4
 350 01f2 FFF7FEFF 		bl	lv_obj_check_type
 351              	.LVL48:
 352 01f6 0028     		cmp	r0, #0
 353 01f8 0FD0     		beq	.L15
 257:..\..\..\arduinoLCD\test\Pain Drain\libraries\lvgl\src\extra\themes\basic/lv_theme_basic.c ****         lv_obj_add_style(obj, &styles->scrollbar, LV_PART_SCROLLBAR);
 354              		.loc 1 257 0
 355 01fa 544D     		ldr	r5, .L36
 356 01fc 2968     		ldr	r1, [r5]
 357 01fe 3031     		adds	r1, r1, #48
 358 0200 8022     		movs	r2, #128
 359 0202 5202     		lsls	r2, r2, #9
 360 0204 2000     		movs	r0, r4
 361 0206 FFF7FEFF 		bl	lv_obj_add_style
 362              	.LVL49:
 258:..\..\..\arduinoLCD\test\Pain Drain\libraries\lvgl\src\extra\themes\basic/lv_theme_basic.c ****         lv_obj_add_style(obj, &styles->light, LV_PART_ITEMS);
 363              		.loc 1 258 0
 364 020a 2968     		ldr	r1, [r5]
 365 020c 1831     		adds	r1, r1, #24
 366 020e A022     		movs	r2, #160
 367 0210 D202     		lsls	r2, r2, #11
 368 0212 2000     		movs	r0, r4
 369 0214 FFF7FEFF 		bl	lv_obj_add_style
ARM GAS  C:\Users\haske\AppData\Local\Temp\ccVOiHBd.s 			page 12


 370              	.LVL50:
 371 0218 24E2     		b	.L1
 372              	.L15:
 259:..\..\..\arduinoLCD\test\Pain Drain\libraries\lvgl\src\extra\themes\basic/lv_theme_basic.c ****     }
 260:..\..\..\arduinoLCD\test\Pain Drain\libraries\lvgl\src\extra\themes\basic/lv_theme_basic.c **** #endif
 261:..\..\..\arduinoLCD\test\Pain Drain\libraries\lvgl\src\extra\themes\basic/lv_theme_basic.c **** 
 262:..\..\..\arduinoLCD\test\Pain Drain\libraries\lvgl\src\extra\themes\basic/lv_theme_basic.c **** #if LV_USE_CHECKBOX
 263:..\..\..\arduinoLCD\test\Pain Drain\libraries\lvgl\src\extra\themes\basic/lv_theme_basic.c ****     else if(lv_obj_check_type(obj, &lv_checkbox_class)) {
 373              		.loc 1 263 0
 374 021a 5649     		ldr	r1, .L36+40
 375 021c 2000     		movs	r0, r4
 376 021e FFF7FEFF 		bl	lv_obj_check_type
 377              	.LVL51:
 378 0222 0028     		cmp	r0, #0
 379 0224 0ED0     		beq	.L16
 264:..\..\..\arduinoLCD\test\Pain Drain\libraries\lvgl\src\extra\themes\basic/lv_theme_basic.c ****         lv_obj_add_style(obj, &styles->light, LV_PART_INDICATOR);
 380              		.loc 1 264 0
 381 0226 494D     		ldr	r5, .L36
 382 0228 2968     		ldr	r1, [r5]
 383 022a 1831     		adds	r1, r1, #24
 384 022c 8022     		movs	r2, #128
 385 022e 9202     		lsls	r2, r2, #10
 386 0230 2000     		movs	r0, r4
 387 0232 FFF7FEFF 		bl	lv_obj_add_style
 388              	.LVL52:
 265:..\..\..\arduinoLCD\test\Pain Drain\libraries\lvgl\src\extra\themes\basic/lv_theme_basic.c ****         lv_obj_add_style(obj, &styles->dark, LV_PART_INDICATOR | LV_STATE_CHECKED);
 389              		.loc 1 265 0
 390 0236 2968     		ldr	r1, [r5]
 391 0238 2031     		adds	r1, r1, #32
 392 023a 4F4A     		ldr	r2, .L36+44
 393 023c 2000     		movs	r0, r4
 394 023e FFF7FEFF 		bl	lv_obj_add_style
 395              	.LVL53:
 396 0242 0FE2     		b	.L1
 397              	.L16:
 266:..\..\..\arduinoLCD\test\Pain Drain\libraries\lvgl\src\extra\themes\basic/lv_theme_basic.c ****     }
 267:..\..\..\arduinoLCD\test\Pain Drain\libraries\lvgl\src\extra\themes\basic/lv_theme_basic.c **** #endif
 268:..\..\..\arduinoLCD\test\Pain Drain\libraries\lvgl\src\extra\themes\basic/lv_theme_basic.c **** 
 269:..\..\..\arduinoLCD\test\Pain Drain\libraries\lvgl\src\extra\themes\basic/lv_theme_basic.c **** #if LV_USE_SWITCH
 270:..\..\..\arduinoLCD\test\Pain Drain\libraries\lvgl\src\extra\themes\basic/lv_theme_basic.c ****     else if(lv_obj_check_type(obj, &lv_switch_class)) {
 398              		.loc 1 270 0
 399 0244 4D49     		ldr	r1, .L36+48
 400 0246 2000     		movs	r0, r4
 401 0248 FFF7FEFF 		bl	lv_obj_check_type
 402              	.LVL54:
 403 024c 0028     		cmp	r0, #0
 404 024e 0ED0     		beq	.L17
 271:..\..\..\arduinoLCD\test\Pain Drain\libraries\lvgl\src\extra\themes\basic/lv_theme_basic.c ****         lv_obj_add_style(obj, &styles->light, 0);
 405              		.loc 1 271 0
 406 0250 3E4D     		ldr	r5, .L36
 407 0252 2968     		ldr	r1, [r5]
 408 0254 1831     		adds	r1, r1, #24
 409 0256 0022     		movs	r2, #0
 410 0258 2000     		movs	r0, r4
 411 025a FFF7FEFF 		bl	lv_obj_add_style
 412              	.LVL55:
 272:..\..\..\arduinoLCD\test\Pain Drain\libraries\lvgl\src\extra\themes\basic/lv_theme_basic.c ****         lv_obj_add_style(obj, &styles->dim, LV_PART_KNOB);
ARM GAS  C:\Users\haske\AppData\Local\Temp\ccVOiHBd.s 			page 13


 413              		.loc 1 272 0
 414 025e 2968     		ldr	r1, [r5]
 415 0260 2831     		adds	r1, r1, #40
 416 0262 C022     		movs	r2, #192
 417 0264 9202     		lsls	r2, r2, #10
 418 0266 2000     		movs	r0, r4
 419 0268 FFF7FEFF 		bl	lv_obj_add_style
 420              	.LVL56:
 421 026c FAE1     		b	.L1
 422              	.L17:
 273:..\..\..\arduinoLCD\test\Pain Drain\libraries\lvgl\src\extra\themes\basic/lv_theme_basic.c ****     }
 274:..\..\..\arduinoLCD\test\Pain Drain\libraries\lvgl\src\extra\themes\basic/lv_theme_basic.c **** #endif
 275:..\..\..\arduinoLCD\test\Pain Drain\libraries\lvgl\src\extra\themes\basic/lv_theme_basic.c **** 
 276:..\..\..\arduinoLCD\test\Pain Drain\libraries\lvgl\src\extra\themes\basic/lv_theme_basic.c **** #if LV_USE_CHART
 277:..\..\..\arduinoLCD\test\Pain Drain\libraries\lvgl\src\extra\themes\basic/lv_theme_basic.c ****     else if(lv_obj_check_type(obj, &lv_chart_class)) {
 423              		.loc 1 277 0
 424 026e 4449     		ldr	r1, .L36+52
 425 0270 2000     		movs	r0, r4
 426 0272 FFF7FEFF 		bl	lv_obj_check_type
 427              	.LVL57:
 428 0276 0028     		cmp	r0, #0
 429 0278 23D0     		beq	.L18
 278:..\..\..\arduinoLCD\test\Pain Drain\libraries\lvgl\src\extra\themes\basic/lv_theme_basic.c ****         lv_obj_add_style(obj, &styles->white, 0);
 430              		.loc 1 278 0
 431 027a 344D     		ldr	r5, .L36
 432 027c 2968     		ldr	r1, [r5]
 433 027e 1031     		adds	r1, r1, #16
 434 0280 0022     		movs	r2, #0
 435 0282 2000     		movs	r0, r4
 436 0284 FFF7FEFF 		bl	lv_obj_add_style
 437              	.LVL58:
 279:..\..\..\arduinoLCD\test\Pain Drain\libraries\lvgl\src\extra\themes\basic/lv_theme_basic.c ****         lv_obj_add_style(obj, &styles->scrollbar, LV_PART_SCROLLBAR);
 438              		.loc 1 279 0
 439 0288 2968     		ldr	r1, [r5]
 440 028a 3031     		adds	r1, r1, #48
 441 028c 8022     		movs	r2, #128
 442 028e 5202     		lsls	r2, r2, #9
 443 0290 2000     		movs	r0, r4
 444 0292 FFF7FEFF 		bl	lv_obj_add_style
 445              	.LVL59:
 280:..\..\..\arduinoLCD\test\Pain Drain\libraries\lvgl\src\extra\themes\basic/lv_theme_basic.c ****         lv_obj_add_style(obj, &styles->light, LV_PART_ITEMS);
 446              		.loc 1 280 0
 447 0296 2968     		ldr	r1, [r5]
 448 0298 1831     		adds	r1, r1, #24
 449 029a A022     		movs	r2, #160
 450 029c D202     		lsls	r2, r2, #11
 451 029e 2000     		movs	r0, r4
 452 02a0 FFF7FEFF 		bl	lv_obj_add_style
 453              	.LVL60:
 281:..\..\..\arduinoLCD\test\Pain Drain\libraries\lvgl\src\extra\themes\basic/lv_theme_basic.c ****         lv_obj_add_style(obj, &styles->dark, LV_PART_TICKS);
 454              		.loc 1 281 0
 455 02a4 2968     		ldr	r1, [r5]
 456 02a6 2031     		adds	r1, r1, #32
 457 02a8 C022     		movs	r2, #192
 458 02aa D202     		lsls	r2, r2, #11
 459 02ac 2000     		movs	r0, r4
 460 02ae FFF7FEFF 		bl	lv_obj_add_style
ARM GAS  C:\Users\haske\AppData\Local\Temp\ccVOiHBd.s 			page 14


 461              	.LVL61:
 282:..\..\..\arduinoLCD\test\Pain Drain\libraries\lvgl\src\extra\themes\basic/lv_theme_basic.c ****         lv_obj_add_style(obj, &styles->dark, LV_PART_CURSOR);
 462              		.loc 1 282 0
 463 02b2 2968     		ldr	r1, [r5]
 464 02b4 2031     		adds	r1, r1, #32
 465 02b6 E022     		movs	r2, #224
 466 02b8 D202     		lsls	r2, r2, #11
 467 02ba 2000     		movs	r0, r4
 468 02bc FFF7FEFF 		bl	lv_obj_add_style
 469              	.LVL62:
 470 02c0 D0E1     		b	.L1
 471              	.L18:
 283:..\..\..\arduinoLCD\test\Pain Drain\libraries\lvgl\src\extra\themes\basic/lv_theme_basic.c ****     }
 284:..\..\..\arduinoLCD\test\Pain Drain\libraries\lvgl\src\extra\themes\basic/lv_theme_basic.c **** #endif
 285:..\..\..\arduinoLCD\test\Pain Drain\libraries\lvgl\src\extra\themes\basic/lv_theme_basic.c **** 
 286:..\..\..\arduinoLCD\test\Pain Drain\libraries\lvgl\src\extra\themes\basic/lv_theme_basic.c **** #if LV_USE_ROLLER
 287:..\..\..\arduinoLCD\test\Pain Drain\libraries\lvgl\src\extra\themes\basic/lv_theme_basic.c ****     else if(lv_obj_check_type(obj, &lv_roller_class)) {
 472              		.loc 1 287 0
 473 02c2 3049     		ldr	r1, .L36+56
 474 02c4 2000     		movs	r0, r4
 475 02c6 FFF7FEFF 		bl	lv_obj_check_type
 476              	.LVL63:
 477 02ca 0028     		cmp	r0, #0
 478 02cc 0ED0     		beq	.L19
 288:..\..\..\arduinoLCD\test\Pain Drain\libraries\lvgl\src\extra\themes\basic/lv_theme_basic.c ****         lv_obj_add_style(obj, &styles->light, 0);
 479              		.loc 1 288 0
 480 02ce 1F4D     		ldr	r5, .L36
 481 02d0 2968     		ldr	r1, [r5]
 482 02d2 1831     		adds	r1, r1, #24
 483 02d4 0022     		movs	r2, #0
 484 02d6 2000     		movs	r0, r4
 485 02d8 FFF7FEFF 		bl	lv_obj_add_style
 486              	.LVL64:
 289:..\..\..\arduinoLCD\test\Pain Drain\libraries\lvgl\src\extra\themes\basic/lv_theme_basic.c ****         lv_obj_add_style(obj, &styles->dark, LV_PART_SELECTED);
 487              		.loc 1 289 0
 488 02dc 2968     		ldr	r1, [r5]
 489 02de 2031     		adds	r1, r1, #32
 490 02e0 8022     		movs	r2, #128
 491 02e2 D202     		lsls	r2, r2, #11
 492 02e4 2000     		movs	r0, r4
 493 02e6 FFF7FEFF 		bl	lv_obj_add_style
 494              	.LVL65:
 495 02ea BBE1     		b	.L1
 496              	.L19:
 290:..\..\..\arduinoLCD\test\Pain Drain\libraries\lvgl\src\extra\themes\basic/lv_theme_basic.c ****     }
 291:..\..\..\arduinoLCD\test\Pain Drain\libraries\lvgl\src\extra\themes\basic/lv_theme_basic.c **** #endif
 292:..\..\..\arduinoLCD\test\Pain Drain\libraries\lvgl\src\extra\themes\basic/lv_theme_basic.c **** 
 293:..\..\..\arduinoLCD\test\Pain Drain\libraries\lvgl\src\extra\themes\basic/lv_theme_basic.c **** #if LV_USE_DROPDOWN
 294:..\..\..\arduinoLCD\test\Pain Drain\libraries\lvgl\src\extra\themes\basic/lv_theme_basic.c ****     else if(lv_obj_check_type(obj, &lv_dropdown_class)) {
 497              		.loc 1 294 0
 498 02ec 2649     		ldr	r1, .L36+60
 499 02ee 2000     		movs	r0, r4
 500 02f0 FFF7FEFF 		bl	lv_obj_check_type
 501              	.LVL66:
 502 02f4 0028     		cmp	r0, #0
 503 02f6 07D0     		beq	.L20
 295:..\..\..\arduinoLCD\test\Pain Drain\libraries\lvgl\src\extra\themes\basic/lv_theme_basic.c ****         lv_obj_add_style(obj, &styles->white, 0);
ARM GAS  C:\Users\haske\AppData\Local\Temp\ccVOiHBd.s 			page 15


 504              		.loc 1 295 0
 505 02f8 144B     		ldr	r3, .L36
 506 02fa 1968     		ldr	r1, [r3]
 507 02fc 1031     		adds	r1, r1, #16
 508 02fe 0022     		movs	r2, #0
 509 0300 2000     		movs	r0, r4
 510 0302 FFF7FEFF 		bl	lv_obj_add_style
 511              	.LVL67:
 512 0306 ADE1     		b	.L1
 513              	.L20:
 296:..\..\..\arduinoLCD\test\Pain Drain\libraries\lvgl\src\extra\themes\basic/lv_theme_basic.c ****     }
 297:..\..\..\arduinoLCD\test\Pain Drain\libraries\lvgl\src\extra\themes\basic/lv_theme_basic.c ****     else if(lv_obj_check_type(obj, &lv_dropdownlist_class)) {
 514              		.loc 1 297 0
 515 0308 2049     		ldr	r1, .L36+64
 516 030a 2000     		movs	r0, r4
 517 030c FFF7FEFF 		bl	lv_obj_check_type
 518              	.LVL68:
 519 0310 0028     		cmp	r0, #0
 520 0312 3FD0     		beq	.L21
 298:..\..\..\arduinoLCD\test\Pain Drain\libraries\lvgl\src\extra\themes\basic/lv_theme_basic.c ****         lv_obj_add_style(obj, &styles->white, 0);
 521              		.loc 1 298 0
 522 0314 0D4D     		ldr	r5, .L36
 523 0316 2968     		ldr	r1, [r5]
 524 0318 1031     		adds	r1, r1, #16
 525 031a 0022     		movs	r2, #0
 526 031c 2000     		movs	r0, r4
 527 031e FFF7FEFF 		bl	lv_obj_add_style
 528              	.LVL69:
 299:..\..\..\arduinoLCD\test\Pain Drain\libraries\lvgl\src\extra\themes\basic/lv_theme_basic.c ****         lv_obj_add_style(obj, &styles->scrollbar, LV_PART_SCROLLBAR);
 529              		.loc 1 299 0
 530 0322 2968     		ldr	r1, [r5]
 531 0324 3031     		adds	r1, r1, #48
 532 0326 8022     		movs	r2, #128
 533 0328 5202     		lsls	r2, r2, #9
 534 032a 2000     		movs	r0, r4
 535 032c FFF7FEFF 		bl	lv_obj_add_style
 536              	.LVL70:
 300:..\..\..\arduinoLCD\test\Pain Drain\libraries\lvgl\src\extra\themes\basic/lv_theme_basic.c ****         lv_obj_add_style(obj, &styles->light, LV_PART_SELECTED);
 537              		.loc 1 300 0
 538 0330 2968     		ldr	r1, [r5]
 539 0332 1831     		adds	r1, r1, #24
 540 0334 8022     		movs	r2, #128
 541 0336 D202     		lsls	r2, r2, #11
 542 0338 2000     		movs	r0, r4
 543 033a FFF7FEFF 		bl	lv_obj_add_style
 544              	.LVL71:
 301:..\..\..\arduinoLCD\test\Pain Drain\libraries\lvgl\src\extra\themes\basic/lv_theme_basic.c ****         lv_obj_add_style(obj, &styles->dark, LV_PART_SELECTED | LV_STATE_CHECKED);
 545              		.loc 1 301 0
 546 033e 2968     		ldr	r1, [r5]
 547 0340 2031     		adds	r1, r1, #32
 548 0342 134A     		ldr	r2, .L36+68
 549 0344 2000     		movs	r0, r4
 550 0346 FFF7FEFF 		bl	lv_obj_add_style
 551              	.LVL72:
 552 034a 8BE1     		b	.L1
 553              	.L37:
 554              		.align	2
ARM GAS  C:\Users\haske\AppData\Local\Temp\ccVOiHBd.s 			page 16


 555              	.L36:
 556 034c 00000000 		.word	.LANCHOR0
 557 0350 00000000 		.word	lv_obj_class
 558 0354 00000000 		.word	lv_tabview_class
 559 0358 00000000 		.word	lv_win_class
 560 035c 00000000 		.word	lv_btn_class
 561 0360 00000000 		.word	lv_btnmatrix_class
 562 0364 00000000 		.word	lv_msgbox_class
 563 0368 00000000 		.word	lv_bar_class
 564 036c 00000000 		.word	lv_slider_class
 565 0370 00000000 		.word	lv_table_class
 566 0374 00000000 		.word	lv_checkbox_class
 567 0378 01000200 		.word	131073
 568 037c 00000000 		.word	lv_switch_class
 569 0380 00000000 		.word	lv_chart_class
 570 0384 00000000 		.word	lv_roller_class
 571 0388 00000000 		.word	lv_dropdown_class
 572 038c 00000000 		.word	lv_dropdownlist_class
 573 0390 01000400 		.word	262145
 574              	.L21:
 302:..\..\..\arduinoLCD\test\Pain Drain\libraries\lvgl\src\extra\themes\basic/lv_theme_basic.c ****     }
 303:..\..\..\arduinoLCD\test\Pain Drain\libraries\lvgl\src\extra\themes\basic/lv_theme_basic.c **** #endif
 304:..\..\..\arduinoLCD\test\Pain Drain\libraries\lvgl\src\extra\themes\basic/lv_theme_basic.c **** 
 305:..\..\..\arduinoLCD\test\Pain Drain\libraries\lvgl\src\extra\themes\basic/lv_theme_basic.c **** #if LV_USE_ARC
 306:..\..\..\arduinoLCD\test\Pain Drain\libraries\lvgl\src\extra\themes\basic/lv_theme_basic.c ****     else if(lv_obj_check_type(obj, &lv_arc_class)) {
 575              		.loc 1 306 0
 576 0394 B449     		ldr	r1, .L38
 577 0396 2000     		movs	r0, r4
 578 0398 FFF7FEFF 		bl	lv_obj_check_type
 579              	.LVL73:
 580 039c 0028     		cmp	r0, #0
 581 039e 2FD0     		beq	.L22
 307:..\..\..\arduinoLCD\test\Pain Drain\libraries\lvgl\src\extra\themes\basic/lv_theme_basic.c ****         lv_obj_add_style(obj, &styles->light, 0);
 582              		.loc 1 307 0
 583 03a0 B24D     		ldr	r5, .L38+4
 584 03a2 2968     		ldr	r1, [r5]
 585 03a4 1831     		adds	r1, r1, #24
 586 03a6 0022     		movs	r2, #0
 587 03a8 2000     		movs	r0, r4
 588 03aa FFF7FEFF 		bl	lv_obj_add_style
 589              	.LVL74:
 308:..\..\..\arduinoLCD\test\Pain Drain\libraries\lvgl\src\extra\themes\basic/lv_theme_basic.c ****         lv_obj_add_style(obj, &styles->transp, 0);
 590              		.loc 1 308 0
 591 03ae 2968     		ldr	r1, [r5]
 592 03b0 0831     		adds	r1, r1, #8
 593 03b2 0022     		movs	r2, #0
 594 03b4 2000     		movs	r0, r4
 595 03b6 FFF7FEFF 		bl	lv_obj_add_style
 596              	.LVL75:
 309:..\..\..\arduinoLCD\test\Pain Drain\libraries\lvgl\src\extra\themes\basic/lv_theme_basic.c ****         lv_obj_add_style(obj, &styles->arc_line, 0);
 597              		.loc 1 309 0
 598 03ba 2968     		ldr	r1, [r5]
 599 03bc 3831     		adds	r1, r1, #56
 600 03be 0022     		movs	r2, #0
 601 03c0 2000     		movs	r0, r4
 602 03c2 FFF7FEFF 		bl	lv_obj_add_style
 603              	.LVL76:
ARM GAS  C:\Users\haske\AppData\Local\Temp\ccVOiHBd.s 			page 17


 310:..\..\..\arduinoLCD\test\Pain Drain\libraries\lvgl\src\extra\themes\basic/lv_theme_basic.c ****         lv_obj_add_style(obj, &styles->dark, LV_PART_INDICATOR);
 604              		.loc 1 310 0
 605 03c6 8026     		movs	r6, #128
 606 03c8 B602     		lsls	r6, r6, #10
 607 03ca 2968     		ldr	r1, [r5]
 608 03cc 2031     		adds	r1, r1, #32
 609 03ce 3200     		movs	r2, r6
 610 03d0 2000     		movs	r0, r4
 611 03d2 FFF7FEFF 		bl	lv_obj_add_style
 612              	.LVL77:
 311:..\..\..\arduinoLCD\test\Pain Drain\libraries\lvgl\src\extra\themes\basic/lv_theme_basic.c ****         lv_obj_add_style(obj, &styles->arc_line, LV_PART_INDICATOR);
 613              		.loc 1 311 0
 614 03d6 2968     		ldr	r1, [r5]
 615 03d8 3831     		adds	r1, r1, #56
 616 03da 3200     		movs	r2, r6
 617 03dc 2000     		movs	r0, r4
 618 03de FFF7FEFF 		bl	lv_obj_add_style
 619              	.LVL78:
 312:..\..\..\arduinoLCD\test\Pain Drain\libraries\lvgl\src\extra\themes\basic/lv_theme_basic.c ****         lv_obj_add_style(obj, &styles->dim, LV_PART_KNOB);
 620              		.loc 1 312 0
 621 03e2 C026     		movs	r6, #192
 622 03e4 B602     		lsls	r6, r6, #10
 623 03e6 2968     		ldr	r1, [r5]
 624 03e8 2831     		adds	r1, r1, #40
 625 03ea 3200     		movs	r2, r6
 626 03ec 2000     		movs	r0, r4
 627 03ee FFF7FEFF 		bl	lv_obj_add_style
 628              	.LVL79:
 313:..\..\..\arduinoLCD\test\Pain Drain\libraries\lvgl\src\extra\themes\basic/lv_theme_basic.c ****         lv_obj_add_style(obj, &styles->arc_knob, LV_PART_KNOB);
 629              		.loc 1 313 0
 630 03f2 2968     		ldr	r1, [r5]
 631 03f4 4031     		adds	r1, r1, #64
 632 03f6 3200     		movs	r2, r6
 633 03f8 2000     		movs	r0, r4
 634 03fa FFF7FEFF 		bl	lv_obj_add_style
 635              	.LVL80:
 636 03fe 31E1     		b	.L1
 637              	.L22:
 314:..\..\..\arduinoLCD\test\Pain Drain\libraries\lvgl\src\extra\themes\basic/lv_theme_basic.c ****     }
 315:..\..\..\arduinoLCD\test\Pain Drain\libraries\lvgl\src\extra\themes\basic/lv_theme_basic.c **** #endif
 316:..\..\..\arduinoLCD\test\Pain Drain\libraries\lvgl\src\extra\themes\basic/lv_theme_basic.c **** 
 317:..\..\..\arduinoLCD\test\Pain Drain\libraries\lvgl\src\extra\themes\basic/lv_theme_basic.c **** #if LV_USE_SPINNER
 318:..\..\..\arduinoLCD\test\Pain Drain\libraries\lvgl\src\extra\themes\basic/lv_theme_basic.c ****     else if(lv_obj_check_type(obj, &lv_spinner_class)) {
 638              		.loc 1 318 0
 639 0400 9B49     		ldr	r1, .L38+8
 640 0402 2000     		movs	r0, r4
 641 0404 FFF7FEFF 		bl	lv_obj_check_type
 642              	.LVL81:
 643 0408 0028     		cmp	r0, #0
 644 040a 21D0     		beq	.L23
 319:..\..\..\arduinoLCD\test\Pain Drain\libraries\lvgl\src\extra\themes\basic/lv_theme_basic.c ****         lv_obj_add_style(obj, &styles->light, 0);
 645              		.loc 1 319 0
 646 040c 974D     		ldr	r5, .L38+4
 647 040e 2968     		ldr	r1, [r5]
 648 0410 1831     		adds	r1, r1, #24
 649 0412 0022     		movs	r2, #0
 650 0414 2000     		movs	r0, r4
ARM GAS  C:\Users\haske\AppData\Local\Temp\ccVOiHBd.s 			page 18


 651 0416 FFF7FEFF 		bl	lv_obj_add_style
 652              	.LVL82:
 320:..\..\..\arduinoLCD\test\Pain Drain\libraries\lvgl\src\extra\themes\basic/lv_theme_basic.c ****         lv_obj_add_style(obj, &styles->transp, 0);
 653              		.loc 1 320 0
 654 041a 2968     		ldr	r1, [r5]
 655 041c 0831     		adds	r1, r1, #8
 656 041e 0022     		movs	r2, #0
 657 0420 2000     		movs	r0, r4
 658 0422 FFF7FEFF 		bl	lv_obj_add_style
 659              	.LVL83:
 321:..\..\..\arduinoLCD\test\Pain Drain\libraries\lvgl\src\extra\themes\basic/lv_theme_basic.c ****         lv_obj_add_style(obj, &styles->arc_line, 0);
 660              		.loc 1 321 0
 661 0426 2968     		ldr	r1, [r5]
 662 0428 3831     		adds	r1, r1, #56
 663 042a 0022     		movs	r2, #0
 664 042c 2000     		movs	r0, r4
 665 042e FFF7FEFF 		bl	lv_obj_add_style
 666              	.LVL84:
 322:..\..\..\arduinoLCD\test\Pain Drain\libraries\lvgl\src\extra\themes\basic/lv_theme_basic.c ****         lv_obj_add_style(obj, &styles->dark, LV_PART_INDICATOR);
 667              		.loc 1 322 0
 668 0432 8026     		movs	r6, #128
 669 0434 B602     		lsls	r6, r6, #10
 670 0436 2968     		ldr	r1, [r5]
 671 0438 2031     		adds	r1, r1, #32
 672 043a 3200     		movs	r2, r6
 673 043c 2000     		movs	r0, r4
 674 043e FFF7FEFF 		bl	lv_obj_add_style
 675              	.LVL85:
 323:..\..\..\arduinoLCD\test\Pain Drain\libraries\lvgl\src\extra\themes\basic/lv_theme_basic.c ****         lv_obj_add_style(obj, &styles->arc_line, LV_PART_INDICATOR);
 676              		.loc 1 323 0
 677 0442 2968     		ldr	r1, [r5]
 678 0444 3831     		adds	r1, r1, #56
 679 0446 3200     		movs	r2, r6
 680 0448 2000     		movs	r0, r4
 681 044a FFF7FEFF 		bl	lv_obj_add_style
 682              	.LVL86:
 683 044e 09E1     		b	.L1
 684              	.L23:
 324:..\..\..\arduinoLCD\test\Pain Drain\libraries\lvgl\src\extra\themes\basic/lv_theme_basic.c ****     }
 325:..\..\..\arduinoLCD\test\Pain Drain\libraries\lvgl\src\extra\themes\basic/lv_theme_basic.c **** #endif
 326:..\..\..\arduinoLCD\test\Pain Drain\libraries\lvgl\src\extra\themes\basic/lv_theme_basic.c **** 
 327:..\..\..\arduinoLCD\test\Pain Drain\libraries\lvgl\src\extra\themes\basic/lv_theme_basic.c **** #if LV_USE_COLORWHEEL
 328:..\..\..\arduinoLCD\test\Pain Drain\libraries\lvgl\src\extra\themes\basic/lv_theme_basic.c ****     else if(lv_obj_check_type(obj, &lv_colorwheel_class)) {
 685              		.loc 1 328 0
 686 0450 8849     		ldr	r1, .L38+12
 687 0452 2000     		movs	r0, r4
 688 0454 FFF7FEFF 		bl	lv_obj_check_type
 689              	.LVL87:
 690 0458 0028     		cmp	r0, #0
 691 045a 21D0     		beq	.L24
 329:..\..\..\arduinoLCD\test\Pain Drain\libraries\lvgl\src\extra\themes\basic/lv_theme_basic.c ****         lv_obj_add_style(obj, &styles->light, 0);
 692              		.loc 1 329 0
 693 045c 834D     		ldr	r5, .L38+4
 694 045e 2968     		ldr	r1, [r5]
 695 0460 1831     		adds	r1, r1, #24
 696 0462 0022     		movs	r2, #0
 697 0464 2000     		movs	r0, r4
ARM GAS  C:\Users\haske\AppData\Local\Temp\ccVOiHBd.s 			page 19


 698 0466 FFF7FEFF 		bl	lv_obj_add_style
 699              	.LVL88:
 330:..\..\..\arduinoLCD\test\Pain Drain\libraries\lvgl\src\extra\themes\basic/lv_theme_basic.c ****         lv_obj_add_style(obj, &styles->transp, 0);
 700              		.loc 1 330 0
 701 046a 2968     		ldr	r1, [r5]
 702 046c 0831     		adds	r1, r1, #8
 703 046e 0022     		movs	r2, #0
 704 0470 2000     		movs	r0, r4
 705 0472 FFF7FEFF 		bl	lv_obj_add_style
 706              	.LVL89:
 331:..\..\..\arduinoLCD\test\Pain Drain\libraries\lvgl\src\extra\themes\basic/lv_theme_basic.c ****         lv_obj_add_style(obj, &styles->arc_line, 0);
 707              		.loc 1 331 0
 708 0476 2968     		ldr	r1, [r5]
 709 0478 3831     		adds	r1, r1, #56
 710 047a 0022     		movs	r2, #0
 711 047c 2000     		movs	r0, r4
 712 047e FFF7FEFF 		bl	lv_obj_add_style
 713              	.LVL90:
 332:..\..\..\arduinoLCD\test\Pain Drain\libraries\lvgl\src\extra\themes\basic/lv_theme_basic.c ****         lv_obj_add_style(obj, &styles->dim, LV_PART_KNOB);
 714              		.loc 1 332 0
 715 0482 C026     		movs	r6, #192
 716 0484 B602     		lsls	r6, r6, #10
 717 0486 2968     		ldr	r1, [r5]
 718 0488 2831     		adds	r1, r1, #40
 719 048a 3200     		movs	r2, r6
 720 048c 2000     		movs	r0, r4
 721 048e FFF7FEFF 		bl	lv_obj_add_style
 722              	.LVL91:
 333:..\..\..\arduinoLCD\test\Pain Drain\libraries\lvgl\src\extra\themes\basic/lv_theme_basic.c ****         lv_obj_add_style(obj, &styles->arc_knob, LV_PART_KNOB);
 723              		.loc 1 333 0
 724 0492 2968     		ldr	r1, [r5]
 725 0494 4031     		adds	r1, r1, #64
 726 0496 3200     		movs	r2, r6
 727 0498 2000     		movs	r0, r4
 728 049a FFF7FEFF 		bl	lv_obj_add_style
 729              	.LVL92:
 730 049e E1E0     		b	.L1
 731              	.L24:
 334:..\..\..\arduinoLCD\test\Pain Drain\libraries\lvgl\src\extra\themes\basic/lv_theme_basic.c ****     }
 335:..\..\..\arduinoLCD\test\Pain Drain\libraries\lvgl\src\extra\themes\basic/lv_theme_basic.c **** #endif
 336:..\..\..\arduinoLCD\test\Pain Drain\libraries\lvgl\src\extra\themes\basic/lv_theme_basic.c **** 
 337:..\..\..\arduinoLCD\test\Pain Drain\libraries\lvgl\src\extra\themes\basic/lv_theme_basic.c **** #if LV_USE_METER
 338:..\..\..\arduinoLCD\test\Pain Drain\libraries\lvgl\src\extra\themes\basic/lv_theme_basic.c ****     else if(lv_obj_check_type(obj, &lv_meter_class)) {
 732              		.loc 1 338 0
 733 04a0 7549     		ldr	r1, .L38+16
 734 04a2 2000     		movs	r0, r4
 735 04a4 FFF7FEFF 		bl	lv_obj_check_type
 736              	.LVL93:
 737 04a8 0028     		cmp	r0, #0
 738 04aa 07D0     		beq	.L25
 339:..\..\..\arduinoLCD\test\Pain Drain\libraries\lvgl\src\extra\themes\basic/lv_theme_basic.c ****         lv_obj_add_style(obj, &styles->light, 0);
 739              		.loc 1 339 0
 740 04ac 6F4B     		ldr	r3, .L38+4
 741 04ae 1968     		ldr	r1, [r3]
 742 04b0 1831     		adds	r1, r1, #24
 743 04b2 0022     		movs	r2, #0
 744 04b4 2000     		movs	r0, r4
ARM GAS  C:\Users\haske\AppData\Local\Temp\ccVOiHBd.s 			page 20


 745 04b6 FFF7FEFF 		bl	lv_obj_add_style
 746              	.LVL94:
 747 04ba D3E0     		b	.L1
 748              	.L25:
 340:..\..\..\arduinoLCD\test\Pain Drain\libraries\lvgl\src\extra\themes\basic/lv_theme_basic.c ****     }
 341:..\..\..\arduinoLCD\test\Pain Drain\libraries\lvgl\src\extra\themes\basic/lv_theme_basic.c **** #endif
 342:..\..\..\arduinoLCD\test\Pain Drain\libraries\lvgl\src\extra\themes\basic/lv_theme_basic.c **** 
 343:..\..\..\arduinoLCD\test\Pain Drain\libraries\lvgl\src\extra\themes\basic/lv_theme_basic.c **** #if LV_USE_TEXTAREA
 344:..\..\..\arduinoLCD\test\Pain Drain\libraries\lvgl\src\extra\themes\basic/lv_theme_basic.c ****     else if(lv_obj_check_type(obj, &lv_textarea_class)) {
 749              		.loc 1 344 0
 750 04bc 6F49     		ldr	r1, .L38+20
 751 04be 2000     		movs	r0, r4
 752 04c0 FFF7FEFF 		bl	lv_obj_check_type
 753              	.LVL95:
 754 04c4 0028     		cmp	r0, #0
 755 04c6 14D0     		beq	.L26
 345:..\..\..\arduinoLCD\test\Pain Drain\libraries\lvgl\src\extra\themes\basic/lv_theme_basic.c ****         lv_obj_add_style(obj, &styles->white, 0);
 756              		.loc 1 345 0
 757 04c8 684D     		ldr	r5, .L38+4
 758 04ca 2968     		ldr	r1, [r5]
 759 04cc 1031     		adds	r1, r1, #16
 760 04ce 0022     		movs	r2, #0
 761 04d0 2000     		movs	r0, r4
 762 04d2 FFF7FEFF 		bl	lv_obj_add_style
 763              	.LVL96:
 346:..\..\..\arduinoLCD\test\Pain Drain\libraries\lvgl\src\extra\themes\basic/lv_theme_basic.c ****         lv_obj_add_style(obj, &styles->scrollbar, LV_PART_SCROLLBAR);
 764              		.loc 1 346 0
 765 04d6 2968     		ldr	r1, [r5]
 766 04d8 3031     		adds	r1, r1, #48
 767 04da 8022     		movs	r2, #128
 768 04dc 5202     		lsls	r2, r2, #9
 769 04de 2000     		movs	r0, r4
 770 04e0 FFF7FEFF 		bl	lv_obj_add_style
 771              	.LVL97:
 347:..\..\..\arduinoLCD\test\Pain Drain\libraries\lvgl\src\extra\themes\basic/lv_theme_basic.c ****         lv_obj_add_style(obj, &styles->ta_cursor, LV_PART_CURSOR | LV_STATE_FOCUSED);
 772              		.loc 1 347 0
 773 04e4 2968     		ldr	r1, [r5]
 774 04e6 4831     		adds	r1, r1, #72
 775 04e8 654A     		ldr	r2, .L38+24
 776 04ea 2000     		movs	r0, r4
 777 04ec FFF7FEFF 		bl	lv_obj_add_style
 778              	.LVL98:
 779 04f0 B8E0     		b	.L1
 780              	.L26:
 348:..\..\..\arduinoLCD\test\Pain Drain\libraries\lvgl\src\extra\themes\basic/lv_theme_basic.c ****     }
 349:..\..\..\arduinoLCD\test\Pain Drain\libraries\lvgl\src\extra\themes\basic/lv_theme_basic.c **** #endif
 350:..\..\..\arduinoLCD\test\Pain Drain\libraries\lvgl\src\extra\themes\basic/lv_theme_basic.c **** 
 351:..\..\..\arduinoLCD\test\Pain Drain\libraries\lvgl\src\extra\themes\basic/lv_theme_basic.c **** #if LV_USE_CALENDAR
 352:..\..\..\arduinoLCD\test\Pain Drain\libraries\lvgl\src\extra\themes\basic/lv_theme_basic.c ****     else if(lv_obj_check_type(obj, &lv_calendar_class)) {
 781              		.loc 1 352 0
 782 04f2 6449     		ldr	r1, .L38+28
 783 04f4 2000     		movs	r0, r4
 784 04f6 FFF7FEFF 		bl	lv_obj_check_type
 785              	.LVL99:
 786 04fa 0028     		cmp	r0, #0
 787 04fc 07D0     		beq	.L27
 353:..\..\..\arduinoLCD\test\Pain Drain\libraries\lvgl\src\extra\themes\basic/lv_theme_basic.c ****         lv_obj_add_style(obj, &styles->light, 0);
ARM GAS  C:\Users\haske\AppData\Local\Temp\ccVOiHBd.s 			page 21


 788              		.loc 1 353 0
 789 04fe 5B4B     		ldr	r3, .L38+4
 790 0500 1968     		ldr	r1, [r3]
 791 0502 1831     		adds	r1, r1, #24
 792 0504 0022     		movs	r2, #0
 793 0506 2000     		movs	r0, r4
 794 0508 FFF7FEFF 		bl	lv_obj_add_style
 795              	.LVL100:
 796 050c AAE0     		b	.L1
 797              	.L27:
 354:..\..\..\arduinoLCD\test\Pain Drain\libraries\lvgl\src\extra\themes\basic/lv_theme_basic.c ****     }
 355:..\..\..\arduinoLCD\test\Pain Drain\libraries\lvgl\src\extra\themes\basic/lv_theme_basic.c **** #endif
 356:..\..\..\arduinoLCD\test\Pain Drain\libraries\lvgl\src\extra\themes\basic/lv_theme_basic.c **** 
 357:..\..\..\arduinoLCD\test\Pain Drain\libraries\lvgl\src\extra\themes\basic/lv_theme_basic.c **** #if LV_USE_KEYBOARD
 358:..\..\..\arduinoLCD\test\Pain Drain\libraries\lvgl\src\extra\themes\basic/lv_theme_basic.c ****     else if(lv_obj_check_type(obj, &lv_keyboard_class)) {
 798              		.loc 1 358 0
 799 050e 5E49     		ldr	r1, .L38+32
 800 0510 2000     		movs	r0, r4
 801 0512 FFF7FEFF 		bl	lv_obj_check_type
 802              	.LVL101:
 803 0516 0028     		cmp	r0, #0
 804 0518 13D0     		beq	.L28
 359:..\..\..\arduinoLCD\test\Pain Drain\libraries\lvgl\src\extra\themes\basic/lv_theme_basic.c ****         lv_obj_add_style(obj, &styles->scr, 0);
 805              		.loc 1 359 0
 806 051a 544D     		ldr	r5, .L38+4
 807 051c 0022     		movs	r2, #0
 808 051e 2968     		ldr	r1, [r5]
 809 0520 2000     		movs	r0, r4
 810 0522 FFF7FEFF 		bl	lv_obj_add_style
 811              	.LVL102:
 360:..\..\..\arduinoLCD\test\Pain Drain\libraries\lvgl\src\extra\themes\basic/lv_theme_basic.c ****         lv_obj_add_style(obj, &styles->white, LV_PART_ITEMS);
 812              		.loc 1 360 0
 813 0526 2968     		ldr	r1, [r5]
 814 0528 1031     		adds	r1, r1, #16
 815 052a A022     		movs	r2, #160
 816 052c D202     		lsls	r2, r2, #11
 817 052e 2000     		movs	r0, r4
 818 0530 FFF7FEFF 		bl	lv_obj_add_style
 819              	.LVL103:
 361:..\..\..\arduinoLCD\test\Pain Drain\libraries\lvgl\src\extra\themes\basic/lv_theme_basic.c ****         lv_obj_add_style(obj, &styles->light, LV_PART_ITEMS | LV_STATE_CHECKED);
 820              		.loc 1 361 0
 821 0534 2968     		ldr	r1, [r5]
 822 0536 1831     		adds	r1, r1, #24
 823 0538 544A     		ldr	r2, .L38+36
 824 053a 2000     		movs	r0, r4
 825 053c FFF7FEFF 		bl	lv_obj_add_style
 826              	.LVL104:
 827 0540 90E0     		b	.L1
 828              	.L28:
 362:..\..\..\arduinoLCD\test\Pain Drain\libraries\lvgl\src\extra\themes\basic/lv_theme_basic.c ****     }
 363:..\..\..\arduinoLCD\test\Pain Drain\libraries\lvgl\src\extra\themes\basic/lv_theme_basic.c **** #endif
 364:..\..\..\arduinoLCD\test\Pain Drain\libraries\lvgl\src\extra\themes\basic/lv_theme_basic.c **** #if LV_USE_LIST
 365:..\..\..\arduinoLCD\test\Pain Drain\libraries\lvgl\src\extra\themes\basic/lv_theme_basic.c ****     else if(lv_obj_check_type(obj, &lv_list_class)) {
 829              		.loc 1 365 0
 830 0542 5349     		ldr	r1, .L38+40
 831 0544 2000     		movs	r0, r4
 832 0546 FFF7FEFF 		bl	lv_obj_check_type
ARM GAS  C:\Users\haske\AppData\Local\Temp\ccVOiHBd.s 			page 22


 833              	.LVL105:
 834 054a 0028     		cmp	r0, #0
 835 054c 0ED0     		beq	.L29
 366:..\..\..\arduinoLCD\test\Pain Drain\libraries\lvgl\src\extra\themes\basic/lv_theme_basic.c ****         lv_obj_add_style(obj, &styles->light, 0);
 836              		.loc 1 366 0
 837 054e 474D     		ldr	r5, .L38+4
 838 0550 2968     		ldr	r1, [r5]
 839 0552 1831     		adds	r1, r1, #24
 840 0554 0022     		movs	r2, #0
 841 0556 2000     		movs	r0, r4
 842 0558 FFF7FEFF 		bl	lv_obj_add_style
 843              	.LVL106:
 367:..\..\..\arduinoLCD\test\Pain Drain\libraries\lvgl\src\extra\themes\basic/lv_theme_basic.c ****         lv_obj_add_style(obj, &styles->scrollbar, LV_PART_SCROLLBAR);
 844              		.loc 1 367 0
 845 055c 2968     		ldr	r1, [r5]
 846 055e 3031     		adds	r1, r1, #48
 847 0560 8022     		movs	r2, #128
 848 0562 5202     		lsls	r2, r2, #9
 849 0564 2000     		movs	r0, r4
 850 0566 FFF7FEFF 		bl	lv_obj_add_style
 851              	.LVL107:
 368:..\..\..\arduinoLCD\test\Pain Drain\libraries\lvgl\src\extra\themes\basic/lv_theme_basic.c ****         return;
 852              		.loc 1 368 0
 853 056a 7BE0     		b	.L1
 854              	.L29:
 369:..\..\..\arduinoLCD\test\Pain Drain\libraries\lvgl\src\extra\themes\basic/lv_theme_basic.c ****     }
 370:..\..\..\arduinoLCD\test\Pain Drain\libraries\lvgl\src\extra\themes\basic/lv_theme_basic.c ****     else if(lv_obj_check_type(obj, &lv_list_text_class)) {
 855              		.loc 1 370 0
 856 056c 4949     		ldr	r1, .L38+44
 857 056e 2000     		movs	r0, r4
 858 0570 FFF7FEFF 		bl	lv_obj_check_type
 859              	.LVL108:
 860 0574 0028     		cmp	r0, #0
 861 0576 75D1     		bne	.L1
 371:..\..\..\arduinoLCD\test\Pain Drain\libraries\lvgl\src\extra\themes\basic/lv_theme_basic.c **** 
 372:..\..\..\arduinoLCD\test\Pain Drain\libraries\lvgl\src\extra\themes\basic/lv_theme_basic.c ****     }
 373:..\..\..\arduinoLCD\test\Pain Drain\libraries\lvgl\src\extra\themes\basic/lv_theme_basic.c ****     else if(lv_obj_check_type(obj, &lv_list_btn_class)) {
 862              		.loc 1 373 0
 863 0578 4749     		ldr	r1, .L38+48
 864 057a 2000     		movs	r0, r4
 865 057c FFF7FEFF 		bl	lv_obj_check_type
 866              	.LVL109:
 867 0580 0028     		cmp	r0, #0
 868 0582 07D0     		beq	.L30
 374:..\..\..\arduinoLCD\test\Pain Drain\libraries\lvgl\src\extra\themes\basic/lv_theme_basic.c ****         lv_obj_add_style(obj, &styles->dark, 0);
 869              		.loc 1 374 0
 870 0584 394B     		ldr	r3, .L38+4
 871 0586 1968     		ldr	r1, [r3]
 872 0588 2031     		adds	r1, r1, #32
 873 058a 0022     		movs	r2, #0
 874 058c 2000     		movs	r0, r4
 875 058e FFF7FEFF 		bl	lv_obj_add_style
 876              	.LVL110:
 877 0592 67E0     		b	.L1
 878              	.L30:
 375:..\..\..\arduinoLCD\test\Pain Drain\libraries\lvgl\src\extra\themes\basic/lv_theme_basic.c **** 
 376:..\..\..\arduinoLCD\test\Pain Drain\libraries\lvgl\src\extra\themes\basic/lv_theme_basic.c ****     }
ARM GAS  C:\Users\haske\AppData\Local\Temp\ccVOiHBd.s 			page 23


 377:..\..\..\arduinoLCD\test\Pain Drain\libraries\lvgl\src\extra\themes\basic/lv_theme_basic.c **** #endif
 378:..\..\..\arduinoLCD\test\Pain Drain\libraries\lvgl\src\extra\themes\basic/lv_theme_basic.c **** #if LV_USE_MSGBOX
 379:..\..\..\arduinoLCD\test\Pain Drain\libraries\lvgl\src\extra\themes\basic/lv_theme_basic.c ****     else if(lv_obj_check_type(obj, &lv_msgbox_class)) {
 879              		.loc 1 379 0
 880 0594 4149     		ldr	r1, .L38+52
 881 0596 2000     		movs	r0, r4
 882 0598 FFF7FEFF 		bl	lv_obj_check_type
 883              	.LVL111:
 884 059c 0028     		cmp	r0, #0
 885 059e 07D0     		beq	.L31
 380:..\..\..\arduinoLCD\test\Pain Drain\libraries\lvgl\src\extra\themes\basic/lv_theme_basic.c ****         lv_obj_add_style(obj, &styles->light, 0);
 886              		.loc 1 380 0
 887 05a0 324B     		ldr	r3, .L38+4
 888 05a2 1968     		ldr	r1, [r3]
 889 05a4 1831     		adds	r1, r1, #24
 890 05a6 0022     		movs	r2, #0
 891 05a8 2000     		movs	r0, r4
 892 05aa FFF7FEFF 		bl	lv_obj_add_style
 893              	.LVL112:
 381:..\..\..\arduinoLCD\test\Pain Drain\libraries\lvgl\src\extra\themes\basic/lv_theme_basic.c ****         return;
 894              		.loc 1 381 0
 895 05ae 59E0     		b	.L1
 896              	.L31:
 382:..\..\..\arduinoLCD\test\Pain Drain\libraries\lvgl\src\extra\themes\basic/lv_theme_basic.c ****     }
 383:..\..\..\arduinoLCD\test\Pain Drain\libraries\lvgl\src\extra\themes\basic/lv_theme_basic.c **** #endif
 384:..\..\..\arduinoLCD\test\Pain Drain\libraries\lvgl\src\extra\themes\basic/lv_theme_basic.c **** #if LV_USE_SPINBOX
 385:..\..\..\arduinoLCD\test\Pain Drain\libraries\lvgl\src\extra\themes\basic/lv_theme_basic.c ****     else if(lv_obj_check_type(obj, &lv_spinbox_class)) {
 897              		.loc 1 385 0
 898 05b0 3B49     		ldr	r1, .L38+56
 899 05b2 2000     		movs	r0, r4
 900 05b4 FFF7FEFF 		bl	lv_obj_check_type
 901              	.LVL113:
 902 05b8 0028     		cmp	r0, #0
 903 05ba 0ED0     		beq	.L32
 386:..\..\..\arduinoLCD\test\Pain Drain\libraries\lvgl\src\extra\themes\basic/lv_theme_basic.c ****         lv_obj_add_style(obj, &styles->light, 0);
 904              		.loc 1 386 0
 905 05bc 2B4D     		ldr	r5, .L38+4
 906 05be 2968     		ldr	r1, [r5]
 907 05c0 1831     		adds	r1, r1, #24
 908 05c2 0022     		movs	r2, #0
 909 05c4 2000     		movs	r0, r4
 910 05c6 FFF7FEFF 		bl	lv_obj_add_style
 911              	.LVL114:
 387:..\..\..\arduinoLCD\test\Pain Drain\libraries\lvgl\src\extra\themes\basic/lv_theme_basic.c ****         lv_obj_add_style(obj, &styles->dark, LV_PART_CURSOR);
 912              		.loc 1 387 0
 913 05ca 2968     		ldr	r1, [r5]
 914 05cc 2031     		adds	r1, r1, #32
 915 05ce E022     		movs	r2, #224
 916 05d0 D202     		lsls	r2, r2, #11
 917 05d2 2000     		movs	r0, r4
 918 05d4 FFF7FEFF 		bl	lv_obj_add_style
 919              	.LVL115:
 920 05d8 44E0     		b	.L1
 921              	.L32:
 388:..\..\..\arduinoLCD\test\Pain Drain\libraries\lvgl\src\extra\themes\basic/lv_theme_basic.c ****     }
 389:..\..\..\arduinoLCD\test\Pain Drain\libraries\lvgl\src\extra\themes\basic/lv_theme_basic.c **** #endif
 390:..\..\..\arduinoLCD\test\Pain Drain\libraries\lvgl\src\extra\themes\basic/lv_theme_basic.c **** #if LV_USE_TILEVIEW
ARM GAS  C:\Users\haske\AppData\Local\Temp\ccVOiHBd.s 			page 24


 391:..\..\..\arduinoLCD\test\Pain Drain\libraries\lvgl\src\extra\themes\basic/lv_theme_basic.c ****     else if(lv_obj_check_type(obj, &lv_tileview_class)) {
 922              		.loc 1 391 0
 923 05da 3249     		ldr	r1, .L38+60
 924 05dc 2000     		movs	r0, r4
 925 05de FFF7FEFF 		bl	lv_obj_check_type
 926              	.LVL116:
 927 05e2 0028     		cmp	r0, #0
 928 05e4 0DD0     		beq	.L33
 392:..\..\..\arduinoLCD\test\Pain Drain\libraries\lvgl\src\extra\themes\basic/lv_theme_basic.c ****         lv_obj_add_style(obj, &styles->scr, 0);
 929              		.loc 1 392 0
 930 05e6 214D     		ldr	r5, .L38+4
 931 05e8 0022     		movs	r2, #0
 932 05ea 2968     		ldr	r1, [r5]
 933 05ec 2000     		movs	r0, r4
 934 05ee FFF7FEFF 		bl	lv_obj_add_style
 935              	.LVL117:
 393:..\..\..\arduinoLCD\test\Pain Drain\libraries\lvgl\src\extra\themes\basic/lv_theme_basic.c ****         lv_obj_add_style(obj, &styles->scrollbar, LV_PART_SCROLLBAR);
 936              		.loc 1 393 0
 937 05f2 2968     		ldr	r1, [r5]
 938 05f4 3031     		adds	r1, r1, #48
 939 05f6 8022     		movs	r2, #128
 940 05f8 5202     		lsls	r2, r2, #9
 941 05fa 2000     		movs	r0, r4
 942 05fc FFF7FEFF 		bl	lv_obj_add_style
 943              	.LVL118:
 944 0600 30E0     		b	.L1
 945              	.L33:
 394:..\..\..\arduinoLCD\test\Pain Drain\libraries\lvgl\src\extra\themes\basic/lv_theme_basic.c ****     }
 395:..\..\..\arduinoLCD\test\Pain Drain\libraries\lvgl\src\extra\themes\basic/lv_theme_basic.c ****     else if(lv_obj_check_type(obj, &lv_tileview_tile_class)) {
 946              		.loc 1 395 0
 947 0602 2949     		ldr	r1, .L38+64
 948 0604 2000     		movs	r0, r4
 949 0606 FFF7FEFF 		bl	lv_obj_check_type
 950              	.LVL119:
 951 060a 0028     		cmp	r0, #0
 952 060c 08D0     		beq	.L34
 396:..\..\..\arduinoLCD\test\Pain Drain\libraries\lvgl\src\extra\themes\basic/lv_theme_basic.c ****         lv_obj_add_style(obj, &styles->scrollbar, LV_PART_SCROLLBAR);
 953              		.loc 1 396 0
 954 060e 174B     		ldr	r3, .L38+4
 955 0610 1968     		ldr	r1, [r3]
 956 0612 3031     		adds	r1, r1, #48
 957 0614 8022     		movs	r2, #128
 958 0616 5202     		lsls	r2, r2, #9
 959 0618 2000     		movs	r0, r4
 960 061a FFF7FEFF 		bl	lv_obj_add_style
 961              	.LVL120:
 962 061e 21E0     		b	.L1
 963              	.L34:
 397:..\..\..\arduinoLCD\test\Pain Drain\libraries\lvgl\src\extra\themes\basic/lv_theme_basic.c ****     }
 398:..\..\..\arduinoLCD\test\Pain Drain\libraries\lvgl\src\extra\themes\basic/lv_theme_basic.c **** #endif
 399:..\..\..\arduinoLCD\test\Pain Drain\libraries\lvgl\src\extra\themes\basic/lv_theme_basic.c **** 
 400:..\..\..\arduinoLCD\test\Pain Drain\libraries\lvgl\src\extra\themes\basic/lv_theme_basic.c **** #if LV_USE_COLORWHEEL
 401:..\..\..\arduinoLCD\test\Pain Drain\libraries\lvgl\src\extra\themes\basic/lv_theme_basic.c ****     else if(lv_obj_check_type(obj, &lv_colorwheel_class)) {
 964              		.loc 1 401 0
 965 0620 1449     		ldr	r1, .L38+12
 966 0622 2000     		movs	r0, r4
 967 0624 FFF7FEFF 		bl	lv_obj_check_type
ARM GAS  C:\Users\haske\AppData\Local\Temp\ccVOiHBd.s 			page 25


 968              	.LVL121:
 969 0628 0028     		cmp	r0, #0
 970 062a 0ED0     		beq	.L35
 402:..\..\..\arduinoLCD\test\Pain Drain\libraries\lvgl\src\extra\themes\basic/lv_theme_basic.c ****         lv_obj_add_style(obj, &styles->light, 0);
 971              		.loc 1 402 0
 972 062c 0F4D     		ldr	r5, .L38+4
 973 062e 2968     		ldr	r1, [r5]
 974 0630 1831     		adds	r1, r1, #24
 975 0632 0022     		movs	r2, #0
 976 0634 2000     		movs	r0, r4
 977 0636 FFF7FEFF 		bl	lv_obj_add_style
 978              	.LVL122:
 403:..\..\..\arduinoLCD\test\Pain Drain\libraries\lvgl\src\extra\themes\basic/lv_theme_basic.c ****         lv_obj_add_style(obj, &styles->light, LV_PART_KNOB);
 979              		.loc 1 403 0
 980 063a 2968     		ldr	r1, [r5]
 981 063c 1831     		adds	r1, r1, #24
 982 063e C022     		movs	r2, #192
 983 0640 9202     		lsls	r2, r2, #10
 984 0642 2000     		movs	r0, r4
 985 0644 FFF7FEFF 		bl	lv_obj_add_style
 986              	.LVL123:
 987 0648 0CE0     		b	.L1
 988              	.L35:
 404:..\..\..\arduinoLCD\test\Pain Drain\libraries\lvgl\src\extra\themes\basic/lv_theme_basic.c ****     }
 405:..\..\..\arduinoLCD\test\Pain Drain\libraries\lvgl\src\extra\themes\basic/lv_theme_basic.c **** #endif
 406:..\..\..\arduinoLCD\test\Pain Drain\libraries\lvgl\src\extra\themes\basic/lv_theme_basic.c **** 
 407:..\..\..\arduinoLCD\test\Pain Drain\libraries\lvgl\src\extra\themes\basic/lv_theme_basic.c **** #if LV_USE_LED
 408:..\..\..\arduinoLCD\test\Pain Drain\libraries\lvgl\src\extra\themes\basic/lv_theme_basic.c ****     else if(lv_obj_check_type(obj, &lv_led_class)) {
 989              		.loc 1 408 0
 990 064a 1849     		ldr	r1, .L38+68
 991 064c 2000     		movs	r0, r4
 992 064e FFF7FEFF 		bl	lv_obj_check_type
 993              	.LVL124:
 994 0652 0028     		cmp	r0, #0
 995 0654 06D0     		beq	.L1
 409:..\..\..\arduinoLCD\test\Pain Drain\libraries\lvgl\src\extra\themes\basic/lv_theme_basic.c ****         lv_obj_add_style(obj, &styles->light, 0);
 996              		.loc 1 409 0
 997 0656 054B     		ldr	r3, .L38+4
 998 0658 1968     		ldr	r1, [r3]
 999 065a 1831     		adds	r1, r1, #24
 1000 065c 0022     		movs	r2, #0
 1001 065e 2000     		movs	r0, r4
 1002 0660 FFF7FEFF 		bl	lv_obj_add_style
 1003              	.LVL125:
 1004              	.L1:
 410:..\..\..\arduinoLCD\test\Pain Drain\libraries\lvgl\src\extra\themes\basic/lv_theme_basic.c ****     }
 411:..\..\..\arduinoLCD\test\Pain Drain\libraries\lvgl\src\extra\themes\basic/lv_theme_basic.c **** #endif
 412:..\..\..\arduinoLCD\test\Pain Drain\libraries\lvgl\src\extra\themes\basic/lv_theme_basic.c **** }
 1005              		.loc 1 412 0
 1006              		@ sp needed
 1007              	.LVL126:
 1008 0664 70BD     		pop	{r4, r5, r6, pc}
 1009              	.L39:
 1010 0666 C046     		.align	2
 1011              	.L38:
 1012 0668 00000000 		.word	lv_arc_class
 1013 066c 00000000 		.word	.LANCHOR0
ARM GAS  C:\Users\haske\AppData\Local\Temp\ccVOiHBd.s 			page 26


 1014 0670 00000000 		.word	lv_spinner_class
 1015 0674 00000000 		.word	lv_colorwheel_class
 1016 0678 00000000 		.word	lv_meter_class
 1017 067c 00000000 		.word	lv_textarea_class
 1018 0680 02000700 		.word	458754
 1019 0684 00000000 		.word	lv_calendar_class
 1020 0688 00000000 		.word	lv_keyboard_class
 1021 068c 01000500 		.word	327681
 1022 0690 00000000 		.word	lv_list_class
 1023 0694 00000000 		.word	lv_list_text_class
 1024 0698 00000000 		.word	lv_list_btn_class
 1025 069c 00000000 		.word	lv_msgbox_class
 1026 06a0 00000000 		.word	lv_spinbox_class
 1027 06a4 00000000 		.word	lv_tileview_class
 1028 06a8 00000000 		.word	lv_tileview_tile_class
 1029 06ac 00000000 		.word	lv_led_class
 1030              		.cfi_endproc
 1031              	.LFE205:
 1032              		.size	theme_apply, .-theme_apply
 1033              		.section	.text.style_init_reset,"ax",%progbits
 1034              		.align	2
 1035              		.code	16
 1036              		.thumb_func
 1037              		.type	style_init_reset, %function
 1038              	style_init_reset:
 1039              	.LFB206:
 413:..\..\..\arduinoLCD\test\Pain Drain\libraries\lvgl\src\extra\themes\basic/lv_theme_basic.c **** 
 414:..\..\..\arduinoLCD\test\Pain Drain\libraries\lvgl\src\extra\themes\basic/lv_theme_basic.c **** /**********************
 415:..\..\..\arduinoLCD\test\Pain Drain\libraries\lvgl\src\extra\themes\basic/lv_theme_basic.c ****  *   STATIC FUNCTIONS
 416:..\..\..\arduinoLCD\test\Pain Drain\libraries\lvgl\src\extra\themes\basic/lv_theme_basic.c ****  **********************/
 417:..\..\..\arduinoLCD\test\Pain Drain\libraries\lvgl\src\extra\themes\basic/lv_theme_basic.c **** 
 418:..\..\..\arduinoLCD\test\Pain Drain\libraries\lvgl\src\extra\themes\basic/lv_theme_basic.c **** static void style_init_reset(lv_style_t * style)
 419:..\..\..\arduinoLCD\test\Pain Drain\libraries\lvgl\src\extra\themes\basic/lv_theme_basic.c **** {
 1040              		.loc 1 419 0
 1041              		.cfi_startproc
 1042              		@ args = 0, pretend = 0, frame = 0
 1043              		@ frame_needed = 0, uses_anonymous_args = 0
 1044              	.LVL127:
 1045 0000 10B5     		push	{r4, lr}
 1046              		.cfi_def_cfa_offset 8
 1047              		.cfi_offset 4, -8
 1048              		.cfi_offset 14, -4
 420:..\..\..\arduinoLCD\test\Pain Drain\libraries\lvgl\src\extra\themes\basic/lv_theme_basic.c ****     if(inited) {
 1049              		.loc 1 420 0
 1050 0002 054B     		ldr	r3, .L43
 1051 0004 1B79     		ldrb	r3, [r3, #4]
 1052 0006 002B     		cmp	r3, #0
 1053 0008 02D0     		beq	.L41
 421:..\..\..\arduinoLCD\test\Pain Drain\libraries\lvgl\src\extra\themes\basic/lv_theme_basic.c ****         lv_style_reset(style);
 1054              		.loc 1 421 0
 1055 000a FFF7FEFF 		bl	lv_style_reset
 1056              	.LVL128:
 1057 000e 01E0     		b	.L40
 1058              	.LVL129:
 1059              	.L41:
 422:..\..\..\arduinoLCD\test\Pain Drain\libraries\lvgl\src\extra\themes\basic/lv_theme_basic.c ****     }
 423:..\..\..\arduinoLCD\test\Pain Drain\libraries\lvgl\src\extra\themes\basic/lv_theme_basic.c ****     else {
ARM GAS  C:\Users\haske\AppData\Local\Temp\ccVOiHBd.s 			page 27


 424:..\..\..\arduinoLCD\test\Pain Drain\libraries\lvgl\src\extra\themes\basic/lv_theme_basic.c ****         lv_style_init(style);
 1060              		.loc 1 424 0
 1061 0010 FFF7FEFF 		bl	lv_style_init
 1062              	.LVL130:
 1063              	.L40:
 425:..\..\..\arduinoLCD\test\Pain Drain\libraries\lvgl\src\extra\themes\basic/lv_theme_basic.c ****     }
 426:..\..\..\arduinoLCD\test\Pain Drain\libraries\lvgl\src\extra\themes\basic/lv_theme_basic.c **** }
 1064              		.loc 1 426 0
 1065              		@ sp needed
 1066 0014 10BD     		pop	{r4, pc}
 1067              	.L44:
 1068 0016 C046     		.align	2
 1069              	.L43:
 1070 0018 00000000 		.word	.LANCHOR0
 1071              		.cfi_endproc
 1072              	.LFE206:
 1073              		.size	style_init_reset, .-style_init_reset
 1074              		.section	.text.style_init,"ax",%progbits
 1075              		.align	2
 1076              		.code	16
 1077              		.thumb_func
 1078              		.type	style_init, %function
 1079              	style_init:
 1080              	.LFB202:
  69:..\..\..\arduinoLCD\test\Pain Drain\libraries\lvgl\src\extra\themes\basic/lv_theme_basic.c ****     style_init_reset(&styles->scrollbar);
 1081              		.loc 1 69 0
 1082              		.cfi_startproc
 1083              		@ args = 0, pretend = 0, frame = 0
 1084              		@ frame_needed = 0, uses_anonymous_args = 0
 1085 0000 F8B5     		push	{r3, r4, r5, r6, r7, lr}
 1086              		.cfi_def_cfa_offset 24
 1087              		.cfi_offset 3, -24
 1088              		.cfi_offset 4, -20
 1089              		.cfi_offset 5, -16
 1090              		.cfi_offset 6, -12
 1091              		.cfi_offset 7, -8
 1092              		.cfi_offset 14, -4
  70:..\..\..\arduinoLCD\test\Pain Drain\libraries\lvgl\src\extra\themes\basic/lv_theme_basic.c ****     lv_style_set_bg_opa(&styles->scrollbar, LV_OPA_COVER);
 1093              		.loc 1 70 0
 1094 0002 9C4C     		ldr	r4, .L46
 1095 0004 2068     		ldr	r0, [r4]
 1096 0006 3030     		adds	r0, r0, #48
 1097 0008 FFF7FEFF 		bl	style_init_reset
 1098              	.LVL131:
  71:..\..\..\arduinoLCD\test\Pain Drain\libraries\lvgl\src\extra\themes\basic/lv_theme_basic.c ****     lv_style_set_bg_color(&styles->scrollbar, COLOR_DARK);
 1099              		.loc 1 71 0
 1100 000c 2068     		ldr	r0, [r4]
 1101 000e 3030     		adds	r0, r0, #48
 1102 0010 FF21     		movs	r1, #255
 1103 0012 FFF7FEFF 		bl	lv_style_set_bg_opa
 1104              	.LVL132:
  72:..\..\..\arduinoLCD\test\Pain Drain\libraries\lvgl\src\extra\themes\basic/lv_theme_basic.c ****     lv_style_set_width(&styles->scrollbar,  SCROLLBAR_WIDTH);
 1105              		.loc 1 72 0
 1106 0016 2568     		ldr	r5, [r4]
 1107 0018 1220     		movs	r0, #18
 1108 001a FFF7FEFF 		bl	lv_palette_main
 1109              	.LVL133:
ARM GAS  C:\Users\haske\AppData\Local\Temp\ccVOiHBd.s 			page 28


 1110 001e 011C     		adds	r1, r0, #0
 1111 0020 2800     		movs	r0, r5
 1112 0022 3030     		adds	r0, r0, #48
 1113 0024 FFF7FEFF 		bl	lv_style_set_bg_color
 1114              	.LVL134:
  73:..\..\..\arduinoLCD\test\Pain Drain\libraries\lvgl\src\extra\themes\basic/lv_theme_basic.c **** 
 1115              		.loc 1 73 0
 1116 0028 2068     		ldr	r0, [r4]
 1117 002a 3030     		adds	r0, r0, #48
 1118 002c 0221     		movs	r1, #2
 1119 002e FFF7FEFF 		bl	lv_style_set_width
 1120              	.LVL135:
  75:..\..\..\arduinoLCD\test\Pain Drain\libraries\lvgl\src\extra\themes\basic/lv_theme_basic.c ****     lv_style_set_bg_opa(&styles->scr, LV_OPA_COVER);
 1121              		.loc 1 75 0
 1122 0032 2068     		ldr	r0, [r4]
 1123 0034 FFF7FEFF 		bl	style_init_reset
 1124              	.LVL136:
  76:..\..\..\arduinoLCD\test\Pain Drain\libraries\lvgl\src\extra\themes\basic/lv_theme_basic.c ****     lv_style_set_bg_color(&styles->scr, COLOR_SCR);
 1125              		.loc 1 76 0
 1126 0038 FF21     		movs	r1, #255
 1127 003a 2068     		ldr	r0, [r4]
 1128 003c FFF7FEFF 		bl	lv_style_set_bg_opa
 1129              	.LVL137:
  77:..\..\..\arduinoLCD\test\Pain Drain\libraries\lvgl\src\extra\themes\basic/lv_theme_basic.c ****     lv_style_set_text_color(&styles->scr, COLOR_DIM);
 1130              		.loc 1 77 0
 1131 0040 2568     		ldr	r5, [r4]
 1132 0042 0421     		movs	r1, #4
 1133 0044 1220     		movs	r0, #18
 1134 0046 FFF7FEFF 		bl	lv_palette_lighten
 1135              	.LVL138:
 1136 004a 011C     		adds	r1, r0, #0
 1137 004c 2800     		movs	r0, r5
 1138 004e FFF7FEFF 		bl	lv_style_set_bg_color
 1139              	.LVL139:
  78:..\..\..\arduinoLCD\test\Pain Drain\libraries\lvgl\src\extra\themes\basic/lv_theme_basic.c **** 
 1140              		.loc 1 78 0
 1141 0052 2568     		ldr	r5, [r4]
 1142 0054 0221     		movs	r1, #2
 1143 0056 1220     		movs	r0, #18
 1144 0058 FFF7FEFF 		bl	lv_palette_darken
 1145              	.LVL140:
 1146 005c 011C     		adds	r1, r0, #0
 1147 005e 2800     		movs	r0, r5
 1148 0060 FFF7FEFF 		bl	lv_style_set_text_color
 1149              	.LVL141:
  81:..\..\..\arduinoLCD\test\Pain Drain\libraries\lvgl\src\extra\themes\basic/lv_theme_basic.c ****     lv_style_set_bg_opa(&styles->transp, LV_OPA_TRANSP);
 1150              		.loc 1 81 0
 1151 0064 2068     		ldr	r0, [r4]
 1152 0066 0830     		adds	r0, r0, #8
 1153 0068 FFF7FEFF 		bl	style_init_reset
 1154              	.LVL142:
  82:..\..\..\arduinoLCD\test\Pain Drain\libraries\lvgl\src\extra\themes\basic/lv_theme_basic.c **** 
 1155              		.loc 1 82 0
 1156 006c 2068     		ldr	r0, [r4]
 1157 006e 0830     		adds	r0, r0, #8
 1158 0070 0021     		movs	r1, #0
 1159 0072 FFF7FEFF 		bl	lv_style_set_bg_opa
ARM GAS  C:\Users\haske\AppData\Local\Temp\ccVOiHBd.s 			page 29


 1160              	.LVL143:
  84:..\..\..\arduinoLCD\test\Pain Drain\libraries\lvgl\src\extra\themes\basic/lv_theme_basic.c ****     lv_style_set_bg_opa(&styles->white, LV_OPA_COVER);
 1161              		.loc 1 84 0
 1162 0076 2068     		ldr	r0, [r4]
 1163 0078 1030     		adds	r0, r0, #16
 1164 007a FFF7FEFF 		bl	style_init_reset
 1165              	.LVL144:
  85:..\..\..\arduinoLCD\test\Pain Drain\libraries\lvgl\src\extra\themes\basic/lv_theme_basic.c ****     lv_style_set_bg_color(&styles->white, COLOR_WHITE);
 1166              		.loc 1 85 0
 1167 007e 2068     		ldr	r0, [r4]
 1168 0080 1030     		adds	r0, r0, #16
 1169 0082 FF21     		movs	r1, #255
 1170 0084 FFF7FEFF 		bl	lv_style_set_bg_opa
 1171              	.LVL145:
 1172              	.LBB28:
 1173              	.LBB29:
 1174              	.LBB30:
 1175              		.file 2 "c:\\projects\\paindrain\\arduinolcd\\test\\pain drain\\libraries\\lvgl\\src\\misc\\lv_col
   1:c:\projects\paindrain\arduinolcd\test\pain drain\libraries\lvgl\src\misc\lv_color.h **** /**
   2:c:\projects\paindrain\arduinolcd\test\pain drain\libraries\lvgl\src\misc\lv_color.h ****  * @file lv_color.h
   3:c:\projects\paindrain\arduinolcd\test\pain drain\libraries\lvgl\src\misc\lv_color.h ****  *
   4:c:\projects\paindrain\arduinolcd\test\pain drain\libraries\lvgl\src\misc\lv_color.h ****  */
   5:c:\projects\paindrain\arduinolcd\test\pain drain\libraries\lvgl\src\misc\lv_color.h **** 
   6:c:\projects\paindrain\arduinolcd\test\pain drain\libraries\lvgl\src\misc\lv_color.h **** #ifndef LV_COLOR_H
   7:c:\projects\paindrain\arduinolcd\test\pain drain\libraries\lvgl\src\misc\lv_color.h **** #define LV_COLOR_H
   8:c:\projects\paindrain\arduinolcd\test\pain drain\libraries\lvgl\src\misc\lv_color.h **** 
   9:c:\projects\paindrain\arduinolcd\test\pain drain\libraries\lvgl\src\misc\lv_color.h **** #ifdef __cplusplus
  10:c:\projects\paindrain\arduinolcd\test\pain drain\libraries\lvgl\src\misc\lv_color.h **** extern "C" {
  11:c:\projects\paindrain\arduinolcd\test\pain drain\libraries\lvgl\src\misc\lv_color.h **** #endif
  12:c:\projects\paindrain\arduinolcd\test\pain drain\libraries\lvgl\src\misc\lv_color.h **** 
  13:c:\projects\paindrain\arduinolcd\test\pain drain\libraries\lvgl\src\misc\lv_color.h **** /*********************
  14:c:\projects\paindrain\arduinolcd\test\pain drain\libraries\lvgl\src\misc\lv_color.h ****  *      INCLUDES
  15:c:\projects\paindrain\arduinolcd\test\pain drain\libraries\lvgl\src\misc\lv_color.h ****  *********************/
  16:c:\projects\paindrain\arduinolcd\test\pain drain\libraries\lvgl\src\misc\lv_color.h **** #include "../lv_conf_internal.h"
  17:c:\projects\paindrain\arduinolcd\test\pain drain\libraries\lvgl\src\misc\lv_color.h **** #include "lv_assert.h"
  18:c:\projects\paindrain\arduinolcd\test\pain drain\libraries\lvgl\src\misc\lv_color.h **** #include "lv_math.h"
  19:c:\projects\paindrain\arduinolcd\test\pain drain\libraries\lvgl\src\misc\lv_color.h **** #include "lv_types.h"
  20:c:\projects\paindrain\arduinolcd\test\pain drain\libraries\lvgl\src\misc\lv_color.h **** 
  21:c:\projects\paindrain\arduinolcd\test\pain drain\libraries\lvgl\src\misc\lv_color.h **** /*Error checking*/
  22:c:\projects\paindrain\arduinolcd\test\pain drain\libraries\lvgl\src\misc\lv_color.h **** #if LV_COLOR_DEPTH == 24
  23:c:\projects\paindrain\arduinolcd\test\pain drain\libraries\lvgl\src\misc\lv_color.h **** #error "LV_COLOR_DEPTH 24 is deprecated. Use LV_COLOR_DEPTH 32 instead (lv_conf.h)"
  24:c:\projects\paindrain\arduinolcd\test\pain drain\libraries\lvgl\src\misc\lv_color.h **** #endif
  25:c:\projects\paindrain\arduinolcd\test\pain drain\libraries\lvgl\src\misc\lv_color.h **** 
  26:c:\projects\paindrain\arduinolcd\test\pain drain\libraries\lvgl\src\misc\lv_color.h **** #if LV_COLOR_DEPTH != 16 && LV_COLOR_16_SWAP != 0
  27:c:\projects\paindrain\arduinolcd\test\pain drain\libraries\lvgl\src\misc\lv_color.h **** #error "LV_COLOR_16_SWAP requires LV_COLOR_DEPTH == 16. Set it in lv_conf.h"
  28:c:\projects\paindrain\arduinolcd\test\pain drain\libraries\lvgl\src\misc\lv_color.h **** #endif
  29:c:\projects\paindrain\arduinolcd\test\pain drain\libraries\lvgl\src\misc\lv_color.h **** 
  30:c:\projects\paindrain\arduinolcd\test\pain drain\libraries\lvgl\src\misc\lv_color.h **** #include <stdint.h>
  31:c:\projects\paindrain\arduinolcd\test\pain drain\libraries\lvgl\src\misc\lv_color.h **** 
  32:c:\projects\paindrain\arduinolcd\test\pain drain\libraries\lvgl\src\misc\lv_color.h **** /*********************
  33:c:\projects\paindrain\arduinolcd\test\pain drain\libraries\lvgl\src\misc\lv_color.h ****  *      DEFINES
  34:c:\projects\paindrain\arduinolcd\test\pain drain\libraries\lvgl\src\misc\lv_color.h ****  *********************/
  35:c:\projects\paindrain\arduinolcd\test\pain drain\libraries\lvgl\src\misc\lv_color.h **** LV_EXPORT_CONST_INT(LV_COLOR_DEPTH);
  36:c:\projects\paindrain\arduinolcd\test\pain drain\libraries\lvgl\src\misc\lv_color.h **** LV_EXPORT_CONST_INT(LV_COLOR_16_SWAP);
  37:c:\projects\paindrain\arduinolcd\test\pain drain\libraries\lvgl\src\misc\lv_color.h **** 
  38:c:\projects\paindrain\arduinolcd\test\pain drain\libraries\lvgl\src\misc\lv_color.h **** /**
  39:c:\projects\paindrain\arduinolcd\test\pain drain\libraries\lvgl\src\misc\lv_color.h ****  * Opacity percentages.
ARM GAS  C:\Users\haske\AppData\Local\Temp\ccVOiHBd.s 			page 30


  40:c:\projects\paindrain\arduinolcd\test\pain drain\libraries\lvgl\src\misc\lv_color.h ****  */
  41:c:\projects\paindrain\arduinolcd\test\pain drain\libraries\lvgl\src\misc\lv_color.h **** enum {
  42:c:\projects\paindrain\arduinolcd\test\pain drain\libraries\lvgl\src\misc\lv_color.h ****     LV_OPA_TRANSP = 0,
  43:c:\projects\paindrain\arduinolcd\test\pain drain\libraries\lvgl\src\misc\lv_color.h ****     LV_OPA_0      = 0,
  44:c:\projects\paindrain\arduinolcd\test\pain drain\libraries\lvgl\src\misc\lv_color.h ****     LV_OPA_10     = 25,
  45:c:\projects\paindrain\arduinolcd\test\pain drain\libraries\lvgl\src\misc\lv_color.h ****     LV_OPA_20     = 51,
  46:c:\projects\paindrain\arduinolcd\test\pain drain\libraries\lvgl\src\misc\lv_color.h ****     LV_OPA_30     = 76,
  47:c:\projects\paindrain\arduinolcd\test\pain drain\libraries\lvgl\src\misc\lv_color.h ****     LV_OPA_40     = 102,
  48:c:\projects\paindrain\arduinolcd\test\pain drain\libraries\lvgl\src\misc\lv_color.h ****     LV_OPA_50     = 127,
  49:c:\projects\paindrain\arduinolcd\test\pain drain\libraries\lvgl\src\misc\lv_color.h ****     LV_OPA_60     = 153,
  50:c:\projects\paindrain\arduinolcd\test\pain drain\libraries\lvgl\src\misc\lv_color.h ****     LV_OPA_70     = 178,
  51:c:\projects\paindrain\arduinolcd\test\pain drain\libraries\lvgl\src\misc\lv_color.h ****     LV_OPA_80     = 204,
  52:c:\projects\paindrain\arduinolcd\test\pain drain\libraries\lvgl\src\misc\lv_color.h ****     LV_OPA_90     = 229,
  53:c:\projects\paindrain\arduinolcd\test\pain drain\libraries\lvgl\src\misc\lv_color.h ****     LV_OPA_100    = 255,
  54:c:\projects\paindrain\arduinolcd\test\pain drain\libraries\lvgl\src\misc\lv_color.h ****     LV_OPA_COVER  = 255,
  55:c:\projects\paindrain\arduinolcd\test\pain drain\libraries\lvgl\src\misc\lv_color.h **** };
  56:c:\projects\paindrain\arduinolcd\test\pain drain\libraries\lvgl\src\misc\lv_color.h **** 
  57:c:\projects\paindrain\arduinolcd\test\pain drain\libraries\lvgl\src\misc\lv_color.h **** #define LV_OPA_MIN 2    /*Opacities below this will be transparent*/
  58:c:\projects\paindrain\arduinolcd\test\pain drain\libraries\lvgl\src\misc\lv_color.h **** #define LV_OPA_MAX 253  /*Opacities above this will fully cover*/
  59:c:\projects\paindrain\arduinolcd\test\pain drain\libraries\lvgl\src\misc\lv_color.h **** 
  60:c:\projects\paindrain\arduinolcd\test\pain drain\libraries\lvgl\src\misc\lv_color.h **** #if LV_COLOR_DEPTH == 1
  61:c:\projects\paindrain\arduinolcd\test\pain drain\libraries\lvgl\src\misc\lv_color.h **** #define LV_COLOR_SIZE 8
  62:c:\projects\paindrain\arduinolcd\test\pain drain\libraries\lvgl\src\misc\lv_color.h **** #elif LV_COLOR_DEPTH == 8
  63:c:\projects\paindrain\arduinolcd\test\pain drain\libraries\lvgl\src\misc\lv_color.h **** #define LV_COLOR_SIZE 8
  64:c:\projects\paindrain\arduinolcd\test\pain drain\libraries\lvgl\src\misc\lv_color.h **** #elif LV_COLOR_DEPTH == 16
  65:c:\projects\paindrain\arduinolcd\test\pain drain\libraries\lvgl\src\misc\lv_color.h **** #define LV_COLOR_SIZE 16
  66:c:\projects\paindrain\arduinolcd\test\pain drain\libraries\lvgl\src\misc\lv_color.h **** #elif LV_COLOR_DEPTH == 32
  67:c:\projects\paindrain\arduinolcd\test\pain drain\libraries\lvgl\src\misc\lv_color.h **** #define LV_COLOR_SIZE 32
  68:c:\projects\paindrain\arduinolcd\test\pain drain\libraries\lvgl\src\misc\lv_color.h **** #else
  69:c:\projects\paindrain\arduinolcd\test\pain drain\libraries\lvgl\src\misc\lv_color.h **** #error "Invalid LV_COLOR_DEPTH in lv_conf.h! Set it to 1, 8, 16 or 32!"
  70:c:\projects\paindrain\arduinolcd\test\pain drain\libraries\lvgl\src\misc\lv_color.h **** #endif
  71:c:\projects\paindrain\arduinolcd\test\pain drain\libraries\lvgl\src\misc\lv_color.h **** 
  72:c:\projects\paindrain\arduinolcd\test\pain drain\libraries\lvgl\src\misc\lv_color.h **** #if defined(__cplusplus) && !defined(_LV_COLOR_HAS_MODERN_CPP)
  73:c:\projects\paindrain\arduinolcd\test\pain drain\libraries\lvgl\src\misc\lv_color.h **** /**
  74:c:\projects\paindrain\arduinolcd\test\pain drain\libraries\lvgl\src\misc\lv_color.h **** * MSVC compiler's definition of the __cplusplus indicating 199711L regardless to C++ standard versi
  75:c:\projects\paindrain\arduinolcd\test\pain drain\libraries\lvgl\src\misc\lv_color.h **** * see https://devblogs.microsoft.com/cppblog/msvc-now-correctly-reports-cplusplus
  76:c:\projects\paindrain\arduinolcd\test\pain drain\libraries\lvgl\src\misc\lv_color.h **** * so we use _MSC_VER macro instead of __cplusplus
  77:c:\projects\paindrain\arduinolcd\test\pain drain\libraries\lvgl\src\misc\lv_color.h **** */
  78:c:\projects\paindrain\arduinolcd\test\pain drain\libraries\lvgl\src\misc\lv_color.h **** #ifdef _MSC_VER
  79:c:\projects\paindrain\arduinolcd\test\pain drain\libraries\lvgl\src\misc\lv_color.h **** #if _MSC_VER >= 1900 /*Visual Studio 2015*/
  80:c:\projects\paindrain\arduinolcd\test\pain drain\libraries\lvgl\src\misc\lv_color.h **** #define _LV_COLOR_HAS_MODERN_CPP 1
  81:c:\projects\paindrain\arduinolcd\test\pain drain\libraries\lvgl\src\misc\lv_color.h **** #endif
  82:c:\projects\paindrain\arduinolcd\test\pain drain\libraries\lvgl\src\misc\lv_color.h **** #else
  83:c:\projects\paindrain\arduinolcd\test\pain drain\libraries\lvgl\src\misc\lv_color.h **** #if __cplusplus >= 201103L
  84:c:\projects\paindrain\arduinolcd\test\pain drain\libraries\lvgl\src\misc\lv_color.h **** #define _LV_COLOR_HAS_MODERN_CPP 1
  85:c:\projects\paindrain\arduinolcd\test\pain drain\libraries\lvgl\src\misc\lv_color.h **** #endif
  86:c:\projects\paindrain\arduinolcd\test\pain drain\libraries\lvgl\src\misc\lv_color.h **** #endif
  87:c:\projects\paindrain\arduinolcd\test\pain drain\libraries\lvgl\src\misc\lv_color.h **** #endif /*__cplusplus*/
  88:c:\projects\paindrain\arduinolcd\test\pain drain\libraries\lvgl\src\misc\lv_color.h **** 
  89:c:\projects\paindrain\arduinolcd\test\pain drain\libraries\lvgl\src\misc\lv_color.h **** #ifndef _LV_COLOR_HAS_MODERN_CPP
  90:c:\projects\paindrain\arduinolcd\test\pain drain\libraries\lvgl\src\misc\lv_color.h **** #define _LV_COLOR_HAS_MODERN_CPP 0
  91:c:\projects\paindrain\arduinolcd\test\pain drain\libraries\lvgl\src\misc\lv_color.h **** #endif
  92:c:\projects\paindrain\arduinolcd\test\pain drain\libraries\lvgl\src\misc\lv_color.h **** 
  93:c:\projects\paindrain\arduinolcd\test\pain drain\libraries\lvgl\src\misc\lv_color.h **** #if _LV_COLOR_HAS_MODERN_CPP
  94:c:\projects\paindrain\arduinolcd\test\pain drain\libraries\lvgl\src\misc\lv_color.h **** /*Fix msvc compiler error C4576 inside C++ code*/
  95:c:\projects\paindrain\arduinolcd\test\pain drain\libraries\lvgl\src\misc\lv_color.h **** #define _LV_COLOR_MAKE_TYPE_HELPER lv_color_t
  96:c:\projects\paindrain\arduinolcd\test\pain drain\libraries\lvgl\src\misc\lv_color.h **** #else
ARM GAS  C:\Users\haske\AppData\Local\Temp\ccVOiHBd.s 			page 31


  97:c:\projects\paindrain\arduinolcd\test\pain drain\libraries\lvgl\src\misc\lv_color.h **** #define _LV_COLOR_MAKE_TYPE_HELPER (lv_color_t)
  98:c:\projects\paindrain\arduinolcd\test\pain drain\libraries\lvgl\src\misc\lv_color.h **** #endif
  99:c:\projects\paindrain\arduinolcd\test\pain drain\libraries\lvgl\src\misc\lv_color.h **** 
 100:c:\projects\paindrain\arduinolcd\test\pain drain\libraries\lvgl\src\misc\lv_color.h **** /*---------------------------------------
 101:c:\projects\paindrain\arduinolcd\test\pain drain\libraries\lvgl\src\misc\lv_color.h ****  * Macros for all existing color depths
 102:c:\projects\paindrain\arduinolcd\test\pain drain\libraries\lvgl\src\misc\lv_color.h ****  * to set/get values of the color channels
 103:c:\projects\paindrain\arduinolcd\test\pain drain\libraries\lvgl\src\misc\lv_color.h ****  *------------------------------------------*/
 104:c:\projects\paindrain\arduinolcd\test\pain drain\libraries\lvgl\src\misc\lv_color.h **** # define LV_COLOR_SET_R1(c, v) (c).ch.red = (uint8_t)((v) & 0x1)
 105:c:\projects\paindrain\arduinolcd\test\pain drain\libraries\lvgl\src\misc\lv_color.h **** # define LV_COLOR_SET_G1(c, v) (c).ch.green = (uint8_t)((v) & 0x1)
 106:c:\projects\paindrain\arduinolcd\test\pain drain\libraries\lvgl\src\misc\lv_color.h **** # define LV_COLOR_SET_B1(c, v) (c).ch.blue = (uint8_t)((v) & 0x1)
 107:c:\projects\paindrain\arduinolcd\test\pain drain\libraries\lvgl\src\misc\lv_color.h **** # define LV_COLOR_SET_A1(c, v) do {} while(0)
 108:c:\projects\paindrain\arduinolcd\test\pain drain\libraries\lvgl\src\misc\lv_color.h **** 
 109:c:\projects\paindrain\arduinolcd\test\pain drain\libraries\lvgl\src\misc\lv_color.h **** # define LV_COLOR_GET_R1(c) (c).ch.red
 110:c:\projects\paindrain\arduinolcd\test\pain drain\libraries\lvgl\src\misc\lv_color.h **** # define LV_COLOR_GET_G1(c) (c).ch.green
 111:c:\projects\paindrain\arduinolcd\test\pain drain\libraries\lvgl\src\misc\lv_color.h **** # define LV_COLOR_GET_B1(c) (c).ch.blue
 112:c:\projects\paindrain\arduinolcd\test\pain drain\libraries\lvgl\src\misc\lv_color.h **** # define LV_COLOR_GET_A1(c) 0xFF
 113:c:\projects\paindrain\arduinolcd\test\pain drain\libraries\lvgl\src\misc\lv_color.h **** 
 114:c:\projects\paindrain\arduinolcd\test\pain drain\libraries\lvgl\src\misc\lv_color.h **** # define _LV_COLOR_ZERO_INITIALIZER1 {0x00}
 115:c:\projects\paindrain\arduinolcd\test\pain drain\libraries\lvgl\src\misc\lv_color.h **** # define LV_COLOR_MAKE1(r8, g8, b8)  {(uint8_t)((b8 >> 7) | (g8 >> 7) | (r8 >> 7))}
 116:c:\projects\paindrain\arduinolcd\test\pain drain\libraries\lvgl\src\misc\lv_color.h **** 
 117:c:\projects\paindrain\arduinolcd\test\pain drain\libraries\lvgl\src\misc\lv_color.h **** # define LV_COLOR_SET_R8(c, v) (c).ch.red = (uint8_t)((v) & 0x7U)
 118:c:\projects\paindrain\arduinolcd\test\pain drain\libraries\lvgl\src\misc\lv_color.h **** # define LV_COLOR_SET_G8(c, v) (c).ch.green = (uint8_t)((v) & 0x7U)
 119:c:\projects\paindrain\arduinolcd\test\pain drain\libraries\lvgl\src\misc\lv_color.h **** # define LV_COLOR_SET_B8(c, v) (c).ch.blue = (uint8_t)((v) & 0x3U)
 120:c:\projects\paindrain\arduinolcd\test\pain drain\libraries\lvgl\src\misc\lv_color.h **** # define LV_COLOR_SET_A8(c, v) do {} while(0)
 121:c:\projects\paindrain\arduinolcd\test\pain drain\libraries\lvgl\src\misc\lv_color.h **** 
 122:c:\projects\paindrain\arduinolcd\test\pain drain\libraries\lvgl\src\misc\lv_color.h **** # define LV_COLOR_GET_R8(c) (c).ch.red
 123:c:\projects\paindrain\arduinolcd\test\pain drain\libraries\lvgl\src\misc\lv_color.h **** # define LV_COLOR_GET_G8(c) (c).ch.green
 124:c:\projects\paindrain\arduinolcd\test\pain drain\libraries\lvgl\src\misc\lv_color.h **** # define LV_COLOR_GET_B8(c) (c).ch.blue
 125:c:\projects\paindrain\arduinolcd\test\pain drain\libraries\lvgl\src\misc\lv_color.h **** # define LV_COLOR_GET_A8(c) 0xFF
 126:c:\projects\paindrain\arduinolcd\test\pain drain\libraries\lvgl\src\misc\lv_color.h **** 
 127:c:\projects\paindrain\arduinolcd\test\pain drain\libraries\lvgl\src\misc\lv_color.h **** # define _LV_COLOR_ZERO_INITIALIZER8 {{0x00, 0x00, 0x00}}
 128:c:\projects\paindrain\arduinolcd\test\pain drain\libraries\lvgl\src\misc\lv_color.h **** # define LV_COLOR_MAKE8(r8, g8, b8) {{(uint8_t)((b8 >> 6) & 0x3U), (uint8_t)((g8 >> 5) & 0x7U), (ui
 129:c:\projects\paindrain\arduinolcd\test\pain drain\libraries\lvgl\src\misc\lv_color.h **** 
 130:c:\projects\paindrain\arduinolcd\test\pain drain\libraries\lvgl\src\misc\lv_color.h **** # define LV_COLOR_SET_R16(c, v) (c).ch.red = (uint8_t)((v) & 0x1FU)
 131:c:\projects\paindrain\arduinolcd\test\pain drain\libraries\lvgl\src\misc\lv_color.h **** #if LV_COLOR_16_SWAP == 0
 132:c:\projects\paindrain\arduinolcd\test\pain drain\libraries\lvgl\src\misc\lv_color.h **** # define LV_COLOR_SET_G16(c, v) (c).ch.green = (uint8_t)((v) & 0x3FU)
 133:c:\projects\paindrain\arduinolcd\test\pain drain\libraries\lvgl\src\misc\lv_color.h **** #else
 134:c:\projects\paindrain\arduinolcd\test\pain drain\libraries\lvgl\src\misc\lv_color.h **** # define LV_COLOR_SET_G16(c, v) {(c).ch.green_h = (uint8_t)(((v) >> 3) & 0x7); (c).ch.green_l = (ui
 135:c:\projects\paindrain\arduinolcd\test\pain drain\libraries\lvgl\src\misc\lv_color.h **** #endif
 136:c:\projects\paindrain\arduinolcd\test\pain drain\libraries\lvgl\src\misc\lv_color.h **** # define LV_COLOR_SET_B16(c, v) (c).ch.blue = (uint8_t)((v) & 0x1FU)
 137:c:\projects\paindrain\arduinolcd\test\pain drain\libraries\lvgl\src\misc\lv_color.h **** # define LV_COLOR_SET_A16(c, v) do {} while(0)
 138:c:\projects\paindrain\arduinolcd\test\pain drain\libraries\lvgl\src\misc\lv_color.h **** 
 139:c:\projects\paindrain\arduinolcd\test\pain drain\libraries\lvgl\src\misc\lv_color.h **** # define LV_COLOR_GET_R16(c) (c).ch.red
 140:c:\projects\paindrain\arduinolcd\test\pain drain\libraries\lvgl\src\misc\lv_color.h **** #if LV_COLOR_16_SWAP == 0
 141:c:\projects\paindrain\arduinolcd\test\pain drain\libraries\lvgl\src\misc\lv_color.h **** # define LV_COLOR_GET_G16(c) (c).ch.green
 142:c:\projects\paindrain\arduinolcd\test\pain drain\libraries\lvgl\src\misc\lv_color.h **** #else
 143:c:\projects\paindrain\arduinolcd\test\pain drain\libraries\lvgl\src\misc\lv_color.h **** # define LV_COLOR_GET_G16(c) (((c).ch.green_h << 3) + (c).ch.green_l)
 144:c:\projects\paindrain\arduinolcd\test\pain drain\libraries\lvgl\src\misc\lv_color.h **** #endif
 145:c:\projects\paindrain\arduinolcd\test\pain drain\libraries\lvgl\src\misc\lv_color.h **** # define LV_COLOR_GET_B16(c) (c).ch.blue
 146:c:\projects\paindrain\arduinolcd\test\pain drain\libraries\lvgl\src\misc\lv_color.h **** # define LV_COLOR_GET_A16(c) 0xFF
 147:c:\projects\paindrain\arduinolcd\test\pain drain\libraries\lvgl\src\misc\lv_color.h **** 
 148:c:\projects\paindrain\arduinolcd\test\pain drain\libraries\lvgl\src\misc\lv_color.h **** #if LV_COLOR_16_SWAP == 0
 149:c:\projects\paindrain\arduinolcd\test\pain drain\libraries\lvgl\src\misc\lv_color.h **** # define _LV_COLOR_ZERO_INITIALIZER16  {{0x00, 0x00, 0x00}}
 150:c:\projects\paindrain\arduinolcd\test\pain drain\libraries\lvgl\src\misc\lv_color.h **** # define LV_COLOR_MAKE16(r8, g8, b8) {{(uint8_t)((b8 >> 3) & 0x1FU), (uint8_t)((g8 >> 2) & 0x3FU), 
 151:c:\projects\paindrain\arduinolcd\test\pain drain\libraries\lvgl\src\misc\lv_color.h **** #else
 152:c:\projects\paindrain\arduinolcd\test\pain drain\libraries\lvgl\src\misc\lv_color.h **** # define _LV_COLOR_ZERO_INITIALIZER16 {{0x00, 0x00, 0x00, 0x00}}
 153:c:\projects\paindrain\arduinolcd\test\pain drain\libraries\lvgl\src\misc\lv_color.h **** # define LV_COLOR_MAKE16(r8, g8, b8) {{(uint8_t)((g8 >> 5) & 0x7U), (uint8_t)((r8 >> 3) & 0x1FU), (
ARM GAS  C:\Users\haske\AppData\Local\Temp\ccVOiHBd.s 			page 32


 154:c:\projects\paindrain\arduinolcd\test\pain drain\libraries\lvgl\src\misc\lv_color.h **** #endif
 155:c:\projects\paindrain\arduinolcd\test\pain drain\libraries\lvgl\src\misc\lv_color.h **** 
 156:c:\projects\paindrain\arduinolcd\test\pain drain\libraries\lvgl\src\misc\lv_color.h **** # define LV_COLOR_SET_R32(c, v) (c).ch.red = (uint8_t)((v) & 0xFF)
 157:c:\projects\paindrain\arduinolcd\test\pain drain\libraries\lvgl\src\misc\lv_color.h **** # define LV_COLOR_SET_G32(c, v) (c).ch.green = (uint8_t)((v) & 0xFF)
 158:c:\projects\paindrain\arduinolcd\test\pain drain\libraries\lvgl\src\misc\lv_color.h **** # define LV_COLOR_SET_B32(c, v) (c).ch.blue = (uint8_t)((v) & 0xFF)
 159:c:\projects\paindrain\arduinolcd\test\pain drain\libraries\lvgl\src\misc\lv_color.h **** # define LV_COLOR_SET_A32(c, v) (c).ch.alpha = (uint8_t)((v) & 0xFF)
 160:c:\projects\paindrain\arduinolcd\test\pain drain\libraries\lvgl\src\misc\lv_color.h **** 
 161:c:\projects\paindrain\arduinolcd\test\pain drain\libraries\lvgl\src\misc\lv_color.h **** # define LV_COLOR_GET_R32(c) (c).ch.red
 162:c:\projects\paindrain\arduinolcd\test\pain drain\libraries\lvgl\src\misc\lv_color.h **** # define LV_COLOR_GET_G32(c) (c).ch.green
 163:c:\projects\paindrain\arduinolcd\test\pain drain\libraries\lvgl\src\misc\lv_color.h **** # define LV_COLOR_GET_B32(c) (c).ch.blue
 164:c:\projects\paindrain\arduinolcd\test\pain drain\libraries\lvgl\src\misc\lv_color.h **** # define LV_COLOR_GET_A32(c) (c).ch.alpha
 165:c:\projects\paindrain\arduinolcd\test\pain drain\libraries\lvgl\src\misc\lv_color.h **** 
 166:c:\projects\paindrain\arduinolcd\test\pain drain\libraries\lvgl\src\misc\lv_color.h **** # define _LV_COLOR_ZERO_INITIALIZER32  {{0x00, 0x00, 0x00, 0x00}}
 167:c:\projects\paindrain\arduinolcd\test\pain drain\libraries\lvgl\src\misc\lv_color.h **** # define LV_COLOR_MAKE32(r8, g8, b8) {{b8, g8, r8, 0xff}} /*Fix 0xff alpha*/
 168:c:\projects\paindrain\arduinolcd\test\pain drain\libraries\lvgl\src\misc\lv_color.h **** 
 169:c:\projects\paindrain\arduinolcd\test\pain drain\libraries\lvgl\src\misc\lv_color.h **** /*---------------------------------------
 170:c:\projects\paindrain\arduinolcd\test\pain drain\libraries\lvgl\src\misc\lv_color.h ****  * Macros for the current color depth
 171:c:\projects\paindrain\arduinolcd\test\pain drain\libraries\lvgl\src\misc\lv_color.h ****  * to set/get values of the color channels
 172:c:\projects\paindrain\arduinolcd\test\pain drain\libraries\lvgl\src\misc\lv_color.h ****  *------------------------------------------*/
 173:c:\projects\paindrain\arduinolcd\test\pain drain\libraries\lvgl\src\misc\lv_color.h **** #define LV_COLOR_SET_R(c, v) LV_CONCAT(LV_COLOR_SET_R, LV_COLOR_DEPTH)(c, v)
 174:c:\projects\paindrain\arduinolcd\test\pain drain\libraries\lvgl\src\misc\lv_color.h **** #define LV_COLOR_SET_G(c, v) LV_CONCAT(LV_COLOR_SET_G, LV_COLOR_DEPTH)(c, v)
 175:c:\projects\paindrain\arduinolcd\test\pain drain\libraries\lvgl\src\misc\lv_color.h **** #define LV_COLOR_SET_B(c, v) LV_CONCAT(LV_COLOR_SET_B, LV_COLOR_DEPTH)(c, v)
 176:c:\projects\paindrain\arduinolcd\test\pain drain\libraries\lvgl\src\misc\lv_color.h **** #define LV_COLOR_SET_A(c, v) LV_CONCAT(LV_COLOR_SET_A, LV_COLOR_DEPTH)(c, v)
 177:c:\projects\paindrain\arduinolcd\test\pain drain\libraries\lvgl\src\misc\lv_color.h **** 
 178:c:\projects\paindrain\arduinolcd\test\pain drain\libraries\lvgl\src\misc\lv_color.h **** #define LV_COLOR_GET_R(c) LV_CONCAT(LV_COLOR_GET_R, LV_COLOR_DEPTH)(c)
 179:c:\projects\paindrain\arduinolcd\test\pain drain\libraries\lvgl\src\misc\lv_color.h **** #define LV_COLOR_GET_G(c) LV_CONCAT(LV_COLOR_GET_G, LV_COLOR_DEPTH)(c)
 180:c:\projects\paindrain\arduinolcd\test\pain drain\libraries\lvgl\src\misc\lv_color.h **** #define LV_COLOR_GET_B(c) LV_CONCAT(LV_COLOR_GET_B, LV_COLOR_DEPTH)(c)
 181:c:\projects\paindrain\arduinolcd\test\pain drain\libraries\lvgl\src\misc\lv_color.h **** #define LV_COLOR_GET_A(c) LV_CONCAT(LV_COLOR_GET_A, LV_COLOR_DEPTH)(c)
 182:c:\projects\paindrain\arduinolcd\test\pain drain\libraries\lvgl\src\misc\lv_color.h **** 
 183:c:\projects\paindrain\arduinolcd\test\pain drain\libraries\lvgl\src\misc\lv_color.h **** #define _LV_COLOR_ZERO_INITIALIZER LV_CONCAT(_LV_COLOR_ZERO_INITIALIZER, LV_COLOR_DEPTH)
 184:c:\projects\paindrain\arduinolcd\test\pain drain\libraries\lvgl\src\misc\lv_color.h **** #define LV_COLOR_MAKE(r8, g8, b8) LV_CONCAT(LV_COLOR_MAKE, LV_COLOR_DEPTH)(r8, g8, b8)
 185:c:\projects\paindrain\arduinolcd\test\pain drain\libraries\lvgl\src\misc\lv_color.h **** 
 186:c:\projects\paindrain\arduinolcd\test\pain drain\libraries\lvgl\src\misc\lv_color.h **** /**********************
 187:c:\projects\paindrain\arduinolcd\test\pain drain\libraries\lvgl\src\misc\lv_color.h ****  *      TYPEDEFS
 188:c:\projects\paindrain\arduinolcd\test\pain drain\libraries\lvgl\src\misc\lv_color.h ****  **********************/
 189:c:\projects\paindrain\arduinolcd\test\pain drain\libraries\lvgl\src\misc\lv_color.h **** 
 190:c:\projects\paindrain\arduinolcd\test\pain drain\libraries\lvgl\src\misc\lv_color.h **** typedef union {
 191:c:\projects\paindrain\arduinolcd\test\pain drain\libraries\lvgl\src\misc\lv_color.h ****     uint8_t full; /*must be declared first to set all bits of byte via initializer list*/
 192:c:\projects\paindrain\arduinolcd\test\pain drain\libraries\lvgl\src\misc\lv_color.h ****     union {
 193:c:\projects\paindrain\arduinolcd\test\pain drain\libraries\lvgl\src\misc\lv_color.h ****         uint8_t blue : 1;
 194:c:\projects\paindrain\arduinolcd\test\pain drain\libraries\lvgl\src\misc\lv_color.h ****         uint8_t green : 1;
 195:c:\projects\paindrain\arduinolcd\test\pain drain\libraries\lvgl\src\misc\lv_color.h ****         uint8_t red : 1;
 196:c:\projects\paindrain\arduinolcd\test\pain drain\libraries\lvgl\src\misc\lv_color.h ****     } ch;
 197:c:\projects\paindrain\arduinolcd\test\pain drain\libraries\lvgl\src\misc\lv_color.h **** } lv_color1_t;
 198:c:\projects\paindrain\arduinolcd\test\pain drain\libraries\lvgl\src\misc\lv_color.h **** 
 199:c:\projects\paindrain\arduinolcd\test\pain drain\libraries\lvgl\src\misc\lv_color.h **** typedef union {
 200:c:\projects\paindrain\arduinolcd\test\pain drain\libraries\lvgl\src\misc\lv_color.h ****     struct {
 201:c:\projects\paindrain\arduinolcd\test\pain drain\libraries\lvgl\src\misc\lv_color.h ****         uint8_t blue : 2;
 202:c:\projects\paindrain\arduinolcd\test\pain drain\libraries\lvgl\src\misc\lv_color.h ****         uint8_t green : 3;
 203:c:\projects\paindrain\arduinolcd\test\pain drain\libraries\lvgl\src\misc\lv_color.h ****         uint8_t red : 3;
 204:c:\projects\paindrain\arduinolcd\test\pain drain\libraries\lvgl\src\misc\lv_color.h ****     } ch;
 205:c:\projects\paindrain\arduinolcd\test\pain drain\libraries\lvgl\src\misc\lv_color.h ****     uint8_t full;
 206:c:\projects\paindrain\arduinolcd\test\pain drain\libraries\lvgl\src\misc\lv_color.h **** } lv_color8_t;
 207:c:\projects\paindrain\arduinolcd\test\pain drain\libraries\lvgl\src\misc\lv_color.h **** 
 208:c:\projects\paindrain\arduinolcd\test\pain drain\libraries\lvgl\src\misc\lv_color.h **** typedef union {
 209:c:\projects\paindrain\arduinolcd\test\pain drain\libraries\lvgl\src\misc\lv_color.h ****     struct {
 210:c:\projects\paindrain\arduinolcd\test\pain drain\libraries\lvgl\src\misc\lv_color.h **** #if LV_COLOR_16_SWAP == 0
ARM GAS  C:\Users\haske\AppData\Local\Temp\ccVOiHBd.s 			page 33


 211:c:\projects\paindrain\arduinolcd\test\pain drain\libraries\lvgl\src\misc\lv_color.h ****         uint16_t blue : 5;
 212:c:\projects\paindrain\arduinolcd\test\pain drain\libraries\lvgl\src\misc\lv_color.h ****         uint16_t green : 6;
 213:c:\projects\paindrain\arduinolcd\test\pain drain\libraries\lvgl\src\misc\lv_color.h ****         uint16_t red : 5;
 214:c:\projects\paindrain\arduinolcd\test\pain drain\libraries\lvgl\src\misc\lv_color.h **** #else
 215:c:\projects\paindrain\arduinolcd\test\pain drain\libraries\lvgl\src\misc\lv_color.h ****         uint16_t green_h : 3;
 216:c:\projects\paindrain\arduinolcd\test\pain drain\libraries\lvgl\src\misc\lv_color.h ****         uint16_t red : 5;
 217:c:\projects\paindrain\arduinolcd\test\pain drain\libraries\lvgl\src\misc\lv_color.h ****         uint16_t blue : 5;
 218:c:\projects\paindrain\arduinolcd\test\pain drain\libraries\lvgl\src\misc\lv_color.h ****         uint16_t green_l : 3;
 219:c:\projects\paindrain\arduinolcd\test\pain drain\libraries\lvgl\src\misc\lv_color.h **** #endif
 220:c:\projects\paindrain\arduinolcd\test\pain drain\libraries\lvgl\src\misc\lv_color.h ****     } ch;
 221:c:\projects\paindrain\arduinolcd\test\pain drain\libraries\lvgl\src\misc\lv_color.h ****     uint16_t full;
 222:c:\projects\paindrain\arduinolcd\test\pain drain\libraries\lvgl\src\misc\lv_color.h **** } lv_color16_t;
 223:c:\projects\paindrain\arduinolcd\test\pain drain\libraries\lvgl\src\misc\lv_color.h **** 
 224:c:\projects\paindrain\arduinolcd\test\pain drain\libraries\lvgl\src\misc\lv_color.h **** typedef union {
 225:c:\projects\paindrain\arduinolcd\test\pain drain\libraries\lvgl\src\misc\lv_color.h ****     struct {
 226:c:\projects\paindrain\arduinolcd\test\pain drain\libraries\lvgl\src\misc\lv_color.h ****         uint8_t blue;
 227:c:\projects\paindrain\arduinolcd\test\pain drain\libraries\lvgl\src\misc\lv_color.h ****         uint8_t green;
 228:c:\projects\paindrain\arduinolcd\test\pain drain\libraries\lvgl\src\misc\lv_color.h ****         uint8_t red;
 229:c:\projects\paindrain\arduinolcd\test\pain drain\libraries\lvgl\src\misc\lv_color.h ****         uint8_t alpha;
 230:c:\projects\paindrain\arduinolcd\test\pain drain\libraries\lvgl\src\misc\lv_color.h ****     } ch;
 231:c:\projects\paindrain\arduinolcd\test\pain drain\libraries\lvgl\src\misc\lv_color.h ****     uint32_t full;
 232:c:\projects\paindrain\arduinolcd\test\pain drain\libraries\lvgl\src\misc\lv_color.h **** } lv_color32_t;
 233:c:\projects\paindrain\arduinolcd\test\pain drain\libraries\lvgl\src\misc\lv_color.h **** 
 234:c:\projects\paindrain\arduinolcd\test\pain drain\libraries\lvgl\src\misc\lv_color.h **** typedef LV_CONCAT3(uint, LV_COLOR_SIZE, _t) lv_color_int_t;
 235:c:\projects\paindrain\arduinolcd\test\pain drain\libraries\lvgl\src\misc\lv_color.h **** typedef LV_CONCAT3(lv_color, LV_COLOR_DEPTH, _t) lv_color_t;
 236:c:\projects\paindrain\arduinolcd\test\pain drain\libraries\lvgl\src\misc\lv_color.h **** 
 237:c:\projects\paindrain\arduinolcd\test\pain drain\libraries\lvgl\src\misc\lv_color.h **** typedef struct {
 238:c:\projects\paindrain\arduinolcd\test\pain drain\libraries\lvgl\src\misc\lv_color.h ****     uint16_t h;
 239:c:\projects\paindrain\arduinolcd\test\pain drain\libraries\lvgl\src\misc\lv_color.h ****     uint8_t s;
 240:c:\projects\paindrain\arduinolcd\test\pain drain\libraries\lvgl\src\misc\lv_color.h ****     uint8_t v;
 241:c:\projects\paindrain\arduinolcd\test\pain drain\libraries\lvgl\src\misc\lv_color.h **** } lv_color_hsv_t;
 242:c:\projects\paindrain\arduinolcd\test\pain drain\libraries\lvgl\src\misc\lv_color.h **** 
 243:c:\projects\paindrain\arduinolcd\test\pain drain\libraries\lvgl\src\misc\lv_color.h **** //! @cond Doxygen_Suppress
 244:c:\projects\paindrain\arduinolcd\test\pain drain\libraries\lvgl\src\misc\lv_color.h **** /*No idea where the guard is required but else throws warnings in the docs*/
 245:c:\projects\paindrain\arduinolcd\test\pain drain\libraries\lvgl\src\misc\lv_color.h **** typedef uint8_t lv_opa_t;
 246:c:\projects\paindrain\arduinolcd\test\pain drain\libraries\lvgl\src\misc\lv_color.h **** //! @endcond
 247:c:\projects\paindrain\arduinolcd\test\pain drain\libraries\lvgl\src\misc\lv_color.h **** 
 248:c:\projects\paindrain\arduinolcd\test\pain drain\libraries\lvgl\src\misc\lv_color.h **** struct _lv_color_filter_dsc_t;
 249:c:\projects\paindrain\arduinolcd\test\pain drain\libraries\lvgl\src\misc\lv_color.h **** 
 250:c:\projects\paindrain\arduinolcd\test\pain drain\libraries\lvgl\src\misc\lv_color.h **** typedef lv_color_t (*lv_color_filter_cb_t)(const struct _lv_color_filter_dsc_t *, lv_color_t, lv_op
 251:c:\projects\paindrain\arduinolcd\test\pain drain\libraries\lvgl\src\misc\lv_color.h **** 
 252:c:\projects\paindrain\arduinolcd\test\pain drain\libraries\lvgl\src\misc\lv_color.h **** typedef struct _lv_color_filter_dsc_t {
 253:c:\projects\paindrain\arduinolcd\test\pain drain\libraries\lvgl\src\misc\lv_color.h ****     lv_color_filter_cb_t filter_cb;
 254:c:\projects\paindrain\arduinolcd\test\pain drain\libraries\lvgl\src\misc\lv_color.h ****     void * user_data;
 255:c:\projects\paindrain\arduinolcd\test\pain drain\libraries\lvgl\src\misc\lv_color.h **** } lv_color_filter_dsc_t;
 256:c:\projects\paindrain\arduinolcd\test\pain drain\libraries\lvgl\src\misc\lv_color.h **** 
 257:c:\projects\paindrain\arduinolcd\test\pain drain\libraries\lvgl\src\misc\lv_color.h **** 
 258:c:\projects\paindrain\arduinolcd\test\pain drain\libraries\lvgl\src\misc\lv_color.h **** typedef enum {
 259:c:\projects\paindrain\arduinolcd\test\pain drain\libraries\lvgl\src\misc\lv_color.h ****     LV_PALETTE_RED,
 260:c:\projects\paindrain\arduinolcd\test\pain drain\libraries\lvgl\src\misc\lv_color.h ****     LV_PALETTE_PINK,
 261:c:\projects\paindrain\arduinolcd\test\pain drain\libraries\lvgl\src\misc\lv_color.h ****     LV_PALETTE_PURPLE,
 262:c:\projects\paindrain\arduinolcd\test\pain drain\libraries\lvgl\src\misc\lv_color.h ****     LV_PALETTE_DEEP_PURPLE,
 263:c:\projects\paindrain\arduinolcd\test\pain drain\libraries\lvgl\src\misc\lv_color.h ****     LV_PALETTE_INDIGO,
 264:c:\projects\paindrain\arduinolcd\test\pain drain\libraries\lvgl\src\misc\lv_color.h ****     LV_PALETTE_BLUE,
 265:c:\projects\paindrain\arduinolcd\test\pain drain\libraries\lvgl\src\misc\lv_color.h ****     LV_PALETTE_LIGHT_BLUE,
 266:c:\projects\paindrain\arduinolcd\test\pain drain\libraries\lvgl\src\misc\lv_color.h ****     LV_PALETTE_CYAN,
 267:c:\projects\paindrain\arduinolcd\test\pain drain\libraries\lvgl\src\misc\lv_color.h ****     LV_PALETTE_TEAL,
ARM GAS  C:\Users\haske\AppData\Local\Temp\ccVOiHBd.s 			page 34


 268:c:\projects\paindrain\arduinolcd\test\pain drain\libraries\lvgl\src\misc\lv_color.h ****     LV_PALETTE_GREEN,
 269:c:\projects\paindrain\arduinolcd\test\pain drain\libraries\lvgl\src\misc\lv_color.h ****     LV_PALETTE_LIGHT_GREEN,
 270:c:\projects\paindrain\arduinolcd\test\pain drain\libraries\lvgl\src\misc\lv_color.h ****     LV_PALETTE_LIME,
 271:c:\projects\paindrain\arduinolcd\test\pain drain\libraries\lvgl\src\misc\lv_color.h ****     LV_PALETTE_YELLOW,
 272:c:\projects\paindrain\arduinolcd\test\pain drain\libraries\lvgl\src\misc\lv_color.h ****     LV_PALETTE_AMBER,
 273:c:\projects\paindrain\arduinolcd\test\pain drain\libraries\lvgl\src\misc\lv_color.h ****     LV_PALETTE_ORANGE,
 274:c:\projects\paindrain\arduinolcd\test\pain drain\libraries\lvgl\src\misc\lv_color.h ****     LV_PALETTE_DEEP_ORANGE,
 275:c:\projects\paindrain\arduinolcd\test\pain drain\libraries\lvgl\src\misc\lv_color.h ****     LV_PALETTE_BROWN,
 276:c:\projects\paindrain\arduinolcd\test\pain drain\libraries\lvgl\src\misc\lv_color.h ****     LV_PALETTE_BLUE_GREY,
 277:c:\projects\paindrain\arduinolcd\test\pain drain\libraries\lvgl\src\misc\lv_color.h ****     LV_PALETTE_GREY,
 278:c:\projects\paindrain\arduinolcd\test\pain drain\libraries\lvgl\src\misc\lv_color.h ****     _LV_PALETTE_LAST,
 279:c:\projects\paindrain\arduinolcd\test\pain drain\libraries\lvgl\src\misc\lv_color.h ****     LV_PALETTE_NONE = 0xff,
 280:c:\projects\paindrain\arduinolcd\test\pain drain\libraries\lvgl\src\misc\lv_color.h **** } lv_palette_t;
 281:c:\projects\paindrain\arduinolcd\test\pain drain\libraries\lvgl\src\misc\lv_color.h **** 
 282:c:\projects\paindrain\arduinolcd\test\pain drain\libraries\lvgl\src\misc\lv_color.h **** /**********************
 283:c:\projects\paindrain\arduinolcd\test\pain drain\libraries\lvgl\src\misc\lv_color.h ****  * GLOBAL PROTOTYPES
 284:c:\projects\paindrain\arduinolcd\test\pain drain\libraries\lvgl\src\misc\lv_color.h ****  **********************/
 285:c:\projects\paindrain\arduinolcd\test\pain drain\libraries\lvgl\src\misc\lv_color.h **** 
 286:c:\projects\paindrain\arduinolcd\test\pain drain\libraries\lvgl\src\misc\lv_color.h **** /*In color conversations:
 287:c:\projects\paindrain\arduinolcd\test\pain drain\libraries\lvgl\src\misc\lv_color.h ****  * - When converting to bigger color type the LSB weight of 1 LSB is calculated
 288:c:\projects\paindrain\arduinolcd\test\pain drain\libraries\lvgl\src\misc\lv_color.h ****  *   E.g. 16 bit Red has 5 bits
 289:c:\projects\paindrain\arduinolcd\test\pain drain\libraries\lvgl\src\misc\lv_color.h ****  *         8 bit Red has 3 bits
 290:c:\projects\paindrain\arduinolcd\test\pain drain\libraries\lvgl\src\misc\lv_color.h ****  *        ----------------------
 291:c:\projects\paindrain\arduinolcd\test\pain drain\libraries\lvgl\src\misc\lv_color.h ****  *        8 bit red LSB = (2^5 - 1) / (2^3 - 1) = 31 / 7 = 4
 292:c:\projects\paindrain\arduinolcd\test\pain drain\libraries\lvgl\src\misc\lv_color.h ****  *
 293:c:\projects\paindrain\arduinolcd\test\pain drain\libraries\lvgl\src\misc\lv_color.h ****  * - When calculating to smaller color type simply shift out the LSBs
 294:c:\projects\paindrain\arduinolcd\test\pain drain\libraries\lvgl\src\misc\lv_color.h ****  *   E.g.  8 bit Red has 3 bits
 295:c:\projects\paindrain\arduinolcd\test\pain drain\libraries\lvgl\src\misc\lv_color.h ****  *        16 bit Red has 5 bits
 296:c:\projects\paindrain\arduinolcd\test\pain drain\libraries\lvgl\src\misc\lv_color.h ****  *        ----------------------
 297:c:\projects\paindrain\arduinolcd\test\pain drain\libraries\lvgl\src\misc\lv_color.h ****  *         Shift right with 5 - 3 = 2
 298:c:\projects\paindrain\arduinolcd\test\pain drain\libraries\lvgl\src\misc\lv_color.h ****  */
 299:c:\projects\paindrain\arduinolcd\test\pain drain\libraries\lvgl\src\misc\lv_color.h **** static inline uint8_t lv_color_to1(lv_color_t color)
 300:c:\projects\paindrain\arduinolcd\test\pain drain\libraries\lvgl\src\misc\lv_color.h **** {
 301:c:\projects\paindrain\arduinolcd\test\pain drain\libraries\lvgl\src\misc\lv_color.h **** #if LV_COLOR_DEPTH == 1
 302:c:\projects\paindrain\arduinolcd\test\pain drain\libraries\lvgl\src\misc\lv_color.h ****     return color.full;
 303:c:\projects\paindrain\arduinolcd\test\pain drain\libraries\lvgl\src\misc\lv_color.h **** #elif LV_COLOR_DEPTH == 8
 304:c:\projects\paindrain\arduinolcd\test\pain drain\libraries\lvgl\src\misc\lv_color.h ****     if((LV_COLOR_GET_R(color) & 0x4) || (LV_COLOR_GET_G(color) & 0x4) || (LV_COLOR_GET_B(color) & 0
 305:c:\projects\paindrain\arduinolcd\test\pain drain\libraries\lvgl\src\misc\lv_color.h ****         return 1;
 306:c:\projects\paindrain\arduinolcd\test\pain drain\libraries\lvgl\src\misc\lv_color.h ****     }
 307:c:\projects\paindrain\arduinolcd\test\pain drain\libraries\lvgl\src\misc\lv_color.h ****     else {
 308:c:\projects\paindrain\arduinolcd\test\pain drain\libraries\lvgl\src\misc\lv_color.h ****         return 0;
 309:c:\projects\paindrain\arduinolcd\test\pain drain\libraries\lvgl\src\misc\lv_color.h ****     }
 310:c:\projects\paindrain\arduinolcd\test\pain drain\libraries\lvgl\src\misc\lv_color.h **** #elif LV_COLOR_DEPTH == 16
 311:c:\projects\paindrain\arduinolcd\test\pain drain\libraries\lvgl\src\misc\lv_color.h ****     if((LV_COLOR_GET_R(color) & 0x10) || (LV_COLOR_GET_G(color) & 0x20) || (LV_COLOR_GET_B(color) &
 312:c:\projects\paindrain\arduinolcd\test\pain drain\libraries\lvgl\src\misc\lv_color.h ****         return 1;
 313:c:\projects\paindrain\arduinolcd\test\pain drain\libraries\lvgl\src\misc\lv_color.h ****     }
 314:c:\projects\paindrain\arduinolcd\test\pain drain\libraries\lvgl\src\misc\lv_color.h ****     else {
 315:c:\projects\paindrain\arduinolcd\test\pain drain\libraries\lvgl\src\misc\lv_color.h ****         return 0;
 316:c:\projects\paindrain\arduinolcd\test\pain drain\libraries\lvgl\src\misc\lv_color.h ****     }
 317:c:\projects\paindrain\arduinolcd\test\pain drain\libraries\lvgl\src\misc\lv_color.h **** #elif LV_COLOR_DEPTH == 32
 318:c:\projects\paindrain\arduinolcd\test\pain drain\libraries\lvgl\src\misc\lv_color.h ****     if((LV_COLOR_GET_R(color) & 0x80) || (LV_COLOR_GET_G(color) & 0x80) || (LV_COLOR_GET_B(color) &
 319:c:\projects\paindrain\arduinolcd\test\pain drain\libraries\lvgl\src\misc\lv_color.h ****         return 1;
 320:c:\projects\paindrain\arduinolcd\test\pain drain\libraries\lvgl\src\misc\lv_color.h ****     }
 321:c:\projects\paindrain\arduinolcd\test\pain drain\libraries\lvgl\src\misc\lv_color.h ****     else {
 322:c:\projects\paindrain\arduinolcd\test\pain drain\libraries\lvgl\src\misc\lv_color.h ****         return 0;
 323:c:\projects\paindrain\arduinolcd\test\pain drain\libraries\lvgl\src\misc\lv_color.h ****     }
 324:c:\projects\paindrain\arduinolcd\test\pain drain\libraries\lvgl\src\misc\lv_color.h **** #endif
ARM GAS  C:\Users\haske\AppData\Local\Temp\ccVOiHBd.s 			page 35


 325:c:\projects\paindrain\arduinolcd\test\pain drain\libraries\lvgl\src\misc\lv_color.h **** }
 326:c:\projects\paindrain\arduinolcd\test\pain drain\libraries\lvgl\src\misc\lv_color.h **** 
 327:c:\projects\paindrain\arduinolcd\test\pain drain\libraries\lvgl\src\misc\lv_color.h **** static inline uint8_t lv_color_to8(lv_color_t color)
 328:c:\projects\paindrain\arduinolcd\test\pain drain\libraries\lvgl\src\misc\lv_color.h **** {
 329:c:\projects\paindrain\arduinolcd\test\pain drain\libraries\lvgl\src\misc\lv_color.h **** #if LV_COLOR_DEPTH == 1
 330:c:\projects\paindrain\arduinolcd\test\pain drain\libraries\lvgl\src\misc\lv_color.h ****     if(color.full == 0)
 331:c:\projects\paindrain\arduinolcd\test\pain drain\libraries\lvgl\src\misc\lv_color.h ****         return 0;
 332:c:\projects\paindrain\arduinolcd\test\pain drain\libraries\lvgl\src\misc\lv_color.h ****     else
 333:c:\projects\paindrain\arduinolcd\test\pain drain\libraries\lvgl\src\misc\lv_color.h ****         return 0xFF;
 334:c:\projects\paindrain\arduinolcd\test\pain drain\libraries\lvgl\src\misc\lv_color.h **** #elif LV_COLOR_DEPTH == 8
 335:c:\projects\paindrain\arduinolcd\test\pain drain\libraries\lvgl\src\misc\lv_color.h ****     return color.full;
 336:c:\projects\paindrain\arduinolcd\test\pain drain\libraries\lvgl\src\misc\lv_color.h **** #elif LV_COLOR_DEPTH == 16
 337:c:\projects\paindrain\arduinolcd\test\pain drain\libraries\lvgl\src\misc\lv_color.h ****     lv_color8_t ret;
 338:c:\projects\paindrain\arduinolcd\test\pain drain\libraries\lvgl\src\misc\lv_color.h ****     LV_COLOR_SET_R8(ret, LV_COLOR_GET_R(color) >> 2); /*5 - 3  = 2*/
 339:c:\projects\paindrain\arduinolcd\test\pain drain\libraries\lvgl\src\misc\lv_color.h ****     LV_COLOR_SET_G8(ret, LV_COLOR_GET_G(color) >> 3); /*6 - 3  = 3*/
 340:c:\projects\paindrain\arduinolcd\test\pain drain\libraries\lvgl\src\misc\lv_color.h ****     LV_COLOR_SET_B8(ret, LV_COLOR_GET_B(color) >> 3); /*5 - 2  = 3*/
 341:c:\projects\paindrain\arduinolcd\test\pain drain\libraries\lvgl\src\misc\lv_color.h ****     return ret.full;
 342:c:\projects\paindrain\arduinolcd\test\pain drain\libraries\lvgl\src\misc\lv_color.h **** #elif LV_COLOR_DEPTH == 32
 343:c:\projects\paindrain\arduinolcd\test\pain drain\libraries\lvgl\src\misc\lv_color.h ****     lv_color8_t ret;
 344:c:\projects\paindrain\arduinolcd\test\pain drain\libraries\lvgl\src\misc\lv_color.h ****     LV_COLOR_SET_R8(ret, LV_COLOR_GET_R(color) >> 5); /*8 - 3  = 5*/
 345:c:\projects\paindrain\arduinolcd\test\pain drain\libraries\lvgl\src\misc\lv_color.h ****     LV_COLOR_SET_G8(ret, LV_COLOR_GET_G(color) >> 5); /*8 - 3  = 5*/
 346:c:\projects\paindrain\arduinolcd\test\pain drain\libraries\lvgl\src\misc\lv_color.h ****     LV_COLOR_SET_B8(ret, LV_COLOR_GET_B(color) >> 6); /*8 - 2  = 6*/
 347:c:\projects\paindrain\arduinolcd\test\pain drain\libraries\lvgl\src\misc\lv_color.h ****     return ret.full;
 348:c:\projects\paindrain\arduinolcd\test\pain drain\libraries\lvgl\src\misc\lv_color.h **** #endif
 349:c:\projects\paindrain\arduinolcd\test\pain drain\libraries\lvgl\src\misc\lv_color.h **** }
 350:c:\projects\paindrain\arduinolcd\test\pain drain\libraries\lvgl\src\misc\lv_color.h **** 
 351:c:\projects\paindrain\arduinolcd\test\pain drain\libraries\lvgl\src\misc\lv_color.h **** static inline uint16_t lv_color_to16(lv_color_t color)
 352:c:\projects\paindrain\arduinolcd\test\pain drain\libraries\lvgl\src\misc\lv_color.h **** {
 353:c:\projects\paindrain\arduinolcd\test\pain drain\libraries\lvgl\src\misc\lv_color.h **** #if LV_COLOR_DEPTH == 1
 354:c:\projects\paindrain\arduinolcd\test\pain drain\libraries\lvgl\src\misc\lv_color.h ****     if(color.full == 0)
 355:c:\projects\paindrain\arduinolcd\test\pain drain\libraries\lvgl\src\misc\lv_color.h ****         return 0;
 356:c:\projects\paindrain\arduinolcd\test\pain drain\libraries\lvgl\src\misc\lv_color.h ****     else
 357:c:\projects\paindrain\arduinolcd\test\pain drain\libraries\lvgl\src\misc\lv_color.h ****         return 0xFFFF;
 358:c:\projects\paindrain\arduinolcd\test\pain drain\libraries\lvgl\src\misc\lv_color.h **** #elif LV_COLOR_DEPTH == 8
 359:c:\projects\paindrain\arduinolcd\test\pain drain\libraries\lvgl\src\misc\lv_color.h ****     lv_color16_t ret;
 360:c:\projects\paindrain\arduinolcd\test\pain drain\libraries\lvgl\src\misc\lv_color.h ****     LV_COLOR_SET_R16(ret, LV_COLOR_GET_R(color) * 4);  /*(2^5 - 1)/(2^3 - 1) = 31/7 = 4*/
 361:c:\projects\paindrain\arduinolcd\test\pain drain\libraries\lvgl\src\misc\lv_color.h ****     LV_COLOR_SET_G16(ret, LV_COLOR_GET_G(color) * 9);  /*(2^6 - 1)/(2^3 - 1) = 63/7 = 9*/
 362:c:\projects\paindrain\arduinolcd\test\pain drain\libraries\lvgl\src\misc\lv_color.h ****     LV_COLOR_SET_B16(ret, LV_COLOR_GET_B(color) * 10); /*(2^5 - 1)/(2^2 - 1) = 31/3 = 10*/
 363:c:\projects\paindrain\arduinolcd\test\pain drain\libraries\lvgl\src\misc\lv_color.h ****     return ret.full;
 364:c:\projects\paindrain\arduinolcd\test\pain drain\libraries\lvgl\src\misc\lv_color.h **** #elif LV_COLOR_DEPTH == 16
 365:c:\projects\paindrain\arduinolcd\test\pain drain\libraries\lvgl\src\misc\lv_color.h ****     return color.full;
 366:c:\projects\paindrain\arduinolcd\test\pain drain\libraries\lvgl\src\misc\lv_color.h **** #elif LV_COLOR_DEPTH == 32
 367:c:\projects\paindrain\arduinolcd\test\pain drain\libraries\lvgl\src\misc\lv_color.h ****     lv_color16_t ret;
 368:c:\projects\paindrain\arduinolcd\test\pain drain\libraries\lvgl\src\misc\lv_color.h ****     LV_COLOR_SET_R16(ret, LV_COLOR_GET_R(color) >> 3); /*8 - 5  = 3*/
 369:c:\projects\paindrain\arduinolcd\test\pain drain\libraries\lvgl\src\misc\lv_color.h ****     LV_COLOR_SET_G16(ret, LV_COLOR_GET_G(color) >> 2); /*8 - 6  = 2*/
 370:c:\projects\paindrain\arduinolcd\test\pain drain\libraries\lvgl\src\misc\lv_color.h ****     LV_COLOR_SET_B16(ret, LV_COLOR_GET_B(color) >> 3); /*8 - 5  = 3*/
 371:c:\projects\paindrain\arduinolcd\test\pain drain\libraries\lvgl\src\misc\lv_color.h ****     return ret.full;
 372:c:\projects\paindrain\arduinolcd\test\pain drain\libraries\lvgl\src\misc\lv_color.h **** #endif
 373:c:\projects\paindrain\arduinolcd\test\pain drain\libraries\lvgl\src\misc\lv_color.h **** }
 374:c:\projects\paindrain\arduinolcd\test\pain drain\libraries\lvgl\src\misc\lv_color.h **** 
 375:c:\projects\paindrain\arduinolcd\test\pain drain\libraries\lvgl\src\misc\lv_color.h **** static inline uint32_t lv_color_to32(lv_color_t color)
 376:c:\projects\paindrain\arduinolcd\test\pain drain\libraries\lvgl\src\misc\lv_color.h **** {
 377:c:\projects\paindrain\arduinolcd\test\pain drain\libraries\lvgl\src\misc\lv_color.h **** #if LV_COLOR_DEPTH == 1
 378:c:\projects\paindrain\arduinolcd\test\pain drain\libraries\lvgl\src\misc\lv_color.h ****     if(color.full == 0)
 379:c:\projects\paindrain\arduinolcd\test\pain drain\libraries\lvgl\src\misc\lv_color.h ****         return 0xFF000000;
 380:c:\projects\paindrain\arduinolcd\test\pain drain\libraries\lvgl\src\misc\lv_color.h ****     else
 381:c:\projects\paindrain\arduinolcd\test\pain drain\libraries\lvgl\src\misc\lv_color.h ****         return 0xFFFFFFFF;
ARM GAS  C:\Users\haske\AppData\Local\Temp\ccVOiHBd.s 			page 36


 382:c:\projects\paindrain\arduinolcd\test\pain drain\libraries\lvgl\src\misc\lv_color.h **** #elif LV_COLOR_DEPTH == 8
 383:c:\projects\paindrain\arduinolcd\test\pain drain\libraries\lvgl\src\misc\lv_color.h ****     lv_color32_t ret;
 384:c:\projects\paindrain\arduinolcd\test\pain drain\libraries\lvgl\src\misc\lv_color.h ****     LV_COLOR_SET_R32(ret, LV_COLOR_GET_R(color) * 36); /*(2^8 - 1)/(2^3 - 1) = 255/7 = 36*/
 385:c:\projects\paindrain\arduinolcd\test\pain drain\libraries\lvgl\src\misc\lv_color.h ****     LV_COLOR_SET_G32(ret, LV_COLOR_GET_G(color) * 36); /*(2^8 - 1)/(2^3 - 1) = 255/7 = 36*/
 386:c:\projects\paindrain\arduinolcd\test\pain drain\libraries\lvgl\src\misc\lv_color.h ****     LV_COLOR_SET_B32(ret, LV_COLOR_GET_B(color) * 85); /*(2^8 - 1)/(2^2 - 1) = 255/3 = 85*/
 387:c:\projects\paindrain\arduinolcd\test\pain drain\libraries\lvgl\src\misc\lv_color.h ****     LV_COLOR_SET_A32(ret, 0xFF);
 388:c:\projects\paindrain\arduinolcd\test\pain drain\libraries\lvgl\src\misc\lv_color.h ****     return ret.full;
 389:c:\projects\paindrain\arduinolcd\test\pain drain\libraries\lvgl\src\misc\lv_color.h **** #elif LV_COLOR_DEPTH == 16
 390:c:\projects\paindrain\arduinolcd\test\pain drain\libraries\lvgl\src\misc\lv_color.h ****     /**
 391:c:\projects\paindrain\arduinolcd\test\pain drain\libraries\lvgl\src\misc\lv_color.h ****      * The floating point math for conversion is:
 392:c:\projects\paindrain\arduinolcd\test\pain drain\libraries\lvgl\src\misc\lv_color.h ****      *  valueto = valuefrom * ( (2^bitsto - 1) / (float)(2^bitsfrom - 1) )
 393:c:\projects\paindrain\arduinolcd\test\pain drain\libraries\lvgl\src\misc\lv_color.h ****      * The faster integer math for conversion is:
 394:c:\projects\paindrain\arduinolcd\test\pain drain\libraries\lvgl\src\misc\lv_color.h ****      *  valueto = ( valuefrom * multiplier + adder ) >> divisor
 395:c:\projects\paindrain\arduinolcd\test\pain drain\libraries\lvgl\src\misc\lv_color.h ****      *   multiplier = FLOOR( ( (2^bitsto - 1) << divisor ) / (float)(2^bitsfrom - 1) )
 396:c:\projects\paindrain\arduinolcd\test\pain drain\libraries\lvgl\src\misc\lv_color.h ****      *
 397:c:\projects\paindrain\arduinolcd\test\pain drain\libraries\lvgl\src\misc\lv_color.h ****      * Find the first divisor where ( adder >> divisor ) <= 0
 398:c:\projects\paindrain\arduinolcd\test\pain drain\libraries\lvgl\src\misc\lv_color.h ****      *
 399:c:\projects\paindrain\arduinolcd\test\pain drain\libraries\lvgl\src\misc\lv_color.h ****      * 5-bit to 8-bit: ( 31 * multiplier + adder ) >> divisor = 255
 400:c:\projects\paindrain\arduinolcd\test\pain drain\libraries\lvgl\src\misc\lv_color.h ****      * divisor  multiplier  adder  min (0)  max (31)
 401:c:\projects\paindrain\arduinolcd\test\pain drain\libraries\lvgl\src\misc\lv_color.h ****      *       0           8      7        7       255
 402:c:\projects\paindrain\arduinolcd\test\pain drain\libraries\lvgl\src\misc\lv_color.h ****      *       1          16     14        7       255
 403:c:\projects\paindrain\arduinolcd\test\pain drain\libraries\lvgl\src\misc\lv_color.h ****      *       2          32     28        7       255
 404:c:\projects\paindrain\arduinolcd\test\pain drain\libraries\lvgl\src\misc\lv_color.h ****      *       3          65     25        3       255
 405:c:\projects\paindrain\arduinolcd\test\pain drain\libraries\lvgl\src\misc\lv_color.h ****      *       4         131     19        1       255
 406:c:\projects\paindrain\arduinolcd\test\pain drain\libraries\lvgl\src\misc\lv_color.h ****      *       5         263      7        0       255
 407:c:\projects\paindrain\arduinolcd\test\pain drain\libraries\lvgl\src\misc\lv_color.h ****      *
 408:c:\projects\paindrain\arduinolcd\test\pain drain\libraries\lvgl\src\misc\lv_color.h ****      * 6-bit to 8-bit: 255 = ( 63 * multiplier + adder ) >> divisor
 409:c:\projects\paindrain\arduinolcd\test\pain drain\libraries\lvgl\src\misc\lv_color.h ****      * divisor  multiplier  adder  min (0)  max (63)
 410:c:\projects\paindrain\arduinolcd\test\pain drain\libraries\lvgl\src\misc\lv_color.h ****      *       0           4      3        3       255
 411:c:\projects\paindrain\arduinolcd\test\pain drain\libraries\lvgl\src\misc\lv_color.h ****      *       1           8      6        3       255
 412:c:\projects\paindrain\arduinolcd\test\pain drain\libraries\lvgl\src\misc\lv_color.h ****      *       2          16     12        3       255
 413:c:\projects\paindrain\arduinolcd\test\pain drain\libraries\lvgl\src\misc\lv_color.h ****      *       3          32     24        3       255
 414:c:\projects\paindrain\arduinolcd\test\pain drain\libraries\lvgl\src\misc\lv_color.h ****      *       4          64     48        3       255
 415:c:\projects\paindrain\arduinolcd\test\pain drain\libraries\lvgl\src\misc\lv_color.h ****      *       5         129     33        1       255
 416:c:\projects\paindrain\arduinolcd\test\pain drain\libraries\lvgl\src\misc\lv_color.h ****      *       6         259      3        0       255
 417:c:\projects\paindrain\arduinolcd\test\pain drain\libraries\lvgl\src\misc\lv_color.h ****      */
 418:c:\projects\paindrain\arduinolcd\test\pain drain\libraries\lvgl\src\misc\lv_color.h **** 
 419:c:\projects\paindrain\arduinolcd\test\pain drain\libraries\lvgl\src\misc\lv_color.h ****     lv_color32_t ret;
 420:c:\projects\paindrain\arduinolcd\test\pain drain\libraries\lvgl\src\misc\lv_color.h ****     LV_COLOR_SET_R32(ret, (LV_COLOR_GET_R(color) * 263 + 7) >> 5);
 421:c:\projects\paindrain\arduinolcd\test\pain drain\libraries\lvgl\src\misc\lv_color.h ****     LV_COLOR_SET_G32(ret, (LV_COLOR_GET_G(color) * 259 + 3) >> 6);
 422:c:\projects\paindrain\arduinolcd\test\pain drain\libraries\lvgl\src\misc\lv_color.h ****     LV_COLOR_SET_B32(ret, (LV_COLOR_GET_B(color) * 263 + 7) >> 5);
 423:c:\projects\paindrain\arduinolcd\test\pain drain\libraries\lvgl\src\misc\lv_color.h ****     LV_COLOR_SET_A32(ret, 0xFF);
 424:c:\projects\paindrain\arduinolcd\test\pain drain\libraries\lvgl\src\misc\lv_color.h ****     return ret.full;
 425:c:\projects\paindrain\arduinolcd\test\pain drain\libraries\lvgl\src\misc\lv_color.h **** #elif LV_COLOR_DEPTH == 32
 426:c:\projects\paindrain\arduinolcd\test\pain drain\libraries\lvgl\src\misc\lv_color.h ****     return color.full;
 427:c:\projects\paindrain\arduinolcd\test\pain drain\libraries\lvgl\src\misc\lv_color.h **** #endif
 428:c:\projects\paindrain\arduinolcd\test\pain drain\libraries\lvgl\src\misc\lv_color.h **** }
 429:c:\projects\paindrain\arduinolcd\test\pain drain\libraries\lvgl\src\misc\lv_color.h **** 
 430:c:\projects\paindrain\arduinolcd\test\pain drain\libraries\lvgl\src\misc\lv_color.h **** //! @cond Doxygen_Suppress
 431:c:\projects\paindrain\arduinolcd\test\pain drain\libraries\lvgl\src\misc\lv_color.h **** 
 432:c:\projects\paindrain\arduinolcd\test\pain drain\libraries\lvgl\src\misc\lv_color.h **** /**
 433:c:\projects\paindrain\arduinolcd\test\pain drain\libraries\lvgl\src\misc\lv_color.h ****  * Mix two colors with a given ratio.
 434:c:\projects\paindrain\arduinolcd\test\pain drain\libraries\lvgl\src\misc\lv_color.h ****  * @param c1 the first color to mix (usually the foreground)
 435:c:\projects\paindrain\arduinolcd\test\pain drain\libraries\lvgl\src\misc\lv_color.h ****  * @param c2 the second color to mix (usually the background)
 436:c:\projects\paindrain\arduinolcd\test\pain drain\libraries\lvgl\src\misc\lv_color.h ****  * @param mix The ratio of the colors. 0: full `c2`, 255: full `c1`, 127: half `c1` and half`c2`
 437:c:\projects\paindrain\arduinolcd\test\pain drain\libraries\lvgl\src\misc\lv_color.h ****  * @return the mixed color
 438:c:\projects\paindrain\arduinolcd\test\pain drain\libraries\lvgl\src\misc\lv_color.h ****  */
ARM GAS  C:\Users\haske\AppData\Local\Temp\ccVOiHBd.s 			page 37


 439:c:\projects\paindrain\arduinolcd\test\pain drain\libraries\lvgl\src\misc\lv_color.h **** LV_ATTRIBUTE_FAST_MEM static inline lv_color_t lv_color_mix(lv_color_t c1, lv_color_t c2, uint8_t m
 440:c:\projects\paindrain\arduinolcd\test\pain drain\libraries\lvgl\src\misc\lv_color.h **** {
 441:c:\projects\paindrain\arduinolcd\test\pain drain\libraries\lvgl\src\misc\lv_color.h ****     lv_color_t ret;
 442:c:\projects\paindrain\arduinolcd\test\pain drain\libraries\lvgl\src\misc\lv_color.h **** 
 443:c:\projects\paindrain\arduinolcd\test\pain drain\libraries\lvgl\src\misc\lv_color.h **** #if LV_COLOR_DEPTH == 16 && LV_COLOR_16_SWAP == 0 && LV_COLOR_MIX_ROUND_OFS == 0
 444:c:\projects\paindrain\arduinolcd\test\pain drain\libraries\lvgl\src\misc\lv_color.h ****     /*Source: https://stackoverflow.com/a/50012418/1999969*/
 445:c:\projects\paindrain\arduinolcd\test\pain drain\libraries\lvgl\src\misc\lv_color.h ****     mix = (uint32_t)((uint32_t)mix + 4) >> 3;
 446:c:\projects\paindrain\arduinolcd\test\pain drain\libraries\lvgl\src\misc\lv_color.h ****     uint32_t bg = (uint32_t)((uint32_t)c2.full | ((uint32_t)c2.full << 16)) &
 447:c:\projects\paindrain\arduinolcd\test\pain drain\libraries\lvgl\src\misc\lv_color.h ****                   0x7E0F81F; /*0b00000111111000001111100000011111*/
 448:c:\projects\paindrain\arduinolcd\test\pain drain\libraries\lvgl\src\misc\lv_color.h ****     uint32_t fg = (uint32_t)((uint32_t)c1.full | ((uint32_t)c1.full << 16)) & 0x7E0F81F;
 449:c:\projects\paindrain\arduinolcd\test\pain drain\libraries\lvgl\src\misc\lv_color.h ****     uint32_t result = ((((fg - bg) * mix) >> 5) + bg) & 0x7E0F81F;
 450:c:\projects\paindrain\arduinolcd\test\pain drain\libraries\lvgl\src\misc\lv_color.h ****     ret.full = (uint16_t)((result >> 16) | result);
 451:c:\projects\paindrain\arduinolcd\test\pain drain\libraries\lvgl\src\misc\lv_color.h **** #elif LV_COLOR_DEPTH != 1
 452:c:\projects\paindrain\arduinolcd\test\pain drain\libraries\lvgl\src\misc\lv_color.h ****     /*LV_COLOR_DEPTH == 8, 16 or 32*/
 453:c:\projects\paindrain\arduinolcd\test\pain drain\libraries\lvgl\src\misc\lv_color.h ****     LV_COLOR_SET_R(ret, LV_UDIV255((uint16_t)LV_COLOR_GET_R(c1) * mix + LV_COLOR_GET_R(c2) *
 454:c:\projects\paindrain\arduinolcd\test\pain drain\libraries\lvgl\src\misc\lv_color.h ****                                    (255 - mix) + LV_COLOR_MIX_ROUND_OFS));
 455:c:\projects\paindrain\arduinolcd\test\pain drain\libraries\lvgl\src\misc\lv_color.h ****     LV_COLOR_SET_G(ret, LV_UDIV255((uint16_t)LV_COLOR_GET_G(c1) * mix + LV_COLOR_GET_G(c2) *
 456:c:\projects\paindrain\arduinolcd\test\pain drain\libraries\lvgl\src\misc\lv_color.h ****                                    (255 - mix) + LV_COLOR_MIX_ROUND_OFS));
 457:c:\projects\paindrain\arduinolcd\test\pain drain\libraries\lvgl\src\misc\lv_color.h ****     LV_COLOR_SET_B(ret, LV_UDIV255((uint16_t)LV_COLOR_GET_B(c1) * mix + LV_COLOR_GET_B(c2) *
 458:c:\projects\paindrain\arduinolcd\test\pain drain\libraries\lvgl\src\misc\lv_color.h ****                                    (255 - mix) + LV_COLOR_MIX_ROUND_OFS));
 459:c:\projects\paindrain\arduinolcd\test\pain drain\libraries\lvgl\src\misc\lv_color.h ****     LV_COLOR_SET_A(ret, 0xFF);
 460:c:\projects\paindrain\arduinolcd\test\pain drain\libraries\lvgl\src\misc\lv_color.h **** #else
 461:c:\projects\paindrain\arduinolcd\test\pain drain\libraries\lvgl\src\misc\lv_color.h ****     /*LV_COLOR_DEPTH == 1*/
 462:c:\projects\paindrain\arduinolcd\test\pain drain\libraries\lvgl\src\misc\lv_color.h ****     ret.full = mix > LV_OPA_50 ? c1.full : c2.full;
 463:c:\projects\paindrain\arduinolcd\test\pain drain\libraries\lvgl\src\misc\lv_color.h **** #endif
 464:c:\projects\paindrain\arduinolcd\test\pain drain\libraries\lvgl\src\misc\lv_color.h **** 
 465:c:\projects\paindrain\arduinolcd\test\pain drain\libraries\lvgl\src\misc\lv_color.h ****     return ret;
 466:c:\projects\paindrain\arduinolcd\test\pain drain\libraries\lvgl\src\misc\lv_color.h **** }
 467:c:\projects\paindrain\arduinolcd\test\pain drain\libraries\lvgl\src\misc\lv_color.h **** 
 468:c:\projects\paindrain\arduinolcd\test\pain drain\libraries\lvgl\src\misc\lv_color.h **** LV_ATTRIBUTE_FAST_MEM static inline void lv_color_premult(lv_color_t c, uint8_t mix, uint16_t * out
 469:c:\projects\paindrain\arduinolcd\test\pain drain\libraries\lvgl\src\misc\lv_color.h **** {
 470:c:\projects\paindrain\arduinolcd\test\pain drain\libraries\lvgl\src\misc\lv_color.h **** #if LV_COLOR_DEPTH != 1
 471:c:\projects\paindrain\arduinolcd\test\pain drain\libraries\lvgl\src\misc\lv_color.h ****     out[0] = (uint16_t)LV_COLOR_GET_R(c) * mix;
 472:c:\projects\paindrain\arduinolcd\test\pain drain\libraries\lvgl\src\misc\lv_color.h ****     out[1] = (uint16_t)LV_COLOR_GET_G(c) * mix;
 473:c:\projects\paindrain\arduinolcd\test\pain drain\libraries\lvgl\src\misc\lv_color.h ****     out[2] = (uint16_t)LV_COLOR_GET_B(c) * mix;
 474:c:\projects\paindrain\arduinolcd\test\pain drain\libraries\lvgl\src\misc\lv_color.h **** #else
 475:c:\projects\paindrain\arduinolcd\test\pain drain\libraries\lvgl\src\misc\lv_color.h ****     (void) mix;
 476:c:\projects\paindrain\arduinolcd\test\pain drain\libraries\lvgl\src\misc\lv_color.h ****     /*Pre-multiplication can't be used with 1 bpp*/
 477:c:\projects\paindrain\arduinolcd\test\pain drain\libraries\lvgl\src\misc\lv_color.h ****     out[0] = LV_COLOR_GET_R(c);
 478:c:\projects\paindrain\arduinolcd\test\pain drain\libraries\lvgl\src\misc\lv_color.h ****     out[1] = LV_COLOR_GET_G(c);
 479:c:\projects\paindrain\arduinolcd\test\pain drain\libraries\lvgl\src\misc\lv_color.h ****     out[2] = LV_COLOR_GET_B(c);
 480:c:\projects\paindrain\arduinolcd\test\pain drain\libraries\lvgl\src\misc\lv_color.h **** #endif
 481:c:\projects\paindrain\arduinolcd\test\pain drain\libraries\lvgl\src\misc\lv_color.h **** 
 482:c:\projects\paindrain\arduinolcd\test\pain drain\libraries\lvgl\src\misc\lv_color.h **** }
 483:c:\projects\paindrain\arduinolcd\test\pain drain\libraries\lvgl\src\misc\lv_color.h **** 
 484:c:\projects\paindrain\arduinolcd\test\pain drain\libraries\lvgl\src\misc\lv_color.h **** /**
 485:c:\projects\paindrain\arduinolcd\test\pain drain\libraries\lvgl\src\misc\lv_color.h ****  * Mix two colors with a given ratio. It runs faster then `lv_color_mix` but requires some pre comp
 486:c:\projects\paindrain\arduinolcd\test\pain drain\libraries\lvgl\src\misc\lv_color.h ****  * @param premult_c1 The first color. Should be preprocessed with `lv_color_premult(c1)`
 487:c:\projects\paindrain\arduinolcd\test\pain drain\libraries\lvgl\src\misc\lv_color.h ****  * @param c2 The second color. As it is no pre computation required on it
 488:c:\projects\paindrain\arduinolcd\test\pain drain\libraries\lvgl\src\misc\lv_color.h ****  * @param mix The ratio of the colors. 0: full `c1`, 255: full `c2`, 127: half `c1` and half `c2`.
 489:c:\projects\paindrain\arduinolcd\test\pain drain\libraries\lvgl\src\misc\lv_color.h ****  *            Should be modified like mix = `255 - mix`
 490:c:\projects\paindrain\arduinolcd\test\pain drain\libraries\lvgl\src\misc\lv_color.h ****  * @return the mixed color
 491:c:\projects\paindrain\arduinolcd\test\pain drain\libraries\lvgl\src\misc\lv_color.h ****  * @note 255 won't give clearly `c1`.
 492:c:\projects\paindrain\arduinolcd\test\pain drain\libraries\lvgl\src\misc\lv_color.h ****  */
 493:c:\projects\paindrain\arduinolcd\test\pain drain\libraries\lvgl\src\misc\lv_color.h **** LV_ATTRIBUTE_FAST_MEM static inline lv_color_t lv_color_mix_premult(uint16_t * premult_c1, lv_color
 494:c:\projects\paindrain\arduinolcd\test\pain drain\libraries\lvgl\src\misc\lv_color.h **** {
 495:c:\projects\paindrain\arduinolcd\test\pain drain\libraries\lvgl\src\misc\lv_color.h ****     lv_color_t ret;
ARM GAS  C:\Users\haske\AppData\Local\Temp\ccVOiHBd.s 			page 38


 496:c:\projects\paindrain\arduinolcd\test\pain drain\libraries\lvgl\src\misc\lv_color.h **** #if LV_COLOR_DEPTH != 1
 497:c:\projects\paindrain\arduinolcd\test\pain drain\libraries\lvgl\src\misc\lv_color.h ****     /*LV_COLOR_DEPTH == 8 or 32*/
 498:c:\projects\paindrain\arduinolcd\test\pain drain\libraries\lvgl\src\misc\lv_color.h ****     LV_COLOR_SET_R(ret, LV_UDIV255(premult_c1[0] + LV_COLOR_GET_R(c2) * mix + LV_COLOR_MIX_ROUND_OF
 499:c:\projects\paindrain\arduinolcd\test\pain drain\libraries\lvgl\src\misc\lv_color.h ****     LV_COLOR_SET_G(ret, LV_UDIV255(premult_c1[1] + LV_COLOR_GET_G(c2) * mix + LV_COLOR_MIX_ROUND_OF
 500:c:\projects\paindrain\arduinolcd\test\pain drain\libraries\lvgl\src\misc\lv_color.h ****     LV_COLOR_SET_B(ret, LV_UDIV255(premult_c1[2] + LV_COLOR_GET_B(c2) * mix + LV_COLOR_MIX_ROUND_OF
 501:c:\projects\paindrain\arduinolcd\test\pain drain\libraries\lvgl\src\misc\lv_color.h ****     LV_COLOR_SET_A(ret, 0xFF);
 502:c:\projects\paindrain\arduinolcd\test\pain drain\libraries\lvgl\src\misc\lv_color.h **** #else
 503:c:\projects\paindrain\arduinolcd\test\pain drain\libraries\lvgl\src\misc\lv_color.h ****     /*LV_COLOR_DEPTH == 1*/
 504:c:\projects\paindrain\arduinolcd\test\pain drain\libraries\lvgl\src\misc\lv_color.h ****     /*Restore color1*/
 505:c:\projects\paindrain\arduinolcd\test\pain drain\libraries\lvgl\src\misc\lv_color.h ****     lv_color_t c1;
 506:c:\projects\paindrain\arduinolcd\test\pain drain\libraries\lvgl\src\misc\lv_color.h ****     LV_COLOR_SET_R(c1, premult_c1[0]);
 507:c:\projects\paindrain\arduinolcd\test\pain drain\libraries\lvgl\src\misc\lv_color.h ****     LV_COLOR_SET_G(c1, premult_c1[1]);
 508:c:\projects\paindrain\arduinolcd\test\pain drain\libraries\lvgl\src\misc\lv_color.h ****     LV_COLOR_SET_B(c1, premult_c1[2]);
 509:c:\projects\paindrain\arduinolcd\test\pain drain\libraries\lvgl\src\misc\lv_color.h ****     ret.full = mix > LV_OPA_50 ? c2.full : c1.full;
 510:c:\projects\paindrain\arduinolcd\test\pain drain\libraries\lvgl\src\misc\lv_color.h **** #endif
 511:c:\projects\paindrain\arduinolcd\test\pain drain\libraries\lvgl\src\misc\lv_color.h **** 
 512:c:\projects\paindrain\arduinolcd\test\pain drain\libraries\lvgl\src\misc\lv_color.h ****     return ret;
 513:c:\projects\paindrain\arduinolcd\test\pain drain\libraries\lvgl\src\misc\lv_color.h **** }
 514:c:\projects\paindrain\arduinolcd\test\pain drain\libraries\lvgl\src\misc\lv_color.h **** 
 515:c:\projects\paindrain\arduinolcd\test\pain drain\libraries\lvgl\src\misc\lv_color.h **** /**
 516:c:\projects\paindrain\arduinolcd\test\pain drain\libraries\lvgl\src\misc\lv_color.h ****  * Mix two colors. Both color can have alpha value.
 517:c:\projects\paindrain\arduinolcd\test\pain drain\libraries\lvgl\src\misc\lv_color.h ****  * @param bg_color background color
 518:c:\projects\paindrain\arduinolcd\test\pain drain\libraries\lvgl\src\misc\lv_color.h ****  * @param bg_opa alpha of the background color
 519:c:\projects\paindrain\arduinolcd\test\pain drain\libraries\lvgl\src\misc\lv_color.h ****  * @param fg_color foreground color
 520:c:\projects\paindrain\arduinolcd\test\pain drain\libraries\lvgl\src\misc\lv_color.h ****  * @param fg_opa alpha of the foreground color
 521:c:\projects\paindrain\arduinolcd\test\pain drain\libraries\lvgl\src\misc\lv_color.h ****  * @param res_color the result color
 522:c:\projects\paindrain\arduinolcd\test\pain drain\libraries\lvgl\src\misc\lv_color.h ****  * @param res_opa the result opacity
 523:c:\projects\paindrain\arduinolcd\test\pain drain\libraries\lvgl\src\misc\lv_color.h ****  */
 524:c:\projects\paindrain\arduinolcd\test\pain drain\libraries\lvgl\src\misc\lv_color.h **** LV_ATTRIBUTE_FAST_MEM static inline void lv_color_mix_with_alpha(lv_color_t bg_color, lv_opa_t bg_o
 525:c:\projects\paindrain\arduinolcd\test\pain drain\libraries\lvgl\src\misc\lv_color.h ****                                                                  lv_color_t fg_color, lv_opa_t fg_o
 526:c:\projects\paindrain\arduinolcd\test\pain drain\libraries\lvgl\src\misc\lv_color.h ****                                                                  lv_color_t * res_color, lv_opa_t *
 527:c:\projects\paindrain\arduinolcd\test\pain drain\libraries\lvgl\src\misc\lv_color.h **** {
 528:c:\projects\paindrain\arduinolcd\test\pain drain\libraries\lvgl\src\misc\lv_color.h ****     /*Pick the foreground if it's fully opaque or the Background is fully transparent*/
 529:c:\projects\paindrain\arduinolcd\test\pain drain\libraries\lvgl\src\misc\lv_color.h ****     if(fg_opa >= LV_OPA_MAX || bg_opa <= LV_OPA_MIN) {
 530:c:\projects\paindrain\arduinolcd\test\pain drain\libraries\lvgl\src\misc\lv_color.h ****         res_color->full = fg_color.full;
 531:c:\projects\paindrain\arduinolcd\test\pain drain\libraries\lvgl\src\misc\lv_color.h ****         *res_opa = fg_opa;
 532:c:\projects\paindrain\arduinolcd\test\pain drain\libraries\lvgl\src\misc\lv_color.h ****     }
 533:c:\projects\paindrain\arduinolcd\test\pain drain\libraries\lvgl\src\misc\lv_color.h ****     /*Transparent foreground: use the Background*/
 534:c:\projects\paindrain\arduinolcd\test\pain drain\libraries\lvgl\src\misc\lv_color.h ****     else if(fg_opa <= LV_OPA_MIN) {
 535:c:\projects\paindrain\arduinolcd\test\pain drain\libraries\lvgl\src\misc\lv_color.h ****         res_color->full = bg_color.full;
 536:c:\projects\paindrain\arduinolcd\test\pain drain\libraries\lvgl\src\misc\lv_color.h ****         *res_opa = bg_opa;
 537:c:\projects\paindrain\arduinolcd\test\pain drain\libraries\lvgl\src\misc\lv_color.h ****     }
 538:c:\projects\paindrain\arduinolcd\test\pain drain\libraries\lvgl\src\misc\lv_color.h ****     /*Opaque background: use simple mix*/
 539:c:\projects\paindrain\arduinolcd\test\pain drain\libraries\lvgl\src\misc\lv_color.h ****     else if(bg_opa >= LV_OPA_MAX) {
 540:c:\projects\paindrain\arduinolcd\test\pain drain\libraries\lvgl\src\misc\lv_color.h ****         *res_color = lv_color_mix(fg_color, bg_color, fg_opa);
 541:c:\projects\paindrain\arduinolcd\test\pain drain\libraries\lvgl\src\misc\lv_color.h ****         *res_opa = LV_OPA_COVER;
 542:c:\projects\paindrain\arduinolcd\test\pain drain\libraries\lvgl\src\misc\lv_color.h ****     }
 543:c:\projects\paindrain\arduinolcd\test\pain drain\libraries\lvgl\src\misc\lv_color.h ****     /*Both colors have alpha. Expensive calculation need to be applied*/
 544:c:\projects\paindrain\arduinolcd\test\pain drain\libraries\lvgl\src\misc\lv_color.h ****     else {
 545:c:\projects\paindrain\arduinolcd\test\pain drain\libraries\lvgl\src\misc\lv_color.h ****         /*Save the parameters and the result. If they will be asked again don't compute again*/
 546:c:\projects\paindrain\arduinolcd\test\pain drain\libraries\lvgl\src\misc\lv_color.h ****         static lv_opa_t fg_opa_save     = 0;
 547:c:\projects\paindrain\arduinolcd\test\pain drain\libraries\lvgl\src\misc\lv_color.h ****         static lv_opa_t bg_opa_save     = 0;
 548:c:\projects\paindrain\arduinolcd\test\pain drain\libraries\lvgl\src\misc\lv_color.h ****         static lv_color_t fg_color_save = _LV_COLOR_ZERO_INITIALIZER;
 549:c:\projects\paindrain\arduinolcd\test\pain drain\libraries\lvgl\src\misc\lv_color.h ****         static lv_color_t bg_color_save = _LV_COLOR_ZERO_INITIALIZER;
 550:c:\projects\paindrain\arduinolcd\test\pain drain\libraries\lvgl\src\misc\lv_color.h ****         static lv_color_t res_color_saved = _LV_COLOR_ZERO_INITIALIZER;
 551:c:\projects\paindrain\arduinolcd\test\pain drain\libraries\lvgl\src\misc\lv_color.h ****         static lv_opa_t res_opa_saved = 0;
 552:c:\projects\paindrain\arduinolcd\test\pain drain\libraries\lvgl\src\misc\lv_color.h **** 
ARM GAS  C:\Users\haske\AppData\Local\Temp\ccVOiHBd.s 			page 39


 553:c:\projects\paindrain\arduinolcd\test\pain drain\libraries\lvgl\src\misc\lv_color.h ****         if(fg_opa != fg_opa_save || bg_opa != bg_opa_save || fg_color.full != fg_color_save.full ||
 554:c:\projects\paindrain\arduinolcd\test\pain drain\libraries\lvgl\src\misc\lv_color.h ****            bg_color.full != bg_color_save.full) {
 555:c:\projects\paindrain\arduinolcd\test\pain drain\libraries\lvgl\src\misc\lv_color.h ****             fg_opa_save        = fg_opa;
 556:c:\projects\paindrain\arduinolcd\test\pain drain\libraries\lvgl\src\misc\lv_color.h ****             bg_opa_save        = bg_opa;
 557:c:\projects\paindrain\arduinolcd\test\pain drain\libraries\lvgl\src\misc\lv_color.h ****             fg_color_save.full = fg_color.full;
 558:c:\projects\paindrain\arduinolcd\test\pain drain\libraries\lvgl\src\misc\lv_color.h ****             bg_color_save.full = bg_color.full;
 559:c:\projects\paindrain\arduinolcd\test\pain drain\libraries\lvgl\src\misc\lv_color.h ****             /*Info:
 560:c:\projects\paindrain\arduinolcd\test\pain drain\libraries\lvgl\src\misc\lv_color.h ****              * https://en.wikipedia.org/wiki/Alpha_compositing#Analytical_derivation_of_the_over_op
 561:c:\projects\paindrain\arduinolcd\test\pain drain\libraries\lvgl\src\misc\lv_color.h ****             res_opa_saved = 255 - ((uint16_t)((uint16_t)(255 - fg_opa) * (255 - bg_opa)) >> 8);
 562:c:\projects\paindrain\arduinolcd\test\pain drain\libraries\lvgl\src\misc\lv_color.h ****             LV_ASSERT(res_opa_saved != 0);
 563:c:\projects\paindrain\arduinolcd\test\pain drain\libraries\lvgl\src\misc\lv_color.h ****             lv_opa_t ratio = (uint16_t)((uint16_t)fg_opa * 255) / res_opa_saved;
 564:c:\projects\paindrain\arduinolcd\test\pain drain\libraries\lvgl\src\misc\lv_color.h ****             res_color_saved = lv_color_mix(fg_color, bg_color, ratio);
 565:c:\projects\paindrain\arduinolcd\test\pain drain\libraries\lvgl\src\misc\lv_color.h **** 
 566:c:\projects\paindrain\arduinolcd\test\pain drain\libraries\lvgl\src\misc\lv_color.h ****         }
 567:c:\projects\paindrain\arduinolcd\test\pain drain\libraries\lvgl\src\misc\lv_color.h **** 
 568:c:\projects\paindrain\arduinolcd\test\pain drain\libraries\lvgl\src\misc\lv_color.h ****         res_color->full = res_color_saved.full;
 569:c:\projects\paindrain\arduinolcd\test\pain drain\libraries\lvgl\src\misc\lv_color.h ****         *res_opa = res_opa_saved;
 570:c:\projects\paindrain\arduinolcd\test\pain drain\libraries\lvgl\src\misc\lv_color.h ****     }
 571:c:\projects\paindrain\arduinolcd\test\pain drain\libraries\lvgl\src\misc\lv_color.h **** }
 572:c:\projects\paindrain\arduinolcd\test\pain drain\libraries\lvgl\src\misc\lv_color.h **** 
 573:c:\projects\paindrain\arduinolcd\test\pain drain\libraries\lvgl\src\misc\lv_color.h **** //! @endcond
 574:c:\projects\paindrain\arduinolcd\test\pain drain\libraries\lvgl\src\misc\lv_color.h **** 
 575:c:\projects\paindrain\arduinolcd\test\pain drain\libraries\lvgl\src\misc\lv_color.h **** /**
 576:c:\projects\paindrain\arduinolcd\test\pain drain\libraries\lvgl\src\misc\lv_color.h ****  * Get the brightness of a color
 577:c:\projects\paindrain\arduinolcd\test\pain drain\libraries\lvgl\src\misc\lv_color.h ****  * @param color a color
 578:c:\projects\paindrain\arduinolcd\test\pain drain\libraries\lvgl\src\misc\lv_color.h ****  * @return the brightness [0..255]
 579:c:\projects\paindrain\arduinolcd\test\pain drain\libraries\lvgl\src\misc\lv_color.h ****  */
 580:c:\projects\paindrain\arduinolcd\test\pain drain\libraries\lvgl\src\misc\lv_color.h **** static inline uint8_t lv_color_brightness(lv_color_t color)
 581:c:\projects\paindrain\arduinolcd\test\pain drain\libraries\lvgl\src\misc\lv_color.h **** {
 582:c:\projects\paindrain\arduinolcd\test\pain drain\libraries\lvgl\src\misc\lv_color.h ****     lv_color32_t c32;
 583:c:\projects\paindrain\arduinolcd\test\pain drain\libraries\lvgl\src\misc\lv_color.h ****     c32.full        = lv_color_to32(color);
 584:c:\projects\paindrain\arduinolcd\test\pain drain\libraries\lvgl\src\misc\lv_color.h ****     uint16_t bright = (uint16_t)(3u * LV_COLOR_GET_R32(c32) + LV_COLOR_GET_B32(c32) + 4u * LV_COLOR
 585:c:\projects\paindrain\arduinolcd\test\pain drain\libraries\lvgl\src\misc\lv_color.h ****     return (uint8_t)(bright >> 3);
 586:c:\projects\paindrain\arduinolcd\test\pain drain\libraries\lvgl\src\misc\lv_color.h **** }
 587:c:\projects\paindrain\arduinolcd\test\pain drain\libraries\lvgl\src\misc\lv_color.h **** 
 588:c:\projects\paindrain\arduinolcd\test\pain drain\libraries\lvgl\src\misc\lv_color.h **** static inline lv_color_t lv_color_make(uint8_t r, uint8_t g, uint8_t b)
 589:c:\projects\paindrain\arduinolcd\test\pain drain\libraries\lvgl\src\misc\lv_color.h **** {
 590:c:\projects\paindrain\arduinolcd\test\pain drain\libraries\lvgl\src\misc\lv_color.h ****     return _LV_COLOR_MAKE_TYPE_HELPER LV_COLOR_MAKE(r, g, b);
 1176              		.loc 2 590 0
 1177 0088 1F25     		movs	r5, #31
 1178 008a FC27     		movs	r7, #252
 1179 008c FF00     		lsls	r7, r7, #3
 1180 008e 3900     		movs	r1, r7
 1181 0090 2943     		orrs	r1, r5
 1182 0092 794E     		ldr	r6, .L46+4
 1183 0094 3143     		orrs	r1, r6
 1184              	.LVL146:
 1185              	.LBE30:
 1186              	.LBE29:
 1187              	.LBE28:
  86:..\..\..\arduinoLCD\test\Pain Drain\libraries\lvgl\src\extra\themes\basic/lv_theme_basic.c ****     lv_style_set_line_width(&styles->white, 1);
 1188              		.loc 1 86 0
 1189 0096 2068     		ldr	r0, [r4]
 1190 0098 1030     		adds	r0, r0, #16
 1191 009a FFF7FEFF 		bl	lv_style_set_bg_color
 1192              	.LVL147:
  87:..\..\..\arduinoLCD\test\Pain Drain\libraries\lvgl\src\extra\themes\basic/lv_theme_basic.c ****     lv_style_set_line_color(&styles->white, COLOR_WHITE);
ARM GAS  C:\Users\haske\AppData\Local\Temp\ccVOiHBd.s 			page 40


 1193              		.loc 1 87 0
 1194 009e 2068     		ldr	r0, [r4]
 1195 00a0 1030     		adds	r0, r0, #16
 1196 00a2 0121     		movs	r1, #1
 1197 00a4 FFF7FEFF 		bl	lv_style_set_line_width
 1198              	.LVL148:
 1199              	.LBB31:
 1200              	.LBB32:
 1201              	.LBB33:
 1202              		.loc 2 590 0
 1203 00a8 3900     		movs	r1, r7
 1204 00aa 2943     		orrs	r1, r5
 1205 00ac 3143     		orrs	r1, r6
 1206              	.LVL149:
 1207              	.LBE33:
 1208              	.LBE32:
 1209              	.LBE31:
  88:..\..\..\arduinoLCD\test\Pain Drain\libraries\lvgl\src\extra\themes\basic/lv_theme_basic.c ****     lv_style_set_arc_width(&styles->white, 2);
 1210              		.loc 1 88 0
 1211 00ae 2068     		ldr	r0, [r4]
 1212 00b0 1030     		adds	r0, r0, #16
 1213 00b2 FFF7FEFF 		bl	lv_style_set_line_color
 1214              	.LVL150:
  89:..\..\..\arduinoLCD\test\Pain Drain\libraries\lvgl\src\extra\themes\basic/lv_theme_basic.c ****     lv_style_set_arc_color(&styles->white, COLOR_WHITE);
 1215              		.loc 1 89 0
 1216 00b6 2068     		ldr	r0, [r4]
 1217 00b8 1030     		adds	r0, r0, #16
 1218 00ba 0221     		movs	r1, #2
 1219 00bc FFF7FEFF 		bl	lv_style_set_arc_width
 1220              	.LVL151:
 1221              	.LBB34:
 1222              	.LBB35:
 1223              	.LBB36:
 1224              		.loc 2 590 0
 1225 00c0 3900     		movs	r1, r7
 1226 00c2 2943     		orrs	r1, r5
 1227 00c4 3143     		orrs	r1, r6
 1228              	.LVL152:
 1229              	.LBE36:
 1230              	.LBE35:
 1231              	.LBE34:
  90:..\..\..\arduinoLCD\test\Pain Drain\libraries\lvgl\src\extra\themes\basic/lv_theme_basic.c **** 
 1232              		.loc 1 90 0
 1233 00c6 2068     		ldr	r0, [r4]
 1234 00c8 1030     		adds	r0, r0, #16
 1235 00ca FFF7FEFF 		bl	lv_style_set_arc_color
 1236              	.LVL153:
  92:..\..\..\arduinoLCD\test\Pain Drain\libraries\lvgl\src\extra\themes\basic/lv_theme_basic.c ****     lv_style_set_bg_opa(&styles->light, LV_OPA_COVER);
 1237              		.loc 1 92 0
 1238 00ce 2068     		ldr	r0, [r4]
 1239 00d0 1830     		adds	r0, r0, #24
 1240 00d2 FFF7FEFF 		bl	style_init_reset
 1241              	.LVL154:
  93:..\..\..\arduinoLCD\test\Pain Drain\libraries\lvgl\src\extra\themes\basic/lv_theme_basic.c ****     lv_style_set_bg_color(&styles->light, COLOR_LIGHT);
 1242              		.loc 1 93 0
 1243 00d6 2068     		ldr	r0, [r4]
 1244 00d8 1830     		adds	r0, r0, #24
ARM GAS  C:\Users\haske\AppData\Local\Temp\ccVOiHBd.s 			page 41


 1245 00da FF21     		movs	r1, #255
 1246 00dc FFF7FEFF 		bl	lv_style_set_bg_opa
 1247              	.LVL155:
  94:..\..\..\arduinoLCD\test\Pain Drain\libraries\lvgl\src\extra\themes\basic/lv_theme_basic.c ****     lv_style_set_line_width(&styles->light, 1);
 1248              		.loc 1 94 0
 1249 00e0 2568     		ldr	r5, [r4]
 1250 00e2 0221     		movs	r1, #2
 1251 00e4 1220     		movs	r0, #18
 1252 00e6 FFF7FEFF 		bl	lv_palette_lighten
 1253              	.LVL156:
 1254 00ea 011C     		adds	r1, r0, #0
 1255 00ec 2800     		movs	r0, r5
 1256 00ee 1830     		adds	r0, r0, #24
 1257 00f0 FFF7FEFF 		bl	lv_style_set_bg_color
 1258              	.LVL157:
  95:..\..\..\arduinoLCD\test\Pain Drain\libraries\lvgl\src\extra\themes\basic/lv_theme_basic.c ****     lv_style_set_line_color(&styles->light, COLOR_LIGHT);
 1259              		.loc 1 95 0
 1260 00f4 2068     		ldr	r0, [r4]
 1261 00f6 1830     		adds	r0, r0, #24
 1262 00f8 0121     		movs	r1, #1
 1263 00fa FFF7FEFF 		bl	lv_style_set_line_width
 1264              	.LVL158:
  96:..\..\..\arduinoLCD\test\Pain Drain\libraries\lvgl\src\extra\themes\basic/lv_theme_basic.c ****     lv_style_set_arc_width(&styles->light, 2);
 1265              		.loc 1 96 0
 1266 00fe 2568     		ldr	r5, [r4]
 1267 0100 0221     		movs	r1, #2
 1268 0102 1220     		movs	r0, #18
 1269 0104 FFF7FEFF 		bl	lv_palette_lighten
 1270              	.LVL159:
 1271 0108 011C     		adds	r1, r0, #0
 1272 010a 2800     		movs	r0, r5
 1273 010c 1830     		adds	r0, r0, #24
 1274 010e FFF7FEFF 		bl	lv_style_set_line_color
 1275              	.LVL160:
  97:..\..\..\arduinoLCD\test\Pain Drain\libraries\lvgl\src\extra\themes\basic/lv_theme_basic.c ****     lv_style_set_arc_color(&styles->light, COLOR_LIGHT);
 1276              		.loc 1 97 0
 1277 0112 2068     		ldr	r0, [r4]
 1278 0114 1830     		adds	r0, r0, #24
 1279 0116 0221     		movs	r1, #2
 1280 0118 FFF7FEFF 		bl	lv_style_set_arc_width
 1281              	.LVL161:
  98:..\..\..\arduinoLCD\test\Pain Drain\libraries\lvgl\src\extra\themes\basic/lv_theme_basic.c **** 
 1282              		.loc 1 98 0
 1283 011c 2568     		ldr	r5, [r4]
 1284 011e 0221     		movs	r1, #2
 1285 0120 1220     		movs	r0, #18
 1286 0122 FFF7FEFF 		bl	lv_palette_lighten
 1287              	.LVL162:
 1288 0126 011C     		adds	r1, r0, #0
 1289 0128 2800     		movs	r0, r5
 1290 012a 1830     		adds	r0, r0, #24
 1291 012c FFF7FEFF 		bl	lv_style_set_arc_color
 1292              	.LVL163:
 100:..\..\..\arduinoLCD\test\Pain Drain\libraries\lvgl\src\extra\themes\basic/lv_theme_basic.c ****     lv_style_set_bg_opa(&styles->dark, LV_OPA_COVER);
 1293              		.loc 1 100 0
 1294 0130 2068     		ldr	r0, [r4]
 1295 0132 2030     		adds	r0, r0, #32
ARM GAS  C:\Users\haske\AppData\Local\Temp\ccVOiHBd.s 			page 42


 1296 0134 FFF7FEFF 		bl	style_init_reset
 1297              	.LVL164:
 101:..\..\..\arduinoLCD\test\Pain Drain\libraries\lvgl\src\extra\themes\basic/lv_theme_basic.c ****     lv_style_set_bg_color(&styles->dark, COLOR_DARK);
 1298              		.loc 1 101 0
 1299 0138 2068     		ldr	r0, [r4]
 1300 013a 2030     		adds	r0, r0, #32
 1301 013c FF21     		movs	r1, #255
 1302 013e FFF7FEFF 		bl	lv_style_set_bg_opa
 1303              	.LVL165:
 102:..\..\..\arduinoLCD\test\Pain Drain\libraries\lvgl\src\extra\themes\basic/lv_theme_basic.c ****     lv_style_set_line_width(&styles->dark, 1);
 1304              		.loc 1 102 0
 1305 0142 2568     		ldr	r5, [r4]
 1306 0144 1220     		movs	r0, #18
 1307 0146 FFF7FEFF 		bl	lv_palette_main
 1308              	.LVL166:
 1309 014a 011C     		adds	r1, r0, #0
 1310 014c 2800     		movs	r0, r5
 1311 014e 2030     		adds	r0, r0, #32
 1312 0150 FFF7FEFF 		bl	lv_style_set_bg_color
 1313              	.LVL167:
 103:..\..\..\arduinoLCD\test\Pain Drain\libraries\lvgl\src\extra\themes\basic/lv_theme_basic.c ****     lv_style_set_line_color(&styles->dark, COLOR_DARK);
 1314              		.loc 1 103 0
 1315 0154 2068     		ldr	r0, [r4]
 1316 0156 2030     		adds	r0, r0, #32
 1317 0158 0121     		movs	r1, #1
 1318 015a FFF7FEFF 		bl	lv_style_set_line_width
 1319              	.LVL168:
 104:..\..\..\arduinoLCD\test\Pain Drain\libraries\lvgl\src\extra\themes\basic/lv_theme_basic.c ****     lv_style_set_arc_width(&styles->dark, 2);
 1320              		.loc 1 104 0
 1321 015e 2568     		ldr	r5, [r4]
 1322 0160 1220     		movs	r0, #18
 1323 0162 FFF7FEFF 		bl	lv_palette_main
 1324              	.LVL169:
 1325 0166 011C     		adds	r1, r0, #0
 1326 0168 2800     		movs	r0, r5
 1327 016a 2030     		adds	r0, r0, #32
 1328 016c FFF7FEFF 		bl	lv_style_set_line_color
 1329              	.LVL170:
 105:..\..\..\arduinoLCD\test\Pain Drain\libraries\lvgl\src\extra\themes\basic/lv_theme_basic.c ****     lv_style_set_arc_color(&styles->dark, COLOR_DARK);
 1330              		.loc 1 105 0
 1331 0170 2068     		ldr	r0, [r4]
 1332 0172 2030     		adds	r0, r0, #32
 1333 0174 0221     		movs	r1, #2
 1334 0176 FFF7FEFF 		bl	lv_style_set_arc_width
 1335              	.LVL171:
 106:..\..\..\arduinoLCD\test\Pain Drain\libraries\lvgl\src\extra\themes\basic/lv_theme_basic.c **** 
 1336              		.loc 1 106 0
 1337 017a 2568     		ldr	r5, [r4]
 1338 017c 1220     		movs	r0, #18
 1339 017e FFF7FEFF 		bl	lv_palette_main
 1340              	.LVL172:
 1341 0182 011C     		adds	r1, r0, #0
 1342 0184 2800     		movs	r0, r5
 1343 0186 2030     		adds	r0, r0, #32
 1344 0188 FFF7FEFF 		bl	lv_style_set_arc_color
 1345              	.LVL173:
 108:..\..\..\arduinoLCD\test\Pain Drain\libraries\lvgl\src\extra\themes\basic/lv_theme_basic.c ****     lv_style_set_bg_opa(&styles->dim, LV_OPA_COVER);
ARM GAS  C:\Users\haske\AppData\Local\Temp\ccVOiHBd.s 			page 43


 1346              		.loc 1 108 0
 1347 018c 2068     		ldr	r0, [r4]
 1348 018e 2830     		adds	r0, r0, #40
 1349 0190 FFF7FEFF 		bl	style_init_reset
 1350              	.LVL174:
 109:..\..\..\arduinoLCD\test\Pain Drain\libraries\lvgl\src\extra\themes\basic/lv_theme_basic.c ****     lv_style_set_bg_color(&styles->dim, COLOR_DIM);
 1351              		.loc 1 109 0
 1352 0194 2068     		ldr	r0, [r4]
 1353 0196 2830     		adds	r0, r0, #40
 1354 0198 FF21     		movs	r1, #255
 1355 019a FFF7FEFF 		bl	lv_style_set_bg_opa
 1356              	.LVL175:
 110:..\..\..\arduinoLCD\test\Pain Drain\libraries\lvgl\src\extra\themes\basic/lv_theme_basic.c ****     lv_style_set_line_width(&styles->dim, 1);
 1357              		.loc 1 110 0
 1358 019e 2568     		ldr	r5, [r4]
 1359 01a0 0221     		movs	r1, #2
 1360 01a2 1220     		movs	r0, #18
 1361 01a4 FFF7FEFF 		bl	lv_palette_darken
 1362              	.LVL176:
 1363 01a8 011C     		adds	r1, r0, #0
 1364 01aa 2800     		movs	r0, r5
 1365 01ac 2830     		adds	r0, r0, #40
 1366 01ae FFF7FEFF 		bl	lv_style_set_bg_color
 1367              	.LVL177:
 111:..\..\..\arduinoLCD\test\Pain Drain\libraries\lvgl\src\extra\themes\basic/lv_theme_basic.c ****     lv_style_set_line_color(&styles->dim, COLOR_DIM);
 1368              		.loc 1 111 0
 1369 01b2 2068     		ldr	r0, [r4]
 1370 01b4 2830     		adds	r0, r0, #40
 1371 01b6 0121     		movs	r1, #1
 1372 01b8 FFF7FEFF 		bl	lv_style_set_line_width
 1373              	.LVL178:
 112:..\..\..\arduinoLCD\test\Pain Drain\libraries\lvgl\src\extra\themes\basic/lv_theme_basic.c ****     lv_style_set_arc_width(&styles->dim, 2);
 1374              		.loc 1 112 0
 1375 01bc 2568     		ldr	r5, [r4]
 1376 01be 0221     		movs	r1, #2
 1377 01c0 1220     		movs	r0, #18
 1378 01c2 FFF7FEFF 		bl	lv_palette_darken
 1379              	.LVL179:
 1380 01c6 011C     		adds	r1, r0, #0
 1381 01c8 2800     		movs	r0, r5
 1382 01ca 2830     		adds	r0, r0, #40
 1383 01cc FFF7FEFF 		bl	lv_style_set_line_color
 1384              	.LVL180:
 113:..\..\..\arduinoLCD\test\Pain Drain\libraries\lvgl\src\extra\themes\basic/lv_theme_basic.c ****     lv_style_set_arc_color(&styles->dim, COLOR_DIM);
 1385              		.loc 1 113 0
 1386 01d0 2068     		ldr	r0, [r4]
 1387 01d2 2830     		adds	r0, r0, #40
 1388 01d4 0221     		movs	r1, #2
 1389 01d6 FFF7FEFF 		bl	lv_style_set_arc_width
 1390              	.LVL181:
 114:..\..\..\arduinoLCD\test\Pain Drain\libraries\lvgl\src\extra\themes\basic/lv_theme_basic.c **** 
 1391              		.loc 1 114 0
 1392 01da 2568     		ldr	r5, [r4]
 1393 01dc 0221     		movs	r1, #2
 1394 01de 1220     		movs	r0, #18
 1395 01e0 FFF7FEFF 		bl	lv_palette_darken
 1396              	.LVL182:
ARM GAS  C:\Users\haske\AppData\Local\Temp\ccVOiHBd.s 			page 44


 1397 01e4 011C     		adds	r1, r0, #0
 1398 01e6 2800     		movs	r0, r5
 1399 01e8 2830     		adds	r0, r0, #40
 1400 01ea FFF7FEFF 		bl	lv_style_set_arc_color
 1401              	.LVL183:
 117:..\..\..\arduinoLCD\test\Pain Drain\libraries\lvgl\src\extra\themes\basic/lv_theme_basic.c ****     lv_style_set_arc_width(&styles->arc_line, 6);
 1402              		.loc 1 117 0
 1403 01ee 2068     		ldr	r0, [r4]
 1404 01f0 3830     		adds	r0, r0, #56
 1405 01f2 FFF7FEFF 		bl	style_init_reset
 1406              	.LVL184:
 118:..\..\..\arduinoLCD\test\Pain Drain\libraries\lvgl\src\extra\themes\basic/lv_theme_basic.c ****     style_init_reset(&styles->arc_knob);
 1407              		.loc 1 118 0
 1408 01f6 2068     		ldr	r0, [r4]
 1409 01f8 3830     		adds	r0, r0, #56
 1410 01fa 0621     		movs	r1, #6
 1411 01fc FFF7FEFF 		bl	lv_style_set_arc_width
 1412              	.LVL185:
 119:..\..\..\arduinoLCD\test\Pain Drain\libraries\lvgl\src\extra\themes\basic/lv_theme_basic.c ****     lv_style_set_pad_all(&styles->arc_knob, 5);
 1413              		.loc 1 119 0
 1414 0200 2068     		ldr	r0, [r4]
 1415 0202 4030     		adds	r0, r0, #64
 1416 0204 FFF7FEFF 		bl	style_init_reset
 1417              	.LVL186:
 120:..\..\..\arduinoLCD\test\Pain Drain\libraries\lvgl\src\extra\themes\basic/lv_theme_basic.c **** #endif
 1418              		.loc 1 120 0
 1419 0208 2568     		ldr	r5, [r4]
 1420 020a 4035     		adds	r5, r5, #64
 1421              	.LVL187:
 1422              	.LBB37:
 1423              	.LBB38:
 1424              		.file 3 "c:\\projects\\paindrain\\arduinolcd\\test\\pain drain\\libraries\\lvgl\\src\\misc\\lv_sty
   1:c:\projects\paindrain\arduinolcd\test\pain drain\libraries\lvgl\src\misc\lv_style.h **** /**
   2:c:\projects\paindrain\arduinolcd\test\pain drain\libraries\lvgl\src\misc\lv_style.h ****  * @file lv_style.h
   3:c:\projects\paindrain\arduinolcd\test\pain drain\libraries\lvgl\src\misc\lv_style.h ****  *
   4:c:\projects\paindrain\arduinolcd\test\pain drain\libraries\lvgl\src\misc\lv_style.h ****  */
   5:c:\projects\paindrain\arduinolcd\test\pain drain\libraries\lvgl\src\misc\lv_style.h **** 
   6:c:\projects\paindrain\arduinolcd\test\pain drain\libraries\lvgl\src\misc\lv_style.h **** #ifndef LV_STYLE_H
   7:c:\projects\paindrain\arduinolcd\test\pain drain\libraries\lvgl\src\misc\lv_style.h **** #define LV_STYLE_H
   8:c:\projects\paindrain\arduinolcd\test\pain drain\libraries\lvgl\src\misc\lv_style.h **** 
   9:c:\projects\paindrain\arduinolcd\test\pain drain\libraries\lvgl\src\misc\lv_style.h **** #ifdef __cplusplus
  10:c:\projects\paindrain\arduinolcd\test\pain drain\libraries\lvgl\src\misc\lv_style.h **** extern "C" {
  11:c:\projects\paindrain\arduinolcd\test\pain drain\libraries\lvgl\src\misc\lv_style.h **** #endif
  12:c:\projects\paindrain\arduinolcd\test\pain drain\libraries\lvgl\src\misc\lv_style.h **** 
  13:c:\projects\paindrain\arduinolcd\test\pain drain\libraries\lvgl\src\misc\lv_style.h **** /*********************
  14:c:\projects\paindrain\arduinolcd\test\pain drain\libraries\lvgl\src\misc\lv_style.h ****  *      INCLUDES
  15:c:\projects\paindrain\arduinolcd\test\pain drain\libraries\lvgl\src\misc\lv_style.h ****  *********************/
  16:c:\projects\paindrain\arduinolcd\test\pain drain\libraries\lvgl\src\misc\lv_style.h **** #include <stdbool.h>
  17:c:\projects\paindrain\arduinolcd\test\pain drain\libraries\lvgl\src\misc\lv_style.h **** #include <stdint.h>
  18:c:\projects\paindrain\arduinolcd\test\pain drain\libraries\lvgl\src\misc\lv_style.h **** #include "../font/lv_font.h"
  19:c:\projects\paindrain\arduinolcd\test\pain drain\libraries\lvgl\src\misc\lv_style.h **** #include "lv_color.h"
  20:c:\projects\paindrain\arduinolcd\test\pain drain\libraries\lvgl\src\misc\lv_style.h **** #include "lv_area.h"
  21:c:\projects\paindrain\arduinolcd\test\pain drain\libraries\lvgl\src\misc\lv_style.h **** #include "lv_anim.h"
  22:c:\projects\paindrain\arduinolcd\test\pain drain\libraries\lvgl\src\misc\lv_style.h **** #include "lv_txt.h"
  23:c:\projects\paindrain\arduinolcd\test\pain drain\libraries\lvgl\src\misc\lv_style.h **** #include "lv_types.h"
  24:c:\projects\paindrain\arduinolcd\test\pain drain\libraries\lvgl\src\misc\lv_style.h **** #include "lv_assert.h"
  25:c:\projects\paindrain\arduinolcd\test\pain drain\libraries\lvgl\src\misc\lv_style.h **** #include "lv_bidi.h"
ARM GAS  C:\Users\haske\AppData\Local\Temp\ccVOiHBd.s 			page 45


  26:c:\projects\paindrain\arduinolcd\test\pain drain\libraries\lvgl\src\misc\lv_style.h **** 
  27:c:\projects\paindrain\arduinolcd\test\pain drain\libraries\lvgl\src\misc\lv_style.h **** /*********************
  28:c:\projects\paindrain\arduinolcd\test\pain drain\libraries\lvgl\src\misc\lv_style.h ****  *      DEFINES
  29:c:\projects\paindrain\arduinolcd\test\pain drain\libraries\lvgl\src\misc\lv_style.h ****  *********************/
  30:c:\projects\paindrain\arduinolcd\test\pain drain\libraries\lvgl\src\misc\lv_style.h **** 
  31:c:\projects\paindrain\arduinolcd\test\pain drain\libraries\lvgl\src\misc\lv_style.h **** #define LV_STYLE_SENTINEL_VALUE     0xAABBCCDD
  32:c:\projects\paindrain\arduinolcd\test\pain drain\libraries\lvgl\src\misc\lv_style.h **** 
  33:c:\projects\paindrain\arduinolcd\test\pain drain\libraries\lvgl\src\misc\lv_style.h **** /**
  34:c:\projects\paindrain\arduinolcd\test\pain drain\libraries\lvgl\src\misc\lv_style.h ****  * Flags for style behavior
  35:c:\projects\paindrain\arduinolcd\test\pain drain\libraries\lvgl\src\misc\lv_style.h ****  *
  36:c:\projects\paindrain\arduinolcd\test\pain drain\libraries\lvgl\src\misc\lv_style.h ****  * The rest of the flags will have _FLAG added to their name in v9.
  37:c:\projects\paindrain\arduinolcd\test\pain drain\libraries\lvgl\src\misc\lv_style.h ****  */
  38:c:\projects\paindrain\arduinolcd\test\pain drain\libraries\lvgl\src\misc\lv_style.h **** #define LV_STYLE_PROP_FLAG_NONE             (0)
  39:c:\projects\paindrain\arduinolcd\test\pain drain\libraries\lvgl\src\misc\lv_style.h **** #define LV_STYLE_PROP_INHERIT               (1 << 0)  /*Inherited*/
  40:c:\projects\paindrain\arduinolcd\test\pain drain\libraries\lvgl\src\misc\lv_style.h **** #define LV_STYLE_PROP_EXT_DRAW              (1 << 1)  /*Requires ext. draw size update when changed
  41:c:\projects\paindrain\arduinolcd\test\pain drain\libraries\lvgl\src\misc\lv_style.h **** #define LV_STYLE_PROP_LAYOUT_REFR           (1 << 2)  /*Requires layout update when changed*/
  42:c:\projects\paindrain\arduinolcd\test\pain drain\libraries\lvgl\src\misc\lv_style.h **** #define LV_STYLE_PROP_PARENT_LAYOUT_REFR    (1 << 3)  /*Requires layout update on parent when chang
  43:c:\projects\paindrain\arduinolcd\test\pain drain\libraries\lvgl\src\misc\lv_style.h **** #define LV_STYLE_PROP_LAYER_REFR            (1 << 4)  /*Affects layer handling*/
  44:c:\projects\paindrain\arduinolcd\test\pain drain\libraries\lvgl\src\misc\lv_style.h **** #define LV_STYLE_PROP_ALL                   (0x1F)     /*Indicating all flags*/
  45:c:\projects\paindrain\arduinolcd\test\pain drain\libraries\lvgl\src\misc\lv_style.h **** 
  46:c:\projects\paindrain\arduinolcd\test\pain drain\libraries\lvgl\src\misc\lv_style.h **** /**
  47:c:\projects\paindrain\arduinolcd\test\pain drain\libraries\lvgl\src\misc\lv_style.h ****  * Other constants
  48:c:\projects\paindrain\arduinolcd\test\pain drain\libraries\lvgl\src\misc\lv_style.h ****  */
  49:c:\projects\paindrain\arduinolcd\test\pain drain\libraries\lvgl\src\misc\lv_style.h **** #define LV_IMG_ZOOM_NONE            256        /*Value for not zooming the image*/
  50:c:\projects\paindrain\arduinolcd\test\pain drain\libraries\lvgl\src\misc\lv_style.h **** LV_EXPORT_CONST_INT(LV_IMG_ZOOM_NONE);
  51:c:\projects\paindrain\arduinolcd\test\pain drain\libraries\lvgl\src\misc\lv_style.h **** 
  52:c:\projects\paindrain\arduinolcd\test\pain drain\libraries\lvgl\src\misc\lv_style.h **** // *INDENT-OFF*
  53:c:\projects\paindrain\arduinolcd\test\pain drain\libraries\lvgl\src\misc\lv_style.h **** #if LV_USE_ASSERT_STYLE
  54:c:\projects\paindrain\arduinolcd\test\pain drain\libraries\lvgl\src\misc\lv_style.h **** #define LV_STYLE_CONST_INIT(var_name, prop_array)                       \
  55:c:\projects\paindrain\arduinolcd\test\pain drain\libraries\lvgl\src\misc\lv_style.h ****     const lv_style_t var_name = {                                       \
  56:c:\projects\paindrain\arduinolcd\test\pain drain\libraries\lvgl\src\misc\lv_style.h ****         .sentinel = LV_STYLE_SENTINEL_VALUE,                            \
  57:c:\projects\paindrain\arduinolcd\test\pain drain\libraries\lvgl\src\misc\lv_style.h ****         .v_p = { .const_props = prop_array },                           \
  58:c:\projects\paindrain\arduinolcd\test\pain drain\libraries\lvgl\src\misc\lv_style.h ****         .has_group = 0xFF,                                              \
  59:c:\projects\paindrain\arduinolcd\test\pain drain\libraries\lvgl\src\misc\lv_style.h ****         .prop1 = LV_STYLE_PROP_ANY,                                     \
  60:c:\projects\paindrain\arduinolcd\test\pain drain\libraries\lvgl\src\misc\lv_style.h ****         .prop_cnt = (sizeof(prop_array) / sizeof((prop_array)[0])),     \
  61:c:\projects\paindrain\arduinolcd\test\pain drain\libraries\lvgl\src\misc\lv_style.h ****     }
  62:c:\projects\paindrain\arduinolcd\test\pain drain\libraries\lvgl\src\misc\lv_style.h **** #else
  63:c:\projects\paindrain\arduinolcd\test\pain drain\libraries\lvgl\src\misc\lv_style.h **** #define LV_STYLE_CONST_INIT(var_name, prop_array)                       \
  64:c:\projects\paindrain\arduinolcd\test\pain drain\libraries\lvgl\src\misc\lv_style.h ****     const lv_style_t var_name = {                                       \
  65:c:\projects\paindrain\arduinolcd\test\pain drain\libraries\lvgl\src\misc\lv_style.h ****         .v_p = { .const_props = prop_array },                           \
  66:c:\projects\paindrain\arduinolcd\test\pain drain\libraries\lvgl\src\misc\lv_style.h ****         .has_group = 0xFF,                                              \
  67:c:\projects\paindrain\arduinolcd\test\pain drain\libraries\lvgl\src\misc\lv_style.h ****         .prop1 = LV_STYLE_PROP_ANY,                                     \
  68:c:\projects\paindrain\arduinolcd\test\pain drain\libraries\lvgl\src\misc\lv_style.h ****         .prop_cnt = (sizeof(prop_array) / sizeof((prop_array)[0])),     \
  69:c:\projects\paindrain\arduinolcd\test\pain drain\libraries\lvgl\src\misc\lv_style.h ****     }
  70:c:\projects\paindrain\arduinolcd\test\pain drain\libraries\lvgl\src\misc\lv_style.h **** #endif
  71:c:\projects\paindrain\arduinolcd\test\pain drain\libraries\lvgl\src\misc\lv_style.h **** // *INDENT-ON*
  72:c:\projects\paindrain\arduinolcd\test\pain drain\libraries\lvgl\src\misc\lv_style.h **** 
  73:c:\projects\paindrain\arduinolcd\test\pain drain\libraries\lvgl\src\misc\lv_style.h **** #define LV_STYLE_PROP_META_INHERIT 0x8000
  74:c:\projects\paindrain\arduinolcd\test\pain drain\libraries\lvgl\src\misc\lv_style.h **** #define LV_STYLE_PROP_META_INITIAL 0x4000
  75:c:\projects\paindrain\arduinolcd\test\pain drain\libraries\lvgl\src\misc\lv_style.h **** #define LV_STYLE_PROP_META_MASK (LV_STYLE_PROP_META_INHERIT | LV_STYLE_PROP_META_INITIAL)
  76:c:\projects\paindrain\arduinolcd\test\pain drain\libraries\lvgl\src\misc\lv_style.h **** 
  77:c:\projects\paindrain\arduinolcd\test\pain drain\libraries\lvgl\src\misc\lv_style.h **** #define LV_STYLE_PROP_ID_MASK(prop) ((lv_style_prop_t)((prop) & ~LV_STYLE_PROP_META_MASK))
  78:c:\projects\paindrain\arduinolcd\test\pain drain\libraries\lvgl\src\misc\lv_style.h **** 
  79:c:\projects\paindrain\arduinolcd\test\pain drain\libraries\lvgl\src\misc\lv_style.h **** /**********************
  80:c:\projects\paindrain\arduinolcd\test\pain drain\libraries\lvgl\src\misc\lv_style.h ****  *      TYPEDEFS
  81:c:\projects\paindrain\arduinolcd\test\pain drain\libraries\lvgl\src\misc\lv_style.h ****  **********************/
  82:c:\projects\paindrain\arduinolcd\test\pain drain\libraries\lvgl\src\misc\lv_style.h **** 
ARM GAS  C:\Users\haske\AppData\Local\Temp\ccVOiHBd.s 			page 46


  83:c:\projects\paindrain\arduinolcd\test\pain drain\libraries\lvgl\src\misc\lv_style.h **** /**
  84:c:\projects\paindrain\arduinolcd\test\pain drain\libraries\lvgl\src\misc\lv_style.h ****  * Possible options how to blend opaque drawings
  85:c:\projects\paindrain\arduinolcd\test\pain drain\libraries\lvgl\src\misc\lv_style.h ****  */
  86:c:\projects\paindrain\arduinolcd\test\pain drain\libraries\lvgl\src\misc\lv_style.h **** enum {
  87:c:\projects\paindrain\arduinolcd\test\pain drain\libraries\lvgl\src\misc\lv_style.h ****     LV_BLEND_MODE_NORMAL,     /**< Simply mix according to the opacity value*/
  88:c:\projects\paindrain\arduinolcd\test\pain drain\libraries\lvgl\src\misc\lv_style.h ****     LV_BLEND_MODE_ADDITIVE,   /**< Add the respective color channels*/
  89:c:\projects\paindrain\arduinolcd\test\pain drain\libraries\lvgl\src\misc\lv_style.h ****     LV_BLEND_MODE_SUBTRACTIVE,/**< Subtract the foreground from the background*/
  90:c:\projects\paindrain\arduinolcd\test\pain drain\libraries\lvgl\src\misc\lv_style.h ****     LV_BLEND_MODE_MULTIPLY,   /**< Multiply the foreground and background*/
  91:c:\projects\paindrain\arduinolcd\test\pain drain\libraries\lvgl\src\misc\lv_style.h ****     LV_BLEND_MODE_REPLACE,    /**< Replace background with foreground in the area*/
  92:c:\projects\paindrain\arduinolcd\test\pain drain\libraries\lvgl\src\misc\lv_style.h **** };
  93:c:\projects\paindrain\arduinolcd\test\pain drain\libraries\lvgl\src\misc\lv_style.h **** 
  94:c:\projects\paindrain\arduinolcd\test\pain drain\libraries\lvgl\src\misc\lv_style.h **** typedef uint8_t lv_blend_mode_t;
  95:c:\projects\paindrain\arduinolcd\test\pain drain\libraries\lvgl\src\misc\lv_style.h **** 
  96:c:\projects\paindrain\arduinolcd\test\pain drain\libraries\lvgl\src\misc\lv_style.h **** /**
  97:c:\projects\paindrain\arduinolcd\test\pain drain\libraries\lvgl\src\misc\lv_style.h ****  * Some options to apply decorations on texts.
  98:c:\projects\paindrain\arduinolcd\test\pain drain\libraries\lvgl\src\misc\lv_style.h ****  * 'OR'ed values can be used.
  99:c:\projects\paindrain\arduinolcd\test\pain drain\libraries\lvgl\src\misc\lv_style.h ****  */
 100:c:\projects\paindrain\arduinolcd\test\pain drain\libraries\lvgl\src\misc\lv_style.h **** enum {
 101:c:\projects\paindrain\arduinolcd\test\pain drain\libraries\lvgl\src\misc\lv_style.h ****     LV_TEXT_DECOR_NONE          = 0x00,
 102:c:\projects\paindrain\arduinolcd\test\pain drain\libraries\lvgl\src\misc\lv_style.h ****     LV_TEXT_DECOR_UNDERLINE     = 0x01,
 103:c:\projects\paindrain\arduinolcd\test\pain drain\libraries\lvgl\src\misc\lv_style.h ****     LV_TEXT_DECOR_STRIKETHROUGH = 0x02,
 104:c:\projects\paindrain\arduinolcd\test\pain drain\libraries\lvgl\src\misc\lv_style.h **** };
 105:c:\projects\paindrain\arduinolcd\test\pain drain\libraries\lvgl\src\misc\lv_style.h **** 
 106:c:\projects\paindrain\arduinolcd\test\pain drain\libraries\lvgl\src\misc\lv_style.h **** typedef uint8_t lv_text_decor_t;
 107:c:\projects\paindrain\arduinolcd\test\pain drain\libraries\lvgl\src\misc\lv_style.h **** 
 108:c:\projects\paindrain\arduinolcd\test\pain drain\libraries\lvgl\src\misc\lv_style.h **** /**
 109:c:\projects\paindrain\arduinolcd\test\pain drain\libraries\lvgl\src\misc\lv_style.h ****  * Selects on which sides border should be drawn
 110:c:\projects\paindrain\arduinolcd\test\pain drain\libraries\lvgl\src\misc\lv_style.h ****  * 'OR'ed values can be used.
 111:c:\projects\paindrain\arduinolcd\test\pain drain\libraries\lvgl\src\misc\lv_style.h ****  */
 112:c:\projects\paindrain\arduinolcd\test\pain drain\libraries\lvgl\src\misc\lv_style.h **** enum {
 113:c:\projects\paindrain\arduinolcd\test\pain drain\libraries\lvgl\src\misc\lv_style.h ****     LV_BORDER_SIDE_NONE     = 0x00,
 114:c:\projects\paindrain\arduinolcd\test\pain drain\libraries\lvgl\src\misc\lv_style.h ****     LV_BORDER_SIDE_BOTTOM   = 0x01,
 115:c:\projects\paindrain\arduinolcd\test\pain drain\libraries\lvgl\src\misc\lv_style.h ****     LV_BORDER_SIDE_TOP      = 0x02,
 116:c:\projects\paindrain\arduinolcd\test\pain drain\libraries\lvgl\src\misc\lv_style.h ****     LV_BORDER_SIDE_LEFT     = 0x04,
 117:c:\projects\paindrain\arduinolcd\test\pain drain\libraries\lvgl\src\misc\lv_style.h ****     LV_BORDER_SIDE_RIGHT    = 0x08,
 118:c:\projects\paindrain\arduinolcd\test\pain drain\libraries\lvgl\src\misc\lv_style.h ****     LV_BORDER_SIDE_FULL     = 0x0F,
 119:c:\projects\paindrain\arduinolcd\test\pain drain\libraries\lvgl\src\misc\lv_style.h ****     LV_BORDER_SIDE_INTERNAL = 0x10, /**< FOR matrix-like objects (e.g. Button matrix)*/
 120:c:\projects\paindrain\arduinolcd\test\pain drain\libraries\lvgl\src\misc\lv_style.h **** };
 121:c:\projects\paindrain\arduinolcd\test\pain drain\libraries\lvgl\src\misc\lv_style.h **** typedef uint8_t lv_border_side_t;
 122:c:\projects\paindrain\arduinolcd\test\pain drain\libraries\lvgl\src\misc\lv_style.h **** 
 123:c:\projects\paindrain\arduinolcd\test\pain drain\libraries\lvgl\src\misc\lv_style.h **** /**
 124:c:\projects\paindrain\arduinolcd\test\pain drain\libraries\lvgl\src\misc\lv_style.h ****  * The direction of the gradient.
 125:c:\projects\paindrain\arduinolcd\test\pain drain\libraries\lvgl\src\misc\lv_style.h ****  */
 126:c:\projects\paindrain\arduinolcd\test\pain drain\libraries\lvgl\src\misc\lv_style.h **** enum {
 127:c:\projects\paindrain\arduinolcd\test\pain drain\libraries\lvgl\src\misc\lv_style.h ****     LV_GRAD_DIR_NONE, /**< No gradient (the `grad_color` property is ignored)*/
 128:c:\projects\paindrain\arduinolcd\test\pain drain\libraries\lvgl\src\misc\lv_style.h ****     LV_GRAD_DIR_VER,  /**< Vertical (top to bottom) gradient*/
 129:c:\projects\paindrain\arduinolcd\test\pain drain\libraries\lvgl\src\misc\lv_style.h ****     LV_GRAD_DIR_HOR,  /**< Horizontal (left to right) gradient*/
 130:c:\projects\paindrain\arduinolcd\test\pain drain\libraries\lvgl\src\misc\lv_style.h **** };
 131:c:\projects\paindrain\arduinolcd\test\pain drain\libraries\lvgl\src\misc\lv_style.h **** 
 132:c:\projects\paindrain\arduinolcd\test\pain drain\libraries\lvgl\src\misc\lv_style.h **** typedef uint8_t lv_grad_dir_t;
 133:c:\projects\paindrain\arduinolcd\test\pain drain\libraries\lvgl\src\misc\lv_style.h **** 
 134:c:\projects\paindrain\arduinolcd\test\pain drain\libraries\lvgl\src\misc\lv_style.h **** /**
 135:c:\projects\paindrain\arduinolcd\test\pain drain\libraries\lvgl\src\misc\lv_style.h ****  * The dithering algorithm for the gradient
 136:c:\projects\paindrain\arduinolcd\test\pain drain\libraries\lvgl\src\misc\lv_style.h ****  * Depends on LV_DITHER_GRADIENT
 137:c:\projects\paindrain\arduinolcd\test\pain drain\libraries\lvgl\src\misc\lv_style.h ****  */
 138:c:\projects\paindrain\arduinolcd\test\pain drain\libraries\lvgl\src\misc\lv_style.h **** enum {
 139:c:\projects\paindrain\arduinolcd\test\pain drain\libraries\lvgl\src\misc\lv_style.h ****     LV_DITHER_NONE,     /**< No dithering, colors are just quantized to the output resolution*/
ARM GAS  C:\Users\haske\AppData\Local\Temp\ccVOiHBd.s 			page 47


 140:c:\projects\paindrain\arduinolcd\test\pain drain\libraries\lvgl\src\misc\lv_style.h ****     LV_DITHER_ORDERED,  /**< Ordered dithering. Faster to compute and use less memory but lower qua
 141:c:\projects\paindrain\arduinolcd\test\pain drain\libraries\lvgl\src\misc\lv_style.h ****     LV_DITHER_ERR_DIFF, /**< Error diffusion mode. Slower to compute and use more memory but give h
 142:c:\projects\paindrain\arduinolcd\test\pain drain\libraries\lvgl\src\misc\lv_style.h **** };
 143:c:\projects\paindrain\arduinolcd\test\pain drain\libraries\lvgl\src\misc\lv_style.h **** 
 144:c:\projects\paindrain\arduinolcd\test\pain drain\libraries\lvgl\src\misc\lv_style.h **** typedef uint8_t lv_dither_mode_t;
 145:c:\projects\paindrain\arduinolcd\test\pain drain\libraries\lvgl\src\misc\lv_style.h **** 
 146:c:\projects\paindrain\arduinolcd\test\pain drain\libraries\lvgl\src\misc\lv_style.h **** /** A gradient stop definition.
 147:c:\projects\paindrain\arduinolcd\test\pain drain\libraries\lvgl\src\misc\lv_style.h ****  *  This matches a color and a position in a virtual 0-255 scale.
 148:c:\projects\paindrain\arduinolcd\test\pain drain\libraries\lvgl\src\misc\lv_style.h ****  */
 149:c:\projects\paindrain\arduinolcd\test\pain drain\libraries\lvgl\src\misc\lv_style.h **** typedef struct {
 150:c:\projects\paindrain\arduinolcd\test\pain drain\libraries\lvgl\src\misc\lv_style.h ****     lv_color_t color;   /**< The stop color */
 151:c:\projects\paindrain\arduinolcd\test\pain drain\libraries\lvgl\src\misc\lv_style.h ****     uint8_t    frac;    /**< The stop position in 1/255 unit */
 152:c:\projects\paindrain\arduinolcd\test\pain drain\libraries\lvgl\src\misc\lv_style.h **** } lv_gradient_stop_t;
 153:c:\projects\paindrain\arduinolcd\test\pain drain\libraries\lvgl\src\misc\lv_style.h **** 
 154:c:\projects\paindrain\arduinolcd\test\pain drain\libraries\lvgl\src\misc\lv_style.h **** /** A descriptor of a gradient. */
 155:c:\projects\paindrain\arduinolcd\test\pain drain\libraries\lvgl\src\misc\lv_style.h **** typedef struct {
 156:c:\projects\paindrain\arduinolcd\test\pain drain\libraries\lvgl\src\misc\lv_style.h ****     lv_gradient_stop_t   stops[LV_GRADIENT_MAX_STOPS]; /**< A gradient stop array */
 157:c:\projects\paindrain\arduinolcd\test\pain drain\libraries\lvgl\src\misc\lv_style.h ****     uint8_t              stops_count;                  /**< The number of used stops in the array *
 158:c:\projects\paindrain\arduinolcd\test\pain drain\libraries\lvgl\src\misc\lv_style.h ****     lv_grad_dir_t        dir : 3;                      /**< The gradient direction.
 159:c:\projects\paindrain\arduinolcd\test\pain drain\libraries\lvgl\src\misc\lv_style.h ****                                                         * Any of LV_GRAD_DIR_HOR, LV_GRAD_DIR_VER, 
 160:c:\projects\paindrain\arduinolcd\test\pain drain\libraries\lvgl\src\misc\lv_style.h ****     lv_dither_mode_t     dither : 3;                   /**< Whether to dither the gradient or not.
 161:c:\projects\paindrain\arduinolcd\test\pain drain\libraries\lvgl\src\misc\lv_style.h ****                                                         * Any of LV_DITHER_NONE, LV_DITHER_ORDERED,
 162:c:\projects\paindrain\arduinolcd\test\pain drain\libraries\lvgl\src\misc\lv_style.h **** } lv_grad_dsc_t;
 163:c:\projects\paindrain\arduinolcd\test\pain drain\libraries\lvgl\src\misc\lv_style.h **** 
 164:c:\projects\paindrain\arduinolcd\test\pain drain\libraries\lvgl\src\misc\lv_style.h **** /**
 165:c:\projects\paindrain\arduinolcd\test\pain drain\libraries\lvgl\src\misc\lv_style.h ****  * A common type to handle all the property types in the same way.
 166:c:\projects\paindrain\arduinolcd\test\pain drain\libraries\lvgl\src\misc\lv_style.h ****  */
 167:c:\projects\paindrain\arduinolcd\test\pain drain\libraries\lvgl\src\misc\lv_style.h **** typedef union {
 168:c:\projects\paindrain\arduinolcd\test\pain drain\libraries\lvgl\src\misc\lv_style.h ****     int32_t num;         /**< Number integer number (opacity, enums, booleans or "normal" numbers)*
 169:c:\projects\paindrain\arduinolcd\test\pain drain\libraries\lvgl\src\misc\lv_style.h ****     const void * ptr;    /**< Constant pointers  (font, cone text, etc)*/
 170:c:\projects\paindrain\arduinolcd\test\pain drain\libraries\lvgl\src\misc\lv_style.h ****     lv_color_t color;    /**< Colors*/
 171:c:\projects\paindrain\arduinolcd\test\pain drain\libraries\lvgl\src\misc\lv_style.h **** } lv_style_value_t;
 172:c:\projects\paindrain\arduinolcd\test\pain drain\libraries\lvgl\src\misc\lv_style.h **** 
 173:c:\projects\paindrain\arduinolcd\test\pain drain\libraries\lvgl\src\misc\lv_style.h **** /**
 174:c:\projects\paindrain\arduinolcd\test\pain drain\libraries\lvgl\src\misc\lv_style.h ****  * Enumeration of all built in style properties
 175:c:\projects\paindrain\arduinolcd\test\pain drain\libraries\lvgl\src\misc\lv_style.h ****  *
 176:c:\projects\paindrain\arduinolcd\test\pain drain\libraries\lvgl\src\misc\lv_style.h ****  * Props are split into groups of 16. When adding a new prop to a group, ensure it does not overflo
 177:c:\projects\paindrain\arduinolcd\test\pain drain\libraries\lvgl\src\misc\lv_style.h ****  */
 178:c:\projects\paindrain\arduinolcd\test\pain drain\libraries\lvgl\src\misc\lv_style.h **** typedef enum {
 179:c:\projects\paindrain\arduinolcd\test\pain drain\libraries\lvgl\src\misc\lv_style.h ****     LV_STYLE_PROP_INV               = 0,
 180:c:\projects\paindrain\arduinolcd\test\pain drain\libraries\lvgl\src\misc\lv_style.h **** 
 181:c:\projects\paindrain\arduinolcd\test\pain drain\libraries\lvgl\src\misc\lv_style.h ****     /*Group 0*/
 182:c:\projects\paindrain\arduinolcd\test\pain drain\libraries\lvgl\src\misc\lv_style.h ****     LV_STYLE_WIDTH                  = 1,
 183:c:\projects\paindrain\arduinolcd\test\pain drain\libraries\lvgl\src\misc\lv_style.h ****     LV_STYLE_MIN_WIDTH              = 2,
 184:c:\projects\paindrain\arduinolcd\test\pain drain\libraries\lvgl\src\misc\lv_style.h ****     LV_STYLE_MAX_WIDTH              = 3,
 185:c:\projects\paindrain\arduinolcd\test\pain drain\libraries\lvgl\src\misc\lv_style.h ****     LV_STYLE_HEIGHT                 = 4,
 186:c:\projects\paindrain\arduinolcd\test\pain drain\libraries\lvgl\src\misc\lv_style.h ****     LV_STYLE_MIN_HEIGHT             = 5,
 187:c:\projects\paindrain\arduinolcd\test\pain drain\libraries\lvgl\src\misc\lv_style.h ****     LV_STYLE_MAX_HEIGHT             = 6,
 188:c:\projects\paindrain\arduinolcd\test\pain drain\libraries\lvgl\src\misc\lv_style.h ****     LV_STYLE_X                      = 7,
 189:c:\projects\paindrain\arduinolcd\test\pain drain\libraries\lvgl\src\misc\lv_style.h ****     LV_STYLE_Y                      = 8,
 190:c:\projects\paindrain\arduinolcd\test\pain drain\libraries\lvgl\src\misc\lv_style.h ****     LV_STYLE_ALIGN                  = 9,
 191:c:\projects\paindrain\arduinolcd\test\pain drain\libraries\lvgl\src\misc\lv_style.h ****     LV_STYLE_LAYOUT                 = 10,
 192:c:\projects\paindrain\arduinolcd\test\pain drain\libraries\lvgl\src\misc\lv_style.h ****     LV_STYLE_RADIUS                 = 11,
 193:c:\projects\paindrain\arduinolcd\test\pain drain\libraries\lvgl\src\misc\lv_style.h **** 
 194:c:\projects\paindrain\arduinolcd\test\pain drain\libraries\lvgl\src\misc\lv_style.h ****     /*Group 1*/
 195:c:\projects\paindrain\arduinolcd\test\pain drain\libraries\lvgl\src\misc\lv_style.h ****     LV_STYLE_PAD_TOP                = 16,
 196:c:\projects\paindrain\arduinolcd\test\pain drain\libraries\lvgl\src\misc\lv_style.h ****     LV_STYLE_PAD_BOTTOM             = 17,
ARM GAS  C:\Users\haske\AppData\Local\Temp\ccVOiHBd.s 			page 48


 197:c:\projects\paindrain\arduinolcd\test\pain drain\libraries\lvgl\src\misc\lv_style.h ****     LV_STYLE_PAD_LEFT               = 18,
 198:c:\projects\paindrain\arduinolcd\test\pain drain\libraries\lvgl\src\misc\lv_style.h ****     LV_STYLE_PAD_RIGHT              = 19,
 199:c:\projects\paindrain\arduinolcd\test\pain drain\libraries\lvgl\src\misc\lv_style.h ****     LV_STYLE_PAD_ROW                = 20,
 200:c:\projects\paindrain\arduinolcd\test\pain drain\libraries\lvgl\src\misc\lv_style.h ****     LV_STYLE_PAD_COLUMN             = 21,
 201:c:\projects\paindrain\arduinolcd\test\pain drain\libraries\lvgl\src\misc\lv_style.h ****     LV_STYLE_BASE_DIR               = 22,
 202:c:\projects\paindrain\arduinolcd\test\pain drain\libraries\lvgl\src\misc\lv_style.h ****     LV_STYLE_CLIP_CORNER            = 23,
 203:c:\projects\paindrain\arduinolcd\test\pain drain\libraries\lvgl\src\misc\lv_style.h **** 
 204:c:\projects\paindrain\arduinolcd\test\pain drain\libraries\lvgl\src\misc\lv_style.h ****     /*Group 2*/
 205:c:\projects\paindrain\arduinolcd\test\pain drain\libraries\lvgl\src\misc\lv_style.h ****     LV_STYLE_BG_COLOR               = 32,
 206:c:\projects\paindrain\arduinolcd\test\pain drain\libraries\lvgl\src\misc\lv_style.h ****     LV_STYLE_BG_OPA                 = 33,
 207:c:\projects\paindrain\arduinolcd\test\pain drain\libraries\lvgl\src\misc\lv_style.h ****     LV_STYLE_BG_GRAD_COLOR          = 34,
 208:c:\projects\paindrain\arduinolcd\test\pain drain\libraries\lvgl\src\misc\lv_style.h ****     LV_STYLE_BG_GRAD_DIR            = 35,
 209:c:\projects\paindrain\arduinolcd\test\pain drain\libraries\lvgl\src\misc\lv_style.h ****     LV_STYLE_BG_MAIN_STOP           = 36,
 210:c:\projects\paindrain\arduinolcd\test\pain drain\libraries\lvgl\src\misc\lv_style.h ****     LV_STYLE_BG_GRAD_STOP           = 37,
 211:c:\projects\paindrain\arduinolcd\test\pain drain\libraries\lvgl\src\misc\lv_style.h ****     LV_STYLE_BG_GRAD                = 38,
 212:c:\projects\paindrain\arduinolcd\test\pain drain\libraries\lvgl\src\misc\lv_style.h ****     LV_STYLE_BG_DITHER_MODE         = 39,
 213:c:\projects\paindrain\arduinolcd\test\pain drain\libraries\lvgl\src\misc\lv_style.h ****     LV_STYLE_BG_IMG_SRC             = 40,
 214:c:\projects\paindrain\arduinolcd\test\pain drain\libraries\lvgl\src\misc\lv_style.h ****     LV_STYLE_BG_IMG_OPA             = 41,
 215:c:\projects\paindrain\arduinolcd\test\pain drain\libraries\lvgl\src\misc\lv_style.h ****     LV_STYLE_BG_IMG_RECOLOR         = 42,
 216:c:\projects\paindrain\arduinolcd\test\pain drain\libraries\lvgl\src\misc\lv_style.h ****     LV_STYLE_BG_IMG_RECOLOR_OPA     = 43,
 217:c:\projects\paindrain\arduinolcd\test\pain drain\libraries\lvgl\src\misc\lv_style.h ****     LV_STYLE_BG_IMG_TILED           = 44,
 218:c:\projects\paindrain\arduinolcd\test\pain drain\libraries\lvgl\src\misc\lv_style.h **** 
 219:c:\projects\paindrain\arduinolcd\test\pain drain\libraries\lvgl\src\misc\lv_style.h ****     /*Group 3*/
 220:c:\projects\paindrain\arduinolcd\test\pain drain\libraries\lvgl\src\misc\lv_style.h ****     LV_STYLE_BORDER_COLOR           = 48,
 221:c:\projects\paindrain\arduinolcd\test\pain drain\libraries\lvgl\src\misc\lv_style.h ****     LV_STYLE_BORDER_OPA             = 49,
 222:c:\projects\paindrain\arduinolcd\test\pain drain\libraries\lvgl\src\misc\lv_style.h ****     LV_STYLE_BORDER_WIDTH           = 50,
 223:c:\projects\paindrain\arduinolcd\test\pain drain\libraries\lvgl\src\misc\lv_style.h ****     LV_STYLE_BORDER_SIDE            = 51,
 224:c:\projects\paindrain\arduinolcd\test\pain drain\libraries\lvgl\src\misc\lv_style.h ****     LV_STYLE_BORDER_POST            = 52,
 225:c:\projects\paindrain\arduinolcd\test\pain drain\libraries\lvgl\src\misc\lv_style.h ****     LV_STYLE_OUTLINE_WIDTH          = 53,
 226:c:\projects\paindrain\arduinolcd\test\pain drain\libraries\lvgl\src\misc\lv_style.h ****     LV_STYLE_OUTLINE_COLOR          = 54,
 227:c:\projects\paindrain\arduinolcd\test\pain drain\libraries\lvgl\src\misc\lv_style.h ****     LV_STYLE_OUTLINE_OPA            = 55,
 228:c:\projects\paindrain\arduinolcd\test\pain drain\libraries\lvgl\src\misc\lv_style.h ****     LV_STYLE_OUTLINE_PAD            = 56,
 229:c:\projects\paindrain\arduinolcd\test\pain drain\libraries\lvgl\src\misc\lv_style.h **** 
 230:c:\projects\paindrain\arduinolcd\test\pain drain\libraries\lvgl\src\misc\lv_style.h ****     /*Group 4*/
 231:c:\projects\paindrain\arduinolcd\test\pain drain\libraries\lvgl\src\misc\lv_style.h ****     LV_STYLE_SHADOW_WIDTH           = 64,
 232:c:\projects\paindrain\arduinolcd\test\pain drain\libraries\lvgl\src\misc\lv_style.h ****     LV_STYLE_SHADOW_OFS_X           = 65,
 233:c:\projects\paindrain\arduinolcd\test\pain drain\libraries\lvgl\src\misc\lv_style.h ****     LV_STYLE_SHADOW_OFS_Y           = 66,
 234:c:\projects\paindrain\arduinolcd\test\pain drain\libraries\lvgl\src\misc\lv_style.h ****     LV_STYLE_SHADOW_SPREAD          = 67,
 235:c:\projects\paindrain\arduinolcd\test\pain drain\libraries\lvgl\src\misc\lv_style.h ****     LV_STYLE_SHADOW_COLOR           = 68,
 236:c:\projects\paindrain\arduinolcd\test\pain drain\libraries\lvgl\src\misc\lv_style.h ****     LV_STYLE_SHADOW_OPA             = 69,
 237:c:\projects\paindrain\arduinolcd\test\pain drain\libraries\lvgl\src\misc\lv_style.h ****     LV_STYLE_IMG_OPA                = 70,
 238:c:\projects\paindrain\arduinolcd\test\pain drain\libraries\lvgl\src\misc\lv_style.h ****     LV_STYLE_IMG_RECOLOR            = 71,
 239:c:\projects\paindrain\arduinolcd\test\pain drain\libraries\lvgl\src\misc\lv_style.h ****     LV_STYLE_IMG_RECOLOR_OPA        = 72,
 240:c:\projects\paindrain\arduinolcd\test\pain drain\libraries\lvgl\src\misc\lv_style.h ****     LV_STYLE_LINE_WIDTH             = 73,
 241:c:\projects\paindrain\arduinolcd\test\pain drain\libraries\lvgl\src\misc\lv_style.h ****     LV_STYLE_LINE_DASH_WIDTH        = 74,
 242:c:\projects\paindrain\arduinolcd\test\pain drain\libraries\lvgl\src\misc\lv_style.h ****     LV_STYLE_LINE_DASH_GAP          = 75,
 243:c:\projects\paindrain\arduinolcd\test\pain drain\libraries\lvgl\src\misc\lv_style.h ****     LV_STYLE_LINE_ROUNDED           = 76,
 244:c:\projects\paindrain\arduinolcd\test\pain drain\libraries\lvgl\src\misc\lv_style.h ****     LV_STYLE_LINE_COLOR             = 77,
 245:c:\projects\paindrain\arduinolcd\test\pain drain\libraries\lvgl\src\misc\lv_style.h ****     LV_STYLE_LINE_OPA               = 78,
 246:c:\projects\paindrain\arduinolcd\test\pain drain\libraries\lvgl\src\misc\lv_style.h **** 
 247:c:\projects\paindrain\arduinolcd\test\pain drain\libraries\lvgl\src\misc\lv_style.h ****     /*Group 5*/
 248:c:\projects\paindrain\arduinolcd\test\pain drain\libraries\lvgl\src\misc\lv_style.h ****     LV_STYLE_ARC_WIDTH              = 80,
 249:c:\projects\paindrain\arduinolcd\test\pain drain\libraries\lvgl\src\misc\lv_style.h ****     LV_STYLE_ARC_ROUNDED            = 81,
 250:c:\projects\paindrain\arduinolcd\test\pain drain\libraries\lvgl\src\misc\lv_style.h ****     LV_STYLE_ARC_COLOR              = 82,
 251:c:\projects\paindrain\arduinolcd\test\pain drain\libraries\lvgl\src\misc\lv_style.h ****     LV_STYLE_ARC_OPA                = 83,
 252:c:\projects\paindrain\arduinolcd\test\pain drain\libraries\lvgl\src\misc\lv_style.h ****     LV_STYLE_ARC_IMG_SRC            = 84,
 253:c:\projects\paindrain\arduinolcd\test\pain drain\libraries\lvgl\src\misc\lv_style.h ****     LV_STYLE_TEXT_COLOR             = 85,
ARM GAS  C:\Users\haske\AppData\Local\Temp\ccVOiHBd.s 			page 49


 254:c:\projects\paindrain\arduinolcd\test\pain drain\libraries\lvgl\src\misc\lv_style.h ****     LV_STYLE_TEXT_OPA               = 86,
 255:c:\projects\paindrain\arduinolcd\test\pain drain\libraries\lvgl\src\misc\lv_style.h ****     LV_STYLE_TEXT_FONT              = 87,
 256:c:\projects\paindrain\arduinolcd\test\pain drain\libraries\lvgl\src\misc\lv_style.h ****     LV_STYLE_TEXT_LETTER_SPACE      = 88,
 257:c:\projects\paindrain\arduinolcd\test\pain drain\libraries\lvgl\src\misc\lv_style.h ****     LV_STYLE_TEXT_LINE_SPACE        = 89,
 258:c:\projects\paindrain\arduinolcd\test\pain drain\libraries\lvgl\src\misc\lv_style.h ****     LV_STYLE_TEXT_DECOR             = 90,
 259:c:\projects\paindrain\arduinolcd\test\pain drain\libraries\lvgl\src\misc\lv_style.h ****     LV_STYLE_TEXT_ALIGN             = 91,
 260:c:\projects\paindrain\arduinolcd\test\pain drain\libraries\lvgl\src\misc\lv_style.h **** 
 261:c:\projects\paindrain\arduinolcd\test\pain drain\libraries\lvgl\src\misc\lv_style.h ****     /*Group 6*/
 262:c:\projects\paindrain\arduinolcd\test\pain drain\libraries\lvgl\src\misc\lv_style.h ****     LV_STYLE_OPA                    = 96,
 263:c:\projects\paindrain\arduinolcd\test\pain drain\libraries\lvgl\src\misc\lv_style.h ****     LV_STYLE_COLOR_FILTER_DSC       = 97,
 264:c:\projects\paindrain\arduinolcd\test\pain drain\libraries\lvgl\src\misc\lv_style.h ****     LV_STYLE_COLOR_FILTER_OPA       = 98,
 265:c:\projects\paindrain\arduinolcd\test\pain drain\libraries\lvgl\src\misc\lv_style.h ****     LV_STYLE_ANIM                   = 99,
 266:c:\projects\paindrain\arduinolcd\test\pain drain\libraries\lvgl\src\misc\lv_style.h ****     LV_STYLE_ANIM_TIME              = 100,
 267:c:\projects\paindrain\arduinolcd\test\pain drain\libraries\lvgl\src\misc\lv_style.h ****     LV_STYLE_ANIM_SPEED             = 101,
 268:c:\projects\paindrain\arduinolcd\test\pain drain\libraries\lvgl\src\misc\lv_style.h ****     LV_STYLE_TRANSITION             = 102,
 269:c:\projects\paindrain\arduinolcd\test\pain drain\libraries\lvgl\src\misc\lv_style.h ****     LV_STYLE_BLEND_MODE             = 103,
 270:c:\projects\paindrain\arduinolcd\test\pain drain\libraries\lvgl\src\misc\lv_style.h ****     LV_STYLE_TRANSFORM_WIDTH        = 104,
 271:c:\projects\paindrain\arduinolcd\test\pain drain\libraries\lvgl\src\misc\lv_style.h ****     LV_STYLE_TRANSFORM_HEIGHT       = 105,
 272:c:\projects\paindrain\arduinolcd\test\pain drain\libraries\lvgl\src\misc\lv_style.h ****     LV_STYLE_TRANSLATE_X            = 106,
 273:c:\projects\paindrain\arduinolcd\test\pain drain\libraries\lvgl\src\misc\lv_style.h ****     LV_STYLE_TRANSLATE_Y            = 107,
 274:c:\projects\paindrain\arduinolcd\test\pain drain\libraries\lvgl\src\misc\lv_style.h ****     LV_STYLE_TRANSFORM_ZOOM         = 108,
 275:c:\projects\paindrain\arduinolcd\test\pain drain\libraries\lvgl\src\misc\lv_style.h ****     LV_STYLE_TRANSFORM_ANGLE        = 109,
 276:c:\projects\paindrain\arduinolcd\test\pain drain\libraries\lvgl\src\misc\lv_style.h ****     LV_STYLE_TRANSFORM_PIVOT_X      = 110,
 277:c:\projects\paindrain\arduinolcd\test\pain drain\libraries\lvgl\src\misc\lv_style.h ****     LV_STYLE_TRANSFORM_PIVOT_Y      = 111,
 278:c:\projects\paindrain\arduinolcd\test\pain drain\libraries\lvgl\src\misc\lv_style.h **** 
 279:c:\projects\paindrain\arduinolcd\test\pain drain\libraries\lvgl\src\misc\lv_style.h ****     _LV_STYLE_LAST_BUILT_IN_PROP     = 111,
 280:c:\projects\paindrain\arduinolcd\test\pain drain\libraries\lvgl\src\misc\lv_style.h ****     _LV_STYLE_NUM_BUILT_IN_PROPS     = _LV_STYLE_LAST_BUILT_IN_PROP + 1,
 281:c:\projects\paindrain\arduinolcd\test\pain drain\libraries\lvgl\src\misc\lv_style.h **** 
 282:c:\projects\paindrain\arduinolcd\test\pain drain\libraries\lvgl\src\misc\lv_style.h ****     LV_STYLE_PROP_ANY                = 0xFFFF,
 283:c:\projects\paindrain\arduinolcd\test\pain drain\libraries\lvgl\src\misc\lv_style.h ****     _LV_STYLE_PROP_CONST             = 0xFFFF /* magic value for const styles */
 284:c:\projects\paindrain\arduinolcd\test\pain drain\libraries\lvgl\src\misc\lv_style.h **** } lv_style_prop_t;
 285:c:\projects\paindrain\arduinolcd\test\pain drain\libraries\lvgl\src\misc\lv_style.h **** 
 286:c:\projects\paindrain\arduinolcd\test\pain drain\libraries\lvgl\src\misc\lv_style.h **** enum {
 287:c:\projects\paindrain\arduinolcd\test\pain drain\libraries\lvgl\src\misc\lv_style.h ****     LV_STYLE_RES_NOT_FOUND,
 288:c:\projects\paindrain\arduinolcd\test\pain drain\libraries\lvgl\src\misc\lv_style.h ****     LV_STYLE_RES_FOUND,
 289:c:\projects\paindrain\arduinolcd\test\pain drain\libraries\lvgl\src\misc\lv_style.h ****     LV_STYLE_RES_INHERIT
 290:c:\projects\paindrain\arduinolcd\test\pain drain\libraries\lvgl\src\misc\lv_style.h **** };
 291:c:\projects\paindrain\arduinolcd\test\pain drain\libraries\lvgl\src\misc\lv_style.h **** 
 292:c:\projects\paindrain\arduinolcd\test\pain drain\libraries\lvgl\src\misc\lv_style.h **** typedef uint8_t lv_style_res_t;
 293:c:\projects\paindrain\arduinolcd\test\pain drain\libraries\lvgl\src\misc\lv_style.h **** 
 294:c:\projects\paindrain\arduinolcd\test\pain drain\libraries\lvgl\src\misc\lv_style.h **** /**
 295:c:\projects\paindrain\arduinolcd\test\pain drain\libraries\lvgl\src\misc\lv_style.h ****  * Descriptor for style transitions
 296:c:\projects\paindrain\arduinolcd\test\pain drain\libraries\lvgl\src\misc\lv_style.h ****  */
 297:c:\projects\paindrain\arduinolcd\test\pain drain\libraries\lvgl\src\misc\lv_style.h **** typedef struct {
 298:c:\projects\paindrain\arduinolcd\test\pain drain\libraries\lvgl\src\misc\lv_style.h ****     const lv_style_prop_t * props; /**< An array with the properties to animate.*/
 299:c:\projects\paindrain\arduinolcd\test\pain drain\libraries\lvgl\src\misc\lv_style.h **** #if LV_USE_USER_DATA
 300:c:\projects\paindrain\arduinolcd\test\pain drain\libraries\lvgl\src\misc\lv_style.h ****     void * user_data;              /**< A custom user data that will be passed to the animation's u
 301:c:\projects\paindrain\arduinolcd\test\pain drain\libraries\lvgl\src\misc\lv_style.h **** #endif
 302:c:\projects\paindrain\arduinolcd\test\pain drain\libraries\lvgl\src\misc\lv_style.h ****     lv_anim_path_cb_t path_xcb;     /**< A path for the animation.*/
 303:c:\projects\paindrain\arduinolcd\test\pain drain\libraries\lvgl\src\misc\lv_style.h ****     uint32_t time;                 /**< Duration of the transition in [ms]*/
 304:c:\projects\paindrain\arduinolcd\test\pain drain\libraries\lvgl\src\misc\lv_style.h ****     uint32_t delay;                /**< Delay before the transition in [ms]*/
 305:c:\projects\paindrain\arduinolcd\test\pain drain\libraries\lvgl\src\misc\lv_style.h **** } lv_style_transition_dsc_t;
 306:c:\projects\paindrain\arduinolcd\test\pain drain\libraries\lvgl\src\misc\lv_style.h **** 
 307:c:\projects\paindrain\arduinolcd\test\pain drain\libraries\lvgl\src\misc\lv_style.h **** /**
 308:c:\projects\paindrain\arduinolcd\test\pain drain\libraries\lvgl\src\misc\lv_style.h ****  * Descriptor of a constant style property.
 309:c:\projects\paindrain\arduinolcd\test\pain drain\libraries\lvgl\src\misc\lv_style.h ****  */
 310:c:\projects\paindrain\arduinolcd\test\pain drain\libraries\lvgl\src\misc\lv_style.h **** typedef struct {
ARM GAS  C:\Users\haske\AppData\Local\Temp\ccVOiHBd.s 			page 50


 311:c:\projects\paindrain\arduinolcd\test\pain drain\libraries\lvgl\src\misc\lv_style.h ****     lv_style_prop_t prop;
 312:c:\projects\paindrain\arduinolcd\test\pain drain\libraries\lvgl\src\misc\lv_style.h ****     lv_style_value_t value;
 313:c:\projects\paindrain\arduinolcd\test\pain drain\libraries\lvgl\src\misc\lv_style.h **** } lv_style_const_prop_t;
 314:c:\projects\paindrain\arduinolcd\test\pain drain\libraries\lvgl\src\misc\lv_style.h **** 
 315:c:\projects\paindrain\arduinolcd\test\pain drain\libraries\lvgl\src\misc\lv_style.h **** /**
 316:c:\projects\paindrain\arduinolcd\test\pain drain\libraries\lvgl\src\misc\lv_style.h ****  * Descriptor of a style (a collection of properties and values).
 317:c:\projects\paindrain\arduinolcd\test\pain drain\libraries\lvgl\src\misc\lv_style.h ****  */
 318:c:\projects\paindrain\arduinolcd\test\pain drain\libraries\lvgl\src\misc\lv_style.h **** typedef struct {
 319:c:\projects\paindrain\arduinolcd\test\pain drain\libraries\lvgl\src\misc\lv_style.h **** 
 320:c:\projects\paindrain\arduinolcd\test\pain drain\libraries\lvgl\src\misc\lv_style.h **** #if LV_USE_ASSERT_STYLE
 321:c:\projects\paindrain\arduinolcd\test\pain drain\libraries\lvgl\src\misc\lv_style.h ****     uint32_t sentinel;
 322:c:\projects\paindrain\arduinolcd\test\pain drain\libraries\lvgl\src\misc\lv_style.h **** #endif
 323:c:\projects\paindrain\arduinolcd\test\pain drain\libraries\lvgl\src\misc\lv_style.h **** 
 324:c:\projects\paindrain\arduinolcd\test\pain drain\libraries\lvgl\src\misc\lv_style.h ****     /*If there is only one property store it directly.
 325:c:\projects\paindrain\arduinolcd\test\pain drain\libraries\lvgl\src\misc\lv_style.h ****      *For more properties allocate an array*/
 326:c:\projects\paindrain\arduinolcd\test\pain drain\libraries\lvgl\src\misc\lv_style.h ****     union {
 327:c:\projects\paindrain\arduinolcd\test\pain drain\libraries\lvgl\src\misc\lv_style.h ****         lv_style_value_t value1;
 328:c:\projects\paindrain\arduinolcd\test\pain drain\libraries\lvgl\src\misc\lv_style.h ****         uint8_t * values_and_props;
 329:c:\projects\paindrain\arduinolcd\test\pain drain\libraries\lvgl\src\misc\lv_style.h ****         const lv_style_const_prop_t * const_props;
 330:c:\projects\paindrain\arduinolcd\test\pain drain\libraries\lvgl\src\misc\lv_style.h ****     } v_p;
 331:c:\projects\paindrain\arduinolcd\test\pain drain\libraries\lvgl\src\misc\lv_style.h **** 
 332:c:\projects\paindrain\arduinolcd\test\pain drain\libraries\lvgl\src\misc\lv_style.h ****     uint16_t prop1;
 333:c:\projects\paindrain\arduinolcd\test\pain drain\libraries\lvgl\src\misc\lv_style.h ****     uint8_t has_group;
 334:c:\projects\paindrain\arduinolcd\test\pain drain\libraries\lvgl\src\misc\lv_style.h ****     uint8_t prop_cnt;
 335:c:\projects\paindrain\arduinolcd\test\pain drain\libraries\lvgl\src\misc\lv_style.h **** } lv_style_t;
 336:c:\projects\paindrain\arduinolcd\test\pain drain\libraries\lvgl\src\misc\lv_style.h **** 
 337:c:\projects\paindrain\arduinolcd\test\pain drain\libraries\lvgl\src\misc\lv_style.h **** /**********************
 338:c:\projects\paindrain\arduinolcd\test\pain drain\libraries\lvgl\src\misc\lv_style.h ****  * GLOBAL PROTOTYPES
 339:c:\projects\paindrain\arduinolcd\test\pain drain\libraries\lvgl\src\misc\lv_style.h ****  **********************/
 340:c:\projects\paindrain\arduinolcd\test\pain drain\libraries\lvgl\src\misc\lv_style.h **** 
 341:c:\projects\paindrain\arduinolcd\test\pain drain\libraries\lvgl\src\misc\lv_style.h **** 
 342:c:\projects\paindrain\arduinolcd\test\pain drain\libraries\lvgl\src\misc\lv_style.h **** /**
 343:c:\projects\paindrain\arduinolcd\test\pain drain\libraries\lvgl\src\misc\lv_style.h ****  * Initialize a style
 344:c:\projects\paindrain\arduinolcd\test\pain drain\libraries\lvgl\src\misc\lv_style.h ****  * @param style pointer to a style to initialize
 345:c:\projects\paindrain\arduinolcd\test\pain drain\libraries\lvgl\src\misc\lv_style.h ****  * @note Do not call `lv_style_init` on styles that already have some properties
 346:c:\projects\paindrain\arduinolcd\test\pain drain\libraries\lvgl\src\misc\lv_style.h ****  *       because this function won't free the used memory, just sets a default state for the style.
 347:c:\projects\paindrain\arduinolcd\test\pain drain\libraries\lvgl\src\misc\lv_style.h ****  *       In other words be sure to initialize styles only once!
 348:c:\projects\paindrain\arduinolcd\test\pain drain\libraries\lvgl\src\misc\lv_style.h ****  */
 349:c:\projects\paindrain\arduinolcd\test\pain drain\libraries\lvgl\src\misc\lv_style.h **** void lv_style_init(lv_style_t * style);
 350:c:\projects\paindrain\arduinolcd\test\pain drain\libraries\lvgl\src\misc\lv_style.h **** 
 351:c:\projects\paindrain\arduinolcd\test\pain drain\libraries\lvgl\src\misc\lv_style.h **** /**
 352:c:\projects\paindrain\arduinolcd\test\pain drain\libraries\lvgl\src\misc\lv_style.h ****  * Clear all properties from a style and free all allocated memories.
 353:c:\projects\paindrain\arduinolcd\test\pain drain\libraries\lvgl\src\misc\lv_style.h ****  * @param style pointer to a style
 354:c:\projects\paindrain\arduinolcd\test\pain drain\libraries\lvgl\src\misc\lv_style.h ****  */
 355:c:\projects\paindrain\arduinolcd\test\pain drain\libraries\lvgl\src\misc\lv_style.h **** void lv_style_reset(lv_style_t * style);
 356:c:\projects\paindrain\arduinolcd\test\pain drain\libraries\lvgl\src\misc\lv_style.h **** 
 357:c:\projects\paindrain\arduinolcd\test\pain drain\libraries\lvgl\src\misc\lv_style.h **** /**
 358:c:\projects\paindrain\arduinolcd\test\pain drain\libraries\lvgl\src\misc\lv_style.h ****  * Register a new style property for custom usage
 359:c:\projects\paindrain\arduinolcd\test\pain drain\libraries\lvgl\src\misc\lv_style.h ****  * @return a new property ID, or LV_STYLE_PROP_INV if there are no more available.
 360:c:\projects\paindrain\arduinolcd\test\pain drain\libraries\lvgl\src\misc\lv_style.h ****  * @example
 361:c:\projects\paindrain\arduinolcd\test\pain drain\libraries\lvgl\src\misc\lv_style.h ****  * lv_style_prop_t MY_PROP;
 362:c:\projects\paindrain\arduinolcd\test\pain drain\libraries\lvgl\src\misc\lv_style.h ****  * static inline void lv_style_set_my_prop(lv_style_t * style, lv_color_t value) {
 363:c:\projects\paindrain\arduinolcd\test\pain drain\libraries\lvgl\src\misc\lv_style.h ****  * lv_style_value_t v = {.color = value}; lv_style_set_prop(style, MY_PROP, v); }
 364:c:\projects\paindrain\arduinolcd\test\pain drain\libraries\lvgl\src\misc\lv_style.h ****  *
 365:c:\projects\paindrain\arduinolcd\test\pain drain\libraries\lvgl\src\misc\lv_style.h ****  * ...
 366:c:\projects\paindrain\arduinolcd\test\pain drain\libraries\lvgl\src\misc\lv_style.h ****  * MY_PROP = lv_style_register_prop();
 367:c:\projects\paindrain\arduinolcd\test\pain drain\libraries\lvgl\src\misc\lv_style.h ****  * ...
ARM GAS  C:\Users\haske\AppData\Local\Temp\ccVOiHBd.s 			page 51


 368:c:\projects\paindrain\arduinolcd\test\pain drain\libraries\lvgl\src\misc\lv_style.h ****  * lv_style_set_my_prop(&style1, lv_palette_main(LV_PALETTE_RED));
 369:c:\projects\paindrain\arduinolcd\test\pain drain\libraries\lvgl\src\misc\lv_style.h ****  */
 370:c:\projects\paindrain\arduinolcd\test\pain drain\libraries\lvgl\src\misc\lv_style.h **** lv_style_prop_t lv_style_register_prop(uint8_t flag);
 371:c:\projects\paindrain\arduinolcd\test\pain drain\libraries\lvgl\src\misc\lv_style.h **** 
 372:c:\projects\paindrain\arduinolcd\test\pain drain\libraries\lvgl\src\misc\lv_style.h **** /**
 373:c:\projects\paindrain\arduinolcd\test\pain drain\libraries\lvgl\src\misc\lv_style.h ****  * Get the number of custom properties that have been registered thus far.
 374:c:\projects\paindrain\arduinolcd\test\pain drain\libraries\lvgl\src\misc\lv_style.h ****  */
 375:c:\projects\paindrain\arduinolcd\test\pain drain\libraries\lvgl\src\misc\lv_style.h **** lv_style_prop_t lv_style_get_num_custom_props(void);
 376:c:\projects\paindrain\arduinolcd\test\pain drain\libraries\lvgl\src\misc\lv_style.h **** 
 377:c:\projects\paindrain\arduinolcd\test\pain drain\libraries\lvgl\src\misc\lv_style.h **** /**
 378:c:\projects\paindrain\arduinolcd\test\pain drain\libraries\lvgl\src\misc\lv_style.h ****  * Remove a property from a style
 379:c:\projects\paindrain\arduinolcd\test\pain drain\libraries\lvgl\src\misc\lv_style.h ****  * @param style pointer to a style
 380:c:\projects\paindrain\arduinolcd\test\pain drain\libraries\lvgl\src\misc\lv_style.h ****  * @param prop  a style property ORed with a state.
 381:c:\projects\paindrain\arduinolcd\test\pain drain\libraries\lvgl\src\misc\lv_style.h ****  * @return true: the property was found and removed; false: the property wasn't found
 382:c:\projects\paindrain\arduinolcd\test\pain drain\libraries\lvgl\src\misc\lv_style.h ****  */
 383:c:\projects\paindrain\arduinolcd\test\pain drain\libraries\lvgl\src\misc\lv_style.h **** bool lv_style_remove_prop(lv_style_t * style, lv_style_prop_t prop);
 384:c:\projects\paindrain\arduinolcd\test\pain drain\libraries\lvgl\src\misc\lv_style.h **** 
 385:c:\projects\paindrain\arduinolcd\test\pain drain\libraries\lvgl\src\misc\lv_style.h **** /**
 386:c:\projects\paindrain\arduinolcd\test\pain drain\libraries\lvgl\src\misc\lv_style.h ****  * Set the value of property in a style.
 387:c:\projects\paindrain\arduinolcd\test\pain drain\libraries\lvgl\src\misc\lv_style.h ****  * This function shouldn't be used directly by the user.
 388:c:\projects\paindrain\arduinolcd\test\pain drain\libraries\lvgl\src\misc\lv_style.h ****  * Instead use `lv_style_set_<prop_name>()`. E.g. `lv_style_set_bg_color()`
 389:c:\projects\paindrain\arduinolcd\test\pain drain\libraries\lvgl\src\misc\lv_style.h ****  * @param style pointer to style
 390:c:\projects\paindrain\arduinolcd\test\pain drain\libraries\lvgl\src\misc\lv_style.h ****  * @param prop the ID of a property (e.g. `LV_STYLE_BG_COLOR`)
 391:c:\projects\paindrain\arduinolcd\test\pain drain\libraries\lvgl\src\misc\lv_style.h ****  * @param value `lv_style_value_t` variable in which a field is set according to the type of `prop`
 392:c:\projects\paindrain\arduinolcd\test\pain drain\libraries\lvgl\src\misc\lv_style.h ****  */
 393:c:\projects\paindrain\arduinolcd\test\pain drain\libraries\lvgl\src\misc\lv_style.h **** void lv_style_set_prop(lv_style_t * style, lv_style_prop_t prop, lv_style_value_t value);
 394:c:\projects\paindrain\arduinolcd\test\pain drain\libraries\lvgl\src\misc\lv_style.h **** 
 395:c:\projects\paindrain\arduinolcd\test\pain drain\libraries\lvgl\src\misc\lv_style.h **** /**
 396:c:\projects\paindrain\arduinolcd\test\pain drain\libraries\lvgl\src\misc\lv_style.h ****  * Set a special meta state for a property in a style.
 397:c:\projects\paindrain\arduinolcd\test\pain drain\libraries\lvgl\src\misc\lv_style.h ****  * This function shouldn't be used directly by the user.
 398:c:\projects\paindrain\arduinolcd\test\pain drain\libraries\lvgl\src\misc\lv_style.h ****  * @param style pointer to style
 399:c:\projects\paindrain\arduinolcd\test\pain drain\libraries\lvgl\src\misc\lv_style.h ****  * @param prop the ID of a property (e.g. `LV_STYLE_BG_COLOR`)
 400:c:\projects\paindrain\arduinolcd\test\pain drain\libraries\lvgl\src\misc\lv_style.h ****  * @param meta the meta value to attach to the property in the style
 401:c:\projects\paindrain\arduinolcd\test\pain drain\libraries\lvgl\src\misc\lv_style.h ****  */
 402:c:\projects\paindrain\arduinolcd\test\pain drain\libraries\lvgl\src\misc\lv_style.h **** void lv_style_set_prop_meta(lv_style_t * style, lv_style_prop_t prop, uint16_t meta);
 403:c:\projects\paindrain\arduinolcd\test\pain drain\libraries\lvgl\src\misc\lv_style.h **** 
 404:c:\projects\paindrain\arduinolcd\test\pain drain\libraries\lvgl\src\misc\lv_style.h **** /**
 405:c:\projects\paindrain\arduinolcd\test\pain drain\libraries\lvgl\src\misc\lv_style.h ****  * Get the value of a property
 406:c:\projects\paindrain\arduinolcd\test\pain drain\libraries\lvgl\src\misc\lv_style.h ****  * @param style pointer to a style
 407:c:\projects\paindrain\arduinolcd\test\pain drain\libraries\lvgl\src\misc\lv_style.h ****  * @param prop  the ID of a property
 408:c:\projects\paindrain\arduinolcd\test\pain drain\libraries\lvgl\src\misc\lv_style.h ****  * @param value pointer to a `lv_style_value_t` variable to store the value
 409:c:\projects\paindrain\arduinolcd\test\pain drain\libraries\lvgl\src\misc\lv_style.h ****  * @return LV_RES_INV: the property wasn't found in the style (`value` is unchanged)
 410:c:\projects\paindrain\arduinolcd\test\pain drain\libraries\lvgl\src\misc\lv_style.h ****  *         LV_RES_OK: the property was fond, and `value` is set accordingly
 411:c:\projects\paindrain\arduinolcd\test\pain drain\libraries\lvgl\src\misc\lv_style.h ****  * @note For performance reasons there are no sanity check on `style`
 412:c:\projects\paindrain\arduinolcd\test\pain drain\libraries\lvgl\src\misc\lv_style.h ****  */
 413:c:\projects\paindrain\arduinolcd\test\pain drain\libraries\lvgl\src\misc\lv_style.h **** lv_style_res_t lv_style_get_prop(const lv_style_t * style, lv_style_prop_t prop, lv_style_value_t *
 414:c:\projects\paindrain\arduinolcd\test\pain drain\libraries\lvgl\src\misc\lv_style.h **** 
 415:c:\projects\paindrain\arduinolcd\test\pain drain\libraries\lvgl\src\misc\lv_style.h **** /**
 416:c:\projects\paindrain\arduinolcd\test\pain drain\libraries\lvgl\src\misc\lv_style.h ****  * Initialize a transition descriptor.
 417:c:\projects\paindrain\arduinolcd\test\pain drain\libraries\lvgl\src\misc\lv_style.h ****  * @param tr        pointer to a transition descriptor to initialize
 418:c:\projects\paindrain\arduinolcd\test\pain drain\libraries\lvgl\src\misc\lv_style.h ****  * @param props     an array with the properties to transition. The last element must be zero.
 419:c:\projects\paindrain\arduinolcd\test\pain drain\libraries\lvgl\src\misc\lv_style.h ****  * @param path_cb   an animation path (ease) callback. If `NULL` liner path will be used.
 420:c:\projects\paindrain\arduinolcd\test\pain drain\libraries\lvgl\src\misc\lv_style.h ****  * @param time      duration of the transition in [ms]
 421:c:\projects\paindrain\arduinolcd\test\pain drain\libraries\lvgl\src\misc\lv_style.h ****  * @param delay     delay before the transition in [ms]
 422:c:\projects\paindrain\arduinolcd\test\pain drain\libraries\lvgl\src\misc\lv_style.h ****  * @param user_data any custom data that will be saved in the transition animation and will be avai
 423:c:\projects\paindrain\arduinolcd\test\pain drain\libraries\lvgl\src\misc\lv_style.h ****  * @example
 424:c:\projects\paindrain\arduinolcd\test\pain drain\libraries\lvgl\src\misc\lv_style.h ****  * const static lv_style_prop_t trans_props[] = { LV_STYLE_BG_OPA, LV_STYLE_BG_COLOR, 0 };
ARM GAS  C:\Users\haske\AppData\Local\Temp\ccVOiHBd.s 			page 52


 425:c:\projects\paindrain\arduinolcd\test\pain drain\libraries\lvgl\src\misc\lv_style.h ****  *  static lv_style_transition_dsc_t trans1;
 426:c:\projects\paindrain\arduinolcd\test\pain drain\libraries\lvgl\src\misc\lv_style.h ****  *  lv_style_transition_dsc_init(&trans1, trans_props, NULL, 300, 0, NULL);
 427:c:\projects\paindrain\arduinolcd\test\pain drain\libraries\lvgl\src\misc\lv_style.h ****  */
 428:c:\projects\paindrain\arduinolcd\test\pain drain\libraries\lvgl\src\misc\lv_style.h **** void lv_style_transition_dsc_init(lv_style_transition_dsc_t * tr, const lv_style_prop_t props[],
 429:c:\projects\paindrain\arduinolcd\test\pain drain\libraries\lvgl\src\misc\lv_style.h ****                                   lv_anim_path_cb_t path_cb, uint32_t time, uint32_t delay, void * 
 430:c:\projects\paindrain\arduinolcd\test\pain drain\libraries\lvgl\src\misc\lv_style.h **** 
 431:c:\projects\paindrain\arduinolcd\test\pain drain\libraries\lvgl\src\misc\lv_style.h **** /**
 432:c:\projects\paindrain\arduinolcd\test\pain drain\libraries\lvgl\src\misc\lv_style.h ****  * Get the default value of a property
 433:c:\projects\paindrain\arduinolcd\test\pain drain\libraries\lvgl\src\misc\lv_style.h ****  * @param prop the ID of a property
 434:c:\projects\paindrain\arduinolcd\test\pain drain\libraries\lvgl\src\misc\lv_style.h ****  * @return the default value
 435:c:\projects\paindrain\arduinolcd\test\pain drain\libraries\lvgl\src\misc\lv_style.h ****  */
 436:c:\projects\paindrain\arduinolcd\test\pain drain\libraries\lvgl\src\misc\lv_style.h **** lv_style_value_t lv_style_prop_get_default(lv_style_prop_t prop);
 437:c:\projects\paindrain\arduinolcd\test\pain drain\libraries\lvgl\src\misc\lv_style.h **** 
 438:c:\projects\paindrain\arduinolcd\test\pain drain\libraries\lvgl\src\misc\lv_style.h **** /**
 439:c:\projects\paindrain\arduinolcd\test\pain drain\libraries\lvgl\src\misc\lv_style.h ****  * Get the value of a property
 440:c:\projects\paindrain\arduinolcd\test\pain drain\libraries\lvgl\src\misc\lv_style.h ****  * @param style pointer to a style
 441:c:\projects\paindrain\arduinolcd\test\pain drain\libraries\lvgl\src\misc\lv_style.h ****  * @param prop  the ID of a property
 442:c:\projects\paindrain\arduinolcd\test\pain drain\libraries\lvgl\src\misc\lv_style.h ****  * @param value pointer to a `lv_style_value_t` variable to store the value
 443:c:\projects\paindrain\arduinolcd\test\pain drain\libraries\lvgl\src\misc\lv_style.h ****  * @return LV_RES_INV: the property wasn't found in the style (`value` is unchanged)
 444:c:\projects\paindrain\arduinolcd\test\pain drain\libraries\lvgl\src\misc\lv_style.h ****  *         LV_RES_OK: the property was fond, and `value` is set accordingly
 445:c:\projects\paindrain\arduinolcd\test\pain drain\libraries\lvgl\src\misc\lv_style.h ****  * @note For performance reasons there are no sanity check on `style`
 446:c:\projects\paindrain\arduinolcd\test\pain drain\libraries\lvgl\src\misc\lv_style.h ****  * @note This function is the same as ::lv_style_get_prop but inlined. Use it only on performance c
 447:c:\projects\paindrain\arduinolcd\test\pain drain\libraries\lvgl\src\misc\lv_style.h ****  */
 448:c:\projects\paindrain\arduinolcd\test\pain drain\libraries\lvgl\src\misc\lv_style.h **** static inline lv_style_res_t lv_style_get_prop_inlined(const lv_style_t * style, lv_style_prop_t pr
 449:c:\projects\paindrain\arduinolcd\test\pain drain\libraries\lvgl\src\misc\lv_style.h ****                                                        lv_style_value_t * value)
 450:c:\projects\paindrain\arduinolcd\test\pain drain\libraries\lvgl\src\misc\lv_style.h **** {
 451:c:\projects\paindrain\arduinolcd\test\pain drain\libraries\lvgl\src\misc\lv_style.h ****     if(style->prop1 == LV_STYLE_PROP_ANY) {
 452:c:\projects\paindrain\arduinolcd\test\pain drain\libraries\lvgl\src\misc\lv_style.h ****         const lv_style_const_prop_t * const_prop;
 453:c:\projects\paindrain\arduinolcd\test\pain drain\libraries\lvgl\src\misc\lv_style.h ****         uint32_t i;
 454:c:\projects\paindrain\arduinolcd\test\pain drain\libraries\lvgl\src\misc\lv_style.h ****         for(i = 0; i < style->prop_cnt; i++) {
 455:c:\projects\paindrain\arduinolcd\test\pain drain\libraries\lvgl\src\misc\lv_style.h ****             const_prop = style->v_p.const_props + i;
 456:c:\projects\paindrain\arduinolcd\test\pain drain\libraries\lvgl\src\misc\lv_style.h ****             lv_style_prop_t prop_id = LV_STYLE_PROP_ID_MASK(const_prop->prop);
 457:c:\projects\paindrain\arduinolcd\test\pain drain\libraries\lvgl\src\misc\lv_style.h ****             if(prop_id == prop) {
 458:c:\projects\paindrain\arduinolcd\test\pain drain\libraries\lvgl\src\misc\lv_style.h ****                 if(const_prop->prop & LV_STYLE_PROP_META_INHERIT)
