ARM GAS  C:\Users\haske\AppData\Local\Temp\cc65HANE.s 			page 1


   1              		.syntax unified
   2              		.cpu cortex-m0plus
   3              		.fpu softvfp
   4              		.eabi_attribute 20, 1
   5              		.eabi_attribute 21, 1
   6              		.eabi_attribute 23, 3
   7              		.eabi_attribute 24, 1
   8              		.eabi_attribute 25, 1
   9              		.eabi_attribute 26, 1
  10              		.eabi_attribute 30, 1
  11              		.eabi_attribute 34, 0
  12              		.eabi_attribute 18, 4
  13              		.thumb
  14              		.syntax unified
  15              		.file	"lv_tabview.c"
  16              		.text
  17              	.Ltext0:
  18              		.cfi_sections	.debug_frame
  19              		.section	.text.lv_tabview_destructor,"ax",%progbits
  20              		.align	2
  21              		.code	16
  22              		.thumb_func
  23              		.type	lv_tabview_destructor, %function
  24              	lv_tabview_destructor:
  25              	.LFB210:
  26              		.file 1 "..\\..\\..\\arduinoLCD\\test\\Pain Drain\\libraries\\lvgl\\src\\extra\\widgets\\tabview\\
   1:..\..\..\arduinoLCD\test\Pain Drain\libraries\lvgl\src\extra\widgets\tabview/lv_tabview.c **** /**
   2:..\..\..\arduinoLCD\test\Pain Drain\libraries\lvgl\src\extra\widgets\tabview/lv_tabview.c ****  * @file lv_tabview.c
   3:..\..\..\arduinoLCD\test\Pain Drain\libraries\lvgl\src\extra\widgets\tabview/lv_tabview.c ****  *
   4:..\..\..\arduinoLCD\test\Pain Drain\libraries\lvgl\src\extra\widgets\tabview/lv_tabview.c ****  */
   5:..\..\..\arduinoLCD\test\Pain Drain\libraries\lvgl\src\extra\widgets\tabview/lv_tabview.c **** 
   6:..\..\..\arduinoLCD\test\Pain Drain\libraries\lvgl\src\extra\widgets\tabview/lv_tabview.c **** /*********************
   7:..\..\..\arduinoLCD\test\Pain Drain\libraries\lvgl\src\extra\widgets\tabview/lv_tabview.c ****  *      INCLUDES
   8:..\..\..\arduinoLCD\test\Pain Drain\libraries\lvgl\src\extra\widgets\tabview/lv_tabview.c ****  *********************/
   9:..\..\..\arduinoLCD\test\Pain Drain\libraries\lvgl\src\extra\widgets\tabview/lv_tabview.c **** #include "lv_tabview.h"
  10:..\..\..\arduinoLCD\test\Pain Drain\libraries\lvgl\src\extra\widgets\tabview/lv_tabview.c **** #if LV_USE_TABVIEW
  11:..\..\..\arduinoLCD\test\Pain Drain\libraries\lvgl\src\extra\widgets\tabview/lv_tabview.c **** 
  12:..\..\..\arduinoLCD\test\Pain Drain\libraries\lvgl\src\extra\widgets\tabview/lv_tabview.c **** #include "../../../misc/lv_assert.h"
  13:..\..\..\arduinoLCD\test\Pain Drain\libraries\lvgl\src\extra\widgets\tabview/lv_tabview.c **** 
  14:..\..\..\arduinoLCD\test\Pain Drain\libraries\lvgl\src\extra\widgets\tabview/lv_tabview.c **** /*********************
  15:..\..\..\arduinoLCD\test\Pain Drain\libraries\lvgl\src\extra\widgets\tabview/lv_tabview.c ****  *      DEFINES
  16:..\..\..\arduinoLCD\test\Pain Drain\libraries\lvgl\src\extra\widgets\tabview/lv_tabview.c ****  *********************/
  17:..\..\..\arduinoLCD\test\Pain Drain\libraries\lvgl\src\extra\widgets\tabview/lv_tabview.c **** #define MY_CLASS    &lv_tabview_class
  18:..\..\..\arduinoLCD\test\Pain Drain\libraries\lvgl\src\extra\widgets\tabview/lv_tabview.c **** 
  19:..\..\..\arduinoLCD\test\Pain Drain\libraries\lvgl\src\extra\widgets\tabview/lv_tabview.c **** /**********************
  20:..\..\..\arduinoLCD\test\Pain Drain\libraries\lvgl\src\extra\widgets\tabview/lv_tabview.c ****  *      TYPEDEFS
  21:..\..\..\arduinoLCD\test\Pain Drain\libraries\lvgl\src\extra\widgets\tabview/lv_tabview.c ****  **********************/
  22:..\..\..\arduinoLCD\test\Pain Drain\libraries\lvgl\src\extra\widgets\tabview/lv_tabview.c **** 
  23:..\..\..\arduinoLCD\test\Pain Drain\libraries\lvgl\src\extra\widgets\tabview/lv_tabview.c **** /**********************
  24:..\..\..\arduinoLCD\test\Pain Drain\libraries\lvgl\src\extra\widgets\tabview/lv_tabview.c ****  *  STATIC PROTOTYPES
  25:..\..\..\arduinoLCD\test\Pain Drain\libraries\lvgl\src\extra\widgets\tabview/lv_tabview.c ****  **********************/
  26:..\..\..\arduinoLCD\test\Pain Drain\libraries\lvgl\src\extra\widgets\tabview/lv_tabview.c **** static void lv_tabview_constructor(const lv_obj_class_t * class_p, lv_obj_t * obj);
  27:..\..\..\arduinoLCD\test\Pain Drain\libraries\lvgl\src\extra\widgets\tabview/lv_tabview.c **** static void lv_tabview_destructor(const lv_obj_class_t * class_p, lv_obj_t * obj);
  28:..\..\..\arduinoLCD\test\Pain Drain\libraries\lvgl\src\extra\widgets\tabview/lv_tabview.c **** static void lv_tabview_event(const lv_obj_class_t * class_p, lv_event_t * e);
  29:..\..\..\arduinoLCD\test\Pain Drain\libraries\lvgl\src\extra\widgets\tabview/lv_tabview.c **** static void btns_value_changed_event_cb(lv_event_t * e);
  30:..\..\..\arduinoLCD\test\Pain Drain\libraries\lvgl\src\extra\widgets\tabview/lv_tabview.c **** static void cont_scroll_end_event_cb(lv_event_t * e);
  31:..\..\..\arduinoLCD\test\Pain Drain\libraries\lvgl\src\extra\widgets\tabview/lv_tabview.c **** 
ARM GAS  C:\Users\haske\AppData\Local\Temp\cc65HANE.s 			page 2


  32:..\..\..\arduinoLCD\test\Pain Drain\libraries\lvgl\src\extra\widgets\tabview/lv_tabview.c **** /**********************
  33:..\..\..\arduinoLCD\test\Pain Drain\libraries\lvgl\src\extra\widgets\tabview/lv_tabview.c ****  *  STATIC VARIABLES
  34:..\..\..\arduinoLCD\test\Pain Drain\libraries\lvgl\src\extra\widgets\tabview/lv_tabview.c ****  **********************/
  35:..\..\..\arduinoLCD\test\Pain Drain\libraries\lvgl\src\extra\widgets\tabview/lv_tabview.c **** const lv_obj_class_t lv_tabview_class = {
  36:..\..\..\arduinoLCD\test\Pain Drain\libraries\lvgl\src\extra\widgets\tabview/lv_tabview.c ****     .constructor_cb = lv_tabview_constructor,
  37:..\..\..\arduinoLCD\test\Pain Drain\libraries\lvgl\src\extra\widgets\tabview/lv_tabview.c ****     .destructor_cb = lv_tabview_destructor,
  38:..\..\..\arduinoLCD\test\Pain Drain\libraries\lvgl\src\extra\widgets\tabview/lv_tabview.c ****     .event_cb = lv_tabview_event,
  39:..\..\..\arduinoLCD\test\Pain Drain\libraries\lvgl\src\extra\widgets\tabview/lv_tabview.c ****     .width_def = LV_PCT(100),
  40:..\..\..\arduinoLCD\test\Pain Drain\libraries\lvgl\src\extra\widgets\tabview/lv_tabview.c ****     .height_def = LV_PCT(100),
  41:..\..\..\arduinoLCD\test\Pain Drain\libraries\lvgl\src\extra\widgets\tabview/lv_tabview.c ****     .base_class = &lv_obj_class,
  42:..\..\..\arduinoLCD\test\Pain Drain\libraries\lvgl\src\extra\widgets\tabview/lv_tabview.c ****     .instance_size = sizeof(lv_tabview_t)
  43:..\..\..\arduinoLCD\test\Pain Drain\libraries\lvgl\src\extra\widgets\tabview/lv_tabview.c **** };
  44:..\..\..\arduinoLCD\test\Pain Drain\libraries\lvgl\src\extra\widgets\tabview/lv_tabview.c **** 
  45:..\..\..\arduinoLCD\test\Pain Drain\libraries\lvgl\src\extra\widgets\tabview/lv_tabview.c **** static lv_dir_t tabpos_create;
  46:..\..\..\arduinoLCD\test\Pain Drain\libraries\lvgl\src\extra\widgets\tabview/lv_tabview.c **** static lv_coord_t tabsize_create;
  47:..\..\..\arduinoLCD\test\Pain Drain\libraries\lvgl\src\extra\widgets\tabview/lv_tabview.c **** 
  48:..\..\..\arduinoLCD\test\Pain Drain\libraries\lvgl\src\extra\widgets\tabview/lv_tabview.c **** /**********************
  49:..\..\..\arduinoLCD\test\Pain Drain\libraries\lvgl\src\extra\widgets\tabview/lv_tabview.c ****  *      MACROS
  50:..\..\..\arduinoLCD\test\Pain Drain\libraries\lvgl\src\extra\widgets\tabview/lv_tabview.c ****  **********************/
  51:..\..\..\arduinoLCD\test\Pain Drain\libraries\lvgl\src\extra\widgets\tabview/lv_tabview.c **** 
  52:..\..\..\arduinoLCD\test\Pain Drain\libraries\lvgl\src\extra\widgets\tabview/lv_tabview.c **** /**********************
  53:..\..\..\arduinoLCD\test\Pain Drain\libraries\lvgl\src\extra\widgets\tabview/lv_tabview.c ****  *   GLOBAL FUNCTIONS
  54:..\..\..\arduinoLCD\test\Pain Drain\libraries\lvgl\src\extra\widgets\tabview/lv_tabview.c ****  **********************/
  55:..\..\..\arduinoLCD\test\Pain Drain\libraries\lvgl\src\extra\widgets\tabview/lv_tabview.c **** 
  56:..\..\..\arduinoLCD\test\Pain Drain\libraries\lvgl\src\extra\widgets\tabview/lv_tabview.c **** lv_obj_t * lv_tabview_create(lv_obj_t * parent, lv_dir_t tab_pos, lv_coord_t tab_size)
  57:..\..\..\arduinoLCD\test\Pain Drain\libraries\lvgl\src\extra\widgets\tabview/lv_tabview.c **** {
  58:..\..\..\arduinoLCD\test\Pain Drain\libraries\lvgl\src\extra\widgets\tabview/lv_tabview.c ****     LV_LOG_INFO("begin");
  59:..\..\..\arduinoLCD\test\Pain Drain\libraries\lvgl\src\extra\widgets\tabview/lv_tabview.c ****     tabpos_create = tab_pos;
  60:..\..\..\arduinoLCD\test\Pain Drain\libraries\lvgl\src\extra\widgets\tabview/lv_tabview.c ****     tabsize_create = tab_size;
  61:..\..\..\arduinoLCD\test\Pain Drain\libraries\lvgl\src\extra\widgets\tabview/lv_tabview.c **** 
  62:..\..\..\arduinoLCD\test\Pain Drain\libraries\lvgl\src\extra\widgets\tabview/lv_tabview.c ****     lv_obj_t * obj = lv_obj_class_create_obj(&lv_tabview_class, parent);
  63:..\..\..\arduinoLCD\test\Pain Drain\libraries\lvgl\src\extra\widgets\tabview/lv_tabview.c ****     lv_obj_class_init_obj(obj);
  64:..\..\..\arduinoLCD\test\Pain Drain\libraries\lvgl\src\extra\widgets\tabview/lv_tabview.c ****     return obj;
  65:..\..\..\arduinoLCD\test\Pain Drain\libraries\lvgl\src\extra\widgets\tabview/lv_tabview.c **** }
  66:..\..\..\arduinoLCD\test\Pain Drain\libraries\lvgl\src\extra\widgets\tabview/lv_tabview.c **** 
  67:..\..\..\arduinoLCD\test\Pain Drain\libraries\lvgl\src\extra\widgets\tabview/lv_tabview.c **** lv_obj_t * lv_tabview_add_tab(lv_obj_t * obj, const char * name)
  68:..\..\..\arduinoLCD\test\Pain Drain\libraries\lvgl\src\extra\widgets\tabview/lv_tabview.c **** {
  69:..\..\..\arduinoLCD\test\Pain Drain\libraries\lvgl\src\extra\widgets\tabview/lv_tabview.c ****     LV_ASSERT_OBJ(obj, MY_CLASS);
  70:..\..\..\arduinoLCD\test\Pain Drain\libraries\lvgl\src\extra\widgets\tabview/lv_tabview.c ****     lv_tabview_t * tabview = (lv_tabview_t *)obj;
  71:..\..\..\arduinoLCD\test\Pain Drain\libraries\lvgl\src\extra\widgets\tabview/lv_tabview.c ****     lv_obj_t * cont = lv_tabview_get_content(obj);
  72:..\..\..\arduinoLCD\test\Pain Drain\libraries\lvgl\src\extra\widgets\tabview/lv_tabview.c **** 
  73:..\..\..\arduinoLCD\test\Pain Drain\libraries\lvgl\src\extra\widgets\tabview/lv_tabview.c ****     lv_obj_t * page = lv_obj_create(cont);
  74:..\..\..\arduinoLCD\test\Pain Drain\libraries\lvgl\src\extra\widgets\tabview/lv_tabview.c ****     lv_obj_set_size(page, LV_PCT(100), LV_PCT(100));
  75:..\..\..\arduinoLCD\test\Pain Drain\libraries\lvgl\src\extra\widgets\tabview/lv_tabview.c ****     lv_obj_clear_flag(page, LV_OBJ_FLAG_CLICK_FOCUSABLE);
  76:..\..\..\arduinoLCD\test\Pain Drain\libraries\lvgl\src\extra\widgets\tabview/lv_tabview.c ****     uint32_t tab_id = lv_obj_get_child_cnt(cont);
  77:..\..\..\arduinoLCD\test\Pain Drain\libraries\lvgl\src\extra\widgets\tabview/lv_tabview.c **** 
  78:..\..\..\arduinoLCD\test\Pain Drain\libraries\lvgl\src\extra\widgets\tabview/lv_tabview.c ****     lv_obj_t * btns = lv_tabview_get_tab_btns(obj);
  79:..\..\..\arduinoLCD\test\Pain Drain\libraries\lvgl\src\extra\widgets\tabview/lv_tabview.c **** 
  80:..\..\..\arduinoLCD\test\Pain Drain\libraries\lvgl\src\extra\widgets\tabview/lv_tabview.c ****     char ** old_map = tabview->map;
  81:..\..\..\arduinoLCD\test\Pain Drain\libraries\lvgl\src\extra\widgets\tabview/lv_tabview.c ****     char ** new_map;
  82:..\..\..\arduinoLCD\test\Pain Drain\libraries\lvgl\src\extra\widgets\tabview/lv_tabview.c **** 
  83:..\..\..\arduinoLCD\test\Pain Drain\libraries\lvgl\src\extra\widgets\tabview/lv_tabview.c ****     /*top or bottom dir*/
  84:..\..\..\arduinoLCD\test\Pain Drain\libraries\lvgl\src\extra\widgets\tabview/lv_tabview.c ****     if(tabview->tab_pos & LV_DIR_VER) {
  85:..\..\..\arduinoLCD\test\Pain Drain\libraries\lvgl\src\extra\widgets\tabview/lv_tabview.c ****         new_map = lv_mem_alloc((tab_id + 1) * sizeof(const char *));
  86:..\..\..\arduinoLCD\test\Pain Drain\libraries\lvgl\src\extra\widgets\tabview/lv_tabview.c ****         lv_memcpy_small(new_map, old_map, sizeof(const char *) * (tab_id - 1));
  87:..\..\..\arduinoLCD\test\Pain Drain\libraries\lvgl\src\extra\widgets\tabview/lv_tabview.c ****         new_map[tab_id - 1] = lv_mem_alloc(strlen(name) + 1);
  88:..\..\..\arduinoLCD\test\Pain Drain\libraries\lvgl\src\extra\widgets\tabview/lv_tabview.c ****         strcpy((char *)new_map[tab_id - 1], name);
ARM GAS  C:\Users\haske\AppData\Local\Temp\cc65HANE.s 			page 3


  89:..\..\..\arduinoLCD\test\Pain Drain\libraries\lvgl\src\extra\widgets\tabview/lv_tabview.c ****         new_map[tab_id] = "";
  90:..\..\..\arduinoLCD\test\Pain Drain\libraries\lvgl\src\extra\widgets\tabview/lv_tabview.c ****     }
  91:..\..\..\arduinoLCD\test\Pain Drain\libraries\lvgl\src\extra\widgets\tabview/lv_tabview.c ****     /*left or right dir*/
  92:..\..\..\arduinoLCD\test\Pain Drain\libraries\lvgl\src\extra\widgets\tabview/lv_tabview.c ****     else {
  93:..\..\..\arduinoLCD\test\Pain Drain\libraries\lvgl\src\extra\widgets\tabview/lv_tabview.c ****         new_map = lv_mem_alloc((tab_id * 2) * sizeof(const char *));
  94:..\..\..\arduinoLCD\test\Pain Drain\libraries\lvgl\src\extra\widgets\tabview/lv_tabview.c ****         lv_memcpy_small(new_map, old_map, sizeof(const char *) * (tab_id - 1) * 2);
  95:..\..\..\arduinoLCD\test\Pain Drain\libraries\lvgl\src\extra\widgets\tabview/lv_tabview.c ****         if(tabview->tab_cnt == 0) {
  96:..\..\..\arduinoLCD\test\Pain Drain\libraries\lvgl\src\extra\widgets\tabview/lv_tabview.c ****             new_map[0] = lv_mem_alloc(strlen(name) + 1);
  97:..\..\..\arduinoLCD\test\Pain Drain\libraries\lvgl\src\extra\widgets\tabview/lv_tabview.c ****             strcpy((char *)new_map[0], name);
  98:..\..\..\arduinoLCD\test\Pain Drain\libraries\lvgl\src\extra\widgets\tabview/lv_tabview.c ****             new_map[1] = "";
  99:..\..\..\arduinoLCD\test\Pain Drain\libraries\lvgl\src\extra\widgets\tabview/lv_tabview.c ****         }
 100:..\..\..\arduinoLCD\test\Pain Drain\libraries\lvgl\src\extra\widgets\tabview/lv_tabview.c ****         else {
 101:..\..\..\arduinoLCD\test\Pain Drain\libraries\lvgl\src\extra\widgets\tabview/lv_tabview.c ****             new_map[tab_id * 2 - 3] = "\n";
 102:..\..\..\arduinoLCD\test\Pain Drain\libraries\lvgl\src\extra\widgets\tabview/lv_tabview.c ****             new_map[tab_id * 2 - 2] = lv_mem_alloc(strlen(name) + 1);
 103:..\..\..\arduinoLCD\test\Pain Drain\libraries\lvgl\src\extra\widgets\tabview/lv_tabview.c ****             new_map[tab_id * 2 - 1] = "";
 104:..\..\..\arduinoLCD\test\Pain Drain\libraries\lvgl\src\extra\widgets\tabview/lv_tabview.c ****             strcpy((char *)new_map[(tab_id * 2) - 2], name);
 105:..\..\..\arduinoLCD\test\Pain Drain\libraries\lvgl\src\extra\widgets\tabview/lv_tabview.c ****         }
 106:..\..\..\arduinoLCD\test\Pain Drain\libraries\lvgl\src\extra\widgets\tabview/lv_tabview.c ****     }
 107:..\..\..\arduinoLCD\test\Pain Drain\libraries\lvgl\src\extra\widgets\tabview/lv_tabview.c ****     tabview->map = new_map;
 108:..\..\..\arduinoLCD\test\Pain Drain\libraries\lvgl\src\extra\widgets\tabview/lv_tabview.c ****     lv_btnmatrix_set_map(btns, (const char **)new_map);
 109:..\..\..\arduinoLCD\test\Pain Drain\libraries\lvgl\src\extra\widgets\tabview/lv_tabview.c ****     lv_mem_free(old_map);
 110:..\..\..\arduinoLCD\test\Pain Drain\libraries\lvgl\src\extra\widgets\tabview/lv_tabview.c **** 
 111:..\..\..\arduinoLCD\test\Pain Drain\libraries\lvgl\src\extra\widgets\tabview/lv_tabview.c ****     lv_btnmatrix_set_btn_ctrl_all(btns, LV_BTNMATRIX_CTRL_CHECKABLE | LV_BTNMATRIX_CTRL_CLICK_TRIG 
 112:..\..\..\arduinoLCD\test\Pain Drain\libraries\lvgl\src\extra\widgets\tabview/lv_tabview.c ****                                   LV_BTNMATRIX_CTRL_NO_REPEAT);
 113:..\..\..\arduinoLCD\test\Pain Drain\libraries\lvgl\src\extra\widgets\tabview/lv_tabview.c **** 
 114:..\..\..\arduinoLCD\test\Pain Drain\libraries\lvgl\src\extra\widgets\tabview/lv_tabview.c ****     tabview->tab_cnt++;
 115:..\..\..\arduinoLCD\test\Pain Drain\libraries\lvgl\src\extra\widgets\tabview/lv_tabview.c ****     if(tabview->tab_cnt == 1) {
 116:..\..\..\arduinoLCD\test\Pain Drain\libraries\lvgl\src\extra\widgets\tabview/lv_tabview.c ****         lv_tabview_set_act(obj, 0, LV_ANIM_OFF);
 117:..\..\..\arduinoLCD\test\Pain Drain\libraries\lvgl\src\extra\widgets\tabview/lv_tabview.c ****     }
 118:..\..\..\arduinoLCD\test\Pain Drain\libraries\lvgl\src\extra\widgets\tabview/lv_tabview.c **** 
 119:..\..\..\arduinoLCD\test\Pain Drain\libraries\lvgl\src\extra\widgets\tabview/lv_tabview.c ****     lv_btnmatrix_set_btn_ctrl(btns, tabview->tab_cur, LV_BTNMATRIX_CTRL_CHECKED);
 120:..\..\..\arduinoLCD\test\Pain Drain\libraries\lvgl\src\extra\widgets\tabview/lv_tabview.c **** 
 121:..\..\..\arduinoLCD\test\Pain Drain\libraries\lvgl\src\extra\widgets\tabview/lv_tabview.c ****     return page;
 122:..\..\..\arduinoLCD\test\Pain Drain\libraries\lvgl\src\extra\widgets\tabview/lv_tabview.c **** }
 123:..\..\..\arduinoLCD\test\Pain Drain\libraries\lvgl\src\extra\widgets\tabview/lv_tabview.c **** 
 124:..\..\..\arduinoLCD\test\Pain Drain\libraries\lvgl\src\extra\widgets\tabview/lv_tabview.c **** void lv_tabview_rename_tab(lv_obj_t * obj, uint32_t id, const char * new_name)
 125:..\..\..\arduinoLCD\test\Pain Drain\libraries\lvgl\src\extra\widgets\tabview/lv_tabview.c **** {
 126:..\..\..\arduinoLCD\test\Pain Drain\libraries\lvgl\src\extra\widgets\tabview/lv_tabview.c ****     LV_ASSERT_OBJ(obj, MY_CLASS);
 127:..\..\..\arduinoLCD\test\Pain Drain\libraries\lvgl\src\extra\widgets\tabview/lv_tabview.c ****     lv_tabview_t * tabview = (lv_tabview_t *)obj;
 128:..\..\..\arduinoLCD\test\Pain Drain\libraries\lvgl\src\extra\widgets\tabview/lv_tabview.c **** 
 129:..\..\..\arduinoLCD\test\Pain Drain\libraries\lvgl\src\extra\widgets\tabview/lv_tabview.c ****     if(id >= tabview->tab_cnt) return;
 130:..\..\..\arduinoLCD\test\Pain Drain\libraries\lvgl\src\extra\widgets\tabview/lv_tabview.c ****     if(tabview->tab_pos & LV_DIR_HOR) id *= 2;
 131:..\..\..\arduinoLCD\test\Pain Drain\libraries\lvgl\src\extra\widgets\tabview/lv_tabview.c **** 
 132:..\..\..\arduinoLCD\test\Pain Drain\libraries\lvgl\src\extra\widgets\tabview/lv_tabview.c ****     lv_mem_free(tabview->map[id]);
 133:..\..\..\arduinoLCD\test\Pain Drain\libraries\lvgl\src\extra\widgets\tabview/lv_tabview.c ****     tabview->map[id] = lv_mem_alloc(strlen(new_name) + 1);
 134:..\..\..\arduinoLCD\test\Pain Drain\libraries\lvgl\src\extra\widgets\tabview/lv_tabview.c ****     strcpy(tabview->map[id], new_name);
 135:..\..\..\arduinoLCD\test\Pain Drain\libraries\lvgl\src\extra\widgets\tabview/lv_tabview.c ****     lv_obj_invalidate(obj);
 136:..\..\..\arduinoLCD\test\Pain Drain\libraries\lvgl\src\extra\widgets\tabview/lv_tabview.c **** }
 137:..\..\..\arduinoLCD\test\Pain Drain\libraries\lvgl\src\extra\widgets\tabview/lv_tabview.c **** 
 138:..\..\..\arduinoLCD\test\Pain Drain\libraries\lvgl\src\extra\widgets\tabview/lv_tabview.c **** void lv_tabview_set_act(lv_obj_t * obj, uint32_t id, lv_anim_enable_t anim_en)
 139:..\..\..\arduinoLCD\test\Pain Drain\libraries\lvgl\src\extra\widgets\tabview/lv_tabview.c **** {
 140:..\..\..\arduinoLCD\test\Pain Drain\libraries\lvgl\src\extra\widgets\tabview/lv_tabview.c ****     LV_ASSERT_OBJ(obj, MY_CLASS);
 141:..\..\..\arduinoLCD\test\Pain Drain\libraries\lvgl\src\extra\widgets\tabview/lv_tabview.c ****     lv_tabview_t * tabview = (lv_tabview_t *)obj;
 142:..\..\..\arduinoLCD\test\Pain Drain\libraries\lvgl\src\extra\widgets\tabview/lv_tabview.c **** 
 143:..\..\..\arduinoLCD\test\Pain Drain\libraries\lvgl\src\extra\widgets\tabview/lv_tabview.c ****     if(id >= tabview->tab_cnt) {
 144:..\..\..\arduinoLCD\test\Pain Drain\libraries\lvgl\src\extra\widgets\tabview/lv_tabview.c ****         id = tabview->tab_cnt - 1;
 145:..\..\..\arduinoLCD\test\Pain Drain\libraries\lvgl\src\extra\widgets\tabview/lv_tabview.c ****     }
ARM GAS  C:\Users\haske\AppData\Local\Temp\cc65HANE.s 			page 4


 146:..\..\..\arduinoLCD\test\Pain Drain\libraries\lvgl\src\extra\widgets\tabview/lv_tabview.c **** 
 147:..\..\..\arduinoLCD\test\Pain Drain\libraries\lvgl\src\extra\widgets\tabview/lv_tabview.c ****     /*To be sure lv_obj_get_content_width will return valid value*/
 148:..\..\..\arduinoLCD\test\Pain Drain\libraries\lvgl\src\extra\widgets\tabview/lv_tabview.c ****     lv_obj_update_layout(obj);
 149:..\..\..\arduinoLCD\test\Pain Drain\libraries\lvgl\src\extra\widgets\tabview/lv_tabview.c **** 
 150:..\..\..\arduinoLCD\test\Pain Drain\libraries\lvgl\src\extra\widgets\tabview/lv_tabview.c ****     lv_obj_t * cont = lv_tabview_get_content(obj);
 151:..\..\..\arduinoLCD\test\Pain Drain\libraries\lvgl\src\extra\widgets\tabview/lv_tabview.c ****     if(cont == NULL) return;
 152:..\..\..\arduinoLCD\test\Pain Drain\libraries\lvgl\src\extra\widgets\tabview/lv_tabview.c **** 
 153:..\..\..\arduinoLCD\test\Pain Drain\libraries\lvgl\src\extra\widgets\tabview/lv_tabview.c ****     if((tabview->tab_pos & LV_DIR_VER) != 0) {
 154:..\..\..\arduinoLCD\test\Pain Drain\libraries\lvgl\src\extra\widgets\tabview/lv_tabview.c ****         lv_coord_t gap = lv_obj_get_style_pad_column(cont, LV_PART_MAIN);
 155:..\..\..\arduinoLCD\test\Pain Drain\libraries\lvgl\src\extra\widgets\tabview/lv_tabview.c ****         lv_coord_t w = lv_obj_get_content_width(cont);
 156:..\..\..\arduinoLCD\test\Pain Drain\libraries\lvgl\src\extra\widgets\tabview/lv_tabview.c ****         if(lv_obj_get_style_base_dir(obj, LV_PART_MAIN) != LV_BASE_DIR_RTL) {
 157:..\..\..\arduinoLCD\test\Pain Drain\libraries\lvgl\src\extra\widgets\tabview/lv_tabview.c ****             lv_obj_scroll_to_x(cont, id * (gap + w), anim_en);
 158:..\..\..\arduinoLCD\test\Pain Drain\libraries\lvgl\src\extra\widgets\tabview/lv_tabview.c ****         }
 159:..\..\..\arduinoLCD\test\Pain Drain\libraries\lvgl\src\extra\widgets\tabview/lv_tabview.c ****         else {
 160:..\..\..\arduinoLCD\test\Pain Drain\libraries\lvgl\src\extra\widgets\tabview/lv_tabview.c ****             int32_t id_rtl = -(int32_t)id;
 161:..\..\..\arduinoLCD\test\Pain Drain\libraries\lvgl\src\extra\widgets\tabview/lv_tabview.c ****             lv_obj_scroll_to_x(cont, (gap + w) * id_rtl, anim_en);
 162:..\..\..\arduinoLCD\test\Pain Drain\libraries\lvgl\src\extra\widgets\tabview/lv_tabview.c ****         }
 163:..\..\..\arduinoLCD\test\Pain Drain\libraries\lvgl\src\extra\widgets\tabview/lv_tabview.c ****     }
 164:..\..\..\arduinoLCD\test\Pain Drain\libraries\lvgl\src\extra\widgets\tabview/lv_tabview.c ****     else {
 165:..\..\..\arduinoLCD\test\Pain Drain\libraries\lvgl\src\extra\widgets\tabview/lv_tabview.c ****         lv_coord_t gap = lv_obj_get_style_pad_row(cont, LV_PART_MAIN);
 166:..\..\..\arduinoLCD\test\Pain Drain\libraries\lvgl\src\extra\widgets\tabview/lv_tabview.c ****         lv_coord_t h = lv_obj_get_content_height(cont);
 167:..\..\..\arduinoLCD\test\Pain Drain\libraries\lvgl\src\extra\widgets\tabview/lv_tabview.c ****         lv_obj_scroll_to_y(cont, id * (gap + h), anim_en);
 168:..\..\..\arduinoLCD\test\Pain Drain\libraries\lvgl\src\extra\widgets\tabview/lv_tabview.c ****     }
 169:..\..\..\arduinoLCD\test\Pain Drain\libraries\lvgl\src\extra\widgets\tabview/lv_tabview.c **** 
 170:..\..\..\arduinoLCD\test\Pain Drain\libraries\lvgl\src\extra\widgets\tabview/lv_tabview.c ****     lv_obj_t * btns = lv_tabview_get_tab_btns(obj);
 171:..\..\..\arduinoLCD\test\Pain Drain\libraries\lvgl\src\extra\widgets\tabview/lv_tabview.c ****     lv_btnmatrix_set_btn_ctrl(btns, id, LV_BTNMATRIX_CTRL_CHECKED);
 172:..\..\..\arduinoLCD\test\Pain Drain\libraries\lvgl\src\extra\widgets\tabview/lv_tabview.c ****     tabview->tab_cur = id;
 173:..\..\..\arduinoLCD\test\Pain Drain\libraries\lvgl\src\extra\widgets\tabview/lv_tabview.c **** }
 174:..\..\..\arduinoLCD\test\Pain Drain\libraries\lvgl\src\extra\widgets\tabview/lv_tabview.c **** 
 175:..\..\..\arduinoLCD\test\Pain Drain\libraries\lvgl\src\extra\widgets\tabview/lv_tabview.c **** uint16_t lv_tabview_get_tab_act(lv_obj_t * obj)
 176:..\..\..\arduinoLCD\test\Pain Drain\libraries\lvgl\src\extra\widgets\tabview/lv_tabview.c **** {
 177:..\..\..\arduinoLCD\test\Pain Drain\libraries\lvgl\src\extra\widgets\tabview/lv_tabview.c ****     LV_ASSERT_OBJ(obj, MY_CLASS);
 178:..\..\..\arduinoLCD\test\Pain Drain\libraries\lvgl\src\extra\widgets\tabview/lv_tabview.c ****     lv_tabview_t * tabview = (lv_tabview_t *)obj;
 179:..\..\..\arduinoLCD\test\Pain Drain\libraries\lvgl\src\extra\widgets\tabview/lv_tabview.c ****     return tabview->tab_cur;
 180:..\..\..\arduinoLCD\test\Pain Drain\libraries\lvgl\src\extra\widgets\tabview/lv_tabview.c **** }
 181:..\..\..\arduinoLCD\test\Pain Drain\libraries\lvgl\src\extra\widgets\tabview/lv_tabview.c **** 
 182:..\..\..\arduinoLCD\test\Pain Drain\libraries\lvgl\src\extra\widgets\tabview/lv_tabview.c **** lv_obj_t * lv_tabview_get_content(lv_obj_t * tv)
 183:..\..\..\arduinoLCD\test\Pain Drain\libraries\lvgl\src\extra\widgets\tabview/lv_tabview.c **** {
 184:..\..\..\arduinoLCD\test\Pain Drain\libraries\lvgl\src\extra\widgets\tabview/lv_tabview.c ****     return lv_obj_get_child(tv, 1);
 185:..\..\..\arduinoLCD\test\Pain Drain\libraries\lvgl\src\extra\widgets\tabview/lv_tabview.c **** }
 186:..\..\..\arduinoLCD\test\Pain Drain\libraries\lvgl\src\extra\widgets\tabview/lv_tabview.c **** 
 187:..\..\..\arduinoLCD\test\Pain Drain\libraries\lvgl\src\extra\widgets\tabview/lv_tabview.c **** lv_obj_t * lv_tabview_get_tab_btns(lv_obj_t * tv)
 188:..\..\..\arduinoLCD\test\Pain Drain\libraries\lvgl\src\extra\widgets\tabview/lv_tabview.c **** {
 189:..\..\..\arduinoLCD\test\Pain Drain\libraries\lvgl\src\extra\widgets\tabview/lv_tabview.c ****     return lv_obj_get_child(tv, 0);
 190:..\..\..\arduinoLCD\test\Pain Drain\libraries\lvgl\src\extra\widgets\tabview/lv_tabview.c **** }
 191:..\..\..\arduinoLCD\test\Pain Drain\libraries\lvgl\src\extra\widgets\tabview/lv_tabview.c **** 
 192:..\..\..\arduinoLCD\test\Pain Drain\libraries\lvgl\src\extra\widgets\tabview/lv_tabview.c **** /**********************
 193:..\..\..\arduinoLCD\test\Pain Drain\libraries\lvgl\src\extra\widgets\tabview/lv_tabview.c ****  *   STATIC FUNCTIONS
 194:..\..\..\arduinoLCD\test\Pain Drain\libraries\lvgl\src\extra\widgets\tabview/lv_tabview.c ****  **********************/
 195:..\..\..\arduinoLCD\test\Pain Drain\libraries\lvgl\src\extra\widgets\tabview/lv_tabview.c **** 
 196:..\..\..\arduinoLCD\test\Pain Drain\libraries\lvgl\src\extra\widgets\tabview/lv_tabview.c **** static void lv_tabview_constructor(const lv_obj_class_t * class_p, lv_obj_t * obj)
 197:..\..\..\arduinoLCD\test\Pain Drain\libraries\lvgl\src\extra\widgets\tabview/lv_tabview.c **** {
 198:..\..\..\arduinoLCD\test\Pain Drain\libraries\lvgl\src\extra\widgets\tabview/lv_tabview.c ****     LV_UNUSED(class_p);
 199:..\..\..\arduinoLCD\test\Pain Drain\libraries\lvgl\src\extra\widgets\tabview/lv_tabview.c ****     lv_tabview_t * tabview = (lv_tabview_t *)obj;
 200:..\..\..\arduinoLCD\test\Pain Drain\libraries\lvgl\src\extra\widgets\tabview/lv_tabview.c **** 
 201:..\..\..\arduinoLCD\test\Pain Drain\libraries\lvgl\src\extra\widgets\tabview/lv_tabview.c ****     tabview->tab_pos = tabpos_create;
 202:..\..\..\arduinoLCD\test\Pain Drain\libraries\lvgl\src\extra\widgets\tabview/lv_tabview.c **** 
ARM GAS  C:\Users\haske\AppData\Local\Temp\cc65HANE.s 			page 5


 203:..\..\..\arduinoLCD\test\Pain Drain\libraries\lvgl\src\extra\widgets\tabview/lv_tabview.c ****     switch(tabview->tab_pos) {
 204:..\..\..\arduinoLCD\test\Pain Drain\libraries\lvgl\src\extra\widgets\tabview/lv_tabview.c ****         case LV_DIR_TOP:
 205:..\..\..\arduinoLCD\test\Pain Drain\libraries\lvgl\src\extra\widgets\tabview/lv_tabview.c ****             lv_obj_set_flex_flow(obj, LV_FLEX_FLOW_COLUMN);
 206:..\..\..\arduinoLCD\test\Pain Drain\libraries\lvgl\src\extra\widgets\tabview/lv_tabview.c ****             break;
 207:..\..\..\arduinoLCD\test\Pain Drain\libraries\lvgl\src\extra\widgets\tabview/lv_tabview.c ****         case LV_DIR_BOTTOM:
 208:..\..\..\arduinoLCD\test\Pain Drain\libraries\lvgl\src\extra\widgets\tabview/lv_tabview.c ****             lv_obj_set_flex_flow(obj, LV_FLEX_FLOW_COLUMN_REVERSE);
 209:..\..\..\arduinoLCD\test\Pain Drain\libraries\lvgl\src\extra\widgets\tabview/lv_tabview.c ****             break;
 210:..\..\..\arduinoLCD\test\Pain Drain\libraries\lvgl\src\extra\widgets\tabview/lv_tabview.c ****         case LV_DIR_LEFT:
 211:..\..\..\arduinoLCD\test\Pain Drain\libraries\lvgl\src\extra\widgets\tabview/lv_tabview.c ****             lv_obj_set_flex_flow(obj, LV_FLEX_FLOW_ROW);
 212:..\..\..\arduinoLCD\test\Pain Drain\libraries\lvgl\src\extra\widgets\tabview/lv_tabview.c ****             break;
 213:..\..\..\arduinoLCD\test\Pain Drain\libraries\lvgl\src\extra\widgets\tabview/lv_tabview.c ****         case LV_DIR_RIGHT:
 214:..\..\..\arduinoLCD\test\Pain Drain\libraries\lvgl\src\extra\widgets\tabview/lv_tabview.c ****             lv_obj_set_flex_flow(obj, LV_FLEX_FLOW_ROW_REVERSE);
 215:..\..\..\arduinoLCD\test\Pain Drain\libraries\lvgl\src\extra\widgets\tabview/lv_tabview.c ****             break;
 216:..\..\..\arduinoLCD\test\Pain Drain\libraries\lvgl\src\extra\widgets\tabview/lv_tabview.c ****     }
 217:..\..\..\arduinoLCD\test\Pain Drain\libraries\lvgl\src\extra\widgets\tabview/lv_tabview.c **** 
 218:..\..\..\arduinoLCD\test\Pain Drain\libraries\lvgl\src\extra\widgets\tabview/lv_tabview.c ****     lv_obj_set_size(obj, LV_PCT(100), LV_PCT(100));
 219:..\..\..\arduinoLCD\test\Pain Drain\libraries\lvgl\src\extra\widgets\tabview/lv_tabview.c **** 
 220:..\..\..\arduinoLCD\test\Pain Drain\libraries\lvgl\src\extra\widgets\tabview/lv_tabview.c ****     lv_obj_t * btnm;
 221:..\..\..\arduinoLCD\test\Pain Drain\libraries\lvgl\src\extra\widgets\tabview/lv_tabview.c ****     lv_obj_t * cont;
 222:..\..\..\arduinoLCD\test\Pain Drain\libraries\lvgl\src\extra\widgets\tabview/lv_tabview.c **** 
 223:..\..\..\arduinoLCD\test\Pain Drain\libraries\lvgl\src\extra\widgets\tabview/lv_tabview.c ****     btnm = lv_btnmatrix_create(obj);
 224:..\..\..\arduinoLCD\test\Pain Drain\libraries\lvgl\src\extra\widgets\tabview/lv_tabview.c ****     cont = lv_obj_create(obj);
 225:..\..\..\arduinoLCD\test\Pain Drain\libraries\lvgl\src\extra\widgets\tabview/lv_tabview.c **** 
 226:..\..\..\arduinoLCD\test\Pain Drain\libraries\lvgl\src\extra\widgets\tabview/lv_tabview.c ****     lv_btnmatrix_set_one_checked(btnm, true);
 227:..\..\..\arduinoLCD\test\Pain Drain\libraries\lvgl\src\extra\widgets\tabview/lv_tabview.c ****     tabview->map = lv_mem_alloc(sizeof(const char *));
 228:..\..\..\arduinoLCD\test\Pain Drain\libraries\lvgl\src\extra\widgets\tabview/lv_tabview.c ****     tabview->map[0] = "";
 229:..\..\..\arduinoLCD\test\Pain Drain\libraries\lvgl\src\extra\widgets\tabview/lv_tabview.c ****     lv_btnmatrix_set_map(btnm, (const char **)tabview->map);
 230:..\..\..\arduinoLCD\test\Pain Drain\libraries\lvgl\src\extra\widgets\tabview/lv_tabview.c ****     lv_obj_add_event_cb(btnm, btns_value_changed_event_cb, LV_EVENT_VALUE_CHANGED, NULL);
 231:..\..\..\arduinoLCD\test\Pain Drain\libraries\lvgl\src\extra\widgets\tabview/lv_tabview.c ****     lv_obj_add_flag(btnm, LV_OBJ_FLAG_EVENT_BUBBLE);
 232:..\..\..\arduinoLCD\test\Pain Drain\libraries\lvgl\src\extra\widgets\tabview/lv_tabview.c **** 
 233:..\..\..\arduinoLCD\test\Pain Drain\libraries\lvgl\src\extra\widgets\tabview/lv_tabview.c ****     lv_obj_add_event_cb(cont, cont_scroll_end_event_cb, LV_EVENT_ALL, NULL);
 234:..\..\..\arduinoLCD\test\Pain Drain\libraries\lvgl\src\extra\widgets\tabview/lv_tabview.c ****     lv_obj_set_scrollbar_mode(cont, LV_SCROLLBAR_MODE_OFF);
 235:..\..\..\arduinoLCD\test\Pain Drain\libraries\lvgl\src\extra\widgets\tabview/lv_tabview.c **** 
 236:..\..\..\arduinoLCD\test\Pain Drain\libraries\lvgl\src\extra\widgets\tabview/lv_tabview.c ****     switch(tabview->tab_pos) {
 237:..\..\..\arduinoLCD\test\Pain Drain\libraries\lvgl\src\extra\widgets\tabview/lv_tabview.c ****         case LV_DIR_TOP:
 238:..\..\..\arduinoLCD\test\Pain Drain\libraries\lvgl\src\extra\widgets\tabview/lv_tabview.c ****         case LV_DIR_BOTTOM:
 239:..\..\..\arduinoLCD\test\Pain Drain\libraries\lvgl\src\extra\widgets\tabview/lv_tabview.c ****             lv_obj_set_size(btnm, LV_PCT(100), tabsize_create);
 240:..\..\..\arduinoLCD\test\Pain Drain\libraries\lvgl\src\extra\widgets\tabview/lv_tabview.c ****             lv_obj_set_width(cont, LV_PCT(100));
 241:..\..\..\arduinoLCD\test\Pain Drain\libraries\lvgl\src\extra\widgets\tabview/lv_tabview.c ****             lv_obj_set_flex_grow(cont, 1);
 242:..\..\..\arduinoLCD\test\Pain Drain\libraries\lvgl\src\extra\widgets\tabview/lv_tabview.c ****             break;
 243:..\..\..\arduinoLCD\test\Pain Drain\libraries\lvgl\src\extra\widgets\tabview/lv_tabview.c ****         case LV_DIR_LEFT:
 244:..\..\..\arduinoLCD\test\Pain Drain\libraries\lvgl\src\extra\widgets\tabview/lv_tabview.c ****         case LV_DIR_RIGHT:
 245:..\..\..\arduinoLCD\test\Pain Drain\libraries\lvgl\src\extra\widgets\tabview/lv_tabview.c ****             lv_obj_set_size(btnm, tabsize_create, LV_PCT(100));
 246:..\..\..\arduinoLCD\test\Pain Drain\libraries\lvgl\src\extra\widgets\tabview/lv_tabview.c ****             lv_obj_set_height(cont, LV_PCT(100));
 247:..\..\..\arduinoLCD\test\Pain Drain\libraries\lvgl\src\extra\widgets\tabview/lv_tabview.c ****             lv_obj_set_flex_grow(cont, 1);
 248:..\..\..\arduinoLCD\test\Pain Drain\libraries\lvgl\src\extra\widgets\tabview/lv_tabview.c ****             break;
 249:..\..\..\arduinoLCD\test\Pain Drain\libraries\lvgl\src\extra\widgets\tabview/lv_tabview.c ****     }
 250:..\..\..\arduinoLCD\test\Pain Drain\libraries\lvgl\src\extra\widgets\tabview/lv_tabview.c **** 
 251:..\..\..\arduinoLCD\test\Pain Drain\libraries\lvgl\src\extra\widgets\tabview/lv_tabview.c ****     lv_group_t * g = lv_group_get_default();
 252:..\..\..\arduinoLCD\test\Pain Drain\libraries\lvgl\src\extra\widgets\tabview/lv_tabview.c ****     if(g) lv_group_add_obj(g, btnm);
 253:..\..\..\arduinoLCD\test\Pain Drain\libraries\lvgl\src\extra\widgets\tabview/lv_tabview.c **** 
 254:..\..\..\arduinoLCD\test\Pain Drain\libraries\lvgl\src\extra\widgets\tabview/lv_tabview.c ****     if((tabview->tab_pos & LV_DIR_VER) != 0) {
 255:..\..\..\arduinoLCD\test\Pain Drain\libraries\lvgl\src\extra\widgets\tabview/lv_tabview.c ****         lv_obj_set_flex_flow(cont, LV_FLEX_FLOW_ROW);
 256:..\..\..\arduinoLCD\test\Pain Drain\libraries\lvgl\src\extra\widgets\tabview/lv_tabview.c ****         lv_obj_set_scroll_snap_x(cont, LV_SCROLL_SNAP_CENTER);
 257:..\..\..\arduinoLCD\test\Pain Drain\libraries\lvgl\src\extra\widgets\tabview/lv_tabview.c ****     }
 258:..\..\..\arduinoLCD\test\Pain Drain\libraries\lvgl\src\extra\widgets\tabview/lv_tabview.c ****     else {
 259:..\..\..\arduinoLCD\test\Pain Drain\libraries\lvgl\src\extra\widgets\tabview/lv_tabview.c ****         lv_obj_set_flex_flow(cont, LV_FLEX_FLOW_COLUMN);
ARM GAS  C:\Users\haske\AppData\Local\Temp\cc65HANE.s 			page 6


 260:..\..\..\arduinoLCD\test\Pain Drain\libraries\lvgl\src\extra\widgets\tabview/lv_tabview.c ****         lv_obj_set_scroll_snap_y(cont, LV_SCROLL_SNAP_CENTER);
 261:..\..\..\arduinoLCD\test\Pain Drain\libraries\lvgl\src\extra\widgets\tabview/lv_tabview.c ****     }
 262:..\..\..\arduinoLCD\test\Pain Drain\libraries\lvgl\src\extra\widgets\tabview/lv_tabview.c ****     lv_obj_add_flag(cont, LV_OBJ_FLAG_SCROLL_ONE);
 263:..\..\..\arduinoLCD\test\Pain Drain\libraries\lvgl\src\extra\widgets\tabview/lv_tabview.c ****     lv_obj_clear_flag(cont, LV_OBJ_FLAG_SCROLL_ON_FOCUS);
 264:..\..\..\arduinoLCD\test\Pain Drain\libraries\lvgl\src\extra\widgets\tabview/lv_tabview.c **** }
 265:..\..\..\arduinoLCD\test\Pain Drain\libraries\lvgl\src\extra\widgets\tabview/lv_tabview.c **** 
 266:..\..\..\arduinoLCD\test\Pain Drain\libraries\lvgl\src\extra\widgets\tabview/lv_tabview.c **** static void lv_tabview_destructor(const lv_obj_class_t * class_p, lv_obj_t * obj)
 267:..\..\..\arduinoLCD\test\Pain Drain\libraries\lvgl\src\extra\widgets\tabview/lv_tabview.c **** {
  27              		.loc 1 267 0
  28              		.cfi_startproc
  29              		@ args = 0, pretend = 0, frame = 0
  30              		@ frame_needed = 0, uses_anonymous_args = 0
  31              	.LVL0:
  32 0000 70B5     		push	{r4, r5, r6, lr}
  33              		.cfi_def_cfa_offset 16
  34              		.cfi_offset 4, -16
  35              		.cfi_offset 5, -12
  36              		.cfi_offset 6, -8
  37              		.cfi_offset 14, -4
  38 0002 0C00     		movs	r4, r1
  39              	.LVL1:
 268:..\..\..\arduinoLCD\test\Pain Drain\libraries\lvgl\src\extra\widgets\tabview/lv_tabview.c ****     LV_UNUSED(class_p);
 269:..\..\..\arduinoLCD\test\Pain Drain\libraries\lvgl\src\extra\widgets\tabview/lv_tabview.c ****     lv_tabview_t * tabview = (lv_tabview_t *)obj;
 270:..\..\..\arduinoLCD\test\Pain Drain\libraries\lvgl\src\extra\widgets\tabview/lv_tabview.c **** 
 271:..\..\..\arduinoLCD\test\Pain Drain\libraries\lvgl\src\extra\widgets\tabview/lv_tabview.c ****     uint32_t i;
 272:..\..\..\arduinoLCD\test\Pain Drain\libraries\lvgl\src\extra\widgets\tabview/lv_tabview.c ****     if(tabview->tab_pos & LV_DIR_VER) {
  40              		.loc 1 272 0
  41 0004 2C23     		movs	r3, #44
  42 0006 CB5C     		ldrb	r3, [r1, r3]
  43 0008 0C22     		movs	r2, #12
  44 000a 1A42     		tst	r2, r3
  45 000c 0CD1     		bne	.L8
  46 000e 0FE0     		b	.L3
  47              	.LVL2:
  48              	.L4:
 273:..\..\..\arduinoLCD\test\Pain Drain\libraries\lvgl\src\extra\widgets\tabview/lv_tabview.c ****         for(i = 0; i < tabview->tab_cnt; i++) {
 274:..\..\..\arduinoLCD\test\Pain Drain\libraries\lvgl\src\extra\widgets\tabview/lv_tabview.c ****             lv_mem_free(tabview->map[i]);
  49              		.loc 1 274 0 discriminator 3
  50 0010 B500     		lsls	r5, r6, #2
  51 0012 636A     		ldr	r3, [r4, #36]
  52 0014 5859     		ldr	r0, [r3, r5]
  53 0016 FFF7FEFF 		bl	lv_mem_free
  54              	.LVL3:
 275:..\..\..\arduinoLCD\test\Pain Drain\libraries\lvgl\src\extra\widgets\tabview/lv_tabview.c ****             tabview->map[i] = NULL;
  55              		.loc 1 275 0 discriminator 3
  56 001a 636A     		ldr	r3, [r4, #36]
  57 001c 9C46     		mov	ip, r3
  58 001e 6544     		add	r5, r5, ip
  59 0020 0023     		movs	r3, #0
  60 0022 2B60     		str	r3, [r5]
 273:..\..\..\arduinoLCD\test\Pain Drain\libraries\lvgl\src\extra\widgets\tabview/lv_tabview.c ****         for(i = 0; i < tabview->tab_cnt; i++) {
  61              		.loc 1 273 0 discriminator 3
  62 0024 0136     		adds	r6, r6, #1
  63              	.LVL4:
  64 0026 00E0     		b	.L2
  65              	.LVL5:
  66              	.L8:
ARM GAS  C:\Users\haske\AppData\Local\Temp\cc65HANE.s 			page 7


  67 0028 0026     		movs	r6, #0
  68              	.LVL6:
  69              	.L2:
 273:..\..\..\arduinoLCD\test\Pain Drain\libraries\lvgl\src\extra\widgets\tabview/lv_tabview.c ****         for(i = 0; i < tabview->tab_cnt; i++) {
  70              		.loc 1 273 0 is_stmt 0 discriminator 1
  71 002a 238D     		ldrh	r3, [r4, #40]
  72 002c 9E42     		cmp	r6, r3
  73 002e EFD3     		bcc	.L4
  74              	.LVL7:
  75              	.L3:
 276:..\..\..\arduinoLCD\test\Pain Drain\libraries\lvgl\src\extra\widgets\tabview/lv_tabview.c ****         }
 277:..\..\..\arduinoLCD\test\Pain Drain\libraries\lvgl\src\extra\widgets\tabview/lv_tabview.c ****     }
 278:..\..\..\arduinoLCD\test\Pain Drain\libraries\lvgl\src\extra\widgets\tabview/lv_tabview.c ****     if(tabview->tab_pos & LV_DIR_HOR) {
  76              		.loc 1 278 0 is_stmt 1
  77 0030 2C23     		movs	r3, #44
  78 0032 E35C     		ldrb	r3, [r4, r3]
  79 0034 9B07     		lsls	r3, r3, #30
  80 0036 0CD1     		bne	.L9
  81 0038 0FE0     		b	.L6
  82              	.LVL8:
  83              	.L7:
 279:..\..\..\arduinoLCD\test\Pain Drain\libraries\lvgl\src\extra\widgets\tabview/lv_tabview.c ****         for(i = 0; i < tabview->tab_cnt; i++) {
 280:..\..\..\arduinoLCD\test\Pain Drain\libraries\lvgl\src\extra\widgets\tabview/lv_tabview.c ****             lv_mem_free(tabview->map[i * 2]);
  84              		.loc 1 280 0 discriminator 3
  85 003a F500     		lsls	r5, r6, #3
  86 003c 636A     		ldr	r3, [r4, #36]
  87 003e 5859     		ldr	r0, [r3, r5]
  88 0040 FFF7FEFF 		bl	lv_mem_free
  89              	.LVL9:
 281:..\..\..\arduinoLCD\test\Pain Drain\libraries\lvgl\src\extra\widgets\tabview/lv_tabview.c ****             tabview->map[i * 2] = NULL;
  90              		.loc 1 281 0 discriminator 3
  91 0044 636A     		ldr	r3, [r4, #36]
  92 0046 9C46     		mov	ip, r3
  93 0048 6544     		add	r5, r5, ip
  94 004a 0023     		movs	r3, #0
  95 004c 2B60     		str	r3, [r5]
 279:..\..\..\arduinoLCD\test\Pain Drain\libraries\lvgl\src\extra\widgets\tabview/lv_tabview.c ****         for(i = 0; i < tabview->tab_cnt; i++) {
  96              		.loc 1 279 0 discriminator 3
  97 004e 0136     		adds	r6, r6, #1
  98              	.LVL10:
  99 0050 00E0     		b	.L5
 100              	.LVL11:
 101              	.L9:
 102 0052 0026     		movs	r6, #0
 103              	.L5:
 104              	.LVL12:
 279:..\..\..\arduinoLCD\test\Pain Drain\libraries\lvgl\src\extra\widgets\tabview/lv_tabview.c ****         for(i = 0; i < tabview->tab_cnt; i++) {
 105              		.loc 1 279 0 is_stmt 0 discriminator 1
 106 0054 238D     		ldrh	r3, [r4, #40]
 107 0056 9E42     		cmp	r6, r3
 108 0058 EFD3     		bcc	.L7
 109              	.LVL13:
 110              	.L6:
 282:..\..\..\arduinoLCD\test\Pain Drain\libraries\lvgl\src\extra\widgets\tabview/lv_tabview.c ****         }
 283:..\..\..\arduinoLCD\test\Pain Drain\libraries\lvgl\src\extra\widgets\tabview/lv_tabview.c ****     }
 284:..\..\..\arduinoLCD\test\Pain Drain\libraries\lvgl\src\extra\widgets\tabview/lv_tabview.c **** 
 285:..\..\..\arduinoLCD\test\Pain Drain\libraries\lvgl\src\extra\widgets\tabview/lv_tabview.c **** 
ARM GAS  C:\Users\haske\AppData\Local\Temp\cc65HANE.s 			page 8


 286:..\..\..\arduinoLCD\test\Pain Drain\libraries\lvgl\src\extra\widgets\tabview/lv_tabview.c ****     lv_mem_free(tabview->map);
 111              		.loc 1 286 0 is_stmt 1
 112 005a 606A     		ldr	r0, [r4, #36]
 113 005c FFF7FEFF 		bl	lv_mem_free
 114              	.LVL14:
 287:..\..\..\arduinoLCD\test\Pain Drain\libraries\lvgl\src\extra\widgets\tabview/lv_tabview.c ****     tabview->map = NULL;
 115              		.loc 1 287 0
 116 0060 0023     		movs	r3, #0
 117 0062 6362     		str	r3, [r4, #36]
 288:..\..\..\arduinoLCD\test\Pain Drain\libraries\lvgl\src\extra\widgets\tabview/lv_tabview.c **** }
 118              		.loc 1 288 0
 119              		@ sp needed
 120              	.LVL15:
 121 0064 70BD     		pop	{r4, r5, r6, pc}
 122              		.cfi_endproc
 123              	.LFE210:
 124              		.size	lv_tabview_destructor, .-lv_tabview_destructor
 125 0066 C046     		.section	.text.lv_tabview_constructor,"ax",%progbits
 126              		.align	2
 127              		.code	16
 128              		.thumb_func
 129              		.type	lv_tabview_constructor, %function
 130              	lv_tabview_constructor:
 131              	.LFB209:
 197:..\..\..\arduinoLCD\test\Pain Drain\libraries\lvgl\src\extra\widgets\tabview/lv_tabview.c ****     LV_UNUSED(class_p);
 132              		.loc 1 197 0
 133              		.cfi_startproc
 134              		@ args = 0, pretend = 0, frame = 0
 135              		@ frame_needed = 0, uses_anonymous_args = 0
 136              	.LVL16:
 137 0000 F8B5     		push	{r3, r4, r5, r6, r7, lr}
 138              		.cfi_def_cfa_offset 24
 139              		.cfi_offset 3, -24
 140              		.cfi_offset 4, -20
 141              		.cfi_offset 5, -16
 142              		.cfi_offset 6, -12
 143              		.cfi_offset 7, -8
 144              		.cfi_offset 14, -4
 145 0002 0C00     		movs	r4, r1
 146              	.LVL17:
 201:..\..\..\arduinoLCD\test\Pain Drain\libraries\lvgl\src\extra\widgets\tabview/lv_tabview.c **** 
 147              		.loc 1 201 0
 148 0004 524B     		ldr	r3, .L25
 149 0006 1B78     		ldrb	r3, [r3]
 150 0008 2C22     		movs	r2, #44
 151 000a 8B54     		strb	r3, [r1, r2]
 203:..\..\..\arduinoLCD\test\Pain Drain\libraries\lvgl\src\extra\widgets\tabview/lv_tabview.c ****         case LV_DIR_TOP:
 152              		.loc 1 203 0
 153 000c 022B     		cmp	r3, #2
 154 000e 17D0     		beq	.L12
 155 0010 02D8     		bhi	.L13
 156 0012 012B     		cmp	r3, #1
 157 0014 0FD0     		beq	.L14
 158 0016 17E0     		b	.L11
 159              	.L13:
 160 0018 042B     		cmp	r3, #4
 161 001a 02D0     		beq	.L15
ARM GAS  C:\Users\haske\AppData\Local\Temp\cc65HANE.s 			page 9


 162 001c 082B     		cmp	r3, #8
 163 001e 05D0     		beq	.L16
 164 0020 12E0     		b	.L11
 165              	.L15:
 205:..\..\..\arduinoLCD\test\Pain Drain\libraries\lvgl\src\extra\widgets\tabview/lv_tabview.c ****             break;
 166              		.loc 1 205 0
 167 0022 0121     		movs	r1, #1
 168              	.LVL18:
 169 0024 2000     		movs	r0, r4
 170              	.LVL19:
 171 0026 FFF7FEFF 		bl	lv_obj_set_flex_flow
 172              	.LVL20:
 206:..\..\..\arduinoLCD\test\Pain Drain\libraries\lvgl\src\extra\widgets\tabview/lv_tabview.c ****         case LV_DIR_BOTTOM:
 173              		.loc 1 206 0
 174 002a 0DE0     		b	.L11
 175              	.LVL21:
 176              	.L16:
 208:..\..\..\arduinoLCD\test\Pain Drain\libraries\lvgl\src\extra\widgets\tabview/lv_tabview.c ****             break;
 177              		.loc 1 208 0
 178 002c 0921     		movs	r1, #9
 179              	.LVL22:
 180 002e 2000     		movs	r0, r4
 181              	.LVL23:
 182 0030 FFF7FEFF 		bl	lv_obj_set_flex_flow
 183              	.LVL24:
 209:..\..\..\arduinoLCD\test\Pain Drain\libraries\lvgl\src\extra\widgets\tabview/lv_tabview.c ****         case LV_DIR_LEFT:
 184              		.loc 1 209 0
 185 0034 08E0     		b	.L11
 186              	.LVL25:
 187              	.L14:
 211:..\..\..\arduinoLCD\test\Pain Drain\libraries\lvgl\src\extra\widgets\tabview/lv_tabview.c ****             break;
 188              		.loc 1 211 0
 189 0036 0021     		movs	r1, #0
 190              	.LVL26:
 191 0038 2000     		movs	r0, r4
 192              	.LVL27:
 193 003a FFF7FEFF 		bl	lv_obj_set_flex_flow
 194              	.LVL28:
 212:..\..\..\arduinoLCD\test\Pain Drain\libraries\lvgl\src\extra\widgets\tabview/lv_tabview.c ****         case LV_DIR_RIGHT:
 195              		.loc 1 212 0
 196 003e 03E0     		b	.L11
 197              	.LVL29:
 198              	.L12:
 214:..\..\..\arduinoLCD\test\Pain Drain\libraries\lvgl\src\extra\widgets\tabview/lv_tabview.c ****             break;
 199              		.loc 1 214 0
 200 0040 0821     		movs	r1, #8
 201              	.LVL30:
 202 0042 2000     		movs	r0, r4
 203              	.LVL31:
 204 0044 FFF7FEFF 		bl	lv_obj_set_flex_flow
 205              	.LVL32:
 206              	.L11:
 218:..\..\..\arduinoLCD\test\Pain Drain\libraries\lvgl\src\extra\widgets\tabview/lv_tabview.c **** 
 207              		.loc 1 218 0
 208 0048 4249     		ldr	r1, .L25+4
 209 004a 0A00     		movs	r2, r1
 210 004c 2000     		movs	r0, r4
ARM GAS  C:\Users\haske\AppData\Local\Temp\cc65HANE.s 			page 10


 211 004e FFF7FEFF 		bl	lv_obj_set_size
 212              	.LVL33:
 223:..\..\..\arduinoLCD\test\Pain Drain\libraries\lvgl\src\extra\widgets\tabview/lv_tabview.c ****     cont = lv_obj_create(obj);
 213              		.loc 1 223 0
 214 0052 2000     		movs	r0, r4
 215 0054 FFF7FEFF 		bl	lv_btnmatrix_create
 216              	.LVL34:
 217 0058 0600     		movs	r6, r0
 218              	.LVL35:
 224:..\..\..\arduinoLCD\test\Pain Drain\libraries\lvgl\src\extra\widgets\tabview/lv_tabview.c **** 
 219              		.loc 1 224 0
 220 005a 2000     		movs	r0, r4
 221              	.LVL36:
 222 005c FFF7FEFF 		bl	lv_obj_create
 223              	.LVL37:
 224 0060 0500     		movs	r5, r0
 225              	.LVL38:
 226:..\..\..\arduinoLCD\test\Pain Drain\libraries\lvgl\src\extra\widgets\tabview/lv_tabview.c ****     tabview->map = lv_mem_alloc(sizeof(const char *));
 226              		.loc 1 226 0
 227 0062 0121     		movs	r1, #1
 228 0064 3000     		movs	r0, r6
 229              	.LVL39:
 230 0066 FFF7FEFF 		bl	lv_btnmatrix_set_one_checked
 231              	.LVL40:
 227:..\..\..\arduinoLCD\test\Pain Drain\libraries\lvgl\src\extra\widgets\tabview/lv_tabview.c ****     tabview->map[0] = "";
 232              		.loc 1 227 0
 233 006a 0420     		movs	r0, #4
 234 006c FFF7FEFF 		bl	lv_mem_alloc
 235              	.LVL41:
 236 0070 6062     		str	r0, [r4, #36]
 228:..\..\..\arduinoLCD\test\Pain Drain\libraries\lvgl\src\extra\widgets\tabview/lv_tabview.c ****     lv_btnmatrix_set_map(btnm, (const char **)tabview->map);
 237              		.loc 1 228 0
 238 0072 394B     		ldr	r3, .L25+8
 239 0074 0360     		str	r3, [r0]
 229:..\..\..\arduinoLCD\test\Pain Drain\libraries\lvgl\src\extra\widgets\tabview/lv_tabview.c ****     lv_obj_add_event_cb(btnm, btns_value_changed_event_cb, LV_EVENT_VALUE_CHANGED, NULL);
 240              		.loc 1 229 0
 241 0076 616A     		ldr	r1, [r4, #36]
 242 0078 3000     		movs	r0, r6
 243 007a FFF7FEFF 		bl	lv_btnmatrix_set_map
 244              	.LVL42:
 230:..\..\..\arduinoLCD\test\Pain Drain\libraries\lvgl\src\extra\widgets\tabview/lv_tabview.c ****     lv_obj_add_flag(btnm, LV_OBJ_FLAG_EVENT_BUBBLE);
 245              		.loc 1 230 0
 246 007e 0023     		movs	r3, #0
 247 0080 1C22     		movs	r2, #28
 248 0082 3649     		ldr	r1, .L25+12
 249 0084 3000     		movs	r0, r6
 250 0086 FFF7FEFF 		bl	lv_obj_add_event_cb
 251              	.LVL43:
 231:..\..\..\arduinoLCD\test\Pain Drain\libraries\lvgl\src\extra\widgets\tabview/lv_tabview.c **** 
 252              		.loc 1 231 0
 253 008a 8021     		movs	r1, #128
 254 008c C901     		lsls	r1, r1, #7
 255 008e 3000     		movs	r0, r6
 256 0090 FFF7FEFF 		bl	lv_obj_add_flag
 257              	.LVL44:
 233:..\..\..\arduinoLCD\test\Pain Drain\libraries\lvgl\src\extra\widgets\tabview/lv_tabview.c ****     lv_obj_set_scrollbar_mode(cont, LV_SCROLLBAR_MODE_OFF);
 258              		.loc 1 233 0
ARM GAS  C:\Users\haske\AppData\Local\Temp\cc65HANE.s 			page 11


 259 0094 0023     		movs	r3, #0
 260 0096 0022     		movs	r2, #0
 261 0098 3149     		ldr	r1, .L25+16
 262 009a 2800     		movs	r0, r5
 263 009c FFF7FEFF 		bl	lv_obj_add_event_cb
 264              	.LVL45:
 234:..\..\..\arduinoLCD\test\Pain Drain\libraries\lvgl\src\extra\widgets\tabview/lv_tabview.c **** 
 265              		.loc 1 234 0
 266 00a0 0021     		movs	r1, #0
 267 00a2 2800     		movs	r0, r5
 268 00a4 FFF7FEFF 		bl	lv_obj_set_scrollbar_mode
 269              	.LVL46:
 236:..\..\..\arduinoLCD\test\Pain Drain\libraries\lvgl\src\extra\widgets\tabview/lv_tabview.c ****         case LV_DIR_TOP:
 270              		.loc 1 236 0
 271 00a8 2C23     		movs	r3, #44
 272 00aa E35C     		ldrb	r3, [r4, r3]
 273 00ac 042B     		cmp	r3, #4
 274 00ae 07D0     		beq	.L18
 275 00b0 04D8     		bhi	.L19
 276 00b2 013B     		subs	r3, r3, #1
 277 00b4 DBB2     		uxtb	r3, r3
 278 00b6 012B     		cmp	r3, #1
 279 00b8 13D9     		bls	.L24
 280 00ba 22E0     		b	.L17
 281              	.L19:
 282 00bc 082B     		cmp	r3, #8
 283 00be 20D1     		bne	.L17
 284              	.L18:
 239:..\..\..\arduinoLCD\test\Pain Drain\libraries\lvgl\src\extra\widgets\tabview/lv_tabview.c ****             lv_obj_set_width(cont, LV_PCT(100));
 285              		.loc 1 239 0
 286 00c0 234B     		ldr	r3, .L25
 287 00c2 0222     		movs	r2, #2
 288 00c4 9A5E     		ldrsh	r2, [r3, r2]
 289 00c6 234F     		ldr	r7, .L25+4
 290 00c8 3900     		movs	r1, r7
 291 00ca 3000     		movs	r0, r6
 292 00cc FFF7FEFF 		bl	lv_obj_set_size
 293              	.LVL47:
 240:..\..\..\arduinoLCD\test\Pain Drain\libraries\lvgl\src\extra\widgets\tabview/lv_tabview.c ****             lv_obj_set_flex_grow(cont, 1);
 294              		.loc 1 240 0
 295 00d0 3900     		movs	r1, r7
 296 00d2 2800     		movs	r0, r5
 297 00d4 FFF7FEFF 		bl	lv_obj_set_width
 298              	.LVL48:
 241:..\..\..\arduinoLCD\test\Pain Drain\libraries\lvgl\src\extra\widgets\tabview/lv_tabview.c ****             break;
 299              		.loc 1 241 0
 300 00d8 0121     		movs	r1, #1
 301 00da 2800     		movs	r0, r5
 302 00dc FFF7FEFF 		bl	lv_obj_set_flex_grow
 303              	.LVL49:
 242:..\..\..\arduinoLCD\test\Pain Drain\libraries\lvgl\src\extra\widgets\tabview/lv_tabview.c ****         case LV_DIR_LEFT:
 304              		.loc 1 242 0
 305 00e0 0FE0     		b	.L17
 306              	.L24:
 245:..\..\..\arduinoLCD\test\Pain Drain\libraries\lvgl\src\extra\widgets\tabview/lv_tabview.c ****             lv_obj_set_height(cont, LV_PCT(100));
 307              		.loc 1 245 0
 308 00e2 1C4F     		ldr	r7, .L25+4
ARM GAS  C:\Users\haske\AppData\Local\Temp\cc65HANE.s 			page 12


 309 00e4 1A4B     		ldr	r3, .L25
 310 00e6 0221     		movs	r1, #2
 311 00e8 595E     		ldrsh	r1, [r3, r1]
 312 00ea 3A00     		movs	r2, r7
 313 00ec 3000     		movs	r0, r6
 314 00ee FFF7FEFF 		bl	lv_obj_set_size
 315              	.LVL50:
 246:..\..\..\arduinoLCD\test\Pain Drain\libraries\lvgl\src\extra\widgets\tabview/lv_tabview.c ****             lv_obj_set_flex_grow(cont, 1);
 316              		.loc 1 246 0
 317 00f2 3900     		movs	r1, r7
 318 00f4 2800     		movs	r0, r5
 319 00f6 FFF7FEFF 		bl	lv_obj_set_height
 320              	.LVL51:
 247:..\..\..\arduinoLCD\test\Pain Drain\libraries\lvgl\src\extra\widgets\tabview/lv_tabview.c ****             break;
 321              		.loc 1 247 0
 322 00fa 0121     		movs	r1, #1
 323 00fc 2800     		movs	r0, r5
 324 00fe FFF7FEFF 		bl	lv_obj_set_flex_grow
 325              	.LVL52:
 326              	.L17:
 251:..\..\..\arduinoLCD\test\Pain Drain\libraries\lvgl\src\extra\widgets\tabview/lv_tabview.c ****     if(g) lv_group_add_obj(g, btnm);
 327              		.loc 1 251 0
 328 0102 FFF7FEFF 		bl	lv_group_get_default
 329              	.LVL53:
 252:..\..\..\arduinoLCD\test\Pain Drain\libraries\lvgl\src\extra\widgets\tabview/lv_tabview.c **** 
 330              		.loc 1 252 0
 331 0106 0028     		cmp	r0, #0
 332 0108 02D0     		beq	.L21
 252:..\..\..\arduinoLCD\test\Pain Drain\libraries\lvgl\src\extra\widgets\tabview/lv_tabview.c **** 
 333              		.loc 1 252 0 is_stmt 0 discriminator 1
 334 010a 3100     		movs	r1, r6
 335 010c FFF7FEFF 		bl	lv_group_add_obj
 336              	.LVL54:
 337              	.L21:
 254:..\..\..\arduinoLCD\test\Pain Drain\libraries\lvgl\src\extra\widgets\tabview/lv_tabview.c ****         lv_obj_set_flex_flow(cont, LV_FLEX_FLOW_ROW);
 338              		.loc 1 254 0 is_stmt 1
 339 0110 2C23     		movs	r3, #44
 340 0112 E35C     		ldrb	r3, [r4, r3]
 341 0114 0C22     		movs	r2, #12
 342 0116 1A42     		tst	r2, r3
 343 0118 08D0     		beq	.L22
 255:..\..\..\arduinoLCD\test\Pain Drain\libraries\lvgl\src\extra\widgets\tabview/lv_tabview.c ****         lv_obj_set_scroll_snap_x(cont, LV_SCROLL_SNAP_CENTER);
 344              		.loc 1 255 0
 345 011a 0021     		movs	r1, #0
 346 011c 2800     		movs	r0, r5
 347 011e FFF7FEFF 		bl	lv_obj_set_flex_flow
 348              	.LVL55:
 256:..\..\..\arduinoLCD\test\Pain Drain\libraries\lvgl\src\extra\widgets\tabview/lv_tabview.c ****     }
 349              		.loc 1 256 0
 350 0122 0321     		movs	r1, #3
 351 0124 2800     		movs	r0, r5
 352 0126 FFF7FEFF 		bl	lv_obj_set_scroll_snap_x
 353              	.LVL56:
 354 012a 07E0     		b	.L23
 355              	.L22:
 259:..\..\..\arduinoLCD\test\Pain Drain\libraries\lvgl\src\extra\widgets\tabview/lv_tabview.c ****         lv_obj_set_scroll_snap_y(cont, LV_SCROLL_SNAP_CENTER);
 356              		.loc 1 259 0
ARM GAS  C:\Users\haske\AppData\Local\Temp\cc65HANE.s 			page 13


 357 012c 0121     		movs	r1, #1
 358 012e 2800     		movs	r0, r5
 359 0130 FFF7FEFF 		bl	lv_obj_set_flex_flow
 360              	.LVL57:
 260:..\..\..\arduinoLCD\test\Pain Drain\libraries\lvgl\src\extra\widgets\tabview/lv_tabview.c ****     }
 361              		.loc 1 260 0
 362 0134 0321     		movs	r1, #3
 363 0136 2800     		movs	r0, r5
 364 0138 FFF7FEFF 		bl	lv_obj_set_scroll_snap_y
 365              	.LVL58:
 366              	.L23:
 262:..\..\..\arduinoLCD\test\Pain Drain\libraries\lvgl\src\extra\widgets\tabview/lv_tabview.c ****     lv_obj_clear_flag(cont, LV_OBJ_FLAG_SCROLL_ON_FOCUS);
 367              		.loc 1 262 0
 368 013c 8021     		movs	r1, #128
 369 013e 2800     		movs	r0, r5
 370 0140 FFF7FEFF 		bl	lv_obj_add_flag
 371              	.LVL59:
 263:..\..\..\arduinoLCD\test\Pain Drain\libraries\lvgl\src\extra\widgets\tabview/lv_tabview.c **** }
 372              		.loc 1 263 0
 373 0144 8021     		movs	r1, #128
 374 0146 C900     		lsls	r1, r1, #3
 375 0148 2800     		movs	r0, r5
 376 014a FFF7FEFF 		bl	lv_obj_clear_flag
 377              	.LVL60:
 264:..\..\..\arduinoLCD\test\Pain Drain\libraries\lvgl\src\extra\widgets\tabview/lv_tabview.c **** 
 378              		.loc 1 264 0
 379              		@ sp needed
 380              	.LVL61:
 381              	.LVL62:
 382              	.LVL63:
 383 014e F8BD     		pop	{r3, r4, r5, r6, r7, pc}
 384              	.L26:
 385              		.align	2
 386              	.L25:
 387 0150 00000000 		.word	.LANCHOR0
 388 0154 64200000 		.word	8292
 389 0158 00000000 		.word	.LC1
 390 015c 00000000 		.word	btns_value_changed_event_cb
 391 0160 00000000 		.word	cont_scroll_end_event_cb
 392              		.cfi_endproc
 393              	.LFE209:
 394              		.size	lv_tabview_constructor, .-lv_tabview_constructor
 395              		.section	.text.lv_tabview_create,"ax",%progbits
 396              		.align	2
 397              		.global	lv_tabview_create
 398              		.code	16
 399              		.thumb_func
 400              		.type	lv_tabview_create, %function
 401              	lv_tabview_create:
 402              	.LFB202:
  57:..\..\..\arduinoLCD\test\Pain Drain\libraries\lvgl\src\extra\widgets\tabview/lv_tabview.c ****     LV_LOG_INFO("begin");
 403              		.loc 1 57 0
 404              		.cfi_startproc
 405              		@ args = 0, pretend = 0, frame = 0
 406              		@ frame_needed = 0, uses_anonymous_args = 0
 407              	.LVL64:
 408 0000 10B5     		push	{r4, lr}
ARM GAS  C:\Users\haske\AppData\Local\Temp\cc65HANE.s 			page 14


 409              		.cfi_def_cfa_offset 8
 410              		.cfi_offset 4, -8
 411              		.cfi_offset 14, -4
  59:..\..\..\arduinoLCD\test\Pain Drain\libraries\lvgl\src\extra\widgets\tabview/lv_tabview.c ****     tabsize_create = tab_size;
 412              		.loc 1 59 0
 413 0002 064B     		ldr	r3, .L28
 414 0004 1970     		strb	r1, [r3]
  60:..\..\..\arduinoLCD\test\Pain Drain\libraries\lvgl\src\extra\widgets\tabview/lv_tabview.c **** 
 415              		.loc 1 60 0
 416 0006 5A80     		strh	r2, [r3, #2]
  62:..\..\..\arduinoLCD\test\Pain Drain\libraries\lvgl\src\extra\widgets\tabview/lv_tabview.c ****     lv_obj_class_init_obj(obj);
 417              		.loc 1 62 0
 418 0008 0100     		movs	r1, r0
 419              	.LVL65:
 420 000a 0548     		ldr	r0, .L28+4
 421              	.LVL66:
 422 000c FFF7FEFF 		bl	lv_obj_class_create_obj
 423              	.LVL67:
 424 0010 0400     		movs	r4, r0
 425              	.LVL68:
  63:..\..\..\arduinoLCD\test\Pain Drain\libraries\lvgl\src\extra\widgets\tabview/lv_tabview.c ****     return obj;
 426              		.loc 1 63 0
 427 0012 FFF7FEFF 		bl	lv_obj_class_init_obj
 428              	.LVL69:
  65:..\..\..\arduinoLCD\test\Pain Drain\libraries\lvgl\src\extra\widgets\tabview/lv_tabview.c **** 
 429              		.loc 1 65 0
 430 0016 2000     		movs	r0, r4
 431              		@ sp needed
 432              	.LVL70:
 433 0018 10BD     		pop	{r4, pc}
 434              	.L29:
 435 001a C046     		.align	2
 436              	.L28:
 437 001c 00000000 		.word	.LANCHOR0
 438 0020 00000000 		.word	.LANCHOR1
 439              		.cfi_endproc
 440              	.LFE202:
 441              		.size	lv_tabview_create, .-lv_tabview_create
 442              		.section	.text.lv_tabview_rename_tab,"ax",%progbits
 443              		.align	2
 444              		.global	lv_tabview_rename_tab
 445              		.code	16
 446              		.thumb_func
 447              		.type	lv_tabview_rename_tab, %function
 448              	lv_tabview_rename_tab:
 449              	.LFB204:
 125:..\..\..\arduinoLCD\test\Pain Drain\libraries\lvgl\src\extra\widgets\tabview/lv_tabview.c ****     LV_ASSERT_OBJ(obj, MY_CLASS);
 450              		.loc 1 125 0
 451              		.cfi_startproc
 452              		@ args = 0, pretend = 0, frame = 0
 453              		@ frame_needed = 0, uses_anonymous_args = 0
 454              	.LVL71:
 455 0000 F8B5     		push	{r3, r4, r5, r6, r7, lr}
 456              		.cfi_def_cfa_offset 24
 457              		.cfi_offset 3, -24
 458              		.cfi_offset 4, -20
 459              		.cfi_offset 5, -16
ARM GAS  C:\Users\haske\AppData\Local\Temp\cc65HANE.s 			page 15


 460              		.cfi_offset 6, -12
 461              		.cfi_offset 7, -8
 462              		.cfi_offset 14, -4
 463 0002 0500     		movs	r5, r0
 464 0004 1600     		movs	r6, r2
 465              	.LVL72:
 129:..\..\..\arduinoLCD\test\Pain Drain\libraries\lvgl\src\extra\widgets\tabview/lv_tabview.c ****     if(tabview->tab_pos & LV_DIR_HOR) id *= 2;
 466              		.loc 1 129 0
 467 0006 038D     		ldrh	r3, [r0, #40]
 468 0008 8B42     		cmp	r3, r1
 469 000a 1AD9     		bls	.L30
 130:..\..\..\arduinoLCD\test\Pain Drain\libraries\lvgl\src\extra\widgets\tabview/lv_tabview.c **** 
 470              		.loc 1 130 0
 471 000c 2C23     		movs	r3, #44
 472 000e C35C     		ldrb	r3, [r0, r3]
 473 0010 9B07     		lsls	r3, r3, #30
 474 0012 00D0     		beq	.L32
 130:..\..\..\arduinoLCD\test\Pain Drain\libraries\lvgl\src\extra\widgets\tabview/lv_tabview.c **** 
 475              		.loc 1 130 0 is_stmt 0 discriminator 1
 476 0014 4900     		lsls	r1, r1, #1
 477              	.LVL73:
 478              	.L32:
 132:..\..\..\arduinoLCD\test\Pain Drain\libraries\lvgl\src\extra\widgets\tabview/lv_tabview.c ****     tabview->map[id] = lv_mem_alloc(strlen(new_name) + 1);
 479              		.loc 1 132 0 is_stmt 1
 480 0016 8C00     		lsls	r4, r1, #2
 481 0018 6B6A     		ldr	r3, [r5, #36]
 482 001a 1859     		ldr	r0, [r3, r4]
 483              	.LVL74:
 484 001c FFF7FEFF 		bl	lv_mem_free
 485              	.LVL75:
 133:..\..\..\arduinoLCD\test\Pain Drain\libraries\lvgl\src\extra\widgets\tabview/lv_tabview.c ****     strcpy(tabview->map[id], new_name);
 486              		.loc 1 133 0
 487 0020 6B6A     		ldr	r3, [r5, #36]
 488 0022 1F19     		adds	r7, r3, r4
 489 0024 3000     		movs	r0, r6
 490 0026 FFF7FEFF 		bl	strlen
 491              	.LVL76:
 492 002a 0130     		adds	r0, r0, #1
 493 002c FFF7FEFF 		bl	lv_mem_alloc
 494              	.LVL77:
 495 0030 3860     		str	r0, [r7]
 134:..\..\..\arduinoLCD\test\Pain Drain\libraries\lvgl\src\extra\widgets\tabview/lv_tabview.c ****     lv_obj_invalidate(obj);
 496              		.loc 1 134 0
 497 0032 6B6A     		ldr	r3, [r5, #36]
 498 0034 1859     		ldr	r0, [r3, r4]
 499 0036 3100     		movs	r1, r6
 500 0038 FFF7FEFF 		bl	strcpy
 501              	.LVL78:
 135:..\..\..\arduinoLCD\test\Pain Drain\libraries\lvgl\src\extra\widgets\tabview/lv_tabview.c **** }
 502              		.loc 1 135 0
 503 003c 2800     		movs	r0, r5
 504 003e FFF7FEFF 		bl	lv_obj_invalidate
 505              	.LVL79:
 506              	.L30:
 136:..\..\..\arduinoLCD\test\Pain Drain\libraries\lvgl\src\extra\widgets\tabview/lv_tabview.c **** 
 507              		.loc 1 136 0
 508              		@ sp needed
ARM GAS  C:\Users\haske\AppData\Local\Temp\cc65HANE.s 			page 16


 509              	.LVL80:
 510              	.LVL81:
 511 0042 F8BD     		pop	{r3, r4, r5, r6, r7, pc}
 512              		.cfi_endproc
 513              	.LFE204:
 514              		.size	lv_tabview_rename_tab, .-lv_tabview_rename_tab
 515              		.section	.text.lv_tabview_get_tab_act,"ax",%progbits
 516              		.align	2
 517              		.global	lv_tabview_get_tab_act
 518              		.code	16
 519              		.thumb_func
 520              		.type	lv_tabview_get_tab_act, %function
 521              	lv_tabview_get_tab_act:
 522              	.LFB206:
 176:..\..\..\arduinoLCD\test\Pain Drain\libraries\lvgl\src\extra\widgets\tabview/lv_tabview.c ****     LV_ASSERT_OBJ(obj, MY_CLASS);
 523              		.loc 1 176 0
 524              		.cfi_startproc
 525              		@ args = 0, pretend = 0, frame = 0
 526              		@ frame_needed = 0, uses_anonymous_args = 0
 527              		@ link register save eliminated.
 528              	.LVL82:
 179:..\..\..\arduinoLCD\test\Pain Drain\libraries\lvgl\src\extra\widgets\tabview/lv_tabview.c **** }
 529              		.loc 1 179 0
 530 0000 408D     		ldrh	r0, [r0, #42]
 531              	.LVL83:
 180:..\..\..\arduinoLCD\test\Pain Drain\libraries\lvgl\src\extra\widgets\tabview/lv_tabview.c **** 
 532              		.loc 1 180 0
 533              		@ sp needed
 534 0002 7047     		bx	lr
 535              		.cfi_endproc
 536              	.LFE206:
 537              		.size	lv_tabview_get_tab_act, .-lv_tabview_get_tab_act
 538              		.section	.text.lv_tabview_get_content,"ax",%progbits
 539              		.align	2
 540              		.global	lv_tabview_get_content
 541              		.code	16
 542              		.thumb_func
 543              		.type	lv_tabview_get_content, %function
 544              	lv_tabview_get_content:
 545              	.LFB207:
 183:..\..\..\arduinoLCD\test\Pain Drain\libraries\lvgl\src\extra\widgets\tabview/lv_tabview.c ****     return lv_obj_get_child(tv, 1);
 546              		.loc 1 183 0
 547              		.cfi_startproc
 548              		@ args = 0, pretend = 0, frame = 0
 549              		@ frame_needed = 0, uses_anonymous_args = 0
 550              	.LVL84:
 551 0000 10B5     		push	{r4, lr}
 552              		.cfi_def_cfa_offset 8
 553              		.cfi_offset 4, -8
 554              		.cfi_offset 14, -4
 184:..\..\..\arduinoLCD\test\Pain Drain\libraries\lvgl\src\extra\widgets\tabview/lv_tabview.c **** }
 555              		.loc 1 184 0
 556 0002 0121     		movs	r1, #1
 557 0004 FFF7FEFF 		bl	lv_obj_get_child
 558              	.LVL85:
 185:..\..\..\arduinoLCD\test\Pain Drain\libraries\lvgl\src\extra\widgets\tabview/lv_tabview.c **** 
 559              		.loc 1 185 0
ARM GAS  C:\Users\haske\AppData\Local\Temp\cc65HANE.s 			page 17


 560              		@ sp needed
 561 0008 10BD     		pop	{r4, pc}
 562              		.cfi_endproc
 563              	.LFE207:
 564              		.size	lv_tabview_get_content, .-lv_tabview_get_content
 565 000a C046     		.section	.text.lv_tabview_get_tab_btns,"ax",%progbits
 566              		.align	2
 567              		.global	lv_tabview_get_tab_btns
 568              		.code	16
 569              		.thumb_func
 570              		.type	lv_tabview_get_tab_btns, %function
 571              	lv_tabview_get_tab_btns:
 572              	.LFB208:
 188:..\..\..\arduinoLCD\test\Pain Drain\libraries\lvgl\src\extra\widgets\tabview/lv_tabview.c ****     return lv_obj_get_child(tv, 0);
 573              		.loc 1 188 0
 574              		.cfi_startproc
 575              		@ args = 0, pretend = 0, frame = 0
 576              		@ frame_needed = 0, uses_anonymous_args = 0
 577              	.LVL86:
 578 0000 10B5     		push	{r4, lr}
 579              		.cfi_def_cfa_offset 8
 580              		.cfi_offset 4, -8
 581              		.cfi_offset 14, -4
 189:..\..\..\arduinoLCD\test\Pain Drain\libraries\lvgl\src\extra\widgets\tabview/lv_tabview.c **** }
 582              		.loc 1 189 0
 583 0002 0021     		movs	r1, #0
 584 0004 FFF7FEFF 		bl	lv_obj_get_child
 585              	.LVL87:
 190:..\..\..\arduinoLCD\test\Pain Drain\libraries\lvgl\src\extra\widgets\tabview/lv_tabview.c **** 
 586              		.loc 1 190 0
 587              		@ sp needed
 588 0008 10BD     		pop	{r4, pc}
 589              		.cfi_endproc
 590              	.LFE208:
 591              		.size	lv_tabview_get_tab_btns, .-lv_tabview_get_tab_btns
 592 000a C046     		.section	.text.lv_tabview_set_act,"ax",%progbits
 593              		.align	2
 594              		.global	lv_tabview_set_act
 595              		.code	16
 596              		.thumb_func
 597              		.type	lv_tabview_set_act, %function
 598              	lv_tabview_set_act:
 599              	.LFB205:
 139:..\..\..\arduinoLCD\test\Pain Drain\libraries\lvgl\src\extra\widgets\tabview/lv_tabview.c ****     LV_ASSERT_OBJ(obj, MY_CLASS);
 600              		.loc 1 139 0
 601              		.cfi_startproc
 602              		@ args = 0, pretend = 0, frame = 8
 603              		@ frame_needed = 0, uses_anonymous_args = 0
 604              	.LVL88:
 605 0000 F0B5     		push	{r4, r5, r6, r7, lr}
 606              		.cfi_def_cfa_offset 20
 607              		.cfi_offset 4, -20
 608              		.cfi_offset 5, -16
 609              		.cfi_offset 6, -12
 610              		.cfi_offset 7, -8
 611              		.cfi_offset 14, -4
 612 0002 4F46     		mov	r7, r9
ARM GAS  C:\Users\haske\AppData\Local\Temp\cc65HANE.s 			page 18


 613 0004 80B4     		push	{r7}
 614              		.cfi_def_cfa_offset 24
 615              		.cfi_offset 9, -24
 616 0006 82B0     		sub	sp, sp, #8
 617              		.cfi_def_cfa_offset 32
 618 0008 0400     		movs	r4, r0
 619 000a 0D00     		movs	r5, r1
 620 000c 0192     		str	r2, [sp, #4]
 621              	.LVL89:
 143:..\..\..\arduinoLCD\test\Pain Drain\libraries\lvgl\src\extra\widgets\tabview/lv_tabview.c ****         id = tabview->tab_cnt - 1;
 622              		.loc 1 143 0
 623 000e 038D     		ldrh	r3, [r0, #40]
 624 0010 8B42     		cmp	r3, r1
 625 0012 00D8     		bhi	.L37
 144:..\..\..\arduinoLCD\test\Pain Drain\libraries\lvgl\src\extra\widgets\tabview/lv_tabview.c ****     }
 626              		.loc 1 144 0
 627 0014 5D1E     		subs	r5, r3, #1
 628              	.LVL90:
 629              	.L37:
 148:..\..\..\arduinoLCD\test\Pain Drain\libraries\lvgl\src\extra\widgets\tabview/lv_tabview.c **** 
 630              		.loc 1 148 0
 631 0016 2000     		movs	r0, r4
 632              	.LVL91:
 633 0018 FFF7FEFF 		bl	lv_obj_update_layout
 634              	.LVL92:
 150:..\..\..\arduinoLCD\test\Pain Drain\libraries\lvgl\src\extra\widgets\tabview/lv_tabview.c ****     if(cont == NULL) return;
 635              		.loc 1 150 0
 636 001c 2000     		movs	r0, r4
 637 001e FFF7FEFF 		bl	lv_tabview_get_content
 638              	.LVL93:
 639 0022 061E     		subs	r6, r0, #0
 640              	.LVL94:
 151:..\..\..\arduinoLCD\test\Pain Drain\libraries\lvgl\src\extra\widgets\tabview/lv_tabview.c **** 
 641              		.loc 1 151 0
 642 0024 41D0     		beq	.L36
 153:..\..\..\arduinoLCD\test\Pain Drain\libraries\lvgl\src\extra\widgets\tabview/lv_tabview.c ****         lv_coord_t gap = lv_obj_get_style_pad_column(cont, LV_PART_MAIN);
 643              		.loc 1 153 0
 644 0026 2C23     		movs	r3, #44
 645 0028 E35C     		ldrb	r3, [r4, r3]
 646 002a 0C22     		movs	r2, #12
 647 002c 1A42     		tst	r2, r3
 648 002e 24D0     		beq	.L39
 649              	.LVL95:
 650              	.LBB20:
 651              	.LBB21:
 652              	.LBB22:
 653              		.file 2 "c:\\projects\\paindrain\\arduinolcd\\test\\pain drain\\libraries\\lvgl\\src/core/lv_obj_s
   1:c:\projects\paindrain\arduinolcd\test\pain drain\libraries\lvgl\src/core\lv_obj_style_gen.h **** static inline lv_coord_t lv_obj_get_style_width(const struct _lv_obj_t * obj, uint32_t part)
   2:c:\projects\paindrain\arduinolcd\test\pain drain\libraries\lvgl\src/core\lv_obj_style_gen.h **** {
   3:c:\projects\paindrain\arduinolcd\test\pain drain\libraries\lvgl\src/core\lv_obj_style_gen.h ****     lv_style_value_t v = lv_obj_get_style_prop(obj, part, LV_STYLE_WIDTH);
   4:c:\projects\paindrain\arduinolcd\test\pain drain\libraries\lvgl\src/core\lv_obj_style_gen.h ****     return (lv_coord_t)v.num;
   5:c:\projects\paindrain\arduinolcd\test\pain drain\libraries\lvgl\src/core\lv_obj_style_gen.h **** }
   6:c:\projects\paindrain\arduinolcd\test\pain drain\libraries\lvgl\src/core\lv_obj_style_gen.h **** 
   7:c:\projects\paindrain\arduinolcd\test\pain drain\libraries\lvgl\src/core\lv_obj_style_gen.h **** static inline lv_coord_t lv_obj_get_style_min_width(const struct _lv_obj_t * obj, uint32_t part)
   8:c:\projects\paindrain\arduinolcd\test\pain drain\libraries\lvgl\src/core\lv_obj_style_gen.h **** {
   9:c:\projects\paindrain\arduinolcd\test\pain drain\libraries\lvgl\src/core\lv_obj_style_gen.h ****     lv_style_value_t v = lv_obj_get_style_prop(obj, part, LV_STYLE_MIN_WIDTH);
  10:c:\projects\paindrain\arduinolcd\test\pain drain\libraries\lvgl\src/core\lv_obj_style_gen.h ****     return (lv_coord_t)v.num;
ARM GAS  C:\Users\haske\AppData\Local\Temp\cc65HANE.s 			page 19


  11:c:\projects\paindrain\arduinolcd\test\pain drain\libraries\lvgl\src/core\lv_obj_style_gen.h **** }
  12:c:\projects\paindrain\arduinolcd\test\pain drain\libraries\lvgl\src/core\lv_obj_style_gen.h **** 
  13:c:\projects\paindrain\arduinolcd\test\pain drain\libraries\lvgl\src/core\lv_obj_style_gen.h **** static inline lv_coord_t lv_obj_get_style_max_width(const struct _lv_obj_t * obj, uint32_t part)
  14:c:\projects\paindrain\arduinolcd\test\pain drain\libraries\lvgl\src/core\lv_obj_style_gen.h **** {
  15:c:\projects\paindrain\arduinolcd\test\pain drain\libraries\lvgl\src/core\lv_obj_style_gen.h ****     lv_style_value_t v = lv_obj_get_style_prop(obj, part, LV_STYLE_MAX_WIDTH);
  16:c:\projects\paindrain\arduinolcd\test\pain drain\libraries\lvgl\src/core\lv_obj_style_gen.h ****     return (lv_coord_t)v.num;
  17:c:\projects\paindrain\arduinolcd\test\pain drain\libraries\lvgl\src/core\lv_obj_style_gen.h **** }
  18:c:\projects\paindrain\arduinolcd\test\pain drain\libraries\lvgl\src/core\lv_obj_style_gen.h **** 
  19:c:\projects\paindrain\arduinolcd\test\pain drain\libraries\lvgl\src/core\lv_obj_style_gen.h **** static inline lv_coord_t lv_obj_get_style_height(const struct _lv_obj_t * obj, uint32_t part)
  20:c:\projects\paindrain\arduinolcd\test\pain drain\libraries\lvgl\src/core\lv_obj_style_gen.h **** {
  21:c:\projects\paindrain\arduinolcd\test\pain drain\libraries\lvgl\src/core\lv_obj_style_gen.h ****     lv_style_value_t v = lv_obj_get_style_prop(obj, part, LV_STYLE_HEIGHT);
  22:c:\projects\paindrain\arduinolcd\test\pain drain\libraries\lvgl\src/core\lv_obj_style_gen.h ****     return (lv_coord_t)v.num;
  23:c:\projects\paindrain\arduinolcd\test\pain drain\libraries\lvgl\src/core\lv_obj_style_gen.h **** }
  24:c:\projects\paindrain\arduinolcd\test\pain drain\libraries\lvgl\src/core\lv_obj_style_gen.h **** 
  25:c:\projects\paindrain\arduinolcd\test\pain drain\libraries\lvgl\src/core\lv_obj_style_gen.h **** static inline lv_coord_t lv_obj_get_style_min_height(const struct _lv_obj_t * obj, uint32_t part)
  26:c:\projects\paindrain\arduinolcd\test\pain drain\libraries\lvgl\src/core\lv_obj_style_gen.h **** {
  27:c:\projects\paindrain\arduinolcd\test\pain drain\libraries\lvgl\src/core\lv_obj_style_gen.h ****     lv_style_value_t v = lv_obj_get_style_prop(obj, part, LV_STYLE_MIN_HEIGHT);
  28:c:\projects\paindrain\arduinolcd\test\pain drain\libraries\lvgl\src/core\lv_obj_style_gen.h ****     return (lv_coord_t)v.num;
  29:c:\projects\paindrain\arduinolcd\test\pain drain\libraries\lvgl\src/core\lv_obj_style_gen.h **** }
  30:c:\projects\paindrain\arduinolcd\test\pain drain\libraries\lvgl\src/core\lv_obj_style_gen.h **** 
  31:c:\projects\paindrain\arduinolcd\test\pain drain\libraries\lvgl\src/core\lv_obj_style_gen.h **** static inline lv_coord_t lv_obj_get_style_max_height(const struct _lv_obj_t * obj, uint32_t part)
  32:c:\projects\paindrain\arduinolcd\test\pain drain\libraries\lvgl\src/core\lv_obj_style_gen.h **** {
  33:c:\projects\paindrain\arduinolcd\test\pain drain\libraries\lvgl\src/core\lv_obj_style_gen.h ****     lv_style_value_t v = lv_obj_get_style_prop(obj, part, LV_STYLE_MAX_HEIGHT);
  34:c:\projects\paindrain\arduinolcd\test\pain drain\libraries\lvgl\src/core\lv_obj_style_gen.h ****     return (lv_coord_t)v.num;
  35:c:\projects\paindrain\arduinolcd\test\pain drain\libraries\lvgl\src/core\lv_obj_style_gen.h **** }
  36:c:\projects\paindrain\arduinolcd\test\pain drain\libraries\lvgl\src/core\lv_obj_style_gen.h **** 
  37:c:\projects\paindrain\arduinolcd\test\pain drain\libraries\lvgl\src/core\lv_obj_style_gen.h **** static inline lv_coord_t lv_obj_get_style_x(const struct _lv_obj_t * obj, uint32_t part)
  38:c:\projects\paindrain\arduinolcd\test\pain drain\libraries\lvgl\src/core\lv_obj_style_gen.h **** {
  39:c:\projects\paindrain\arduinolcd\test\pain drain\libraries\lvgl\src/core\lv_obj_style_gen.h ****     lv_style_value_t v = lv_obj_get_style_prop(obj, part, LV_STYLE_X);
  40:c:\projects\paindrain\arduinolcd\test\pain drain\libraries\lvgl\src/core\lv_obj_style_gen.h ****     return (lv_coord_t)v.num;
  41:c:\projects\paindrain\arduinolcd\test\pain drain\libraries\lvgl\src/core\lv_obj_style_gen.h **** }
  42:c:\projects\paindrain\arduinolcd\test\pain drain\libraries\lvgl\src/core\lv_obj_style_gen.h **** 
  43:c:\projects\paindrain\arduinolcd\test\pain drain\libraries\lvgl\src/core\lv_obj_style_gen.h **** static inline lv_coord_t lv_obj_get_style_y(const struct _lv_obj_t * obj, uint32_t part)
  44:c:\projects\paindrain\arduinolcd\test\pain drain\libraries\lvgl\src/core\lv_obj_style_gen.h **** {
  45:c:\projects\paindrain\arduinolcd\test\pain drain\libraries\lvgl\src/core\lv_obj_style_gen.h ****     lv_style_value_t v = lv_obj_get_style_prop(obj, part, LV_STYLE_Y);
  46:c:\projects\paindrain\arduinolcd\test\pain drain\libraries\lvgl\src/core\lv_obj_style_gen.h ****     return (lv_coord_t)v.num;
  47:c:\projects\paindrain\arduinolcd\test\pain drain\libraries\lvgl\src/core\lv_obj_style_gen.h **** }
  48:c:\projects\paindrain\arduinolcd\test\pain drain\libraries\lvgl\src/core\lv_obj_style_gen.h **** 
  49:c:\projects\paindrain\arduinolcd\test\pain drain\libraries\lvgl\src/core\lv_obj_style_gen.h **** static inline lv_align_t lv_obj_get_style_align(const struct _lv_obj_t * obj, uint32_t part)
  50:c:\projects\paindrain\arduinolcd\test\pain drain\libraries\lvgl\src/core\lv_obj_style_gen.h **** {
  51:c:\projects\paindrain\arduinolcd\test\pain drain\libraries\lvgl\src/core\lv_obj_style_gen.h ****     lv_style_value_t v = lv_obj_get_style_prop(obj, part, LV_STYLE_ALIGN);
  52:c:\projects\paindrain\arduinolcd\test\pain drain\libraries\lvgl\src/core\lv_obj_style_gen.h ****     return (lv_align_t)v.num;
  53:c:\projects\paindrain\arduinolcd\test\pain drain\libraries\lvgl\src/core\lv_obj_style_gen.h **** }
  54:c:\projects\paindrain\arduinolcd\test\pain drain\libraries\lvgl\src/core\lv_obj_style_gen.h **** 
  55:c:\projects\paindrain\arduinolcd\test\pain drain\libraries\lvgl\src/core\lv_obj_style_gen.h **** static inline lv_coord_t lv_obj_get_style_transform_width(const struct _lv_obj_t * obj, uint32_t pa
  56:c:\projects\paindrain\arduinolcd\test\pain drain\libraries\lvgl\src/core\lv_obj_style_gen.h **** {
  57:c:\projects\paindrain\arduinolcd\test\pain drain\libraries\lvgl\src/core\lv_obj_style_gen.h ****     lv_style_value_t v = lv_obj_get_style_prop(obj, part, LV_STYLE_TRANSFORM_WIDTH);
  58:c:\projects\paindrain\arduinolcd\test\pain drain\libraries\lvgl\src/core\lv_obj_style_gen.h ****     return (lv_coord_t)v.num;
  59:c:\projects\paindrain\arduinolcd\test\pain drain\libraries\lvgl\src/core\lv_obj_style_gen.h **** }
  60:c:\projects\paindrain\arduinolcd\test\pain drain\libraries\lvgl\src/core\lv_obj_style_gen.h **** 
  61:c:\projects\paindrain\arduinolcd\test\pain drain\libraries\lvgl\src/core\lv_obj_style_gen.h **** static inline lv_coord_t lv_obj_get_style_transform_height(const struct _lv_obj_t * obj, uint32_t p
  62:c:\projects\paindrain\arduinolcd\test\pain drain\libraries\lvgl\src/core\lv_obj_style_gen.h **** {
  63:c:\projects\paindrain\arduinolcd\test\pain drain\libraries\lvgl\src/core\lv_obj_style_gen.h ****     lv_style_value_t v = lv_obj_get_style_prop(obj, part, LV_STYLE_TRANSFORM_HEIGHT);
  64:c:\projects\paindrain\arduinolcd\test\pain drain\libraries\lvgl\src/core\lv_obj_style_gen.h ****     return (lv_coord_t)v.num;
  65:c:\projects\paindrain\arduinolcd\test\pain drain\libraries\lvgl\src/core\lv_obj_style_gen.h **** }
  66:c:\projects\paindrain\arduinolcd\test\pain drain\libraries\lvgl\src/core\lv_obj_style_gen.h **** 
  67:c:\projects\paindrain\arduinolcd\test\pain drain\libraries\lvgl\src/core\lv_obj_style_gen.h **** static inline lv_coord_t lv_obj_get_style_translate_x(const struct _lv_obj_t * obj, uint32_t part)
ARM GAS  C:\Users\haske\AppData\Local\Temp\cc65HANE.s 			page 20


  68:c:\projects\paindrain\arduinolcd\test\pain drain\libraries\lvgl\src/core\lv_obj_style_gen.h **** {
  69:c:\projects\paindrain\arduinolcd\test\pain drain\libraries\lvgl\src/core\lv_obj_style_gen.h ****     lv_style_value_t v = lv_obj_get_style_prop(obj, part, LV_STYLE_TRANSLATE_X);
  70:c:\projects\paindrain\arduinolcd\test\pain drain\libraries\lvgl\src/core\lv_obj_style_gen.h ****     return (lv_coord_t)v.num;
  71:c:\projects\paindrain\arduinolcd\test\pain drain\libraries\lvgl\src/core\lv_obj_style_gen.h **** }
  72:c:\projects\paindrain\arduinolcd\test\pain drain\libraries\lvgl\src/core\lv_obj_style_gen.h **** 
  73:c:\projects\paindrain\arduinolcd\test\pain drain\libraries\lvgl\src/core\lv_obj_style_gen.h **** static inline lv_coord_t lv_obj_get_style_translate_y(const struct _lv_obj_t * obj, uint32_t part)
  74:c:\projects\paindrain\arduinolcd\test\pain drain\libraries\lvgl\src/core\lv_obj_style_gen.h **** {
  75:c:\projects\paindrain\arduinolcd\test\pain drain\libraries\lvgl\src/core\lv_obj_style_gen.h ****     lv_style_value_t v = lv_obj_get_style_prop(obj, part, LV_STYLE_TRANSLATE_Y);
  76:c:\projects\paindrain\arduinolcd\test\pain drain\libraries\lvgl\src/core\lv_obj_style_gen.h ****     return (lv_coord_t)v.num;
  77:c:\projects\paindrain\arduinolcd\test\pain drain\libraries\lvgl\src/core\lv_obj_style_gen.h **** }
  78:c:\projects\paindrain\arduinolcd\test\pain drain\libraries\lvgl\src/core\lv_obj_style_gen.h **** 
  79:c:\projects\paindrain\arduinolcd\test\pain drain\libraries\lvgl\src/core\lv_obj_style_gen.h **** static inline lv_coord_t lv_obj_get_style_transform_zoom(const struct _lv_obj_t * obj, uint32_t par
  80:c:\projects\paindrain\arduinolcd\test\pain drain\libraries\lvgl\src/core\lv_obj_style_gen.h **** {
  81:c:\projects\paindrain\arduinolcd\test\pain drain\libraries\lvgl\src/core\lv_obj_style_gen.h ****     lv_style_value_t v = lv_obj_get_style_prop(obj, part, LV_STYLE_TRANSFORM_ZOOM);
  82:c:\projects\paindrain\arduinolcd\test\pain drain\libraries\lvgl\src/core\lv_obj_style_gen.h ****     return (lv_coord_t)v.num;
  83:c:\projects\paindrain\arduinolcd\test\pain drain\libraries\lvgl\src/core\lv_obj_style_gen.h **** }
  84:c:\projects\paindrain\arduinolcd\test\pain drain\libraries\lvgl\src/core\lv_obj_style_gen.h **** 
  85:c:\projects\paindrain\arduinolcd\test\pain drain\libraries\lvgl\src/core\lv_obj_style_gen.h **** static inline lv_coord_t lv_obj_get_style_transform_angle(const struct _lv_obj_t * obj, uint32_t pa
  86:c:\projects\paindrain\arduinolcd\test\pain drain\libraries\lvgl\src/core\lv_obj_style_gen.h **** {
  87:c:\projects\paindrain\arduinolcd\test\pain drain\libraries\lvgl\src/core\lv_obj_style_gen.h ****     lv_style_value_t v = lv_obj_get_style_prop(obj, part, LV_STYLE_TRANSFORM_ANGLE);
  88:c:\projects\paindrain\arduinolcd\test\pain drain\libraries\lvgl\src/core\lv_obj_style_gen.h ****     return (lv_coord_t)v.num;
  89:c:\projects\paindrain\arduinolcd\test\pain drain\libraries\lvgl\src/core\lv_obj_style_gen.h **** }
  90:c:\projects\paindrain\arduinolcd\test\pain drain\libraries\lvgl\src/core\lv_obj_style_gen.h **** 
  91:c:\projects\paindrain\arduinolcd\test\pain drain\libraries\lvgl\src/core\lv_obj_style_gen.h **** static inline lv_coord_t lv_obj_get_style_transform_pivot_x(const struct _lv_obj_t * obj, uint32_t 
  92:c:\projects\paindrain\arduinolcd\test\pain drain\libraries\lvgl\src/core\lv_obj_style_gen.h **** {
  93:c:\projects\paindrain\arduinolcd\test\pain drain\libraries\lvgl\src/core\lv_obj_style_gen.h ****     lv_style_value_t v = lv_obj_get_style_prop(obj, part, LV_STYLE_TRANSFORM_PIVOT_X);
  94:c:\projects\paindrain\arduinolcd\test\pain drain\libraries\lvgl\src/core\lv_obj_style_gen.h ****     return (lv_coord_t)v.num;
  95:c:\projects\paindrain\arduinolcd\test\pain drain\libraries\lvgl\src/core\lv_obj_style_gen.h **** }
  96:c:\projects\paindrain\arduinolcd\test\pain drain\libraries\lvgl\src/core\lv_obj_style_gen.h **** 
  97:c:\projects\paindrain\arduinolcd\test\pain drain\libraries\lvgl\src/core\lv_obj_style_gen.h **** static inline lv_coord_t lv_obj_get_style_transform_pivot_y(const struct _lv_obj_t * obj, uint32_t 
  98:c:\projects\paindrain\arduinolcd\test\pain drain\libraries\lvgl\src/core\lv_obj_style_gen.h **** {
  99:c:\projects\paindrain\arduinolcd\test\pain drain\libraries\lvgl\src/core\lv_obj_style_gen.h ****     lv_style_value_t v = lv_obj_get_style_prop(obj, part, LV_STYLE_TRANSFORM_PIVOT_Y);
 100:c:\projects\paindrain\arduinolcd\test\pain drain\libraries\lvgl\src/core\lv_obj_style_gen.h ****     return (lv_coord_t)v.num;
 101:c:\projects\paindrain\arduinolcd\test\pain drain\libraries\lvgl\src/core\lv_obj_style_gen.h **** }
 102:c:\projects\paindrain\arduinolcd\test\pain drain\libraries\lvgl\src/core\lv_obj_style_gen.h **** 
 103:c:\projects\paindrain\arduinolcd\test\pain drain\libraries\lvgl\src/core\lv_obj_style_gen.h **** static inline lv_coord_t lv_obj_get_style_pad_top(const struct _lv_obj_t * obj, uint32_t part)
 104:c:\projects\paindrain\arduinolcd\test\pain drain\libraries\lvgl\src/core\lv_obj_style_gen.h **** {
 105:c:\projects\paindrain\arduinolcd\test\pain drain\libraries\lvgl\src/core\lv_obj_style_gen.h ****     lv_style_value_t v = lv_obj_get_style_prop(obj, part, LV_STYLE_PAD_TOP);
 106:c:\projects\paindrain\arduinolcd\test\pain drain\libraries\lvgl\src/core\lv_obj_style_gen.h ****     return (lv_coord_t)v.num;
 107:c:\projects\paindrain\arduinolcd\test\pain drain\libraries\lvgl\src/core\lv_obj_style_gen.h **** }
 108:c:\projects\paindrain\arduinolcd\test\pain drain\libraries\lvgl\src/core\lv_obj_style_gen.h **** 
 109:c:\projects\paindrain\arduinolcd\test\pain drain\libraries\lvgl\src/core\lv_obj_style_gen.h **** static inline lv_coord_t lv_obj_get_style_pad_bottom(const struct _lv_obj_t * obj, uint32_t part)
 110:c:\projects\paindrain\arduinolcd\test\pain drain\libraries\lvgl\src/core\lv_obj_style_gen.h **** {
 111:c:\projects\paindrain\arduinolcd\test\pain drain\libraries\lvgl\src/core\lv_obj_style_gen.h ****     lv_style_value_t v = lv_obj_get_style_prop(obj, part, LV_STYLE_PAD_BOTTOM);
 112:c:\projects\paindrain\arduinolcd\test\pain drain\libraries\lvgl\src/core\lv_obj_style_gen.h ****     return (lv_coord_t)v.num;
 113:c:\projects\paindrain\arduinolcd\test\pain drain\libraries\lvgl\src/core\lv_obj_style_gen.h **** }
 114:c:\projects\paindrain\arduinolcd\test\pain drain\libraries\lvgl\src/core\lv_obj_style_gen.h **** 
 115:c:\projects\paindrain\arduinolcd\test\pain drain\libraries\lvgl\src/core\lv_obj_style_gen.h **** static inline lv_coord_t lv_obj_get_style_pad_left(const struct _lv_obj_t * obj, uint32_t part)
 116:c:\projects\paindrain\arduinolcd\test\pain drain\libraries\lvgl\src/core\lv_obj_style_gen.h **** {
 117:c:\projects\paindrain\arduinolcd\test\pain drain\libraries\lvgl\src/core\lv_obj_style_gen.h ****     lv_style_value_t v = lv_obj_get_style_prop(obj, part, LV_STYLE_PAD_LEFT);
 118:c:\projects\paindrain\arduinolcd\test\pain drain\libraries\lvgl\src/core\lv_obj_style_gen.h ****     return (lv_coord_t)v.num;
 119:c:\projects\paindrain\arduinolcd\test\pain drain\libraries\lvgl\src/core\lv_obj_style_gen.h **** }
 120:c:\projects\paindrain\arduinolcd\test\pain drain\libraries\lvgl\src/core\lv_obj_style_gen.h **** 
 121:c:\projects\paindrain\arduinolcd\test\pain drain\libraries\lvgl\src/core\lv_obj_style_gen.h **** static inline lv_coord_t lv_obj_get_style_pad_right(const struct _lv_obj_t * obj, uint32_t part)
 122:c:\projects\paindrain\arduinolcd\test\pain drain\libraries\lvgl\src/core\lv_obj_style_gen.h **** {
 123:c:\projects\paindrain\arduinolcd\test\pain drain\libraries\lvgl\src/core\lv_obj_style_gen.h ****     lv_style_value_t v = lv_obj_get_style_prop(obj, part, LV_STYLE_PAD_RIGHT);
 124:c:\projects\paindrain\arduinolcd\test\pain drain\libraries\lvgl\src/core\lv_obj_style_gen.h ****     return (lv_coord_t)v.num;
ARM GAS  C:\Users\haske\AppData\Local\Temp\cc65HANE.s 			page 21


 125:c:\projects\paindrain\arduinolcd\test\pain drain\libraries\lvgl\src/core\lv_obj_style_gen.h **** }
 126:c:\projects\paindrain\arduinolcd\test\pain drain\libraries\lvgl\src/core\lv_obj_style_gen.h **** 
 127:c:\projects\paindrain\arduinolcd\test\pain drain\libraries\lvgl\src/core\lv_obj_style_gen.h **** static inline lv_coord_t lv_obj_get_style_pad_row(const struct _lv_obj_t * obj, uint32_t part)
 128:c:\projects\paindrain\arduinolcd\test\pain drain\libraries\lvgl\src/core\lv_obj_style_gen.h **** {
 129:c:\projects\paindrain\arduinolcd\test\pain drain\libraries\lvgl\src/core\lv_obj_style_gen.h ****     lv_style_value_t v = lv_obj_get_style_prop(obj, part, LV_STYLE_PAD_ROW);
 130:c:\projects\paindrain\arduinolcd\test\pain drain\libraries\lvgl\src/core\lv_obj_style_gen.h ****     return (lv_coord_t)v.num;
 131:c:\projects\paindrain\arduinolcd\test\pain drain\libraries\lvgl\src/core\lv_obj_style_gen.h **** }
 132:c:\projects\paindrain\arduinolcd\test\pain drain\libraries\lvgl\src/core\lv_obj_style_gen.h **** 
 133:c:\projects\paindrain\arduinolcd\test\pain drain\libraries\lvgl\src/core\lv_obj_style_gen.h **** static inline lv_coord_t lv_obj_get_style_pad_column(const struct _lv_obj_t * obj, uint32_t part)
 134:c:\projects\paindrain\arduinolcd\test\pain drain\libraries\lvgl\src/core\lv_obj_style_gen.h **** {
 135:c:\projects\paindrain\arduinolcd\test\pain drain\libraries\lvgl\src/core\lv_obj_style_gen.h ****     lv_style_value_t v = lv_obj_get_style_prop(obj, part, LV_STYLE_PAD_COLUMN);
 654              		.loc 2 135 0
 655 0030 0932     		adds	r2, r2, #9
 656 0032 0021     		movs	r1, #0
 657 0034 FFF7FEFF 		bl	lv_obj_get_style_prop
 658              	.LVL96:
 136:c:\projects\paindrain\arduinolcd\test\pain drain\libraries\lvgl\src/core\lv_obj_style_gen.h ****     return (lv_coord_t)v.num;
 659              		.loc 2 136 0
 660 0038 03B2     		sxth	r3, r0
 661 003a 9946     		mov	r9, r3
 662              	.LVL97:
 663              	.LBE22:
 664              	.LBE21:
 155:..\..\..\arduinoLCD\test\Pain Drain\libraries\lvgl\src\extra\widgets\tabview/lv_tabview.c ****         if(lv_obj_get_style_base_dir(obj, LV_PART_MAIN) != LV_BASE_DIR_RTL) {
 665              		.loc 1 155 0
 666 003c 3000     		movs	r0, r6
 667 003e FFF7FEFF 		bl	lv_obj_get_content_width
 668              	.LVL98:
 669 0042 0700     		movs	r7, r0
 670              	.LVL99:
 671              	.LBB23:
 672              	.LBB24:
 137:c:\projects\paindrain\arduinolcd\test\pain drain\libraries\lvgl\src/core\lv_obj_style_gen.h **** }
 138:c:\projects\paindrain\arduinolcd\test\pain drain\libraries\lvgl\src/core\lv_obj_style_gen.h **** 
 139:c:\projects\paindrain\arduinolcd\test\pain drain\libraries\lvgl\src/core\lv_obj_style_gen.h **** static inline lv_color_t lv_obj_get_style_bg_color(const struct _lv_obj_t * obj, uint32_t part)
 140:c:\projects\paindrain\arduinolcd\test\pain drain\libraries\lvgl\src/core\lv_obj_style_gen.h **** {
 141:c:\projects\paindrain\arduinolcd\test\pain drain\libraries\lvgl\src/core\lv_obj_style_gen.h ****     lv_style_value_t v = lv_obj_get_style_prop(obj, part, LV_STYLE_BG_COLOR);
 142:c:\projects\paindrain\arduinolcd\test\pain drain\libraries\lvgl\src/core\lv_obj_style_gen.h ****     return v.color;
 143:c:\projects\paindrain\arduinolcd\test\pain drain\libraries\lvgl\src/core\lv_obj_style_gen.h **** }
 144:c:\projects\paindrain\arduinolcd\test\pain drain\libraries\lvgl\src/core\lv_obj_style_gen.h **** 
 145:c:\projects\paindrain\arduinolcd\test\pain drain\libraries\lvgl\src/core\lv_obj_style_gen.h **** static inline lv_color_t lv_obj_get_style_bg_color_filtered(const struct _lv_obj_t * obj, uint32_t 
 146:c:\projects\paindrain\arduinolcd\test\pain drain\libraries\lvgl\src/core\lv_obj_style_gen.h **** {
 147:c:\projects\paindrain\arduinolcd\test\pain drain\libraries\lvgl\src/core\lv_obj_style_gen.h ****     lv_style_value_t v = _lv_obj_style_apply_color_filter(obj, part, lv_obj_get_style_prop(obj, par
 148:c:\projects\paindrain\arduinolcd\test\pain drain\libraries\lvgl\src/core\lv_obj_style_gen.h ****     return v.color;
 149:c:\projects\paindrain\arduinolcd\test\pain drain\libraries\lvgl\src/core\lv_obj_style_gen.h **** }
 150:c:\projects\paindrain\arduinolcd\test\pain drain\libraries\lvgl\src/core\lv_obj_style_gen.h **** 
 151:c:\projects\paindrain\arduinolcd\test\pain drain\libraries\lvgl\src/core\lv_obj_style_gen.h **** static inline lv_opa_t lv_obj_get_style_bg_opa(const struct _lv_obj_t * obj, uint32_t part)
 152:c:\projects\paindrain\arduinolcd\test\pain drain\libraries\lvgl\src/core\lv_obj_style_gen.h **** {
 153:c:\projects\paindrain\arduinolcd\test\pain drain\libraries\lvgl\src/core\lv_obj_style_gen.h ****     lv_style_value_t v = lv_obj_get_style_prop(obj, part, LV_STYLE_BG_OPA);
 154:c:\projects\paindrain\arduinolcd\test\pain drain\libraries\lvgl\src/core\lv_obj_style_gen.h ****     return (lv_opa_t)v.num;
 155:c:\projects\paindrain\arduinolcd\test\pain drain\libraries\lvgl\src/core\lv_obj_style_gen.h **** }
 156:c:\projects\paindrain\arduinolcd\test\pain drain\libraries\lvgl\src/core\lv_obj_style_gen.h **** 
 157:c:\projects\paindrain\arduinolcd\test\pain drain\libraries\lvgl\src/core\lv_obj_style_gen.h **** static inline lv_color_t lv_obj_get_style_bg_grad_color(const struct _lv_obj_t * obj, uint32_t part
 158:c:\projects\paindrain\arduinolcd\test\pain drain\libraries\lvgl\src/core\lv_obj_style_gen.h **** {
 159:c:\projects\paindrain\arduinolcd\test\pain drain\libraries\lvgl\src/core\lv_obj_style_gen.h ****     lv_style_value_t v = lv_obj_get_style_prop(obj, part, LV_STYLE_BG_GRAD_COLOR);
 160:c:\projects\paindrain\arduinolcd\test\pain drain\libraries\lvgl\src/core\lv_obj_style_gen.h ****     return v.color;
 161:c:\projects\paindrain\arduinolcd\test\pain drain\libraries\lvgl\src/core\lv_obj_style_gen.h **** }
ARM GAS  C:\Users\haske\AppData\Local\Temp\cc65HANE.s 			page 22


 162:c:\projects\paindrain\arduinolcd\test\pain drain\libraries\lvgl\src/core\lv_obj_style_gen.h **** 
 163:c:\projects\paindrain\arduinolcd\test\pain drain\libraries\lvgl\src/core\lv_obj_style_gen.h **** static inline lv_color_t lv_obj_get_style_bg_grad_color_filtered(const struct _lv_obj_t * obj, uint
 164:c:\projects\paindrain\arduinolcd\test\pain drain\libraries\lvgl\src/core\lv_obj_style_gen.h **** {
 165:c:\projects\paindrain\arduinolcd\test\pain drain\libraries\lvgl\src/core\lv_obj_style_gen.h ****     lv_style_value_t v = _lv_obj_style_apply_color_filter(obj, part, lv_obj_get_style_prop(obj, par
 166:c:\projects\paindrain\arduinolcd\test\pain drain\libraries\lvgl\src/core\lv_obj_style_gen.h ****     return v.color;
 167:c:\projects\paindrain\arduinolcd\test\pain drain\libraries\lvgl\src/core\lv_obj_style_gen.h **** }
 168:c:\projects\paindrain\arduinolcd\test\pain drain\libraries\lvgl\src/core\lv_obj_style_gen.h **** 
 169:c:\projects\paindrain\arduinolcd\test\pain drain\libraries\lvgl\src/core\lv_obj_style_gen.h **** static inline lv_grad_dir_t lv_obj_get_style_bg_grad_dir(const struct _lv_obj_t * obj, uint32_t par
 170:c:\projects\paindrain\arduinolcd\test\pain drain\libraries\lvgl\src/core\lv_obj_style_gen.h **** {
 171:c:\projects\paindrain\arduinolcd\test\pain drain\libraries\lvgl\src/core\lv_obj_style_gen.h ****     lv_style_value_t v = lv_obj_get_style_prop(obj, part, LV_STYLE_BG_GRAD_DIR);
 172:c:\projects\paindrain\arduinolcd\test\pain drain\libraries\lvgl\src/core\lv_obj_style_gen.h ****     return (lv_grad_dir_t)v.num;
 173:c:\projects\paindrain\arduinolcd\test\pain drain\libraries\lvgl\src/core\lv_obj_style_gen.h **** }
 174:c:\projects\paindrain\arduinolcd\test\pain drain\libraries\lvgl\src/core\lv_obj_style_gen.h **** 
 175:c:\projects\paindrain\arduinolcd\test\pain drain\libraries\lvgl\src/core\lv_obj_style_gen.h **** static inline lv_coord_t lv_obj_get_style_bg_main_stop(const struct _lv_obj_t * obj, uint32_t part)
 176:c:\projects\paindrain\arduinolcd\test\pain drain\libraries\lvgl\src/core\lv_obj_style_gen.h **** {
 177:c:\projects\paindrain\arduinolcd\test\pain drain\libraries\lvgl\src/core\lv_obj_style_gen.h ****     lv_style_value_t v = lv_obj_get_style_prop(obj, part, LV_STYLE_BG_MAIN_STOP);
 178:c:\projects\paindrain\arduinolcd\test\pain drain\libraries\lvgl\src/core\lv_obj_style_gen.h ****     return (lv_coord_t)v.num;
 179:c:\projects\paindrain\arduinolcd\test\pain drain\libraries\lvgl\src/core\lv_obj_style_gen.h **** }
 180:c:\projects\paindrain\arduinolcd\test\pain drain\libraries\lvgl\src/core\lv_obj_style_gen.h **** 
 181:c:\projects\paindrain\arduinolcd\test\pain drain\libraries\lvgl\src/core\lv_obj_style_gen.h **** static inline lv_coord_t lv_obj_get_style_bg_grad_stop(const struct _lv_obj_t * obj, uint32_t part)
 182:c:\projects\paindrain\arduinolcd\test\pain drain\libraries\lvgl\src/core\lv_obj_style_gen.h **** {
 183:c:\projects\paindrain\arduinolcd\test\pain drain\libraries\lvgl\src/core\lv_obj_style_gen.h ****     lv_style_value_t v = lv_obj_get_style_prop(obj, part, LV_STYLE_BG_GRAD_STOP);
 184:c:\projects\paindrain\arduinolcd\test\pain drain\libraries\lvgl\src/core\lv_obj_style_gen.h ****     return (lv_coord_t)v.num;
 185:c:\projects\paindrain\arduinolcd\test\pain drain\libraries\lvgl\src/core\lv_obj_style_gen.h **** }
 186:c:\projects\paindrain\arduinolcd\test\pain drain\libraries\lvgl\src/core\lv_obj_style_gen.h **** 
 187:c:\projects\paindrain\arduinolcd\test\pain drain\libraries\lvgl\src/core\lv_obj_style_gen.h **** static inline const lv_grad_dsc_t * lv_obj_get_style_bg_grad(const struct _lv_obj_t * obj, uint32_t
 188:c:\projects\paindrain\arduinolcd\test\pain drain\libraries\lvgl\src/core\lv_obj_style_gen.h **** {
 189:c:\projects\paindrain\arduinolcd\test\pain drain\libraries\lvgl\src/core\lv_obj_style_gen.h ****     lv_style_value_t v = lv_obj_get_style_prop(obj, part, LV_STYLE_BG_GRAD);
 190:c:\projects\paindrain\arduinolcd\test\pain drain\libraries\lvgl\src/core\lv_obj_style_gen.h ****     return (const lv_grad_dsc_t *)v.ptr;
 191:c:\projects\paindrain\arduinolcd\test\pain drain\libraries\lvgl\src/core\lv_obj_style_gen.h **** }
 192:c:\projects\paindrain\arduinolcd\test\pain drain\libraries\lvgl\src/core\lv_obj_style_gen.h **** 
 193:c:\projects\paindrain\arduinolcd\test\pain drain\libraries\lvgl\src/core\lv_obj_style_gen.h **** static inline lv_dither_mode_t lv_obj_get_style_bg_dither_mode(const struct _lv_obj_t * obj, uint32
 194:c:\projects\paindrain\arduinolcd\test\pain drain\libraries\lvgl\src/core\lv_obj_style_gen.h **** {
 195:c:\projects\paindrain\arduinolcd\test\pain drain\libraries\lvgl\src/core\lv_obj_style_gen.h ****     lv_style_value_t v = lv_obj_get_style_prop(obj, part, LV_STYLE_BG_DITHER_MODE);
 196:c:\projects\paindrain\arduinolcd\test\pain drain\libraries\lvgl\src/core\lv_obj_style_gen.h ****     return (lv_dither_mode_t)v.num;
 197:c:\projects\paindrain\arduinolcd\test\pain drain\libraries\lvgl\src/core\lv_obj_style_gen.h **** }
 198:c:\projects\paindrain\arduinolcd\test\pain drain\libraries\lvgl\src/core\lv_obj_style_gen.h **** 
 199:c:\projects\paindrain\arduinolcd\test\pain drain\libraries\lvgl\src/core\lv_obj_style_gen.h **** static inline const void * lv_obj_get_style_bg_img_src(const struct _lv_obj_t * obj, uint32_t part)
 200:c:\projects\paindrain\arduinolcd\test\pain drain\libraries\lvgl\src/core\lv_obj_style_gen.h **** {
 201:c:\projects\paindrain\arduinolcd\test\pain drain\libraries\lvgl\src/core\lv_obj_style_gen.h ****     lv_style_value_t v = lv_obj_get_style_prop(obj, part, LV_STYLE_BG_IMG_SRC);
 202:c:\projects\paindrain\arduinolcd\test\pain drain\libraries\lvgl\src/core\lv_obj_style_gen.h ****     return (const void *)v.ptr;
 203:c:\projects\paindrain\arduinolcd\test\pain drain\libraries\lvgl\src/core\lv_obj_style_gen.h **** }
 204:c:\projects\paindrain\arduinolcd\test\pain drain\libraries\lvgl\src/core\lv_obj_style_gen.h **** 
 205:c:\projects\paindrain\arduinolcd\test\pain drain\libraries\lvgl\src/core\lv_obj_style_gen.h **** static inline lv_opa_t lv_obj_get_style_bg_img_opa(const struct _lv_obj_t * obj, uint32_t part)
 206:c:\projects\paindrain\arduinolcd\test\pain drain\libraries\lvgl\src/core\lv_obj_style_gen.h **** {
 207:c:\projects\paindrain\arduinolcd\test\pain drain\libraries\lvgl\src/core\lv_obj_style_gen.h ****     lv_style_value_t v = lv_obj_get_style_prop(obj, part, LV_STYLE_BG_IMG_OPA);
 208:c:\projects\paindrain\arduinolcd\test\pain drain\libraries\lvgl\src/core\lv_obj_style_gen.h ****     return (lv_opa_t)v.num;
 209:c:\projects\paindrain\arduinolcd\test\pain drain\libraries\lvgl\src/core\lv_obj_style_gen.h **** }
 210:c:\projects\paindrain\arduinolcd\test\pain drain\libraries\lvgl\src/core\lv_obj_style_gen.h **** 
 211:c:\projects\paindrain\arduinolcd\test\pain drain\libraries\lvgl\src/core\lv_obj_style_gen.h **** static inline lv_color_t lv_obj_get_style_bg_img_recolor(const struct _lv_obj_t * obj, uint32_t par
 212:c:\projects\paindrain\arduinolcd\test\pain drain\libraries\lvgl\src/core\lv_obj_style_gen.h **** {
 213:c:\projects\paindrain\arduinolcd\test\pain drain\libraries\lvgl\src/core\lv_obj_style_gen.h ****     lv_style_value_t v = lv_obj_get_style_prop(obj, part, LV_STYLE_BG_IMG_RECOLOR);
 214:c:\projects\paindrain\arduinolcd\test\pain drain\libraries\lvgl\src/core\lv_obj_style_gen.h ****     return v.color;
 215:c:\projects\paindrain\arduinolcd\test\pain drain\libraries\lvgl\src/core\lv_obj_style_gen.h **** }
 216:c:\projects\paindrain\arduinolcd\test\pain drain\libraries\lvgl\src/core\lv_obj_style_gen.h **** 
 217:c:\projects\paindrain\arduinolcd\test\pain drain\libraries\lvgl\src/core\lv_obj_style_gen.h **** static inline lv_color_t lv_obj_get_style_bg_img_recolor_filtered(const struct _lv_obj_t * obj, uin
 218:c:\projects\paindrain\arduinolcd\test\pain drain\libraries\lvgl\src/core\lv_obj_style_gen.h **** {
ARM GAS  C:\Users\haske\AppData\Local\Temp\cc65HANE.s 			page 23


 219:c:\projects\paindrain\arduinolcd\test\pain drain\libraries\lvgl\src/core\lv_obj_style_gen.h ****     lv_style_value_t v = _lv_obj_style_apply_color_filter(obj, part, lv_obj_get_style_prop(obj, par
 220:c:\projects\paindrain\arduinolcd\test\pain drain\libraries\lvgl\src/core\lv_obj_style_gen.h ****     return v.color;
 221:c:\projects\paindrain\arduinolcd\test\pain drain\libraries\lvgl\src/core\lv_obj_style_gen.h **** }
 222:c:\projects\paindrain\arduinolcd\test\pain drain\libraries\lvgl\src/core\lv_obj_style_gen.h **** 
 223:c:\projects\paindrain\arduinolcd\test\pain drain\libraries\lvgl\src/core\lv_obj_style_gen.h **** static inline lv_opa_t lv_obj_get_style_bg_img_recolor_opa(const struct _lv_obj_t * obj, uint32_t p
 224:c:\projects\paindrain\arduinolcd\test\pain drain\libraries\lvgl\src/core\lv_obj_style_gen.h **** {
 225:c:\projects\paindrain\arduinolcd\test\pain drain\libraries\lvgl\src/core\lv_obj_style_gen.h ****     lv_style_value_t v = lv_obj_get_style_prop(obj, part, LV_STYLE_BG_IMG_RECOLOR_OPA);
 226:c:\projects\paindrain\arduinolcd\test\pain drain\libraries\lvgl\src/core\lv_obj_style_gen.h ****     return (lv_opa_t)v.num;
 227:c:\projects\paindrain\arduinolcd\test\pain drain\libraries\lvgl\src/core\lv_obj_style_gen.h **** }
 228:c:\projects\paindrain\arduinolcd\test\pain drain\libraries\lvgl\src/core\lv_obj_style_gen.h **** 
 229:c:\projects\paindrain\arduinolcd\test\pain drain\libraries\lvgl\src/core\lv_obj_style_gen.h **** static inline bool lv_obj_get_style_bg_img_tiled(const struct _lv_obj_t * obj, uint32_t part)
 230:c:\projects\paindrain\arduinolcd\test\pain drain\libraries\lvgl\src/core\lv_obj_style_gen.h **** {
 231:c:\projects\paindrain\arduinolcd\test\pain drain\libraries\lvgl\src/core\lv_obj_style_gen.h ****     lv_style_value_t v = lv_obj_get_style_prop(obj, part, LV_STYLE_BG_IMG_TILED);
 232:c:\projects\paindrain\arduinolcd\test\pain drain\libraries\lvgl\src/core\lv_obj_style_gen.h ****     return (bool)v.num;
 233:c:\projects\paindrain\arduinolcd\test\pain drain\libraries\lvgl\src/core\lv_obj_style_gen.h **** }
 234:c:\projects\paindrain\arduinolcd\test\pain drain\libraries\lvgl\src/core\lv_obj_style_gen.h **** 
 235:c:\projects\paindrain\arduinolcd\test\pain drain\libraries\lvgl\src/core\lv_obj_style_gen.h **** static inline lv_color_t lv_obj_get_style_border_color(const struct _lv_obj_t * obj, uint32_t part)
 236:c:\projects\paindrain\arduinolcd\test\pain drain\libraries\lvgl\src/core\lv_obj_style_gen.h **** {
 237:c:\projects\paindrain\arduinolcd\test\pain drain\libraries\lvgl\src/core\lv_obj_style_gen.h ****     lv_style_value_t v = lv_obj_get_style_prop(obj, part, LV_STYLE_BORDER_COLOR);
 238:c:\projects\paindrain\arduinolcd\test\pain drain\libraries\lvgl\src/core\lv_obj_style_gen.h ****     return v.color;
 239:c:\projects\paindrain\arduinolcd\test\pain drain\libraries\lvgl\src/core\lv_obj_style_gen.h **** }
 240:c:\projects\paindrain\arduinolcd\test\pain drain\libraries\lvgl\src/core\lv_obj_style_gen.h **** 
 241:c:\projects\paindrain\arduinolcd\test\pain drain\libraries\lvgl\src/core\lv_obj_style_gen.h **** static inline lv_color_t lv_obj_get_style_border_color_filtered(const struct _lv_obj_t * obj, uint3
 242:c:\projects\paindrain\arduinolcd\test\pain drain\libraries\lvgl\src/core\lv_obj_style_gen.h **** {
 243:c:\projects\paindrain\arduinolcd\test\pain drain\libraries\lvgl\src/core\lv_obj_style_gen.h ****     lv_style_value_t v = _lv_obj_style_apply_color_filter(obj, part, lv_obj_get_style_prop(obj, par
 244:c:\projects\paindrain\arduinolcd\test\pain drain\libraries\lvgl\src/core\lv_obj_style_gen.h ****     return v.color;
 245:c:\projects\paindrain\arduinolcd\test\pain drain\libraries\lvgl\src/core\lv_obj_style_gen.h **** }
 246:c:\projects\paindrain\arduinolcd\test\pain drain\libraries\lvgl\src/core\lv_obj_style_gen.h **** 
 247:c:\projects\paindrain\arduinolcd\test\pain drain\libraries\lvgl\src/core\lv_obj_style_gen.h **** static inline lv_opa_t lv_obj_get_style_border_opa(const struct _lv_obj_t * obj, uint32_t part)
 248:c:\projects\paindrain\arduinolcd\test\pain drain\libraries\lvgl\src/core\lv_obj_style_gen.h **** {
 249:c:\projects\paindrain\arduinolcd\test\pain drain\libraries\lvgl\src/core\lv_obj_style_gen.h ****     lv_style_value_t v = lv_obj_get_style_prop(obj, part, LV_STYLE_BORDER_OPA);
 250:c:\projects\paindrain\arduinolcd\test\pain drain\libraries\lvgl\src/core\lv_obj_style_gen.h ****     return (lv_opa_t)v.num;
 251:c:\projects\paindrain\arduinolcd\test\pain drain\libraries\lvgl\src/core\lv_obj_style_gen.h **** }
 252:c:\projects\paindrain\arduinolcd\test\pain drain\libraries\lvgl\src/core\lv_obj_style_gen.h **** 
 253:c:\projects\paindrain\arduinolcd\test\pain drain\libraries\lvgl\src/core\lv_obj_style_gen.h **** static inline lv_coord_t lv_obj_get_style_border_width(const struct _lv_obj_t * obj, uint32_t part)
 254:c:\projects\paindrain\arduinolcd\test\pain drain\libraries\lvgl\src/core\lv_obj_style_gen.h **** {
 255:c:\projects\paindrain\arduinolcd\test\pain drain\libraries\lvgl\src/core\lv_obj_style_gen.h ****     lv_style_value_t v = lv_obj_get_style_prop(obj, part, LV_STYLE_BORDER_WIDTH);
 256:c:\projects\paindrain\arduinolcd\test\pain drain\libraries\lvgl\src/core\lv_obj_style_gen.h ****     return (lv_coord_t)v.num;
 257:c:\projects\paindrain\arduinolcd\test\pain drain\libraries\lvgl\src/core\lv_obj_style_gen.h **** }
 258:c:\projects\paindrain\arduinolcd\test\pain drain\libraries\lvgl\src/core\lv_obj_style_gen.h **** 
 259:c:\projects\paindrain\arduinolcd\test\pain drain\libraries\lvgl\src/core\lv_obj_style_gen.h **** static inline lv_border_side_t lv_obj_get_style_border_side(const struct _lv_obj_t * obj, uint32_t 
 260:c:\projects\paindrain\arduinolcd\test\pain drain\libraries\lvgl\src/core\lv_obj_style_gen.h **** {
 261:c:\projects\paindrain\arduinolcd\test\pain drain\libraries\lvgl\src/core\lv_obj_style_gen.h ****     lv_style_value_t v = lv_obj_get_style_prop(obj, part, LV_STYLE_BORDER_SIDE);
 262:c:\projects\paindrain\arduinolcd\test\pain drain\libraries\lvgl\src/core\lv_obj_style_gen.h ****     return (lv_border_side_t)v.num;
 263:c:\projects\paindrain\arduinolcd\test\pain drain\libraries\lvgl\src/core\lv_obj_style_gen.h **** }
 264:c:\projects\paindrain\arduinolcd\test\pain drain\libraries\lvgl\src/core\lv_obj_style_gen.h **** 
 265:c:\projects\paindrain\arduinolcd\test\pain drain\libraries\lvgl\src/core\lv_obj_style_gen.h **** static inline bool lv_obj_get_style_border_post(const struct _lv_obj_t * obj, uint32_t part)
 266:c:\projects\paindrain\arduinolcd\test\pain drain\libraries\lvgl\src/core\lv_obj_style_gen.h **** {
 267:c:\projects\paindrain\arduinolcd\test\pain drain\libraries\lvgl\src/core\lv_obj_style_gen.h ****     lv_style_value_t v = lv_obj_get_style_prop(obj, part, LV_STYLE_BORDER_POST);
 268:c:\projects\paindrain\arduinolcd\test\pain drain\libraries\lvgl\src/core\lv_obj_style_gen.h ****     return (bool)v.num;
 269:c:\projects\paindrain\arduinolcd\test\pain drain\libraries\lvgl\src/core\lv_obj_style_gen.h **** }
 270:c:\projects\paindrain\arduinolcd\test\pain drain\libraries\lvgl\src/core\lv_obj_style_gen.h **** 
 271:c:\projects\paindrain\arduinolcd\test\pain drain\libraries\lvgl\src/core\lv_obj_style_gen.h **** static inline lv_coord_t lv_obj_get_style_outline_width(const struct _lv_obj_t * obj, uint32_t part
 272:c:\projects\paindrain\arduinolcd\test\pain drain\libraries\lvgl\src/core\lv_obj_style_gen.h **** {
 273:c:\projects\paindrain\arduinolcd\test\pain drain\libraries\lvgl\src/core\lv_obj_style_gen.h ****     lv_style_value_t v = lv_obj_get_style_prop(obj, part, LV_STYLE_OUTLINE_WIDTH);
 274:c:\projects\paindrain\arduinolcd\test\pain drain\libraries\lvgl\src/core\lv_obj_style_gen.h ****     return (lv_coord_t)v.num;
 275:c:\projects\paindrain\arduinolcd\test\pain drain\libraries\lvgl\src/core\lv_obj_style_gen.h **** }
ARM GAS  C:\Users\haske\AppData\Local\Temp\cc65HANE.s 			page 24


 276:c:\projects\paindrain\arduinolcd\test\pain drain\libraries\lvgl\src/core\lv_obj_style_gen.h **** 
 277:c:\projects\paindrain\arduinolcd\test\pain drain\libraries\lvgl\src/core\lv_obj_style_gen.h **** static inline lv_color_t lv_obj_get_style_outline_color(const struct _lv_obj_t * obj, uint32_t part
 278:c:\projects\paindrain\arduinolcd\test\pain drain\libraries\lvgl\src/core\lv_obj_style_gen.h **** {
 279:c:\projects\paindrain\arduinolcd\test\pain drain\libraries\lvgl\src/core\lv_obj_style_gen.h ****     lv_style_value_t v = lv_obj_get_style_prop(obj, part, LV_STYLE_OUTLINE_COLOR);
 280:c:\projects\paindrain\arduinolcd\test\pain drain\libraries\lvgl\src/core\lv_obj_style_gen.h ****     return v.color;
 281:c:\projects\paindrain\arduinolcd\test\pain drain\libraries\lvgl\src/core\lv_obj_style_gen.h **** }
 282:c:\projects\paindrain\arduinolcd\test\pain drain\libraries\lvgl\src/core\lv_obj_style_gen.h **** 
 283:c:\projects\paindrain\arduinolcd\test\pain drain\libraries\lvgl\src/core\lv_obj_style_gen.h **** static inline lv_color_t lv_obj_get_style_outline_color_filtered(const struct _lv_obj_t * obj, uint
 284:c:\projects\paindrain\arduinolcd\test\pain drain\libraries\lvgl\src/core\lv_obj_style_gen.h **** {
 285:c:\projects\paindrain\arduinolcd\test\pain drain\libraries\lvgl\src/core\lv_obj_style_gen.h ****     lv_style_value_t v = _lv_obj_style_apply_color_filter(obj, part, lv_obj_get_style_prop(obj, par
 286:c:\projects\paindrain\arduinolcd\test\pain drain\libraries\lvgl\src/core\lv_obj_style_gen.h ****     return v.color;
 287:c:\projects\paindrain\arduinolcd\test\pain drain\libraries\lvgl\src/core\lv_obj_style_gen.h **** }
 288:c:\projects\paindrain\arduinolcd\test\pain drain\libraries\lvgl\src/core\lv_obj_style_gen.h **** 
 289:c:\projects\paindrain\arduinolcd\test\pain drain\libraries\lvgl\src/core\lv_obj_style_gen.h **** static inline lv_opa_t lv_obj_get_style_outline_opa(const struct _lv_obj_t * obj, uint32_t part)
 290:c:\projects\paindrain\arduinolcd\test\pain drain\libraries\lvgl\src/core\lv_obj_style_gen.h **** {
 291:c:\projects\paindrain\arduinolcd\test\pain drain\libraries\lvgl\src/core\lv_obj_style_gen.h ****     lv_style_value_t v = lv_obj_get_style_prop(obj, part, LV_STYLE_OUTLINE_OPA);
 292:c:\projects\paindrain\arduinolcd\test\pain drain\libraries\lvgl\src/core\lv_obj_style_gen.h ****     return (lv_opa_t)v.num;
 293:c:\projects\paindrain\arduinolcd\test\pain drain\libraries\lvgl\src/core\lv_obj_style_gen.h **** }
 294:c:\projects\paindrain\arduinolcd\test\pain drain\libraries\lvgl\src/core\lv_obj_style_gen.h **** 
 295:c:\projects\paindrain\arduinolcd\test\pain drain\libraries\lvgl\src/core\lv_obj_style_gen.h **** static inline lv_coord_t lv_obj_get_style_outline_pad(const struct _lv_obj_t * obj, uint32_t part)
 296:c:\projects\paindrain\arduinolcd\test\pain drain\libraries\lvgl\src/core\lv_obj_style_gen.h **** {
 297:c:\projects\paindrain\arduinolcd\test\pain drain\libraries\lvgl\src/core\lv_obj_style_gen.h ****     lv_style_value_t v = lv_obj_get_style_prop(obj, part, LV_STYLE_OUTLINE_PAD);
 298:c:\projects\paindrain\arduinolcd\test\pain drain\libraries\lvgl\src/core\lv_obj_style_gen.h ****     return (lv_coord_t)v.num;
 299:c:\projects\paindrain\arduinolcd\test\pain drain\libraries\lvgl\src/core\lv_obj_style_gen.h **** }
 300:c:\projects\paindrain\arduinolcd\test\pain drain\libraries\lvgl\src/core\lv_obj_style_gen.h **** 
 301:c:\projects\paindrain\arduinolcd\test\pain drain\libraries\lvgl\src/core\lv_obj_style_gen.h **** static inline lv_coord_t lv_obj_get_style_shadow_width(const struct _lv_obj_t * obj, uint32_t part)
 302:c:\projects\paindrain\arduinolcd\test\pain drain\libraries\lvgl\src/core\lv_obj_style_gen.h **** {
 303:c:\projects\paindrain\arduinolcd\test\pain drain\libraries\lvgl\src/core\lv_obj_style_gen.h ****     lv_style_value_t v = lv_obj_get_style_prop(obj, part, LV_STYLE_SHADOW_WIDTH);
 304:c:\projects\paindrain\arduinolcd\test\pain drain\libraries\lvgl\src/core\lv_obj_style_gen.h ****     return (lv_coord_t)v.num;
 305:c:\projects\paindrain\arduinolcd\test\pain drain\libraries\lvgl\src/core\lv_obj_style_gen.h **** }
 306:c:\projects\paindrain\arduinolcd\test\pain drain\libraries\lvgl\src/core\lv_obj_style_gen.h **** 
 307:c:\projects\paindrain\arduinolcd\test\pain drain\libraries\lvgl\src/core\lv_obj_style_gen.h **** static inline lv_coord_t lv_obj_get_style_shadow_ofs_x(const struct _lv_obj_t * obj, uint32_t part)
 308:c:\projects\paindrain\arduinolcd\test\pain drain\libraries\lvgl\src/core\lv_obj_style_gen.h **** {
 309:c:\projects\paindrain\arduinolcd\test\pain drain\libraries\lvgl\src/core\lv_obj_style_gen.h ****     lv_style_value_t v = lv_obj_get_style_prop(obj, part, LV_STYLE_SHADOW_OFS_X);
 310:c:\projects\paindrain\arduinolcd\test\pain drain\libraries\lvgl\src/core\lv_obj_style_gen.h ****     return (lv_coord_t)v.num;
 311:c:\projects\paindrain\arduinolcd\test\pain drain\libraries\lvgl\src/core\lv_obj_style_gen.h **** }
 312:c:\projects\paindrain\arduinolcd\test\pain drain\libraries\lvgl\src/core\lv_obj_style_gen.h **** 
 313:c:\projects\paindrain\arduinolcd\test\pain drain\libraries\lvgl\src/core\lv_obj_style_gen.h **** static inline lv_coord_t lv_obj_get_style_shadow_ofs_y(const struct _lv_obj_t * obj, uint32_t part)
 314:c:\projects\paindrain\arduinolcd\test\pain drain\libraries\lvgl\src/core\lv_obj_style_gen.h **** {
 315:c:\projects\paindrain\arduinolcd\test\pain drain\libraries\lvgl\src/core\lv_obj_style_gen.h ****     lv_style_value_t v = lv_obj_get_style_prop(obj, part, LV_STYLE_SHADOW_OFS_Y);
 316:c:\projects\paindrain\arduinolcd\test\pain drain\libraries\lvgl\src/core\lv_obj_style_gen.h ****     return (lv_coord_t)v.num;
 317:c:\projects\paindrain\arduinolcd\test\pain drain\libraries\lvgl\src/core\lv_obj_style_gen.h **** }
 318:c:\projects\paindrain\arduinolcd\test\pain drain\libraries\lvgl\src/core\lv_obj_style_gen.h **** 
 319:c:\projects\paindrain\arduinolcd\test\pain drain\libraries\lvgl\src/core\lv_obj_style_gen.h **** static inline lv_coord_t lv_obj_get_style_shadow_spread(const struct _lv_obj_t * obj, uint32_t part
 320:c:\projects\paindrain\arduinolcd\test\pain drain\libraries\lvgl\src/core\lv_obj_style_gen.h **** {
 321:c:\projects\paindrain\arduinolcd\test\pain drain\libraries\lvgl\src/core\lv_obj_style_gen.h ****     lv_style_value_t v = lv_obj_get_style_prop(obj, part, LV_STYLE_SHADOW_SPREAD);
 322:c:\projects\paindrain\arduinolcd\test\pain drain\libraries\lvgl\src/core\lv_obj_style_gen.h ****     return (lv_coord_t)v.num;
 323:c:\projects\paindrain\arduinolcd\test\pain drain\libraries\lvgl\src/core\lv_obj_style_gen.h **** }
 324:c:\projects\paindrain\arduinolcd\test\pain drain\libraries\lvgl\src/core\lv_obj_style_gen.h **** 
 325:c:\projects\paindrain\arduinolcd\test\pain drain\libraries\lvgl\src/core\lv_obj_style_gen.h **** static inline lv_color_t lv_obj_get_style_shadow_color(const struct _lv_obj_t * obj, uint32_t part)
 326:c:\projects\paindrain\arduinolcd\test\pain drain\libraries\lvgl\src/core\lv_obj_style_gen.h **** {
 327:c:\projects\paindrain\arduinolcd\test\pain drain\libraries\lvgl\src/core\lv_obj_style_gen.h ****     lv_style_value_t v = lv_obj_get_style_prop(obj, part, LV_STYLE_SHADOW_COLOR);
 328:c:\projects\paindrain\arduinolcd\test\pain drain\libraries\lvgl\src/core\lv_obj_style_gen.h ****     return v.color;
 329:c:\projects\paindrain\arduinolcd\test\pain drain\libraries\lvgl\src/core\lv_obj_style_gen.h **** }
 330:c:\projects\paindrain\arduinolcd\test\pain drain\libraries\lvgl\src/core\lv_obj_style_gen.h **** 
 331:c:\projects\paindrain\arduinolcd\test\pain drain\libraries\lvgl\src/core\lv_obj_style_gen.h **** static inline lv_color_t lv_obj_get_style_shadow_color_filtered(const struct _lv_obj_t * obj, uint3
 332:c:\projects\paindrain\arduinolcd\test\pain drain\libraries\lvgl\src/core\lv_obj_style_gen.h **** {
ARM GAS  C:\Users\haske\AppData\Local\Temp\cc65HANE.s 			page 25


 333:c:\projects\paindrain\arduinolcd\test\pain drain\libraries\lvgl\src/core\lv_obj_style_gen.h ****     lv_style_value_t v = _lv_obj_style_apply_color_filter(obj, part, lv_obj_get_style_prop(obj, par
 334:c:\projects\paindrain\arduinolcd\test\pain drain\libraries\lvgl\src/core\lv_obj_style_gen.h ****     return v.color;
 335:c:\projects\paindrain\arduinolcd\test\pain drain\libraries\lvgl\src/core\lv_obj_style_gen.h **** }
 336:c:\projects\paindrain\arduinolcd\test\pain drain\libraries\lvgl\src/core\lv_obj_style_gen.h **** 
 337:c:\projects\paindrain\arduinolcd\test\pain drain\libraries\lvgl\src/core\lv_obj_style_gen.h **** static inline lv_opa_t lv_obj_get_style_shadow_opa(const struct _lv_obj_t * obj, uint32_t part)
 338:c:\projects\paindrain\arduinolcd\test\pain drain\libraries\lvgl\src/core\lv_obj_style_gen.h **** {
 339:c:\projects\paindrain\arduinolcd\test\pain drain\libraries\lvgl\src/core\lv_obj_style_gen.h ****     lv_style_value_t v = lv_obj_get_style_prop(obj, part, LV_STYLE_SHADOW_OPA);
 340:c:\projects\paindrain\arduinolcd\test\pain drain\libraries\lvgl\src/core\lv_obj_style_gen.h ****     return (lv_opa_t)v.num;
 341:c:\projects\paindrain\arduinolcd\test\pain drain\libraries\lvgl\src/core\lv_obj_style_gen.h **** }
 342:c:\projects\paindrain\arduinolcd\test\pain drain\libraries\lvgl\src/core\lv_obj_style_gen.h **** 
 343:c:\projects\paindrain\arduinolcd\test\pain drain\libraries\lvgl\src/core\lv_obj_style_gen.h **** static inline lv_opa_t lv_obj_get_style_img_opa(const struct _lv_obj_t * obj, uint32_t part)
 344:c:\projects\paindrain\arduinolcd\test\pain drain\libraries\lvgl\src/core\lv_obj_style_gen.h **** {
 345:c:\projects\paindrain\arduinolcd\test\pain drain\libraries\lvgl\src/core\lv_obj_style_gen.h ****     lv_style_value_t v = lv_obj_get_style_prop(obj, part, LV_STYLE_IMG_OPA);
 346:c:\projects\paindrain\arduinolcd\test\pain drain\libraries\lvgl\src/core\lv_obj_style_gen.h ****     return (lv_opa_t)v.num;
 347:c:\projects\paindrain\arduinolcd\test\pain drain\libraries\lvgl\src/core\lv_obj_style_gen.h **** }
 348:c:\projects\paindrain\arduinolcd\test\pain drain\libraries\lvgl\src/core\lv_obj_style_gen.h **** 
 349:c:\projects\paindrain\arduinolcd\test\pain drain\libraries\lvgl\src/core\lv_obj_style_gen.h **** static inline lv_color_t lv_obj_get_style_img_recolor(const struct _lv_obj_t * obj, uint32_t part)
 350:c:\projects\paindrain\arduinolcd\test\pain drain\libraries\lvgl\src/core\lv_obj_style_gen.h **** {
 351:c:\projects\paindrain\arduinolcd\test\pain drain\libraries\lvgl\src/core\lv_obj_style_gen.h ****     lv_style_value_t v = lv_obj_get_style_prop(obj, part, LV_STYLE_IMG_RECOLOR);
 352:c:\projects\paindrain\arduinolcd\test\pain drain\libraries\lvgl\src/core\lv_obj_style_gen.h ****     return v.color;
 353:c:\projects\paindrain\arduinolcd\test\pain drain\libraries\lvgl\src/core\lv_obj_style_gen.h **** }
 354:c:\projects\paindrain\arduinolcd\test\pain drain\libraries\lvgl\src/core\lv_obj_style_gen.h **** 
 355:c:\projects\paindrain\arduinolcd\test\pain drain\libraries\lvgl\src/core\lv_obj_style_gen.h **** static inline lv_color_t lv_obj_get_style_img_recolor_filtered(const struct _lv_obj_t * obj, uint32
 356:c:\projects\paindrain\arduinolcd\test\pain drain\libraries\lvgl\src/core\lv_obj_style_gen.h **** {
 357:c:\projects\paindrain\arduinolcd\test\pain drain\libraries\lvgl\src/core\lv_obj_style_gen.h ****     lv_style_value_t v = _lv_obj_style_apply_color_filter(obj, part, lv_obj_get_style_prop(obj, par
 358:c:\projects\paindrain\arduinolcd\test\pain drain\libraries\lvgl\src/core\lv_obj_style_gen.h ****     return v.color;
 359:c:\projects\paindrain\arduinolcd\test\pain drain\libraries\lvgl\src/core\lv_obj_style_gen.h **** }
 360:c:\projects\paindrain\arduinolcd\test\pain drain\libraries\lvgl\src/core\lv_obj_style_gen.h **** 
 361:c:\projects\paindrain\arduinolcd\test\pain drain\libraries\lvgl\src/core\lv_obj_style_gen.h **** static inline lv_opa_t lv_obj_get_style_img_recolor_opa(const struct _lv_obj_t * obj, uint32_t part
 362:c:\projects\paindrain\arduinolcd\test\pain drain\libraries\lvgl\src/core\lv_obj_style_gen.h **** {
 363:c:\projects\paindrain\arduinolcd\test\pain drain\libraries\lvgl\src/core\lv_obj_style_gen.h ****     lv_style_value_t v = lv_obj_get_style_prop(obj, part, LV_STYLE_IMG_RECOLOR_OPA);
 364:c:\projects\paindrain\arduinolcd\test\pain drain\libraries\lvgl\src/core\lv_obj_style_gen.h ****     return (lv_opa_t)v.num;
 365:c:\projects\paindrain\arduinolcd\test\pain drain\libraries\lvgl\src/core\lv_obj_style_gen.h **** }
 366:c:\projects\paindrain\arduinolcd\test\pain drain\libraries\lvgl\src/core\lv_obj_style_gen.h **** 
 367:c:\projects\paindrain\arduinolcd\test\pain drain\libraries\lvgl\src/core\lv_obj_style_gen.h **** static inline lv_coord_t lv_obj_get_style_line_width(const struct _lv_obj_t * obj, uint32_t part)
 368:c:\projects\paindrain\arduinolcd\test\pain drain\libraries\lvgl\src/core\lv_obj_style_gen.h **** {
 369:c:\projects\paindrain\arduinolcd\test\pain drain\libraries\lvgl\src/core\lv_obj_style_gen.h ****     lv_style_value_t v = lv_obj_get_style_prop(obj, part, LV_STYLE_LINE_WIDTH);
 370:c:\projects\paindrain\arduinolcd\test\pain drain\libraries\lvgl\src/core\lv_obj_style_gen.h ****     return (lv_coord_t)v.num;
 371:c:\projects\paindrain\arduinolcd\test\pain drain\libraries\lvgl\src/core\lv_obj_style_gen.h **** }
 372:c:\projects\paindrain\arduinolcd\test\pain drain\libraries\lvgl\src/core\lv_obj_style_gen.h **** 
 373:c:\projects\paindrain\arduinolcd\test\pain drain\libraries\lvgl\src/core\lv_obj_style_gen.h **** static inline lv_coord_t lv_obj_get_style_line_dash_width(const struct _lv_obj_t * obj, uint32_t pa
 374:c:\projects\paindrain\arduinolcd\test\pain drain\libraries\lvgl\src/core\lv_obj_style_gen.h **** {
 375:c:\projects\paindrain\arduinolcd\test\pain drain\libraries\lvgl\src/core\lv_obj_style_gen.h ****     lv_style_value_t v = lv_obj_get_style_prop(obj, part, LV_STYLE_LINE_DASH_WIDTH);
 376:c:\projects\paindrain\arduinolcd\test\pain drain\libraries\lvgl\src/core\lv_obj_style_gen.h ****     return (lv_coord_t)v.num;
 377:c:\projects\paindrain\arduinolcd\test\pain drain\libraries\lvgl\src/core\lv_obj_style_gen.h **** }
 378:c:\projects\paindrain\arduinolcd\test\pain drain\libraries\lvgl\src/core\lv_obj_style_gen.h **** 
 379:c:\projects\paindrain\arduinolcd\test\pain drain\libraries\lvgl\src/core\lv_obj_style_gen.h **** static inline lv_coord_t lv_obj_get_style_line_dash_gap(const struct _lv_obj_t * obj, uint32_t part
 380:c:\projects\paindrain\arduinolcd\test\pain drain\libraries\lvgl\src/core\lv_obj_style_gen.h **** {
 381:c:\projects\paindrain\arduinolcd\test\pain drain\libraries\lvgl\src/core\lv_obj_style_gen.h ****     lv_style_value_t v = lv_obj_get_style_prop(obj, part, LV_STYLE_LINE_DASH_GAP);
 382:c:\projects\paindrain\arduinolcd\test\pain drain\libraries\lvgl\src/core\lv_obj_style_gen.h ****     return (lv_coord_t)v.num;
 383:c:\projects\paindrain\arduinolcd\test\pain drain\libraries\lvgl\src/core\lv_obj_style_gen.h **** }
 384:c:\projects\paindrain\arduinolcd\test\pain drain\libraries\lvgl\src/core\lv_obj_style_gen.h **** 
 385:c:\projects\paindrain\arduinolcd\test\pain drain\libraries\lvgl\src/core\lv_obj_style_gen.h **** static inline bool lv_obj_get_style_line_rounded(const struct _lv_obj_t * obj, uint32_t part)
 386:c:\projects\paindrain\arduinolcd\test\pain drain\libraries\lvgl\src/core\lv_obj_style_gen.h **** {
 387:c:\projects\paindrain\arduinolcd\test\pain drain\libraries\lvgl\src/core\lv_obj_style_gen.h ****     lv_style_value_t v = lv_obj_get_style_prop(obj, part, LV_STYLE_LINE_ROUNDED);
 388:c:\projects\paindrain\arduinolcd\test\pain drain\libraries\lvgl\src/core\lv_obj_style_gen.h ****     return (bool)v.num;
 389:c:\projects\paindrain\arduinolcd\test\pain drain\libraries\lvgl\src/core\lv_obj_style_gen.h **** }
ARM GAS  C:\Users\haske\AppData\Local\Temp\cc65HANE.s 			page 26


 390:c:\projects\paindrain\arduinolcd\test\pain drain\libraries\lvgl\src/core\lv_obj_style_gen.h **** 
 391:c:\projects\paindrain\arduinolcd\test\pain drain\libraries\lvgl\src/core\lv_obj_style_gen.h **** static inline lv_color_t lv_obj_get_style_line_color(const struct _lv_obj_t * obj, uint32_t part)
 392:c:\projects\paindrain\arduinolcd\test\pain drain\libraries\lvgl\src/core\lv_obj_style_gen.h **** {
 393:c:\projects\paindrain\arduinolcd\test\pain drain\libraries\lvgl\src/core\lv_obj_style_gen.h ****     lv_style_value_t v = lv_obj_get_style_prop(obj, part, LV_STYLE_LINE_COLOR);
 394:c:\projects\paindrain\arduinolcd\test\pain drain\libraries\lvgl\src/core\lv_obj_style_gen.h ****     return v.color;
 395:c:\projects\paindrain\arduinolcd\test\pain drain\libraries\lvgl\src/core\lv_obj_style_gen.h **** }
 396:c:\projects\paindrain\arduinolcd\test\pain drain\libraries\lvgl\src/core\lv_obj_style_gen.h **** 
 397:c:\projects\paindrain\arduinolcd\test\pain drain\libraries\lvgl\src/core\lv_obj_style_gen.h **** static inline lv_color_t lv_obj_get_style_line_color_filtered(const struct _lv_obj_t * obj, uint32_
 398:c:\projects\paindrain\arduinolcd\test\pain drain\libraries\lvgl\src/core\lv_obj_style_gen.h **** {
 399:c:\projects\paindrain\arduinolcd\test\pain drain\libraries\lvgl\src/core\lv_obj_style_gen.h ****     lv_style_value_t v = _lv_obj_style_apply_color_filter(obj, part, lv_obj_get_style_prop(obj, par
 400:c:\projects\paindrain\arduinolcd\test\pain drain\libraries\lvgl\src/core\lv_obj_style_gen.h ****     return v.color;
 401:c:\projects\paindrain\arduinolcd\test\pain drain\libraries\lvgl\src/core\lv_obj_style_gen.h **** }
 402:c:\projects\paindrain\arduinolcd\test\pain drain\libraries\lvgl\src/core\lv_obj_style_gen.h **** 
 403:c:\projects\paindrain\arduinolcd\test\pain drain\libraries\lvgl\src/core\lv_obj_style_gen.h **** static inline lv_opa_t lv_obj_get_style_line_opa(const struct _lv_obj_t * obj, uint32_t part)
 404:c:\projects\paindrain\arduinolcd\test\pain drain\libraries\lvgl\src/core\lv_obj_style_gen.h **** {
 405:c:\projects\paindrain\arduinolcd\test\pain drain\libraries\lvgl\src/core\lv_obj_style_gen.h ****     lv_style_value_t v = lv_obj_get_style_prop(obj, part, LV_STYLE_LINE_OPA);
 406:c:\projects\paindrain\arduinolcd\test\pain drain\libraries\lvgl\src/core\lv_obj_style_gen.h ****     return (lv_opa_t)v.num;
 407:c:\projects\paindrain\arduinolcd\test\pain drain\libraries\lvgl\src/core\lv_obj_style_gen.h **** }
 408:c:\projects\paindrain\arduinolcd\test\pain drain\libraries\lvgl\src/core\lv_obj_style_gen.h **** 
 409:c:\projects\paindrain\arduinolcd\test\pain drain\libraries\lvgl\src/core\lv_obj_style_gen.h **** static inline lv_coord_t lv_obj_get_style_arc_width(const struct _lv_obj_t * obj, uint32_t part)
 410:c:\projects\paindrain\arduinolcd\test\pain drain\libraries\lvgl\src/core\lv_obj_style_gen.h **** {
 411:c:\projects\paindrain\arduinolcd\test\pain drain\libraries\lvgl\src/core\lv_obj_style_gen.h ****     lv_style_value_t v = lv_obj_get_style_prop(obj, part, LV_STYLE_ARC_WIDTH);
 412:c:\projects\paindrain\arduinolcd\test\pain drain\libraries\lvgl\src/core\lv_obj_style_gen.h ****     return (lv_coord_t)v.num;
 413:c:\projects\paindrain\arduinolcd\test\pain drain\libraries\lvgl\src/core\lv_obj_style_gen.h **** }
 414:c:\projects\paindrain\arduinolcd\test\pain drain\libraries\lvgl\src/core\lv_obj_style_gen.h **** 
 415:c:\projects\paindrain\arduinolcd\test\pain drain\libraries\lvgl\src/core\lv_obj_style_gen.h **** static inline bool lv_obj_get_style_arc_rounded(const struct _lv_obj_t * obj, uint32_t part)
 416:c:\projects\paindrain\arduinolcd\test\pain drain\libraries\lvgl\src/core\lv_obj_style_gen.h **** {
 417:c:\projects\paindrain\arduinolcd\test\pain drain\libraries\lvgl\src/core\lv_obj_style_gen.h ****     lv_style_value_t v = lv_obj_get_style_prop(obj, part, LV_STYLE_ARC_ROUNDED);
 418:c:\projects\paindrain\arduinolcd\test\pain drain\libraries\lvgl\src/core\lv_obj_style_gen.h ****     return (bool)v.num;
 419:c:\projects\paindrain\arduinolcd\test\pain drain\libraries\lvgl\src/core\lv_obj_style_gen.h **** }
 420:c:\projects\paindrain\arduinolcd\test\pain drain\libraries\lvgl\src/core\lv_obj_style_gen.h **** 
 421:c:\projects\paindrain\arduinolcd\test\pain drain\libraries\lvgl\src/core\lv_obj_style_gen.h **** static inline lv_color_t lv_obj_get_style_arc_color(const struct _lv_obj_t * obj, uint32_t part)
 422:c:\projects\paindrain\arduinolcd\test\pain drain\libraries\lvgl\src/core\lv_obj_style_gen.h **** {
 423:c:\projects\paindrain\arduinolcd\test\pain drain\libraries\lvgl\src/core\lv_obj_style_gen.h ****     lv_style_value_t v = lv_obj_get_style_prop(obj, part, LV_STYLE_ARC_COLOR);
 424:c:\projects\paindrain\arduinolcd\test\pain drain\libraries\lvgl\src/core\lv_obj_style_gen.h ****     return v.color;
 425:c:\projects\paindrain\arduinolcd\test\pain drain\libraries\lvgl\src/core\lv_obj_style_gen.h **** }
 426:c:\projects\paindrain\arduinolcd\test\pain drain\libraries\lvgl\src/core\lv_obj_style_gen.h **** 
 427:c:\projects\paindrain\arduinolcd\test\pain drain\libraries\lvgl\src/core\lv_obj_style_gen.h **** static inline lv_color_t lv_obj_get_style_arc_color_filtered(const struct _lv_obj_t * obj, uint32_t
 428:c:\projects\paindrain\arduinolcd\test\pain drain\libraries\lvgl\src/core\lv_obj_style_gen.h **** {
 429:c:\projects\paindrain\arduinolcd\test\pain drain\libraries\lvgl\src/core\lv_obj_style_gen.h ****     lv_style_value_t v = _lv_obj_style_apply_color_filter(obj, part, lv_obj_get_style_prop(obj, par
 430:c:\projects\paindrain\arduinolcd\test\pain drain\libraries\lvgl\src/core\lv_obj_style_gen.h ****     return v.color;
 431:c:\projects\paindrain\arduinolcd\test\pain drain\libraries\lvgl\src/core\lv_obj_style_gen.h **** }
 432:c:\projects\paindrain\arduinolcd\test\pain drain\libraries\lvgl\src/core\lv_obj_style_gen.h **** 
 433:c:\projects\paindrain\arduinolcd\test\pain drain\libraries\lvgl\src/core\lv_obj_style_gen.h **** static inline lv_opa_t lv_obj_get_style_arc_opa(const struct _lv_obj_t * obj, uint32_t part)
 434:c:\projects\paindrain\arduinolcd\test\pain drain\libraries\lvgl\src/core\lv_obj_style_gen.h **** {
 435:c:\projects\paindrain\arduinolcd\test\pain drain\libraries\lvgl\src/core\lv_obj_style_gen.h ****     lv_style_value_t v = lv_obj_get_style_prop(obj, part, LV_STYLE_ARC_OPA);
 436:c:\projects\paindrain\arduinolcd\test\pain drain\libraries\lvgl\src/core\lv_obj_style_gen.h ****     return (lv_opa_t)v.num;
 437:c:\projects\paindrain\arduinolcd\test\pain drain\libraries\lvgl\src/core\lv_obj_style_gen.h **** }
 438:c:\projects\paindrain\arduinolcd\test\pain drain\libraries\lvgl\src/core\lv_obj_style_gen.h **** 
 439:c:\projects\paindrain\arduinolcd\test\pain drain\libraries\lvgl\src/core\lv_obj_style_gen.h **** static inline const void * lv_obj_get_style_arc_img_src(const struct _lv_obj_t * obj, uint32_t part
 440:c:\projects\paindrain\arduinolcd\test\pain drain\libraries\lvgl\src/core\lv_obj_style_gen.h **** {
 441:c:\projects\paindrain\arduinolcd\test\pain drain\libraries\lvgl\src/core\lv_obj_style_gen.h ****     lv_style_value_t v = lv_obj_get_style_prop(obj, part, LV_STYLE_ARC_IMG_SRC);
 442:c:\projects\paindrain\arduinolcd\test\pain drain\libraries\lvgl\src/core\lv_obj_style_gen.h ****     return (const void *)v.ptr;
 443:c:\projects\paindrain\arduinolcd\test\pain drain\libraries\lvgl\src/core\lv_obj_style_gen.h **** }
 444:c:\projects\paindrain\arduinolcd\test\pain drain\libraries\lvgl\src/core\lv_obj_style_gen.h **** 
 445:c:\projects\paindrain\arduinolcd\test\pain drain\libraries\lvgl\src/core\lv_obj_style_gen.h **** static inline lv_color_t lv_obj_get_style_text_color(const struct _lv_obj_t * obj, uint32_t part)
 446:c:\projects\paindrain\arduinolcd\test\pain drain\libraries\lvgl\src/core\lv_obj_style_gen.h **** {
ARM GAS  C:\Users\haske\AppData\Local\Temp\cc65HANE.s 			page 27


 447:c:\projects\paindrain\arduinolcd\test\pain drain\libraries\lvgl\src/core\lv_obj_style_gen.h ****     lv_style_value_t v = lv_obj_get_style_prop(obj, part, LV_STYLE_TEXT_COLOR);
 448:c:\projects\paindrain\arduinolcd\test\pain drain\libraries\lvgl\src/core\lv_obj_style_gen.h ****     return v.color;
 449:c:\projects\paindrain\arduinolcd\test\pain drain\libraries\lvgl\src/core\lv_obj_style_gen.h **** }
 450:c:\projects\paindrain\arduinolcd\test\pain drain\libraries\lvgl\src/core\lv_obj_style_gen.h **** 
 451:c:\projects\paindrain\arduinolcd\test\pain drain\libraries\lvgl\src/core\lv_obj_style_gen.h **** static inline lv_color_t lv_obj_get_style_text_color_filtered(const struct _lv_obj_t * obj, uint32_
 452:c:\projects\paindrain\arduinolcd\test\pain drain\libraries\lvgl\src/core\lv_obj_style_gen.h **** {
 453:c:\projects\paindrain\arduinolcd\test\pain drain\libraries\lvgl\src/core\lv_obj_style_gen.h ****     lv_style_value_t v = _lv_obj_style_apply_color_filter(obj, part, lv_obj_get_style_prop(obj, par
 454:c:\projects\paindrain\arduinolcd\test\pain drain\libraries\lvgl\src/core\lv_obj_style_gen.h ****     return v.color;
 455:c:\projects\paindrain\arduinolcd\test\pain drain\libraries\lvgl\src/core\lv_obj_style_gen.h **** }
 456:c:\projects\paindrain\arduinolcd\test\pain drain\libraries\lvgl\src/core\lv_obj_style_gen.h **** 
 457:c:\projects\paindrain\arduinolcd\test\pain drain\libraries\lvgl\src/core\lv_obj_style_gen.h **** static inline lv_opa_t lv_obj_get_style_text_opa(const struct _lv_obj_t * obj, uint32_t part)
 458:c:\projects\paindrain\arduinolcd\test\pain drain\libraries\lvgl\src/core\lv_obj_style_gen.h **** {
 459:c:\projects\paindrain\arduinolcd\test\pain drain\libraries\lvgl\src/core\lv_obj_style_gen.h ****     lv_style_value_t v = lv_obj_get_style_prop(obj, part, LV_STYLE_TEXT_OPA);
 460:c:\projects\paindrain\arduinolcd\test\pain drain\libraries\lvgl\src/core\lv_obj_style_gen.h ****     return (lv_opa_t)v.num;
 461:c:\projects\paindrain\arduinolcd\test\pain drain\libraries\lvgl\src/core\lv_obj_style_gen.h **** }
 462:c:\projects\paindrain\arduinolcd\test\pain drain\libraries\lvgl\src/core\lv_obj_style_gen.h **** 
 463:c:\projects\paindrain\arduinolcd\test\pain drain\libraries\lvgl\src/core\lv_obj_style_gen.h **** static inline const lv_font_t * lv_obj_get_style_text_font(const struct _lv_obj_t * obj, uint32_t p
 464:c:\projects\paindrain\arduinolcd\test\pain drain\libraries\lvgl\src/core\lv_obj_style_gen.h **** {
 465:c:\projects\paindrain\arduinolcd\test\pain drain\libraries\lvgl\src/core\lv_obj_style_gen.h ****     lv_style_value_t v = lv_obj_get_style_prop(obj, part, LV_STYLE_TEXT_FONT);
 466:c:\projects\paindrain\arduinolcd\test\pain drain\libraries\lvgl\src/core\lv_obj_style_gen.h ****     return (const lv_font_t *)v.ptr;
 467:c:\projects\paindrain\arduinolcd\test\pain drain\libraries\lvgl\src/core\lv_obj_style_gen.h **** }
 468:c:\projects\paindrain\arduinolcd\test\pain drain\libraries\lvgl\src/core\lv_obj_style_gen.h **** 
 469:c:\projects\paindrain\arduinolcd\test\pain drain\libraries\lvgl\src/core\lv_obj_style_gen.h **** static inline lv_coord_t lv_obj_get_style_text_letter_space(const struct _lv_obj_t * obj, uint32_t 
 470:c:\projects\paindrain\arduinolcd\test\pain drain\libraries\lvgl\src/core\lv_obj_style_gen.h **** {
 471:c:\projects\paindrain\arduinolcd\test\pain drain\libraries\lvgl\src/core\lv_obj_style_gen.h ****     lv_style_value_t v = lv_obj_get_style_prop(obj, part, LV_STYLE_TEXT_LETTER_SPACE);
 472:c:\projects\paindrain\arduinolcd\test\pain drain\libraries\lvgl\src/core\lv_obj_style_gen.h ****     return (lv_coord_t)v.num;
 473:c:\projects\paindrain\arduinolcd\test\pain drain\libraries\lvgl\src/core\lv_obj_style_gen.h **** }
 474:c:\projects\paindrain\arduinolcd\test\pain drain\libraries\lvgl\src/core\lv_obj_style_gen.h **** 
 475:c:\projects\paindrain\arduinolcd\test\pain drain\libraries\lvgl\src/core\lv_obj_style_gen.h **** static inline lv_coord_t lv_obj_get_style_text_line_space(const struct _lv_obj_t * obj, uint32_t pa
 476:c:\projects\paindrain\arduinolcd\test\pain drain\libraries\lvgl\src/core\lv_obj_style_gen.h **** {
 477:c:\projects\paindrain\arduinolcd\test\pain drain\libraries\lvgl\src/core\lv_obj_style_gen.h ****     lv_style_value_t v = lv_obj_get_style_prop(obj, part, LV_STYLE_TEXT_LINE_SPACE);
 478:c:\projects\paindrain\arduinolcd\test\pain drain\libraries\lvgl\src/core\lv_obj_style_gen.h ****     return (lv_coord_t)v.num;
 479:c:\projects\paindrain\arduinolcd\test\pain drain\libraries\lvgl\src/core\lv_obj_style_gen.h **** }
 480:c:\projects\paindrain\arduinolcd\test\pain drain\libraries\lvgl\src/core\lv_obj_style_gen.h **** 
 481:c:\projects\paindrain\arduinolcd\test\pain drain\libraries\lvgl\src/core\lv_obj_style_gen.h **** static inline lv_text_decor_t lv_obj_get_style_text_decor(const struct _lv_obj_t * obj, uint32_t pa
 482:c:\projects\paindrain\arduinolcd\test\pain drain\libraries\lvgl\src/core\lv_obj_style_gen.h **** {
 483:c:\projects\paindrain\arduinolcd\test\pain drain\libraries\lvgl\src/core\lv_obj_style_gen.h ****     lv_style_value_t v = lv_obj_get_style_prop(obj, part, LV_STYLE_TEXT_DECOR);
 484:c:\projects\paindrain\arduinolcd\test\pain drain\libraries\lvgl\src/core\lv_obj_style_gen.h ****     return (lv_text_decor_t)v.num;
 485:c:\projects\paindrain\arduinolcd\test\pain drain\libraries\lvgl\src/core\lv_obj_style_gen.h **** }
 486:c:\projects\paindrain\arduinolcd\test\pain drain\libraries\lvgl\src/core\lv_obj_style_gen.h **** 
 487:c:\projects\paindrain\arduinolcd\test\pain drain\libraries\lvgl\src/core\lv_obj_style_gen.h **** static inline lv_text_align_t lv_obj_get_style_text_align(const struct _lv_obj_t * obj, uint32_t pa
 488:c:\projects\paindrain\arduinolcd\test\pain drain\libraries\lvgl\src/core\lv_obj_style_gen.h **** {
 489:c:\projects\paindrain\arduinolcd\test\pain drain\libraries\lvgl\src/core\lv_obj_style_gen.h ****     lv_style_value_t v = lv_obj_get_style_prop(obj, part, LV_STYLE_TEXT_ALIGN);
 490:c:\projects\paindrain\arduinolcd\test\pain drain\libraries\lvgl\src/core\lv_obj_style_gen.h ****     return (lv_text_align_t)v.num;
 491:c:\projects\paindrain\arduinolcd\test\pain drain\libraries\lvgl\src/core\lv_obj_style_gen.h **** }
 492:c:\projects\paindrain\arduinolcd\test\pain drain\libraries\lvgl\src/core\lv_obj_style_gen.h **** 
 493:c:\projects\paindrain\arduinolcd\test\pain drain\libraries\lvgl\src/core\lv_obj_style_gen.h **** static inline lv_coord_t lv_obj_get_style_radius(const struct _lv_obj_t * obj, uint32_t part)
 494:c:\projects\paindrain\arduinolcd\test\pain drain\libraries\lvgl\src/core\lv_obj_style_gen.h **** {
 495:c:\projects\paindrain\arduinolcd\test\pain drain\libraries\lvgl\src/core\lv_obj_style_gen.h ****     lv_style_value_t v = lv_obj_get_style_prop(obj, part, LV_STYLE_RADIUS);
 496:c:\projects\paindrain\arduinolcd\test\pain drain\libraries\lvgl\src/core\lv_obj_style_gen.h ****     return (lv_coord_t)v.num;
 497:c:\projects\paindrain\arduinolcd\test\pain drain\libraries\lvgl\src/core\lv_obj_style_gen.h **** }
 498:c:\projects\paindrain\arduinolcd\test\pain drain\libraries\lvgl\src/core\lv_obj_style_gen.h **** 
 499:c:\projects\paindrain\arduinolcd\test\pain drain\libraries\lvgl\src/core\lv_obj_style_gen.h **** static inline bool lv_obj_get_style_clip_corner(const struct _lv_obj_t * obj, uint32_t part)
 500:c:\projects\paindrain\arduinolcd\test\pain drain\libraries\lvgl\src/core\lv_obj_style_gen.h **** {
 501:c:\projects\paindrain\arduinolcd\test\pain drain\libraries\lvgl\src/core\lv_obj_style_gen.h ****     lv_style_value_t v = lv_obj_get_style_prop(obj, part, LV_STYLE_CLIP_CORNER);
 502:c:\projects\paindrain\arduinolcd\test\pain drain\libraries\lvgl\src/core\lv_obj_style_gen.h ****     return (bool)v.num;
 503:c:\projects\paindrain\arduinolcd\test\pain drain\libraries\lvgl\src/core\lv_obj_style_gen.h **** }
ARM GAS  C:\Users\haske\AppData\Local\Temp\cc65HANE.s 			page 28


 504:c:\projects\paindrain\arduinolcd\test\pain drain\libraries\lvgl\src/core\lv_obj_style_gen.h **** 
 505:c:\projects\paindrain\arduinolcd\test\pain drain\libraries\lvgl\src/core\lv_obj_style_gen.h **** static inline lv_opa_t lv_obj_get_style_opa(const struct _lv_obj_t * obj, uint32_t part)
 506:c:\projects\paindrain\arduinolcd\test\pain drain\libraries\lvgl\src/core\lv_obj_style_gen.h **** {
 507:c:\projects\paindrain\arduinolcd\test\pain drain\libraries\lvgl\src/core\lv_obj_style_gen.h ****     lv_style_value_t v = lv_obj_get_style_prop(obj, part, LV_STYLE_OPA);
 508:c:\projects\paindrain\arduinolcd\test\pain drain\libraries\lvgl\src/core\lv_obj_style_gen.h ****     return (lv_opa_t)v.num;
 509:c:\projects\paindrain\arduinolcd\test\pain drain\libraries\lvgl\src/core\lv_obj_style_gen.h **** }
 510:c:\projects\paindrain\arduinolcd\test\pain drain\libraries\lvgl\src/core\lv_obj_style_gen.h **** 
 511:c:\projects\paindrain\arduinolcd\test\pain drain\libraries\lvgl\src/core\lv_obj_style_gen.h **** static inline const lv_color_filter_dsc_t * lv_obj_get_style_color_filter_dsc(const struct _lv_obj_
 512:c:\projects\paindrain\arduinolcd\test\pain drain\libraries\lvgl\src/core\lv_obj_style_gen.h **** {
 513:c:\projects\paindrain\arduinolcd\test\pain drain\libraries\lvgl\src/core\lv_obj_style_gen.h ****     lv_style_value_t v = lv_obj_get_style_prop(obj, part, LV_STYLE_COLOR_FILTER_DSC);
 514:c:\projects\paindrain\arduinolcd\test\pain drain\libraries\lvgl\src/core\lv_obj_style_gen.h ****     return (const lv_color_filter_dsc_t *)v.ptr;
 515:c:\projects\paindrain\arduinolcd\test\pain drain\libraries\lvgl\src/core\lv_obj_style_gen.h **** }
 516:c:\projects\paindrain\arduinolcd\test\pain drain\libraries\lvgl\src/core\lv_obj_style_gen.h **** 
 517:c:\projects\paindrain\arduinolcd\test\pain drain\libraries\lvgl\src/core\lv_obj_style_gen.h **** static inline lv_opa_t lv_obj_get_style_color_filter_opa(const struct _lv_obj_t * obj, uint32_t par
 518:c:\projects\paindrain\arduinolcd\test\pain drain\libraries\lvgl\src/core\lv_obj_style_gen.h **** {
 519:c:\projects\paindrain\arduinolcd\test\pain drain\libraries\lvgl\src/core\lv_obj_style_gen.h ****     lv_style_value_t v = lv_obj_get_style_prop(obj, part, LV_STYLE_COLOR_FILTER_OPA);
 520:c:\projects\paindrain\arduinolcd\test\pain drain\libraries\lvgl\src/core\lv_obj_style_gen.h ****     return (lv_opa_t)v.num;
 521:c:\projects\paindrain\arduinolcd\test\pain drain\libraries\lvgl\src/core\lv_obj_style_gen.h **** }
 522:c:\projects\paindrain\arduinolcd\test\pain drain\libraries\lvgl\src/core\lv_obj_style_gen.h **** 
 523:c:\projects\paindrain\arduinolcd\test\pain drain\libraries\lvgl\src/core\lv_obj_style_gen.h **** static inline const lv_anim_t * lv_obj_get_style_anim(const struct _lv_obj_t * obj, uint32_t part)
 524:c:\projects\paindrain\arduinolcd\test\pain drain\libraries\lvgl\src/core\lv_obj_style_gen.h **** {
 525:c:\projects\paindrain\arduinolcd\test\pain drain\libraries\lvgl\src/core\lv_obj_style_gen.h ****     lv_style_value_t v = lv_obj_get_style_prop(obj, part, LV_STYLE_ANIM);
 526:c:\projects\paindrain\arduinolcd\test\pain drain\libraries\lvgl\src/core\lv_obj_style_gen.h ****     return (const lv_anim_t *)v.ptr;
 527:c:\projects\paindrain\arduinolcd\test\pain drain\libraries\lvgl\src/core\lv_obj_style_gen.h **** }
 528:c:\projects\paindrain\arduinolcd\test\pain drain\libraries\lvgl\src/core\lv_obj_style_gen.h **** 
 529:c:\projects\paindrain\arduinolcd\test\pain drain\libraries\lvgl\src/core\lv_obj_style_gen.h **** static inline uint32_t lv_obj_get_style_anim_time(const struct _lv_obj_t * obj, uint32_t part)
 530:c:\projects\paindrain\arduinolcd\test\pain drain\libraries\lvgl\src/core\lv_obj_style_gen.h **** {
 531:c:\projects\paindrain\arduinolcd\test\pain drain\libraries\lvgl\src/core\lv_obj_style_gen.h ****     lv_style_value_t v = lv_obj_get_style_prop(obj, part, LV_STYLE_ANIM_TIME);
 532:c:\projects\paindrain\arduinolcd\test\pain drain\libraries\lvgl\src/core\lv_obj_style_gen.h ****     return (uint32_t)v.num;
 533:c:\projects\paindrain\arduinolcd\test\pain drain\libraries\lvgl\src/core\lv_obj_style_gen.h **** }
 534:c:\projects\paindrain\arduinolcd\test\pain drain\libraries\lvgl\src/core\lv_obj_style_gen.h **** 
 535:c:\projects\paindrain\arduinolcd\test\pain drain\libraries\lvgl\src/core\lv_obj_style_gen.h **** static inline uint32_t lv_obj_get_style_anim_speed(const struct _lv_obj_t * obj, uint32_t part)
 536:c:\projects\paindrain\arduinolcd\test\pain drain\libraries\lvgl\src/core\lv_obj_style_gen.h **** {
 537:c:\projects\paindrain\arduinolcd\test\pain drain\libraries\lvgl\src/core\lv_obj_style_gen.h ****     lv_style_value_t v = lv_obj_get_style_prop(obj, part, LV_STYLE_ANIM_SPEED);
 538:c:\projects\paindrain\arduinolcd\test\pain drain\libraries\lvgl\src/core\lv_obj_style_gen.h ****     return (uint32_t)v.num;
 539:c:\projects\paindrain\arduinolcd\test\pain drain\libraries\lvgl\src/core\lv_obj_style_gen.h **** }
 540:c:\projects\paindrain\arduinolcd\test\pain drain\libraries\lvgl\src/core\lv_obj_style_gen.h **** 
 541:c:\projects\paindrain\arduinolcd\test\pain drain\libraries\lvgl\src/core\lv_obj_style_gen.h **** static inline const lv_style_transition_dsc_t * lv_obj_get_style_transition(const struct _lv_obj_t 
 542:c:\projects\paindrain\arduinolcd\test\pain drain\libraries\lvgl\src/core\lv_obj_style_gen.h **** {
 543:c:\projects\paindrain\arduinolcd\test\pain drain\libraries\lvgl\src/core\lv_obj_style_gen.h ****     lv_style_value_t v = lv_obj_get_style_prop(obj, part, LV_STYLE_TRANSITION);
 544:c:\projects\paindrain\arduinolcd\test\pain drain\libraries\lvgl\src/core\lv_obj_style_gen.h ****     return (const lv_style_transition_dsc_t *)v.ptr;
 545:c:\projects\paindrain\arduinolcd\test\pain drain\libraries\lvgl\src/core\lv_obj_style_gen.h **** }
 546:c:\projects\paindrain\arduinolcd\test\pain drain\libraries\lvgl\src/core\lv_obj_style_gen.h **** 
 547:c:\projects\paindrain\arduinolcd\test\pain drain\libraries\lvgl\src/core\lv_obj_style_gen.h **** static inline lv_blend_mode_t lv_obj_get_style_blend_mode(const struct _lv_obj_t * obj, uint32_t pa
 548:c:\projects\paindrain\arduinolcd\test\pain drain\libraries\lvgl\src/core\lv_obj_style_gen.h **** {
 549:c:\projects\paindrain\arduinolcd\test\pain drain\libraries\lvgl\src/core\lv_obj_style_gen.h ****     lv_style_value_t v = lv_obj_get_style_prop(obj, part, LV_STYLE_BLEND_MODE);
 550:c:\projects\paindrain\arduinolcd\test\pain drain\libraries\lvgl\src/core\lv_obj_style_gen.h ****     return (lv_blend_mode_t)v.num;
 551:c:\projects\paindrain\arduinolcd\test\pain drain\libraries\lvgl\src/core\lv_obj_style_gen.h **** }
 552:c:\projects\paindrain\arduinolcd\test\pain drain\libraries\lvgl\src/core\lv_obj_style_gen.h **** 
 553:c:\projects\paindrain\arduinolcd\test\pain drain\libraries\lvgl\src/core\lv_obj_style_gen.h **** static inline uint16_t lv_obj_get_style_layout(const struct _lv_obj_t * obj, uint32_t part)
 554:c:\projects\paindrain\arduinolcd\test\pain drain\libraries\lvgl\src/core\lv_obj_style_gen.h **** {
 555:c:\projects\paindrain\arduinolcd\test\pain drain\libraries\lvgl\src/core\lv_obj_style_gen.h ****     lv_style_value_t v = lv_obj_get_style_prop(obj, part, LV_STYLE_LAYOUT);
 556:c:\projects\paindrain\arduinolcd\test\pain drain\libraries\lvgl\src/core\lv_obj_style_gen.h ****     return (uint16_t)v.num;
 557:c:\projects\paindrain\arduinolcd\test\pain drain\libraries\lvgl\src/core\lv_obj_style_gen.h **** }
 558:c:\projects\paindrain\arduinolcd\test\pain drain\libraries\lvgl\src/core\lv_obj_style_gen.h **** 
 559:c:\projects\paindrain\arduinolcd\test\pain drain\libraries\lvgl\src/core\lv_obj_style_gen.h **** static inline lv_base_dir_t lv_obj_get_style_base_dir(const struct _lv_obj_t * obj, uint32_t part)
 560:c:\projects\paindrain\arduinolcd\test\pain drain\libraries\lvgl\src/core\lv_obj_style_gen.h **** {
ARM GAS  C:\Users\haske\AppData\Local\Temp\cc65HANE.s 			page 29


 561:c:\projects\paindrain\arduinolcd\test\pain drain\libraries\lvgl\src/core\lv_obj_style_gen.h ****     lv_style_value_t v = lv_obj_get_style_prop(obj, part, LV_STYLE_BASE_DIR);
 673              		.loc 2 561 0
 674 0044 1622     		movs	r2, #22
 675 0046 0021     		movs	r1, #0
 676 0048 2000     		movs	r0, r4
 677 004a FFF7FEFF 		bl	lv_obj_get_style_prop
 678              	.LVL100:
 562:c:\projects\paindrain\arduinolcd\test\pain drain\libraries\lvgl\src/core\lv_obj_style_gen.h ****     return (lv_base_dir_t)v.num;
 679              		.loc 2 562 0
 680 004e C0B2     		uxtb	r0, r0
 681              	.LVL101:
 682              	.LBE24:
 683              	.LBE23:
 156:..\..\..\arduinoLCD\test\Pain Drain\libraries\lvgl\src\extra\widgets\tabview/lv_tabview.c ****             lv_obj_scroll_to_x(cont, id * (gap + w), anim_en);
 684              		.loc 1 156 0
 685 0050 0128     		cmp	r0, #1
 686 0052 08D0     		beq	.L40
 157:..\..\..\arduinoLCD\test\Pain Drain\libraries\lvgl\src\extra\widgets\tabview/lv_tabview.c ****         }
 687              		.loc 1 157 0
 688 0054 3900     		movs	r1, r7
 689 0056 4944     		add	r1, r1, r9
 690 0058 6943     		muls	r1, r5
 691 005a 09B2     		sxth	r1, r1
 692 005c 019A     		ldr	r2, [sp, #4]
 693 005e 3000     		movs	r0, r6
 694 0060 FFF7FEFF 		bl	lv_obj_scroll_to_x
 695              	.LVL102:
 696 0064 18E0     		b	.L41
 697              	.L40:
 698              	.LBB25:
 160:..\..\..\arduinoLCD\test\Pain Drain\libraries\lvgl\src\extra\widgets\tabview/lv_tabview.c ****             lv_obj_scroll_to_x(cont, (gap + w) * id_rtl, anim_en);
 699              		.loc 1 160 0
 700 0066 6842     		rsbs	r0, r5, #0
 161:..\..\..\arduinoLCD\test\Pain Drain\libraries\lvgl\src\extra\widgets\tabview/lv_tabview.c ****         }
 701              		.loc 1 161 0
 702 0068 3900     		movs	r1, r7
 703 006a 4944     		add	r1, r1, r9
 704 006c 4143     		muls	r1, r0
 705 006e 09B2     		sxth	r1, r1
 706 0070 019A     		ldr	r2, [sp, #4]
 707 0072 3000     		movs	r0, r6
 708 0074 FFF7FEFF 		bl	lv_obj_scroll_to_x
 709              	.LVL103:
 710 0078 0EE0     		b	.L41
 711              	.LVL104:
 712              	.L39:
 713              	.LBE25:
 714              	.LBE20:
 715              	.LBB26:
 716              	.LBB27:
 717              	.LBB28:
 129:c:\projects\paindrain\arduinolcd\test\pain drain\libraries\lvgl\src/core\lv_obj_style_gen.h ****     return (lv_coord_t)v.num;
 718              		.loc 2 129 0
 719 007a 1422     		movs	r2, #20
 720 007c 0021     		movs	r1, #0
 721 007e FFF7FEFF 		bl	lv_obj_get_style_prop
 722              	.LVL105:
ARM GAS  C:\Users\haske\AppData\Local\Temp\cc65HANE.s 			page 30


 130:c:\projects\paindrain\arduinolcd\test\pain drain\libraries\lvgl\src/core\lv_obj_style_gen.h **** }
 723              		.loc 2 130 0
 724 0082 07B2     		sxth	r7, r0
 725              	.LVL106:
 726              	.LBE28:
 727              	.LBE27:
 166:..\..\..\arduinoLCD\test\Pain Drain\libraries\lvgl\src\extra\widgets\tabview/lv_tabview.c ****         lv_obj_scroll_to_y(cont, id * (gap + h), anim_en);
 728              		.loc 1 166 0
 729 0084 3000     		movs	r0, r6
 730 0086 FFF7FEFF 		bl	lv_obj_get_content_height
 731              	.LVL107:
 167:..\..\..\arduinoLCD\test\Pain Drain\libraries\lvgl\src\extra\widgets\tabview/lv_tabview.c ****     }
 732              		.loc 1 167 0
 733 008a 3918     		adds	r1, r7, r0
 734 008c 6943     		muls	r1, r5
 735 008e 09B2     		sxth	r1, r1
 736 0090 019A     		ldr	r2, [sp, #4]
 737 0092 3000     		movs	r0, r6
 738              	.LVL108:
 739 0094 FFF7FEFF 		bl	lv_obj_scroll_to_y
 740              	.LVL109:
 741              	.L41:
 742              	.LBE26:
 170:..\..\..\arduinoLCD\test\Pain Drain\libraries\lvgl\src\extra\widgets\tabview/lv_tabview.c ****     lv_btnmatrix_set_btn_ctrl(btns, id, LV_BTNMATRIX_CTRL_CHECKED);
 743              		.loc 1 170 0
 744 0098 2000     		movs	r0, r4
 745 009a FFF7FEFF 		bl	lv_tabview_get_tab_btns
 746              	.LVL110:
 171:..\..\..\arduinoLCD\test\Pain Drain\libraries\lvgl\src\extra\widgets\tabview/lv_tabview.c ****     tabview->tab_cur = id;
 747              		.loc 1 171 0
 748 009e ADB2     		uxth	r5, r5
 749              	.LVL111:
 750 00a0 8022     		movs	r2, #128
 751 00a2 2900     		movs	r1, r5
 752 00a4 FFF7FEFF 		bl	lv_btnmatrix_set_btn_ctrl
 753              	.LVL112:
 172:..\..\..\arduinoLCD\test\Pain Drain\libraries\lvgl\src\extra\widgets\tabview/lv_tabview.c **** }
 754              		.loc 1 172 0
 755 00a8 6585     		strh	r5, [r4, #42]
 756              	.L36:
 173:..\..\..\arduinoLCD\test\Pain Drain\libraries\lvgl\src\extra\widgets\tabview/lv_tabview.c **** 
 757              		.loc 1 173 0
 758 00aa 02B0     		add	sp, sp, #8
 759              		@ sp needed
 760              	.LVL113:
 761              	.LVL114:
 762 00ac 04BC     		pop	{r2}
 763 00ae 9146     		mov	r9, r2
 764 00b0 F0BD     		pop	{r4, r5, r6, r7, pc}
 765              		.cfi_endproc
 766              	.LFE205:
 767              		.size	lv_tabview_set_act, .-lv_tabview_set_act
 768 00b2 C046     		.section	.text.lv_tabview_event,"ax",%progbits
 769              		.align	2
 770              		.code	16
 771              		.thumb_func
 772              		.type	lv_tabview_event, %function
ARM GAS  C:\Users\haske\AppData\Local\Temp\cc65HANE.s 			page 31


 773              	lv_tabview_event:
 774              	.LFB211:
 289:..\..\..\arduinoLCD\test\Pain Drain\libraries\lvgl\src\extra\widgets\tabview/lv_tabview.c **** 
 290:..\..\..\arduinoLCD\test\Pain Drain\libraries\lvgl\src\extra\widgets\tabview/lv_tabview.c **** static void lv_tabview_event(const lv_obj_class_t * class_p, lv_event_t * e)
 291:..\..\..\arduinoLCD\test\Pain Drain\libraries\lvgl\src\extra\widgets\tabview/lv_tabview.c **** {
 775              		.loc 1 291 0
 776              		.cfi_startproc
 777              		@ args = 0, pretend = 0, frame = 0
 778              		@ frame_needed = 0, uses_anonymous_args = 0
 779              	.LVL115:
 780 0000 70B5     		push	{r4, r5, r6, lr}
 781              		.cfi_def_cfa_offset 16
 782              		.cfi_offset 4, -16
 783              		.cfi_offset 5, -12
 784              		.cfi_offset 6, -8
 785              		.cfi_offset 14, -4
 786 0002 0C00     		movs	r4, r1
 292:..\..\..\arduinoLCD\test\Pain Drain\libraries\lvgl\src\extra\widgets\tabview/lv_tabview.c ****     LV_UNUSED(class_p);
 293:..\..\..\arduinoLCD\test\Pain Drain\libraries\lvgl\src\extra\widgets\tabview/lv_tabview.c ****     lv_res_t res = lv_obj_event_base(&lv_tabview_class, e);
 787              		.loc 1 293 0
 788 0004 0B48     		ldr	r0, .L44
 789              	.LVL116:
 790 0006 FFF7FEFF 		bl	lv_obj_event_base
 791              	.LVL117:
 294:..\..\..\arduinoLCD\test\Pain Drain\libraries\lvgl\src\extra\widgets\tabview/lv_tabview.c ****     if(res != LV_RES_OK) return;
 792              		.loc 1 294 0
 793 000a 0128     		cmp	r0, #1
 794 000c 10D1     		bne	.L42
 295:..\..\..\arduinoLCD\test\Pain Drain\libraries\lvgl\src\extra\widgets\tabview/lv_tabview.c **** 
 296:..\..\..\arduinoLCD\test\Pain Drain\libraries\lvgl\src\extra\widgets\tabview/lv_tabview.c ****     lv_event_code_t code = lv_event_get_code(e);
 795              		.loc 1 296 0
 796 000e 2000     		movs	r0, r4
 797              	.LVL118:
 798 0010 FFF7FEFF 		bl	lv_event_get_code
 799              	.LVL119:
 800 0014 0500     		movs	r5, r0
 801              	.LVL120:
 297:..\..\..\arduinoLCD\test\Pain Drain\libraries\lvgl\src\extra\widgets\tabview/lv_tabview.c ****     lv_obj_t * target = lv_event_get_target(e);
 802              		.loc 1 297 0
 803 0016 2000     		movs	r0, r4
 804 0018 FFF7FEFF 		bl	lv_event_get_target
 805              	.LVL121:
 806 001c 0400     		movs	r4, r0
 807              	.LVL122:
 298:..\..\..\arduinoLCD\test\Pain Drain\libraries\lvgl\src\extra\widgets\tabview/lv_tabview.c **** 
 299:..\..\..\arduinoLCD\test\Pain Drain\libraries\lvgl\src\extra\widgets\tabview/lv_tabview.c ****     if(code == LV_EVENT_SIZE_CHANGED) {
 808              		.loc 1 299 0
 809 001e 292D     		cmp	r5, #41
 810 0020 06D1     		bne	.L42
 300:..\..\..\arduinoLCD\test\Pain Drain\libraries\lvgl\src\extra\widgets\tabview/lv_tabview.c ****         lv_tabview_set_act(target, lv_tabview_get_tab_act(target), LV_ANIM_OFF);
 811              		.loc 1 300 0
 812 0022 FFF7FEFF 		bl	lv_tabview_get_tab_act
 813              	.LVL123:
 814 0026 0100     		movs	r1, r0
 815 0028 0022     		movs	r2, #0
 816 002a 2000     		movs	r0, r4
 817 002c FFF7FEFF 		bl	lv_tabview_set_act
ARM GAS  C:\Users\haske\AppData\Local\Temp\cc65HANE.s 			page 32


 818              	.LVL124:
 819              	.L42:
 301:..\..\..\arduinoLCD\test\Pain Drain\libraries\lvgl\src\extra\widgets\tabview/lv_tabview.c ****     }
 302:..\..\..\arduinoLCD\test\Pain Drain\libraries\lvgl\src\extra\widgets\tabview/lv_tabview.c **** }
 820              		.loc 1 302 0
 821              		@ sp needed
 822 0030 70BD     		pop	{r4, r5, r6, pc}
 823              	.L45:
 824 0032 C046     		.align	2
 825              	.L44:
 826 0034 00000000 		.word	.LANCHOR1
 827              		.cfi_endproc
 828              	.LFE211:
 829              		.size	lv_tabview_event, .-lv_tabview_event
 830              		.global	__aeabi_idiv
 831              		.section	.text.cont_scroll_end_event_cb,"ax",%progbits
 832              		.align	2
 833              		.code	16
 834              		.thumb_func
 835              		.type	cont_scroll_end_event_cb, %function
 836              	cont_scroll_end_event_cb:
 837              	.LFB213:
 303:..\..\..\arduinoLCD\test\Pain Drain\libraries\lvgl\src\extra\widgets\tabview/lv_tabview.c **** 
 304:..\..\..\arduinoLCD\test\Pain Drain\libraries\lvgl\src\extra\widgets\tabview/lv_tabview.c **** 
 305:..\..\..\arduinoLCD\test\Pain Drain\libraries\lvgl\src\extra\widgets\tabview/lv_tabview.c **** static void btns_value_changed_event_cb(lv_event_t * e)
 306:..\..\..\arduinoLCD\test\Pain Drain\libraries\lvgl\src\extra\widgets\tabview/lv_tabview.c **** {
 307:..\..\..\arduinoLCD\test\Pain Drain\libraries\lvgl\src\extra\widgets\tabview/lv_tabview.c ****     lv_obj_t * btns = lv_event_get_target(e);
 308:..\..\..\arduinoLCD\test\Pain Drain\libraries\lvgl\src\extra\widgets\tabview/lv_tabview.c **** 
 309:..\..\..\arduinoLCD\test\Pain Drain\libraries\lvgl\src\extra\widgets\tabview/lv_tabview.c ****     lv_obj_t * tv = lv_obj_get_parent(btns);
 310:..\..\..\arduinoLCD\test\Pain Drain\libraries\lvgl\src\extra\widgets\tabview/lv_tabview.c ****     uint32_t id = lv_btnmatrix_get_selected_btn(btns);
 311:..\..\..\arduinoLCD\test\Pain Drain\libraries\lvgl\src\extra\widgets\tabview/lv_tabview.c ****     lv_tabview_set_act(tv, id, LV_ANIM_ON);
 312:..\..\..\arduinoLCD\test\Pain Drain\libraries\lvgl\src\extra\widgets\tabview/lv_tabview.c **** }
 313:..\..\..\arduinoLCD\test\Pain Drain\libraries\lvgl\src\extra\widgets\tabview/lv_tabview.c **** 
 314:..\..\..\arduinoLCD\test\Pain Drain\libraries\lvgl\src\extra\widgets\tabview/lv_tabview.c **** static void cont_scroll_end_event_cb(lv_event_t * e)
 315:..\..\..\arduinoLCD\test\Pain Drain\libraries\lvgl\src\extra\widgets\tabview/lv_tabview.c **** {
 838              		.loc 1 315 0
 839              		.cfi_startproc
 840              		@ args = 0, pretend = 0, frame = 8
 841              		@ frame_needed = 0, uses_anonymous_args = 0
 842              	.LVL125:
 843 0000 70B5     		push	{r4, r5, r6, lr}
 844              		.cfi_def_cfa_offset 16
 845              		.cfi_offset 4, -16
 846              		.cfi_offset 5, -12
 847              		.cfi_offset 6, -8
 848              		.cfi_offset 14, -4
 849 0002 82B0     		sub	sp, sp, #8
 850              		.cfi_def_cfa_offset 24
 851 0004 0400     		movs	r4, r0
 316:..\..\..\arduinoLCD\test\Pain Drain\libraries\lvgl\src\extra\widgets\tabview/lv_tabview.c ****     lv_obj_t * cont = lv_event_get_target(e);
 852              		.loc 1 316 0
 853 0006 FFF7FEFF 		bl	lv_event_get_target
 854              	.LVL126:
 855 000a 0500     		movs	r5, r0
 856              	.LVL127:
 317:..\..\..\arduinoLCD\test\Pain Drain\libraries\lvgl\src\extra\widgets\tabview/lv_tabview.c ****     lv_event_code_t code = lv_event_get_code(e);
 857              		.loc 1 317 0
ARM GAS  C:\Users\haske\AppData\Local\Temp\cc65HANE.s 			page 33


 858 000c 2000     		movs	r0, r4
 859              	.LVL128:
 860 000e FFF7FEFF 		bl	lv_event_get_code
 861              	.LVL129:
 862 0012 0400     		movs	r4, r0
 863              	.LVL130:
 318:..\..\..\arduinoLCD\test\Pain Drain\libraries\lvgl\src\extra\widgets\tabview/lv_tabview.c **** 
 319:..\..\..\arduinoLCD\test\Pain Drain\libraries\lvgl\src\extra\widgets\tabview/lv_tabview.c ****     lv_obj_t * tv = lv_obj_get_parent(cont);
 864              		.loc 1 319 0
 865 0014 2800     		movs	r0, r5
 866              	.LVL131:
 867 0016 FFF7FEFF 		bl	lv_obj_get_parent
 868              	.LVL132:
 869 001a 0600     		movs	r6, r0
 870              	.LVL133:
 320:..\..\..\arduinoLCD\test\Pain Drain\libraries\lvgl\src\extra\widgets\tabview/lv_tabview.c ****     lv_tabview_t * tv_obj = (lv_tabview_t *)tv;
 321:..\..\..\arduinoLCD\test\Pain Drain\libraries\lvgl\src\extra\widgets\tabview/lv_tabview.c ****     if(code == LV_EVENT_LAYOUT_CHANGED) {
 871              		.loc 1 321 0
 872 001c 2B2C     		cmp	r4, #43
 873 001e 07D1     		bne	.L47
 322:..\..\..\arduinoLCD\test\Pain Drain\libraries\lvgl\src\extra\widgets\tabview/lv_tabview.c ****         lv_tabview_set_act(tv, lv_tabview_get_tab_act(tv), LV_ANIM_OFF);
 874              		.loc 1 322 0
 875 0020 FFF7FEFF 		bl	lv_tabview_get_tab_act
 876              	.LVL134:
 877 0024 0100     		movs	r1, r0
 878 0026 0022     		movs	r2, #0
 879 0028 3000     		movs	r0, r6
 880 002a FFF7FEFF 		bl	lv_tabview_set_act
 881              	.LVL135:
 882 002e 5DE0     		b	.L46
 883              	.LVL136:
 884              	.L47:
 323:..\..\..\arduinoLCD\test\Pain Drain\libraries\lvgl\src\extra\widgets\tabview/lv_tabview.c ****     }
 324:..\..\..\arduinoLCD\test\Pain Drain\libraries\lvgl\src\extra\widgets\tabview/lv_tabview.c ****     else if(code == LV_EVENT_SCROLL_END) {
 885              		.loc 1 324 0
 886 0030 0A2C     		cmp	r4, #10
 887 0032 5BD1     		bne	.L46
 888              	.LBB29:
 325:..\..\..\arduinoLCD\test\Pain Drain\libraries\lvgl\src\extra\widgets\tabview/lv_tabview.c ****         lv_indev_t * indev = lv_indev_get_act();
 889              		.loc 1 325 0
 890 0034 FFF7FEFF 		bl	lv_indev_get_act
 891              	.LVL137:
 326:..\..\..\arduinoLCD\test\Pain Drain\libraries\lvgl\src\extra\widgets\tabview/lv_tabview.c ****         if(indev && indev->proc.state == LV_INDEV_STATE_PRESSED) {
 892              		.loc 1 326 0
 893 0038 0028     		cmp	r0, #0
 894 003a 02D0     		beq	.L49
 895              		.loc 1 326 0 is_stmt 0 discriminator 1
 896 003c 0379     		ldrb	r3, [r0, #4]
 897 003e 012B     		cmp	r3, #1
 898 0040 54D0     		beq	.L46
 899              	.L49:
 327:..\..\..\arduinoLCD\test\Pain Drain\libraries\lvgl\src\extra\widgets\tabview/lv_tabview.c ****             return;
 328:..\..\..\arduinoLCD\test\Pain Drain\libraries\lvgl\src\extra\widgets\tabview/lv_tabview.c ****         }
 329:..\..\..\arduinoLCD\test\Pain Drain\libraries\lvgl\src\extra\widgets\tabview/lv_tabview.c **** 
 330:..\..\..\arduinoLCD\test\Pain Drain\libraries\lvgl\src\extra\widgets\tabview/lv_tabview.c ****         lv_point_t p;
 331:..\..\..\arduinoLCD\test\Pain Drain\libraries\lvgl\src\extra\widgets\tabview/lv_tabview.c ****         lv_obj_get_scroll_end(cont, &p);
 900              		.loc 1 331 0 is_stmt 1
ARM GAS  C:\Users\haske\AppData\Local\Temp\cc65HANE.s 			page 34


 901 0042 01A9     		add	r1, sp, #4
 902 0044 2800     		movs	r0, r5
 903              	.LVL138:
 904 0046 FFF7FEFF 		bl	lv_obj_get_scroll_end
 905              	.LVL139:
 332:..\..\..\arduinoLCD\test\Pain Drain\libraries\lvgl\src\extra\widgets\tabview/lv_tabview.c **** 
 333:..\..\..\arduinoLCD\test\Pain Drain\libraries\lvgl\src\extra\widgets\tabview/lv_tabview.c ****         lv_coord_t t;
 334:..\..\..\arduinoLCD\test\Pain Drain\libraries\lvgl\src\extra\widgets\tabview/lv_tabview.c ****         if((tv_obj->tab_pos & LV_DIR_VER) != 0) {
 906              		.loc 1 334 0
 907 004a 2C23     		movs	r3, #44
 908 004c F35C     		ldrb	r3, [r6, r3]
 909 004e 0C22     		movs	r2, #12
 910 0050 1A42     		tst	r2, r3
 911 0052 25D0     		beq	.L51
 912              	.LBB30:
 335:..\..\..\arduinoLCD\test\Pain Drain\libraries\lvgl\src\extra\widgets\tabview/lv_tabview.c ****             lv_coord_t w = lv_obj_get_content_width(cont);
 913              		.loc 1 335 0
 914 0054 2800     		movs	r0, r5
 915 0056 FFF7FEFF 		bl	lv_obj_get_content_width
 916              	.LVL140:
 917 005a 0400     		movs	r4, r0
 918              	.LVL141:
 919              	.LBB31:
 920              	.LBB32:
 561:c:\projects\paindrain\arduinolcd\test\pain drain\libraries\lvgl\src/core\lv_obj_style_gen.h ****     return (lv_base_dir_t)v.num;
 921              		.loc 2 561 0
 922 005c 1622     		movs	r2, #22
 923 005e 0021     		movs	r1, #0
 924 0060 3000     		movs	r0, r6
 925 0062 FFF7FEFF 		bl	lv_obj_get_style_prop
 926              	.LVL142:
 927              		.loc 2 562 0
 928 0066 C0B2     		uxtb	r0, r0
 929              	.LVL143:
 930              	.LBE32:
 931              	.LBE31:
 336:..\..\..\arduinoLCD\test\Pain Drain\libraries\lvgl\src\extra\widgets\tabview/lv_tabview.c ****             if(lv_obj_get_style_base_dir(tv, LV_PART_MAIN) == LV_BASE_DIR_RTL)  t = -(p.x - w / 2) 
 932              		.loc 1 336 0
 933 0068 0128     		cmp	r0, #1
 934 006a 0CD1     		bne	.L52
 935              		.loc 1 336 0 is_stmt 0 discriminator 1
 936 006c E00F     		lsrs	r0, r4, #31
 937 006e 0019     		adds	r0, r0, r4
 938 0070 4010     		asrs	r0, r0, #1
 939 0072 03B2     		sxth	r3, r0
 940 0074 01AA     		add	r2, sp, #4
 941 0076 0020     		movs	r0, #0
 942 0078 105E     		ldrsh	r0, [r2, r0]
 943 007a 181A     		subs	r0, r3, r0
 944 007c 2100     		movs	r1, r4
 945 007e FFF7FEFF 		bl	__aeabi_idiv
 946              	.LVL144:
 947 0082 04B2     		sxth	r4, r0
 948              	.LVL145:
 949 0084 1BE0     		b	.L53
 950              	.LVL146:
 951              	.L52:
ARM GAS  C:\Users\haske\AppData\Local\Temp\cc65HANE.s 			page 35


 337:..\..\..\arduinoLCD\test\Pain Drain\libraries\lvgl\src\extra\widgets\tabview/lv_tabview.c ****             else t = (p.x + w / 2) / w;
 952              		.loc 1 337 0 is_stmt 1
 953 0086 01AB     		add	r3, sp, #4
 954 0088 0020     		movs	r0, #0
 955 008a 185E     		ldrsh	r0, [r3, r0]
 956 008c E30F     		lsrs	r3, r4, #31
 957 008e 1B19     		adds	r3, r3, r4
 958 0090 5B10     		asrs	r3, r3, #1
 959 0092 1BB2     		sxth	r3, r3
 960 0094 C018     		adds	r0, r0, r3
 961 0096 2100     		movs	r1, r4
 962 0098 FFF7FEFF 		bl	__aeabi_idiv
 963              	.LVL147:
 964 009c 04B2     		sxth	r4, r0
 965              	.LVL148:
 966 009e 0EE0     		b	.L53
 967              	.LVL149:
 968              	.L51:
 969              	.LBE30:
 970              	.LBB33:
 338:..\..\..\arduinoLCD\test\Pain Drain\libraries\lvgl\src\extra\widgets\tabview/lv_tabview.c ****         }
 339:..\..\..\arduinoLCD\test\Pain Drain\libraries\lvgl\src\extra\widgets\tabview/lv_tabview.c ****         else {
 340:..\..\..\arduinoLCD\test\Pain Drain\libraries\lvgl\src\extra\widgets\tabview/lv_tabview.c ****             lv_coord_t h = lv_obj_get_content_height(cont);
 971              		.loc 1 340 0
 972 00a0 2800     		movs	r0, r5
 973 00a2 FFF7FEFF 		bl	lv_obj_get_content_height
 974              	.LVL150:
 975 00a6 0100     		movs	r1, r0
 976              	.LVL151:
 341:..\..\..\arduinoLCD\test\Pain Drain\libraries\lvgl\src\extra\widgets\tabview/lv_tabview.c ****             t = (p.y + h / 2) / h;
 977              		.loc 1 341 0
 978 00a8 01AB     		add	r3, sp, #4
 979 00aa 0220     		movs	r0, #2
 980 00ac 185E     		ldrsh	r0, [r3, r0]
 981 00ae CB0F     		lsrs	r3, r1, #31
 982 00b0 5B18     		adds	r3, r3, r1
 983 00b2 5B10     		asrs	r3, r3, #1
 984 00b4 1BB2     		sxth	r3, r3
 985 00b6 C018     		adds	r0, r0, r3
 986 00b8 FFF7FEFF 		bl	__aeabi_idiv
 987              	.LVL152:
 988 00bc 04B2     		sxth	r4, r0
 989              	.LVL153:
 990              	.L53:
 991              	.LBE33:
 342:..\..\..\arduinoLCD\test\Pain Drain\libraries\lvgl\src\extra\widgets\tabview/lv_tabview.c ****         }
 343:..\..\..\arduinoLCD\test\Pain Drain\libraries\lvgl\src\extra\widgets\tabview/lv_tabview.c **** 
 344:..\..\..\arduinoLCD\test\Pain Drain\libraries\lvgl\src\extra\widgets\tabview/lv_tabview.c ****         if(t < 0) t = 0;
 992              		.loc 1 344 0
 993 00be 002C     		cmp	r4, #0
 994 00c0 00DA     		bge	.L54
 995 00c2 0024     		movs	r4, #0
 996              	.LVL154:
 997              	.L54:
 345:..\..\..\arduinoLCD\test\Pain Drain\libraries\lvgl\src\extra\widgets\tabview/lv_tabview.c ****         bool new_tab = false;
 346:..\..\..\arduinoLCD\test\Pain Drain\libraries\lvgl\src\extra\widgets\tabview/lv_tabview.c ****         if(t != lv_tabview_get_tab_act(tv)) new_tab = true;
 998              		.loc 1 346 0
ARM GAS  C:\Users\haske\AppData\Local\Temp\cc65HANE.s 			page 36


 999 00c4 3000     		movs	r0, r6
 1000 00c6 FFF7FEFF 		bl	lv_tabview_get_tab_act
 1001              	.LVL155:
 1002 00ca 8442     		cmp	r4, r0
 1003 00cc 01D1     		bne	.L58
 345:..\..\..\arduinoLCD\test\Pain Drain\libraries\lvgl\src\extra\widgets\tabview/lv_tabview.c ****         bool new_tab = false;
 1004              		.loc 1 345 0
 1005 00ce 0025     		movs	r5, #0
 1006              	.LVL156:
 1007 00d0 00E0     		b	.L55
 1008              	.LVL157:
 1009              	.L58:
 1010              		.loc 1 346 0
 1011 00d2 0125     		movs	r5, #1
 1012              	.LVL158:
 1013              	.L55:
 347:..\..\..\arduinoLCD\test\Pain Drain\libraries\lvgl\src\extra\widgets\tabview/lv_tabview.c ****         lv_tabview_set_act(tv, t, LV_ANIM_ON);
 1014              		.loc 1 347 0
 1015 00d4 0122     		movs	r2, #1
 1016 00d6 2100     		movs	r1, r4
 1017 00d8 3000     		movs	r0, r6
 1018 00da FFF7FEFF 		bl	lv_tabview_set_act
 1019              	.LVL159:
 348:..\..\..\arduinoLCD\test\Pain Drain\libraries\lvgl\src\extra\widgets\tabview/lv_tabview.c **** 
 349:..\..\..\arduinoLCD\test\Pain Drain\libraries\lvgl\src\extra\widgets\tabview/lv_tabview.c ****         if(new_tab) lv_event_send(tv, LV_EVENT_VALUE_CHANGED, NULL);
 1020              		.loc 1 349 0
 1021 00de 002D     		cmp	r5, #0
 1022 00e0 04D0     		beq	.L46
 1023              		.loc 1 349 0 is_stmt 0 discriminator 1
 1024 00e2 0022     		movs	r2, #0
 1025 00e4 1C21     		movs	r1, #28
 1026 00e6 3000     		movs	r0, r6
 1027 00e8 FFF7FEFF 		bl	lv_event_send
 1028              	.LVL160:
 1029              	.L46:
 1030              	.LBE29:
 350:..\..\..\arduinoLCD\test\Pain Drain\libraries\lvgl\src\extra\widgets\tabview/lv_tabview.c ****     }
 351:..\..\..\arduinoLCD\test\Pain Drain\libraries\lvgl\src\extra\widgets\tabview/lv_tabview.c **** }
 1031              		.loc 1 351 0 is_stmt 1
 1032 00ec 02B0     		add	sp, sp, #8
 1033              		@ sp needed
 1034              	.LVL161:
 1035 00ee 70BD     		pop	{r4, r5, r6, pc}
 1036              		.cfi_endproc
 1037              	.LFE213:
 1038              		.size	cont_scroll_end_event_cb, .-cont_scroll_end_event_cb
 1039              		.section	.text.btns_value_changed_event_cb,"ax",%progbits
 1040              		.align	2
 1041              		.code	16
 1042              		.thumb_func
 1043              		.type	btns_value_changed_event_cb, %function
 1044              	btns_value_changed_event_cb:
 1045              	.LFB212:
 306:..\..\..\arduinoLCD\test\Pain Drain\libraries\lvgl\src\extra\widgets\tabview/lv_tabview.c ****     lv_obj_t * btns = lv_event_get_target(e);
 1046              		.loc 1 306 0
 1047              		.cfi_startproc
 1048              		@ args = 0, pretend = 0, frame = 0
ARM GAS  C:\Users\haske\AppData\Local\Temp\cc65HANE.s 			page 37


 1049              		@ frame_needed = 0, uses_anonymous_args = 0
 1050              	.LVL162:
 1051 0000 70B5     		push	{r4, r5, r6, lr}
 1052              		.cfi_def_cfa_offset 16
 1053              		.cfi_offset 4, -16
 1054              		.cfi_offset 5, -12
 1055              		.cfi_offset 6, -8
 1056              		.cfi_offset 14, -4
 307:..\..\..\arduinoLCD\test\Pain Drain\libraries\lvgl\src\extra\widgets\tabview/lv_tabview.c **** 
 1057              		.loc 1 307 0
 1058 0002 FFF7FEFF 		bl	lv_event_get_target
 1059              	.LVL163:
 1060 0006 0400     		movs	r4, r0
 1061              	.LVL164:
 309:..\..\..\arduinoLCD\test\Pain Drain\libraries\lvgl\src\extra\widgets\tabview/lv_tabview.c ****     uint32_t id = lv_btnmatrix_get_selected_btn(btns);
 1062              		.loc 1 309 0
 1063 0008 FFF7FEFF 		bl	lv_obj_get_parent
 1064              	.LVL165:
 1065 000c 0500     		movs	r5, r0
 1066              	.LVL166:
 310:..\..\..\arduinoLCD\test\Pain Drain\libraries\lvgl\src\extra\widgets\tabview/lv_tabview.c ****     lv_tabview_set_act(tv, id, LV_ANIM_ON);
 1067              		.loc 1 310 0
 1068 000e 2000     		movs	r0, r4
 1069              	.LVL167:
 1070 0010 FFF7FEFF 		bl	lv_btnmatrix_get_selected_btn
 1071              	.LVL168:
 1072 0014 0100     		movs	r1, r0
 1073              	.LVL169:
 311:..\..\..\arduinoLCD\test\Pain Drain\libraries\lvgl\src\extra\widgets\tabview/lv_tabview.c **** }
 1074              		.loc 1 311 0
 1075 0016 0122     		movs	r2, #1
 1076 0018 2800     		movs	r0, r5
 1077              	.LVL170:
 1078 001a FFF7FEFF 		bl	lv_tabview_set_act
 1079              	.LVL171:
 312:..\..\..\arduinoLCD\test\Pain Drain\libraries\lvgl\src\extra\widgets\tabview/lv_tabview.c **** 
 1080              		.loc 1 312 0
 1081              		@ sp needed
 1082              	.LVL172:
 1083              	.LVL173:
 1084 001e 70BD     		pop	{r4, r5, r6, pc}
 1085              		.cfi_endproc
 1086              	.LFE212:
 1087              		.size	btns_value_changed_event_cb, .-btns_value_changed_event_cb
 1088              		.section	.text.lv_tabview_add_tab,"ax",%progbits
 1089              		.align	2
 1090              		.global	lv_tabview_add_tab
 1091              		.code	16
 1092              		.thumb_func
 1093              		.type	lv_tabview_add_tab, %function
 1094              	lv_tabview_add_tab:
 1095              	.LFB203:
  68:..\..\..\arduinoLCD\test\Pain Drain\libraries\lvgl\src\extra\widgets\tabview/lv_tabview.c ****     LV_ASSERT_OBJ(obj, MY_CLASS);
 1096              		.loc 1 68 0
 1097              		.cfi_startproc
 1098              		@ args = 0, pretend = 0, frame = 16
 1099              		@ frame_needed = 0, uses_anonymous_args = 0
ARM GAS  C:\Users\haske\AppData\Local\Temp\cc65HANE.s 			page 38


 1100              	.LVL174:
 1101 0000 F0B5     		push	{r4, r5, r6, r7, lr}
 1102              		.cfi_def_cfa_offset 20
 1103              		.cfi_offset 4, -20
 1104              		.cfi_offset 5, -16
 1105              		.cfi_offset 6, -12
 1106              		.cfi_offset 7, -8
 1107              		.cfi_offset 14, -4
 1108 0002 5F46     		mov	r7, fp
 1109 0004 4E46     		mov	r6, r9
 1110 0006 4546     		mov	r5, r8
 1111 0008 E0B4     		push	{r5, r6, r7}
 1112              		.cfi_def_cfa_offset 32
 1113              		.cfi_offset 8, -32
 1114              		.cfi_offset 9, -28
 1115              		.cfi_offset 11, -24
 1116 000a 84B0     		sub	sp, sp, #16
 1117              		.cfi_def_cfa_offset 48
 1118 000c 0700     		movs	r7, r0
 1119 000e 0291     		str	r1, [sp, #8]
 1120              	.LVL175:
  71:..\..\..\arduinoLCD\test\Pain Drain\libraries\lvgl\src\extra\widgets\tabview/lv_tabview.c **** 
 1121              		.loc 1 71 0
 1122 0010 FFF7FEFF 		bl	lv_tabview_get_content
 1123              	.LVL176:
 1124 0014 0500     		movs	r5, r0
 1125              	.LVL177:
  73:..\..\..\arduinoLCD\test\Pain Drain\libraries\lvgl\src\extra\widgets\tabview/lv_tabview.c ****     lv_obj_set_size(page, LV_PCT(100), LV_PCT(100));
 1126              		.loc 1 73 0
 1127 0016 FFF7FEFF 		bl	lv_obj_create
 1128              	.LVL178:
 1129 001a 0400     		movs	r4, r0
 1130 001c 0390     		str	r0, [sp, #12]
 1131              	.LVL179:
  74:..\..\..\arduinoLCD\test\Pain Drain\libraries\lvgl\src\extra\widgets\tabview/lv_tabview.c ****     lv_obj_clear_flag(page, LV_OBJ_FLAG_CLICK_FOCUSABLE);
 1132              		.loc 1 74 0
 1133 001e 4F49     		ldr	r1, .L69
 1134 0020 0A00     		movs	r2, r1
 1135 0022 FFF7FEFF 		bl	lv_obj_set_size
 1136              	.LVL180:
  75:..\..\..\arduinoLCD\test\Pain Drain\libraries\lvgl\src\extra\widgets\tabview/lv_tabview.c ****     uint32_t tab_id = lv_obj_get_child_cnt(cont);
 1137              		.loc 1 75 0
 1138 0026 0421     		movs	r1, #4
 1139 0028 2000     		movs	r0, r4
 1140 002a FFF7FEFF 		bl	lv_obj_clear_flag
 1141              	.LVL181:
  76:..\..\..\arduinoLCD\test\Pain Drain\libraries\lvgl\src\extra\widgets\tabview/lv_tabview.c **** 
 1142              		.loc 1 76 0
 1143 002e 2800     		movs	r0, r5
 1144 0030 FFF7FEFF 		bl	lv_obj_get_child_cnt
 1145              	.LVL182:
 1146 0034 0500     		movs	r5, r0
 1147              	.LVL183:
  78:..\..\..\arduinoLCD\test\Pain Drain\libraries\lvgl\src\extra\widgets\tabview/lv_tabview.c **** 
 1148              		.loc 1 78 0
 1149 0036 3800     		movs	r0, r7
 1150              	.LVL184:
ARM GAS  C:\Users\haske\AppData\Local\Temp\cc65HANE.s 			page 39


 1151 0038 FFF7FEFF 		bl	lv_tabview_get_tab_btns
 1152              	.LVL185:
 1153 003c 0190     		str	r0, [sp, #4]
 1154              	.LVL186:
  80:..\..\..\arduinoLCD\test\Pain Drain\libraries\lvgl\src\extra\widgets\tabview/lv_tabview.c ****     char ** new_map;
 1155              		.loc 1 80 0
 1156 003e 7E6A     		ldr	r6, [r7, #36]
 1157              	.LVL187:
  84:..\..\..\arduinoLCD\test\Pain Drain\libraries\lvgl\src\extra\widgets\tabview/lv_tabview.c ****         new_map = lv_mem_alloc((tab_id + 1) * sizeof(const char *));
 1158              		.loc 1 84 0
 1159 0040 2C23     		movs	r3, #44
 1160 0042 FB5C     		ldrb	r3, [r7, r3]
 1161 0044 0C22     		movs	r2, #12
 1162 0046 1A42     		tst	r2, r3
 1163 0048 23D0     		beq	.L61
  85:..\..\..\arduinoLCD\test\Pain Drain\libraries\lvgl\src\extra\widgets\tabview/lv_tabview.c ****         lv_memcpy_small(new_map, old_map, sizeof(const char *) * (tab_id - 1));
 1164              		.loc 1 85 0
 1165 004a 681C     		adds	r0, r5, #1
 1166              	.LVL188:
 1167 004c 8000     		lsls	r0, r0, #2
 1168 004e FFF7FEFF 		bl	lv_mem_alloc
 1169              	.LVL189:
 1170 0052 0400     		movs	r4, r0
 1171              	.LVL190:
  86:..\..\..\arduinoLCD\test\Pain Drain\libraries\lvgl\src\extra\widgets\tabview/lv_tabview.c ****         new_map[tab_id - 1] = lv_mem_alloc(strlen(name) + 1);
 1172              		.loc 1 86 0
 1173 0054 424B     		ldr	r3, .L69+4
 1174 0056 EB18     		adds	r3, r5, r3
 1175 0058 9B00     		lsls	r3, r3, #2
 1176 005a 9C46     		mov	ip, r3
 1177              	.LVL191:
 1178              	.LBB34:
 1179              	.LBB35:
 1180              		.file 3 "c:\\projects\\paindrain\\arduinolcd\\test\\pain drain\\libraries\\lvgl\\src/misc/lv_mem.h
   1:c:\projects\paindrain\arduinolcd\test\pain drain\libraries\lvgl\src/misc\lv_mem.h **** /**
   2:c:\projects\paindrain\arduinolcd\test\pain drain\libraries\lvgl\src/misc\lv_mem.h ****  * @file lv_mem.h
   3:c:\projects\paindrain\arduinolcd\test\pain drain\libraries\lvgl\src/misc\lv_mem.h ****  *
   4:c:\projects\paindrain\arduinolcd\test\pain drain\libraries\lvgl\src/misc\lv_mem.h ****  */
   5:c:\projects\paindrain\arduinolcd\test\pain drain\libraries\lvgl\src/misc\lv_mem.h **** 
   6:c:\projects\paindrain\arduinolcd\test\pain drain\libraries\lvgl\src/misc\lv_mem.h **** #ifndef LV_MEM_H
   7:c:\projects\paindrain\arduinolcd\test\pain drain\libraries\lvgl\src/misc\lv_mem.h **** #define LV_MEM_H
   8:c:\projects\paindrain\arduinolcd\test\pain drain\libraries\lvgl\src/misc\lv_mem.h **** 
   9:c:\projects\paindrain\arduinolcd\test\pain drain\libraries\lvgl\src/misc\lv_mem.h **** #ifdef __cplusplus
  10:c:\projects\paindrain\arduinolcd\test\pain drain\libraries\lvgl\src/misc\lv_mem.h **** extern "C" {
  11:c:\projects\paindrain\arduinolcd\test\pain drain\libraries\lvgl\src/misc\lv_mem.h **** #endif
  12:c:\projects\paindrain\arduinolcd\test\pain drain\libraries\lvgl\src/misc\lv_mem.h **** 
  13:c:\projects\paindrain\arduinolcd\test\pain drain\libraries\lvgl\src/misc\lv_mem.h **** /*********************
  14:c:\projects\paindrain\arduinolcd\test\pain drain\libraries\lvgl\src/misc\lv_mem.h ****  *      INCLUDES
  15:c:\projects\paindrain\arduinolcd\test\pain drain\libraries\lvgl\src/misc\lv_mem.h ****  *********************/
  16:c:\projects\paindrain\arduinolcd\test\pain drain\libraries\lvgl\src/misc\lv_mem.h **** #include "../lv_conf_internal.h"
  17:c:\projects\paindrain\arduinolcd\test\pain drain\libraries\lvgl\src/misc\lv_mem.h **** 
  18:c:\projects\paindrain\arduinolcd\test\pain drain\libraries\lvgl\src/misc\lv_mem.h **** #include <stdint.h>
  19:c:\projects\paindrain\arduinolcd\test\pain drain\libraries\lvgl\src/misc\lv_mem.h **** #include <stddef.h>
  20:c:\projects\paindrain\arduinolcd\test\pain drain\libraries\lvgl\src/misc\lv_mem.h **** #include <string.h>
  21:c:\projects\paindrain\arduinolcd\test\pain drain\libraries\lvgl\src/misc\lv_mem.h **** 
  22:c:\projects\paindrain\arduinolcd\test\pain drain\libraries\lvgl\src/misc\lv_mem.h **** #include "lv_types.h"
  23:c:\projects\paindrain\arduinolcd\test\pain drain\libraries\lvgl\src/misc\lv_mem.h **** 
ARM GAS  C:\Users\haske\AppData\Local\Temp\cc65HANE.s 			page 40


  24:c:\projects\paindrain\arduinolcd\test\pain drain\libraries\lvgl\src/misc\lv_mem.h **** /*********************
  25:c:\projects\paindrain\arduinolcd\test\pain drain\libraries\lvgl\src/misc\lv_mem.h ****  *      DEFINES
  26:c:\projects\paindrain\arduinolcd\test\pain drain\libraries\lvgl\src/misc\lv_mem.h ****  *********************/
  27:c:\projects\paindrain\arduinolcd\test\pain drain\libraries\lvgl\src/misc\lv_mem.h **** 
  28:c:\projects\paindrain\arduinolcd\test\pain drain\libraries\lvgl\src/misc\lv_mem.h **** /**********************
  29:c:\projects\paindrain\arduinolcd\test\pain drain\libraries\lvgl\src/misc\lv_mem.h ****  *      TYPEDEFS
  30:c:\projects\paindrain\arduinolcd\test\pain drain\libraries\lvgl\src/misc\lv_mem.h ****  **********************/
  31:c:\projects\paindrain\arduinolcd\test\pain drain\libraries\lvgl\src/misc\lv_mem.h **** 
  32:c:\projects\paindrain\arduinolcd\test\pain drain\libraries\lvgl\src/misc\lv_mem.h **** /**
  33:c:\projects\paindrain\arduinolcd\test\pain drain\libraries\lvgl\src/misc\lv_mem.h ****  * Heap information structure.
  34:c:\projects\paindrain\arduinolcd\test\pain drain\libraries\lvgl\src/misc\lv_mem.h ****  */
  35:c:\projects\paindrain\arduinolcd\test\pain drain\libraries\lvgl\src/misc\lv_mem.h **** typedef struct {
  36:c:\projects\paindrain\arduinolcd\test\pain drain\libraries\lvgl\src/misc\lv_mem.h ****     uint32_t total_size; /**< Total heap size*/
  37:c:\projects\paindrain\arduinolcd\test\pain drain\libraries\lvgl\src/misc\lv_mem.h ****     uint32_t free_cnt;
  38:c:\projects\paindrain\arduinolcd\test\pain drain\libraries\lvgl\src/misc\lv_mem.h ****     uint32_t free_size; /**< Size of available memory*/
  39:c:\projects\paindrain\arduinolcd\test\pain drain\libraries\lvgl\src/misc\lv_mem.h ****     uint32_t free_biggest_size;
  40:c:\projects\paindrain\arduinolcd\test\pain drain\libraries\lvgl\src/misc\lv_mem.h ****     uint32_t used_cnt;
  41:c:\projects\paindrain\arduinolcd\test\pain drain\libraries\lvgl\src/misc\lv_mem.h ****     uint32_t max_used; /**< Max size of Heap memory used*/
  42:c:\projects\paindrain\arduinolcd\test\pain drain\libraries\lvgl\src/misc\lv_mem.h ****     uint8_t used_pct; /**< Percentage used*/
  43:c:\projects\paindrain\arduinolcd\test\pain drain\libraries\lvgl\src/misc\lv_mem.h ****     uint8_t frag_pct; /**< Amount of fragmentation*/
  44:c:\projects\paindrain\arduinolcd\test\pain drain\libraries\lvgl\src/misc\lv_mem.h **** } lv_mem_monitor_t;
  45:c:\projects\paindrain\arduinolcd\test\pain drain\libraries\lvgl\src/misc\lv_mem.h **** 
  46:c:\projects\paindrain\arduinolcd\test\pain drain\libraries\lvgl\src/misc\lv_mem.h **** typedef struct {
  47:c:\projects\paindrain\arduinolcd\test\pain drain\libraries\lvgl\src/misc\lv_mem.h ****     void * p;
  48:c:\projects\paindrain\arduinolcd\test\pain drain\libraries\lvgl\src/misc\lv_mem.h ****     uint16_t size;
  49:c:\projects\paindrain\arduinolcd\test\pain drain\libraries\lvgl\src/misc\lv_mem.h ****     uint8_t used : 1;
  50:c:\projects\paindrain\arduinolcd\test\pain drain\libraries\lvgl\src/misc\lv_mem.h **** } lv_mem_buf_t;
  51:c:\projects\paindrain\arduinolcd\test\pain drain\libraries\lvgl\src/misc\lv_mem.h **** 
  52:c:\projects\paindrain\arduinolcd\test\pain drain\libraries\lvgl\src/misc\lv_mem.h **** typedef lv_mem_buf_t lv_mem_buf_arr_t[LV_MEM_BUF_MAX_NUM];
  53:c:\projects\paindrain\arduinolcd\test\pain drain\libraries\lvgl\src/misc\lv_mem.h **** 
  54:c:\projects\paindrain\arduinolcd\test\pain drain\libraries\lvgl\src/misc\lv_mem.h **** /**********************
  55:c:\projects\paindrain\arduinolcd\test\pain drain\libraries\lvgl\src/misc\lv_mem.h ****  * GLOBAL PROTOTYPES
  56:c:\projects\paindrain\arduinolcd\test\pain drain\libraries\lvgl\src/misc\lv_mem.h ****  **********************/
  57:c:\projects\paindrain\arduinolcd\test\pain drain\libraries\lvgl\src/misc\lv_mem.h **** 
  58:c:\projects\paindrain\arduinolcd\test\pain drain\libraries\lvgl\src/misc\lv_mem.h **** /**
  59:c:\projects\paindrain\arduinolcd\test\pain drain\libraries\lvgl\src/misc\lv_mem.h ****  * Initialize the dyn_mem module (work memory and other variables)
  60:c:\projects\paindrain\arduinolcd\test\pain drain\libraries\lvgl\src/misc\lv_mem.h ****  */
  61:c:\projects\paindrain\arduinolcd\test\pain drain\libraries\lvgl\src/misc\lv_mem.h **** void lv_mem_init(void);
  62:c:\projects\paindrain\arduinolcd\test\pain drain\libraries\lvgl\src/misc\lv_mem.h **** 
  63:c:\projects\paindrain\arduinolcd\test\pain drain\libraries\lvgl\src/misc\lv_mem.h **** /**
  64:c:\projects\paindrain\arduinolcd\test\pain drain\libraries\lvgl\src/misc\lv_mem.h ****  * Clean up the memory buffer which frees all the allocated memories.
  65:c:\projects\paindrain\arduinolcd\test\pain drain\libraries\lvgl\src/misc\lv_mem.h ****  * @note It work only if `LV_MEM_CUSTOM == 0`
  66:c:\projects\paindrain\arduinolcd\test\pain drain\libraries\lvgl\src/misc\lv_mem.h ****  */
  67:c:\projects\paindrain\arduinolcd\test\pain drain\libraries\lvgl\src/misc\lv_mem.h **** void lv_mem_deinit(void);
  68:c:\projects\paindrain\arduinolcd\test\pain drain\libraries\lvgl\src/misc\lv_mem.h **** 
  69:c:\projects\paindrain\arduinolcd\test\pain drain\libraries\lvgl\src/misc\lv_mem.h **** /**
  70:c:\projects\paindrain\arduinolcd\test\pain drain\libraries\lvgl\src/misc\lv_mem.h ****  * Allocate a memory dynamically
  71:c:\projects\paindrain\arduinolcd\test\pain drain\libraries\lvgl\src/misc\lv_mem.h ****  * @param size size of the memory to allocate in bytes
  72:c:\projects\paindrain\arduinolcd\test\pain drain\libraries\lvgl\src/misc\lv_mem.h ****  * @return pointer to the allocated memory
  73:c:\projects\paindrain\arduinolcd\test\pain drain\libraries\lvgl\src/misc\lv_mem.h ****  */
  74:c:\projects\paindrain\arduinolcd\test\pain drain\libraries\lvgl\src/misc\lv_mem.h **** void * lv_mem_alloc(size_t size);
  75:c:\projects\paindrain\arduinolcd\test\pain drain\libraries\lvgl\src/misc\lv_mem.h **** 
  76:c:\projects\paindrain\arduinolcd\test\pain drain\libraries\lvgl\src/misc\lv_mem.h **** /**
  77:c:\projects\paindrain\arduinolcd\test\pain drain\libraries\lvgl\src/misc\lv_mem.h ****  * Free an allocated data
  78:c:\projects\paindrain\arduinolcd\test\pain drain\libraries\lvgl\src/misc\lv_mem.h ****  * @param data pointer to an allocated memory
  79:c:\projects\paindrain\arduinolcd\test\pain drain\libraries\lvgl\src/misc\lv_mem.h ****  */
  80:c:\projects\paindrain\arduinolcd\test\pain drain\libraries\lvgl\src/misc\lv_mem.h **** void lv_mem_free(void * data);
ARM GAS  C:\Users\haske\AppData\Local\Temp\cc65HANE.s 			page 41


  81:c:\projects\paindrain\arduinolcd\test\pain drain\libraries\lvgl\src/misc\lv_mem.h **** 
  82:c:\projects\paindrain\arduinolcd\test\pain drain\libraries\lvgl\src/misc\lv_mem.h **** /**
  83:c:\projects\paindrain\arduinolcd\test\pain drain\libraries\lvgl\src/misc\lv_mem.h ****  * Reallocate a memory with a new size. The old content will be kept.
  84:c:\projects\paindrain\arduinolcd\test\pain drain\libraries\lvgl\src/misc\lv_mem.h ****  * @param data pointer to an allocated memory.
  85:c:\projects\paindrain\arduinolcd\test\pain drain\libraries\lvgl\src/misc\lv_mem.h ****  * Its content will be copied to the new memory block and freed
  86:c:\projects\paindrain\arduinolcd\test\pain drain\libraries\lvgl\src/misc\lv_mem.h ****  * @param new_size the desired new size in byte
  87:c:\projects\paindrain\arduinolcd\test\pain drain\libraries\lvgl\src/misc\lv_mem.h ****  * @return pointer to the new memory, NULL on failure
  88:c:\projects\paindrain\arduinolcd\test\pain drain\libraries\lvgl\src/misc\lv_mem.h ****  */
  89:c:\projects\paindrain\arduinolcd\test\pain drain\libraries\lvgl\src/misc\lv_mem.h **** void * lv_mem_realloc(void * data_p, size_t new_size);
  90:c:\projects\paindrain\arduinolcd\test\pain drain\libraries\lvgl\src/misc\lv_mem.h **** 
  91:c:\projects\paindrain\arduinolcd\test\pain drain\libraries\lvgl\src/misc\lv_mem.h **** /**
  92:c:\projects\paindrain\arduinolcd\test\pain drain\libraries\lvgl\src/misc\lv_mem.h ****  *
  93:c:\projects\paindrain\arduinolcd\test\pain drain\libraries\lvgl\src/misc\lv_mem.h ****  * @return
  94:c:\projects\paindrain\arduinolcd\test\pain drain\libraries\lvgl\src/misc\lv_mem.h ****  */
  95:c:\projects\paindrain\arduinolcd\test\pain drain\libraries\lvgl\src/misc\lv_mem.h **** lv_res_t lv_mem_test(void);
  96:c:\projects\paindrain\arduinolcd\test\pain drain\libraries\lvgl\src/misc\lv_mem.h **** 
  97:c:\projects\paindrain\arduinolcd\test\pain drain\libraries\lvgl\src/misc\lv_mem.h **** /**
  98:c:\projects\paindrain\arduinolcd\test\pain drain\libraries\lvgl\src/misc\lv_mem.h ****  * Give information about the work memory of dynamic allocation
  99:c:\projects\paindrain\arduinolcd\test\pain drain\libraries\lvgl\src/misc\lv_mem.h ****  * @param mon_p pointer to a lv_mem_monitor_t variable,
 100:c:\projects\paindrain\arduinolcd\test\pain drain\libraries\lvgl\src/misc\lv_mem.h ****  *              the result of the analysis will be stored here
 101:c:\projects\paindrain\arduinolcd\test\pain drain\libraries\lvgl\src/misc\lv_mem.h ****  */
 102:c:\projects\paindrain\arduinolcd\test\pain drain\libraries\lvgl\src/misc\lv_mem.h **** void lv_mem_monitor(lv_mem_monitor_t * mon_p);
 103:c:\projects\paindrain\arduinolcd\test\pain drain\libraries\lvgl\src/misc\lv_mem.h **** 
 104:c:\projects\paindrain\arduinolcd\test\pain drain\libraries\lvgl\src/misc\lv_mem.h **** 
 105:c:\projects\paindrain\arduinolcd\test\pain drain\libraries\lvgl\src/misc\lv_mem.h **** /**
 106:c:\projects\paindrain\arduinolcd\test\pain drain\libraries\lvgl\src/misc\lv_mem.h ****  * Get a temporal buffer with the given size.
 107:c:\projects\paindrain\arduinolcd\test\pain drain\libraries\lvgl\src/misc\lv_mem.h ****  * @param size the required size
 108:c:\projects\paindrain\arduinolcd\test\pain drain\libraries\lvgl\src/misc\lv_mem.h ****  */
 109:c:\projects\paindrain\arduinolcd\test\pain drain\libraries\lvgl\src/misc\lv_mem.h **** void * lv_mem_buf_get(uint32_t size);
 110:c:\projects\paindrain\arduinolcd\test\pain drain\libraries\lvgl\src/misc\lv_mem.h **** 
 111:c:\projects\paindrain\arduinolcd\test\pain drain\libraries\lvgl\src/misc\lv_mem.h **** /**
 112:c:\projects\paindrain\arduinolcd\test\pain drain\libraries\lvgl\src/misc\lv_mem.h ****  * Release a memory buffer
 113:c:\projects\paindrain\arduinolcd\test\pain drain\libraries\lvgl\src/misc\lv_mem.h ****  * @param p buffer to release
 114:c:\projects\paindrain\arduinolcd\test\pain drain\libraries\lvgl\src/misc\lv_mem.h ****  */
 115:c:\projects\paindrain\arduinolcd\test\pain drain\libraries\lvgl\src/misc\lv_mem.h **** void lv_mem_buf_release(void * p);
 116:c:\projects\paindrain\arduinolcd\test\pain drain\libraries\lvgl\src/misc\lv_mem.h **** 
 117:c:\projects\paindrain\arduinolcd\test\pain drain\libraries\lvgl\src/misc\lv_mem.h **** /**
 118:c:\projects\paindrain\arduinolcd\test\pain drain\libraries\lvgl\src/misc\lv_mem.h ****  * Free all memory buffers
 119:c:\projects\paindrain\arduinolcd\test\pain drain\libraries\lvgl\src/misc\lv_mem.h ****  */
 120:c:\projects\paindrain\arduinolcd\test\pain drain\libraries\lvgl\src/misc\lv_mem.h **** void lv_mem_buf_free_all(void);
 121:c:\projects\paindrain\arduinolcd\test\pain drain\libraries\lvgl\src/misc\lv_mem.h **** 
 122:c:\projects\paindrain\arduinolcd\test\pain drain\libraries\lvgl\src/misc\lv_mem.h **** //! @cond Doxygen_Suppress
 123:c:\projects\paindrain\arduinolcd\test\pain drain\libraries\lvgl\src/misc\lv_mem.h **** 
 124:c:\projects\paindrain\arduinolcd\test\pain drain\libraries\lvgl\src/misc\lv_mem.h **** #if LV_MEMCPY_MEMSET_STD
 125:c:\projects\paindrain\arduinolcd\test\pain drain\libraries\lvgl\src/misc\lv_mem.h **** 
 126:c:\projects\paindrain\arduinolcd\test\pain drain\libraries\lvgl\src/misc\lv_mem.h **** /**
 127:c:\projects\paindrain\arduinolcd\test\pain drain\libraries\lvgl\src/misc\lv_mem.h ****  * Wrapper for the standard memcpy
 128:c:\projects\paindrain\arduinolcd\test\pain drain\libraries\lvgl\src/misc\lv_mem.h ****  * @param dst pointer to the destination buffer
 129:c:\projects\paindrain\arduinolcd\test\pain drain\libraries\lvgl\src/misc\lv_mem.h ****  * @param src pointer to the source buffer
 130:c:\projects\paindrain\arduinolcd\test\pain drain\libraries\lvgl\src/misc\lv_mem.h ****  * @param len number of byte to copy
 131:c:\projects\paindrain\arduinolcd\test\pain drain\libraries\lvgl\src/misc\lv_mem.h ****  */
 132:c:\projects\paindrain\arduinolcd\test\pain drain\libraries\lvgl\src/misc\lv_mem.h **** static inline void * lv_memcpy(void * dst, const void * src, size_t len)
 133:c:\projects\paindrain\arduinolcd\test\pain drain\libraries\lvgl\src/misc\lv_mem.h **** {
 134:c:\projects\paindrain\arduinolcd\test\pain drain\libraries\lvgl\src/misc\lv_mem.h ****     return memcpy(dst, src, len);
 135:c:\projects\paindrain\arduinolcd\test\pain drain\libraries\lvgl\src/misc\lv_mem.h **** }
 136:c:\projects\paindrain\arduinolcd\test\pain drain\libraries\lvgl\src/misc\lv_mem.h **** 
 137:c:\projects\paindrain\arduinolcd\test\pain drain\libraries\lvgl\src/misc\lv_mem.h **** /**
ARM GAS  C:\Users\haske\AppData\Local\Temp\cc65HANE.s 			page 42


 138:c:\projects\paindrain\arduinolcd\test\pain drain\libraries\lvgl\src/misc\lv_mem.h ****  * Wrapper for the standard memcpy
 139:c:\projects\paindrain\arduinolcd\test\pain drain\libraries\lvgl\src/misc\lv_mem.h ****  * @param dst pointer to the destination buffer
 140:c:\projects\paindrain\arduinolcd\test\pain drain\libraries\lvgl\src/misc\lv_mem.h ****  * @param src pointer to the source buffer
 141:c:\projects\paindrain\arduinolcd\test\pain drain\libraries\lvgl\src/misc\lv_mem.h ****  * @param len number of byte to copy
 142:c:\projects\paindrain\arduinolcd\test\pain drain\libraries\lvgl\src/misc\lv_mem.h ****  */
 143:c:\projects\paindrain\arduinolcd\test\pain drain\libraries\lvgl\src/misc\lv_mem.h **** static inline void * lv_memcpy_small(void * dst, const void * src, size_t len)
 144:c:\projects\paindrain\arduinolcd\test\pain drain\libraries\lvgl\src/misc\lv_mem.h **** {
 145:c:\projects\paindrain\arduinolcd\test\pain drain\libraries\lvgl\src/misc\lv_mem.h ****     return memcpy(dst, src, len);
 146:c:\projects\paindrain\arduinolcd\test\pain drain\libraries\lvgl\src/misc\lv_mem.h **** }
 147:c:\projects\paindrain\arduinolcd\test\pain drain\libraries\lvgl\src/misc\lv_mem.h **** 
 148:c:\projects\paindrain\arduinolcd\test\pain drain\libraries\lvgl\src/misc\lv_mem.h **** /**
 149:c:\projects\paindrain\arduinolcd\test\pain drain\libraries\lvgl\src/misc\lv_mem.h ****  * Wrapper for the standard memset
 150:c:\projects\paindrain\arduinolcd\test\pain drain\libraries\lvgl\src/misc\lv_mem.h ****  * @param dst pointer to the destination buffer
 151:c:\projects\paindrain\arduinolcd\test\pain drain\libraries\lvgl\src/misc\lv_mem.h ****  * @param v value to set [0..255]
 152:c:\projects\paindrain\arduinolcd\test\pain drain\libraries\lvgl\src/misc\lv_mem.h ****  * @param len number of byte to set
 153:c:\projects\paindrain\arduinolcd\test\pain drain\libraries\lvgl\src/misc\lv_mem.h ****  */
 154:c:\projects\paindrain\arduinolcd\test\pain drain\libraries\lvgl\src/misc\lv_mem.h **** static inline void lv_memset(void * dst, uint8_t v, size_t len)
 155:c:\projects\paindrain\arduinolcd\test\pain drain\libraries\lvgl\src/misc\lv_mem.h **** {
 156:c:\projects\paindrain\arduinolcd\test\pain drain\libraries\lvgl\src/misc\lv_mem.h ****     memset(dst, v, len);
 157:c:\projects\paindrain\arduinolcd\test\pain drain\libraries\lvgl\src/misc\lv_mem.h **** }
 158:c:\projects\paindrain\arduinolcd\test\pain drain\libraries\lvgl\src/misc\lv_mem.h **** 
 159:c:\projects\paindrain\arduinolcd\test\pain drain\libraries\lvgl\src/misc\lv_mem.h **** /**
 160:c:\projects\paindrain\arduinolcd\test\pain drain\libraries\lvgl\src/misc\lv_mem.h ****  * Wrapper for the standard memset with fixed 0x00 value
 161:c:\projects\paindrain\arduinolcd\test\pain drain\libraries\lvgl\src/misc\lv_mem.h ****  * @param dst pointer to the destination buffer
 162:c:\projects\paindrain\arduinolcd\test\pain drain\libraries\lvgl\src/misc\lv_mem.h ****  * @param len number of byte to set
 163:c:\projects\paindrain\arduinolcd\test\pain drain\libraries\lvgl\src/misc\lv_mem.h ****  */
 164:c:\projects\paindrain\arduinolcd\test\pain drain\libraries\lvgl\src/misc\lv_mem.h **** static inline void lv_memset_00(void * dst, size_t len)
 165:c:\projects\paindrain\arduinolcd\test\pain drain\libraries\lvgl\src/misc\lv_mem.h **** {
 166:c:\projects\paindrain\arduinolcd\test\pain drain\libraries\lvgl\src/misc\lv_mem.h ****     memset(dst, 0x00, len);
 167:c:\projects\paindrain\arduinolcd\test\pain drain\libraries\lvgl\src/misc\lv_mem.h **** }
 168:c:\projects\paindrain\arduinolcd\test\pain drain\libraries\lvgl\src/misc\lv_mem.h **** 
 169:c:\projects\paindrain\arduinolcd\test\pain drain\libraries\lvgl\src/misc\lv_mem.h **** /**
 170:c:\projects\paindrain\arduinolcd\test\pain drain\libraries\lvgl\src/misc\lv_mem.h ****  * Wrapper for the standard memset with fixed 0xFF value
 171:c:\projects\paindrain\arduinolcd\test\pain drain\libraries\lvgl\src/misc\lv_mem.h ****  * @param dst pointer to the destination buffer
 172:c:\projects\paindrain\arduinolcd\test\pain drain\libraries\lvgl\src/misc\lv_mem.h ****  * @param len number of byte to set
 173:c:\projects\paindrain\arduinolcd\test\pain drain\libraries\lvgl\src/misc\lv_mem.h ****  */
 174:c:\projects\paindrain\arduinolcd\test\pain drain\libraries\lvgl\src/misc\lv_mem.h **** static inline void lv_memset_ff(void * dst, size_t len)
 175:c:\projects\paindrain\arduinolcd\test\pain drain\libraries\lvgl\src/misc\lv_mem.h **** {
 176:c:\projects\paindrain\arduinolcd\test\pain drain\libraries\lvgl\src/misc\lv_mem.h ****     memset(dst, 0xFF, len);
 177:c:\projects\paindrain\arduinolcd\test\pain drain\libraries\lvgl\src/misc\lv_mem.h **** }
 178:c:\projects\paindrain\arduinolcd\test\pain drain\libraries\lvgl\src/misc\lv_mem.h **** 
 179:c:\projects\paindrain\arduinolcd\test\pain drain\libraries\lvgl\src/misc\lv_mem.h **** #else
 180:c:\projects\paindrain\arduinolcd\test\pain drain\libraries\lvgl\src/misc\lv_mem.h **** /**
 181:c:\projects\paindrain\arduinolcd\test\pain drain\libraries\lvgl\src/misc\lv_mem.h ****  * Same as `memcpy` but optimized for 4 byte operation.
 182:c:\projects\paindrain\arduinolcd\test\pain drain\libraries\lvgl\src/misc\lv_mem.h ****  * @param dst pointer to the destination buffer
 183:c:\projects\paindrain\arduinolcd\test\pain drain\libraries\lvgl\src/misc\lv_mem.h ****  * @param src pointer to the source buffer
 184:c:\projects\paindrain\arduinolcd\test\pain drain\libraries\lvgl\src/misc\lv_mem.h ****  * @param len number of byte to copy
 185:c:\projects\paindrain\arduinolcd\test\pain drain\libraries\lvgl\src/misc\lv_mem.h ****  */
 186:c:\projects\paindrain\arduinolcd\test\pain drain\libraries\lvgl\src/misc\lv_mem.h **** LV_ATTRIBUTE_FAST_MEM void * lv_memcpy(void * dst, const void * src, size_t len);
 187:c:\projects\paindrain\arduinolcd\test\pain drain\libraries\lvgl\src/misc\lv_mem.h **** 
 188:c:\projects\paindrain\arduinolcd\test\pain drain\libraries\lvgl\src/misc\lv_mem.h **** /**
 189:c:\projects\paindrain\arduinolcd\test\pain drain\libraries\lvgl\src/misc\lv_mem.h ****  * Same as `memcpy` but optimized to copy only a few bytes.
 190:c:\projects\paindrain\arduinolcd\test\pain drain\libraries\lvgl\src/misc\lv_mem.h ****  * @param dst pointer to the destination buffer
 191:c:\projects\paindrain\arduinolcd\test\pain drain\libraries\lvgl\src/misc\lv_mem.h ****  * @param src pointer to the source buffer
 192:c:\projects\paindrain\arduinolcd\test\pain drain\libraries\lvgl\src/misc\lv_mem.h ****  * @param len number of byte to copy
 193:c:\projects\paindrain\arduinolcd\test\pain drain\libraries\lvgl\src/misc\lv_mem.h ****  */
 194:c:\projects\paindrain\arduinolcd\test\pain drain\libraries\lvgl\src/misc\lv_mem.h **** LV_ATTRIBUTE_FAST_MEM static inline void * lv_memcpy_small(void * dst, const void * src, size_t len
ARM GAS  C:\Users\haske\AppData\Local\Temp\cc65HANE.s 			page 43


 195:c:\projects\paindrain\arduinolcd\test\pain drain\libraries\lvgl\src/misc\lv_mem.h **** {
 196:c:\projects\paindrain\arduinolcd\test\pain drain\libraries\lvgl\src/misc\lv_mem.h ****     uint8_t * d8 = (uint8_t *)dst;
 197:c:\projects\paindrain\arduinolcd\test\pain drain\libraries\lvgl\src/misc\lv_mem.h ****     const uint8_t * s8 = (const uint8_t *)src;
 1181              		.loc 3 197 0
 1182 005c 3100     		movs	r1, r6
 196:c:\projects\paindrain\arduinolcd\test\pain drain\libraries\lvgl\src/misc\lv_mem.h ****     const uint8_t * s8 = (const uint8_t *)src;
 1183              		.loc 3 196 0
 1184 005e 0200     		movs	r2, r0
 1185 0060 04E0     		b	.L62
 1186              	.LVL192:
 1187              	.L63:
 198:c:\projects\paindrain\arduinolcd\test\pain drain\libraries\lvgl\src/misc\lv_mem.h **** 
 199:c:\projects\paindrain\arduinolcd\test\pain drain\libraries\lvgl\src/misc\lv_mem.h ****     while(len) {
 200:c:\projects\paindrain\arduinolcd\test\pain drain\libraries\lvgl\src/misc\lv_mem.h ****         *d8 = *s8;
 1188              		.loc 3 200 0
 1189 0062 0878     		ldrb	r0, [r1]
 1190 0064 1070     		strb	r0, [r2]
 201:c:\projects\paindrain\arduinolcd\test\pain drain\libraries\lvgl\src/misc\lv_mem.h ****         d8++;
 1191              		.loc 3 201 0
 1192 0066 0132     		adds	r2, r2, #1
 1193              	.LVL193:
 202:c:\projects\paindrain\arduinolcd\test\pain drain\libraries\lvgl\src/misc\lv_mem.h ****         s8++;
 1194              		.loc 3 202 0
 1195 0068 0131     		adds	r1, r1, #1
 1196              	.LVL194:
 203:c:\projects\paindrain\arduinolcd\test\pain drain\libraries\lvgl\src/misc\lv_mem.h ****         len--;
 1197              		.loc 3 203 0
 1198 006a 013B     		subs	r3, r3, #1
 1199              	.LVL195:
 1200              	.L62:
 199:c:\projects\paindrain\arduinolcd\test\pain drain\libraries\lvgl\src/misc\lv_mem.h ****         *d8 = *s8;
 1201              		.loc 3 199 0
 1202 006c 002B     		cmp	r3, #0
 1203 006e F8D1     		bne	.L63
 1204              	.LVL196:
 1205              	.LBE35:
 1206              	.LBE34:
  87:..\..\..\arduinoLCD\test\Pain Drain\libraries\lvgl\src\extra\widgets\tabview/lv_tabview.c ****         strcpy((char *)new_map[tab_id - 1], name);
 1207              		.loc 1 87 0
 1208 0070 A444     		add	ip, ip, r4
 1209 0072 E346     		mov	fp, ip
 1210 0074 0298     		ldr	r0, [sp, #8]
 1211 0076 FFF7FEFF 		bl	strlen
 1212              	.LVL197:
 1213 007a 0130     		adds	r0, r0, #1
 1214 007c FFF7FEFF 		bl	lv_mem_alloc
 1215              	.LVL198:
 1216 0080 5B46     		mov	r3, fp
 1217 0082 1860     		str	r0, [r3]
  88:..\..\..\arduinoLCD\test\Pain Drain\libraries\lvgl\src\extra\widgets\tabview/lv_tabview.c ****         new_map[tab_id] = "";
 1218              		.loc 1 88 0
 1219 0084 0299     		ldr	r1, [sp, #8]
 1220 0086 FFF7FEFF 		bl	strcpy
 1221              	.LVL199:
  89:..\..\..\arduinoLCD\test\Pain Drain\libraries\lvgl\src\extra\widgets\tabview/lv_tabview.c ****     }
 1222              		.loc 1 89 0
 1223 008a AB00     		lsls	r3, r5, #2
ARM GAS  C:\Users\haske\AppData\Local\Temp\cc65HANE.s 			page 44


 1224 008c 354A     		ldr	r2, .L69+8
 1225 008e E250     		str	r2, [r4, r3]
 1226 0090 3EE0     		b	.L64
 1227              	.LVL200:
 1228              	.L61:
  93:..\..\..\arduinoLCD\test\Pain Drain\libraries\lvgl\src\extra\widgets\tabview/lv_tabview.c ****         lv_memcpy_small(new_map, old_map, sizeof(const char *) * (tab_id - 1) * 2);
 1229              		.loc 1 93 0
 1230 0092 EB00     		lsls	r3, r5, #3
 1231 0094 9846     		mov	r8, r3
 1232 0096 1800     		movs	r0, r3
 1233              	.LVL201:
 1234 0098 FFF7FEFF 		bl	lv_mem_alloc
 1235              	.LVL202:
 1236 009c 0400     		movs	r4, r0
 1237              	.LVL203:
  94:..\..\..\arduinoLCD\test\Pain Drain\libraries\lvgl\src\extra\widgets\tabview/lv_tabview.c ****         if(tabview->tab_cnt == 0) {
 1238              		.loc 1 94 0
 1239 009e 304B     		ldr	r3, .L69+4
 1240 00a0 EB18     		adds	r3, r5, r3
 1241 00a2 DB00     		lsls	r3, r3, #3
 1242              	.LVL204:
 1243              	.LBB36:
 1244              	.LBB37:
 197:c:\projects\paindrain\arduinolcd\test\pain drain\libraries\lvgl\src/misc\lv_mem.h **** 
 1245              		.loc 3 197 0
 1246 00a4 3100     		movs	r1, r6
 196:c:\projects\paindrain\arduinolcd\test\pain drain\libraries\lvgl\src/misc\lv_mem.h ****     const uint8_t * s8 = (const uint8_t *)src;
 1247              		.loc 3 196 0
 1248 00a6 0200     		movs	r2, r0
 1249 00a8 04E0     		b	.L65
 1250              	.LVL205:
 1251              	.L66:
 200:c:\projects\paindrain\arduinolcd\test\pain drain\libraries\lvgl\src/misc\lv_mem.h ****         d8++;
 1252              		.loc 3 200 0
 1253 00aa 0878     		ldrb	r0, [r1]
 1254 00ac 1070     		strb	r0, [r2]
 201:c:\projects\paindrain\arduinolcd\test\pain drain\libraries\lvgl\src/misc\lv_mem.h ****         s8++;
 1255              		.loc 3 201 0
 1256 00ae 0132     		adds	r2, r2, #1
 1257              	.LVL206:
 202:c:\projects\paindrain\arduinolcd\test\pain drain\libraries\lvgl\src/misc\lv_mem.h ****         len--;
 1258              		.loc 3 202 0
 1259 00b0 0131     		adds	r1, r1, #1
 1260              	.LVL207:
 1261              		.loc 3 203 0
 1262 00b2 013B     		subs	r3, r3, #1
 1263              	.LVL208:
 1264              	.L65:
 199:c:\projects\paindrain\arduinolcd\test\pain drain\libraries\lvgl\src/misc\lv_mem.h ****         *d8 = *s8;
 1265              		.loc 3 199 0
 1266 00b4 002B     		cmp	r3, #0
 1267 00b6 F8D1     		bne	.L66
 1268              	.LVL209:
 1269              	.LBE37:
 1270              	.LBE36:
  95:..\..\..\arduinoLCD\test\Pain Drain\libraries\lvgl\src\extra\widgets\tabview/lv_tabview.c ****             new_map[0] = lv_mem_alloc(strlen(name) + 1);
 1271              		.loc 1 95 0
ARM GAS  C:\Users\haske\AppData\Local\Temp\cc65HANE.s 			page 45


 1272 00b8 3B8D     		ldrh	r3, [r7, #40]
 1273 00ba 002B     		cmp	r3, #0
 1274 00bc 0DD1     		bne	.L67
  96:..\..\..\arduinoLCD\test\Pain Drain\libraries\lvgl\src\extra\widgets\tabview/lv_tabview.c ****             strcpy((char *)new_map[0], name);
 1275              		.loc 1 96 0
 1276 00be 029D     		ldr	r5, [sp, #8]
 1277              	.LVL210:
 1278 00c0 2800     		movs	r0, r5
 1279 00c2 FFF7FEFF 		bl	strlen
 1280              	.LVL211:
 1281 00c6 0130     		adds	r0, r0, #1
 1282 00c8 FFF7FEFF 		bl	lv_mem_alloc
 1283              	.LVL212:
 1284 00cc 2060     		str	r0, [r4]
  97:..\..\..\arduinoLCD\test\Pain Drain\libraries\lvgl\src\extra\widgets\tabview/lv_tabview.c ****             new_map[1] = "";
 1285              		.loc 1 97 0
 1286 00ce 2900     		movs	r1, r5
 1287 00d0 FFF7FEFF 		bl	strcpy
 1288              	.LVL213:
  98:..\..\..\arduinoLCD\test\Pain Drain\libraries\lvgl\src\extra\widgets\tabview/lv_tabview.c ****         }
 1289              		.loc 1 98 0
 1290 00d4 234B     		ldr	r3, .L69+8
 1291 00d6 6360     		str	r3, [r4, #4]
 1292 00d8 1AE0     		b	.L64
 1293              	.LVL214:
 1294              	.L67:
 101:..\..\..\arduinoLCD\test\Pain Drain\libraries\lvgl\src\extra\widgets\tabview/lv_tabview.c ****             new_map[tab_id * 2 - 2] = lv_mem_alloc(strlen(name) + 1);
 1295              		.loc 1 101 0
 1296 00da 4346     		mov	r3, r8
 1297 00dc 0C3B     		subs	r3, r3, #12
 1298 00de 224A     		ldr	r2, .L69+12
 1299              	.LVL215:
 1300 00e0 E250     		str	r2, [r4, r3]
 102:..\..\..\arduinoLCD\test\Pain Drain\libraries\lvgl\src\extra\widgets\tabview/lv_tabview.c ****             new_map[tab_id * 2 - 1] = "";
 1301              		.loc 1 102 0
 1302 00e2 224B     		ldr	r3, .L69+16
 1303 00e4 EB18     		adds	r3, r5, r3
 1304 00e6 DB00     		lsls	r3, r3, #3
 1305 00e8 9946     		mov	r9, r3
 1306 00ea A144     		add	r9, r9, r4
 1307 00ec 029D     		ldr	r5, [sp, #8]
 1308              	.LVL216:
 1309 00ee 2800     		movs	r0, r5
 1310 00f0 FFF7FEFF 		bl	strlen
 1311              	.LVL217:
 1312 00f4 0130     		adds	r0, r0, #1
 1313 00f6 FFF7FEFF 		bl	lv_mem_alloc
 1314              	.LVL218:
 1315 00fa 4B46     		mov	r3, r9
 1316 00fc 1860     		str	r0, [r3]
 103:..\..\..\arduinoLCD\test\Pain Drain\libraries\lvgl\src\extra\widgets\tabview/lv_tabview.c ****             strcpy((char *)new_map[(tab_id * 2) - 2], name);
 1317              		.loc 1 103 0
 1318 00fe 4346     		mov	r3, r8
 1319 0100 043B     		subs	r3, r3, #4
 1320 0102 184A     		ldr	r2, .L69+8
 1321 0104 E250     		str	r2, [r4, r3]
 104:..\..\..\arduinoLCD\test\Pain Drain\libraries\lvgl\src\extra\widgets\tabview/lv_tabview.c ****         }
ARM GAS  C:\Users\haske\AppData\Local\Temp\cc65HANE.s 			page 46


 1322              		.loc 1 104 0
 1323 0106 4B46     		mov	r3, r9
 1324 0108 1868     		ldr	r0, [r3]
 1325 010a 2900     		movs	r1, r5
 1326 010c FFF7FEFF 		bl	strcpy
 1327              	.LVL219:
 1328              	.L64:
 107:..\..\..\arduinoLCD\test\Pain Drain\libraries\lvgl\src\extra\widgets\tabview/lv_tabview.c ****     lv_btnmatrix_set_map(btns, (const char **)new_map);
 1329              		.loc 1 107 0
 1330 0110 7C62     		str	r4, [r7, #36]
 108:..\..\..\arduinoLCD\test\Pain Drain\libraries\lvgl\src\extra\widgets\tabview/lv_tabview.c ****     lv_mem_free(old_map);
 1331              		.loc 1 108 0
 1332 0112 2100     		movs	r1, r4
 1333 0114 019C     		ldr	r4, [sp, #4]
 1334              	.LVL220:
 1335 0116 2000     		movs	r0, r4
 1336 0118 FFF7FEFF 		bl	lv_btnmatrix_set_map
 1337              	.LVL221:
 109:..\..\..\arduinoLCD\test\Pain Drain\libraries\lvgl\src\extra\widgets\tabview/lv_tabview.c **** 
 1338              		.loc 1 109 0
 1339 011c 3000     		movs	r0, r6
 1340 011e FFF7FEFF 		bl	lv_mem_free
 1341              	.LVL222:
 111:..\..\..\arduinoLCD\test\Pain Drain\libraries\lvgl\src\extra\widgets\tabview/lv_tabview.c ****                                   LV_BTNMATRIX_CTRL_NO_REPEAT);
 1342              		.loc 1 111 0
 1343 0122 A821     		movs	r1, #168
 1344 0124 4900     		lsls	r1, r1, #1
 1345 0126 2000     		movs	r0, r4
 1346 0128 FFF7FEFF 		bl	lv_btnmatrix_set_btn_ctrl_all
 1347              	.LVL223:
 114:..\..\..\arduinoLCD\test\Pain Drain\libraries\lvgl\src\extra\widgets\tabview/lv_tabview.c ****     if(tabview->tab_cnt == 1) {
 1348              		.loc 1 114 0
 1349 012c 3B8D     		ldrh	r3, [r7, #40]
 1350 012e 0133     		adds	r3, r3, #1
 1351 0130 9BB2     		uxth	r3, r3
 1352 0132 3B85     		strh	r3, [r7, #40]
 115:..\..\..\arduinoLCD\test\Pain Drain\libraries\lvgl\src\extra\widgets\tabview/lv_tabview.c ****         lv_tabview_set_act(obj, 0, LV_ANIM_OFF);
 1353              		.loc 1 115 0
 1354 0134 012B     		cmp	r3, #1
 1355 0136 04D1     		bne	.L68
 116:..\..\..\arduinoLCD\test\Pain Drain\libraries\lvgl\src\extra\widgets\tabview/lv_tabview.c ****     }
 1356              		.loc 1 116 0
 1357 0138 0022     		movs	r2, #0
 1358 013a 0021     		movs	r1, #0
 1359 013c 3800     		movs	r0, r7
 1360 013e FFF7FEFF 		bl	lv_tabview_set_act
 1361              	.LVL224:
 1362              	.L68:
 119:..\..\..\arduinoLCD\test\Pain Drain\libraries\lvgl\src\extra\widgets\tabview/lv_tabview.c **** 
 1363              		.loc 1 119 0
 1364 0142 798D     		ldrh	r1, [r7, #42]
 1365 0144 8022     		movs	r2, #128
 1366 0146 0198     		ldr	r0, [sp, #4]
 1367 0148 FFF7FEFF 		bl	lv_btnmatrix_set_btn_ctrl
 1368              	.LVL225:
 122:..\..\..\arduinoLCD\test\Pain Drain\libraries\lvgl\src\extra\widgets\tabview/lv_tabview.c **** 
 1369              		.loc 1 122 0
ARM GAS  C:\Users\haske\AppData\Local\Temp\cc65HANE.s 			page 47


 1370 014c 0398     		ldr	r0, [sp, #12]
 1371 014e 04B0     		add	sp, sp, #16
 1372              		@ sp needed
 1373              	.LVL226:
 1374              	.LVL227:
 1375 0150 1CBC     		pop	{r2, r3, r4}
 1376 0152 9046     		mov	r8, r2
 1377 0154 9946     		mov	r9, r3
 1378 0156 A346     		mov	fp, r4
 1379 0158 F0BD     		pop	{r4, r5, r6, r7, pc}
 1380              	.L70:
 1381 015a C046     		.align	2
 1382              	.L69:
 1383 015c 64200000 		.word	8292
 1384 0160 FFFFFF3F 		.word	1073741823
 1385 0164 00000000 		.word	.LC1
 1386 0168 04000000 		.word	.LC9
 1387 016c FFFFFF1F 		.word	536870911
 1388              		.cfi_endproc
 1389              	.LFE203:
 1390              		.size	lv_tabview_add_tab, .-lv_tabview_add_tab
 1391              		.global	lv_tabview_class
 1392              		.section	.rodata
 1393              		.align	2
 1394              		.set	.LANCHOR1,. + 0
 1395              		.type	lv_tabview_class, %object
 1396              		.size	lv_tabview_class, 28
 1397              	lv_tabview_class:
 1398 0000 00000000 		.word	lv_obj_class
 1399 0004 00000000 		.word	lv_tabview_constructor
 1400 0008 00000000 		.word	lv_tabview_destructor
 1401 000c 00000000 		.space	4
 1402 0010 00000000 		.word	lv_tabview_event
 1403 0014 6420     		.short	8292
 1404 0016 6420     		.short	8292
 1405 0018 00       		.byte	0
 1406 0019 03       		.byte	3
 1407 001a 00       		.byte	0
 1408 001b 00       		.space	1
 1409              		.section	.rodata.str1.4,"aMS",%progbits,1
 1410              		.align	2
 1411              	.LC1:
 1412 0000 00       		.ascii	"\000"
 1413 0001 000000   		.space	3
 1414              	.LC9:
 1415 0004 0A00     		.ascii	"\012\000"
 1416              		.bss
 1417              		.align	1
 1418              		.set	.LANCHOR0,. + 0
 1419              		.type	tabpos_create, %object
 1420              		.size	tabpos_create, 1
 1421              	tabpos_create:
 1422 0000 00       		.space	1
 1423 0001 00       		.space	1
 1424              		.type	tabsize_create, %object
 1425              		.size	tabsize_create, 2
 1426              	tabsize_create:
ARM GAS  C:\Users\haske\AppData\Local\Temp\cc65HANE.s 			page 48


 1427 0002 0000     		.space	2
 1428              		.text
 1429              	.Letext0:
 1430              		.file 4 "c:\\program files (x86)\\cypress\\psoc creator\\4.4\\psoc creator\\import\\gnu\\arm\\5.4.
 1431              		.file 5 "c:\\program files (x86)\\cypress\\psoc creator\\4.4\\psoc creator\\import\\gnu\\arm\\5.4.
 1432              		.file 6 "c:\\projects\\paindrain\\arduinolcd\\test\\pain drain\\libraries\\lvgl\\src/misc/lv_types
 1433              		.file 7 "c:\\projects\\paindrain\\arduinolcd\\test\\pain drain\\libraries\\lvgl\\src/misc/lv_timer
 1434              		.file 8 "c:\\program files (x86)\\cypress\\psoc creator\\4.4\\psoc creator\\import\\gnu\\arm\\5.4.
 1435              		.file 9 "c:\\projects\\paindrain\\arduinolcd\\test\\pain drain\\libraries\\lvgl\\src/misc/lv_anim.
 1436              		.file 10 "c:\\projects\\paindrain\\arduinolcd\\test\\pain drain\\libraries\\lvgl\\src\\misc\\lv_ar
 1437              		.file 11 "c:\\projects\\paindrain\\arduinolcd\\test\\pain drain\\libraries\\lvgl\\src\\font\\lv_fo
 1438              		.file 12 "c:\\projects\\paindrain\\arduinolcd\\test\\pain drain\\libraries\\lvgl\\src\\misc\\lv_co
 1439              		.file 13 "c:\\projects\\paindrain\\arduinolcd\\test\\pain drain\\libraries\\lvgl\\src\\misc\\lv_tx
 1440              		.file 14 "c:\\projects\\paindrain\\arduinolcd\\test\\pain drain\\libraries\\lvgl\\src\\misc\\lv_bi
 1441              		.file 15 "c:\\projects\\paindrain\\arduinolcd\\test\\pain drain\\libraries\\lvgl\\src\\misc\\lv_st
 1442              		.file 16 "c:\\projects\\paindrain\\arduinolcd\\test\\pain drain\\libraries\\lvgl\\src\\draw\\lv_im
 1443              		.file 17 "c:\\projects\\paindrain\\arduinolcd\\test\\pain drain\\libraries\\lvgl\\src/core/lv_obj.
 1444              		.file 18 "c:\\projects\\paindrain\\arduinolcd\\test\\pain drain\\libraries\\lvgl\\src\\draw\\lv_dr
 1445              		.file 19 "c:\\projects\\paindrain\\arduinolcd\\test\\pain drain\\libraries\\lvgl\\src\\draw\\lv_dr
 1446              		.file 20 "c:\\projects\\paindrain\\arduinolcd\\test\\pain drain\\libraries\\lvgl\\src\\draw\\lv_dr
 1447              		.file 21 "c:\\projects\\paindrain\\arduinolcd\\test\\pain drain\\libraries\\lvgl\\src\\draw\\lv_dr
 1448              		.file 22 "c:\\projects\\paindrain\\arduinolcd\\test\\pain drain\\libraries\\lvgl\\src\\draw\\lv_dr
 1449              		.file 23 "c:\\projects\\paindrain\\arduinolcd\\test\\pain drain\\libraries\\lvgl\\src\\draw\\lv_dr
 1450              		.file 24 "c:\\projects\\paindrain\\arduinolcd\\test\\pain drain\\libraries\\lvgl\\src\\draw\\lv_dr
 1451              		.file 25 "c:\\projects\\paindrain\\arduinolcd\\test\\pain drain\\libraries\\lvgl\\src\\misc\\lv_ll
 1452              		.file 26 "c:\\projects\\paindrain\\arduinolcd\\test\\pain drain\\libraries\\lvgl\\src/hal/lv_hal_d
 1453              		.file 27 "c:\\projects\\paindrain\\arduinolcd\\test\\pain drain\\libraries\\lvgl\\src/core/lv_them
 1454              		.file 28 "c:\\projects\\paindrain\\arduinolcd\\test\\pain drain\\libraries\\lvgl\\src/hal/lv_hal_i
 1455              		.file 29 "c:\\projects\\paindrain\\arduinolcd\\test\\pain drain\\libraries\\lvgl\\src/core/lv_grou
 1456              		.file 30 "c:\\projects\\paindrain\\arduinolcd\\test\\pain drain\\libraries\\lvgl\\src/core/lv_obj_
 1457              		.file 31 "c:\\projects\\paindrain\\arduinolcd\\test\\pain drain\\libraries\\lvgl\\src/core/lv_obj_
 1458              		.file 32 "c:\\projects\\paindrain\\arduinolcd\\test\\pain drain\\libraries\\lvgl\\src/core/lv_obj_
 1459              		.file 33 "c:\\projects\\paindrain\\arduinolcd\\test\\pain drain\\libraries\\lvgl\\src/core/lv_even
 1460              		.file 34 "c:\\projects\\paindrain\\arduinolcd\\test\\pain drain\\libraries\\lvgl\\src/widgets/lv_b
 1461              		.file 35 "c:\\projects\\paindrain\\arduinolcd\\test\\pain drain\\libraries\\lvgl\\src/widgets/lv_b
 1462              		.file 36 "c:\\projects\\paindrain\\arduinolcd\\test\\pain drain\\libraries\\lvgl\\src/extra/layout
 1463              		.file 37 "c:\\projects\\paindrain\\arduinolcd\\test\\pain drain\\libraries\\lvgl\\src/extra/widget
 1464              		.file 38 "..\\..\\..\\arduinoLCD\\test\\Pain Drain\\libraries\\lvgl\\src\\extra\\widgets\\tabview\
 1465              		.file 39 "c:\\projects\\paindrain\\arduinolcd\\test\\pain drain\\libraries\\lvgl\\src/extra/layout
 1466              		.file 40 "c:\\projects\\paindrain\\arduinolcd\\test\\pain drain\\libraries\\lvgl\\src\\core\\lv_ob
 1467              		.file 41 "c:\\program files (x86)\\cypress\\psoc creator\\4.4\\psoc creator\\import\\gnu\\arm\\5.4
 1468              		.file 42 "c:\\projects\\paindrain\\arduinolcd\\test\\pain drain\\libraries\\lvgl\\src/core/lv_obj_
 1469              		.file 43 "c:\\projects\\paindrain\\arduinolcd\\test\\pain drain\\libraries\\lvgl\\src/core/lv_inde