ARM GAS  C:\Users\haske\AppData\Local\Temp\ccSAQWsX.s 			page 1


   1              		.syntax unified
   2              		.cpu cortex-m0plus
   3              		.fpu softvfp
   4              		.eabi_attribute 20, 1
   5              		.eabi_attribute 21, 1
   6              		.eabi_attribute 23, 3
   7              		.eabi_attribute 24, 1
   8              		.eabi_attribute 25, 1
   9              		.eabi_attribute 26, 1
  10              		.eabi_attribute 30, 1
  11              		.eabi_attribute 34, 0
  12              		.eabi_attribute 18, 4
  13              		.thumb
  14              		.syntax unified
  15              		.file	"lv_theme_mono.c"
  16              		.text
  17              	.Ltext0:
  18              		.cfi_sections	.debug_frame
  19              		.section	.text.theme_apply,"ax",%progbits
  20              		.align	2
  21              		.code	16
  22              		.thumb_func
  23              		.type	theme_apply, %function
  24              	theme_apply:
  25              	.LFB205:
  26              		.file 1 "..\\..\\..\\arduinoLCD\\test\\Pain Drain\\libraries\\lvgl\\src\\extra\\themes\\mono\\lv_t
   1:..\..\..\arduinoLCD\test\Pain Drain\libraries\lvgl\src\extra\themes\mono/lv_theme_mono.c **** /**
   2:..\..\..\arduinoLCD\test\Pain Drain\libraries\lvgl\src\extra\themes\mono/lv_theme_mono.c ****  * @file lv_theme_mono.c
   3:..\..\..\arduinoLCD\test\Pain Drain\libraries\lvgl\src\extra\themes\mono/lv_theme_mono.c ****  *
   4:..\..\..\arduinoLCD\test\Pain Drain\libraries\lvgl\src\extra\themes\mono/lv_theme_mono.c ****  */
   5:..\..\..\arduinoLCD\test\Pain Drain\libraries\lvgl\src\extra\themes\mono/lv_theme_mono.c **** 
   6:..\..\..\arduinoLCD\test\Pain Drain\libraries\lvgl\src\extra\themes\mono/lv_theme_mono.c **** /*********************
   7:..\..\..\arduinoLCD\test\Pain Drain\libraries\lvgl\src\extra\themes\mono/lv_theme_mono.c ****  *      INCLUDES
   8:..\..\..\arduinoLCD\test\Pain Drain\libraries\lvgl\src\extra\themes\mono/lv_theme_mono.c ****  *********************/
   9:..\..\..\arduinoLCD\test\Pain Drain\libraries\lvgl\src\extra\themes\mono/lv_theme_mono.c **** #include "../../../lvgl.h"
  10:..\..\..\arduinoLCD\test\Pain Drain\libraries\lvgl\src\extra\themes\mono/lv_theme_mono.c **** 
  11:..\..\..\arduinoLCD\test\Pain Drain\libraries\lvgl\src\extra\themes\mono/lv_theme_mono.c **** #if LV_USE_THEME_MONO
  12:..\..\..\arduinoLCD\test\Pain Drain\libraries\lvgl\src\extra\themes\mono/lv_theme_mono.c **** 
  13:..\..\..\arduinoLCD\test\Pain Drain\libraries\lvgl\src\extra\themes\mono/lv_theme_mono.c **** #include "lv_theme_mono.h"
  14:..\..\..\arduinoLCD\test\Pain Drain\libraries\lvgl\src\extra\themes\mono/lv_theme_mono.c **** #include "../../../misc/lv_gc.h"
  15:..\..\..\arduinoLCD\test\Pain Drain\libraries\lvgl\src\extra\themes\mono/lv_theme_mono.c **** 
  16:..\..\..\arduinoLCD\test\Pain Drain\libraries\lvgl\src\extra\themes\mono/lv_theme_mono.c **** /*********************
  17:..\..\..\arduinoLCD\test\Pain Drain\libraries\lvgl\src\extra\themes\mono/lv_theme_mono.c ****  *      DEFINES
  18:..\..\..\arduinoLCD\test\Pain Drain\libraries\lvgl\src\extra\themes\mono/lv_theme_mono.c ****  *********************/
  19:..\..\..\arduinoLCD\test\Pain Drain\libraries\lvgl\src\extra\themes\mono/lv_theme_mono.c **** 
  20:..\..\..\arduinoLCD\test\Pain Drain\libraries\lvgl\src\extra\themes\mono/lv_theme_mono.c **** #define COLOR_FG      dark_bg ? lv_color_white() : lv_color_black()
  21:..\..\..\arduinoLCD\test\Pain Drain\libraries\lvgl\src\extra\themes\mono/lv_theme_mono.c **** #define COLOR_BG      dark_bg ? lv_color_black() : lv_color_white()
  22:..\..\..\arduinoLCD\test\Pain Drain\libraries\lvgl\src\extra\themes\mono/lv_theme_mono.c **** 
  23:..\..\..\arduinoLCD\test\Pain Drain\libraries\lvgl\src\extra\themes\mono/lv_theme_mono.c **** #define BORDER_W_NORMAL  1
  24:..\..\..\arduinoLCD\test\Pain Drain\libraries\lvgl\src\extra\themes\mono/lv_theme_mono.c **** #define BORDER_W_PR      3
  25:..\..\..\arduinoLCD\test\Pain Drain\libraries\lvgl\src\extra\themes\mono/lv_theme_mono.c **** #define BORDER_W_DIS     0
  26:..\..\..\arduinoLCD\test\Pain Drain\libraries\lvgl\src\extra\themes\mono/lv_theme_mono.c **** #define BORDER_W_FOCUS   1
  27:..\..\..\arduinoLCD\test\Pain Drain\libraries\lvgl\src\extra\themes\mono/lv_theme_mono.c **** #define BORDER_W_EDIT    2
  28:..\..\..\arduinoLCD\test\Pain Drain\libraries\lvgl\src\extra\themes\mono/lv_theme_mono.c **** #define PAD_DEF          4
  29:..\..\..\arduinoLCD\test\Pain Drain\libraries\lvgl\src\extra\themes\mono/lv_theme_mono.c **** 
  30:..\..\..\arduinoLCD\test\Pain Drain\libraries\lvgl\src\extra\themes\mono/lv_theme_mono.c **** /**********************
  31:..\..\..\arduinoLCD\test\Pain Drain\libraries\lvgl\src\extra\themes\mono/lv_theme_mono.c ****  *      TYPEDEFS
ARM GAS  C:\Users\haske\AppData\Local\Temp\ccSAQWsX.s 			page 2


  32:..\..\..\arduinoLCD\test\Pain Drain\libraries\lvgl\src\extra\themes\mono/lv_theme_mono.c ****  **********************/
  33:..\..\..\arduinoLCD\test\Pain Drain\libraries\lvgl\src\extra\themes\mono/lv_theme_mono.c **** typedef struct {
  34:..\..\..\arduinoLCD\test\Pain Drain\libraries\lvgl\src\extra\themes\mono/lv_theme_mono.c ****     lv_style_t scr;
  35:..\..\..\arduinoLCD\test\Pain Drain\libraries\lvgl\src\extra\themes\mono/lv_theme_mono.c ****     lv_style_t card;
  36:..\..\..\arduinoLCD\test\Pain Drain\libraries\lvgl\src\extra\themes\mono/lv_theme_mono.c ****     lv_style_t scrollbar;
  37:..\..\..\arduinoLCD\test\Pain Drain\libraries\lvgl\src\extra\themes\mono/lv_theme_mono.c ****     lv_style_t btn;
  38:..\..\..\arduinoLCD\test\Pain Drain\libraries\lvgl\src\extra\themes\mono/lv_theme_mono.c ****     lv_style_t pr;
  39:..\..\..\arduinoLCD\test\Pain Drain\libraries\lvgl\src\extra\themes\mono/lv_theme_mono.c ****     lv_style_t inv;
  40:..\..\..\arduinoLCD\test\Pain Drain\libraries\lvgl\src\extra\themes\mono/lv_theme_mono.c ****     lv_style_t disabled;
  41:..\..\..\arduinoLCD\test\Pain Drain\libraries\lvgl\src\extra\themes\mono/lv_theme_mono.c ****     lv_style_t focus;
  42:..\..\..\arduinoLCD\test\Pain Drain\libraries\lvgl\src\extra\themes\mono/lv_theme_mono.c ****     lv_style_t edit;
  43:..\..\..\arduinoLCD\test\Pain Drain\libraries\lvgl\src\extra\themes\mono/lv_theme_mono.c ****     lv_style_t pad_gap;
  44:..\..\..\arduinoLCD\test\Pain Drain\libraries\lvgl\src\extra\themes\mono/lv_theme_mono.c ****     lv_style_t pad_zero;
  45:..\..\..\arduinoLCD\test\Pain Drain\libraries\lvgl\src\extra\themes\mono/lv_theme_mono.c ****     lv_style_t no_radius;
  46:..\..\..\arduinoLCD\test\Pain Drain\libraries\lvgl\src\extra\themes\mono/lv_theme_mono.c ****     lv_style_t radius_circle;
  47:..\..\..\arduinoLCD\test\Pain Drain\libraries\lvgl\src\extra\themes\mono/lv_theme_mono.c ****     lv_style_t large_border;
  48:..\..\..\arduinoLCD\test\Pain Drain\libraries\lvgl\src\extra\themes\mono/lv_theme_mono.c ****     lv_style_t large_line_space;
  49:..\..\..\arduinoLCD\test\Pain Drain\libraries\lvgl\src\extra\themes\mono/lv_theme_mono.c ****     lv_style_t underline;
  50:..\..\..\arduinoLCD\test\Pain Drain\libraries\lvgl\src\extra\themes\mono/lv_theme_mono.c **** #if LV_USE_TEXTAREA
  51:..\..\..\arduinoLCD\test\Pain Drain\libraries\lvgl\src\extra\themes\mono/lv_theme_mono.c ****     lv_style_t ta_cursor;
  52:..\..\..\arduinoLCD\test\Pain Drain\libraries\lvgl\src\extra\themes\mono/lv_theme_mono.c **** #endif
  53:..\..\..\arduinoLCD\test\Pain Drain\libraries\lvgl\src\extra\themes\mono/lv_theme_mono.c **** } my_theme_styles_t;
  54:..\..\..\arduinoLCD\test\Pain Drain\libraries\lvgl\src\extra\themes\mono/lv_theme_mono.c **** 
  55:..\..\..\arduinoLCD\test\Pain Drain\libraries\lvgl\src\extra\themes\mono/lv_theme_mono.c **** 
  56:..\..\..\arduinoLCD\test\Pain Drain\libraries\lvgl\src\extra\themes\mono/lv_theme_mono.c **** /**********************
  57:..\..\..\arduinoLCD\test\Pain Drain\libraries\lvgl\src\extra\themes\mono/lv_theme_mono.c ****  *  STATIC PROTOTYPES
  58:..\..\..\arduinoLCD\test\Pain Drain\libraries\lvgl\src\extra\themes\mono/lv_theme_mono.c ****  **********************/
  59:..\..\..\arduinoLCD\test\Pain Drain\libraries\lvgl\src\extra\themes\mono/lv_theme_mono.c **** static void style_init_reset(lv_style_t * style);
  60:..\..\..\arduinoLCD\test\Pain Drain\libraries\lvgl\src\extra\themes\mono/lv_theme_mono.c **** static void theme_apply(lv_theme_t * th, lv_obj_t * obj);
  61:..\..\..\arduinoLCD\test\Pain Drain\libraries\lvgl\src\extra\themes\mono/lv_theme_mono.c **** 
  62:..\..\..\arduinoLCD\test\Pain Drain\libraries\lvgl\src\extra\themes\mono/lv_theme_mono.c **** /**********************
  63:..\..\..\arduinoLCD\test\Pain Drain\libraries\lvgl\src\extra\themes\mono/lv_theme_mono.c ****  *  STATIC VARIABLES
  64:..\..\..\arduinoLCD\test\Pain Drain\libraries\lvgl\src\extra\themes\mono/lv_theme_mono.c ****  **********************/
  65:..\..\..\arduinoLCD\test\Pain Drain\libraries\lvgl\src\extra\themes\mono/lv_theme_mono.c **** static my_theme_styles_t * styles;
  66:..\..\..\arduinoLCD\test\Pain Drain\libraries\lvgl\src\extra\themes\mono/lv_theme_mono.c **** static lv_theme_t theme;
  67:..\..\..\arduinoLCD\test\Pain Drain\libraries\lvgl\src\extra\themes\mono/lv_theme_mono.c **** static bool inited;
  68:..\..\..\arduinoLCD\test\Pain Drain\libraries\lvgl\src\extra\themes\mono/lv_theme_mono.c **** 
  69:..\..\..\arduinoLCD\test\Pain Drain\libraries\lvgl\src\extra\themes\mono/lv_theme_mono.c **** /**********************
  70:..\..\..\arduinoLCD\test\Pain Drain\libraries\lvgl\src\extra\themes\mono/lv_theme_mono.c ****  *      MACROS
  71:..\..\..\arduinoLCD\test\Pain Drain\libraries\lvgl\src\extra\themes\mono/lv_theme_mono.c ****  **********************/
  72:..\..\..\arduinoLCD\test\Pain Drain\libraries\lvgl\src\extra\themes\mono/lv_theme_mono.c **** 
  73:..\..\..\arduinoLCD\test\Pain Drain\libraries\lvgl\src\extra\themes\mono/lv_theme_mono.c **** /**********************
  74:..\..\..\arduinoLCD\test\Pain Drain\libraries\lvgl\src\extra\themes\mono/lv_theme_mono.c ****  *   STATIC FUNCTIONS
  75:..\..\..\arduinoLCD\test\Pain Drain\libraries\lvgl\src\extra\themes\mono/lv_theme_mono.c ****  **********************/
  76:..\..\..\arduinoLCD\test\Pain Drain\libraries\lvgl\src\extra\themes\mono/lv_theme_mono.c **** 
  77:..\..\..\arduinoLCD\test\Pain Drain\libraries\lvgl\src\extra\themes\mono/lv_theme_mono.c **** static void style_init(bool dark_bg, const lv_font_t * font)
  78:..\..\..\arduinoLCD\test\Pain Drain\libraries\lvgl\src\extra\themes\mono/lv_theme_mono.c **** {
  79:..\..\..\arduinoLCD\test\Pain Drain\libraries\lvgl\src\extra\themes\mono/lv_theme_mono.c ****     style_init_reset(&styles->scrollbar);
  80:..\..\..\arduinoLCD\test\Pain Drain\libraries\lvgl\src\extra\themes\mono/lv_theme_mono.c ****     lv_style_set_bg_opa(&styles->scrollbar, LV_OPA_COVER);
  81:..\..\..\arduinoLCD\test\Pain Drain\libraries\lvgl\src\extra\themes\mono/lv_theme_mono.c ****     lv_style_set_bg_color(&styles->scrollbar, COLOR_FG);
  82:..\..\..\arduinoLCD\test\Pain Drain\libraries\lvgl\src\extra\themes\mono/lv_theme_mono.c ****     lv_style_set_width(&styles->scrollbar,  PAD_DEF);
  83:..\..\..\arduinoLCD\test\Pain Drain\libraries\lvgl\src\extra\themes\mono/lv_theme_mono.c **** 
  84:..\..\..\arduinoLCD\test\Pain Drain\libraries\lvgl\src\extra\themes\mono/lv_theme_mono.c ****     style_init_reset(&styles->scr);
  85:..\..\..\arduinoLCD\test\Pain Drain\libraries\lvgl\src\extra\themes\mono/lv_theme_mono.c ****     lv_style_set_bg_opa(&styles->scr, LV_OPA_COVER);
  86:..\..\..\arduinoLCD\test\Pain Drain\libraries\lvgl\src\extra\themes\mono/lv_theme_mono.c ****     lv_style_set_bg_color(&styles->scr, COLOR_BG);
  87:..\..\..\arduinoLCD\test\Pain Drain\libraries\lvgl\src\extra\themes\mono/lv_theme_mono.c ****     lv_style_set_text_color(&styles->scr, COLOR_FG);
  88:..\..\..\arduinoLCD\test\Pain Drain\libraries\lvgl\src\extra\themes\mono/lv_theme_mono.c ****     lv_style_set_pad_row(&styles->scr, PAD_DEF);
ARM GAS  C:\Users\haske\AppData\Local\Temp\ccSAQWsX.s 			page 3


  89:..\..\..\arduinoLCD\test\Pain Drain\libraries\lvgl\src\extra\themes\mono/lv_theme_mono.c ****     lv_style_set_pad_column(&styles->scr, PAD_DEF);
  90:..\..\..\arduinoLCD\test\Pain Drain\libraries\lvgl\src\extra\themes\mono/lv_theme_mono.c ****     lv_style_set_text_font(&styles->scr, font);
  91:..\..\..\arduinoLCD\test\Pain Drain\libraries\lvgl\src\extra\themes\mono/lv_theme_mono.c **** 
  92:..\..\..\arduinoLCD\test\Pain Drain\libraries\lvgl\src\extra\themes\mono/lv_theme_mono.c ****     style_init_reset(&styles->card);
  93:..\..\..\arduinoLCD\test\Pain Drain\libraries\lvgl\src\extra\themes\mono/lv_theme_mono.c ****     lv_style_set_bg_opa(&styles->card, LV_OPA_COVER);
  94:..\..\..\arduinoLCD\test\Pain Drain\libraries\lvgl\src\extra\themes\mono/lv_theme_mono.c ****     lv_style_set_bg_color(&styles->card, COLOR_BG);
  95:..\..\..\arduinoLCD\test\Pain Drain\libraries\lvgl\src\extra\themes\mono/lv_theme_mono.c ****     lv_style_set_border_color(&styles->card, COLOR_FG);
  96:..\..\..\arduinoLCD\test\Pain Drain\libraries\lvgl\src\extra\themes\mono/lv_theme_mono.c ****     lv_style_set_radius(&styles->card, 2);
  97:..\..\..\arduinoLCD\test\Pain Drain\libraries\lvgl\src\extra\themes\mono/lv_theme_mono.c ****     lv_style_set_border_width(&styles->card, BORDER_W_NORMAL);
  98:..\..\..\arduinoLCD\test\Pain Drain\libraries\lvgl\src\extra\themes\mono/lv_theme_mono.c ****     lv_style_set_pad_all(&styles->card, PAD_DEF);
  99:..\..\..\arduinoLCD\test\Pain Drain\libraries\lvgl\src\extra\themes\mono/lv_theme_mono.c ****     lv_style_set_pad_gap(&styles->card, PAD_DEF);
 100:..\..\..\arduinoLCD\test\Pain Drain\libraries\lvgl\src\extra\themes\mono/lv_theme_mono.c ****     lv_style_set_text_color(&styles->card, COLOR_FG);
 101:..\..\..\arduinoLCD\test\Pain Drain\libraries\lvgl\src\extra\themes\mono/lv_theme_mono.c ****     lv_style_set_line_width(&styles->card, 2);
 102:..\..\..\arduinoLCD\test\Pain Drain\libraries\lvgl\src\extra\themes\mono/lv_theme_mono.c ****     lv_style_set_line_color(&styles->card, COLOR_FG);
 103:..\..\..\arduinoLCD\test\Pain Drain\libraries\lvgl\src\extra\themes\mono/lv_theme_mono.c ****     lv_style_set_arc_width(&styles->card, 2);
 104:..\..\..\arduinoLCD\test\Pain Drain\libraries\lvgl\src\extra\themes\mono/lv_theme_mono.c ****     lv_style_set_arc_color(&styles->card, COLOR_FG);
 105:..\..\..\arduinoLCD\test\Pain Drain\libraries\lvgl\src\extra\themes\mono/lv_theme_mono.c ****     lv_style_set_outline_color(&styles->card, COLOR_FG);
 106:..\..\..\arduinoLCD\test\Pain Drain\libraries\lvgl\src\extra\themes\mono/lv_theme_mono.c ****     lv_style_set_anim_time(&styles->card, 300);
 107:..\..\..\arduinoLCD\test\Pain Drain\libraries\lvgl\src\extra\themes\mono/lv_theme_mono.c **** 
 108:..\..\..\arduinoLCD\test\Pain Drain\libraries\lvgl\src\extra\themes\mono/lv_theme_mono.c ****     style_init_reset(&styles->pr);
 109:..\..\..\arduinoLCD\test\Pain Drain\libraries\lvgl\src\extra\themes\mono/lv_theme_mono.c ****     lv_style_set_border_width(&styles->pr, BORDER_W_PR);
 110:..\..\..\arduinoLCD\test\Pain Drain\libraries\lvgl\src\extra\themes\mono/lv_theme_mono.c **** 
 111:..\..\..\arduinoLCD\test\Pain Drain\libraries\lvgl\src\extra\themes\mono/lv_theme_mono.c ****     style_init_reset(&styles->inv);
 112:..\..\..\arduinoLCD\test\Pain Drain\libraries\lvgl\src\extra\themes\mono/lv_theme_mono.c ****     lv_style_set_bg_opa(&styles->inv, LV_OPA_COVER);
 113:..\..\..\arduinoLCD\test\Pain Drain\libraries\lvgl\src\extra\themes\mono/lv_theme_mono.c ****     lv_style_set_bg_color(&styles->inv, COLOR_FG);
 114:..\..\..\arduinoLCD\test\Pain Drain\libraries\lvgl\src\extra\themes\mono/lv_theme_mono.c ****     lv_style_set_border_color(&styles->inv, COLOR_BG);
 115:..\..\..\arduinoLCD\test\Pain Drain\libraries\lvgl\src\extra\themes\mono/lv_theme_mono.c ****     lv_style_set_line_color(&styles->inv, COLOR_BG);
 116:..\..\..\arduinoLCD\test\Pain Drain\libraries\lvgl\src\extra\themes\mono/lv_theme_mono.c ****     lv_style_set_arc_color(&styles->inv, COLOR_BG);
 117:..\..\..\arduinoLCD\test\Pain Drain\libraries\lvgl\src\extra\themes\mono/lv_theme_mono.c ****     lv_style_set_text_color(&styles->inv, COLOR_BG);
 118:..\..\..\arduinoLCD\test\Pain Drain\libraries\lvgl\src\extra\themes\mono/lv_theme_mono.c ****     lv_style_set_outline_color(&styles->inv, COLOR_BG);
 119:..\..\..\arduinoLCD\test\Pain Drain\libraries\lvgl\src\extra\themes\mono/lv_theme_mono.c **** 
 120:..\..\..\arduinoLCD\test\Pain Drain\libraries\lvgl\src\extra\themes\mono/lv_theme_mono.c ****     style_init_reset(&styles->disabled);
 121:..\..\..\arduinoLCD\test\Pain Drain\libraries\lvgl\src\extra\themes\mono/lv_theme_mono.c ****     lv_style_set_border_width(&styles->disabled, BORDER_W_DIS);
 122:..\..\..\arduinoLCD\test\Pain Drain\libraries\lvgl\src\extra\themes\mono/lv_theme_mono.c **** 
 123:..\..\..\arduinoLCD\test\Pain Drain\libraries\lvgl\src\extra\themes\mono/lv_theme_mono.c ****     style_init_reset(&styles->focus);
 124:..\..\..\arduinoLCD\test\Pain Drain\libraries\lvgl\src\extra\themes\mono/lv_theme_mono.c ****     lv_style_set_outline_width(&styles->focus, 1);
 125:..\..\..\arduinoLCD\test\Pain Drain\libraries\lvgl\src\extra\themes\mono/lv_theme_mono.c ****     lv_style_set_outline_pad(&styles->focus, BORDER_W_FOCUS);
 126:..\..\..\arduinoLCD\test\Pain Drain\libraries\lvgl\src\extra\themes\mono/lv_theme_mono.c **** 
 127:..\..\..\arduinoLCD\test\Pain Drain\libraries\lvgl\src\extra\themes\mono/lv_theme_mono.c ****     style_init_reset(&styles->edit);
 128:..\..\..\arduinoLCD\test\Pain Drain\libraries\lvgl\src\extra\themes\mono/lv_theme_mono.c ****     lv_style_set_outline_width(&styles->edit, BORDER_W_EDIT);
 129:..\..\..\arduinoLCD\test\Pain Drain\libraries\lvgl\src\extra\themes\mono/lv_theme_mono.c **** 
 130:..\..\..\arduinoLCD\test\Pain Drain\libraries\lvgl\src\extra\themes\mono/lv_theme_mono.c ****     style_init_reset(&styles->large_border);
 131:..\..\..\arduinoLCD\test\Pain Drain\libraries\lvgl\src\extra\themes\mono/lv_theme_mono.c ****     lv_style_set_border_width(&styles->large_border, BORDER_W_EDIT);
 132:..\..\..\arduinoLCD\test\Pain Drain\libraries\lvgl\src\extra\themes\mono/lv_theme_mono.c **** 
 133:..\..\..\arduinoLCD\test\Pain Drain\libraries\lvgl\src\extra\themes\mono/lv_theme_mono.c ****     style_init_reset(&styles->pad_gap);
 134:..\..\..\arduinoLCD\test\Pain Drain\libraries\lvgl\src\extra\themes\mono/lv_theme_mono.c ****     lv_style_set_pad_gap(&styles->pad_gap, PAD_DEF);
 135:..\..\..\arduinoLCD\test\Pain Drain\libraries\lvgl\src\extra\themes\mono/lv_theme_mono.c **** 
 136:..\..\..\arduinoLCD\test\Pain Drain\libraries\lvgl\src\extra\themes\mono/lv_theme_mono.c ****     style_init_reset(&styles->pad_zero);
 137:..\..\..\arduinoLCD\test\Pain Drain\libraries\lvgl\src\extra\themes\mono/lv_theme_mono.c ****     lv_style_set_pad_all(&styles->pad_zero, 0);
 138:..\..\..\arduinoLCD\test\Pain Drain\libraries\lvgl\src\extra\themes\mono/lv_theme_mono.c ****     lv_style_set_pad_gap(&styles->pad_zero, 0);
 139:..\..\..\arduinoLCD\test\Pain Drain\libraries\lvgl\src\extra\themes\mono/lv_theme_mono.c **** 
 140:..\..\..\arduinoLCD\test\Pain Drain\libraries\lvgl\src\extra\themes\mono/lv_theme_mono.c ****     style_init_reset(&styles->no_radius);
 141:..\..\..\arduinoLCD\test\Pain Drain\libraries\lvgl\src\extra\themes\mono/lv_theme_mono.c ****     lv_style_set_radius(&styles->no_radius, 0);
 142:..\..\..\arduinoLCD\test\Pain Drain\libraries\lvgl\src\extra\themes\mono/lv_theme_mono.c **** 
 143:..\..\..\arduinoLCD\test\Pain Drain\libraries\lvgl\src\extra\themes\mono/lv_theme_mono.c ****     style_init_reset(&styles->radius_circle);
 144:..\..\..\arduinoLCD\test\Pain Drain\libraries\lvgl\src\extra\themes\mono/lv_theme_mono.c ****     lv_style_set_radius(&styles->radius_circle, LV_RADIUS_CIRCLE);
 145:..\..\..\arduinoLCD\test\Pain Drain\libraries\lvgl\src\extra\themes\mono/lv_theme_mono.c **** 
ARM GAS  C:\Users\haske\AppData\Local\Temp\ccSAQWsX.s 			page 4


 146:..\..\..\arduinoLCD\test\Pain Drain\libraries\lvgl\src\extra\themes\mono/lv_theme_mono.c ****     style_init_reset(&styles->large_line_space);
 147:..\..\..\arduinoLCD\test\Pain Drain\libraries\lvgl\src\extra\themes\mono/lv_theme_mono.c ****     lv_style_set_text_line_space(&styles->large_line_space, 6);
 148:..\..\..\arduinoLCD\test\Pain Drain\libraries\lvgl\src\extra\themes\mono/lv_theme_mono.c **** 
 149:..\..\..\arduinoLCD\test\Pain Drain\libraries\lvgl\src\extra\themes\mono/lv_theme_mono.c ****     style_init_reset(&styles->underline);
 150:..\..\..\arduinoLCD\test\Pain Drain\libraries\lvgl\src\extra\themes\mono/lv_theme_mono.c ****     lv_style_set_text_decor(&styles->underline, LV_TEXT_DECOR_UNDERLINE);
 151:..\..\..\arduinoLCD\test\Pain Drain\libraries\lvgl\src\extra\themes\mono/lv_theme_mono.c **** 
 152:..\..\..\arduinoLCD\test\Pain Drain\libraries\lvgl\src\extra\themes\mono/lv_theme_mono.c **** #if LV_USE_TEXTAREA
 153:..\..\..\arduinoLCD\test\Pain Drain\libraries\lvgl\src\extra\themes\mono/lv_theme_mono.c ****     style_init_reset(&styles->ta_cursor);
 154:..\..\..\arduinoLCD\test\Pain Drain\libraries\lvgl\src\extra\themes\mono/lv_theme_mono.c ****     lv_style_set_border_side(&styles->ta_cursor, LV_BORDER_SIDE_LEFT);
 155:..\..\..\arduinoLCD\test\Pain Drain\libraries\lvgl\src\extra\themes\mono/lv_theme_mono.c ****     lv_style_set_border_color(&styles->ta_cursor, COLOR_FG);
 156:..\..\..\arduinoLCD\test\Pain Drain\libraries\lvgl\src\extra\themes\mono/lv_theme_mono.c ****     lv_style_set_border_width(&styles->ta_cursor, 2);
 157:..\..\..\arduinoLCD\test\Pain Drain\libraries\lvgl\src\extra\themes\mono/lv_theme_mono.c ****     lv_style_set_bg_opa(&styles->ta_cursor, LV_OPA_TRANSP);
 158:..\..\..\arduinoLCD\test\Pain Drain\libraries\lvgl\src\extra\themes\mono/lv_theme_mono.c ****     lv_style_set_anim_time(&styles->ta_cursor, 500);
 159:..\..\..\arduinoLCD\test\Pain Drain\libraries\lvgl\src\extra\themes\mono/lv_theme_mono.c **** #endif
 160:..\..\..\arduinoLCD\test\Pain Drain\libraries\lvgl\src\extra\themes\mono/lv_theme_mono.c **** }
 161:..\..\..\arduinoLCD\test\Pain Drain\libraries\lvgl\src\extra\themes\mono/lv_theme_mono.c **** 
 162:..\..\..\arduinoLCD\test\Pain Drain\libraries\lvgl\src\extra\themes\mono/lv_theme_mono.c **** 
 163:..\..\..\arduinoLCD\test\Pain Drain\libraries\lvgl\src\extra\themes\mono/lv_theme_mono.c **** /**********************
 164:..\..\..\arduinoLCD\test\Pain Drain\libraries\lvgl\src\extra\themes\mono/lv_theme_mono.c ****  *   GLOBAL FUNCTIONS
 165:..\..\..\arduinoLCD\test\Pain Drain\libraries\lvgl\src\extra\themes\mono/lv_theme_mono.c ****  **********************/
 166:..\..\..\arduinoLCD\test\Pain Drain\libraries\lvgl\src\extra\themes\mono/lv_theme_mono.c **** 
 167:..\..\..\arduinoLCD\test\Pain Drain\libraries\lvgl\src\extra\themes\mono/lv_theme_mono.c **** bool lv_theme_mono_is_inited(void)
 168:..\..\..\arduinoLCD\test\Pain Drain\libraries\lvgl\src\extra\themes\mono/lv_theme_mono.c **** {
 169:..\..\..\arduinoLCD\test\Pain Drain\libraries\lvgl\src\extra\themes\mono/lv_theme_mono.c ****     return  LV_GC_ROOT(_lv_theme_default_styles) == NULL ? false : true;
 170:..\..\..\arduinoLCD\test\Pain Drain\libraries\lvgl\src\extra\themes\mono/lv_theme_mono.c **** }
 171:..\..\..\arduinoLCD\test\Pain Drain\libraries\lvgl\src\extra\themes\mono/lv_theme_mono.c **** 
 172:..\..\..\arduinoLCD\test\Pain Drain\libraries\lvgl\src\extra\themes\mono/lv_theme_mono.c **** lv_theme_t * lv_theme_mono_init(lv_disp_t * disp, bool dark_bg, const lv_font_t * font)
 173:..\..\..\arduinoLCD\test\Pain Drain\libraries\lvgl\src\extra\themes\mono/lv_theme_mono.c **** {
 174:..\..\..\arduinoLCD\test\Pain Drain\libraries\lvgl\src\extra\themes\mono/lv_theme_mono.c **** 
 175:..\..\..\arduinoLCD\test\Pain Drain\libraries\lvgl\src\extra\themes\mono/lv_theme_mono.c ****     /*This trick is required only to avoid the garbage collection of
 176:..\..\..\arduinoLCD\test\Pain Drain\libraries\lvgl\src\extra\themes\mono/lv_theme_mono.c ****      *styles' data if LVGL is used in a binding (e.g. Micropython)
 177:..\..\..\arduinoLCD\test\Pain Drain\libraries\lvgl\src\extra\themes\mono/lv_theme_mono.c ****      *In a general case styles could be in simple `static lv_style_t my_style...` variables*/
 178:..\..\..\arduinoLCD\test\Pain Drain\libraries\lvgl\src\extra\themes\mono/lv_theme_mono.c ****     if(!inited) {
 179:..\..\..\arduinoLCD\test\Pain Drain\libraries\lvgl\src\extra\themes\mono/lv_theme_mono.c ****         inited = false;
 180:..\..\..\arduinoLCD\test\Pain Drain\libraries\lvgl\src\extra\themes\mono/lv_theme_mono.c ****         LV_GC_ROOT(_lv_theme_default_styles) = lv_mem_alloc(sizeof(my_theme_styles_t));
 181:..\..\..\arduinoLCD\test\Pain Drain\libraries\lvgl\src\extra\themes\mono/lv_theme_mono.c ****         styles = (my_theme_styles_t *)LV_GC_ROOT(_lv_theme_default_styles);
 182:..\..\..\arduinoLCD\test\Pain Drain\libraries\lvgl\src\extra\themes\mono/lv_theme_mono.c ****     }
 183:..\..\..\arduinoLCD\test\Pain Drain\libraries\lvgl\src\extra\themes\mono/lv_theme_mono.c **** 
 184:..\..\..\arduinoLCD\test\Pain Drain\libraries\lvgl\src\extra\themes\mono/lv_theme_mono.c ****     theme.disp = disp;
 185:..\..\..\arduinoLCD\test\Pain Drain\libraries\lvgl\src\extra\themes\mono/lv_theme_mono.c ****     theme.font_small = LV_FONT_DEFAULT;
 186:..\..\..\arduinoLCD\test\Pain Drain\libraries\lvgl\src\extra\themes\mono/lv_theme_mono.c ****     theme.font_normal = LV_FONT_DEFAULT;
 187:..\..\..\arduinoLCD\test\Pain Drain\libraries\lvgl\src\extra\themes\mono/lv_theme_mono.c ****     theme.font_large = LV_FONT_DEFAULT;
 188:..\..\..\arduinoLCD\test\Pain Drain\libraries\lvgl\src\extra\themes\mono/lv_theme_mono.c ****     theme.apply_cb = theme_apply;
 189:..\..\..\arduinoLCD\test\Pain Drain\libraries\lvgl\src\extra\themes\mono/lv_theme_mono.c **** 
 190:..\..\..\arduinoLCD\test\Pain Drain\libraries\lvgl\src\extra\themes\mono/lv_theme_mono.c ****     style_init(dark_bg, font);
 191:..\..\..\arduinoLCD\test\Pain Drain\libraries\lvgl\src\extra\themes\mono/lv_theme_mono.c **** 
 192:..\..\..\arduinoLCD\test\Pain Drain\libraries\lvgl\src\extra\themes\mono/lv_theme_mono.c ****     if(disp == NULL || lv_disp_get_theme(disp) == &theme) lv_obj_report_style_change(NULL);
 193:..\..\..\arduinoLCD\test\Pain Drain\libraries\lvgl\src\extra\themes\mono/lv_theme_mono.c **** 
 194:..\..\..\arduinoLCD\test\Pain Drain\libraries\lvgl\src\extra\themes\mono/lv_theme_mono.c ****     inited = true;
 195:..\..\..\arduinoLCD\test\Pain Drain\libraries\lvgl\src\extra\themes\mono/lv_theme_mono.c **** 
 196:..\..\..\arduinoLCD\test\Pain Drain\libraries\lvgl\src\extra\themes\mono/lv_theme_mono.c ****     return (lv_theme_t *)&theme;
 197:..\..\..\arduinoLCD\test\Pain Drain\libraries\lvgl\src\extra\themes\mono/lv_theme_mono.c **** }
 198:..\..\..\arduinoLCD\test\Pain Drain\libraries\lvgl\src\extra\themes\mono/lv_theme_mono.c **** 
 199:..\..\..\arduinoLCD\test\Pain Drain\libraries\lvgl\src\extra\themes\mono/lv_theme_mono.c **** 
 200:..\..\..\arduinoLCD\test\Pain Drain\libraries\lvgl\src\extra\themes\mono/lv_theme_mono.c **** static void theme_apply(lv_theme_t * th, lv_obj_t * obj)
 201:..\..\..\arduinoLCD\test\Pain Drain\libraries\lvgl\src\extra\themes\mono/lv_theme_mono.c **** {
  27              		.loc 1 201 0
ARM GAS  C:\Users\haske\AppData\Local\Temp\ccSAQWsX.s 			page 5


  28              		.cfi_startproc
  29              		@ args = 0, pretend = 0, frame = 0
  30              		@ frame_needed = 0, uses_anonymous_args = 0
  31              	.LVL0:
  32 0000 70B5     		push	{r4, r5, r6, lr}
  33              		.cfi_def_cfa_offset 16
  34              		.cfi_offset 4, -16
  35              		.cfi_offset 5, -12
  36              		.cfi_offset 6, -8
  37              		.cfi_offset 14, -4
  38 0002 0C00     		movs	r4, r1
 202:..\..\..\arduinoLCD\test\Pain Drain\libraries\lvgl\src\extra\themes\mono/lv_theme_mono.c ****     LV_UNUSED(th);
 203:..\..\..\arduinoLCD\test\Pain Drain\libraries\lvgl\src\extra\themes\mono/lv_theme_mono.c **** 
 204:..\..\..\arduinoLCD\test\Pain Drain\libraries\lvgl\src\extra\themes\mono/lv_theme_mono.c ****     if(lv_obj_get_parent(obj) == NULL) {
  39              		.loc 1 204 0
  40 0004 0800     		movs	r0, r1
  41              	.LVL1:
  42 0006 FFF7FEFF 		bl	lv_obj_get_parent
  43              	.LVL2:
  44 000a 0028     		cmp	r0, #0
  45 000c 0ED1     		bne	.L2
 205:..\..\..\arduinoLCD\test\Pain Drain\libraries\lvgl\src\extra\themes\mono/lv_theme_mono.c ****         lv_obj_add_style(obj, &styles->scr, 0);
  46              		.loc 1 205 0
  47 000e DB4D     		ldr	r5, .L32
  48 0010 0022     		movs	r2, #0
  49 0012 2968     		ldr	r1, [r5]
  50 0014 2000     		movs	r0, r4
  51 0016 FFF7FEFF 		bl	lv_obj_add_style
  52              	.LVL3:
 206:..\..\..\arduinoLCD\test\Pain Drain\libraries\lvgl\src\extra\themes\mono/lv_theme_mono.c ****         lv_obj_add_style(obj, &styles->scrollbar, LV_PART_SCROLLBAR);
  53              		.loc 1 206 0
  54 001a 2968     		ldr	r1, [r5]
  55 001c 1031     		adds	r1, r1, #16
  56 001e 8022     		movs	r2, #128
  57 0020 5202     		lsls	r2, r2, #9
  58 0022 2000     		movs	r0, r4
  59 0024 FFF7FEFF 		bl	lv_obj_add_style
  60              	.LVL4:
 207:..\..\..\arduinoLCD\test\Pain Drain\libraries\lvgl\src\extra\themes\mono/lv_theme_mono.c ****         return;
  61              		.loc 1 207 0
  62 0028 00F0ADFC 		bl	.L1	@ far jump
  63              	.L2:
 208:..\..\..\arduinoLCD\test\Pain Drain\libraries\lvgl\src\extra\themes\mono/lv_theme_mono.c ****     }
 209:..\..\..\arduinoLCD\test\Pain Drain\libraries\lvgl\src\extra\themes\mono/lv_theme_mono.c **** 
 210:..\..\..\arduinoLCD\test\Pain Drain\libraries\lvgl\src\extra\themes\mono/lv_theme_mono.c ****     if(lv_obj_check_type(obj, &lv_obj_class)) {
  64              		.loc 1 210 0
  65 002c D449     		ldr	r1, .L32+4
  66 002e 2000     		movs	r0, r4
  67 0030 FFF7FEFF 		bl	lv_obj_check_type
  68              	.LVL5:
  69 0034 0028     		cmp	r0, #0
  70 0036 77D0     		beq	.L4
  71              	.LBB140:
 211:..\..\..\arduinoLCD\test\Pain Drain\libraries\lvgl\src\extra\themes\mono/lv_theme_mono.c **** #if LV_USE_TABVIEW
 212:..\..\..\arduinoLCD\test\Pain Drain\libraries\lvgl\src\extra\themes\mono/lv_theme_mono.c ****         lv_obj_t * parent = lv_obj_get_parent(obj);
  72              		.loc 1 212 0
  73 0038 2000     		movs	r0, r4
ARM GAS  C:\Users\haske\AppData\Local\Temp\ccSAQWsX.s 			page 6


  74 003a FFF7FEFF 		bl	lv_obj_get_parent
  75              	.LVL6:
  76 003e 0500     		movs	r5, r0
  77              	.LVL7:
 213:..\..\..\arduinoLCD\test\Pain Drain\libraries\lvgl\src\extra\themes\mono/lv_theme_mono.c ****         /*Tabview content area*/
 214:..\..\..\arduinoLCD\test\Pain Drain\libraries\lvgl\src\extra\themes\mono/lv_theme_mono.c ****         if(lv_obj_check_type(parent, &lv_tabview_class)) {
  78              		.loc 1 214 0
  79 0040 D049     		ldr	r1, .L32+8
  80 0042 FFF7FEFF 		bl	lv_obj_check_type
  81              	.LVL8:
  82 0046 0028     		cmp	r0, #0
  83 0048 01D0     		beq	.LCB55
  84 004a 00F09CFC 		bl	.L1	@far jump
  85              	.LCB55:
 215:..\..\..\arduinoLCD\test\Pain Drain\libraries\lvgl\src\extra\themes\mono/lv_theme_mono.c ****             return;
 216:..\..\..\arduinoLCD\test\Pain Drain\libraries\lvgl\src\extra\themes\mono/lv_theme_mono.c ****         }
 217:..\..\..\arduinoLCD\test\Pain Drain\libraries\lvgl\src\extra\themes\mono/lv_theme_mono.c ****         /*Tabview pages*/
 218:..\..\..\arduinoLCD\test\Pain Drain\libraries\lvgl\src\extra\themes\mono/lv_theme_mono.c ****         else if(lv_obj_check_type(lv_obj_get_parent(parent), &lv_tabview_class)) {
  86              		.loc 1 218 0
  87 004e 2800     		movs	r0, r5
  88 0050 FFF7FEFF 		bl	lv_obj_get_parent
  89              	.LVL9:
  90 0054 CB49     		ldr	r1, .L32+8
  91 0056 FFF7FEFF 		bl	lv_obj_check_type
  92              	.LVL10:
  93 005a 0028     		cmp	r0, #0
  94 005c 15D0     		beq	.L5
 219:..\..\..\arduinoLCD\test\Pain Drain\libraries\lvgl\src\extra\themes\mono/lv_theme_mono.c ****             lv_obj_add_style(obj, &styles->card, 0);
  95              		.loc 1 219 0
  96 005e C74D     		ldr	r5, .L32
  97              	.LVL11:
  98 0060 2968     		ldr	r1, [r5]
  99 0062 0831     		adds	r1, r1, #8
 100 0064 0022     		movs	r2, #0
 101 0066 2000     		movs	r0, r4
 102 0068 FFF7FEFF 		bl	lv_obj_add_style
 103              	.LVL12:
 220:..\..\..\arduinoLCD\test\Pain Drain\libraries\lvgl\src\extra\themes\mono/lv_theme_mono.c ****             lv_obj_add_style(obj, &styles->no_radius, 0);
 104              		.loc 1 220 0
 105 006c 2968     		ldr	r1, [r5]
 106 006e 5831     		adds	r1, r1, #88
 107 0070 0022     		movs	r2, #0
 108 0072 2000     		movs	r0, r4
 109 0074 FFF7FEFF 		bl	lv_obj_add_style
 110              	.LVL13:
 221:..\..\..\arduinoLCD\test\Pain Drain\libraries\lvgl\src\extra\themes\mono/lv_theme_mono.c ****             lv_obj_add_style(obj, &styles->scrollbar, LV_PART_SCROLLBAR);
 111              		.loc 1 221 0
 112 0078 2968     		ldr	r1, [r5]
 113 007a 1031     		adds	r1, r1, #16
 114 007c 8022     		movs	r2, #128
 115 007e 5202     		lsls	r2, r2, #9
 116 0080 2000     		movs	r0, r4
 117 0082 FFF7FEFF 		bl	lv_obj_add_style
 118              	.LVL14:
 222:..\..\..\arduinoLCD\test\Pain Drain\libraries\lvgl\src\extra\themes\mono/lv_theme_mono.c ****             return;
 119              		.loc 1 222 0
 120 0086 00F07EFC 		bl	.L1	@ far jump
ARM GAS  C:\Users\haske\AppData\Local\Temp\ccSAQWsX.s 			page 7


 121              	.LVL15:
 122              	.L5:
 223:..\..\..\arduinoLCD\test\Pain Drain\libraries\lvgl\src\extra\themes\mono/lv_theme_mono.c ****         }
 224:..\..\..\arduinoLCD\test\Pain Drain\libraries\lvgl\src\extra\themes\mono/lv_theme_mono.c **** #endif
 225:..\..\..\arduinoLCD\test\Pain Drain\libraries\lvgl\src\extra\themes\mono/lv_theme_mono.c **** 
 226:..\..\..\arduinoLCD\test\Pain Drain\libraries\lvgl\src\extra\themes\mono/lv_theme_mono.c **** #if LV_USE_WIN
 227:..\..\..\arduinoLCD\test\Pain Drain\libraries\lvgl\src\extra\themes\mono/lv_theme_mono.c ****         /*Header*/
 228:..\..\..\arduinoLCD\test\Pain Drain\libraries\lvgl\src\extra\themes\mono/lv_theme_mono.c ****         if(lv_obj_get_index(obj) == 0 && lv_obj_check_type(lv_obj_get_parent(obj), &lv_win_class)) 
 123              		.loc 1 228 0
 124 008a 2000     		movs	r0, r4
 125 008c FFF7FEFF 		bl	lv_obj_get_index
 126              	.LVL16:
 127 0090 0028     		cmp	r0, #0
 128 0092 16D1     		bne	.L6
 129              		.loc 1 228 0 is_stmt 0 discriminator 1
 130 0094 2000     		movs	r0, r4
 131 0096 FFF7FEFF 		bl	lv_obj_get_parent
 132              	.LVL17:
 133 009a BB49     		ldr	r1, .L32+12
 134 009c FFF7FEFF 		bl	lv_obj_check_type
 135              	.LVL18:
 136 00a0 0028     		cmp	r0, #0
 137 00a2 0ED0     		beq	.L6
 229:..\..\..\arduinoLCD\test\Pain Drain\libraries\lvgl\src\extra\themes\mono/lv_theme_mono.c ****             lv_obj_add_style(obj, &styles->card, 0);
 138              		.loc 1 229 0 is_stmt 1
 139 00a4 B54D     		ldr	r5, .L32
 140              	.LVL19:
 141 00a6 2968     		ldr	r1, [r5]
 142 00a8 0831     		adds	r1, r1, #8
 143 00aa 0022     		movs	r2, #0
 144 00ac 2000     		movs	r0, r4
 145 00ae FFF7FEFF 		bl	lv_obj_add_style
 146              	.LVL20:
 230:..\..\..\arduinoLCD\test\Pain Drain\libraries\lvgl\src\extra\themes\mono/lv_theme_mono.c ****             lv_obj_add_style(obj, &styles->no_radius, 0);
 147              		.loc 1 230 0
 148 00b2 2968     		ldr	r1, [r5]
 149 00b4 5831     		adds	r1, r1, #88
 150 00b6 0022     		movs	r2, #0
 151 00b8 2000     		movs	r0, r4
 152 00ba FFF7FEFF 		bl	lv_obj_add_style
 153              	.LVL21:
 231:..\..\..\arduinoLCD\test\Pain Drain\libraries\lvgl\src\extra\themes\mono/lv_theme_mono.c ****             return;
 154              		.loc 1 231 0
 155 00be 00F062FC 		bl	.L1	@ far jump
 156              	.LVL22:
 157              	.L6:
 232:..\..\..\arduinoLCD\test\Pain Drain\libraries\lvgl\src\extra\themes\mono/lv_theme_mono.c ****         }
 233:..\..\..\arduinoLCD\test\Pain Drain\libraries\lvgl\src\extra\themes\mono/lv_theme_mono.c ****         /*Content*/
 234:..\..\..\arduinoLCD\test\Pain Drain\libraries\lvgl\src\extra\themes\mono/lv_theme_mono.c ****         else if(lv_obj_get_index(obj) == 1 && lv_obj_check_type(lv_obj_get_parent(obj), &lv_win_cla
 158              		.loc 1 234 0
 159 00c2 2000     		movs	r0, r4
 160 00c4 FFF7FEFF 		bl	lv_obj_get_index
 161              	.LVL23:
 162 00c8 0128     		cmp	r0, #1
 163 00ca 1DD1     		bne	.L7
 164              		.loc 1 234 0 is_stmt 0 discriminator 1
 165 00cc 2000     		movs	r0, r4
ARM GAS  C:\Users\haske\AppData\Local\Temp\ccSAQWsX.s 			page 8


 166 00ce FFF7FEFF 		bl	lv_obj_get_parent
 167              	.LVL24:
 168 00d2 AD49     		ldr	r1, .L32+12
 169 00d4 FFF7FEFF 		bl	lv_obj_check_type
 170              	.LVL25:
 171 00d8 0028     		cmp	r0, #0
 172 00da 15D0     		beq	.L7
 235:..\..\..\arduinoLCD\test\Pain Drain\libraries\lvgl\src\extra\themes\mono/lv_theme_mono.c ****             lv_obj_add_style(obj, &styles->card, 0);
 173              		.loc 1 235 0 is_stmt 1
 174 00dc A74D     		ldr	r5, .L32
 175              	.LVL26:
 176 00de 2968     		ldr	r1, [r5]
 177 00e0 0831     		adds	r1, r1, #8
 178 00e2 0022     		movs	r2, #0
 179 00e4 2000     		movs	r0, r4
 180 00e6 FFF7FEFF 		bl	lv_obj_add_style
 181              	.LVL27:
 236:..\..\..\arduinoLCD\test\Pain Drain\libraries\lvgl\src\extra\themes\mono/lv_theme_mono.c ****             lv_obj_add_style(obj, &styles->no_radius, 0);
 182              		.loc 1 236 0
 183 00ea 2968     		ldr	r1, [r5]
 184 00ec 5831     		adds	r1, r1, #88
 185 00ee 0022     		movs	r2, #0
 186 00f0 2000     		movs	r0, r4
 187 00f2 FFF7FEFF 		bl	lv_obj_add_style
 188              	.LVL28:
 237:..\..\..\arduinoLCD\test\Pain Drain\libraries\lvgl\src\extra\themes\mono/lv_theme_mono.c ****             lv_obj_add_style(obj, &styles->scrollbar, LV_PART_SCROLLBAR);
 189              		.loc 1 237 0
 190 00f6 2968     		ldr	r1, [r5]
 191 00f8 1031     		adds	r1, r1, #16
 192 00fa 8022     		movs	r2, #128
 193 00fc 5202     		lsls	r2, r2, #9
 194 00fe 2000     		movs	r0, r4
 195 0100 FFF7FEFF 		bl	lv_obj_add_style
 196              	.LVL29:
 238:..\..\..\arduinoLCD\test\Pain Drain\libraries\lvgl\src\extra\themes\mono/lv_theme_mono.c ****             return;
 197              		.loc 1 238 0
 198 0104 00F03FFC 		bl	.L1	@ far jump
 199              	.LVL30:
 200              	.L7:
 239:..\..\..\arduinoLCD\test\Pain Drain\libraries\lvgl\src\extra\themes\mono/lv_theme_mono.c ****         }
 240:..\..\..\arduinoLCD\test\Pain Drain\libraries\lvgl\src\extra\themes\mono/lv_theme_mono.c **** #endif
 241:..\..\..\arduinoLCD\test\Pain Drain\libraries\lvgl\src\extra\themes\mono/lv_theme_mono.c ****         lv_obj_add_style(obj, &styles->card, 0);
 201              		.loc 1 241 0
 202 0108 9C4D     		ldr	r5, .L32
 203              	.LVL31:
 204 010a 2968     		ldr	r1, [r5]
 205 010c 0831     		adds	r1, r1, #8
 206 010e 0022     		movs	r2, #0
 207 0110 2000     		movs	r0, r4
 208 0112 FFF7FEFF 		bl	lv_obj_add_style
 209              	.LVL32:
 242:..\..\..\arduinoLCD\test\Pain Drain\libraries\lvgl\src\extra\themes\mono/lv_theme_mono.c ****         lv_obj_add_style(obj, &styles->scrollbar, LV_PART_SCROLLBAR);
 210              		.loc 1 242 0
 211 0116 2968     		ldr	r1, [r5]
 212 0118 1031     		adds	r1, r1, #16
 213 011a 8022     		movs	r2, #128
 214 011c 5202     		lsls	r2, r2, #9
ARM GAS  C:\Users\haske\AppData\Local\Temp\ccSAQWsX.s 			page 9


 215 011e 2000     		movs	r0, r4
 216 0120 FFF7FEFF 		bl	lv_obj_add_style
 217              	.LVL33:
 218              	.LBE140:
 219 0124 00F02FFC 		bl	.L1	@ far jump
 220              	.L4:
 243:..\..\..\arduinoLCD\test\Pain Drain\libraries\lvgl\src\extra\themes\mono/lv_theme_mono.c ****     }
 244:..\..\..\arduinoLCD\test\Pain Drain\libraries\lvgl\src\extra\themes\mono/lv_theme_mono.c **** #if LV_USE_BTN
 245:..\..\..\arduinoLCD\test\Pain Drain\libraries\lvgl\src\extra\themes\mono/lv_theme_mono.c ****     else if(lv_obj_check_type(obj, &lv_btn_class)) {
 221              		.loc 1 245 0
 222 0128 9849     		ldr	r1, .L32+16
 223 012a 2000     		movs	r0, r4
 224 012c FFF7FEFF 		bl	lv_obj_check_type
 225              	.LVL34:
 226 0130 0028     		cmp	r0, #0
 227 0132 26D0     		beq	.L8
 246:..\..\..\arduinoLCD\test\Pain Drain\libraries\lvgl\src\extra\themes\mono/lv_theme_mono.c ****         lv_obj_add_style(obj, &styles->card, 0);
 228              		.loc 1 246 0
 229 0134 914D     		ldr	r5, .L32
 230 0136 2968     		ldr	r1, [r5]
 231 0138 0831     		adds	r1, r1, #8
 232 013a 0022     		movs	r2, #0
 233 013c 2000     		movs	r0, r4
 234 013e FFF7FEFF 		bl	lv_obj_add_style
 235              	.LVL35:
 247:..\..\..\arduinoLCD\test\Pain Drain\libraries\lvgl\src\extra\themes\mono/lv_theme_mono.c ****         lv_obj_add_style(obj, &styles->pr, LV_STATE_PRESSED);
 236              		.loc 1 247 0
 237 0142 2968     		ldr	r1, [r5]
 238 0144 2031     		adds	r1, r1, #32
 239 0146 2022     		movs	r2, #32
 240 0148 2000     		movs	r0, r4
 241 014a FFF7FEFF 		bl	lv_obj_add_style
 242              	.LVL36:
 248:..\..\..\arduinoLCD\test\Pain Drain\libraries\lvgl\src\extra\themes\mono/lv_theme_mono.c ****         lv_obj_add_style(obj, &styles->inv, LV_STATE_CHECKED);
 243              		.loc 1 248 0
 244 014e 2968     		ldr	r1, [r5]
 245 0150 2831     		adds	r1, r1, #40
 246 0152 0122     		movs	r2, #1
 247 0154 2000     		movs	r0, r4
 248 0156 FFF7FEFF 		bl	lv_obj_add_style
 249              	.LVL37:
 249:..\..\..\arduinoLCD\test\Pain Drain\libraries\lvgl\src\extra\themes\mono/lv_theme_mono.c ****         lv_obj_add_style(obj, &styles->disabled, LV_STATE_DISABLED);
 250              		.loc 1 249 0
 251 015a 2968     		ldr	r1, [r5]
 252 015c 3031     		adds	r1, r1, #48
 253 015e 8022     		movs	r2, #128
 254 0160 2000     		movs	r0, r4
 255 0162 FFF7FEFF 		bl	lv_obj_add_style
 256              	.LVL38:
 250:..\..\..\arduinoLCD\test\Pain Drain\libraries\lvgl\src\extra\themes\mono/lv_theme_mono.c ****         lv_obj_add_style(obj, &styles->focus, LV_STATE_FOCUS_KEY);
 257              		.loc 1 250 0
 258 0166 2968     		ldr	r1, [r5]
 259 0168 3831     		adds	r1, r1, #56
 260 016a 0422     		movs	r2, #4
 261 016c 2000     		movs	r0, r4
 262 016e FFF7FEFF 		bl	lv_obj_add_style
 263              	.LVL39:
ARM GAS  C:\Users\haske\AppData\Local\Temp\ccSAQWsX.s 			page 10


 251:..\..\..\arduinoLCD\test\Pain Drain\libraries\lvgl\src\extra\themes\mono/lv_theme_mono.c ****         lv_obj_add_style(obj, &styles->edit, LV_STATE_EDITED);
 264              		.loc 1 251 0
 265 0172 2968     		ldr	r1, [r5]
 266 0174 4031     		adds	r1, r1, #64
 267 0176 0822     		movs	r2, #8
 268 0178 2000     		movs	r0, r4
 269 017a FFF7FEFF 		bl	lv_obj_add_style
 270              	.LVL40:
 271 017e 00F002FC 		bl	.L1	@ far jump
 272              	.L8:
 252:..\..\..\arduinoLCD\test\Pain Drain\libraries\lvgl\src\extra\themes\mono/lv_theme_mono.c ****     }
 253:..\..\..\arduinoLCD\test\Pain Drain\libraries\lvgl\src\extra\themes\mono/lv_theme_mono.c **** #endif
 254:..\..\..\arduinoLCD\test\Pain Drain\libraries\lvgl\src\extra\themes\mono/lv_theme_mono.c **** 
 255:..\..\..\arduinoLCD\test\Pain Drain\libraries\lvgl\src\extra\themes\mono/lv_theme_mono.c **** #if LV_USE_BTNMATRIX
 256:..\..\..\arduinoLCD\test\Pain Drain\libraries\lvgl\src\extra\themes\mono/lv_theme_mono.c ****     else if(lv_obj_check_type(obj, &lv_btnmatrix_class)) {
 273              		.loc 1 256 0
 274 0182 8349     		ldr	r1, .L32+20
 275 0184 2000     		movs	r0, r4
 276 0186 FFF7FEFF 		bl	lv_obj_check_type
 277              	.LVL41:
 278 018a 0028     		cmp	r0, #0
 279 018c 00D1     		bne	.LCB246
 280 018e 9FE0     		b	.L9	@long jump
 281              	.LCB246:
 257:..\..\..\arduinoLCD\test\Pain Drain\libraries\lvgl\src\extra\themes\mono/lv_theme_mono.c **** #if LV_USE_MSGBOX
 258:..\..\..\arduinoLCD\test\Pain Drain\libraries\lvgl\src\extra\themes\mono/lv_theme_mono.c ****         if(lv_obj_check_type(lv_obj_get_parent(obj), &lv_msgbox_class)) {
 282              		.loc 1 258 0
 283 0190 2000     		movs	r0, r4
 284 0192 FFF7FEFF 		bl	lv_obj_get_parent
 285              	.LVL42:
 286 0196 7F49     		ldr	r1, .L32+24
 287 0198 FFF7FEFF 		bl	lv_obj_check_type
 288              	.LVL43:
 289 019c 0028     		cmp	r0, #0
 290 019e 27D0     		beq	.L10
 259:..\..\..\arduinoLCD\test\Pain Drain\libraries\lvgl\src\extra\themes\mono/lv_theme_mono.c ****             lv_obj_add_style(obj, &styles->pad_gap, 0);
 291              		.loc 1 259 0
 292 01a0 764D     		ldr	r5, .L32
 293 01a2 2968     		ldr	r1, [r5]
 294 01a4 4831     		adds	r1, r1, #72
 295 01a6 0022     		movs	r2, #0
 296 01a8 2000     		movs	r0, r4
 297 01aa FFF7FEFF 		bl	lv_obj_add_style
 298              	.LVL44:
 260:..\..\..\arduinoLCD\test\Pain Drain\libraries\lvgl\src\extra\themes\mono/lv_theme_mono.c ****             lv_obj_add_style(obj, &styles->card, LV_PART_ITEMS);
 299              		.loc 1 260 0
 300 01ae 2968     		ldr	r1, [r5]
 301 01b0 0831     		adds	r1, r1, #8
 302 01b2 A022     		movs	r2, #160
 303 01b4 D202     		lsls	r2, r2, #11
 304 01b6 2000     		movs	r0, r4
 305 01b8 FFF7FEFF 		bl	lv_obj_add_style
 306              	.LVL45:
 261:..\..\..\arduinoLCD\test\Pain Drain\libraries\lvgl\src\extra\themes\mono/lv_theme_mono.c ****             lv_obj_add_style(obj, &styles->pr, LV_PART_ITEMS | LV_STATE_PRESSED);
 307              		.loc 1 261 0
 308 01bc 2968     		ldr	r1, [r5]
 309 01be 2031     		adds	r1, r1, #32
ARM GAS  C:\Users\haske\AppData\Local\Temp\ccSAQWsX.s 			page 11


 310 01c0 754A     		ldr	r2, .L32+28
 311 01c2 2000     		movs	r0, r4
 312 01c4 FFF7FEFF 		bl	lv_obj_add_style
 313              	.LVL46:
 262:..\..\..\arduinoLCD\test\Pain Drain\libraries\lvgl\src\extra\themes\mono/lv_theme_mono.c ****             lv_obj_add_style(obj, &styles->disabled, LV_PART_ITEMS | LV_STATE_DISABLED);
 314              		.loc 1 262 0
 315 01c8 2968     		ldr	r1, [r5]
 316 01ca 3031     		adds	r1, r1, #48
 317 01cc 734A     		ldr	r2, .L32+32
 318 01ce 2000     		movs	r0, r4
 319 01d0 FFF7FEFF 		bl	lv_obj_add_style
 320              	.LVL47:
 263:..\..\..\arduinoLCD\test\Pain Drain\libraries\lvgl\src\extra\themes\mono/lv_theme_mono.c ****             lv_obj_add_style(obj, &styles->underline, LV_PART_ITEMS | LV_STATE_FOCUS_KEY);
 321              		.loc 1 263 0
 322 01d4 724E     		ldr	r6, .L32+36
 323 01d6 2968     		ldr	r1, [r5]
 324 01d8 7831     		adds	r1, r1, #120
 325 01da 3200     		movs	r2, r6
 326 01dc 2000     		movs	r0, r4
 327 01de FFF7FEFF 		bl	lv_obj_add_style
 328              	.LVL48:
 264:..\..\..\arduinoLCD\test\Pain Drain\libraries\lvgl\src\extra\themes\mono/lv_theme_mono.c ****             lv_obj_add_style(obj, &styles->large_border, LV_PART_ITEMS | LV_STATE_FOCUS_KEY);
 329              		.loc 1 264 0
 330 01e2 2968     		ldr	r1, [r5]
 331 01e4 6831     		adds	r1, r1, #104
 332 01e6 3200     		movs	r2, r6
 333 01e8 2000     		movs	r0, r4
 334 01ea FFF7FEFF 		bl	lv_obj_add_style
 335              	.LVL49:
 265:..\..\..\arduinoLCD\test\Pain Drain\libraries\lvgl\src\extra\themes\mono/lv_theme_mono.c ****             return;
 336              		.loc 1 265 0
 337 01ee CAE3     		b	.L1
 338              	.L10:
 266:..\..\..\arduinoLCD\test\Pain Drain\libraries\lvgl\src\extra\themes\mono/lv_theme_mono.c ****         }
 267:..\..\..\arduinoLCD\test\Pain Drain\libraries\lvgl\src\extra\themes\mono/lv_theme_mono.c **** #endif
 268:..\..\..\arduinoLCD\test\Pain Drain\libraries\lvgl\src\extra\themes\mono/lv_theme_mono.c **** #if LV_USE_TABVIEW
 269:..\..\..\arduinoLCD\test\Pain Drain\libraries\lvgl\src\extra\themes\mono/lv_theme_mono.c ****         if(lv_obj_check_type(lv_obj_get_parent(obj), &lv_tabview_class)) {
 339              		.loc 1 269 0
 340 01f0 2000     		movs	r0, r4
 341 01f2 FFF7FEFF 		bl	lv_obj_get_parent
 342              	.LVL50:
 343 01f6 6349     		ldr	r1, .L32+8
 344 01f8 FFF7FEFF 		bl	lv_obj_check_type
 345              	.LVL51:
 346 01fc 0028     		cmp	r0, #0
 347 01fe 33D0     		beq	.L11
 270:..\..\..\arduinoLCD\test\Pain Drain\libraries\lvgl\src\extra\themes\mono/lv_theme_mono.c ****             lv_obj_add_style(obj, &styles->pad_gap, 0);
 348              		.loc 1 270 0
 349 0200 5E4D     		ldr	r5, .L32
 350 0202 2968     		ldr	r1, [r5]
 351 0204 4831     		adds	r1, r1, #72
 352 0206 0022     		movs	r2, #0
 353 0208 2000     		movs	r0, r4
 354 020a FFF7FEFF 		bl	lv_obj_add_style
 355              	.LVL52:
 271:..\..\..\arduinoLCD\test\Pain Drain\libraries\lvgl\src\extra\themes\mono/lv_theme_mono.c ****             lv_obj_add_style(obj, &styles->card, LV_PART_ITEMS);
 356              		.loc 1 271 0
ARM GAS  C:\Users\haske\AppData\Local\Temp\ccSAQWsX.s 			page 12


 357 020e 2968     		ldr	r1, [r5]
 358 0210 0831     		adds	r1, r1, #8
 359 0212 A022     		movs	r2, #160
 360 0214 D202     		lsls	r2, r2, #11
 361 0216 2000     		movs	r0, r4
 362 0218 FFF7FEFF 		bl	lv_obj_add_style
 363              	.LVL53:
 272:..\..\..\arduinoLCD\test\Pain Drain\libraries\lvgl\src\extra\themes\mono/lv_theme_mono.c ****             lv_obj_add_style(obj, &styles->pr, LV_PART_ITEMS | LV_STATE_PRESSED);
 364              		.loc 1 272 0
 365 021c 2968     		ldr	r1, [r5]
 366 021e 2031     		adds	r1, r1, #32
 367 0220 5D4A     		ldr	r2, .L32+28
 368 0222 2000     		movs	r0, r4
 369 0224 FFF7FEFF 		bl	lv_obj_add_style
 370              	.LVL54:
 273:..\..\..\arduinoLCD\test\Pain Drain\libraries\lvgl\src\extra\themes\mono/lv_theme_mono.c ****             lv_obj_add_style(obj, &styles->inv, LV_PART_ITEMS | LV_STATE_CHECKED);
 371              		.loc 1 273 0
 372 0228 2968     		ldr	r1, [r5]
 373 022a 2831     		adds	r1, r1, #40
 374 022c 5D4A     		ldr	r2, .L32+40
 375 022e 2000     		movs	r0, r4
 376 0230 FFF7FEFF 		bl	lv_obj_add_style
 377              	.LVL55:
 274:..\..\..\arduinoLCD\test\Pain Drain\libraries\lvgl\src\extra\themes\mono/lv_theme_mono.c ****             lv_obj_add_style(obj, &styles->disabled, LV_PART_ITEMS | LV_STATE_DISABLED);
 378              		.loc 1 274 0
 379 0234 2968     		ldr	r1, [r5]
 380 0236 3031     		adds	r1, r1, #48
 381 0238 584A     		ldr	r2, .L32+32
 382 023a 2000     		movs	r0, r4
 383 023c FFF7FEFF 		bl	lv_obj_add_style
 384              	.LVL56:
 275:..\..\..\arduinoLCD\test\Pain Drain\libraries\lvgl\src\extra\themes\mono/lv_theme_mono.c ****             lv_obj_add_style(obj, &styles->focus, LV_STATE_FOCUS_KEY);
 385              		.loc 1 275 0
 386 0240 2968     		ldr	r1, [r5]
 387 0242 3831     		adds	r1, r1, #56
 388 0244 0422     		movs	r2, #4
 389 0246 2000     		movs	r0, r4
 390 0248 FFF7FEFF 		bl	lv_obj_add_style
 391              	.LVL57:
 276:..\..\..\arduinoLCD\test\Pain Drain\libraries\lvgl\src\extra\themes\mono/lv_theme_mono.c ****             lv_obj_add_style(obj, &styles->underline, LV_PART_ITEMS | LV_STATE_FOCUS_KEY);
 392              		.loc 1 276 0
 393 024c 544E     		ldr	r6, .L32+36
 394 024e 2968     		ldr	r1, [r5]
 395 0250 7831     		adds	r1, r1, #120
 396 0252 3200     		movs	r2, r6
 397 0254 2000     		movs	r0, r4
 398 0256 FFF7FEFF 		bl	lv_obj_add_style
 399              	.LVL58:
 277:..\..\..\arduinoLCD\test\Pain Drain\libraries\lvgl\src\extra\themes\mono/lv_theme_mono.c ****             lv_obj_add_style(obj, &styles->large_border, LV_PART_ITEMS | LV_STATE_FOCUS_KEY);
 400              		.loc 1 277 0
 401 025a 2968     		ldr	r1, [r5]
 402 025c 6831     		adds	r1, r1, #104
 403 025e 3200     		movs	r2, r6
 404 0260 2000     		movs	r0, r4
 405 0262 FFF7FEFF 		bl	lv_obj_add_style
 406              	.LVL59:
 278:..\..\..\arduinoLCD\test\Pain Drain\libraries\lvgl\src\extra\themes\mono/lv_theme_mono.c ****             return;
ARM GAS  C:\Users\haske\AppData\Local\Temp\ccSAQWsX.s 			page 13


 407              		.loc 1 278 0
 408 0266 8EE3     		b	.L1
 409              	.L11:
 279:..\..\..\arduinoLCD\test\Pain Drain\libraries\lvgl\src\extra\themes\mono/lv_theme_mono.c ****         }
 280:..\..\..\arduinoLCD\test\Pain Drain\libraries\lvgl\src\extra\themes\mono/lv_theme_mono.c **** #endif
 281:..\..\..\arduinoLCD\test\Pain Drain\libraries\lvgl\src\extra\themes\mono/lv_theme_mono.c ****         lv_obj_add_style(obj, &styles->card, 0);
 410              		.loc 1 281 0
 411 0268 444D     		ldr	r5, .L32
 412 026a 2968     		ldr	r1, [r5]
 413 026c 0831     		adds	r1, r1, #8
 414 026e 0022     		movs	r2, #0
 415 0270 2000     		movs	r0, r4
 416 0272 FFF7FEFF 		bl	lv_obj_add_style
 417              	.LVL60:
 282:..\..\..\arduinoLCD\test\Pain Drain\libraries\lvgl\src\extra\themes\mono/lv_theme_mono.c ****         lv_obj_add_style(obj, &styles->focus, LV_STATE_FOCUS_KEY);
 418              		.loc 1 282 0
 419 0276 2968     		ldr	r1, [r5]
 420 0278 3831     		adds	r1, r1, #56
 421 027a 0422     		movs	r2, #4
 422 027c 2000     		movs	r0, r4
 423 027e FFF7FEFF 		bl	lv_obj_add_style
 424              	.LVL61:
 283:..\..\..\arduinoLCD\test\Pain Drain\libraries\lvgl\src\extra\themes\mono/lv_theme_mono.c ****         lv_obj_add_style(obj, &styles->card, LV_PART_ITEMS);
 425              		.loc 1 283 0
 426 0282 2968     		ldr	r1, [r5]
 427 0284 0831     		adds	r1, r1, #8
 428 0286 A022     		movs	r2, #160
 429 0288 D202     		lsls	r2, r2, #11
 430 028a 2000     		movs	r0, r4
 431 028c FFF7FEFF 		bl	lv_obj_add_style
 432              	.LVL62:
 284:..\..\..\arduinoLCD\test\Pain Drain\libraries\lvgl\src\extra\themes\mono/lv_theme_mono.c ****         lv_obj_add_style(obj, &styles->pr, LV_PART_ITEMS | LV_STATE_PRESSED);
 433              		.loc 1 284 0
 434 0290 2968     		ldr	r1, [r5]
 435 0292 2031     		adds	r1, r1, #32
 436 0294 404A     		ldr	r2, .L32+28
 437 0296 2000     		movs	r0, r4
 438 0298 FFF7FEFF 		bl	lv_obj_add_style
 439              	.LVL63:
 285:..\..\..\arduinoLCD\test\Pain Drain\libraries\lvgl\src\extra\themes\mono/lv_theme_mono.c ****         lv_obj_add_style(obj, &styles->inv, LV_PART_ITEMS | LV_STATE_CHECKED);
 440              		.loc 1 285 0
 441 029c 2968     		ldr	r1, [r5]
 442 029e 2831     		adds	r1, r1, #40
 443 02a0 404A     		ldr	r2, .L32+40
 444 02a2 2000     		movs	r0, r4
 445 02a4 FFF7FEFF 		bl	lv_obj_add_style
 446              	.LVL64:
 286:..\..\..\arduinoLCD\test\Pain Drain\libraries\lvgl\src\extra\themes\mono/lv_theme_mono.c ****         lv_obj_add_style(obj, &styles->disabled, LV_PART_ITEMS | LV_STATE_DISABLED);
 447              		.loc 1 286 0
 448 02a8 2968     		ldr	r1, [r5]
 449 02aa 3031     		adds	r1, r1, #48
 450 02ac 3B4A     		ldr	r2, .L32+32
 451 02ae 2000     		movs	r0, r4
 452 02b0 FFF7FEFF 		bl	lv_obj_add_style
 453              	.LVL65:
 287:..\..\..\arduinoLCD\test\Pain Drain\libraries\lvgl\src\extra\themes\mono/lv_theme_mono.c ****         lv_obj_add_style(obj, &styles->underline, LV_PART_ITEMS | LV_STATE_FOCUS_KEY);
 454              		.loc 1 287 0
ARM GAS  C:\Users\haske\AppData\Local\Temp\ccSAQWsX.s 			page 14


 455 02b4 3A4E     		ldr	r6, .L32+36
 456 02b6 2968     		ldr	r1, [r5]
 457 02b8 7831     		adds	r1, r1, #120
 458 02ba 3200     		movs	r2, r6
 459 02bc 2000     		movs	r0, r4
 460 02be FFF7FEFF 		bl	lv_obj_add_style
 461              	.LVL66:
 288:..\..\..\arduinoLCD\test\Pain Drain\libraries\lvgl\src\extra\themes\mono/lv_theme_mono.c ****         lv_obj_add_style(obj, &styles->large_border, LV_PART_ITEMS | LV_STATE_FOCUS_KEY);
 462              		.loc 1 288 0
 463 02c2 2968     		ldr	r1, [r5]
 464 02c4 6831     		adds	r1, r1, #104
 465 02c6 3200     		movs	r2, r6
 466 02c8 2000     		movs	r0, r4
 467 02ca FFF7FEFF 		bl	lv_obj_add_style
 468              	.LVL67:
 469 02ce 5AE3     		b	.L1
 470              	.L9:
 289:..\..\..\arduinoLCD\test\Pain Drain\libraries\lvgl\src\extra\themes\mono/lv_theme_mono.c ****     }
 290:..\..\..\arduinoLCD\test\Pain Drain\libraries\lvgl\src\extra\themes\mono/lv_theme_mono.c **** #endif
 291:..\..\..\arduinoLCD\test\Pain Drain\libraries\lvgl\src\extra\themes\mono/lv_theme_mono.c **** 
 292:..\..\..\arduinoLCD\test\Pain Drain\libraries\lvgl\src\extra\themes\mono/lv_theme_mono.c **** #if LV_USE_BAR
 293:..\..\..\arduinoLCD\test\Pain Drain\libraries\lvgl\src\extra\themes\mono/lv_theme_mono.c ****     else if(lv_obj_check_type(obj, &lv_bar_class)) {
 471              		.loc 1 293 0
 472 02d0 3549     		ldr	r1, .L32+44
 473 02d2 2000     		movs	r0, r4
 474 02d4 FFF7FEFF 		bl	lv_obj_check_type
 475              	.LVL68:
 476 02d8 0028     		cmp	r0, #0
 477 02da 1AD0     		beq	.L12
 294:..\..\..\arduinoLCD\test\Pain Drain\libraries\lvgl\src\extra\themes\mono/lv_theme_mono.c ****         lv_obj_add_style(obj, &styles->card, 0);
 478              		.loc 1 294 0
 479 02dc 274D     		ldr	r5, .L32
 480 02de 2968     		ldr	r1, [r5]
 481 02e0 0831     		adds	r1, r1, #8
 482 02e2 0022     		movs	r2, #0
 483 02e4 2000     		movs	r0, r4
 484 02e6 FFF7FEFF 		bl	lv_obj_add_style
 485              	.LVL69:
 295:..\..\..\arduinoLCD\test\Pain Drain\libraries\lvgl\src\extra\themes\mono/lv_theme_mono.c ****         lv_obj_add_style(obj, &styles->pad_zero, 0);
 486              		.loc 1 295 0
 487 02ea 2968     		ldr	r1, [r5]
 488 02ec 5031     		adds	r1, r1, #80
 489 02ee 0022     		movs	r2, #0
 490 02f0 2000     		movs	r0, r4
 491 02f2 FFF7FEFF 		bl	lv_obj_add_style
 492              	.LVL70:
 296:..\..\..\arduinoLCD\test\Pain Drain\libraries\lvgl\src\extra\themes\mono/lv_theme_mono.c ****         lv_obj_add_style(obj, &styles->inv, LV_PART_INDICATOR);
 493              		.loc 1 296 0
 494 02f6 2968     		ldr	r1, [r5]
 495 02f8 2831     		adds	r1, r1, #40
 496 02fa 8022     		movs	r2, #128
 497 02fc 9202     		lsls	r2, r2, #10
 498 02fe 2000     		movs	r0, r4
 499 0300 FFF7FEFF 		bl	lv_obj_add_style
 500              	.LVL71:
 297:..\..\..\arduinoLCD\test\Pain Drain\libraries\lvgl\src\extra\themes\mono/lv_theme_mono.c ****         lv_obj_add_style(obj, &styles->focus, LV_STATE_FOCUS_KEY);
 501              		.loc 1 297 0
ARM GAS  C:\Users\haske\AppData\Local\Temp\ccSAQWsX.s 			page 15


 502 0304 2968     		ldr	r1, [r5]
 503 0306 3831     		adds	r1, r1, #56
 504 0308 0422     		movs	r2, #4
 505 030a 2000     		movs	r0, r4
 506 030c FFF7FEFF 		bl	lv_obj_add_style
 507              	.LVL72:
 508 0310 39E3     		b	.L1
 509              	.L12:
 298:..\..\..\arduinoLCD\test\Pain Drain\libraries\lvgl\src\extra\themes\mono/lv_theme_mono.c ****     }
 299:..\..\..\arduinoLCD\test\Pain Drain\libraries\lvgl\src\extra\themes\mono/lv_theme_mono.c **** #endif
 300:..\..\..\arduinoLCD\test\Pain Drain\libraries\lvgl\src\extra\themes\mono/lv_theme_mono.c **** 
 301:..\..\..\arduinoLCD\test\Pain Drain\libraries\lvgl\src\extra\themes\mono/lv_theme_mono.c **** #if LV_USE_SLIDER
 302:..\..\..\arduinoLCD\test\Pain Drain\libraries\lvgl\src\extra\themes\mono/lv_theme_mono.c ****     else if(lv_obj_check_type(obj, &lv_slider_class)) {
 510              		.loc 1 302 0
 511 0312 2649     		ldr	r1, .L32+48
 512 0314 2000     		movs	r0, r4
 513 0316 FFF7FEFF 		bl	lv_obj_check_type
 514              	.LVL73:
 515 031a 0028     		cmp	r0, #0
 516 031c 48D0     		beq	.L13
 303:..\..\..\arduinoLCD\test\Pain Drain\libraries\lvgl\src\extra\themes\mono/lv_theme_mono.c ****         lv_obj_add_style(obj, &styles->card, 0);
 517              		.loc 1 303 0
 518 031e 174D     		ldr	r5, .L32
 519 0320 2968     		ldr	r1, [r5]
 520 0322 0831     		adds	r1, r1, #8
 521 0324 0022     		movs	r2, #0
 522 0326 2000     		movs	r0, r4
 523 0328 FFF7FEFF 		bl	lv_obj_add_style
 524              	.LVL74:
 304:..\..\..\arduinoLCD\test\Pain Drain\libraries\lvgl\src\extra\themes\mono/lv_theme_mono.c ****         lv_obj_add_style(obj, &styles->pad_zero, 0);
 525              		.loc 1 304 0
 526 032c 2968     		ldr	r1, [r5]
 527 032e 5031     		adds	r1, r1, #80
 528 0330 0022     		movs	r2, #0
 529 0332 2000     		movs	r0, r4
 530 0334 FFF7FEFF 		bl	lv_obj_add_style
 531              	.LVL75:
 305:..\..\..\arduinoLCD\test\Pain Drain\libraries\lvgl\src\extra\themes\mono/lv_theme_mono.c ****         lv_obj_add_style(obj, &styles->inv, LV_PART_INDICATOR);
 532              		.loc 1 305 0
 533 0338 2968     		ldr	r1, [r5]
 534 033a 2831     		adds	r1, r1, #40
 535 033c 8022     		movs	r2, #128
 536 033e 9202     		lsls	r2, r2, #10
 537 0340 2000     		movs	r0, r4
 538 0342 FFF7FEFF 		bl	lv_obj_add_style
 539              	.LVL76:
 306:..\..\..\arduinoLCD\test\Pain Drain\libraries\lvgl\src\extra\themes\mono/lv_theme_mono.c ****         lv_obj_add_style(obj, &styles->card, LV_PART_KNOB);
 540              		.loc 1 306 0
 541 0346 C026     		movs	r6, #192
 542 0348 B602     		lsls	r6, r6, #10
 543 034a 2968     		ldr	r1, [r5]
 544 034c 0831     		adds	r1, r1, #8
 545 034e 3200     		movs	r2, r6
 546 0350 2000     		movs	r0, r4
 547 0352 FFF7FEFF 		bl	lv_obj_add_style
 548              	.LVL77:
 307:..\..\..\arduinoLCD\test\Pain Drain\libraries\lvgl\src\extra\themes\mono/lv_theme_mono.c ****         lv_obj_add_style(obj, &styles->radius_circle, LV_PART_KNOB);
ARM GAS  C:\Users\haske\AppData\Local\Temp\ccSAQWsX.s 			page 16


 549              		.loc 1 307 0
 550 0356 2968     		ldr	r1, [r5]
 551 0358 6031     		adds	r1, r1, #96
 552 035a 3200     		movs	r2, r6
 553 035c 2000     		movs	r0, r4
 554 035e FFF7FEFF 		bl	lv_obj_add_style
 555              	.LVL78:
 308:..\..\..\arduinoLCD\test\Pain Drain\libraries\lvgl\src\extra\themes\mono/lv_theme_mono.c ****         lv_obj_add_style(obj, &styles->focus, LV_STATE_FOCUS_KEY);
 556              		.loc 1 308 0
 557 0362 2968     		ldr	r1, [r5]
 558 0364 3831     		adds	r1, r1, #56
 559 0366 0422     		movs	r2, #4
 560 0368 2000     		movs	r0, r4
 561 036a FFF7FEFF 		bl	lv_obj_add_style
 562              	.LVL79:
 309:..\..\..\arduinoLCD\test\Pain Drain\libraries\lvgl\src\extra\themes\mono/lv_theme_mono.c ****         lv_obj_add_style(obj, &styles->edit, LV_STATE_EDITED);
 563              		.loc 1 309 0
 564 036e 2968     		ldr	r1, [r5]
 565 0370 4031     		adds	r1, r1, #64
 566 0372 0822     		movs	r2, #8
 567 0374 2000     		movs	r0, r4
 568 0376 FFF7FEFF 		bl	lv_obj_add_style
 569              	.LVL80:
 570 037a 04E3     		b	.L1
 571              	.L33:
 572              		.align	2
 573              	.L32:
 574 037c 00000000 		.word	.LANCHOR0
 575 0380 00000000 		.word	lv_obj_class
 576 0384 00000000 		.word	lv_tabview_class
 577 0388 00000000 		.word	lv_win_class
 578 038c 00000000 		.word	lv_btn_class
 579 0390 00000000 		.word	lv_btnmatrix_class
 580 0394 00000000 		.word	lv_msgbox_class
 581 0398 20000500 		.word	327712
 582 039c 80000500 		.word	327808
 583 03a0 04000500 		.word	327684
 584 03a4 01000500 		.word	327681
 585 03a8 00000000 		.word	lv_bar_class
 586 03ac 00000000 		.word	lv_slider_class
 587              	.L13:
 310:..\..\..\arduinoLCD\test\Pain Drain\libraries\lvgl\src\extra\themes\mono/lv_theme_mono.c ****     }
 311:..\..\..\arduinoLCD\test\Pain Drain\libraries\lvgl\src\extra\themes\mono/lv_theme_mono.c **** #endif
 312:..\..\..\arduinoLCD\test\Pain Drain\libraries\lvgl\src\extra\themes\mono/lv_theme_mono.c **** 
 313:..\..\..\arduinoLCD\test\Pain Drain\libraries\lvgl\src\extra\themes\mono/lv_theme_mono.c **** #if LV_USE_TABLE
 314:..\..\..\arduinoLCD\test\Pain Drain\libraries\lvgl\src\extra\themes\mono/lv_theme_mono.c ****     else if(lv_obj_check_type(obj, &lv_table_class)) {
 588              		.loc 1 314 0
 589 03b0 E249     		ldr	r1, .L34
 590 03b2 2000     		movs	r0, r4
 591 03b4 FFF7FEFF 		bl	lv_obj_check_type
 592              	.LVL81:
 593 03b8 0028     		cmp	r0, #0
 594 03ba 2ED0     		beq	.L14
 315:..\..\..\arduinoLCD\test\Pain Drain\libraries\lvgl\src\extra\themes\mono/lv_theme_mono.c ****         lv_obj_add_style(obj, &styles->scrollbar, LV_PART_SCROLLBAR);
 595              		.loc 1 315 0
 596 03bc E04D     		ldr	r5, .L34+4
 597 03be 2968     		ldr	r1, [r5]
ARM GAS  C:\Users\haske\AppData\Local\Temp\ccSAQWsX.s 			page 17


 598 03c0 1031     		adds	r1, r1, #16
 599 03c2 8022     		movs	r2, #128
 600 03c4 5202     		lsls	r2, r2, #9
 601 03c6 2000     		movs	r0, r4
 602 03c8 FFF7FEFF 		bl	lv_obj_add_style
 603              	.LVL82:
 316:..\..\..\arduinoLCD\test\Pain Drain\libraries\lvgl\src\extra\themes\mono/lv_theme_mono.c ****         lv_obj_add_style(obj, &styles->card, LV_PART_ITEMS);
 604              		.loc 1 316 0
 605 03cc A026     		movs	r6, #160
 606 03ce F602     		lsls	r6, r6, #11
 607 03d0 2968     		ldr	r1, [r5]
 608 03d2 0831     		adds	r1, r1, #8
 609 03d4 3200     		movs	r2, r6
 610 03d6 2000     		movs	r0, r4
 611 03d8 FFF7FEFF 		bl	lv_obj_add_style
 612              	.LVL83:
 317:..\..\..\arduinoLCD\test\Pain Drain\libraries\lvgl\src\extra\themes\mono/lv_theme_mono.c ****         lv_obj_add_style(obj, &styles->no_radius, LV_PART_ITEMS);
 613              		.loc 1 317 0
 614 03dc 2968     		ldr	r1, [r5]
 615 03de 5831     		adds	r1, r1, #88
 616 03e0 3200     		movs	r2, r6
 617 03e2 2000     		movs	r0, r4
 618 03e4 FFF7FEFF 		bl	lv_obj_add_style
 619              	.LVL84:
 318:..\..\..\arduinoLCD\test\Pain Drain\libraries\lvgl\src\extra\themes\mono/lv_theme_mono.c ****         lv_obj_add_style(obj, &styles->pr, LV_PART_ITEMS | LV_STATE_PRESSED);
 620              		.loc 1 318 0
 621 03e8 2968     		ldr	r1, [r5]
 622 03ea 2031     		adds	r1, r1, #32
 623 03ec D54A     		ldr	r2, .L34+8
 624 03ee 2000     		movs	r0, r4
 625 03f0 FFF7FEFF 		bl	lv_obj_add_style
 626              	.LVL85:
 319:..\..\..\arduinoLCD\test\Pain Drain\libraries\lvgl\src\extra\themes\mono/lv_theme_mono.c ****         lv_obj_add_style(obj, &styles->focus, LV_STATE_FOCUS_KEY);
 627              		.loc 1 319 0
 628 03f4 2968     		ldr	r1, [r5]
 629 03f6 3831     		adds	r1, r1, #56
 630 03f8 0422     		movs	r2, #4
 631 03fa 2000     		movs	r0, r4
 632 03fc FFF7FEFF 		bl	lv_obj_add_style
 633              	.LVL86:
 320:..\..\..\arduinoLCD\test\Pain Drain\libraries\lvgl\src\extra\themes\mono/lv_theme_mono.c ****         lv_obj_add_style(obj, &styles->inv, LV_PART_ITEMS | LV_STATE_FOCUS_KEY);
 634              		.loc 1 320 0
 635 0400 2968     		ldr	r1, [r5]
 636 0402 2831     		adds	r1, r1, #40
 637 0404 D04A     		ldr	r2, .L34+12
 638 0406 2000     		movs	r0, r4
 639 0408 FFF7FEFF 		bl	lv_obj_add_style
 640              	.LVL87:
 321:..\..\..\arduinoLCD\test\Pain Drain\libraries\lvgl\src\extra\themes\mono/lv_theme_mono.c ****         lv_obj_add_style(obj, &styles->edit, LV_STATE_EDITED);
 641              		.loc 1 321 0
 642 040c 2968     		ldr	r1, [r5]
 643 040e 4031     		adds	r1, r1, #64
 644 0410 0822     		movs	r2, #8
 645 0412 2000     		movs	r0, r4
 646 0414 FFF7FEFF 		bl	lv_obj_add_style
 647              	.LVL88:
 648 0418 B5E2     		b	.L1
ARM GAS  C:\Users\haske\AppData\Local\Temp\ccSAQWsX.s 			page 18


 649              	.L14:
 322:..\..\..\arduinoLCD\test\Pain Drain\libraries\lvgl\src\extra\themes\mono/lv_theme_mono.c ****     }
 323:..\..\..\arduinoLCD\test\Pain Drain\libraries\lvgl\src\extra\themes\mono/lv_theme_mono.c **** #endif
 324:..\..\..\arduinoLCD\test\Pain Drain\libraries\lvgl\src\extra\themes\mono/lv_theme_mono.c **** 
 325:..\..\..\arduinoLCD\test\Pain Drain\libraries\lvgl\src\extra\themes\mono/lv_theme_mono.c **** #if LV_USE_CHECKBOX
 326:..\..\..\arduinoLCD\test\Pain Drain\libraries\lvgl\src\extra\themes\mono/lv_theme_mono.c ****     else if(lv_obj_check_type(obj, &lv_checkbox_class)) {
 650              		.loc 1 326 0
 651 041a CC49     		ldr	r1, .L34+16
 652 041c 2000     		movs	r0, r4
 653 041e FFF7FEFF 		bl	lv_obj_check_type
 654              	.LVL89:
 655 0422 0028     		cmp	r0, #0
 656 0424 2CD0     		beq	.L15
 327:..\..\..\arduinoLCD\test\Pain Drain\libraries\lvgl\src\extra\themes\mono/lv_theme_mono.c ****         lv_obj_add_style(obj, &styles->pad_gap, LV_PART_MAIN);
 657              		.loc 1 327 0
 658 0426 C64D     		ldr	r5, .L34+4
 659 0428 2968     		ldr	r1, [r5]
 660 042a 4831     		adds	r1, r1, #72
 661 042c 0022     		movs	r2, #0
 662 042e 2000     		movs	r0, r4
 663 0430 FFF7FEFF 		bl	lv_obj_add_style
 664              	.LVL90:
 328:..\..\..\arduinoLCD\test\Pain Drain\libraries\lvgl\src\extra\themes\mono/lv_theme_mono.c ****         lv_obj_add_style(obj, &styles->card, LV_PART_INDICATOR);
 665              		.loc 1 328 0
 666 0434 2968     		ldr	r1, [r5]
 667 0436 0831     		adds	r1, r1, #8
 668 0438 8022     		movs	r2, #128
 669 043a 9202     		lsls	r2, r2, #10
 670 043c 2000     		movs	r0, r4
 671 043e FFF7FEFF 		bl	lv_obj_add_style
 672              	.LVL91:
 329:..\..\..\arduinoLCD\test\Pain Drain\libraries\lvgl\src\extra\themes\mono/lv_theme_mono.c ****         lv_obj_add_style(obj, &styles->disabled, LV_PART_INDICATOR | LV_STATE_DISABLED);
 673              		.loc 1 329 0
 674 0442 2968     		ldr	r1, [r5]
 675 0444 3031     		adds	r1, r1, #48
 676 0446 C24A     		ldr	r2, .L34+20
 677 0448 2000     		movs	r0, r4
 678 044a FFF7FEFF 		bl	lv_obj_add_style
 679              	.LVL92:
 330:..\..\..\arduinoLCD\test\Pain Drain\libraries\lvgl\src\extra\themes\mono/lv_theme_mono.c ****         lv_obj_add_style(obj, &styles->inv, LV_PART_INDICATOR | LV_STATE_CHECKED);
 680              		.loc 1 330 0
 681 044e 2968     		ldr	r1, [r5]
 682 0450 2831     		adds	r1, r1, #40
 683 0452 C04A     		ldr	r2, .L34+24
 684 0454 2000     		movs	r0, r4
 685 0456 FFF7FEFF 		bl	lv_obj_add_style
 686              	.LVL93:
 331:..\..\..\arduinoLCD\test\Pain Drain\libraries\lvgl\src\extra\themes\mono/lv_theme_mono.c ****         lv_obj_add_style(obj, &styles->pr, LV_PART_INDICATOR | LV_STATE_PRESSED);
 687              		.loc 1 331 0
 688 045a 2968     		ldr	r1, [r5]
 689 045c 2031     		adds	r1, r1, #32
 690 045e BE4A     		ldr	r2, .L34+28
 691 0460 2000     		movs	r0, r4
 692 0462 FFF7FEFF 		bl	lv_obj_add_style
 693              	.LVL94:
 332:..\..\..\arduinoLCD\test\Pain Drain\libraries\lvgl\src\extra\themes\mono/lv_theme_mono.c ****         lv_obj_add_style(obj, &styles->focus, LV_STATE_FOCUS_KEY);
 694              		.loc 1 332 0
ARM GAS  C:\Users\haske\AppData\Local\Temp\ccSAQWsX.s 			page 19


 695 0466 2968     		ldr	r1, [r5]
 696 0468 3831     		adds	r1, r1, #56
 697 046a 0422     		movs	r2, #4
 698 046c 2000     		movs	r0, r4
 699 046e FFF7FEFF 		bl	lv_obj_add_style
 700              	.LVL95:
 333:..\..\..\arduinoLCD\test\Pain Drain\libraries\lvgl\src\extra\themes\mono/lv_theme_mono.c ****         lv_obj_add_style(obj, &styles->edit, LV_STATE_EDITED);
 701              		.loc 1 333 0
 702 0472 2968     		ldr	r1, [r5]
 703 0474 4031     		adds	r1, r1, #64
 704 0476 0822     		movs	r2, #8
 705 0478 2000     		movs	r0, r4
 706 047a FFF7FEFF 		bl	lv_obj_add_style
 707              	.LVL96:
 708 047e 82E2     		b	.L1
 709              	.L15:
 334:..\..\..\arduinoLCD\test\Pain Drain\libraries\lvgl\src\extra\themes\mono/lv_theme_mono.c ****     }
 335:..\..\..\arduinoLCD\test\Pain Drain\libraries\lvgl\src\extra\themes\mono/lv_theme_mono.c **** #endif
 336:..\..\..\arduinoLCD\test\Pain Drain\libraries\lvgl\src\extra\themes\mono/lv_theme_mono.c **** 
 337:..\..\..\arduinoLCD\test\Pain Drain\libraries\lvgl\src\extra\themes\mono/lv_theme_mono.c **** #if LV_USE_SWITCH
 338:..\..\..\arduinoLCD\test\Pain Drain\libraries\lvgl\src\extra\themes\mono/lv_theme_mono.c ****     else if(lv_obj_check_type(obj, &lv_switch_class)) {
 710              		.loc 1 338 0
 711 0480 B649     		ldr	r1, .L34+32
 712 0482 2000     		movs	r0, r4
 713 0484 FFF7FEFF 		bl	lv_obj_check_type
 714              	.LVL97:
 715 0488 0028     		cmp	r0, #0
 716 048a 41D0     		beq	.L16
 339:..\..\..\arduinoLCD\test\Pain Drain\libraries\lvgl\src\extra\themes\mono/lv_theme_mono.c ****         lv_obj_add_style(obj, &styles->card, 0);
 717              		.loc 1 339 0
 718 048c AC4D     		ldr	r5, .L34+4
 719 048e 2968     		ldr	r1, [r5]
 720 0490 0831     		adds	r1, r1, #8
 721 0492 0022     		movs	r2, #0
 722 0494 2000     		movs	r0, r4
 723 0496 FFF7FEFF 		bl	lv_obj_add_style
 724              	.LVL98:
 340:..\..\..\arduinoLCD\test\Pain Drain\libraries\lvgl\src\extra\themes\mono/lv_theme_mono.c ****         lv_obj_add_style(obj, &styles->radius_circle, 0);
 725              		.loc 1 340 0
 726 049a 2968     		ldr	r1, [r5]
 727 049c 6031     		adds	r1, r1, #96
 728 049e 0022     		movs	r2, #0
 729 04a0 2000     		movs	r0, r4
 730 04a2 FFF7FEFF 		bl	lv_obj_add_style
 731              	.LVL99:
 341:..\..\..\arduinoLCD\test\Pain Drain\libraries\lvgl\src\extra\themes\mono/lv_theme_mono.c ****         lv_obj_add_style(obj, &styles->pad_zero, 0);
 732              		.loc 1 341 0
 733 04a6 2968     		ldr	r1, [r5]
 734 04a8 5031     		adds	r1, r1, #80
 735 04aa 0022     		movs	r2, #0
 736 04ac 2000     		movs	r0, r4
 737 04ae FFF7FEFF 		bl	lv_obj_add_style
 738              	.LVL100:
 342:..\..\..\arduinoLCD\test\Pain Drain\libraries\lvgl\src\extra\themes\mono/lv_theme_mono.c ****         lv_obj_add_style(obj, &styles->inv, LV_PART_INDICATOR);
 739              		.loc 1 342 0
 740 04b2 8026     		movs	r6, #128
 741 04b4 B602     		lsls	r6, r6, #10
ARM GAS  C:\Users\haske\AppData\Local\Temp\ccSAQWsX.s 			page 20


 742 04b6 2968     		ldr	r1, [r5]
 743 04b8 2831     		adds	r1, r1, #40
 744 04ba 3200     		movs	r2, r6
 745 04bc 2000     		movs	r0, r4
 746 04be FFF7FEFF 		bl	lv_obj_add_style
 747              	.LVL101:
 343:..\..\..\arduinoLCD\test\Pain Drain\libraries\lvgl\src\extra\themes\mono/lv_theme_mono.c ****         lv_obj_add_style(obj, &styles->radius_circle, LV_PART_INDICATOR);
 748              		.loc 1 343 0
 749 04c2 2968     		ldr	r1, [r5]
 750 04c4 6031     		adds	r1, r1, #96
 751 04c6 3200     		movs	r2, r6
 752 04c8 2000     		movs	r0, r4
 753 04ca FFF7FEFF 		bl	lv_obj_add_style
 754              	.LVL102:
 344:..\..\..\arduinoLCD\test\Pain Drain\libraries\lvgl\src\extra\themes\mono/lv_theme_mono.c ****         lv_obj_add_style(obj, &styles->card, LV_PART_KNOB);
 755              		.loc 1 344 0
 756 04ce C026     		movs	r6, #192
 757 04d0 B602     		lsls	r6, r6, #10
 758 04d2 2968     		ldr	r1, [r5]
 759 04d4 0831     		adds	r1, r1, #8
 760 04d6 3200     		movs	r2, r6
 761 04d8 2000     		movs	r0, r4
 762 04da FFF7FEFF 		bl	lv_obj_add_style
 763              	.LVL103:
 345:..\..\..\arduinoLCD\test\Pain Drain\libraries\lvgl\src\extra\themes\mono/lv_theme_mono.c ****         lv_obj_add_style(obj, &styles->radius_circle, LV_PART_KNOB);
 764              		.loc 1 345 0
 765 04de 2968     		ldr	r1, [r5]
 766 04e0 6031     		adds	r1, r1, #96
 767 04e2 3200     		movs	r2, r6
 768 04e4 2000     		movs	r0, r4
 769 04e6 FFF7FEFF 		bl	lv_obj_add_style
 770              	.LVL104:
 346:..\..\..\arduinoLCD\test\Pain Drain\libraries\lvgl\src\extra\themes\mono/lv_theme_mono.c ****         lv_obj_add_style(obj, &styles->pad_zero, LV_PART_KNOB);
 771              		.loc 1 346 0
 772 04ea 2968     		ldr	r1, [r5]
 773 04ec 5031     		adds	r1, r1, #80
 774 04ee 3200     		movs	r2, r6
 775 04f0 2000     		movs	r0, r4
 776 04f2 FFF7FEFF 		bl	lv_obj_add_style
 777              	.LVL105:
 347:..\..\..\arduinoLCD\test\Pain Drain\libraries\lvgl\src\extra\themes\mono/lv_theme_mono.c ****         lv_obj_add_style(obj, &styles->focus, LV_STATE_FOCUS_KEY);
 778              		.loc 1 347 0
 779 04f6 2968     		ldr	r1, [r5]
 780 04f8 3831     		adds	r1, r1, #56
 781 04fa 0422     		movs	r2, #4
 782 04fc 2000     		movs	r0, r4
 783 04fe FFF7FEFF 		bl	lv_obj_add_style
 784              	.LVL106:
 348:..\..\..\arduinoLCD\test\Pain Drain\libraries\lvgl\src\extra\themes\mono/lv_theme_mono.c ****         lv_obj_add_style(obj, &styles->edit, LV_STATE_EDITED);
 785              		.loc 1 348 0
 786 0502 2968     		ldr	r1, [r5]
 787 0504 4031     		adds	r1, r1, #64
 788 0506 0822     		movs	r2, #8
 789 0508 2000     		movs	r0, r4
 790 050a FFF7FEFF 		bl	lv_obj_add_style
 791              	.LVL107:
 792 050e 3AE2     		b	.L1
ARM GAS  C:\Users\haske\AppData\Local\Temp\ccSAQWsX.s 			page 21


 793              	.L16:
 349:..\..\..\arduinoLCD\test\Pain Drain\libraries\lvgl\src\extra\themes\mono/lv_theme_mono.c ****     }
 350:..\..\..\arduinoLCD\test\Pain Drain\libraries\lvgl\src\extra\themes\mono/lv_theme_mono.c **** #endif
 351:..\..\..\arduinoLCD\test\Pain Drain\libraries\lvgl\src\extra\themes\mono/lv_theme_mono.c **** 
 352:..\..\..\arduinoLCD\test\Pain Drain\libraries\lvgl\src\extra\themes\mono/lv_theme_mono.c **** #if LV_USE_CHART
 353:..\..\..\arduinoLCD\test\Pain Drain\libraries\lvgl\src\extra\themes\mono/lv_theme_mono.c ****     else if(lv_obj_check_type(obj, &lv_chart_class)) {
 794              		.loc 1 353 0
 795 0510 9349     		ldr	r1, .L34+36
 796 0512 2000     		movs	r0, r4
 797 0514 FFF7FEFF 		bl	lv_obj_check_type
 798              	.LVL108:
 799 0518 0028     		cmp	r0, #0
 800 051a 29D0     		beq	.L17
 354:..\..\..\arduinoLCD\test\Pain Drain\libraries\lvgl\src\extra\themes\mono/lv_theme_mono.c ****         lv_obj_add_style(obj, &styles->card, 0);
 801              		.loc 1 354 0
 802 051c 884D     		ldr	r5, .L34+4
 803 051e 2968     		ldr	r1, [r5]
 804 0520 0831     		adds	r1, r1, #8
 805 0522 0022     		movs	r2, #0
 806 0524 2000     		movs	r0, r4
 807 0526 FFF7FEFF 		bl	lv_obj_add_style
 808              	.LVL109:
 355:..\..\..\arduinoLCD\test\Pain Drain\libraries\lvgl\src\extra\themes\mono/lv_theme_mono.c ****         lv_obj_add_style(obj, &styles->scrollbar, LV_PART_SCROLLBAR);
 809              		.loc 1 355 0
 810 052a 2968     		ldr	r1, [r5]
 811 052c 1031     		adds	r1, r1, #16
 812 052e 8022     		movs	r2, #128
 813 0530 5202     		lsls	r2, r2, #9
 814 0532 2000     		movs	r0, r4
 815 0534 FFF7FEFF 		bl	lv_obj_add_style
 816              	.LVL110:
 356:..\..\..\arduinoLCD\test\Pain Drain\libraries\lvgl\src\extra\themes\mono/lv_theme_mono.c ****         lv_obj_add_style(obj, &styles->card, LV_PART_ITEMS);
 817              		.loc 1 356 0
 818 0538 2968     		ldr	r1, [r5]
 819 053a 0831     		adds	r1, r1, #8
 820 053c A022     		movs	r2, #160
 821 053e D202     		lsls	r2, r2, #11
 822 0540 2000     		movs	r0, r4
 823 0542 FFF7FEFF 		bl	lv_obj_add_style
 824              	.LVL111:
 357:..\..\..\arduinoLCD\test\Pain Drain\libraries\lvgl\src\extra\themes\mono/lv_theme_mono.c ****         lv_obj_add_style(obj, &styles->card, LV_PART_TICKS);
 825              		.loc 1 357 0
 826 0546 2968     		ldr	r1, [r5]
 827 0548 0831     		adds	r1, r1, #8
 828 054a C022     		movs	r2, #192
 829 054c D202     		lsls	r2, r2, #11
 830 054e 2000     		movs	r0, r4
 831 0550 FFF7FEFF 		bl	lv_obj_add_style
 832              	.LVL112:
 358:..\..\..\arduinoLCD\test\Pain Drain\libraries\lvgl\src\extra\themes\mono/lv_theme_mono.c ****         lv_obj_add_style(obj, &styles->card, LV_PART_CURSOR);
 833              		.loc 1 358 0
 834 0554 2968     		ldr	r1, [r5]
 835 0556 0831     		adds	r1, r1, #8
 836 0558 E022     		movs	r2, #224
 837 055a D202     		lsls	r2, r2, #11
 838 055c 2000     		movs	r0, r4
 839 055e FFF7FEFF 		bl	lv_obj_add_style
ARM GAS  C:\Users\haske\AppData\Local\Temp\ccSAQWsX.s 			page 22


 840              	.LVL113:
 359:..\..\..\arduinoLCD\test\Pain Drain\libraries\lvgl\src\extra\themes\mono/lv_theme_mono.c ****         lv_obj_add_style(obj, &styles->focus, LV_STATE_FOCUS_KEY);
 841              		.loc 1 359 0
 842 0562 2968     		ldr	r1, [r5]
 843 0564 3831     		adds	r1, r1, #56
 844 0566 0422     		movs	r2, #4
 845 0568 2000     		movs	r0, r4
 846 056a FFF7FEFF 		bl	lv_obj_add_style
 847              	.LVL114:
 848 056e 0AE2     		b	.L1
 849              	.L17:
 360:..\..\..\arduinoLCD\test\Pain Drain\libraries\lvgl\src\extra\themes\mono/lv_theme_mono.c ****     }
 361:..\..\..\arduinoLCD\test\Pain Drain\libraries\lvgl\src\extra\themes\mono/lv_theme_mono.c **** #endif
 362:..\..\..\arduinoLCD\test\Pain Drain\libraries\lvgl\src\extra\themes\mono/lv_theme_mono.c **** 
 363:..\..\..\arduinoLCD\test\Pain Drain\libraries\lvgl\src\extra\themes\mono/lv_theme_mono.c **** #if LV_USE_ROLLER
 364:..\..\..\arduinoLCD\test\Pain Drain\libraries\lvgl\src\extra\themes\mono/lv_theme_mono.c ****     else if(lv_obj_check_type(obj, &lv_roller_class)) {
 850              		.loc 1 364 0
 851 0570 7C49     		ldr	r1, .L34+40
 852 0572 2000     		movs	r0, r4
 853 0574 FFF7FEFF 		bl	lv_obj_check_type
 854              	.LVL115:
 855 0578 0028     		cmp	r0, #0
 856 057a 20D0     		beq	.L18
 365:..\..\..\arduinoLCD\test\Pain Drain\libraries\lvgl\src\extra\themes\mono/lv_theme_mono.c ****         lv_obj_add_style(obj, &styles->card, 0);
 857              		.loc 1 365 0
 858 057c 704D     		ldr	r5, .L34+4
 859 057e 2968     		ldr	r1, [r5]
 860 0580 0831     		adds	r1, r1, #8
 861 0582 0022     		movs	r2, #0
 862 0584 2000     		movs	r0, r4
 863 0586 FFF7FEFF 		bl	lv_obj_add_style
 864              	.LVL116:
 366:..\..\..\arduinoLCD\test\Pain Drain\libraries\lvgl\src\extra\themes\mono/lv_theme_mono.c ****         lv_obj_add_style(obj, &styles->large_line_space, 0);
 865              		.loc 1 366 0
 866 058a 2968     		ldr	r1, [r5]
 867 058c 7031     		adds	r1, r1, #112
 868 058e 0022     		movs	r2, #0
 869 0590 2000     		movs	r0, r4
 870 0592 FFF7FEFF 		bl	lv_obj_add_style
 871              	.LVL117:
 367:..\..\..\arduinoLCD\test\Pain Drain\libraries\lvgl\src\extra\themes\mono/lv_theme_mono.c ****         lv_obj_add_style(obj, &styles->inv, LV_PART_SELECTED);
 872              		.loc 1 367 0
 873 0596 2968     		ldr	r1, [r5]
 874 0598 2831     		adds	r1, r1, #40
 875 059a 8022     		movs	r2, #128
 876 059c D202     		lsls	r2, r2, #11
 877 059e 2000     		movs	r0, r4
 878 05a0 FFF7FEFF 		bl	lv_obj_add_style
 879              	.LVL118:
 368:..\..\..\arduinoLCD\test\Pain Drain\libraries\lvgl\src\extra\themes\mono/lv_theme_mono.c ****         lv_obj_add_style(obj, &styles->focus, LV_STATE_FOCUS_KEY);
 880              		.loc 1 368 0
 881 05a4 2968     		ldr	r1, [r5]
 882 05a6 3831     		adds	r1, r1, #56
 883 05a8 0422     		movs	r2, #4
 884 05aa 2000     		movs	r0, r4
 885 05ac FFF7FEFF 		bl	lv_obj_add_style
 886              	.LVL119:
ARM GAS  C:\Users\haske\AppData\Local\Temp\ccSAQWsX.s 			page 23


 369:..\..\..\arduinoLCD\test\Pain Drain\libraries\lvgl\src\extra\themes\mono/lv_theme_mono.c ****         lv_obj_add_style(obj, &styles->edit, LV_STATE_EDITED);
 887              		.loc 1 369 0
 888 05b0 2968     		ldr	r1, [r5]
 889 05b2 4031     		adds	r1, r1, #64
 890 05b4 0822     		movs	r2, #8
 891 05b6 2000     		movs	r0, r4
 892 05b8 FFF7FEFF 		bl	lv_obj_add_style
 893              	.LVL120:
 894 05bc E3E1     		b	.L1
 895              	.L18:
 370:..\..\..\arduinoLCD\test\Pain Drain\libraries\lvgl\src\extra\themes\mono/lv_theme_mono.c ****     }
 371:..\..\..\arduinoLCD\test\Pain Drain\libraries\lvgl\src\extra\themes\mono/lv_theme_mono.c **** #endif
 372:..\..\..\arduinoLCD\test\Pain Drain\libraries\lvgl\src\extra\themes\mono/lv_theme_mono.c **** 
 373:..\..\..\arduinoLCD\test\Pain Drain\libraries\lvgl\src\extra\themes\mono/lv_theme_mono.c **** #if LV_USE_DROPDOWN
 374:..\..\..\arduinoLCD\test\Pain Drain\libraries\lvgl\src\extra\themes\mono/lv_theme_mono.c ****     else if(lv_obj_check_type(obj, &lv_dropdown_class)) {
 896              		.loc 1 374 0
 897 05be 6A49     		ldr	r1, .L34+44
 898 05c0 2000     		movs	r0, r4
 899 05c2 FFF7FEFF 		bl	lv_obj_check_type
 900              	.LVL121:
 901 05c6 0028     		cmp	r0, #0
 902 05c8 19D0     		beq	.L19
 375:..\..\..\arduinoLCD\test\Pain Drain\libraries\lvgl\src\extra\themes\mono/lv_theme_mono.c ****         lv_obj_add_style(obj, &styles->card, 0);
 903              		.loc 1 375 0
 904 05ca 5D4D     		ldr	r5, .L34+4
 905 05cc 2968     		ldr	r1, [r5]
 906 05ce 0831     		adds	r1, r1, #8
 907 05d0 0022     		movs	r2, #0
 908 05d2 2000     		movs	r0, r4
 909 05d4 FFF7FEFF 		bl	lv_obj_add_style
 910              	.LVL122:
 376:..\..\..\arduinoLCD\test\Pain Drain\libraries\lvgl\src\extra\themes\mono/lv_theme_mono.c ****         lv_obj_add_style(obj, &styles->pr, LV_STATE_PRESSED);
 911              		.loc 1 376 0
 912 05d8 2968     		ldr	r1, [r5]
 913 05da 2031     		adds	r1, r1, #32
 914 05dc 2022     		movs	r2, #32
 915 05de 2000     		movs	r0, r4
 916 05e0 FFF7FEFF 		bl	lv_obj_add_style
 917              	.LVL123:
 377:..\..\..\arduinoLCD\test\Pain Drain\libraries\lvgl\src\extra\themes\mono/lv_theme_mono.c ****         lv_obj_add_style(obj, &styles->focus, LV_STATE_FOCUS_KEY);
 918              		.loc 1 377 0
 919 05e4 2968     		ldr	r1, [r5]
 920 05e6 3831     		adds	r1, r1, #56
 921 05e8 0422     		movs	r2, #4
 922 05ea 2000     		movs	r0, r4
 923 05ec FFF7FEFF 		bl	lv_obj_add_style
 924              	.LVL124:
 378:..\..\..\arduinoLCD\test\Pain Drain\libraries\lvgl\src\extra\themes\mono/lv_theme_mono.c ****         lv_obj_add_style(obj, &styles->edit, LV_STATE_EDITED);
 925              		.loc 1 378 0
 926 05f0 2968     		ldr	r1, [r5]
 927 05f2 4031     		adds	r1, r1, #64
 928 05f4 0822     		movs	r2, #8
 929 05f6 2000     		movs	r0, r4
 930 05f8 FFF7FEFF 		bl	lv_obj_add_style
 931              	.LVL125:
 932 05fc C3E1     		b	.L1
 933              	.L19:
ARM GAS  C:\Users\haske\AppData\Local\Temp\ccSAQWsX.s 			page 24


 379:..\..\..\arduinoLCD\test\Pain Drain\libraries\lvgl\src\extra\themes\mono/lv_theme_mono.c ****     }
 380:..\..\..\arduinoLCD\test\Pain Drain\libraries\lvgl\src\extra\themes\mono/lv_theme_mono.c ****     else if(lv_obj_check_type(obj, &lv_dropdownlist_class)) {
 934              		.loc 1 380 0
 935 05fe 5B49     		ldr	r1, .L34+48
 936 0600 2000     		movs	r0, r4
 937 0602 FFF7FEFF 		bl	lv_obj_check_type
 938              	.LVL126:
 939 0606 0028     		cmp	r0, #0
 940 0608 2CD0     		beq	.L20
 381:..\..\..\arduinoLCD\test\Pain Drain\libraries\lvgl\src\extra\themes\mono/lv_theme_mono.c ****         lv_obj_add_style(obj, &styles->card, 0);
 941              		.loc 1 381 0
 942 060a 4D4D     		ldr	r5, .L34+4
 943 060c 2968     		ldr	r1, [r5]
 944 060e 0831     		adds	r1, r1, #8
 945 0610 0022     		movs	r2, #0
 946 0612 2000     		movs	r0, r4
 947 0614 FFF7FEFF 		bl	lv_obj_add_style
 948              	.LVL127:
 382:..\..\..\arduinoLCD\test\Pain Drain\libraries\lvgl\src\extra\themes\mono/lv_theme_mono.c ****         lv_obj_add_style(obj, &styles->large_line_space, 0);
 949              		.loc 1 382 0
 950 0618 2968     		ldr	r1, [r5]
 951 061a 7031     		adds	r1, r1, #112
 952 061c 0022     		movs	r2, #0
 953 061e 2000     		movs	r0, r4
 954 0620 FFF7FEFF 		bl	lv_obj_add_style
 955              	.LVL128:
 383:..\..\..\arduinoLCD\test\Pain Drain\libraries\lvgl\src\extra\themes\mono/lv_theme_mono.c ****         lv_obj_add_style(obj, &styles->scrollbar, LV_PART_SCROLLBAR);
 956              		.loc 1 383 0
 957 0624 2968     		ldr	r1, [r5]
 958 0626 1031     		adds	r1, r1, #16
 959 0628 8022     		movs	r2, #128
 960 062a 5202     		lsls	r2, r2, #9
 961 062c 2000     		movs	r0, r4
 962 062e FFF7FEFF 		bl	lv_obj_add_style
 963              	.LVL129:
 384:..\..\..\arduinoLCD\test\Pain Drain\libraries\lvgl\src\extra\themes\mono/lv_theme_mono.c ****         lv_obj_add_style(obj, &styles->inv, LV_PART_SELECTED | LV_STATE_CHECKED);
 964              		.loc 1 384 0
 965 0632 2968     		ldr	r1, [r5]
 966 0634 2831     		adds	r1, r1, #40
 967 0636 4E4A     		ldr	r2, .L34+52
 968 0638 2000     		movs	r0, r4
 969 063a FFF7FEFF 		bl	lv_obj_add_style
 970              	.LVL130:
 385:..\..\..\arduinoLCD\test\Pain Drain\libraries\lvgl\src\extra\themes\mono/lv_theme_mono.c ****         lv_obj_add_style(obj, &styles->pr, LV_PART_SELECTED | LV_STATE_PRESSED);
 971              		.loc 1 385 0
 972 063e 2968     		ldr	r1, [r5]
 973 0640 2031     		adds	r1, r1, #32
 974 0642 4C4A     		ldr	r2, .L34+56
 975 0644 2000     		movs	r0, r4
 976 0646 FFF7FEFF 		bl	lv_obj_add_style
 977              	.LVL131:
 386:..\..\..\arduinoLCD\test\Pain Drain\libraries\lvgl\src\extra\themes\mono/lv_theme_mono.c ****         lv_obj_add_style(obj, &styles->focus, LV_STATE_FOCUS_KEY);
 978              		.loc 1 386 0
 979 064a 2968     		ldr	r1, [r5]
 980 064c 3831     		adds	r1, r1, #56
 981 064e 0422     		movs	r2, #4
 982 0650 2000     		movs	r0, r4
ARM GAS  C:\Users\haske\AppData\Local\Temp\ccSAQWsX.s 			page 25


 983 0652 FFF7FEFF 		bl	lv_obj_add_style
 984              	.LVL132:
 387:..\..\..\arduinoLCD\test\Pain Drain\libraries\lvgl\src\extra\themes\mono/lv_theme_mono.c ****         lv_obj_add_style(obj, &styles->edit, LV_STATE_EDITED);
 985              		.loc 1 387 0
 986 0656 2968     		ldr	r1, [r5]
 987 0658 4031     		adds	r1, r1, #64
 988 065a 0822     		movs	r2, #8
 989 065c 2000     		movs	r0, r4
 990 065e FFF7FEFF 		bl	lv_obj_add_style
 991              	.LVL133:
 992 0662 90E1     		b	.L1
 993              	.L20:
 388:..\..\..\arduinoLCD\test\Pain Drain\libraries\lvgl\src\extra\themes\mono/lv_theme_mono.c ****     }
 389:..\..\..\arduinoLCD\test\Pain Drain\libraries\lvgl\src\extra\themes\mono/lv_theme_mono.c **** #endif
 390:..\..\..\arduinoLCD\test\Pain Drain\libraries\lvgl\src\extra\themes\mono/lv_theme_mono.c **** 
 391:..\..\..\arduinoLCD\test\Pain Drain\libraries\lvgl\src\extra\themes\mono/lv_theme_mono.c **** #if LV_USE_ARC
 392:..\..\..\arduinoLCD\test\Pain Drain\libraries\lvgl\src\extra\themes\mono/lv_theme_mono.c ****     else if(lv_obj_check_type(obj, &lv_arc_class)) {
 994              		.loc 1 392 0
 995 0664 4449     		ldr	r1, .L34+60
 996 0666 2000     		movs	r0, r4
 997 0668 FFF7FEFF 		bl	lv_obj_check_type
 998              	.LVL134:
 999 066c 0028     		cmp	r0, #0
 1000 066e 2FD0     		beq	.L21
 393:..\..\..\arduinoLCD\test\Pain Drain\libraries\lvgl\src\extra\themes\mono/lv_theme_mono.c ****         lv_obj_add_style(obj, &styles->card, 0);
 1001              		.loc 1 393 0
 1002 0670 334D     		ldr	r5, .L34+4
 1003 0672 2968     		ldr	r1, [r5]
 1004 0674 0831     		adds	r1, r1, #8
 1005 0676 0022     		movs	r2, #0
 1006 0678 2000     		movs	r0, r4
 1007 067a FFF7FEFF 		bl	lv_obj_add_style
 1008              	.LVL135:
 394:..\..\..\arduinoLCD\test\Pain Drain\libraries\lvgl\src\extra\themes\mono/lv_theme_mono.c ****         lv_obj_add_style(obj, &styles->inv, LV_PART_INDICATOR);
 1009              		.loc 1 394 0
 1010 067e 8026     		movs	r6, #128
 1011 0680 B602     		lsls	r6, r6, #10
 1012 0682 2968     		ldr	r1, [r5]
 1013 0684 2831     		adds	r1, r1, #40
 1014 0686 3200     		movs	r2, r6
 1015 0688 2000     		movs	r0, r4
 1016 068a FFF7FEFF 		bl	lv_obj_add_style
 1017              	.LVL136:
 395:..\..\..\arduinoLCD\test\Pain Drain\libraries\lvgl\src\extra\themes\mono/lv_theme_mono.c ****         lv_obj_add_style(obj, &styles->pad_zero, LV_PART_INDICATOR);
 1018              		.loc 1 395 0
 1019 068e 2968     		ldr	r1, [r5]
 1020 0690 5031     		adds	r1, r1, #80
 1021 0692 3200     		movs	r2, r6
 1022 0694 2000     		movs	r0, r4
 1023 0696 FFF7FEFF 		bl	lv_obj_add_style
 1024              	.LVL137:
 396:..\..\..\arduinoLCD\test\Pain Drain\libraries\lvgl\src\extra\themes\mono/lv_theme_mono.c ****         lv_obj_add_style(obj, &styles->card, LV_PART_KNOB);
 1025              		.loc 1 396 0
 1026 069a C026     		movs	r6, #192
 1027 069c B602     		lsls	r6, r6, #10
 1028 069e 2968     		ldr	r1, [r5]
 1029 06a0 0831     		adds	r1, r1, #8
ARM GAS  C:\Users\haske\AppData\Local\Temp\ccSAQWsX.s 			page 26


 1030 06a2 3200     		movs	r2, r6
 1031 06a4 2000     		movs	r0, r4
 1032 06a6 FFF7FEFF 		bl	lv_obj_add_style
 1033              	.LVL138:
 397:..\..\..\arduinoLCD\test\Pain Drain\libraries\lvgl\src\extra\themes\mono/lv_theme_mono.c ****         lv_obj_add_style(obj, &styles->radius_circle, LV_PART_KNOB);
 1034              		.loc 1 397 0
 1035 06aa 2968     		ldr	r1, [r5]
 1036 06ac 6031     		adds	r1, r1, #96
 1037 06ae 3200     		movs	r2, r6
 1038 06b0 2000     		movs	r0, r4
 1039 06b2 FFF7FEFF 		bl	lv_obj_add_style
 1040              	.LVL139:
 398:..\..\..\arduinoLCD\test\Pain Drain\libraries\lvgl\src\extra\themes\mono/lv_theme_mono.c ****         lv_obj_add_style(obj, &styles->focus, LV_STATE_FOCUS_KEY);
 1041              		.loc 1 398 0
 1042 06b6 2968     		ldr	r1, [r5]
 1043 06b8 3831     		adds	r1, r1, #56
 1044 06ba 0422     		movs	r2, #4
 1045 06bc 2000     		movs	r0, r4
 1046 06be FFF7FEFF 		bl	lv_obj_add_style
 1047              	.LVL140:
 399:..\..\..\arduinoLCD\test\Pain Drain\libraries\lvgl\src\extra\themes\mono/lv_theme_mono.c ****         lv_obj_add_style(obj, &styles->edit, LV_STATE_EDITED);
 1048              		.loc 1 399 0
 1049 06c2 2968     		ldr	r1, [r5]
 1050 06c4 4031     		adds	r1, r1, #64
 1051 06c6 0822     		movs	r2, #8
 1052 06c8 2000     		movs	r0, r4
 1053 06ca FFF7FEFF 		bl	lv_obj_add_style
 1054              	.LVL141:
 1055 06ce 5AE1     		b	.L1
 1056              	.L21:
 400:..\..\..\arduinoLCD\test\Pain Drain\libraries\lvgl\src\extra\themes\mono/lv_theme_mono.c ****     }
 401:..\..\..\arduinoLCD\test\Pain Drain\libraries\lvgl\src\extra\themes\mono/lv_theme_mono.c **** #endif
 402:..\..\..\arduinoLCD\test\Pain Drain\libraries\lvgl\src\extra\themes\mono/lv_theme_mono.c **** 
 403:..\..\..\arduinoLCD\test\Pain Drain\libraries\lvgl\src\extra\themes\mono/lv_theme_mono.c **** #if LV_USE_METER
 404:..\..\..\arduinoLCD\test\Pain Drain\libraries\lvgl\src\extra\themes\mono/lv_theme_mono.c ****     else if(lv_obj_check_type(obj, &lv_meter_class)) {
 1057              		.loc 1 404 0
 1058 06d0 2A49     		ldr	r1, .L34+64
 1059 06d2 2000     		movs	r0, r4
 1060 06d4 FFF7FEFF 		bl	lv_obj_check_type
 1061              	.LVL142:
 1062 06d8 0028     		cmp	r0, #0
 1063 06da 07D0     		beq	.L22
 405:..\..\..\arduinoLCD\test\Pain Drain\libraries\lvgl\src\extra\themes\mono/lv_theme_mono.c ****         lv_obj_add_style(obj, &styles->card, 0);
 1064              		.loc 1 405 0
 1065 06dc 184B     		ldr	r3, .L34+4
 1066 06de 1968     		ldr	r1, [r3]
 1067 06e0 0831     		adds	r1, r1, #8
 1068 06e2 0022     		movs	r2, #0
 1069 06e4 2000     		movs	r0, r4
 1070 06e6 FFF7FEFF 		bl	lv_obj_add_style
 1071              	.LVL143:
 1072 06ea 4CE1     		b	.L1
 1073              	.L22:
 406:..\..\..\arduinoLCD\test\Pain Drain\libraries\lvgl\src\extra\themes\mono/lv_theme_mono.c ****     }
 407:..\..\..\arduinoLCD\test\Pain Drain\libraries\lvgl\src\extra\themes\mono/lv_theme_mono.c **** #endif
 408:..\..\..\arduinoLCD\test\Pain Drain\libraries\lvgl\src\extra\themes\mono/lv_theme_mono.c **** 
 409:..\..\..\arduinoLCD\test\Pain Drain\libraries\lvgl\src\extra\themes\mono/lv_theme_mono.c **** #if LV_USE_TEXTAREA
ARM GAS  C:\Users\haske\AppData\Local\Temp\ccSAQWsX.s 			page 27


 410:..\..\..\arduinoLCD\test\Pain Drain\libraries\lvgl\src\extra\themes\mono/lv_theme_mono.c ****     else if(lv_obj_check_type(obj, &lv_textarea_class)) {
 1074              		.loc 1 410 0
 1075 06ec 2449     		ldr	r1, .L34+68
 1076 06ee 2000     		movs	r0, r4
 1077 06f0 FFF7FEFF 		bl	lv_obj_check_type
 1078              	.LVL144:
 1079 06f4 0028     		cmp	r0, #0
 1080 06f6 47D0     		beq	.L23
 411:..\..\..\arduinoLCD\test\Pain Drain\libraries\lvgl\src\extra\themes\mono/lv_theme_mono.c ****         lv_obj_add_style(obj, &styles->card, 0);
 1081              		.loc 1 411 0
 1082 06f8 114D     		ldr	r5, .L34+4
 1083 06fa 2968     		ldr	r1, [r5]
 1084 06fc 0831     		adds	r1, r1, #8
 1085 06fe 0022     		movs	r2, #0
 1086 0700 2000     		movs	r0, r4
 1087 0702 FFF7FEFF 		bl	lv_obj_add_style
 1088              	.LVL145:
 412:..\..\..\arduinoLCD\test\Pain Drain\libraries\lvgl\src\extra\themes\mono/lv_theme_mono.c ****         lv_obj_add_style(obj, &styles->scrollbar, LV_PART_SCROLLBAR);
 1089              		.loc 1 412 0
 1090 0706 2968     		ldr	r1, [r5]
 1091 0708 1031     		adds	r1, r1, #16
 1092 070a 8022     		movs	r2, #128
 1093 070c 5202     		lsls	r2, r2, #9
 1094 070e 2000     		movs	r0, r4
 1095 0710 FFF7FEFF 		bl	lv_obj_add_style
 1096              	.LVL146:
 413:..\..\..\arduinoLCD\test\Pain Drain\libraries\lvgl\src\extra\themes\mono/lv_theme_mono.c ****         lv_obj_add_style(obj, &styles->ta_cursor, LV_PART_CURSOR | LV_STATE_FOCUSED);
 1097              		.loc 1 413 0
 1098 0714 2968     		ldr	r1, [r5]
 1099 0716 8031     		adds	r1, r1, #128
 1100 0718 1A4A     		ldr	r2, .L34+72
 1101 071a 2000     		movs	r0, r4
 1102 071c FFF7FEFF 		bl	lv_obj_add_style
 1103              	.LVL147:
 414:..\..\..\arduinoLCD\test\Pain Drain\libraries\lvgl\src\extra\themes\mono/lv_theme_mono.c ****         lv_obj_add_style(obj, &styles->focus, LV_STATE_FOCUSED);
 1104              		.loc 1 414 0
 1105 0720 2968     		ldr	r1, [r5]
 1106 0722 3831     		adds	r1, r1, #56
 1107 0724 0222     		movs	r2, #2
 1108 0726 2000     		movs	r0, r4
 1109 0728 FFF7FEFF 		bl	lv_obj_add_style
 1110              	.LVL148:
 415:..\..\..\arduinoLCD\test\Pain Drain\libraries\lvgl\src\extra\themes\mono/lv_theme_mono.c ****         lv_obj_add_style(obj, &styles->edit, LV_STATE_EDITED);
 1111              		.loc 1 415 0
 1112 072c 2968     		ldr	r1, [r5]
 1113 072e 4031     		adds	r1, r1, #64
 1114 0730 0822     		movs	r2, #8
 1115 0732 2000     		movs	r0, r4
 1116 0734 FFF7FEFF 		bl	lv_obj_add_style
 1117              	.LVL149:
 1118 0738 25E1     		b	.L1
 1119              	.L35:
 1120 073a C046     		.align	2
 1121              	.L34:
 1122 073c 00000000 		.word	lv_table_class
 1123 0740 00000000 		.word	.LANCHOR0
 1124 0744 20000500 		.word	327712
ARM GAS  C:\Users\haske\AppData\Local\Temp\ccSAQWsX.s 			page 28


 1125 0748 04000500 		.word	327684
 1126 074c 00000000 		.word	lv_checkbox_class
 1127 0750 80000200 		.word	131200
 1128 0754 01000200 		.word	131073
 1129 0758 20000200 		.word	131104
 1130 075c 00000000 		.word	lv_switch_class
 1131 0760 00000000 		.word	lv_chart_class
 1132 0764 00000000 		.word	lv_roller_class
 1133 0768 00000000 		.word	lv_dropdown_class
 1134 076c 00000000 		.word	lv_dropdownlist_class
 1135 0770 01000400 		.word	262145
 1136 0774 20000400 		.word	262176
 1137 0778 00000000 		.word	lv_arc_class
 1138 077c 00000000 		.word	lv_meter_class
 1139 0780 00000000 		.word	lv_textarea_class
 1140 0784 02000700 		.word	458754
 1141              	.L23:
 416:..\..\..\arduinoLCD\test\Pain Drain\libraries\lvgl\src\extra\themes\mono/lv_theme_mono.c ****     }
 417:..\..\..\arduinoLCD\test\Pain Drain\libraries\lvgl\src\extra\themes\mono/lv_theme_mono.c **** #endif
 418:..\..\..\arduinoLCD\test\Pain Drain\libraries\lvgl\src\extra\themes\mono/lv_theme_mono.c **** 
 419:..\..\..\arduinoLCD\test\Pain Drain\libraries\lvgl\src\extra\themes\mono/lv_theme_mono.c **** #if LV_USE_CALENDAR
 420:..\..\..\arduinoLCD\test\Pain Drain\libraries\lvgl\src\extra\themes\mono/lv_theme_mono.c ****     else if(lv_obj_check_type(obj, &lv_calendar_class)) {
 1142              		.loc 1 420 0
 1143 0788 7F49     		ldr	r1, .L36
 1144 078a 2000     		movs	r0, r4
 1145 078c FFF7FEFF 		bl	lv_obj_check_type
 1146              	.LVL150:
 1147 0790 0028     		cmp	r0, #0
 1148 0792 2BD0     		beq	.L24
 421:..\..\..\arduinoLCD\test\Pain Drain\libraries\lvgl\src\extra\themes\mono/lv_theme_mono.c ****         lv_obj_add_style(obj, &styles->card, 0);
 1149              		.loc 1 421 0
 1150 0794 7D4D     		ldr	r5, .L36+4
 1151 0796 2968     		ldr	r1, [r5]
 1152 0798 0831     		adds	r1, r1, #8
 1153 079a 0022     		movs	r2, #0
 1154 079c 2000     		movs	r0, r4
 1155 079e FFF7FEFF 		bl	lv_obj_add_style
 1156              	.LVL151:
 422:..\..\..\arduinoLCD\test\Pain Drain\libraries\lvgl\src\extra\themes\mono/lv_theme_mono.c ****         lv_obj_add_style(obj, &styles->no_radius, 0);
 1157              		.loc 1 422 0
 1158 07a2 2968     		ldr	r1, [r5]
 1159 07a4 5831     		adds	r1, r1, #88
 1160 07a6 0022     		movs	r2, #0
 1161 07a8 2000     		movs	r0, r4
 1162 07aa FFF7FEFF 		bl	lv_obj_add_style
 1163              	.LVL152:
 423:..\..\..\arduinoLCD\test\Pain Drain\libraries\lvgl\src\extra\themes\mono/lv_theme_mono.c ****         lv_obj_add_style(obj, &styles->pr, LV_PART_ITEMS | LV_STATE_PRESSED);
 1164              		.loc 1 423 0
 1165 07ae 2968     		ldr	r1, [r5]
 1166 07b0 2031     		adds	r1, r1, #32
 1167 07b2 774A     		ldr	r2, .L36+8
 1168 07b4 2000     		movs	r0, r4
 1169 07b6 FFF7FEFF 		bl	lv_obj_add_style
 1170              	.LVL153:
 424:..\..\..\arduinoLCD\test\Pain Drain\libraries\lvgl\src\extra\themes\mono/lv_theme_mono.c ****         lv_obj_add_style(obj, &styles->disabled, LV_PART_ITEMS | LV_STATE_DISABLED);
 1171              		.loc 1 424 0
 1172 07ba 2968     		ldr	r1, [r5]
ARM GAS  C:\Users\haske\AppData\Local\Temp\ccSAQWsX.s 			page 29


 1173 07bc 3031     		adds	r1, r1, #48
 1174 07be 754A     		ldr	r2, .L36+12
 1175 07c0 2000     		movs	r0, r4
 1176 07c2 FFF7FEFF 		bl	lv_obj_add_style
 1177              	.LVL154:
 425:..\..\..\arduinoLCD\test\Pain Drain\libraries\lvgl\src\extra\themes\mono/lv_theme_mono.c ****         lv_obj_add_style(obj, &styles->focus, LV_STATE_FOCUS_KEY);
 1178              		.loc 1 425 0
 1179 07c6 2968     		ldr	r1, [r5]
 1180 07c8 3831     		adds	r1, r1, #56
 1181 07ca 0422     		movs	r2, #4
 1182 07cc 2000     		movs	r0, r4
 1183 07ce FFF7FEFF 		bl	lv_obj_add_style
 1184              	.LVL155:
 426:..\..\..\arduinoLCD\test\Pain Drain\libraries\lvgl\src\extra\themes\mono/lv_theme_mono.c ****         lv_obj_add_style(obj, &styles->edit, LV_STATE_EDITED);
 1185              		.loc 1 426 0
 1186 07d2 2968     		ldr	r1, [r5]
 1187 07d4 4031     		adds	r1, r1, #64
 1188 07d6 0822     		movs	r2, #8
 1189 07d8 2000     		movs	r0, r4
 1190 07da FFF7FEFF 		bl	lv_obj_add_style
 1191              	.LVL156:
 427:..\..\..\arduinoLCD\test\Pain Drain\libraries\lvgl\src\extra\themes\mono/lv_theme_mono.c ****         lv_obj_add_style(obj, &styles->large_border, LV_PART_ITEMS | LV_STATE_FOCUS_KEY);
 1192              		.loc 1 427 0
 1193 07de 2968     		ldr	r1, [r5]
 1194 07e0 6831     		adds	r1, r1, #104
 1195 07e2 6D4A     		ldr	r2, .L36+16
 1196 07e4 2000     		movs	r0, r4
 1197 07e6 FFF7FEFF 		bl	lv_obj_add_style
 1198              	.LVL157:
 1199 07ea CCE0     		b	.L1
 1200              	.L24:
 428:..\..\..\arduinoLCD\test\Pain Drain\libraries\lvgl\src\extra\themes\mono/lv_theme_mono.c ****     }
 429:..\..\..\arduinoLCD\test\Pain Drain\libraries\lvgl\src\extra\themes\mono/lv_theme_mono.c **** #endif
 430:..\..\..\arduinoLCD\test\Pain Drain\libraries\lvgl\src\extra\themes\mono/lv_theme_mono.c **** 
 431:..\..\..\arduinoLCD\test\Pain Drain\libraries\lvgl\src\extra\themes\mono/lv_theme_mono.c **** #if LV_USE_KEYBOARD
 432:..\..\..\arduinoLCD\test\Pain Drain\libraries\lvgl\src\extra\themes\mono/lv_theme_mono.c ****     else if(lv_obj_check_type(obj, &lv_keyboard_class)) {
 1201              		.loc 1 432 0
 1202 07ec 6B49     		ldr	r1, .L36+20
 1203 07ee 2000     		movs	r0, r4
 1204 07f0 FFF7FEFF 		bl	lv_obj_check_type
 1205              	.LVL158:
 1206 07f4 0028     		cmp	r0, #0
 1207 07f6 2CD0     		beq	.L25
 433:..\..\..\arduinoLCD\test\Pain Drain\libraries\lvgl\src\extra\themes\mono/lv_theme_mono.c ****         lv_obj_add_style(obj, &styles->card, 0);
 1208              		.loc 1 433 0
 1209 07f8 644D     		ldr	r5, .L36+4
 1210 07fa 2968     		ldr	r1, [r5]
 1211 07fc 0831     		adds	r1, r1, #8
 1212 07fe 0022     		movs	r2, #0
 1213 0800 2000     		movs	r0, r4
 1214 0802 FFF7FEFF 		bl	lv_obj_add_style
 1215              	.LVL159:
 434:..\..\..\arduinoLCD\test\Pain Drain\libraries\lvgl\src\extra\themes\mono/lv_theme_mono.c ****         lv_obj_add_style(obj, &styles->card, LV_PART_ITEMS);
 1216              		.loc 1 434 0
 1217 0806 2968     		ldr	r1, [r5]
 1218 0808 0831     		adds	r1, r1, #8
 1219 080a A022     		movs	r2, #160
ARM GAS  C:\Users\haske\AppData\Local\Temp\ccSAQWsX.s 			page 30


 1220 080c D202     		lsls	r2, r2, #11
 1221 080e 2000     		movs	r0, r4
 1222 0810 FFF7FEFF 		bl	lv_obj_add_style
 1223              	.LVL160:
 435:..\..\..\arduinoLCD\test\Pain Drain\libraries\lvgl\src\extra\themes\mono/lv_theme_mono.c ****         lv_obj_add_style(obj, &styles->pr, LV_PART_ITEMS | LV_STATE_PRESSED);
 1224              		.loc 1 435 0
 1225 0814 2968     		ldr	r1, [r5]
 1226 0816 2031     		adds	r1, r1, #32
 1227 0818 5D4A     		ldr	r2, .L36+8
 1228 081a 2000     		movs	r0, r4
 1229 081c FFF7FEFF 		bl	lv_obj_add_style
 1230              	.LVL161:
 436:..\..\..\arduinoLCD\test\Pain Drain\libraries\lvgl\src\extra\themes\mono/lv_theme_mono.c ****         lv_obj_add_style(obj, &styles->inv, LV_PART_ITEMS | LV_STATE_CHECKED);
 1231              		.loc 1 436 0
 1232 0820 2968     		ldr	r1, [r5]
 1233 0822 2831     		adds	r1, r1, #40
 1234 0824 5E4A     		ldr	r2, .L36+24
 1235 0826 2000     		movs	r0, r4
 1236 0828 FFF7FEFF 		bl	lv_obj_add_style
 1237              	.LVL162:
 437:..\..\..\arduinoLCD\test\Pain Drain\libraries\lvgl\src\extra\themes\mono/lv_theme_mono.c ****         lv_obj_add_style(obj, &styles->focus, LV_STATE_FOCUS_KEY);
 1238              		.loc 1 437 0
 1239 082c 2968     		ldr	r1, [r5]
 1240 082e 3831     		adds	r1, r1, #56
 1241 0830 0422     		movs	r2, #4
 1242 0832 2000     		movs	r0, r4
 1243 0834 FFF7FEFF 		bl	lv_obj_add_style
 1244              	.LVL163:
 438:..\..\..\arduinoLCD\test\Pain Drain\libraries\lvgl\src\extra\themes\mono/lv_theme_mono.c ****         lv_obj_add_style(obj, &styles->edit, LV_STATE_EDITED);
 1245              		.loc 1 438 0
 1246 0838 2968     		ldr	r1, [r5]
 1247 083a 4031     		adds	r1, r1, #64
 1248 083c 0822     		movs	r2, #8
 1249 083e 2000     		movs	r0, r4
 1250 0840 FFF7FEFF 		bl	lv_obj_add_style
 1251              	.LVL164:
 439:..\..\..\arduinoLCD\test\Pain Drain\libraries\lvgl\src\extra\themes\mono/lv_theme_mono.c ****         lv_obj_add_style(obj, &styles->large_border, LV_PART_ITEMS | LV_STATE_EDITED);
 1252              		.loc 1 439 0
 1253 0844 2968     		ldr	r1, [r5]
 1254 0846 6831     		adds	r1, r1, #104
 1255 0848 564A     		ldr	r2, .L36+28
 1256 084a 2000     		movs	r0, r4
 1257 084c FFF7FEFF 		bl	lv_obj_add_style
 1258              	.LVL165:
 1259 0850 99E0     		b	.L1
 1260              	.L25:
 440:..\..\..\arduinoLCD\test\Pain Drain\libraries\lvgl\src\extra\themes\mono/lv_theme_mono.c ****     }
 441:..\..\..\arduinoLCD\test\Pain Drain\libraries\lvgl\src\extra\themes\mono/lv_theme_mono.c **** #endif
 442:..\..\..\arduinoLCD\test\Pain Drain\libraries\lvgl\src\extra\themes\mono/lv_theme_mono.c **** #if LV_USE_LIST
 443:..\..\..\arduinoLCD\test\Pain Drain\libraries\lvgl\src\extra\themes\mono/lv_theme_mono.c ****     else if(lv_obj_check_type(obj, &lv_list_class)) {
 1261              		.loc 1 443 0
 1262 0852 5549     		ldr	r1, .L36+32
 1263 0854 2000     		movs	r0, r4
 1264 0856 FFF7FEFF 		bl	lv_obj_check_type
 1265              	.LVL166:
 1266 085a 0028     		cmp	r0, #0
 1267 085c 0ED0     		beq	.L26
ARM GAS  C:\Users\haske\AppData\Local\Temp\ccSAQWsX.s 			page 31


 444:..\..\..\arduinoLCD\test\Pain Drain\libraries\lvgl\src\extra\themes\mono/lv_theme_mono.c ****         lv_obj_add_style(obj, &styles->card, 0);
 1268              		.loc 1 444 0
 1269 085e 4B4D     		ldr	r5, .L36+4
 1270 0860 2968     		ldr	r1, [r5]
 1271 0862 0831     		adds	r1, r1, #8
 1272 0864 0022     		movs	r2, #0
 1273 0866 2000     		movs	r0, r4
 1274 0868 FFF7FEFF 		bl	lv_obj_add_style
 1275              	.LVL167:
 445:..\..\..\arduinoLCD\test\Pain Drain\libraries\lvgl\src\extra\themes\mono/lv_theme_mono.c ****         lv_obj_add_style(obj, &styles->scrollbar, LV_PART_SCROLLBAR);
 1276              		.loc 1 445 0
 1277 086c 2968     		ldr	r1, [r5]
 1278 086e 1031     		adds	r1, r1, #16
 1279 0870 8022     		movs	r2, #128
 1280 0872 5202     		lsls	r2, r2, #9
 1281 0874 2000     		movs	r0, r4
 1282 0876 FFF7FEFF 		bl	lv_obj_add_style
 1283              	.LVL168:
 446:..\..\..\arduinoLCD\test\Pain Drain\libraries\lvgl\src\extra\themes\mono/lv_theme_mono.c ****         return;
 1284              		.loc 1 446 0
 1285 087a 84E0     		b	.L1
 1286              	.L26:
 447:..\..\..\arduinoLCD\test\Pain Drain\libraries\lvgl\src\extra\themes\mono/lv_theme_mono.c ****     }
 448:..\..\..\arduinoLCD\test\Pain Drain\libraries\lvgl\src\extra\themes\mono/lv_theme_mono.c ****     else if(lv_obj_check_type(obj, &lv_list_text_class)) {
 1287              		.loc 1 448 0
 1288 087c 4B49     		ldr	r1, .L36+36
 1289 087e 2000     		movs	r0, r4
 1290 0880 FFF7FEFF 		bl	lv_obj_check_type
 1291              	.LVL169:
 1292 0884 0028     		cmp	r0, #0
 1293 0886 7ED1     		bne	.L1
 449:..\..\..\arduinoLCD\test\Pain Drain\libraries\lvgl\src\extra\themes\mono/lv_theme_mono.c **** 
 450:..\..\..\arduinoLCD\test\Pain Drain\libraries\lvgl\src\extra\themes\mono/lv_theme_mono.c ****     }
 451:..\..\..\arduinoLCD\test\Pain Drain\libraries\lvgl\src\extra\themes\mono/lv_theme_mono.c ****     else if(lv_obj_check_type(obj, &lv_list_btn_class)) {
 1294              		.loc 1 451 0
 1295 0888 4949     		ldr	r1, .L36+40
 1296 088a 2000     		movs	r0, r4
 1297 088c FFF7FEFF 		bl	lv_obj_check_type
 1298              	.LVL170:
 1299 0890 0028     		cmp	r0, #0
 1300 0892 19D0     		beq	.L27
 452:..\..\..\arduinoLCD\test\Pain Drain\libraries\lvgl\src\extra\themes\mono/lv_theme_mono.c ****         lv_obj_add_style(obj, &styles->card, 0);
 1301              		.loc 1 452 0
 1302 0894 3D4D     		ldr	r5, .L36+4
 1303 0896 2968     		ldr	r1, [r5]
 1304 0898 0831     		adds	r1, r1, #8
 1305 089a 0022     		movs	r2, #0
 1306 089c 2000     		movs	r0, r4
 1307 089e FFF7FEFF 		bl	lv_obj_add_style
 1308              	.LVL171:
 453:..\..\..\arduinoLCD\test\Pain Drain\libraries\lvgl\src\extra\themes\mono/lv_theme_mono.c ****         lv_obj_add_style(obj, &styles->pr, LV_STATE_PRESSED);
 1309              		.loc 1 453 0
 1310 08a2 2968     		ldr	r1, [r5]
 1311 08a4 2031     		adds	r1, r1, #32
 1312 08a6 2022     		movs	r2, #32
 1313 08a8 2000     		movs	r0, r4
 1314 08aa FFF7FEFF 		bl	lv_obj_add_style
ARM GAS  C:\Users\haske\AppData\Local\Temp\ccSAQWsX.s 			page 32


 1315              	.LVL172:
 454:..\..\..\arduinoLCD\test\Pain Drain\libraries\lvgl\src\extra\themes\mono/lv_theme_mono.c ****         lv_obj_add_style(obj, &styles->focus, LV_STATE_FOCUS_KEY);
 1316              		.loc 1 454 0
 1317 08ae 2968     		ldr	r1, [r5]
 1318 08b0 3831     		adds	r1, r1, #56
 1319 08b2 0422     		movs	r2, #4
 1320 08b4 2000     		movs	r0, r4
 1321 08b6 FFF7FEFF 		bl	lv_obj_add_style
 1322              	.LVL173:
 455:..\..\..\arduinoLCD\test\Pain Drain\libraries\lvgl\src\extra\themes\mono/lv_theme_mono.c ****         lv_obj_add_style(obj, &styles->large_border, LV_STATE_EDITED);
 1323              		.loc 1 455 0
 1324 08ba 2968     		ldr	r1, [r5]
 1325 08bc 6831     		adds	r1, r1, #104
 1326 08be 0822     		movs	r2, #8
 1327 08c0 2000     		movs	r0, r4
 1328 08c2 FFF7FEFF 		bl	lv_obj_add_style
 1329              	.LVL174:
 1330 08c6 5EE0     		b	.L1
 1331              	.L27:
 456:..\..\..\arduinoLCD\test\Pain Drain\libraries\lvgl\src\extra\themes\mono/lv_theme_mono.c **** 
 457:..\..\..\arduinoLCD\test\Pain Drain\libraries\lvgl\src\extra\themes\mono/lv_theme_mono.c ****     }
 458:..\..\..\arduinoLCD\test\Pain Drain\libraries\lvgl\src\extra\themes\mono/lv_theme_mono.c **** #endif
 459:..\..\..\arduinoLCD\test\Pain Drain\libraries\lvgl\src\extra\themes\mono/lv_theme_mono.c **** #if LV_USE_MSGBOX
 460:..\..\..\arduinoLCD\test\Pain Drain\libraries\lvgl\src\extra\themes\mono/lv_theme_mono.c ****     else if(lv_obj_check_type(obj, &lv_msgbox_class)) {
 1332              		.loc 1 460 0
 1333 08c8 3A49     		ldr	r1, .L36+44
 1334 08ca 2000     		movs	r0, r4
 1335 08cc FFF7FEFF 		bl	lv_obj_check_type
 1336              	.LVL175:
 1337 08d0 0028     		cmp	r0, #0
 1338 08d2 07D0     		beq	.L28
 461:..\..\..\arduinoLCD\test\Pain Drain\libraries\lvgl\src\extra\themes\mono/lv_theme_mono.c ****         lv_obj_add_style(obj, &styles->card, 0);
 1339              		.loc 1 461 0
 1340 08d4 2D4B     		ldr	r3, .L36+4
 1341 08d6 1968     		ldr	r1, [r3]
 1342 08d8 0831     		adds	r1, r1, #8
 1343 08da 0022     		movs	r2, #0
 1344 08dc 2000     		movs	r0, r4
 1345 08de FFF7FEFF 		bl	lv_obj_add_style
 1346              	.LVL176:
 462:..\..\..\arduinoLCD\test\Pain Drain\libraries\lvgl\src\extra\themes\mono/lv_theme_mono.c ****         return;
 1347              		.loc 1 462 0
 1348 08e2 50E0     		b	.L1
 1349              	.L28:
 463:..\..\..\arduinoLCD\test\Pain Drain\libraries\lvgl\src\extra\themes\mono/lv_theme_mono.c ****     }
 464:..\..\..\arduinoLCD\test\Pain Drain\libraries\lvgl\src\extra\themes\mono/lv_theme_mono.c **** #endif
 465:..\..\..\arduinoLCD\test\Pain Drain\libraries\lvgl\src\extra\themes\mono/lv_theme_mono.c **** #if LV_USE_SPINBOX
 466:..\..\..\arduinoLCD\test\Pain Drain\libraries\lvgl\src\extra\themes\mono/lv_theme_mono.c ****     else if(lv_obj_check_type(obj, &lv_spinbox_class)) {
 1350              		.loc 1 466 0
 1351 08e4 3449     		ldr	r1, .L36+48
 1352 08e6 2000     		movs	r0, r4
 1353 08e8 FFF7FEFF 		bl	lv_obj_check_type
 1354              	.LVL177:
 1355 08ec 0028     		cmp	r0, #0
 1356 08ee 1AD0     		beq	.L29
 467:..\..\..\arduinoLCD\test\Pain Drain\libraries\lvgl\src\extra\themes\mono/lv_theme_mono.c ****         lv_obj_add_style(obj, &styles->card, 0);
 1357              		.loc 1 467 0
ARM GAS  C:\Users\haske\AppData\Local\Temp\ccSAQWsX.s 			page 33


 1358 08f0 264D     		ldr	r5, .L36+4
 1359 08f2 2968     		ldr	r1, [r5]
 1360 08f4 0831     		adds	r1, r1, #8
 1361 08f6 0022     		movs	r2, #0
 1362 08f8 2000     		movs	r0, r4
 1363 08fa FFF7FEFF 		bl	lv_obj_add_style
 1364              	.LVL178:
 468:..\..\..\arduinoLCD\test\Pain Drain\libraries\lvgl\src\extra\themes\mono/lv_theme_mono.c ****         lv_obj_add_style(obj, &styles->inv, LV_PART_CURSOR);
 1365              		.loc 1 468 0
 1366 08fe 2968     		ldr	r1, [r5]
 1367 0900 2831     		adds	r1, r1, #40
 1368 0902 E022     		movs	r2, #224
 1369 0904 D202     		lsls	r2, r2, #11
 1370 0906 2000     		movs	r0, r4
 1371 0908 FFF7FEFF 		bl	lv_obj_add_style
 1372              	.LVL179:
 469:..\..\..\arduinoLCD\test\Pain Drain\libraries\lvgl\src\extra\themes\mono/lv_theme_mono.c ****         lv_obj_add_style(obj, &styles->focus, LV_STATE_FOCUS_KEY);
 1373              		.loc 1 469 0
 1374 090c 2968     		ldr	r1, [r5]
 1375 090e 3831     		adds	r1, r1, #56
 1376 0910 0422     		movs	r2, #4
 1377 0912 2000     		movs	r0, r4
 1378 0914 FFF7FEFF 		bl	lv_obj_add_style
 1379              	.LVL180:
 470:..\..\..\arduinoLCD\test\Pain Drain\libraries\lvgl\src\extra\themes\mono/lv_theme_mono.c ****         lv_obj_add_style(obj, &styles->edit, LV_STATE_EDITED);
 1380              		.loc 1 470 0
 1381 0918 2968     		ldr	r1, [r5]
 1382 091a 4031     		adds	r1, r1, #64
 1383 091c 0822     		movs	r2, #8
 1384 091e 2000     		movs	r0, r4
 1385 0920 FFF7FEFF 		bl	lv_obj_add_style
 1386              	.LVL181:
 1387 0924 2FE0     		b	.L1
 1388              	.L29:
 471:..\..\..\arduinoLCD\test\Pain Drain\libraries\lvgl\src\extra\themes\mono/lv_theme_mono.c ****     }
 472:..\..\..\arduinoLCD\test\Pain Drain\libraries\lvgl\src\extra\themes\mono/lv_theme_mono.c **** #endif
 473:..\..\..\arduinoLCD\test\Pain Drain\libraries\lvgl\src\extra\themes\mono/lv_theme_mono.c **** #if LV_USE_TILEVIEW
 474:..\..\..\arduinoLCD\test\Pain Drain\libraries\lvgl\src\extra\themes\mono/lv_theme_mono.c ****     else if(lv_obj_check_type(obj, &lv_tileview_class)) {
 1389              		.loc 1 474 0
 1390 0926 2549     		ldr	r1, .L36+52
 1391 0928 2000     		movs	r0, r4
 1392 092a FFF7FEFF 		bl	lv_obj_check_type
 1393              	.LVL182:
 1394 092e 0028     		cmp	r0, #0
 1395 0930 0DD0     		beq	.L30
 475:..\..\..\arduinoLCD\test\Pain Drain\libraries\lvgl\src\extra\themes\mono/lv_theme_mono.c ****         lv_obj_add_style(obj, &styles->scr, 0);
 1396              		.loc 1 475 0
 1397 0932 164D     		ldr	r5, .L36+4
 1398 0934 0022     		movs	r2, #0
 1399 0936 2968     		ldr	r1, [r5]
 1400 0938 2000     		movs	r0, r4
 1401 093a FFF7FEFF 		bl	lv_obj_add_style
 1402              	.LVL183:
 476:..\..\..\arduinoLCD\test\Pain Drain\libraries\lvgl\src\extra\themes\mono/lv_theme_mono.c ****         lv_obj_add_style(obj, &styles->scrollbar, LV_PART_SCROLLBAR);
 1403              		.loc 1 476 0
 1404 093e 2968     		ldr	r1, [r5]
 1405 0940 1031     		adds	r1, r1, #16
ARM GAS  C:\Users\haske\AppData\Local\Temp\ccSAQWsX.s 			page 34


 1406 0942 8022     		movs	r2, #128
 1407 0944 5202     		lsls	r2, r2, #9
 1408 0946 2000     		movs	r0, r4
 1409 0948 FFF7FEFF 		bl	lv_obj_add_style
 1410              	.LVL184:
 1411 094c 1BE0     		b	.L1
 1412              	.L30:
 477:..\..\..\arduinoLCD\test\Pain Drain\libraries\lvgl\src\extra\themes\mono/lv_theme_mono.c ****     }
 478:..\..\..\arduinoLCD\test\Pain Drain\libraries\lvgl\src\extra\themes\mono/lv_theme_mono.c ****     else if(lv_obj_check_type(obj, &lv_tileview_tile_class)) {
 1413              		.loc 1 478 0
 1414 094e 1C49     		ldr	r1, .L36+56
 1415 0950 2000     		movs	r0, r4
 1416 0952 FFF7FEFF 		bl	lv_obj_check_type
 1417              	.LVL185:
 1418 0956 0028     		cmp	r0, #0
 1419 0958 08D0     		beq	.L31
 479:..\..\..\arduinoLCD\test\Pain Drain\libraries\lvgl\src\extra\themes\mono/lv_theme_mono.c ****         lv_obj_add_style(obj, &styles->scrollbar, LV_PART_SCROLLBAR);
 1420              		.loc 1 479 0
 1421 095a 0C4B     		ldr	r3, .L36+4
 1422 095c 1968     		ldr	r1, [r3]
 1423 095e 1031     		adds	r1, r1, #16
 1424 0960 8022     		movs	r2, #128
 1425 0962 5202     		lsls	r2, r2, #9
 1426 0964 2000     		movs	r0, r4
 1427 0966 FFF7FEFF 		bl	lv_obj_add_style
 1428              	.LVL186:
 1429 096a 0CE0     		b	.L1
 1430              	.L31:
 480:..\..\..\arduinoLCD\test\Pain Drain\libraries\lvgl\src\extra\themes\mono/lv_theme_mono.c ****     }
 481:..\..\..\arduinoLCD\test\Pain Drain\libraries\lvgl\src\extra\themes\mono/lv_theme_mono.c **** #endif
 482:..\..\..\arduinoLCD\test\Pain Drain\libraries\lvgl\src\extra\themes\mono/lv_theme_mono.c **** 
 483:..\..\..\arduinoLCD\test\Pain Drain\libraries\lvgl\src\extra\themes\mono/lv_theme_mono.c **** #if LV_USE_LED
 484:..\..\..\arduinoLCD\test\Pain Drain\libraries\lvgl\src\extra\themes\mono/lv_theme_mono.c ****     else if(lv_obj_check_type(obj, &lv_led_class)) {
 1431              		.loc 1 484 0
 1432 096c 1549     		ldr	r1, .L36+60
 1433 096e 2000     		movs	r0, r4
 1434 0970 FFF7FEFF 		bl	lv_obj_check_type
 1435              	.LVL187:
 1436 0974 0028     		cmp	r0, #0
 1437 0976 06D0     		beq	.L1
 485:..\..\..\arduinoLCD\test\Pain Drain\libraries\lvgl\src\extra\themes\mono/lv_theme_mono.c ****         lv_obj_add_style(obj, &styles->card, 0);
 1438              		.loc 1 485 0
 1439 0978 044B     		ldr	r3, .L36+4
 1440 097a 1968     		ldr	r1, [r3]
 1441 097c 0831     		adds	r1, r1, #8
 1442 097e 0022     		movs	r2, #0
 1443 0980 2000     		movs	r0, r4
 1444 0982 FFF7FEFF 		bl	lv_obj_add_style
 1445              	.LVL188:
 1446              	.L1:
 486:..\..\..\arduinoLCD\test\Pain Drain\libraries\lvgl\src\extra\themes\mono/lv_theme_mono.c ****     }
 487:..\..\..\arduinoLCD\test\Pain Drain\libraries\lvgl\src\extra\themes\mono/lv_theme_mono.c **** #endif
 488:..\..\..\arduinoLCD\test\Pain Drain\libraries\lvgl\src\extra\themes\mono/lv_theme_mono.c **** }
 1447              		.loc 1 488 0
 1448              		@ sp needed
 1449              	.LVL189:
 1450 0986 70BD     		pop	{r4, r5, r6, pc}
ARM GAS  C:\Users\haske\AppData\Local\Temp\ccSAQWsX.s 			page 35


 1451              	.L37:
 1452              		.align	2
 1453              	.L36:
 1454 0988 00000000 		.word	lv_calendar_class
 1455 098c 00000000 		.word	.LANCHOR0
 1456 0990 20000500 		.word	327712
 1457 0994 80000500 		.word	327808
 1458 0998 04000500 		.word	327684
 1459 099c 00000000 		.word	lv_keyboard_class
 1460 09a0 01000500 		.word	327681
 1461 09a4 08000500 		.word	327688
 1462 09a8 00000000 		.word	lv_list_class
 1463 09ac 00000000 		.word	lv_list_text_class
 1464 09b0 00000000 		.word	lv_list_btn_class
 1465 09b4 00000000 		.word	lv_msgbox_class
 1466 09b8 00000000 		.word	lv_spinbox_class
 1467 09bc 00000000 		.word	lv_tileview_class
 1468 09c0 00000000 		.word	lv_tileview_tile_class
 1469 09c4 00000000 		.word	lv_led_class
 1470              		.cfi_endproc
 1471              	.LFE205:
 1472              		.size	theme_apply, .-theme_apply
 1473              		.section	.text.style_init_reset,"ax",%progbits
 1474              		.align	2
 1475              		.code	16
 1476              		.thumb_func
 1477              		.type	style_init_reset, %function
 1478              	style_init_reset:
 1479              	.LFB206:
 489:..\..\..\arduinoLCD\test\Pain Drain\libraries\lvgl\src\extra\themes\mono/lv_theme_mono.c **** 
 490:..\..\..\arduinoLCD\test\Pain Drain\libraries\lvgl\src\extra\themes\mono/lv_theme_mono.c **** /**********************
 491:..\..\..\arduinoLCD\test\Pain Drain\libraries\lvgl\src\extra\themes\mono/lv_theme_mono.c ****  *   STATIC FUNCTIONS
 492:..\..\..\arduinoLCD\test\Pain Drain\libraries\lvgl\src\extra\themes\mono/lv_theme_mono.c ****  **********************/
 493:..\..\..\arduinoLCD\test\Pain Drain\libraries\lvgl\src\extra\themes\mono/lv_theme_mono.c **** 
 494:..\..\..\arduinoLCD\test\Pain Drain\libraries\lvgl\src\extra\themes\mono/lv_theme_mono.c **** static void style_init_reset(lv_style_t * style)
 495:..\..\..\arduinoLCD\test\Pain Drain\libraries\lvgl\src\extra\themes\mono/lv_theme_mono.c **** {
 1480              		.loc 1 495 0
 1481              		.cfi_startproc
 1482              		@ args = 0, pretend = 0, frame = 0
 1483              		@ frame_needed = 0, uses_anonymous_args = 0
 1484              	.LVL190:
 1485 0000 10B5     		push	{r4, lr}
 1486              		.cfi_def_cfa_offset 8
 1487              		.cfi_offset 4, -8
 1488              		.cfi_offset 14, -4
 496:..\..\..\arduinoLCD\test\Pain Drain\libraries\lvgl\src\extra\themes\mono/lv_theme_mono.c ****     if(inited) {
 1489              		.loc 1 496 0
 1490 0002 054B     		ldr	r3, .L41
 1491 0004 1B79     		ldrb	r3, [r3, #4]
 1492 0006 002B     		cmp	r3, #0
 1493 0008 02D0     		beq	.L39
 497:..\..\..\arduinoLCD\test\Pain Drain\libraries\lvgl\src\extra\themes\mono/lv_theme_mono.c ****         lv_style_reset(style);
 1494              		.loc 1 497 0
 1495 000a FFF7FEFF 		bl	lv_style_reset
 1496              	.LVL191:
 1497 000e 01E0     		b	.L38
 1498              	.LVL192:
ARM GAS  C:\Users\haske\AppData\Local\Temp\ccSAQWsX.s 			page 36


 1499              	.L39:
 498:..\..\..\arduinoLCD\test\Pain Drain\libraries\lvgl\src\extra\themes\mono/lv_theme_mono.c ****     }
 499:..\..\..\arduinoLCD\test\Pain Drain\libraries\lvgl\src\extra\themes\mono/lv_theme_mono.c ****     else {
 500:..\..\..\arduinoLCD\test\Pain Drain\libraries\lvgl\src\extra\themes\mono/lv_theme_mono.c ****         lv_style_init(style);
 1500              		.loc 1 500 0
 1501 0010 FFF7FEFF 		bl	lv_style_init
 1502              	.LVL193:
 1503              	.L38:
 501:..\..\..\arduinoLCD\test\Pain Drain\libraries\lvgl\src\extra\themes\mono/lv_theme_mono.c ****     }
 502:..\..\..\arduinoLCD\test\Pain Drain\libraries\lvgl\src\extra\themes\mono/lv_theme_mono.c **** }
 1504              		.loc 1 502 0
 1505              		@ sp needed
 1506 0014 10BD     		pop	{r4, pc}
 1507              	.L42:
 1508 0016 C046     		.align	2
 1509              	.L41:
 1510 0018 00000000 		.word	.LANCHOR0
 1511              		.cfi_endproc
 1512              	.LFE206:
 1513              		.size	style_init_reset, .-style_init_reset
 1514              		.section	.text.style_init,"ax",%progbits
 1515              		.align	2
 1516              		.code	16
 1517              		.thumb_func
 1518              		.type	style_init, %function
 1519              	style_init:
 1520              	.LFB202:
  78:..\..\..\arduinoLCD\test\Pain Drain\libraries\lvgl\src\extra\themes\mono/lv_theme_mono.c ****     style_init_reset(&styles->scrollbar);
 1521              		.loc 1 78 0
 1522              		.cfi_startproc
 1523              		@ args = 0, pretend = 0, frame = 0
 1524              		@ frame_needed = 0, uses_anonymous_args = 0
 1525              	.LVL194:
 1526 0000 70B5     		push	{r4, r5, r6, lr}
 1527              		.cfi_def_cfa_offset 16
 1528              		.cfi_offset 4, -16
 1529              		.cfi_offset 5, -12
 1530              		.cfi_offset 6, -8
 1531              		.cfi_offset 14, -4
 1532 0002 0500     		movs	r5, r0
 1533 0004 0E00     		movs	r6, r1
  79:..\..\..\arduinoLCD\test\Pain Drain\libraries\lvgl\src\extra\themes\mono/lv_theme_mono.c ****     lv_style_set_bg_opa(&styles->scrollbar, LV_OPA_COVER);
 1534              		.loc 1 79 0
 1535 0006 A44C     		ldr	r4, .L76
 1536 0008 2068     		ldr	r0, [r4]
 1537              	.LVL195:
 1538 000a 1030     		adds	r0, r0, #16
 1539 000c FFF7FEFF 		bl	style_init_reset
 1540              	.LVL196:
  80:..\..\..\arduinoLCD\test\Pain Drain\libraries\lvgl\src\extra\themes\mono/lv_theme_mono.c ****     lv_style_set_bg_color(&styles->scrollbar, COLOR_FG);
 1541              		.loc 1 80 0
 1542 0010 2068     		ldr	r0, [r4]
 1543 0012 1030     		adds	r0, r0, #16
 1544 0014 FF21     		movs	r1, #255
 1545 0016 FFF7FEFF 		bl	lv_style_set_bg_opa
 1546              	.LVL197:
  81:..\..\..\arduinoLCD\test\Pain Drain\libraries\lvgl\src\extra\themes\mono/lv_theme_mono.c ****     lv_style_set_width(&styles->scrollbar,  PAD_DEF);
ARM GAS  C:\Users\haske\AppData\Local\Temp\ccSAQWsX.s 			page 37


 1547              		.loc 1 81 0
 1548 001a 2068     		ldr	r0, [r4]
 1549 001c 1030     		adds	r0, r0, #16
 1550 001e 002D     		cmp	r5, #0
 1551 0020 06D0     		beq	.L44
 1552              	.LVL198:
 1553              	.LBB247:
 1554              	.LBB248:
 1555              	.LBB249:
 1556              		.file 2 "c:\\projects\\paindrain\\arduinolcd\\test\\pain drain\\libraries\\lvgl\\src\\misc\\lv_col
   1:c:\projects\paindrain\arduinolcd\test\pain drain\libraries\lvgl\src\misc\lv_color.h **** /**
   2:c:\projects\paindrain\arduinolcd\test\pain drain\libraries\lvgl\src\misc\lv_color.h ****  * @file lv_color.h
   3:c:\projects\paindrain\arduinolcd\test\pain drain\libraries\lvgl\src\misc\lv_color.h ****  *
   4:c:\projects\paindrain\arduinolcd\test\pain drain\libraries\lvgl\src\misc\lv_color.h ****  */
   5:c:\projects\paindrain\arduinolcd\test\pain drain\libraries\lvgl\src\misc\lv_color.h **** 
   6:c:\projects\paindrain\arduinolcd\test\pain drain\libraries\lvgl\src\misc\lv_color.h **** #ifndef LV_COLOR_H
   7:c:\projects\paindrain\arduinolcd\test\pain drain\libraries\lvgl\src\misc\lv_color.h **** #define LV_COLOR_H
   8:c:\projects\paindrain\arduinolcd\test\pain drain\libraries\lvgl\src\misc\lv_color.h **** 
   9:c:\projects\paindrain\arduinolcd\test\pain drain\libraries\lvgl\src\misc\lv_color.h **** #ifdef __cplusplus
  10:c:\projects\paindrain\arduinolcd\test\pain drain\libraries\lvgl\src\misc\lv_color.h **** extern "C" {
  11:c:\projects\paindrain\arduinolcd\test\pain drain\libraries\lvgl\src\misc\lv_color.h **** #endif
  12:c:\projects\paindrain\arduinolcd\test\pain drain\libraries\lvgl\src\misc\lv_color.h **** 
  13:c:\projects\paindrain\arduinolcd\test\pain drain\libraries\lvgl\src\misc\lv_color.h **** /*********************
  14:c:\projects\paindrain\arduinolcd\test\pain drain\libraries\lvgl\src\misc\lv_color.h ****  *      INCLUDES
  15:c:\projects\paindrain\arduinolcd\test\pain drain\libraries\lvgl\src\misc\lv_color.h ****  *********************/
  16:c:\projects\paindrain\arduinolcd\test\pain drain\libraries\lvgl\src\misc\lv_color.h **** #include "../lv_conf_internal.h"
  17:c:\projects\paindrain\arduinolcd\test\pain drain\libraries\lvgl\src\misc\lv_color.h **** #include "lv_assert.h"
  18:c:\projects\paindrain\arduinolcd\test\pain drain\libraries\lvgl\src\misc\lv_color.h **** #include "lv_math.h"
  19:c:\projects\paindrain\arduinolcd\test\pain drain\libraries\lvgl\src\misc\lv_color.h **** #include "lv_types.h"
  20:c:\projects\paindrain\arduinolcd\test\pain drain\libraries\lvgl\src\misc\lv_color.h **** 
  21:c:\projects\paindrain\arduinolcd\test\pain drain\libraries\lvgl\src\misc\lv_color.h **** /*Error checking*/
  22:c:\projects\paindrain\arduinolcd\test\pain drain\libraries\lvgl\src\misc\lv_color.h **** #if LV_COLOR_DEPTH == 24
  23:c:\projects\paindrain\arduinolcd\test\pain drain\libraries\lvgl\src\misc\lv_color.h **** #error "LV_COLOR_DEPTH 24 is deprecated. Use LV_COLOR_DEPTH 32 instead (lv_conf.h)"
  24:c:\projects\paindrain\arduinolcd\test\pain drain\libraries\lvgl\src\misc\lv_color.h **** #endif
  25:c:\projects\paindrain\arduinolcd\test\pain drain\libraries\lvgl\src\misc\lv_color.h **** 
  26:c:\projects\paindrain\arduinolcd\test\pain drain\libraries\lvgl\src\misc\lv_color.h **** #if LV_COLOR_DEPTH != 16 && LV_COLOR_16_SWAP != 0
  27:c:\projects\paindrain\arduinolcd\test\pain drain\libraries\lvgl\src\misc\lv_color.h **** #error "LV_COLOR_16_SWAP requires LV_COLOR_DEPTH == 16. Set it in lv_conf.h"
  28:c:\projects\paindrain\arduinolcd\test\pain drain\libraries\lvgl\src\misc\lv_color.h **** #endif
  29:c:\projects\paindrain\arduinolcd\test\pain drain\libraries\lvgl\src\misc\lv_color.h **** 
  30:c:\projects\paindrain\arduinolcd\test\pain drain\libraries\lvgl\src\misc\lv_color.h **** #include <stdint.h>
  31:c:\projects\paindrain\arduinolcd\test\pain drain\libraries\lvgl\src\misc\lv_color.h **** 
  32:c:\projects\paindrain\arduinolcd\test\pain drain\libraries\lvgl\src\misc\lv_color.h **** /*********************
  33:c:\projects\paindrain\arduinolcd\test\pain drain\libraries\lvgl\src\misc\lv_color.h ****  *      DEFINES
  34:c:\projects\paindrain\arduinolcd\test\pain drain\libraries\lvgl\src\misc\lv_color.h ****  *********************/
  35:c:\projects\paindrain\arduinolcd\test\pain drain\libraries\lvgl\src\misc\lv_color.h **** LV_EXPORT_CONST_INT(LV_COLOR_DEPTH);
  36:c:\projects\paindrain\arduinolcd\test\pain drain\libraries\lvgl\src\misc\lv_color.h **** LV_EXPORT_CONST_INT(LV_COLOR_16_SWAP);
  37:c:\projects\paindrain\arduinolcd\test\pain drain\libraries\lvgl\src\misc\lv_color.h **** 
  38:c:\projects\paindrain\arduinolcd\test\pain drain\libraries\lvgl\src\misc\lv_color.h **** /**
  39:c:\projects\paindrain\arduinolcd\test\pain drain\libraries\lvgl\src\misc\lv_color.h ****  * Opacity percentages.
  40:c:\projects\paindrain\arduinolcd\test\pain drain\libraries\lvgl\src\misc\lv_color.h ****  */
  41:c:\projects\paindrain\arduinolcd\test\pain drain\libraries\lvgl\src\misc\lv_color.h **** enum {
  42:c:\projects\paindrain\arduinolcd\test\pain drain\libraries\lvgl\src\misc\lv_color.h ****     LV_OPA_TRANSP = 0,
  43:c:\projects\paindrain\arduinolcd\test\pain drain\libraries\lvgl\src\misc\lv_color.h ****     LV_OPA_0      = 0,
  44:c:\projects\paindrain\arduinolcd\test\pain drain\libraries\lvgl\src\misc\lv_color.h ****     LV_OPA_10     = 25,
  45:c:\projects\paindrain\arduinolcd\test\pain drain\libraries\lvgl\src\misc\lv_color.h ****     LV_OPA_20     = 51,
  46:c:\projects\paindrain\arduinolcd\test\pain drain\libraries\lvgl\src\misc\lv_color.h ****     LV_OPA_30     = 76,
  47:c:\projects\paindrain\arduinolcd\test\pain drain\libraries\lvgl\src\misc\lv_color.h ****     LV_OPA_40     = 102,
ARM GAS  C:\Users\haske\AppData\Local\Temp\ccSAQWsX.s 			page 38


  48:c:\projects\paindrain\arduinolcd\test\pain drain\libraries\lvgl\src\misc\lv_color.h ****     LV_OPA_50     = 127,
  49:c:\projects\paindrain\arduinolcd\test\pain drain\libraries\lvgl\src\misc\lv_color.h ****     LV_OPA_60     = 153,
  50:c:\projects\paindrain\arduinolcd\test\pain drain\libraries\lvgl\src\misc\lv_color.h ****     LV_OPA_70     = 178,
  51:c:\projects\paindrain\arduinolcd\test\pain drain\libraries\lvgl\src\misc\lv_color.h ****     LV_OPA_80     = 204,
  52:c:\projects\paindrain\arduinolcd\test\pain drain\libraries\lvgl\src\misc\lv_color.h ****     LV_OPA_90     = 229,
  53:c:\projects\paindrain\arduinolcd\test\pain drain\libraries\lvgl\src\misc\lv_color.h ****     LV_OPA_100    = 255,
  54:c:\projects\paindrain\arduinolcd\test\pain drain\libraries\lvgl\src\misc\lv_color.h ****     LV_OPA_COVER  = 255,
  55:c:\projects\paindrain\arduinolcd\test\pain drain\libraries\lvgl\src\misc\lv_color.h **** };
  56:c:\projects\paindrain\arduinolcd\test\pain drain\libraries\lvgl\src\misc\lv_color.h **** 
  57:c:\projects\paindrain\arduinolcd\test\pain drain\libraries\lvgl\src\misc\lv_color.h **** #define LV_OPA_MIN 2    /*Opacities below this will be transparent*/
  58:c:\projects\paindrain\arduinolcd\test\pain drain\libraries\lvgl\src\misc\lv_color.h **** #define LV_OPA_MAX 253  /*Opacities above this will fully cover*/
  59:c:\projects\paindrain\arduinolcd\test\pain drain\libraries\lvgl\src\misc\lv_color.h **** 
  60:c:\projects\paindrain\arduinolcd\test\pain drain\libraries\lvgl\src\misc\lv_color.h **** #if LV_COLOR_DEPTH == 1
  61:c:\projects\paindrain\arduinolcd\test\pain drain\libraries\lvgl\src\misc\lv_color.h **** #define LV_COLOR_SIZE 8
  62:c:\projects\paindrain\arduinolcd\test\pain drain\libraries\lvgl\src\misc\lv_color.h **** #elif LV_COLOR_DEPTH == 8
  63:c:\projects\paindrain\arduinolcd\test\pain drain\libraries\lvgl\src\misc\lv_color.h **** #define LV_COLOR_SIZE 8
  64:c:\projects\paindrain\arduinolcd\test\pain drain\libraries\lvgl\src\misc\lv_color.h **** #elif LV_COLOR_DEPTH == 16
  65:c:\projects\paindrain\arduinolcd\test\pain drain\libraries\lvgl\src\misc\lv_color.h **** #define LV_COLOR_SIZE 16
  66:c:\projects\paindrain\arduinolcd\test\pain drain\libraries\lvgl\src\misc\lv_color.h **** #elif LV_COLOR_DEPTH == 32
  67:c:\projects\paindrain\arduinolcd\test\pain drain\libraries\lvgl\src\misc\lv_color.h **** #define LV_COLOR_SIZE 32
  68:c:\projects\paindrain\arduinolcd\test\pain drain\libraries\lvgl\src\misc\lv_color.h **** #else
  69:c:\projects\paindrain\arduinolcd\test\pain drain\libraries\lvgl\src\misc\lv_color.h **** #error "Invalid LV_COLOR_DEPTH in lv_conf.h! Set it to 1, 8, 16 or 32!"
  70:c:\projects\paindrain\arduinolcd\test\pain drain\libraries\lvgl\src\misc\lv_color.h **** #endif
  71:c:\projects\paindrain\arduinolcd\test\pain drain\libraries\lvgl\src\misc\lv_color.h **** 
  72:c:\projects\paindrain\arduinolcd\test\pain drain\libraries\lvgl\src\misc\lv_color.h **** #if defined(__cplusplus) && !defined(_LV_COLOR_HAS_MODERN_CPP)
  73:c:\projects\paindrain\arduinolcd\test\pain drain\libraries\lvgl\src\misc\lv_color.h **** /**
  74:c:\projects\paindrain\arduinolcd\test\pain drain\libraries\lvgl\src\misc\lv_color.h **** * MSVC compiler's definition of the __cplusplus indicating 199711L regardless to C++ standard versi
  75:c:\projects\paindrain\arduinolcd\test\pain drain\libraries\lvgl\src\misc\lv_color.h **** * see https://devblogs.microsoft.com/cppblog/msvc-now-correctly-reports-cplusplus
  76:c:\projects\paindrain\arduinolcd\test\pain drain\libraries\lvgl\src\misc\lv_color.h **** * so we use _MSC_VER macro instead of __cplusplus
  77:c:\projects\paindrain\arduinolcd\test\pain drain\libraries\lvgl\src\misc\lv_color.h **** */
  78:c:\projects\paindrain\arduinolcd\test\pain drain\libraries\lvgl\src\misc\lv_color.h **** #ifdef _MSC_VER
  79:c:\projects\paindrain\arduinolcd\test\pain drain\libraries\lvgl\src\misc\lv_color.h **** #if _MSC_VER >= 1900 /*Visual Studio 2015*/
  80:c:\projects\paindrain\arduinolcd\test\pain drain\libraries\lvgl\src\misc\lv_color.h **** #define _LV_COLOR_HAS_MODERN_CPP 1
  81:c:\projects\paindrain\arduinolcd\test\pain drain\libraries\lvgl\src\misc\lv_color.h **** #endif
  82:c:\projects\paindrain\arduinolcd\test\pain drain\libraries\lvgl\src\misc\lv_color.h **** #else
  83:c:\projects\paindrain\arduinolcd\test\pain drain\libraries\lvgl\src\misc\lv_color.h **** #if __cplusplus >= 201103L
  84:c:\projects\paindrain\arduinolcd\test\pain drain\libraries\lvgl\src\misc\lv_color.h **** #define _LV_COLOR_HAS_MODERN_CPP 1
  85:c:\projects\paindrain\arduinolcd\test\pain drain\libraries\lvgl\src\misc\lv_color.h **** #endif
  86:c:\projects\paindrain\arduinolcd\test\pain drain\libraries\lvgl\src\misc\lv_color.h **** #endif
  87:c:\projects\paindrain\arduinolcd\test\pain drain\libraries\lvgl\src\misc\lv_color.h **** #endif /*__cplusplus*/
  88:c:\projects\paindrain\arduinolcd\test\pain drain\libraries\lvgl\src\misc\lv_color.h **** 
  89:c:\projects\paindrain\arduinolcd\test\pain drain\libraries\lvgl\src\misc\lv_color.h **** #ifndef _LV_COLOR_HAS_MODERN_CPP
  90:c:\projects\paindrain\arduinolcd\test\pain drain\libraries\lvgl\src\misc\lv_color.h **** #define _LV_COLOR_HAS_MODERN_CPP 0
  91:c:\projects\paindrain\arduinolcd\test\pain drain\libraries\lvgl\src\misc\lv_color.h **** #endif
  92:c:\projects\paindrain\arduinolcd\test\pain drain\libraries\lvgl\src\misc\lv_color.h **** 
  93:c:\projects\paindrain\arduinolcd\test\pain drain\libraries\lvgl\src\misc\lv_color.h **** #if _LV_COLOR_HAS_MODERN_CPP
  94:c:\projects\paindrain\arduinolcd\test\pain drain\libraries\lvgl\src\misc\lv_color.h **** /*Fix msvc compiler error C4576 inside C++ code*/
  95:c:\projects\paindrain\arduinolcd\test\pain drain\libraries\lvgl\src\misc\lv_color.h **** #define _LV_COLOR_MAKE_TYPE_HELPER lv_color_t
  96:c:\projects\paindrain\arduinolcd\test\pain drain\libraries\lvgl\src\misc\lv_color.h **** #else
  97:c:\projects\paindrain\arduinolcd\test\pain drain\libraries\lvgl\src\misc\lv_color.h **** #define _LV_COLOR_MAKE_TYPE_HELPER (lv_color_t)
  98:c:\projects\paindrain\arduinolcd\test\pain drain\libraries\lvgl\src\misc\lv_color.h **** #endif
  99:c:\projects\paindrain\arduinolcd\test\pain drain\libraries\lvgl\src\misc\lv_color.h **** 
 100:c:\projects\paindrain\arduinolcd\test\pain drain\libraries\lvgl\src\misc\lv_color.h **** /*---------------------------------------
 101:c:\projects\paindrain\arduinolcd\test\pain drain\libraries\lvgl\src\misc\lv_color.h ****  * Macros for all existing color depths
 102:c:\projects\paindrain\arduinolcd\test\pain drain\libraries\lvgl\src\misc\lv_color.h ****  * to set/get values of the color channels
 103:c:\projects\paindrain\arduinolcd\test\pain drain\libraries\lvgl\src\misc\lv_color.h ****  *------------------------------------------*/
 104:c:\projects\paindrain\arduinolcd\test\pain drain\libraries\lvgl\src\misc\lv_color.h **** # define LV_COLOR_SET_R1(c, v) (c).ch.red = (uint8_t)((v) & 0x1)
ARM GAS  C:\Users\haske\AppData\Local\Temp\ccSAQWsX.s 			page 39


 105:c:\projects\paindrain\arduinolcd\test\pain drain\libraries\lvgl\src\misc\lv_color.h **** # define LV_COLOR_SET_G1(c, v) (c).ch.green = (uint8_t)((v) & 0x1)
 106:c:\projects\paindrain\arduinolcd\test\pain drain\libraries\lvgl\src\misc\lv_color.h **** # define LV_COLOR_SET_B1(c, v) (c).ch.blue = (uint8_t)((v) & 0x1)
 107:c:\projects\paindrain\arduinolcd\test\pain drain\libraries\lvgl\src\misc\lv_color.h **** # define LV_COLOR_SET_A1(c, v) do {} while(0)
 108:c:\projects\paindrain\arduinolcd\test\pain drain\libraries\lvgl\src\misc\lv_color.h **** 
 109:c:\projects\paindrain\arduinolcd\test\pain drain\libraries\lvgl\src\misc\lv_color.h **** # define LV_COLOR_GET_R1(c) (c).ch.red
 110:c:\projects\paindrain\arduinolcd\test\pain drain\libraries\lvgl\src\misc\lv_color.h **** # define LV_COLOR_GET_G1(c) (c).ch.green
 111:c:\projects\paindrain\arduinolcd\test\pain drain\libraries\lvgl\src\misc\lv_color.h **** # define LV_COLOR_GET_B1(c) (c).ch.blue
 112:c:\projects\paindrain\arduinolcd\test\pain drain\libraries\lvgl\src\misc\lv_color.h **** # define LV_COLOR_GET_A1(c) 0xFF
 113:c:\projects\paindrain\arduinolcd\test\pain drain\libraries\lvgl\src\misc\lv_color.h **** 
 114:c:\projects\paindrain\arduinolcd\test\pain drain\libraries\lvgl\src\misc\lv_color.h **** # define _LV_COLOR_ZERO_INITIALIZER1 {0x00}
 115:c:\projects\paindrain\arduinolcd\test\pain drain\libraries\lvgl\src\misc\lv_color.h **** # define LV_COLOR_MAKE1(r8, g8, b8)  {(uint8_t)((b8 >> 7) | (g8 >> 7) | (r8 >> 7))}
 116:c:\projects\paindrain\arduinolcd\test\pain drain\libraries\lvgl\src\misc\lv_color.h **** 
 117:c:\projects\paindrain\arduinolcd\test\pain drain\libraries\lvgl\src\misc\lv_color.h **** # define LV_COLOR_SET_R8(c, v) (c).ch.red = (uint8_t)((v) & 0x7U)
 118:c:\projects\paindrain\arduinolcd\test\pain drain\libraries\lvgl\src\misc\lv_color.h **** # define LV_COLOR_SET_G8(c, v) (c).ch.green = (uint8_t)((v) & 0x7U)
 119:c:\projects\paindrain\arduinolcd\test\pain drain\libraries\lvgl\src\misc\lv_color.h **** # define LV_COLOR_SET_B8(c, v) (c).ch.blue = (uint8_t)((v) & 0x3U)
 120:c:\projects\paindrain\arduinolcd\test\pain drain\libraries\lvgl\src\misc\lv_color.h **** # define LV_COLOR_SET_A8(c, v) do {} while(0)
 121:c:\projects\paindrain\arduinolcd\test\pain drain\libraries\lvgl\src\misc\lv_color.h **** 
 122:c:\projects\paindrain\arduinolcd\test\pain drain\libraries\lvgl\src\misc\lv_color.h **** # define LV_COLOR_GET_R8(c) (c).ch.red
 123:c:\projects\paindrain\arduinolcd\test\pain drain\libraries\lvgl\src\misc\lv_color.h **** # define LV_COLOR_GET_G8(c) (c).ch.green
 124:c:\projects\paindrain\arduinolcd\test\pain drain\libraries\lvgl\src\misc\lv_color.h **** # define LV_COLOR_GET_B8(c) (c).ch.blue
 125:c:\projects\paindrain\arduinolcd\test\pain drain\libraries\lvgl\src\misc\lv_color.h **** # define LV_COLOR_GET_A8(c) 0xFF
 126:c:\projects\paindrain\arduinolcd\test\pain drain\libraries\lvgl\src\misc\lv_color.h **** 
 127:c:\projects\paindrain\arduinolcd\test\pain drain\libraries\lvgl\src\misc\lv_color.h **** # define _LV_COLOR_ZERO_INITIALIZER8 {{0x00, 0x00, 0x00}}
 128:c:\projects\paindrain\arduinolcd\test\pain drain\libraries\lvgl\src\misc\lv_color.h **** # define LV_COLOR_MAKE8(r8, g8, b8) {{(uint8_t)((b8 >> 6) & 0x3U), (uint8_t)((g8 >> 5) & 0x7U), (ui
 129:c:\projects\paindrain\arduinolcd\test\pain drain\libraries\lvgl\src\misc\lv_color.h **** 
 130:c:\projects\paindrain\arduinolcd\test\pain drain\libraries\lvgl\src\misc\lv_color.h **** # define LV_COLOR_SET_R16(c, v) (c).ch.red = (uint8_t)((v) & 0x1FU)
 131:c:\projects\paindrain\arduinolcd\test\pain drain\libraries\lvgl\src\misc\lv_color.h **** #if LV_COLOR_16_SWAP == 0
 132:c:\projects\paindrain\arduinolcd\test\pain drain\libraries\lvgl\src\misc\lv_color.h **** # define LV_COLOR_SET_G16(c, v) (c).ch.green = (uint8_t)((v) & 0x3FU)
 133:c:\projects\paindrain\arduinolcd\test\pain drain\libraries\lvgl\src\misc\lv_color.h **** #else
 134:c:\projects\paindrain\arduinolcd\test\pain drain\libraries\lvgl\src\misc\lv_color.h **** # define LV_COLOR_SET_G16(c, v) {(c).ch.green_h = (uint8_t)(((v) >> 3) & 0x7); (c).ch.green_l = (ui
 135:c:\projects\paindrain\arduinolcd\test\pain drain\libraries\lvgl\src\misc\lv_color.h **** #endif
 136:c:\projects\paindrain\arduinolcd\test\pain drain\libraries\lvgl\src\misc\lv_color.h **** # define LV_COLOR_SET_B16(c, v) (c).ch.blue = (uint8_t)((v) & 0x1FU)
 137:c:\projects\paindrain\arduinolcd\test\pain drain\libraries\lvgl\src\misc\lv_color.h **** # define LV_COLOR_SET_A16(c, v) do {} while(0)
 138:c:\projects\paindrain\arduinolcd\test\pain drain\libraries\lvgl\src\misc\lv_color.h **** 
 139:c:\projects\paindrain\arduinolcd\test\pain drain\libraries\lvgl\src\misc\lv_color.h **** # define LV_COLOR_GET_R16(c) (c).ch.red
 140:c:\projects\paindrain\arduinolcd\test\pain drain\libraries\lvgl\src\misc\lv_color.h **** #if LV_COLOR_16_SWAP == 0
 141:c:\projects\paindrain\arduinolcd\test\pain drain\libraries\lvgl\src\misc\lv_color.h **** # define LV_COLOR_GET_G16(c) (c).ch.green
 142:c:\projects\paindrain\arduinolcd\test\pain drain\libraries\lvgl\src\misc\lv_color.h **** #else
 143:c:\projects\paindrain\arduinolcd\test\pain drain\libraries\lvgl\src\misc\lv_color.h **** # define LV_COLOR_GET_G16(c) (((c).ch.green_h << 3) + (c).ch.green_l)
 144:c:\projects\paindrain\arduinolcd\test\pain drain\libraries\lvgl\src\misc\lv_color.h **** #endif
 145:c:\projects\paindrain\arduinolcd\test\pain drain\libraries\lvgl\src\misc\lv_color.h **** # define LV_COLOR_GET_B16(c) (c).ch.blue
 146:c:\projects\paindrain\arduinolcd\test\pain drain\libraries\lvgl\src\misc\lv_color.h **** # define LV_COLOR_GET_A16(c) 0xFF
 147:c:\projects\paindrain\arduinolcd\test\pain drain\libraries\lvgl\src\misc\lv_color.h **** 
 148:c:\projects\paindrain\arduinolcd\test\pain drain\libraries\lvgl\src\misc\lv_color.h **** #if LV_COLOR_16_SWAP == 0
 149:c:\projects\paindrain\arduinolcd\test\pain drain\libraries\lvgl\src\misc\lv_color.h **** # define _LV_COLOR_ZERO_INITIALIZER16  {{0x00, 0x00, 0x00}}
 150:c:\projects\paindrain\arduinolcd\test\pain drain\libraries\lvgl\src\misc\lv_color.h **** # define LV_COLOR_MAKE16(r8, g8, b8) {{(uint8_t)((b8 >> 3) & 0x1FU), (uint8_t)((g8 >> 2) & 0x3FU), 
 151:c:\projects\paindrain\arduinolcd\test\pain drain\libraries\lvgl\src\misc\lv_color.h **** #else
 152:c:\projects\paindrain\arduinolcd\test\pain drain\libraries\lvgl\src\misc\lv_color.h **** # define _LV_COLOR_ZERO_INITIALIZER16 {{0x00, 0x00, 0x00, 0x00}}
 153:c:\projects\paindrain\arduinolcd\test\pain drain\libraries\lvgl\src\misc\lv_color.h **** # define LV_COLOR_MAKE16(r8, g8, b8) {{(uint8_t)((g8 >> 5) & 0x7U), (uint8_t)((r8 >> 3) & 0x1FU), (
 154:c:\projects\paindrain\arduinolcd\test\pain drain\libraries\lvgl\src\misc\lv_color.h **** #endif
 155:c:\projects\paindrain\arduinolcd\test\pain drain\libraries\lvgl\src\misc\lv_color.h **** 
 156:c:\projects\paindrain\arduinolcd\test\pain drain\libraries\lvgl\src\misc\lv_color.h **** # define LV_COLOR_SET_R32(c, v) (c).ch.red = (uint8_t)((v) & 0xFF)
 157:c:\projects\paindrain\arduinolcd\test\pain drain\libraries\lvgl\src\misc\lv_color.h **** # define LV_COLOR_SET_G32(c, v) (c).ch.green = (uint8_t)((v) & 0xFF)
 158:c:\projects\paindrain\arduinolcd\test\pain drain\libraries\lvgl\src\misc\lv_color.h **** # define LV_COLOR_SET_B32(c, v) (c).ch.blue = (uint8_t)((v) & 0xFF)
 159:c:\projects\paindrain\arduinolcd\test\pain drain\libraries\lvgl\src\misc\lv_color.h **** # define LV_COLOR_SET_A32(c, v) (c).ch.alpha = (uint8_t)((v) & 0xFF)
 160:c:\projects\paindrain\arduinolcd\test\pain drain\libraries\lvgl\src\misc\lv_color.h **** 
 161:c:\projects\paindrain\arduinolcd\test\pain drain\libraries\lvgl\src\misc\lv_color.h **** # define LV_COLOR_GET_R32(c) (c).ch.red
ARM GAS  C:\Users\haske\AppData\Local\Temp\ccSAQWsX.s 			page 40


 162:c:\projects\paindrain\arduinolcd\test\pain drain\libraries\lvgl\src\misc\lv_color.h **** # define LV_COLOR_GET_G32(c) (c).ch.green
 163:c:\projects\paindrain\arduinolcd\test\pain drain\libraries\lvgl\src\misc\lv_color.h **** # define LV_COLOR_GET_B32(c) (c).ch.blue
 164:c:\projects\paindrain\arduinolcd\test\pain drain\libraries\lvgl\src\misc\lv_color.h **** # define LV_COLOR_GET_A32(c) (c).ch.alpha
 165:c:\projects\paindrain\arduinolcd\test\pain drain\libraries\lvgl\src\misc\lv_color.h **** 
 166:c:\projects\paindrain\arduinolcd\test\pain drain\libraries\lvgl\src\misc\lv_color.h **** # define _LV_COLOR_ZERO_INITIALIZER32  {{0x00, 0x00, 0x00, 0x00}}
 167:c:\projects\paindrain\arduinolcd\test\pain drain\libraries\lvgl\src\misc\lv_color.h **** # define LV_COLOR_MAKE32(r8, g8, b8) {{b8, g8, r8, 0xff}} /*Fix 0xff alpha*/
 168:c:\projects\paindrain\arduinolcd\test\pain drain\libraries\lvgl\src\misc\lv_color.h **** 
 169:c:\projects\paindrain\arduinolcd\test\pain drain\libraries\lvgl\src\misc\lv_color.h **** /*---------------------------------------
 170:c:\projects\paindrain\arduinolcd\test\pain drain\libraries\lvgl\src\misc\lv_color.h ****  * Macros for the current color depth
 171:c:\projects\paindrain\arduinolcd\test\pain drain\libraries\lvgl\src\misc\lv_color.h ****  * to set/get values of the color channels
 172:c:\projects\paindrain\arduinolcd\test\pain drain\libraries\lvgl\src\misc\lv_color.h ****  *------------------------------------------*/
 173:c:\projects\paindrain\arduinolcd\test\pain drain\libraries\lvgl\src\misc\lv_color.h **** #define LV_COLOR_SET_R(c, v) LV_CONCAT(LV_COLOR_SET_R, LV_COLOR_DEPTH)(c, v)
 174:c:\projects\paindrain\arduinolcd\test\pain drain\libraries\lvgl\src\misc\lv_color.h **** #define LV_COLOR_SET_G(c, v) LV_CONCAT(LV_COLOR_SET_G, LV_COLOR_DEPTH)(c, v)
 175:c:\projects\paindrain\arduinolcd\test\pain drain\libraries\lvgl\src\misc\lv_color.h **** #define LV_COLOR_SET_B(c, v) LV_CONCAT(LV_COLOR_SET_B, LV_COLOR_DEPTH)(c, v)
 176:c:\projects\paindrain\arduinolcd\test\pain drain\libraries\lvgl\src\misc\lv_color.h **** #define LV_COLOR_SET_A(c, v) LV_CONCAT(LV_COLOR_SET_A, LV_COLOR_DEPTH)(c, v)
 177:c:\projects\paindrain\arduinolcd\test\pain drain\libraries\lvgl\src\misc\lv_color.h **** 
 178:c:\projects\paindrain\arduinolcd\test\pain drain\libraries\lvgl\src\misc\lv_color.h **** #define LV_COLOR_GET_R(c) LV_CONCAT(LV_COLOR_GET_R, LV_COLOR_DEPTH)(c)
 179:c:\projects\paindrain\arduinolcd\test\pain drain\libraries\lvgl\src\misc\lv_color.h **** #define LV_COLOR_GET_G(c) LV_CONCAT(LV_COLOR_GET_G, LV_COLOR_DEPTH)(c)
 180:c:\projects\paindrain\arduinolcd\test\pain drain\libraries\lvgl\src\misc\lv_color.h **** #define LV_COLOR_GET_B(c) LV_CONCAT(LV_COLOR_GET_B, LV_COLOR_DEPTH)(c)
 181:c:\projects\paindrain\arduinolcd\test\pain drain\libraries\lvgl\src\misc\lv_color.h **** #define LV_COLOR_GET_A(c) LV_CONCAT(LV_COLOR_GET_A, LV_COLOR_DEPTH)(c)
 182:c:\projects\paindrain\arduinolcd\test\pain drain\libraries\lvgl\src\misc\lv_color.h **** 
 183:c:\projects\paindrain\arduinolcd\test\pain drain\libraries\lvgl\src\misc\lv_color.h **** #define _LV_COLOR_ZERO_INITIALIZER LV_CONCAT(_LV_COLOR_ZERO_INITIALIZER, LV_COLOR_DEPTH)
 184:c:\projects\paindrain\arduinolcd\test\pain drain\libraries\lvgl\src\misc\lv_color.h **** #define LV_COLOR_MAKE(r8, g8, b8) LV_CONCAT(LV_COLOR_MAKE, LV_COLOR_DEPTH)(r8, g8, b8)
 185:c:\projects\paindrain\arduinolcd\test\pain drain\libraries\lvgl\src\misc\lv_color.h **** 
 186:c:\projects\paindrain\arduinolcd\test\pain drain\libraries\lvgl\src\misc\lv_color.h **** /**********************
 187:c:\projects\paindrain\arduinolcd\test\pain drain\libraries\lvgl\src\misc\lv_color.h ****  *      TYPEDEFS
 188:c:\projects\paindrain\arduinolcd\test\pain drain\libraries\lvgl\src\misc\lv_color.h ****  **********************/
 189:c:\projects\paindrain\arduinolcd\test\pain drain\libraries\lvgl\src\misc\lv_color.h **** 
 190:c:\projects\paindrain\arduinolcd\test\pain drain\libraries\lvgl\src\misc\lv_color.h **** typedef union {
 191:c:\projects\paindrain\arduinolcd\test\pain drain\libraries\lvgl\src\misc\lv_color.h ****     uint8_t full; /*must be declared first to set all bits of byte via initializer list*/
 192:c:\projects\paindrain\arduinolcd\test\pain drain\libraries\lvgl\src\misc\lv_color.h ****     union {
 193:c:\projects\paindrain\arduinolcd\test\pain drain\libraries\lvgl\src\misc\lv_color.h ****         uint8_t blue : 1;
 194:c:\projects\paindrain\arduinolcd\test\pain drain\libraries\lvgl\src\misc\lv_color.h ****         uint8_t green : 1;
 195:c:\projects\paindrain\arduinolcd\test\pain drain\libraries\lvgl\src\misc\lv_color.h ****         uint8_t red : 1;
 196:c:\projects\paindrain\arduinolcd\test\pain drain\libraries\lvgl\src\misc\lv_color.h ****     } ch;
 197:c:\projects\paindrain\arduinolcd\test\pain drain\libraries\lvgl\src\misc\lv_color.h **** } lv_color1_t;
 198:c:\projects\paindrain\arduinolcd\test\pain drain\libraries\lvgl\src\misc\lv_color.h **** 
 199:c:\projects\paindrain\arduinolcd\test\pain drain\libraries\lvgl\src\misc\lv_color.h **** typedef union {
 200:c:\projects\paindrain\arduinolcd\test\pain drain\libraries\lvgl\src\misc\lv_color.h ****     struct {
 201:c:\projects\paindrain\arduinolcd\test\pain drain\libraries\lvgl\src\misc\lv_color.h ****         uint8_t blue : 2;
 202:c:\projects\paindrain\arduinolcd\test\pain drain\libraries\lvgl\src\misc\lv_color.h ****         uint8_t green : 3;
 203:c:\projects\paindrain\arduinolcd\test\pain drain\libraries\lvgl\src\misc\lv_color.h ****         uint8_t red : 3;
 204:c:\projects\paindrain\arduinolcd\test\pain drain\libraries\lvgl\src\misc\lv_color.h ****     } ch;
 205:c:\projects\paindrain\arduinolcd\test\pain drain\libraries\lvgl\src\misc\lv_color.h ****     uint8_t full;
 206:c:\projects\paindrain\arduinolcd\test\pain drain\libraries\lvgl\src\misc\lv_color.h **** } lv_color8_t;
 207:c:\projects\paindrain\arduinolcd\test\pain drain\libraries\lvgl\src\misc\lv_color.h **** 
 208:c:\projects\paindrain\arduinolcd\test\pain drain\libraries\lvgl\src\misc\lv_color.h **** typedef union {
 209:c:\projects\paindrain\arduinolcd\test\pain drain\libraries\lvgl\src\misc\lv_color.h ****     struct {
 210:c:\projects\paindrain\arduinolcd\test\pain drain\libraries\lvgl\src\misc\lv_color.h **** #if LV_COLOR_16_SWAP == 0
 211:c:\projects\paindrain\arduinolcd\test\pain drain\libraries\lvgl\src\misc\lv_color.h ****         uint16_t blue : 5;
 212:c:\projects\paindrain\arduinolcd\test\pain drain\libraries\lvgl\src\misc\lv_color.h ****         uint16_t green : 6;
 213:c:\projects\paindrain\arduinolcd\test\pain drain\libraries\lvgl\src\misc\lv_color.h ****         uint16_t red : 5;
 214:c:\projects\paindrain\arduinolcd\test\pain drain\libraries\lvgl\src\misc\lv_color.h **** #else
 215:c:\projects\paindrain\arduinolcd\test\pain drain\libraries\lvgl\src\misc\lv_color.h ****         uint16_t green_h : 3;
 216:c:\projects\paindrain\arduinolcd\test\pain drain\libraries\lvgl\src\misc\lv_color.h ****         uint16_t red : 5;
 217:c:\projects\paindrain\arduinolcd\test\pain drain\libraries\lvgl\src\misc\lv_color.h ****         uint16_t blue : 5;
 218:c:\projects\paindrain\arduinolcd\test\pain drain\libraries\lvgl\src\misc\lv_color.h ****         uint16_t green_l : 3;
ARM GAS  C:\Users\haske\AppData\Local\Temp\ccSAQWsX.s 			page 41


 219:c:\projects\paindrain\arduinolcd\test\pain drain\libraries\lvgl\src\misc\lv_color.h **** #endif
 220:c:\projects\paindrain\arduinolcd\test\pain drain\libraries\lvgl\src\misc\lv_color.h ****     } ch;
 221:c:\projects\paindrain\arduinolcd\test\pain drain\libraries\lvgl\src\misc\lv_color.h ****     uint16_t full;
 222:c:\projects\paindrain\arduinolcd\test\pain drain\libraries\lvgl\src\misc\lv_color.h **** } lv_color16_t;
 223:c:\projects\paindrain\arduinolcd\test\pain drain\libraries\lvgl\src\misc\lv_color.h **** 
 224:c:\projects\paindrain\arduinolcd\test\pain drain\libraries\lvgl\src\misc\lv_color.h **** typedef union {
 225:c:\projects\paindrain\arduinolcd\test\pain drain\libraries\lvgl\src\misc\lv_color.h ****     struct {
 226:c:\projects\paindrain\arduinolcd\test\pain drain\libraries\lvgl\src\misc\lv_color.h ****         uint8_t blue;
 227:c:\projects\paindrain\arduinolcd\test\pain drain\libraries\lvgl\src\misc\lv_color.h ****         uint8_t green;
 228:c:\projects\paindrain\arduinolcd\test\pain drain\libraries\lvgl\src\misc\lv_color.h ****         uint8_t red;
 229:c:\projects\paindrain\arduinolcd\test\pain drain\libraries\lvgl\src\misc\lv_color.h ****         uint8_t alpha;
 230:c:\projects\paindrain\arduinolcd\test\pain drain\libraries\lvgl\src\misc\lv_color.h ****     } ch;
 231:c:\projects\paindrain\arduinolcd\test\pain drain\libraries\lvgl\src\misc\lv_color.h ****     uint32_t full;
 232:c:\projects\paindrain\arduinolcd\test\pain drain\libraries\lvgl\src\misc\lv_color.h **** } lv_color32_t;
 233:c:\projects\paindrain\arduinolcd\test\pain drain\libraries\lvgl\src\misc\lv_color.h **** 
 234:c:\projects\paindrain\arduinolcd\test\pain drain\libraries\lvgl\src\misc\lv_color.h **** typedef LV_CONCAT3(uint, LV_COLOR_SIZE, _t) lv_color_int_t;
 235:c:\projects\paindrain\arduinolcd\test\pain drain\libraries\lvgl\src\misc\lv_color.h **** typedef LV_CONCAT3(lv_color, LV_COLOR_DEPTH, _t) lv_color_t;
 236:c:\projects\paindrain\arduinolcd\test\pain drain\libraries\lvgl\src\misc\lv_color.h **** 
 237:c:\projects\paindrain\arduinolcd\test\pain drain\libraries\lvgl\src\misc\lv_color.h **** typedef struct {
 238:c:\projects\paindrain\arduinolcd\test\pain drain\libraries\lvgl\src\misc\lv_color.h ****     uint16_t h;
 239:c:\projects\paindrain\arduinolcd\test\pain drain\libraries\lvgl\src\misc\lv_color.h ****     uint8_t s;
 240:c:\projects\paindrain\arduinolcd\test\pain drain\libraries\lvgl\src\misc\lv_color.h ****     uint8_t v;
 241:c:\projects\paindrain\arduinolcd\test\pain drain\libraries\lvgl\src\misc\lv_color.h **** } lv_color_hsv_t;
 242:c:\projects\paindrain\arduinolcd\test\pain drain\libraries\lvgl\src\misc\lv_color.h **** 
 243:c:\projects\paindrain\arduinolcd\test\pain drain\libraries\lvgl\src\misc\lv_color.h **** //! @cond Doxygen_Suppress
 244:c:\projects\paindrain\arduinolcd\test\pain drain\libraries\lvgl\src\misc\lv_color.h **** /*No idea where the guard is required but else throws warnings in the docs*/
 245:c:\projects\paindrain\arduinolcd\test\pain drain\libraries\lvgl\src\misc\lv_color.h **** typedef uint8_t lv_opa_t;
 246:c:\projects\paindrain\arduinolcd\test\pain drain\libraries\lvgl\src\misc\lv_color.h **** //! @endcond
 247:c:\projects\paindrain\arduinolcd\test\pain drain\libraries\lvgl\src\misc\lv_color.h **** 
 248:c:\projects\paindrain\arduinolcd\test\pain drain\libraries\lvgl\src\misc\lv_color.h **** struct _lv_color_filter_dsc_t;
 249:c:\projects\paindrain\arduinolcd\test\pain drain\libraries\lvgl\src\misc\lv_color.h **** 
 250:c:\projects\paindrain\arduinolcd\test\pain drain\libraries\lvgl\src\misc\lv_color.h **** typedef lv_color_t (*lv_color_filter_cb_t)(const struct _lv_color_filter_dsc_t *, lv_color_t, lv_op
 251:c:\projects\paindrain\arduinolcd\test\pain drain\libraries\lvgl\src\misc\lv_color.h **** 
 252:c:\projects\paindrain\arduinolcd\test\pain drain\libraries\lvgl\src\misc\lv_color.h **** typedef struct _lv_color_filter_dsc_t {
 253:c:\projects\paindrain\arduinolcd\test\pain drain\libraries\lvgl\src\misc\lv_color.h ****     lv_color_filter_cb_t filter_cb;
 254:c:\projects\paindrain\arduinolcd\test\pain drain\libraries\lvgl\src\misc\lv_color.h ****     void * user_data;
 255:c:\projects\paindrain\arduinolcd\test\pain drain\libraries\lvgl\src\misc\lv_color.h **** } lv_color_filter_dsc_t;
 256:c:\projects\paindrain\arduinolcd\test\pain drain\libraries\lvgl\src\misc\lv_color.h **** 
 257:c:\projects\paindrain\arduinolcd\test\pain drain\libraries\lvgl\src\misc\lv_color.h **** 
 258:c:\projects\paindrain\arduinolcd\test\pain drain\libraries\lvgl\src\misc\lv_color.h **** typedef enum {
 259:c:\projects\paindrain\arduinolcd\test\pain drain\libraries\lvgl\src\misc\lv_color.h ****     LV_PALETTE_RED,
 260:c:\projects\paindrain\arduinolcd\test\pain drain\libraries\lvgl\src\misc\lv_color.h ****     LV_PALETTE_PINK,
 261:c:\projects\paindrain\arduinolcd\test\pain drain\libraries\lvgl\src\misc\lv_color.h ****     LV_PALETTE_PURPLE,
 262:c:\projects\paindrain\arduinolcd\test\pain drain\libraries\lvgl\src\misc\lv_color.h ****     LV_PALETTE_DEEP_PURPLE,
 263:c:\projects\paindrain\arduinolcd\test\pain drain\libraries\lvgl\src\misc\lv_color.h ****     LV_PALETTE_INDIGO,
 264:c:\projects\paindrain\arduinolcd\test\pain drain\libraries\lvgl\src\misc\lv_color.h ****     LV_PALETTE_BLUE,
 265:c:\projects\paindrain\arduinolcd\test\pain drain\libraries\lvgl\src\misc\lv_color.h ****     LV_PALETTE_LIGHT_BLUE,
 266:c:\projects\paindrain\arduinolcd\test\pain drain\libraries\lvgl\src\misc\lv_color.h ****     LV_PALETTE_CYAN,
 267:c:\projects\paindrain\arduinolcd\test\pain drain\libraries\lvgl\src\misc\lv_color.h ****     LV_PALETTE_TEAL,
 268:c:\projects\paindrain\arduinolcd\test\pain drain\libraries\lvgl\src\misc\lv_color.h ****     LV_PALETTE_GREEN,
 269:c:\projects\paindrain\arduinolcd\test\pain drain\libraries\lvgl\src\misc\lv_color.h ****     LV_PALETTE_LIGHT_GREEN,
 270:c:\projects\paindrain\arduinolcd\test\pain drain\libraries\lvgl\src\misc\lv_color.h ****     LV_PALETTE_LIME,
 271:c:\projects\paindrain\arduinolcd\test\pain drain\libraries\lvgl\src\misc\lv_color.h ****     LV_PALETTE_YELLOW,
 272:c:\projects\paindrain\arduinolcd\test\pain drain\libraries\lvgl\src\misc\lv_color.h ****     LV_PALETTE_AMBER,
 273:c:\projects\paindrain\arduinolcd\test\pain drain\libraries\lvgl\src\misc\lv_color.h ****     LV_PALETTE_ORANGE,
 274:c:\projects\paindrain\arduinolcd\test\pain drain\libraries\lvgl\src\misc\lv_color.h ****     LV_PALETTE_DEEP_ORANGE,
 275:c:\projects\paindrain\arduinolcd\test\pain drain\libraries\lvgl\src\misc\lv_color.h ****     LV_PALETTE_BROWN,
ARM GAS  C:\Users\haske\AppData\Local\Temp\ccSAQWsX.s 			page 42


 276:c:\projects\paindrain\arduinolcd\test\pain drain\libraries\lvgl\src\misc\lv_color.h ****     LV_PALETTE_BLUE_GREY,
 277:c:\projects\paindrain\arduinolcd\test\pain drain\libraries\lvgl\src\misc\lv_color.h ****     LV_PALETTE_GREY,
 278:c:\projects\paindrain\arduinolcd\test\pain drain\libraries\lvgl\src\misc\lv_color.h ****     _LV_PALETTE_LAST,
 279:c:\projects\paindrain\arduinolcd\test\pain drain\libraries\lvgl\src\misc\lv_color.h ****     LV_PALETTE_NONE = 0xff,
 280:c:\projects\paindrain\arduinolcd\test\pain drain\libraries\lvgl\src\misc\lv_color.h **** } lv_palette_t;
 281:c:\projects\paindrain\arduinolcd\test\pain drain\libraries\lvgl\src\misc\lv_color.h **** 
 282:c:\projects\paindrain\arduinolcd\test\pain drain\libraries\lvgl\src\misc\lv_color.h **** /**********************
 283:c:\projects\paindrain\arduinolcd\test\pain drain\libraries\lvgl\src\misc\lv_color.h ****  * GLOBAL PROTOTYPES
 284:c:\projects\paindrain\arduinolcd\test\pain drain\libraries\lvgl\src\misc\lv_color.h ****  **********************/
 285:c:\projects\paindrain\arduinolcd\test\pain drain\libraries\lvgl\src\misc\lv_color.h **** 
 286:c:\projects\paindrain\arduinolcd\test\pain drain\libraries\lvgl\src\misc\lv_color.h **** /*In color conversations:
 287:c:\projects\paindrain\arduinolcd\test\pain drain\libraries\lvgl\src\misc\lv_color.h ****  * - When converting to bigger color type the LSB weight of 1 LSB is calculated
 288:c:\projects\paindrain\arduinolcd\test\pain drain\libraries\lvgl\src\misc\lv_color.h ****  *   E.g. 16 bit Red has 5 bits
 289:c:\projects\paindrain\arduinolcd\test\pain drain\libraries\lvgl\src\misc\lv_color.h ****  *         8 bit Red has 3 bits
 290:c:\projects\paindrain\arduinolcd\test\pain drain\libraries\lvgl\src\misc\lv_color.h ****  *        ----------------------
 291:c:\projects\paindrain\arduinolcd\test\pain drain\libraries\lvgl\src\misc\lv_color.h ****  *        8 bit red LSB = (2^5 - 1) / (2^3 - 1) = 31 / 7 = 4
 292:c:\projects\paindrain\arduinolcd\test\pain drain\libraries\lvgl\src\misc\lv_color.h ****  *
 293:c:\projects\paindrain\arduinolcd\test\pain drain\libraries\lvgl\src\misc\lv_color.h ****  * - When calculating to smaller color type simply shift out the LSBs
 294:c:\projects\paindrain\arduinolcd\test\pain drain\libraries\lvgl\src\misc\lv_color.h ****  *   E.g.  8 bit Red has 3 bits
 295:c:\projects\paindrain\arduinolcd\test\pain drain\libraries\lvgl\src\misc\lv_color.h ****  *        16 bit Red has 5 bits
 296:c:\projects\paindrain\arduinolcd\test\pain drain\libraries\lvgl\src\misc\lv_color.h ****  *        ----------------------
 297:c:\projects\paindrain\arduinolcd\test\pain drain\libraries\lvgl\src\misc\lv_color.h ****  *         Shift right with 5 - 3 = 2
 298:c:\projects\paindrain\arduinolcd\test\pain drain\libraries\lvgl\src\misc\lv_color.h ****  */
 299:c:\projects\paindrain\arduinolcd\test\pain drain\libraries\lvgl\src\misc\lv_color.h **** static inline uint8_t lv_color_to1(lv_color_t color)
 300:c:\projects\paindrain\arduinolcd\test\pain drain\libraries\lvgl\src\misc\lv_color.h **** {
 301:c:\projects\paindrain\arduinolcd\test\pain drain\libraries\lvgl\src\misc\lv_color.h **** #if LV_COLOR_DEPTH == 1
 302:c:\projects\paindrain\arduinolcd\test\pain drain\libraries\lvgl\src\misc\lv_color.h ****     return color.full;
 303:c:\projects\paindrain\arduinolcd\test\pain drain\libraries\lvgl\src\misc\lv_color.h **** #elif LV_COLOR_DEPTH == 8
 304:c:\projects\paindrain\arduinolcd\test\pain drain\libraries\lvgl\src\misc\lv_color.h ****     if((LV_COLOR_GET_R(color) & 0x4) || (LV_COLOR_GET_G(color) & 0x4) || (LV_COLOR_GET_B(color) & 0
 305:c:\projects\paindrain\arduinolcd\test\pain drain\libraries\lvgl\src\misc\lv_color.h ****         return 1;
 306:c:\projects\paindrain\arduinolcd\test\pain drain\libraries\lvgl\src\misc\lv_color.h ****     }
 307:c:\projects\paindrain\arduinolcd\test\pain drain\libraries\lvgl\src\misc\lv_color.h ****     else {
 308:c:\projects\paindrain\arduinolcd\test\pain drain\libraries\lvgl\src\misc\lv_color.h ****         return 0;
 309:c:\projects\paindrain\arduinolcd\test\pain drain\libraries\lvgl\src\misc\lv_color.h ****     }
 310:c:\projects\paindrain\arduinolcd\test\pain drain\libraries\lvgl\src\misc\lv_color.h **** #elif LV_COLOR_DEPTH == 16
 311:c:\projects\paindrain\arduinolcd\test\pain drain\libraries\lvgl\src\misc\lv_color.h ****     if((LV_COLOR_GET_R(color) & 0x10) || (LV_COLOR_GET_G(color) & 0x20) || (LV_COLOR_GET_B(color) &
 312:c:\projects\paindrain\arduinolcd\test\pain drain\libraries\lvgl\src\misc\lv_color.h ****         return 1;
 313:c:\projects\paindrain\arduinolcd\test\pain drain\libraries\lvgl\src\misc\lv_color.h ****     }
 314:c:\projects\paindrain\arduinolcd\test\pain drain\libraries\lvgl\src\misc\lv_color.h ****     else {
 315:c:\projects\paindrain\arduinolcd\test\pain drain\libraries\lvgl\src\misc\lv_color.h ****         return 0;
 316:c:\projects\paindrain\arduinolcd\test\pain drain\libraries\lvgl\src\misc\lv_color.h ****     }
 317:c:\projects\paindrain\arduinolcd\test\pain drain\libraries\lvgl\src\misc\lv_color.h **** #elif LV_COLOR_DEPTH == 32
 318:c:\projects\paindrain\arduinolcd\test\pain drain\libraries\lvgl\src\misc\lv_color.h ****     if((LV_COLOR_GET_R(color) & 0x80) || (LV_COLOR_GET_G(color) & 0x80) || (LV_COLOR_GET_B(color) &
 319:c:\projects\paindrain\arduinolcd\test\pain drain\libraries\lvgl\src\misc\lv_color.h ****         return 1;
 320:c:\projects\paindrain\arduinolcd\test\pain drain\libraries\lvgl\src\misc\lv_color.h ****     }
 321:c:\projects\paindrain\arduinolcd\test\pain drain\libraries\lvgl\src\misc\lv_color.h ****     else {
 322:c:\projects\paindrain\arduinolcd\test\pain drain\libraries\lvgl\src\misc\lv_color.h ****         return 0;
 323:c:\projects\paindrain\arduinolcd\test\pain drain\libraries\lvgl\src\misc\lv_color.h ****     }
 324:c:\projects\paindrain\arduinolcd\test\pain drain\libraries\lvgl\src\misc\lv_color.h **** #endif
 325:c:\projects\paindrain\arduinolcd\test\pain drain\libraries\lvgl\src\misc\lv_color.h **** }
 326:c:\projects\paindrain\arduinolcd\test\pain drain\libraries\lvgl\src\misc\lv_color.h **** 
 327:c:\projects\paindrain\arduinolcd\test\pain drain\libraries\lvgl\src\misc\lv_color.h **** static inline uint8_t lv_color_to8(lv_color_t color)
 328:c:\projects\paindrain\arduinolcd\test\pain drain\libraries\lvgl\src\misc\lv_color.h **** {
 329:c:\projects\paindrain\arduinolcd\test\pain drain\libraries\lvgl\src\misc\lv_color.h **** #if LV_COLOR_DEPTH == 1
 330:c:\projects\paindrain\arduinolcd\test\pain drain\libraries\lvgl\src\misc\lv_color.h ****     if(color.full == 0)
 331:c:\projects\paindrain\arduinolcd\test\pain drain\libraries\lvgl\src\misc\lv_color.h ****         return 0;
 332:c:\projects\paindrain\arduinolcd\test\pain drain\libraries\lvgl\src\misc\lv_color.h ****     else
ARM GAS  C:\Users\haske\AppData\Local\Temp\ccSAQWsX.s 			page 43


 333:c:\projects\paindrain\arduinolcd\test\pain drain\libraries\lvgl\src\misc\lv_color.h ****         return 0xFF;
 334:c:\projects\paindrain\arduinolcd\test\pain drain\libraries\lvgl\src\misc\lv_color.h **** #elif LV_COLOR_DEPTH == 8
 335:c:\projects\paindrain\arduinolcd\test\pain drain\libraries\lvgl\src\misc\lv_color.h ****     return color.full;
 336:c:\projects\paindrain\arduinolcd\test\pain drain\libraries\lvgl\src\misc\lv_color.h **** #elif LV_COLOR_DEPTH == 16
 337:c:\projects\paindrain\arduinolcd\test\pain drain\libraries\lvgl\src\misc\lv_color.h ****     lv_color8_t ret;
 338:c:\projects\paindrain\arduinolcd\test\pain drain\libraries\lvgl\src\misc\lv_color.h ****     LV_COLOR_SET_R8(ret, LV_COLOR_GET_R(color) >> 2); /*5 - 3  = 2*/
 339:c:\projects\paindrain\arduinolcd\test\pain drain\libraries\lvgl\src\misc\lv_color.h ****     LV_COLOR_SET_G8(ret, LV_COLOR_GET_G(color) >> 3); /*6 - 3  = 3*/
 340:c:\projects\paindrain\arduinolcd\test\pain drain\libraries\lvgl\src\misc\lv_color.h ****     LV_COLOR_SET_B8(ret, LV_COLOR_GET_B(color) >> 3); /*5 - 2  = 3*/
 341:c:\projects\paindrain\arduinolcd\test\pain drain\libraries\lvgl\src\misc\lv_color.h ****     return ret.full;
 342:c:\projects\paindrain\arduinolcd\test\pain drain\libraries\lvgl\src\misc\lv_color.h **** #elif LV_COLOR_DEPTH == 32
 343:c:\projects\paindrain\arduinolcd\test\pain drain\libraries\lvgl\src\misc\lv_color.h ****     lv_color8_t ret;
 344:c:\projects\paindrain\arduinolcd\test\pain drain\libraries\lvgl\src\misc\lv_color.h ****     LV_COLOR_SET_R8(ret, LV_COLOR_GET_R(color) >> 5); /*8 - 3  = 5*/
 345:c:\projects\paindrain\arduinolcd\test\pain drain\libraries\lvgl\src\misc\lv_color.h ****     LV_COLOR_SET_G8(ret, LV_COLOR_GET_G(color) >> 5); /*8 - 3  = 5*/
 346:c:\projects\paindrain\arduinolcd\test\pain drain\libraries\lvgl\src\misc\lv_color.h ****     LV_COLOR_SET_B8(ret, LV_COLOR_GET_B(color) >> 6); /*8 - 2  = 6*/
 347:c:\projects\paindrain\arduinolcd\test\pain drain\libraries\lvgl\src\misc\lv_color.h ****     return ret.full;
 348:c:\projects\paindrain\arduinolcd\test\pain drain\libraries\lvgl\src\misc\lv_color.h **** #endif
 349:c:\projects\paindrain\arduinolcd\test\pain drain\libraries\lvgl\src\misc\lv_color.h **** }
 350:c:\projects\paindrain\arduinolcd\test\pain drain\libraries\lvgl\src\misc\lv_color.h **** 
 351:c:\projects\paindrain\arduinolcd\test\pain drain\libraries\lvgl\src\misc\lv_color.h **** static inline uint16_t lv_color_to16(lv_color_t color)
 352:c:\projects\paindrain\arduinolcd\test\pain drain\libraries\lvgl\src\misc\lv_color.h **** {
 353:c:\projects\paindrain\arduinolcd\test\pain drain\libraries\lvgl\src\misc\lv_color.h **** #if LV_COLOR_DEPTH == 1
 354:c:\projects\paindrain\arduinolcd\test\pain drain\libraries\lvgl\src\misc\lv_color.h ****     if(color.full == 0)
 355:c:\projects\paindrain\arduinolcd\test\pain drain\libraries\lvgl\src\misc\lv_color.h ****         return 0;
 356:c:\projects\paindrain\arduinolcd\test\pain drain\libraries\lvgl\src\misc\lv_color.h ****     else
 357:c:\projects\paindrain\arduinolcd\test\pain drain\libraries\lvgl\src\misc\lv_color.h ****         return 0xFFFF;
 358:c:\projects\paindrain\arduinolcd\test\pain drain\libraries\lvgl\src\misc\lv_color.h **** #elif LV_COLOR_DEPTH == 8
 359:c:\projects\paindrain\arduinolcd\test\pain drain\libraries\lvgl\src\misc\lv_color.h ****     lv_color16_t ret;
 360:c:\projects\paindrain\arduinolcd\test\pain drain\libraries\lvgl\src\misc\lv_color.h ****     LV_COLOR_SET_R16(ret, LV_COLOR_GET_R(color) * 4);  /*(2^5 - 1)/(2^3 - 1) = 31/7 = 4*/
 361:c:\projects\paindrain\arduinolcd\test\pain drain\libraries\lvgl\src\misc\lv_color.h ****     LV_COLOR_SET_G16(ret, LV_COLOR_GET_G(color) * 9);  /*(2^6 - 1)/(2^3 - 1) = 63/7 = 9*/
 362:c:\projects\paindrain\arduinolcd\test\pain drain\libraries\lvgl\src\misc\lv_color.h ****     LV_COLOR_SET_B16(ret, LV_COLOR_GET_B(color) * 10); /*(2^5 - 1)/(2^2 - 1) = 31/3 = 10*/
 363:c:\projects\paindrain\arduinolcd\test\pain drain\libraries\lvgl\src\misc\lv_color.h ****     return ret.full;
 364:c:\projects\paindrain\arduinolcd\test\pain drain\libraries\lvgl\src\misc\lv_color.h **** #elif LV_COLOR_DEPTH == 16
 365:c:\projects\paindrain\arduinolcd\test\pain drain\libraries\lvgl\src\misc\lv_color.h ****     return color.full;
 366:c:\projects\paindrain\arduinolcd\test\pain drain\libraries\lvgl\src\misc\lv_color.h **** #elif LV_COLOR_DEPTH == 32
 367:c:\projects\paindrain\arduinolcd\test\pain drain\libraries\lvgl\src\misc\lv_color.h ****     lv_color16_t ret;
 368:c:\projects\paindrain\arduinolcd\test\pain drain\libraries\lvgl\src\misc\lv_color.h ****     LV_COLOR_SET_R16(ret, LV_COLOR_GET_R(color) >> 3); /*8 - 5  = 3*/
 369:c:\projects\paindrain\arduinolcd\test\pain drain\libraries\lvgl\src\misc\lv_color.h ****     LV_COLOR_SET_G16(ret, LV_COLOR_GET_G(color) >> 2); /*8 - 6  = 2*/
 370:c:\projects\paindrain\arduinolcd\test\pain drain\libraries\lvgl\src\misc\lv_color.h ****     LV_COLOR_SET_B16(ret, LV_COLOR_GET_B(color) >> 3); /*8 - 5  = 3*/
 371:c:\projects\paindrain\arduinolcd\test\pain drain\libraries\lvgl\src\misc\lv_color.h ****     return ret.full;
 372:c:\projects\paindrain\arduinolcd\test\pain drain\libraries\lvgl\src\misc\lv_color.h **** #endif
 373:c:\projects\paindrain\arduinolcd\test\pain drain\libraries\lvgl\src\misc\lv_color.h **** }
 374:c:\projects\paindrain\arduinolcd\test\pain drain\libraries\lvgl\src\misc\lv_color.h **** 
 375:c:\projects\paindrain\arduinolcd\test\pain drain\libraries\lvgl\src\misc\lv_color.h **** static inline uint32_t lv_color_to32(lv_color_t color)
 376:c:\projects\paindrain\arduinolcd\test\pain drain\libraries\lvgl\src\misc\lv_color.h **** {
 377:c:\projects\paindrain\arduinolcd\test\pain drain\libraries\lvgl\src\misc\lv_color.h **** #if LV_COLOR_DEPTH == 1
 378:c:\projects\paindrain\arduinolcd\test\pain drain\libraries\lvgl\src\misc\lv_color.h ****     if(color.full == 0)
 379:c:\projects\paindrain\arduinolcd\test\pain drain\libraries\lvgl\src\misc\lv_color.h ****         return 0xFF000000;
 380:c:\projects\paindrain\arduinolcd\test\pain drain\libraries\lvgl\src\misc\lv_color.h ****     else
 381:c:\projects\paindrain\arduinolcd\test\pain drain\libraries\lvgl\src\misc\lv_color.h ****         return 0xFFFFFFFF;
 382:c:\projects\paindrain\arduinolcd\test\pain drain\libraries\lvgl\src\misc\lv_color.h **** #elif LV_COLOR_DEPTH == 8
 383:c:\projects\paindrain\arduinolcd\test\pain drain\libraries\lvgl\src\misc\lv_color.h ****     lv_color32_t ret;
 384:c:\projects\paindrain\arduinolcd\test\pain drain\libraries\lvgl\src\misc\lv_color.h ****     LV_COLOR_SET_R32(ret, LV_COLOR_GET_R(color) * 36); /*(2^8 - 1)/(2^3 - 1) = 255/7 = 36*/
 385:c:\projects\paindrain\arduinolcd\test\pain drain\libraries\lvgl\src\misc\lv_color.h ****     LV_COLOR_SET_G32(ret, LV_COLOR_GET_G(color) * 36); /*(2^8 - 1)/(2^3 - 1) = 255/7 = 36*/
 386:c:\projects\paindrain\arduinolcd\test\pain drain\libraries\lvgl\src\misc\lv_color.h ****     LV_COLOR_SET_B32(ret, LV_COLOR_GET_B(color) * 85); /*(2^8 - 1)/(2^2 - 1) = 255/3 = 85*/
 387:c:\projects\paindrain\arduinolcd\test\pain drain\libraries\lvgl\src\misc\lv_color.h ****     LV_COLOR_SET_A32(ret, 0xFF);
 388:c:\projects\paindrain\arduinolcd\test\pain drain\libraries\lvgl\src\misc\lv_color.h ****     return ret.full;
 389:c:\projects\paindrain\arduinolcd\test\pain drain\libraries\lvgl\src\misc\lv_color.h **** #elif LV_COLOR_DEPTH == 16
ARM GAS  C:\Users\haske\AppData\Local\Temp\ccSAQWsX.s 			page 44


 390:c:\projects\paindrain\arduinolcd\test\pain drain\libraries\lvgl\src\misc\lv_color.h ****     /**
 391:c:\projects\paindrain\arduinolcd\test\pain drain\libraries\lvgl\src\misc\lv_color.h ****      * The floating point math for conversion is:
 392:c:\projects\paindrain\arduinolcd\test\pain drain\libraries\lvgl\src\misc\lv_color.h ****      *  valueto = valuefrom * ( (2^bitsto - 1) / (float)(2^bitsfrom - 1) )
 393:c:\projects\paindrain\arduinolcd\test\pain drain\libraries\lvgl\src\misc\lv_color.h ****      * The faster integer math for conversion is:
 394:c:\projects\paindrain\arduinolcd\test\pain drain\libraries\lvgl\src\misc\lv_color.h ****      *  valueto = ( valuefrom * multiplier + adder ) >> divisor
 395:c:\projects\paindrain\arduinolcd\test\pain drain\libraries\lvgl\src\misc\lv_color.h ****      *   multiplier = FLOOR( ( (2^bitsto - 1) << divisor ) / (float)(2^bitsfrom - 1) )
 396:c:\projects\paindrain\arduinolcd\test\pain drain\libraries\lvgl\src\misc\lv_color.h ****      *
 397:c:\projects\paindrain\arduinolcd\test\pain drain\libraries\lvgl\src\misc\lv_color.h ****      * Find the first divisor where ( adder >> divisor ) <= 0
 398:c:\projects\paindrain\arduinolcd\test\pain drain\libraries\lvgl\src\misc\lv_color.h ****      *
 399:c:\projects\paindrain\arduinolcd\test\pain drain\libraries\lvgl\src\misc\lv_color.h ****      * 5-bit to 8-bit: ( 31 * multiplier + adder ) >> divisor = 255
 400:c:\projects\paindrain\arduinolcd\test\pain drain\libraries\lvgl\src\misc\lv_color.h ****      * divisor  multiplier  adder  min (0)  max (31)
 401:c:\projects\paindrain\arduinolcd\test\pain drain\libraries\lvgl\src\misc\lv_color.h ****      *       0           8      7        7       255
 402:c:\projects\paindrain\arduinolcd\test\pain drain\libraries\lvgl\src\misc\lv_color.h ****      *       1          16     14        7       255
 403:c:\projects\paindrain\arduinolcd\test\pain drain\libraries\lvgl\src\misc\lv_color.h ****      *       2          32     28        7       255
 404:c:\projects\paindrain\arduinolcd\test\pain drain\libraries\lvgl\src\misc\lv_color.h ****      *       3          65     25        3       255
 405:c:\projects\paindrain\arduinolcd\test\pain drain\libraries\lvgl\src\misc\lv_color.h ****      *       4         131     19        1       255
 406:c:\projects\paindrain\arduinolcd\test\pain drain\libraries\lvgl\src\misc\lv_color.h ****      *       5         263      7        0       255
 407:c:\projects\paindrain\arduinolcd\test\pain drain\libraries\lvgl\src\misc\lv_color.h ****      *
 408:c:\projects\paindrain\arduinolcd\test\pain drain\libraries\lvgl\src\misc\lv_color.h ****      * 6-bit to 8-bit: 255 = ( 63 * multiplier + adder ) >> divisor
 409:c:\projects\paindrain\arduinolcd\test\pain drain\libraries\lvgl\src\misc\lv_color.h ****      * divisor  multiplier  adder  min (0)  max (63)
 410:c:\projects\paindrain\arduinolcd\test\pain drain\libraries\lvgl\src\misc\lv_color.h ****      *       0           4      3        3       255
 411:c:\projects\paindrain\arduinolcd\test\pain drain\libraries\lvgl\src\misc\lv_color.h ****      *       1           8      6        3       255
 412:c:\projects\paindrain\arduinolcd\test\pain drain\libraries\lvgl\src\misc\lv_color.h ****      *       2          16     12        3       255
 413:c:\projects\paindrain\arduinolcd\test\pain drain\libraries\lvgl\src\misc\lv_color.h ****      *       3          32     24        3       255
 414:c:\projects\paindrain\arduinolcd\test\pain drain\libraries\lvgl\src\misc\lv_color.h ****      *       4          64     48        3       255
 415:c:\projects\paindrain\arduinolcd\test\pain drain\libraries\lvgl\src\misc\lv_color.h ****      *       5         129     33        1       255
 416:c:\projects\paindrain\arduinolcd\test\pain drain\libraries\lvgl\src\misc\lv_color.h ****      *       6         259      3        0       255
 417:c:\projects\paindrain\arduinolcd\test\pain drain\libraries\lvgl\src\misc\lv_color.h ****      */
 418:c:\projects\paindrain\arduinolcd\test\pain drain\libraries\lvgl\src\misc\lv_color.h **** 
 419:c:\projects\paindrain\arduinolcd\test\pain drain\libraries\lvgl\src\misc\lv_color.h ****     lv_color32_t ret;
 420:c:\projects\paindrain\arduinolcd\test\pain drain\libraries\lvgl\src\misc\lv_color.h ****     LV_COLOR_SET_R32(ret, (LV_COLOR_GET_R(color) * 263 + 7) >> 5);
 421:c:\projects\paindrain\arduinolcd\test\pain drain\libraries\lvgl\src\misc\lv_color.h ****     LV_COLOR_SET_G32(ret, (LV_COLOR_GET_G(color) * 259 + 3) >> 6);
 422:c:\projects\paindrain\arduinolcd\test\pain drain\libraries\lvgl\src\misc\lv_color.h ****     LV_COLOR_SET_B32(ret, (LV_COLOR_GET_B(color) * 263 + 7) >> 5);
 423:c:\projects\paindrain\arduinolcd\test\pain drain\libraries\lvgl\src\misc\lv_color.h ****     LV_COLOR_SET_A32(ret, 0xFF);
 424:c:\projects\paindrain\arduinolcd\test\pain drain\libraries\lvgl\src\misc\lv_color.h ****     return ret.full;
 425:c:\projects\paindrain\arduinolcd\test\pain drain\libraries\lvgl\src\misc\lv_color.h **** #elif LV_COLOR_DEPTH == 32
 426:c:\projects\paindrain\arduinolcd\test\pain drain\libraries\lvgl\src\misc\lv_color.h ****     return color.full;
 427:c:\projects\paindrain\arduinolcd\test\pain drain\libraries\lvgl\src\misc\lv_color.h **** #endif
 428:c:\projects\paindrain\arduinolcd\test\pain drain\libraries\lvgl\src\misc\lv_color.h **** }
 429:c:\projects\paindrain\arduinolcd\test\pain drain\libraries\lvgl\src\misc\lv_color.h **** 
 430:c:\projects\paindrain\arduinolcd\test\pain drain\libraries\lvgl\src\misc\lv_color.h **** //! @cond Doxygen_Suppress
 431:c:\projects\paindrain\arduinolcd\test\pain drain\libraries\lvgl\src\misc\lv_color.h **** 
 432:c:\projects\paindrain\arduinolcd\test\pain drain\libraries\lvgl\src\misc\lv_color.h **** /**
 433:c:\projects\paindrain\arduinolcd\test\pain drain\libraries\lvgl\src\misc\lv_color.h ****  * Mix two colors with a given ratio.
 434:c:\projects\paindrain\arduinolcd\test\pain drain\libraries\lvgl\src\misc\lv_color.h ****  * @param c1 the first color to mix (usually the foreground)
 435:c:\projects\paindrain\arduinolcd\test\pain drain\libraries\lvgl\src\misc\lv_color.h ****  * @param c2 the second color to mix (usually the background)
 436:c:\projects\paindrain\arduinolcd\test\pain drain\libraries\lvgl\src\misc\lv_color.h ****  * @param mix The ratio of the colors. 0: full `c2`, 255: full `c1`, 127: half `c1` and half`c2`
 437:c:\projects\paindrain\arduinolcd\test\pain drain\libraries\lvgl\src\misc\lv_color.h ****  * @return the mixed color
 438:c:\projects\paindrain\arduinolcd\test\pain drain\libraries\lvgl\src\misc\lv_color.h ****  */
 439:c:\projects\paindrain\arduinolcd\test\pain drain\libraries\lvgl\src\misc\lv_color.h **** LV_ATTRIBUTE_FAST_MEM static inline lv_color_t lv_color_mix(lv_color_t c1, lv_color_t c2, uint8_t m
 440:c:\projects\paindrain\arduinolcd\test\pain drain\libraries\lvgl\src\misc\lv_color.h **** {
 441:c:\projects\paindrain\arduinolcd\test\pain drain\libraries\lvgl\src\misc\lv_color.h ****     lv_color_t ret;
 442:c:\projects\paindrain\arduinolcd\test\pain drain\libraries\lvgl\src\misc\lv_color.h **** 
 443:c:\projects\paindrain\arduinolcd\test\pain drain\libraries\lvgl\src\misc\lv_color.h **** #if LV_COLOR_DEPTH == 16 && LV_COLOR_16_SWAP == 0 && LV_COLOR_MIX_ROUND_OFS == 0
 444:c:\projects\paindrain\arduinolcd\test\pain drain\libraries\lvgl\src\misc\lv_color.h ****     /*Source: https://stackoverflow.com/a/50012418/1999969*/
 445:c:\projects\paindrain\arduinolcd\test\pain drain\libraries\lvgl\src\misc\lv_color.h ****     mix = (uint32_t)((uint32_t)mix + 4) >> 3;
 446:c:\projects\paindrain\arduinolcd\test\pain drain\libraries\lvgl\src\misc\lv_color.h ****     uint32_t bg = (uint32_t)((uint32_t)c2.full | ((uint32_t)c2.full << 16)) &
ARM GAS  C:\Users\haske\AppData\Local\Temp\ccSAQWsX.s 			page 45


 447:c:\projects\paindrain\arduinolcd\test\pain drain\libraries\lvgl\src\misc\lv_color.h ****                   0x7E0F81F; /*0b00000111111000001111100000011111*/
 448:c:\projects\paindrain\arduinolcd\test\pain drain\libraries\lvgl\src\misc\lv_color.h ****     uint32_t fg = (uint32_t)((uint32_t)c1.full | ((uint32_t)c1.full << 16)) & 0x7E0F81F;
 449:c:\projects\paindrain\arduinolcd\test\pain drain\libraries\lvgl\src\misc\lv_color.h ****     uint32_t result = ((((fg - bg) * mix) >> 5) + bg) & 0x7E0F81F;
 450:c:\projects\paindrain\arduinolcd\test\pain drain\libraries\lvgl\src\misc\lv_color.h ****     ret.full = (uint16_t)((result >> 16) | result);
 451:c:\projects\paindrain\arduinolcd\test\pain drain\libraries\lvgl\src\misc\lv_color.h **** #elif LV_COLOR_DEPTH != 1
 452:c:\projects\paindrain\arduinolcd\test\pain drain\libraries\lvgl\src\misc\lv_color.h ****     /*LV_COLOR_DEPTH == 8, 16 or 32*/
 453:c:\projects\paindrain\arduinolcd\test\pain drain\libraries\lvgl\src\misc\lv_color.h ****     LV_COLOR_SET_R(ret, LV_UDIV255((uint16_t)LV_COLOR_GET_R(c1) * mix + LV_COLOR_GET_R(c2) *
 454:c:\projects\paindrain\arduinolcd\test\pain drain\libraries\lvgl\src\misc\lv_color.h ****                                    (255 - mix) + LV_COLOR_MIX_ROUND_OFS));
 455:c:\projects\paindrain\arduinolcd\test\pain drain\libraries\lvgl\src\misc\lv_color.h ****     LV_COLOR_SET_G(ret, LV_UDIV255((uint16_t)LV_COLOR_GET_G(c1) * mix + LV_COLOR_GET_G(c2) *
 456:c:\projects\paindrain\arduinolcd\test\pain drain\libraries\lvgl\src\misc\lv_color.h ****                                    (255 - mix) + LV_COLOR_MIX_ROUND_OFS));
 457:c:\projects\paindrain\arduinolcd\test\pain drain\libraries\lvgl\src\misc\lv_color.h ****     LV_COLOR_SET_B(ret, LV_UDIV255((uint16_t)LV_COLOR_GET_B(c1) * mix + LV_COLOR_GET_B(c2) *
 458:c:\projects\paindrain\arduinolcd\test\pain drain\libraries\lvgl\src\misc\lv_color.h ****                                    (255 - mix) + LV_COLOR_MIX_ROUND_OFS));
 459:c:\projects\paindrain\arduinolcd\test\pain drain\libraries\lvgl\src\misc\lv_color.h ****     LV_COLOR_SET_A(ret, 0xFF);
 460:c:\projects\paindrain\arduinolcd\test\pain drain\libraries\lvgl\src\misc\lv_color.h **** #else
 461:c:\projects\paindrain\arduinolcd\test\pain drain\libraries\lvgl\src\misc\lv_color.h ****     /*LV_COLOR_DEPTH == 1*/
 462:c:\projects\paindrain\arduinolcd\test\pain drain\libraries\lvgl\src\misc\lv_color.h ****     ret.full = mix > LV_OPA_50 ? c1.full : c2.full;
 463:c:\projects\paindrain\arduinolcd\test\pain drain\libraries\lvgl\src\misc\lv_color.h **** #endif
 464:c:\projects\paindrain\arduinolcd\test\pain drain\libraries\lvgl\src\misc\lv_color.h **** 
 465:c:\projects\paindrain\arduinolcd\test\pain drain\libraries\lvgl\src\misc\lv_color.h ****     return ret;
 466:c:\projects\paindrain\arduinolcd\test\pain drain\libraries\lvgl\src\misc\lv_color.h **** }
 467:c:\projects\paindrain\arduinolcd\test\pain drain\libraries\lvgl\src\misc\lv_color.h **** 
 468:c:\projects\paindrain\arduinolcd\test\pain drain\libraries\lvgl\src\misc\lv_color.h **** LV_ATTRIBUTE_FAST_MEM static inline void lv_color_premult(lv_color_t c, uint8_t mix, uint16_t * out
 469:c:\projects\paindrain\arduinolcd\test\pain drain\libraries\lvgl\src\misc\lv_color.h **** {
 470:c:\projects\paindrain\arduinolcd\test\pain drain\libraries\lvgl\src\misc\lv_color.h **** #if LV_COLOR_DEPTH != 1
 471:c:\projects\paindrain\arduinolcd\test\pain drain\libraries\lvgl\src\misc\lv_color.h ****     out[0] = (uint16_t)LV_COLOR_GET_R(c) * mix;
 472:c:\projects\paindrain\arduinolcd\test\pain drain\libraries\lvgl\src\misc\lv_color.h ****     out[1] = (uint16_t)LV_COLOR_GET_G(c) * mix;
 473:c:\projects\paindrain\arduinolcd\test\pain drain\libraries\lvgl\src\misc\lv_color.h ****     out[2] = (uint16_t)LV_COLOR_GET_B(c) * mix;
 474:c:\projects\paindrain\arduinolcd\test\pain drain\libraries\lvgl\src\misc\lv_color.h **** #else
 475:c:\projects\paindrain\arduinolcd\test\pain drain\libraries\lvgl\src\misc\lv_color.h ****     (void) mix;
 476:c:\projects\paindrain\arduinolcd\test\pain drain\libraries\lvgl\src\misc\lv_color.h ****     /*Pre-multiplication can't be used with 1 bpp*/
 477:c:\projects\paindrain\arduinolcd\test\pain drain\libraries\lvgl\src\misc\lv_color.h ****     out[0] = LV_COLOR_GET_R(c);
 478:c:\projects\paindrain\arduinolcd\test\pain drain\libraries\lvgl\src\misc\lv_color.h ****     out[1] = LV_COLOR_GET_G(c);
 479:c:\projects\paindrain\arduinolcd\test\pain drain\libraries\lvgl\src\misc\lv_color.h ****     out[2] = LV_COLOR_GET_B(c);
 480:c:\projects\paindrain\arduinolcd\test\pain drain\libraries\lvgl\src\misc\lv_color.h **** #endif
 481:c:\projects\paindrain\arduinolcd\test\pain drain\libraries\lvgl\src\misc\lv_color.h **** 
 482:c:\projects\paindrain\arduinolcd\test\pain drain\libraries\lvgl\src\misc\lv_color.h **** }
 483:c:\projects\paindrain\arduinolcd\test\pain drain\libraries\lvgl\src\misc\lv_color.h **** 
 484:c:\projects\paindrain\arduinolcd\test\pain drain\libraries\lvgl\src\misc\lv_color.h **** /**
 485:c:\projects\paindrain\arduinolcd\test\pain drain\libraries\lvgl\src\misc\lv_color.h ****  * Mix two colors with a given ratio. It runs faster then `lv_color_mix` but requires some pre comp
 486:c:\projects\paindrain\arduinolcd\test\pain drain\libraries\lvgl\src\misc\lv_color.h ****  * @param premult_c1 The first color. Should be preprocessed with `lv_color_premult(c1)`
 487:c:\projects\paindrain\arduinolcd\test\pain drain\libraries\lvgl\src\misc\lv_color.h ****  * @param c2 The second color. As it is no pre computation required on it
 488:c:\projects\paindrain\arduinolcd\test\pain drain\libraries\lvgl\src\misc\lv_color.h ****  * @param mix The ratio of the colors. 0: full `c1`, 255: full `c2`, 127: half `c1` and half `c2`.
 489:c:\projects\paindrain\arduinolcd\test\pain drain\libraries\lvgl\src\misc\lv_color.h ****  *            Should be modified like mix = `255 - mix`
 490:c:\projects\paindrain\arduinolcd\test\pain drain\libraries\lvgl\src\misc\lv_color.h ****  * @return the mixed color
 491:c:\projects\paindrain\arduinolcd\test\pain drain\libraries\lvgl\src\misc\lv_color.h ****  * @note 255 won't give clearly `c1`.
 492:c:\projects\paindrain\arduinolcd\test\pain drain\libraries\lvgl\src\misc\lv_color.h ****  */
 493:c:\projects\paindrain\arduinolcd\test\pain drain\libraries\lvgl\src\misc\lv_color.h **** LV_ATTRIBUTE_FAST_MEM static inline lv_color_t lv_color_mix_premult(uint16_t * premult_c1, lv_color
 494:c:\projects\paindrain\arduinolcd\test\pain drain\libraries\lvgl\src\misc\lv_color.h **** {
 495:c:\projects\paindrain\arduinolcd\test\pain drain\libraries\lvgl\src\misc\lv_color.h ****     lv_color_t ret;
 496:c:\projects\paindrain\arduinolcd\test\pain drain\libraries\lvgl\src\misc\lv_color.h **** #if LV_COLOR_DEPTH != 1
 497:c:\projects\paindrain\arduinolcd\test\pain drain\libraries\lvgl\src\misc\lv_color.h ****     /*LV_COLOR_DEPTH == 8 or 32*/
 498:c:\projects\paindrain\arduinolcd\test\pain drain\libraries\lvgl\src\misc\lv_color.h ****     LV_COLOR_SET_R(ret, LV_UDIV255(premult_c1[0] + LV_COLOR_GET_R(c2) * mix + LV_COLOR_MIX_ROUND_OF
 499:c:\projects\paindrain\arduinolcd\test\pain drain\libraries\lvgl\src\misc\lv_color.h ****     LV_COLOR_SET_G(ret, LV_UDIV255(premult_c1[1] + LV_COLOR_GET_G(c2) * mix + LV_COLOR_MIX_ROUND_OF
 500:c:\projects\paindrain\arduinolcd\test\pain drain\libraries\lvgl\src\misc\lv_color.h ****     LV_COLOR_SET_B(ret, LV_UDIV255(premult_c1[2] + LV_COLOR_GET_B(c2) * mix + LV_COLOR_MIX_ROUND_OF
 501:c:\projects\paindrain\arduinolcd\test\pain drain\libraries\lvgl\src\misc\lv_color.h ****     LV_COLOR_SET_A(ret, 0xFF);
 502:c:\projects\paindrain\arduinolcd\test\pain drain\libraries\lvgl\src\misc\lv_color.h **** #else
 503:c:\projects\paindrain\arduinolcd\test\pain drain\libraries\lvgl\src\misc\lv_color.h ****     /*LV_COLOR_DEPTH == 1*/
ARM GAS  C:\Users\haske\AppData\Local\Temp\ccSAQWsX.s 			page 46


 504:c:\projects\paindrain\arduinolcd\test\pain drain\libraries\lvgl\src\misc\lv_color.h ****     /*Restore color1*/
 505:c:\projects\paindrain\arduinolcd\test\pain drain\libraries\lvgl\src\misc\lv_color.h ****     lv_color_t c1;
 506:c:\projects\paindrain\arduinolcd\test\pain drain\libraries\lvgl\src\misc\lv_color.h ****     LV_COLOR_SET_R(c1, premult_c1[0]);
 507:c:\projects\paindrain\arduinolcd\test\pain drain\libraries\lvgl\src\misc\lv_color.h ****     LV_COLOR_SET_G(c1, premult_c1[1]);
 508:c:\projects\paindrain\arduinolcd\test\pain drain\libraries\lvgl\src\misc\lv_color.h ****     LV_COLOR_SET_B(c1, premult_c1[2]);
 509:c:\projects\paindrain\arduinolcd\test\pain drain\libraries\lvgl\src\misc\lv_color.h ****     ret.full = mix > LV_OPA_50 ? c2.full : c1.full;
 510:c:\projects\paindrain\arduinolcd\test\pain drain\libraries\lvgl\src\misc\lv_color.h **** #endif
 511:c:\projects\paindrain\arduinolcd\test\pain drain\libraries\lvgl\src\misc\lv_color.h **** 
 512:c:\projects\paindrain\arduinolcd\test\pain drain\libraries\lvgl\src\misc\lv_color.h ****     return ret;
 513:c:\projects\paindrain\arduinolcd\test\pain drain\libraries\lvgl\src\misc\lv_color.h **** }
 514:c:\projects\paindrain\arduinolcd\test\pain drain\libraries\lvgl\src\misc\lv_color.h **** 
 515:c:\projects\paindrain\arduinolcd\test\pain drain\libraries\lvgl\src\misc\lv_color.h **** /**
 516:c:\projects\paindrain\arduinolcd\test\pain drain\libraries\lvgl\src\misc\lv_color.h ****  * Mix two colors. Both color can have alpha value.
 517:c:\projects\paindrain\arduinolcd\test\pain drain\libraries\lvgl\src\misc\lv_color.h ****  * @param bg_color background color
 518:c:\projects\paindrain\arduinolcd\test\pain drain\libraries\lvgl\src\misc\lv_color.h ****  * @param bg_opa alpha of the background color
 519:c:\projects\paindrain\arduinolcd\test\pain drain\libraries\lvgl\src\misc\lv_color.h ****  * @param fg_color foreground color
 520:c:\projects\paindrain\arduinolcd\test\pain drain\libraries\lvgl\src\misc\lv_color.h ****  * @param fg_opa alpha of the foreground color
 521:c:\projects\paindrain\arduinolcd\test\pain drain\libraries\lvgl\src\misc\lv_color.h ****  * @param res_color the result color
 522:c:\projects\paindrain\arduinolcd\test\pain drain\libraries\lvgl\src\misc\lv_color.h ****  * @param res_opa the result opacity
 523:c:\projects\paindrain\arduinolcd\test\pain drain\libraries\lvgl\src\misc\lv_color.h ****  */
 524:c:\projects\paindrain\arduinolcd\test\pain drain\libraries\lvgl\src\misc\lv_color.h **** LV_ATTRIBUTE_FAST_MEM static inline void lv_color_mix_with_alpha(lv_color_t bg_color, lv_opa_t bg_o
 525:c:\projects\paindrain\arduinolcd\test\pain drain\libraries\lvgl\src\misc\lv_color.h ****                                                                  lv_color_t fg_color, lv_opa_t fg_o
 526:c:\projects\paindrain\arduinolcd\test\pain drain\libraries\lvgl\src\misc\lv_color.h ****                                                                  lv_color_t * res_color, lv_opa_t *
 527:c:\projects\paindrain\arduinolcd\test\pain drain\libraries\lvgl\src\misc\lv_color.h **** {
 528:c:\projects\paindrain\arduinolcd\test\pain drain\libraries\lvgl\src\misc\lv_color.h ****     /*Pick the foreground if it's fully opaque or the Background is fully transparent*/
 529:c:\projects\paindrain\arduinolcd\test\pain drain\libraries\lvgl\src\misc\lv_color.h ****     if(fg_opa >= LV_OPA_MAX || bg_opa <= LV_OPA_MIN) {
 530:c:\projects\paindrain\arduinolcd\test\pain drain\libraries\lvgl\src\misc\lv_color.h ****         res_color->full = fg_color.full;
 531:c:\projects\paindrain\arduinolcd\test\pain drain\libraries\lvgl\src\misc\lv_color.h ****         *res_opa = fg_opa;
 532:c:\projects\paindrain\arduinolcd\test\pain drain\libraries\lvgl\src\misc\lv_color.h ****     }
 533:c:\projects\paindrain\arduinolcd\test\pain drain\libraries\lvgl\src\misc\lv_color.h ****     /*Transparent foreground: use the Background*/
 534:c:\projects\paindrain\arduinolcd\test\pain drain\libraries\lvgl\src\misc\lv_color.h ****     else if(fg_opa <= LV_OPA_MIN) {
 535:c:\projects\paindrain\arduinolcd\test\pain drain\libraries\lvgl\src\misc\lv_color.h ****         res_color->full = bg_color.full;
 536:c:\projects\paindrain\arduinolcd\test\pain drain\libraries\lvgl\src\misc\lv_color.h ****         *res_opa = bg_opa;
 537:c:\projects\paindrain\arduinolcd\test\pain drain\libraries\lvgl\src\misc\lv_color.h ****     }
 538:c:\projects\paindrain\arduinolcd\test\pain drain\libraries\lvgl\src\misc\lv_color.h ****     /*Opaque background: use simple mix*/
 539:c:\projects\paindrain\arduinolcd\test\pain drain\libraries\lvgl\src\misc\lv_color.h ****     else if(bg_opa >= LV_OPA_MAX) {
 540:c:\projects\paindrain\arduinolcd\test\pain drain\libraries\lvgl\src\misc\lv_color.h ****         *res_color = lv_color_mix(fg_color, bg_color, fg_opa);
 541:c:\projects\paindrain\arduinolcd\test\pain drain\libraries\lvgl\src\misc\lv_color.h ****         *res_opa = LV_OPA_COVER;
 542:c:\projects\paindrain\arduinolcd\test\pain drain\libraries\lvgl\src\misc\lv_color.h ****     }
 543:c:\projects\paindrain\arduinolcd\test\pain drain\libraries\lvgl\src\misc\lv_color.h ****     /*Both colors have alpha. Expensive calculation need to be applied*/
 544:c:\projects\paindrain\arduinolcd\test\pain drain\libraries\lvgl\src\misc\lv_color.h ****     else {
 545:c:\projects\paindrain\arduinolcd\test\pain drain\libraries\lvgl\src\misc\lv_color.h ****         /*Save the parameters and the result. If they will be asked again don't compute again*/
 546:c:\projects\paindrain\arduinolcd\test\pain drain\libraries\lvgl\src\misc\lv_color.h ****         static lv_opa_t fg_opa_save     = 0;
 547:c:\projects\paindrain\arduinolcd\test\pain drain\libraries\lvgl\src\misc\lv_color.h ****         static lv_opa_t bg_opa_save     = 0;
 548:c:\projects\paindrain\arduinolcd\test\pain drain\libraries\lvgl\src\misc\lv_color.h ****         static lv_color_t fg_color_save = _LV_COLOR_ZERO_INITIALIZER;
 549:c:\projects\paindrain\arduinolcd\test\pain drain\libraries\lvgl\src\misc\lv_color.h ****         static lv_color_t bg_color_save = _LV_COLOR_ZERO_INITIALIZER;
 550:c:\projects\paindrain\arduinolcd\test\pain drain\libraries\lvgl\src\misc\lv_color.h ****         static lv_color_t res_color_saved = _LV_COLOR_ZERO_INITIALIZER;
 551:c:\projects\paindrain\arduinolcd\test\pain drain\libraries\lvgl\src\misc\lv_color.h ****         static lv_opa_t res_opa_saved = 0;
 552:c:\projects\paindrain\arduinolcd\test\pain drain\libraries\lvgl\src\misc\lv_color.h **** 
 553:c:\projects\paindrain\arduinolcd\test\pain drain\libraries\lvgl\src\misc\lv_color.h ****         if(fg_opa != fg_opa_save || bg_opa != bg_opa_save || fg_color.full != fg_color_save.full ||
 554:c:\projects\paindrain\arduinolcd\test\pain drain\libraries\lvgl\src\misc\lv_color.h ****            bg_color.full != bg_color_save.full) {
 555:c:\projects\paindrain\arduinolcd\test\pain drain\libraries\lvgl\src\misc\lv_color.h ****             fg_opa_save        = fg_opa;
 556:c:\projects\paindrain\arduinolcd\test\pain drain\libraries\lvgl\src\misc\lv_color.h ****             bg_opa_save        = bg_opa;
 557:c:\projects\paindrain\arduinolcd\test\pain drain\libraries\lvgl\src\misc\lv_color.h ****             fg_color_save.full = fg_color.full;
 558:c:\projects\paindrain\arduinolcd\test\pain drain\libraries\lvgl\src\misc\lv_color.h ****             bg_color_save.full = bg_color.full;
 559:c:\projects\paindrain\arduinolcd\test\pain drain\libraries\lvgl\src\misc\lv_color.h ****             /*Info:
 560:c:\projects\paindrain\arduinolcd\test\pain drain\libraries\lvgl\src\misc\lv_color.h ****              * https://en.wikipedia.org/wiki/Alpha_compositing#Analytical_derivation_of_the_over_op
ARM GAS  C:\Users\haske\AppData\Local\Temp\ccSAQWsX.s 			page 47


 561:c:\projects\paindrain\arduinolcd\test\pain drain\libraries\lvgl\src\misc\lv_color.h ****             res_opa_saved = 255 - ((uint16_t)((uint16_t)(255 - fg_opa) * (255 - bg_opa)) >> 8);
 562:c:\projects\paindrain\arduinolcd\test\pain drain\libraries\lvgl\src\misc\lv_color.h ****             LV_ASSERT(res_opa_saved != 0);
 563:c:\projects\paindrain\arduinolcd\test\pain drain\libraries\lvgl\src\misc\lv_color.h ****             lv_opa_t ratio = (uint16_t)((uint16_t)fg_opa * 255) / res_opa_saved;
 564:c:\projects\paindrain\arduinolcd\test\pain drain\libraries\lvgl\src\misc\lv_color.h ****             res_color_saved = lv_color_mix(fg_color, bg_color, ratio);
 565:c:\projects\paindrain\arduinolcd\test\pain drain\libraries\lvgl\src\misc\lv_color.h **** 
 566:c:\projects\paindrain\arduinolcd\test\pain drain\libraries\lvgl\src\misc\lv_color.h ****         }
 567:c:\projects\paindrain\arduinolcd\test\pain drain\libraries\lvgl\src\misc\lv_color.h **** 
 568:c:\projects\paindrain\arduinolcd\test\pain drain\libraries\lvgl\src\misc\lv_color.h ****         res_color->full = res_color_saved.full;
 569:c:\projects\paindrain\arduinolcd\test\pain drain\libraries\lvgl\src\misc\lv_color.h ****         *res_opa = res_opa_saved;
 570:c:\projects\paindrain\arduinolcd\test\pain drain\libraries\lvgl\src\misc\lv_color.h ****     }
 571:c:\projects\paindrain\arduinolcd\test\pain drain\libraries\lvgl\src\misc\lv_color.h **** }
 572:c:\projects\paindrain\arduinolcd\test\pain drain\libraries\lvgl\src\misc\lv_color.h **** 
 573:c:\projects\paindrain\arduinolcd\test\pain drain\libraries\lvgl\src\misc\lv_color.h **** //! @endcond
 574:c:\projects\paindrain\arduinolcd\test\pain drain\libraries\lvgl\src\misc\lv_color.h **** 
 575:c:\projects\paindrain\arduinolcd\test\pain drain\libraries\lvgl\src\misc\lv_color.h **** /**
 576:c:\projects\paindrain\arduinolcd\test\pain drain\libraries\lvgl\src\misc\lv_color.h ****  * Get the brightness of a color
 577:c:\projects\paindrain\arduinolcd\test\pain drain\libraries\lvgl\src\misc\lv_color.h ****  * @param color a color
 578:c:\projects\paindrain\arduinolcd\test\pain drain\libraries\lvgl\src\misc\lv_color.h ****  * @return the brightness [0..255]
 579:c:\projects\paindrain\arduinolcd\test\pain drain\libraries\lvgl\src\misc\lv_color.h ****  */
 580:c:\projects\paindrain\arduinolcd\test\pain drain\libraries\lvgl\src\misc\lv_color.h **** static inline uint8_t lv_color_brightness(lv_color_t color)
 581:c:\projects\paindrain\arduinolcd\test\pain drain\libraries\lvgl\src\misc\lv_color.h **** {
 582:c:\projects\paindrain\arduinolcd\test\pain drain\libraries\lvgl\src\misc\lv_color.h ****     lv_color32_t c32;
 583:c:\projects\paindrain\arduinolcd\test\pain drain\libraries\lvgl\src\misc\lv_color.h ****     c32.full        = lv_color_to32(color);
 584:c:\projects\paindrain\arduinolcd\test\pain drain\libraries\lvgl\src\misc\lv_color.h ****     uint16_t bright = (uint16_t)(3u * LV_COLOR_GET_R32(c32) + LV_COLOR_GET_B32(c32) + 4u * LV_COLOR
 585:c:\projects\paindrain\arduinolcd\test\pain drain\libraries\lvgl\src\misc\lv_color.h ****     return (uint8_t)(bright >> 3);
 586:c:\projects\paindrain\arduinolcd\test\pain drain\libraries\lvgl\src\misc\lv_color.h **** }
 587:c:\projects\paindrain\arduinolcd\test\pain drain\libraries\lvgl\src\misc\lv_color.h **** 
 588:c:\projects\paindrain\arduinolcd\test\pain drain\libraries\lvgl\src\misc\lv_color.h **** static inline lv_color_t lv_color_make(uint8_t r, uint8_t g, uint8_t b)
 589:c:\projects\paindrain\arduinolcd\test\pain drain\libraries\lvgl\src\misc\lv_color.h **** {
 590:c:\projects\paindrain\arduinolcd\test\pain drain\libraries\lvgl\src\misc\lv_color.h ****     return _LV_COLOR_MAKE_TYPE_HELPER LV_COLOR_MAKE(r, g, b);
 1557              		.loc 2 590 0
 1558 0022 FC21     		movs	r1, #252
 1559 0024 C900     		lsls	r1, r1, #3
 1560 0026 1F23     		movs	r3, #31
 1561 0028 1943     		orrs	r1, r3
 1562              	.LVL199:
 1563 002a 9C4B     		ldr	r3, .L76+4
 1564 002c 1943     		orrs	r1, r3
 1565 002e 00E0     		b	.L45
 1566              	.L44:
 1567 0030 0021     		movs	r1, #0
 1568              	.L45:
 1569              	.LBE249:
 1570              	.LBE248:
 1571              	.LBE247:
  81:..\..\..\arduinoLCD\test\Pain Drain\libraries\lvgl\src\extra\themes\mono/lv_theme_mono.c ****     lv_style_set_width(&styles->scrollbar,  PAD_DEF);
 1572              		.loc 1 81 0 discriminator 4
 1573 0032 FFF7FEFF 		bl	lv_style_set_bg_color
 1574              	.LVL200:
  82:..\..\..\arduinoLCD\test\Pain Drain\libraries\lvgl\src\extra\themes\mono/lv_theme_mono.c **** 
 1575              		.loc 1 82 0 discriminator 4
 1576 0036 984C     		ldr	r4, .L76
 1577 0038 2068     		ldr	r0, [r4]
 1578 003a 1030     		adds	r0, r0, #16
 1579 003c 0421     		movs	r1, #4
 1580 003e FFF7FEFF 		bl	lv_style_set_width
 1581              	.LVL201:
ARM GAS  C:\Users\haske\AppData\Local\Temp\ccSAQWsX.s 			page 48


  84:..\..\..\arduinoLCD\test\Pain Drain\libraries\lvgl\src\extra\themes\mono/lv_theme_mono.c ****     lv_style_set_bg_opa(&styles->scr, LV_OPA_COVER);
 1582              		.loc 1 84 0 discriminator 4
 1583 0042 2068     		ldr	r0, [r4]
 1584 0044 FFF7FEFF 		bl	style_init_reset
 1585              	.LVL202:
  85:..\..\..\arduinoLCD\test\Pain Drain\libraries\lvgl\src\extra\themes\mono/lv_theme_mono.c ****     lv_style_set_bg_color(&styles->scr, COLOR_BG);
 1586              		.loc 1 85 0 discriminator 4
 1587 0048 FF21     		movs	r1, #255
 1588 004a 2068     		ldr	r0, [r4]
 1589 004c FFF7FEFF 		bl	lv_style_set_bg_opa
 1590              	.LVL203:
  86:..\..\..\arduinoLCD\test\Pain Drain\libraries\lvgl\src\extra\themes\mono/lv_theme_mono.c ****     lv_style_set_text_color(&styles->scr, COLOR_FG);
 1591              		.loc 1 86 0 discriminator 4
 1592 0050 2068     		ldr	r0, [r4]
 1593 0052 002D     		cmp	r5, #0
 1594 0054 01D0     		beq	.L46
 1595 0056 0021     		movs	r1, #0
 1596 0058 05E0     		b	.L47
 1597              	.L46:
 1598              	.LVL204:
 1599              	.LBB250:
 1600              	.LBB251:
 1601              	.LBB252:
 1602              		.loc 2 590 0
 1603 005a FC21     		movs	r1, #252
 1604 005c C900     		lsls	r1, r1, #3
 1605 005e 1F23     		movs	r3, #31
 1606 0060 1943     		orrs	r1, r3
 1607              	.LVL205:
 1608 0062 8E4B     		ldr	r3, .L76+4
 1609 0064 1943     		orrs	r1, r3
 1610              	.L47:
 1611              	.LBE252:
 1612              	.LBE251:
 1613              	.LBE250:
  86:..\..\..\arduinoLCD\test\Pain Drain\libraries\lvgl\src\extra\themes\mono/lv_theme_mono.c ****     lv_style_set_text_color(&styles->scr, COLOR_FG);
 1614              		.loc 1 86 0 discriminator 4
 1615 0066 FFF7FEFF 		bl	lv_style_set_bg_color
 1616              	.LVL206:
  87:..\..\..\arduinoLCD\test\Pain Drain\libraries\lvgl\src\extra\themes\mono/lv_theme_mono.c ****     lv_style_set_pad_row(&styles->scr, PAD_DEF);
 1617              		.loc 1 87 0 discriminator 4
 1618 006a 8B4B     		ldr	r3, .L76
 1619 006c 1868     		ldr	r0, [r3]
 1620 006e 002D     		cmp	r5, #0
 1621 0070 06D0     		beq	.L48
 1622              	.LVL207:
 1623              	.LBB253:
 1624              	.LBB254:
 1625              	.LBB255:
 1626              		.loc 2 590 0
 1627 0072 FC21     		movs	r1, #252
 1628 0074 C900     		lsls	r1, r1, #3
 1629 0076 1F23     		movs	r3, #31
 1630 0078 1943     		orrs	r1, r3
 1631              	.LVL208:
 1632 007a 884B     		ldr	r3, .L76+4
 1633 007c 1943     		orrs	r1, r3
ARM GAS  C:\Users\haske\AppData\Local\Temp\ccSAQWsX.s 			page 49


 1634 007e 00E0     		b	.L49
 1635              	.L48:
 1636 0080 0021     		movs	r1, #0
 1637              	.L49:
 1638              	.LBE255:
 1639              	.LBE254:
 1640              	.LBE253:
  87:..\..\..\arduinoLCD\test\Pain Drain\libraries\lvgl\src\extra\themes\mono/lv_theme_mono.c ****     lv_style_set_pad_row(&styles->scr, PAD_DEF);
 1641              		.loc 1 87 0 discriminator 4
 1642 0082 FFF7FEFF 		bl	lv_style_set_text_color
 1643              	.LVL209:
  88:..\..\..\arduinoLCD\test\Pain Drain\libraries\lvgl\src\extra\themes\mono/lv_theme_mono.c ****     lv_style_set_pad_column(&styles->scr, PAD_DEF);
 1644              		.loc 1 88 0 discriminator 4
 1645 0086 844C     		ldr	r4, .L76
 1646 0088 0421     		movs	r1, #4
 1647 008a 2068     		ldr	r0, [r4]
 1648 008c FFF7FEFF 		bl	lv_style_set_pad_row
 1649              	.LVL210:
  89:..\..\..\arduinoLCD\test\Pain Drain\libraries\lvgl\src\extra\themes\mono/lv_theme_mono.c ****     lv_style_set_text_font(&styles->scr, font);
 1650              		.loc 1 89 0 discriminator 4
 1651 0090 0421     		movs	r1, #4
 1652 0092 2068     		ldr	r0, [r4]
 1653 0094 FFF7FEFF 		bl	lv_style_set_pad_column
 1654              	.LVL211:
  90:..\..\..\arduinoLCD\test\Pain Drain\libraries\lvgl\src\extra\themes\mono/lv_theme_mono.c **** 
 1655              		.loc 1 90 0 discriminator 4
 1656 0098 3100     		movs	r1, r6
 1657 009a 2068     		ldr	r0, [r4]
 1658 009c FFF7FEFF 		bl	lv_style_set_text_font
 1659              	.LVL212:
  92:..\..\..\arduinoLCD\test\Pain Drain\libraries\lvgl\src\extra\themes\mono/lv_theme_mono.c ****     lv_style_set_bg_opa(&styles->card, LV_OPA_COVER);
 1660              		.loc 1 92 0 discriminator 4
 1661 00a0 2068     		ldr	r0, [r4]
 1662 00a2 0830     		adds	r0, r0, #8
 1663 00a4 FFF7FEFF 		bl	style_init_reset
 1664              	.LVL213:
  93:..\..\..\arduinoLCD\test\Pain Drain\libraries\lvgl\src\extra\themes\mono/lv_theme_mono.c ****     lv_style_set_bg_color(&styles->card, COLOR_BG);
 1665              		.loc 1 93 0 discriminator 4
 1666 00a8 2068     		ldr	r0, [r4]
 1667 00aa 0830     		adds	r0, r0, #8
 1668 00ac FF21     		movs	r1, #255
 1669 00ae FFF7FEFF 		bl	lv_style_set_bg_opa
 1670              	.LVL214:
  94:..\..\..\arduinoLCD\test\Pain Drain\libraries\lvgl\src\extra\themes\mono/lv_theme_mono.c ****     lv_style_set_border_color(&styles->card, COLOR_FG);
 1671              		.loc 1 94 0 discriminator 4
 1672 00b2 2068     		ldr	r0, [r4]
 1673 00b4 0830     		adds	r0, r0, #8
 1674 00b6 002D     		cmp	r5, #0
 1675 00b8 01D0     		beq	.L50
 1676 00ba 0021     		movs	r1, #0
 1677 00bc 05E0     		b	.L51
 1678              	.L50:
 1679              	.LVL215:
 1680              	.LBB256:
 1681              	.LBB257:
 1682              	.LBB258:
 1683              		.loc 2 590 0
ARM GAS  C:\Users\haske\AppData\Local\Temp\ccSAQWsX.s 			page 50


 1684 00be FC21     		movs	r1, #252
 1685 00c0 C900     		lsls	r1, r1, #3
 1686 00c2 1F23     		movs	r3, #31
 1687 00c4 1943     		orrs	r1, r3
 1688              	.LVL216:
 1689 00c6 754B     		ldr	r3, .L76+4
 1690 00c8 1943     		orrs	r1, r3
 1691              	.L51:
 1692              	.LBE258:
 1693              	.LBE257:
 1694              	.LBE256:
  94:..\..\..\arduinoLCD\test\Pain Drain\libraries\lvgl\src\extra\themes\mono/lv_theme_mono.c ****     lv_style_set_border_color(&styles->card, COLOR_FG);
 1695              		.loc 1 94 0 discriminator 4
 1696 00ca FFF7FEFF 		bl	lv_style_set_bg_color
 1697              	.LVL217:
  95:..\..\..\arduinoLCD\test\Pain Drain\libraries\lvgl\src\extra\themes\mono/lv_theme_mono.c ****     lv_style_set_radius(&styles->card, 2);
 1698              		.loc 1 95 0 discriminator 4
 1699 00ce 724B     		ldr	r3, .L76
 1700 00d0 1868     		ldr	r0, [r3]
 1701 00d2 0830     		adds	r0, r0, #8
 1702 00d4 002D     		cmp	r5, #0
 1703 00d6 06D0     		beq	.L52
 1704              	.LVL218:
 1705              	.LBB259:
 1706              	.LBB260:
 1707              	.LBB261:
 1708              		.loc 2 590 0
 1709 00d8 FC21     		movs	r1, #252
 1710 00da C900     		lsls	r1, r1, #3
 1711 00dc 1F23     		movs	r3, #31
 1712 00de 1943     		orrs	r1, r3
 1713              	.LVL219:
 1714 00e0 6E4B     		ldr	r3, .L76+4
 1715 00e2 1943     		orrs	r1, r3
 1716 00e4 00E0     		b	.L53
 1717              	.L52:
 1718 00e6 0021     		movs	r1, #0
 1719              	.L53:
 1720              	.LBE261:
 1721              	.LBE260:
 1722              	.LBE259:
  95:..\..\..\arduinoLCD\test\Pain Drain\libraries\lvgl\src\extra\themes\mono/lv_theme_mono.c ****     lv_style_set_radius(&styles->card, 2);
 1723              		.loc 1 95 0 discriminator 4
 1724 00e8 FFF7FEFF 		bl	lv_style_set_border_color
 1725              	.LVL220:
  96:..\..\..\arduinoLCD\test\Pain Drain\libraries\lvgl\src\extra\themes\mono/lv_theme_mono.c ****     lv_style_set_border_width(&styles->card, BORDER_W_NORMAL);
 1726              		.loc 1 96 0 discriminator 4
 1727 00ec 6A4E     		ldr	r6, .L76
 1728              	.LVL221:
 1729 00ee 3068     		ldr	r0, [r6]
 1730 00f0 0830     		adds	r0, r0, #8
 1731 00f2 0221     		movs	r1, #2
 1732 00f4 FFF7FEFF 		bl	lv_style_set_radius
 1733              	.LVL222:
  97:..\..\..\arduinoLCD\test\Pain Drain\libraries\lvgl\src\extra\themes\mono/lv_theme_mono.c ****     lv_style_set_pad_all(&styles->card, PAD_DEF);
 1734              		.loc 1 97 0 discriminator 4
 1735 00f8 3068     		ldr	r0, [r6]
ARM GAS  C:\Users\haske\AppData\Local\Temp\ccSAQWsX.s 			page 51


 1736 00fa 0830     		adds	r0, r0, #8
 1737 00fc 0121     		movs	r1, #1
 1738 00fe FFF7FEFF 		bl	lv_style_set_border_width
 1739              	.LVL223:
  98:..\..\..\arduinoLCD\test\Pain Drain\libraries\lvgl\src\extra\themes\mono/lv_theme_mono.c ****     lv_style_set_pad_gap(&styles->card, PAD_DEF);
 1740              		.loc 1 98 0 discriminator 4
 1741 0102 3468     		ldr	r4, [r6]
 1742 0104 0834     		adds	r4, r4, #8
 1743              	.LVL224:
 1744              	.LBB262:
 1745              	.LBB263:
 1746              		.file 3 "c:\\projects\\paindrain\\arduinolcd\\test\\pain drain\\libraries\\lvgl\\src\\misc\\lv_sty
   1:c:\projects\paindrain\arduinolcd\test\pain drain\libraries\lvgl\src\misc\lv_style.h **** /**
   2:c:\projects\paindrain\arduinolcd\test\pain drain\libraries\lvgl\src\misc\lv_style.h ****  * @file lv_style.h
   3:c:\projects\paindrain\arduinolcd\test\pain drain\libraries\lvgl\src\misc\lv_style.h ****  *
   4:c:\projects\paindrain\arduinolcd\test\pain drain\libraries\lvgl\src\misc\lv_style.h ****  */
   5:c:\projects\paindrain\arduinolcd\test\pain drain\libraries\lvgl\src\misc\lv_style.h **** 
   6:c:\projects\paindrain\arduinolcd\test\pain drain\libraries\lvgl\src\misc\lv_style.h **** #ifndef LV_STYLE_H
   7:c:\projects\paindrain\arduinolcd\test\pain drain\libraries\lvgl\src\misc\lv_style.h **** #define LV_STYLE_H
   8:c:\projects\paindrain\arduinolcd\test\pain drain\libraries\lvgl\src\misc\lv_style.h **** 
   9:c:\projects\paindrain\arduinolcd\test\pain drain\libraries\lvgl\src\misc\lv_style.h **** #ifdef __cplusplus
  10:c:\projects\paindrain\arduinolcd\test\pain drain\libraries\lvgl\src\misc\lv_style.h **** extern "C" {
  11:c:\projects\paindrain\arduinolcd\test\pain drain\libraries\lvgl\src\misc\lv_style.h **** #endif
  12:c:\projects\paindrain\arduinolcd\test\pain drain\libraries\lvgl\src\misc\lv_style.h **** 
  13:c:\projects\paindrain\arduinolcd\test\pain drain\libraries\lvgl\src\misc\lv_style.h **** /*********************
  14:c:\projects\paindrain\arduinolcd\test\pain drain\libraries\lvgl\src\misc\lv_style.h ****  *      INCLUDES
  15:c:\projects\paindrain\arduinolcd\test\pain drain\libraries\lvgl\src\misc\lv_style.h ****  *********************/
  16:c:\projects\paindrain\arduinolcd\test\pain drain\libraries\lvgl\src\misc\lv_style.h **** #include <stdbool.h>
  17:c:\projects\paindrain\arduinolcd\test\pain drain\libraries\lvgl\src\misc\lv_style.h **** #include <stdint.h>
  18:c:\projects\paindrain\arduinolcd\test\pain drain\libraries\lvgl\src\misc\lv_style.h **** #include "../font/lv_font.h"
  19:c:\projects\paindrain\arduinolcd\test\pain drain\libraries\lvgl\src\misc\lv_style.h **** #include "lv_color.h"
  20:c:\projects\paindrain\arduinolcd\test\pain drain\libraries\lvgl\src\misc\lv_style.h **** #include "lv_area.h"
  21:c:\projects\paindrain\arduinolcd\test\pain drain\libraries\lvgl\src\misc\lv_style.h **** #include "lv_anim.h"
  22:c:\projects\paindrain\arduinolcd\test\pain drain\libraries\lvgl\src\misc\lv_style.h **** #include "lv_txt.h"
  23:c:\projects\paindrain\arduinolcd\test\pain drain\libraries\lvgl\src\misc\lv_style.h **** #include "lv_types.h"
  24:c:\projects\paindrain\arduinolcd\test\pain drain\libraries\lvgl\src\misc\lv_style.h **** #include "lv_assert.h"
  25:c:\projects\paindrain\arduinolcd\test\pain drain\libraries\lvgl\src\misc\lv_style.h **** #include "lv_bidi.h"
  26:c:\projects\paindrain\arduinolcd\test\pain drain\libraries\lvgl\src\misc\lv_style.h **** 
  27:c:\projects\paindrain\arduinolcd\test\pain drain\libraries\lvgl\src\misc\lv_style.h **** /*********************
  28:c:\projects\paindrain\arduinolcd\test\pain drain\libraries\lvgl\src\misc\lv_style.h ****  *      DEFINES
  29:c:\projects\paindrain\arduinolcd\test\pain drain\libraries\lvgl\src\misc\lv_style.h ****  *********************/
  30:c:\projects\paindrain\arduinolcd\test\pain drain\libraries\lvgl\src\misc\lv_style.h **** 
  31:c:\projects\paindrain\arduinolcd\test\pain drain\libraries\lvgl\src\misc\lv_style.h **** #define LV_STYLE_SENTINEL_VALUE     0xAABBCCDD
  32:c:\projects\paindrain\arduinolcd\test\pain drain\libraries\lvgl\src\misc\lv_style.h **** 
  33:c:\projects\paindrain\arduinolcd\test\pain drain\libraries\lvgl\src\misc\lv_style.h **** /**
  34:c:\projects\paindrain\arduinolcd\test\pain drain\libraries\lvgl\src\misc\lv_style.h ****  * Flags for style behavior
  35:c:\projects\paindrain\arduinolcd\test\pain drain\libraries\lvgl\src\misc\lv_style.h ****  *
  36:c:\projects\paindrain\arduinolcd\test\pain drain\libraries\lvgl\src\misc\lv_style.h ****  * The rest of the flags will have _FLAG added to their name in v9.
  37:c:\projects\paindrain\arduinolcd\test\pain drain\libraries\lvgl\src\misc\lv_style.h ****  */
  38:c:\projects\paindrain\arduinolcd\test\pain drain\libraries\lvgl\src\misc\lv_style.h **** #define LV_STYLE_PROP_FLAG_NONE             (0)
  39:c:\projects\paindrain\arduinolcd\test\pain drain\libraries\lvgl\src\misc\lv_style.h **** #define LV_STYLE_PROP_INHERIT               (1 << 0)  /*Inherited*/
  40:c:\projects\paindrain\arduinolcd\test\pain drain\libraries\lvgl\src\misc\lv_style.h **** #define LV_STYLE_PROP_EXT_DRAW              (1 << 1)  /*Requires ext. draw size update when changed
  41:c:\projects\paindrain\arduinolcd\test\pain drain\libraries\lvgl\src\misc\lv_style.h **** #define LV_STYLE_PROP_LAYOUT_REFR           (1 << 2)  /*Requires layout update when changed*/
  42:c:\projects\paindrain\arduinolcd\test\pain drain\libraries\lvgl\src\misc\lv_style.h **** #define LV_STYLE_PROP_PARENT_LAYOUT_REFR    (1 << 3)  /*Requires layout update on parent when chang
  43:c:\projects\paindrain\arduinolcd\test\pain drain\libraries\lvgl\src\misc\lv_style.h **** #define LV_STYLE_PROP_LAYER_REFR            (1 << 4)  /*Affects layer handling*/
  44:c:\projects\paindrain\arduinolcd\test\pain drain\libraries\lvgl\src\misc\lv_style.h **** #define LV_STYLE_PROP_ALL                   (0x1F)     /*Indicating all flags*/
  45:c:\projects\paindrain\arduinolcd\test\pain drain\libraries\lvgl\src\misc\lv_style.h **** 
ARM GAS  C:\Users\haske\AppData\Local\Temp\ccSAQWsX.s 			page 52


  46:c:\projects\paindrain\arduinolcd\test\pain drain\libraries\lvgl\src\misc\lv_style.h **** /**
  47:c:\projects\paindrain\arduinolcd\test\pain drain\libraries\lvgl\src\misc\lv_style.h ****  * Other constants
  48:c:\projects\paindrain\arduinolcd\test\pain drain\libraries\lvgl\src\misc\lv_style.h ****  */
  49:c:\projects\paindrain\arduinolcd\test\pain drain\libraries\lvgl\src\misc\lv_style.h **** #define LV_IMG_ZOOM_NONE            256        /*Value for not zooming the image*/
  50:c:\projects\paindrain\arduinolcd\test\pain drain\libraries\lvgl\src\misc\lv_style.h **** LV_EXPORT_CONST_INT(LV_IMG_ZOOM_NONE);
  51:c:\projects\paindrain\arduinolcd\test\pain drain\libraries\lvgl\src\misc\lv_style.h **** 
  52:c:\projects\paindrain\arduinolcd\test\pain drain\libraries\lvgl\src\misc\lv_style.h **** // *INDENT-OFF*
  53:c:\projects\paindrain\arduinolcd\test\pain drain\libraries\lvgl\src\misc\lv_style.h **** #if LV_USE_ASSERT_STYLE
  54:c:\projects\paindrain\arduinolcd\test\pain drain\libraries\lvgl\src\misc\lv_style.h **** #define LV_STYLE_CONST_INIT(var_name, prop_array)                       \
  55:c:\projects\paindrain\arduinolcd\test\pain drain\libraries\lvgl\src\misc\lv_style.h ****     const lv_style_t var_name = {                                       \
  56:c:\projects\paindrain\arduinolcd\test\pain drain\libraries\lvgl\src\misc\lv_style.h ****         .sentinel = LV_STYLE_SENTINEL_VALUE,                            \
  57:c:\projects\paindrain\arduinolcd\test\pain drain\libraries\lvgl\src\misc\lv_style.h ****         .v_p = { .const_props = prop_array },                           \
  58:c:\projects\paindrain\arduinolcd\test\pain drain\libraries\lvgl\src\misc\lv_style.h ****         .has_group = 0xFF,                                              \
  59:c:\projects\paindrain\arduinolcd\test\pain drain\libraries\lvgl\src\misc\lv_style.h ****         .prop1 = LV_STYLE_PROP_ANY,                                     \
  60:c:\projects\paindrain\arduinolcd\test\pain drain\libraries\lvgl\src\misc\lv_style.h ****         .prop_cnt = (sizeof(prop_array) / sizeof((prop_array)[0])),     \
  61:c:\projects\paindrain\arduinolcd\test\pain drain\libraries\lvgl\src\misc\lv_style.h ****     }
  62:c:\projects\paindrain\arduinolcd\test\pain drain\libraries\lvgl\src\misc\lv_style.h **** #else
  63:c:\projects\paindrain\arduinolcd\test\pain drain\libraries\lvgl\src\misc\lv_style.h **** #define LV_STYLE_CONST_INIT(var_name, prop_array)                       \
  64:c:\projects\paindrain\arduinolcd\test\pain drain\libraries\lvgl\src\misc\lv_style.h ****     const lv_style_t var_name = {                                       \
  65:c:\projects\paindrain\arduinolcd\test\pain drain\libraries\lvgl\src\misc\lv_style.h ****         .v_p = { .const_props = prop_array },                           \
  66:c:\projects\paindrain\arduinolcd\test\pain drain\libraries\lvgl\src\misc\lv_style.h ****         .has_group = 0xFF,                                              \
  67:c:\projects\paindrain\arduinolcd\test\pain drain\libraries\lvgl\src\misc\lv_style.h ****         .prop1 = LV_STYLE_PROP_ANY,                                     \
  68:c:\projects\paindrain\arduinolcd\test\pain drain\libraries\lvgl\src\misc\lv_style.h ****         .prop_cnt = (sizeof(prop_array) / sizeof((prop_array)[0])),     \
  69:c:\projects\paindrain\arduinolcd\test\pain drain\libraries\lvgl\src\misc\lv_style.h ****     }
  70:c:\projects\paindrain\arduinolcd\test\pain drain\libraries\lvgl\src\misc\lv_style.h **** #endif
  71:c:\projects\paindrain\arduinolcd\test\pain drain\libraries\lvgl\src\misc\lv_style.h **** // *INDENT-ON*
  72:c:\projects\paindrain\arduinolcd\test\pain drain\libraries\lvgl\src\misc\lv_style.h **** 
  73:c:\projects\paindrain\arduinolcd\test\pain drain\libraries\lvgl\src\misc\lv_style.h **** #define LV_STYLE_PROP_META_INHERIT 0x8000
  74:c:\projects\paindrain\arduinolcd\test\pain drain\libraries\lvgl\src\misc\lv_style.h **** #define LV_STYLE_PROP_META_INITIAL 0x4000
  75:c:\projects\paindrain\arduinolcd\test\pain drain\libraries\lvgl\src\misc\lv_style.h **** #define LV_STYLE_PROP_META_MASK (LV_STYLE_PROP_META_INHERIT | LV_STYLE_PROP_META_INITIAL)
  76:c:\projects\paindrain\arduinolcd\test\pain drain\libraries\lvgl\src\misc\lv_style.h **** 
  77:c:\projects\paindrain\arduinolcd\test\pain drain\libraries\lvgl\src\misc\lv_style.h **** #define LV_STYLE_PROP_ID_MASK(prop) ((lv_style_prop_t)((prop) & ~LV_STYLE_PROP_META_MASK))
  78:c:\projects\paindrain\arduinolcd\test\pain drain\libraries\lvgl\src\misc\lv_style.h **** 
  79:c:\projects\paindrain\arduinolcd\test\pain drain\libraries\lvgl\src\misc\lv_style.h **** /**********************
  80:c:\projects\paindrain\arduinolcd\test\pain drain\libraries\lvgl\src\misc\lv_style.h ****  *      TYPEDEFS
  81:c:\projects\paindrain\arduinolcd\test\pain drain\libraries\lvgl\src\misc\lv_style.h ****  **********************/
  82:c:\projects\paindrain\arduinolcd\test\pain drain\libraries\lvgl\src\misc\lv_style.h **** 
  83:c:\projects\paindrain\arduinolcd\test\pain drain\libraries\lvgl\src\misc\lv_style.h **** /**
  84:c:\projects\paindrain\arduinolcd\test\pain drain\libraries\lvgl\src\misc\lv_style.h ****  * Possible options how to blend opaque drawings
  85:c:\projects\paindrain\arduinolcd\test\pain drain\libraries\lvgl\src\misc\lv_style.h ****  */
  86:c:\projects\paindrain\arduinolcd\test\pain drain\libraries\lvgl\src\misc\lv_style.h **** enum {
  87:c:\projects\paindrain\arduinolcd\test\pain drain\libraries\lvgl\src\misc\lv_style.h ****     LV_BLEND_MODE_NORMAL,     /**< Simply mix according to the opacity value*/
  88:c:\projects\paindrain\arduinolcd\test\pain drain\libraries\lvgl\src\misc\lv_style.h ****     LV_BLEND_MODE_ADDITIVE,   /**< Add the respective color channels*/
  89:c:\projects\paindrain\arduinolcd\test\pain drain\libraries\lvgl\src\misc\lv_style.h ****     LV_BLEND_MODE_SUBTRACTIVE,/**< Subtract the foreground from the background*/
  90:c:\projects\paindrain\arduinolcd\test\pain drain\libraries\lvgl\src\misc\lv_style.h ****     LV_BLEND_MODE_MULTIPLY,   /**< Multiply the foreground and background*/
  91:c:\projects\paindrain\arduinolcd\test\pain drain\libraries\lvgl\src\misc\lv_style.h ****     LV_BLEND_MODE_REPLACE,    /**< Replace background with foreground in the area*/
  92:c:\projects\paindrain\arduinolcd\test\pain drain\libraries\lvgl\src\misc\lv_style.h **** };
  93:c:\projects\paindrain\arduinolcd\test\pain drain\libraries\lvgl\src\misc\lv_style.h **** 
  94:c:\projects\paindrain\arduinolcd\test\pain drain\libraries\lvgl\src\misc\lv_style.h **** typedef uint8_t lv_blend_mode_t;
  95:c:\projects\paindrain\arduinolcd\test\pain drain\libraries\lvgl\src\misc\lv_style.h **** 
  96:c:\projects\paindrain\arduinolcd\test\pain drain\libraries\lvgl\src\misc\lv_style.h **** /**
  97:c:\projects\paindrain\arduinolcd\test\pain drain\libraries\lvgl\src\misc\lv_style.h ****  * Some options to apply decorations on texts.
  98:c:\projects\paindrain\arduinolcd\test\pain drain\libraries\lvgl\src\misc\lv_style.h ****  * 'OR'ed values can be used.
  99:c:\projects\paindrain\arduinolcd\test\pain drain\libraries\lvgl\src\misc\lv_style.h ****  */
 100:c:\projects\paindrain\arduinolcd\test\pain drain\libraries\lvgl\src\misc\lv_style.h **** enum {
 101:c:\projects\paindrain\arduinolcd\test\pain drain\libraries\lvgl\src\misc\lv_style.h ****     LV_TEXT_DECOR_NONE          = 0x00,
 102:c:\projects\paindrain\arduinolcd\test\pain drain\libraries\lvgl\src\misc\lv_style.h ****     LV_TEXT_DECOR_UNDERLINE     = 0x01,
ARM GAS  C:\Users\haske\AppData\Local\Temp\ccSAQWsX.s 			page 53


 103:c:\projects\paindrain\arduinolcd\test\pain drain\libraries\lvgl\src\misc\lv_style.h ****     LV_TEXT_DECOR_STRIKETHROUGH = 0x02,
 104:c:\projects\paindrain\arduinolcd\test\pain drain\libraries\lvgl\src\misc\lv_style.h **** };
 105:c:\projects\paindrain\arduinolcd\test\pain drain\libraries\lvgl\src\misc\lv_style.h **** 
 106:c:\projects\paindrain\arduinolcd\test\pain drain\libraries\lvgl\src\misc\lv_style.h **** typedef uint8_t lv_text_decor_t;
 107:c:\projects\paindrain\arduinolcd\test\pain drain\libraries\lvgl\src\misc\lv_style.h **** 
 108:c:\projects\paindrain\arduinolcd\test\pain drain\libraries\lvgl\src\misc\lv_style.h **** /**
 109:c:\projects\paindrain\arduinolcd\test\pain drain\libraries\lvgl\src\misc\lv_style.h ****  * Selects on which sides border should be drawn
 110:c:\projects\paindrain\arduinolcd\test\pain drain\libraries\lvgl\src\misc\lv_style.h ****  * 'OR'ed values can be used.
 111:c:\projects\paindrain\arduinolcd\test\pain drain\libraries\lvgl\src\misc\lv_style.h ****  */
 112:c:\projects\paindrain\arduinolcd\test\pain drain\libraries\lvgl\src\misc\lv_style.h **** enum {
 113:c:\projects\paindrain\arduinolcd\test\pain drain\libraries\lvgl\src\misc\lv_style.h ****     LV_BORDER_SIDE_NONE     = 0x00,
 114:c:\projects\paindrain\arduinolcd\test\pain drain\libraries\lvgl\src\misc\lv_style.h ****     LV_BORDER_SIDE_BOTTOM   = 0x01,
 115:c:\projects\paindrain\arduinolcd\test\pain drain\libraries\lvgl\src\misc\lv_style.h ****     LV_BORDER_SIDE_TOP      = 0x02,
 116:c:\projects\paindrain\arduinolcd\test\pain drain\libraries\lvgl\src\misc\lv_style.h ****     LV_BORDER_SIDE_LEFT     = 0x04,
 117:c:\projects\paindrain\arduinolcd\test\pain drain\libraries\lvgl\src\misc\lv_style.h ****     LV_BORDER_SIDE_RIGHT    = 0x08,
 118:c:\projects\paindrain\arduinolcd\test\pain drain\libraries\lvgl\src\misc\lv_style.h ****     LV_BORDER_SIDE_FULL     = 0x0F,
 119:c:\projects\paindrain\arduinolcd\test\pain drain\libraries\lvgl\src\misc\lv_style.h ****     LV_BORDER_SIDE_INTERNAL = 0x10, /**< FOR matrix-like objects (e.g. Button matrix)*/
 120:c:\projects\paindrain\arduinolcd\test\pain drain\libraries\lvgl\src\misc\lv_style.h **** };
 121:c:\projects\paindrain\arduinolcd\test\pain drain\libraries\lvgl\src\misc\lv_style.h **** typedef uint8_t lv_border_side_t;
 122:c:\projects\paindrain\arduinolcd\test\pain drain\libraries\lvgl\src\misc\lv_style.h **** 
 123:c:\projects\paindrain\arduinolcd\test\pain drain\libraries\lvgl\src\misc\lv_style.h **** /**
 124:c:\projects\paindrain\arduinolcd\test\pain drain\libraries\lvgl\src\misc\lv_style.h ****  * The direction of the gradient.
 125:c:\projects\paindrain\arduinolcd\test\pain drain\libraries\lvgl\src\misc\lv_style.h ****  */
 126:c:\projects\paindrain\arduinolcd\test\pain drain\libraries\lvgl\src\misc\lv_style.h **** enum {
 127:c:\projects\paindrain\arduinolcd\test\pain drain\libraries\lvgl\src\misc\lv_style.h ****     LV_GRAD_DIR_NONE, /**< No gradient (the `grad_color` property is ignored)*/
 128:c:\projects\paindrain\arduinolcd\test\pain drain\libraries\lvgl\src\misc\lv_style.h ****     LV_GRAD_DIR_VER,  /**< Vertical (top to bottom) gradient*/
 129:c:\projects\paindrain\arduinolcd\test\pain drain\libraries\lvgl\src\misc\lv_style.h ****     LV_GRAD_DIR_HOR,  /**< Horizontal (left to right) gradient*/
 130:c:\projects\paindrain\arduinolcd\test\pain drain\libraries\lvgl\src\misc\lv_style.h **** };
 131:c:\projects\paindrain\arduinolcd\test\pain drain\libraries\lvgl\src\misc\lv_style.h **** 
 132:c:\projects\paindrain\arduinolcd\test\pain drain\libraries\lvgl\src\misc\lv_style.h **** typedef uint8_t lv_grad_dir_t;
 133:c:\projects\paindrain\arduinolcd\test\pain drain\libraries\lvgl\src\misc\lv_style.h **** 
 134:c:\projects\paindrain\arduinolcd\test\pain drain\libraries\lvgl\src\misc\lv_style.h **** /**
 135:c:\projects\paindrain\arduinolcd\test\pain drain\libraries\lvgl\src\misc\lv_style.h ****  * The dithering algorithm for the gradient
 136:c:\projects\paindrain\arduinolcd\test\pain drain\libraries\lvgl\src\misc\lv_style.h ****  * Depends on LV_DITHER_GRADIENT
 137:c:\projects\paindrain\arduinolcd\test\pain drain\libraries\lvgl\src\misc\lv_style.h ****  */
 138:c:\projects\paindrain\arduinolcd\test\pain drain\libraries\lvgl\src\misc\lv_style.h **** enum {
 139:c:\projects\paindrain\arduinolcd\test\pain drain\libraries\lvgl\src\misc\lv_style.h ****     LV_DITHER_NONE,     /**< No dithering, colors are just quantized to the output resolution*/
 140:c:\projects\paindrain\arduinolcd\test\pain drain\libraries\lvgl\src\misc\lv_style.h ****     LV_DITHER_ORDERED,  /**< Ordered dithering. Faster to compute and use less memory but lower qua
 141:c:\projects\paindrain\arduinolcd\test\pain drain\libraries\lvgl\src\misc\lv_style.h ****     LV_DITHER_ERR_DIFF, /**< Error diffusion mode. Slower to compute and use more memory but give h
 142:c:\projects\paindrain\arduinolcd\test\pain drain\libraries\lvgl\src\misc\lv_style.h **** };
 143:c:\projects\paindrain\arduinolcd\test\pain drain\libraries\lvgl\src\misc\lv_style.h **** 
 144:c:\projects\paindrain\arduinolcd\test\pain drain\libraries\lvgl\src\misc\lv_style.h **** typedef uint8_t lv_dither_mode_t;
 145:c:\projects\paindrain\arduinolcd\test\pain drain\libraries\lvgl\src\misc\lv_style.h **** 
 146:c:\projects\paindrain\arduinolcd\test\pain drain\libraries\lvgl\src\misc\lv_style.h **** /** A gradient stop definition.
 147:c:\projects\paindrain\arduinolcd\test\pain drain\libraries\lvgl\src\misc\lv_style.h ****  *  This matches a color and a position in a virtual 0-255 scale.
 148:c:\projects\paindrain\arduinolcd\test\pain drain\libraries\lvgl\src\misc\lv_style.h ****  */
 149:c:\projects\paindrain\arduinolcd\test\pain drain\libraries\lvgl\src\misc\lv_style.h **** typedef struct {
 150:c:\projects\paindrain\arduinolcd\test\pain drain\libraries\lvgl\src\misc\lv_style.h ****     lv_color_t color;   /**< The stop color */
 151:c:\projects\paindrain\arduinolcd\test\pain drain\libraries\lvgl\src\misc\lv_style.h ****     uint8_t    frac;    /**< The stop position in 1/255 unit */
 152:c:\projects\paindrain\arduinolcd\test\pain drain\libraries\lvgl\src\misc\lv_style.h **** } lv_gradient_stop_t;
 153:c:\projects\paindrain\arduinolcd\test\pain drain\libraries\lvgl\src\misc\lv_style.h **** 
 154:c:\projects\paindrain\arduinolcd\test\pain drain\libraries\lvgl\src\misc\lv_style.h **** /** A descriptor of a gradient. */
 155:c:\projects\paindrain\arduinolcd\test\pain drain\libraries\lvgl\src\misc\lv_style.h **** typedef struct {
 156:c:\projects\paindrain\arduinolcd\test\pain drain\libraries\lvgl\src\misc\lv_style.h ****     lv_gradient_stop_t   stops[LV_GRADIENT_MAX_STOPS]; /**< A gradient stop array */
 157:c:\projects\paindrain\arduinolcd\test\pain drain\libraries\lvgl\src\misc\lv_style.h ****     uint8_t              stops_count;                  /**< The number of used stops in the array *
 158:c:\projects\paindrain\arduinolcd\test\pain drain\libraries\lvgl\src\misc\lv_style.h ****     lv_grad_dir_t        dir : 3;                      /**< The gradient direction.
 159:c:\projects\paindrain\arduinolcd\test\pain drain\libraries\lvgl\src\misc\lv_style.h ****                                                         * Any of LV_GRAD_DIR_HOR, LV_GRAD_DIR_VER, 
ARM GAS  C:\Users\haske\AppData\Local\Temp\ccSAQWsX.s 			page 54


 160:c:\projects\paindrain\arduinolcd\test\pain drain\libraries\lvgl\src\misc\lv_style.h ****     lv_dither_mode_t     dither : 3;                   /**< Whether to dither the gradient or not.
 161:c:\projects\paindrain\arduinolcd\test\pain drain\libraries\lvgl\src\misc\lv_style.h ****                                                         * Any of LV_DITHER_NONE, LV_DITHER_ORDERED,
 162:c:\projects\paindrain\arduinolcd\test\pain drain\libraries\lvgl\src\misc\lv_style.h **** } lv_grad_dsc_t;
 163:c:\projects\paindrain\arduinolcd\test\pain drain\libraries\lvgl\src\misc\lv_style.h **** 
 164:c:\projects\paindrain\arduinolcd\test\pain drain\libraries\lvgl\src\misc\lv_style.h **** /**
 165:c:\projects\paindrain\arduinolcd\test\pain drain\libraries\lvgl\src\misc\lv_style.h ****  * A common type to handle all the property types in the same way.
 166:c:\projects\paindrain\arduinolcd\test\pain drain\libraries\lvgl\src\misc\lv_style.h ****  */
 167:c:\projects\paindrain\arduinolcd\test\pain drain\libraries\lvgl\src\misc\lv_style.h **** typedef union {
 168:c:\projects\paindrain\arduinolcd\test\pain drain\libraries\lvgl\src\misc\lv_style.h ****     int32_t num;         /**< Number integer number (opacity, enums, booleans or "normal" numbers)*
 169:c:\projects\paindrain\arduinolcd\test\pain drain\libraries\lvgl\src\misc\lv_style.h ****     const void * ptr;    /**< Constant pointers  (font, cone text, etc)*/
 170:c:\projects\paindrain\arduinolcd\test\pain drain\libraries\lvgl\src\misc\lv_style.h ****     lv_color_t color;    /**< Colors*/
 171:c:\projects\paindrain\arduinolcd\test\pain drain\libraries\lvgl\src\misc\lv_style.h **** } lv_style_value_t;
 172:c:\projects\paindrain\arduinolcd\test\pain drain\libraries\lvgl\src\misc\lv_style.h **** 
 173:c:\projects\paindrain\arduinolcd\test\pain drain\libraries\lvgl\src\misc\lv_style.h **** /**
 174:c:\projects\paindrain\arduinolcd\test\pain drain\libraries\lvgl\src\misc\lv_style.h ****  * Enumeration of all built in style properties
 175:c:\projects\paindrain\arduinolcd\test\pain drain\libraries\lvgl\src\misc\lv_style.h ****  *
 176:c:\projects\paindrain\arduinolcd\test\pain drain\libraries\lvgl\src\misc\lv_style.h ****  * Props are split into groups of 16. When adding a new prop to a group, ensure it does not overflo
 177:c:\projects\paindrain\arduinolcd\test\pain drain\libraries\lvgl\src\misc\lv_style.h ****  */
 178:c:\projects\paindrain\arduinolcd\test\pain drain\libraries\lvgl\src\misc\lv_style.h **** typedef enum {
 179:c:\projects\paindrain\arduinolcd\test\pain drain\libraries\lvgl\src\misc\lv_style.h ****     LV_STYLE_PROP_INV               = 0,
 180:c:\projects\paindrain\arduinolcd\test\pain drain\libraries\lvgl\src\misc\lv_style.h **** 
 181:c:\projects\paindrain\arduinolcd\test\pain drain\libraries\lvgl\src\misc\lv_style.h ****     /*Group 0*/
 182:c:\projects\paindrain\arduinolcd\test\pain drain\libraries\lvgl\src\misc\lv_style.h ****     LV_STYLE_WIDTH                  = 1,
 183:c:\projects\paindrain\arduinolcd\test\pain drain\libraries\lvgl\src\misc\lv_style.h ****     LV_STYLE_MIN_WIDTH              = 2,
 184:c:\projects\paindrain\arduinolcd\test\pain drain\libraries\lvgl\src\misc\lv_style.h ****     LV_STYLE_MAX_WIDTH              = 3,
 185:c:\projects\paindrain\arduinolcd\test\pain drain\libraries\lvgl\src\misc\lv_style.h ****     LV_STYLE_HEIGHT                 = 4,
 186:c:\projects\paindrain\arduinolcd\test\pain drain\libraries\lvgl\src\misc\lv_style.h ****     LV_STYLE_MIN_HEIGHT             = 5,
 187:c:\projects\paindrain\arduinolcd\test\pain drain\libraries\lvgl\src\misc\lv_style.h ****     LV_STYLE_MAX_HEIGHT             = 6,
 188:c:\projects\paindrain\arduinolcd\test\pain drain\libraries\lvgl\src\misc\lv_style.h ****     LV_STYLE_X                      = 7,
 189:c:\projects\paindrain\arduinolcd\test\pain drain\libraries\lvgl\src\misc\lv_style.h ****     LV_STYLE_Y                      = 8,
 190:c:\projects\paindrain\arduinolcd\test\pain drain\libraries\lvgl\src\misc\lv_style.h ****     LV_STYLE_ALIGN                  = 9,
 191:c:\projects\paindrain\arduinolcd\test\pain drain\libraries\lvgl\src\misc\lv_style.h ****     LV_STYLE_LAYOUT                 = 10,
 192:c:\projects\paindrain\arduinolcd\test\pain drain\libraries\lvgl\src\misc\lv_style.h ****     LV_STYLE_RADIUS                 = 11,
 193:c:\projects\paindrain\arduinolcd\test\pain drain\libraries\lvgl\src\misc\lv_style.h **** 
 194:c:\projects\paindrain\arduinolcd\test\pain drain\libraries\lvgl\src\misc\lv_style.h ****     /*Group 1*/
 195:c:\projects\paindrain\arduinolcd\test\pain drain\libraries\lvgl\src\misc\lv_style.h ****     LV_STYLE_PAD_TOP                = 16,
 196:c:\projects\paindrain\arduinolcd\test\pain drain\libraries\lvgl\src\misc\lv_style.h ****     LV_STYLE_PAD_BOTTOM             = 17,
 197:c:\projects\paindrain\arduinolcd\test\pain drain\libraries\lvgl\src\misc\lv_style.h ****     LV_STYLE_PAD_LEFT               = 18,
 198:c:\projects\paindrain\arduinolcd\test\pain drain\libraries\lvgl\src\misc\lv_style.h ****     LV_STYLE_PAD_RIGHT              = 19,
 199:c:\projects\paindrain\arduinolcd\test\pain drain\libraries\lvgl\src\misc\lv_style.h ****     LV_STYLE_PAD_ROW                = 20,
 200:c:\projects\paindrain\arduinolcd\test\pain drain\libraries\lvgl\src\misc\lv_style.h ****     LV_STYLE_PAD_COLUMN             = 21,
 201:c:\projects\paindrain\arduinolcd\test\pain drain\libraries\lvgl\src\misc\lv_style.h ****     LV_STYLE_BASE_DIR               = 22,
 202:c:\projects\paindrain\arduinolcd\test\pain drain\libraries\lvgl\src\misc\lv_style.h ****     LV_STYLE_CLIP_CORNER            = 23,
 203:c:\projects\paindrain\arduinolcd\test\pain drain\libraries\lvgl\src\misc\lv_style.h **** 
 204:c:\projects\paindrain\arduinolcd\test\pain drain\libraries\lvgl\src\misc\lv_style.h ****     /*Group 2*/
 205:c:\projects\paindrain\arduinolcd\test\pain drain\libraries\lvgl\src\misc\lv_style.h ****     LV_STYLE_BG_COLOR               = 32,
 206:c:\projects\paindrain\arduinolcd\test\pain drain\libraries\lvgl\src\misc\lv_style.h ****     LV_STYLE_BG_OPA                 = 33,
 207:c:\projects\paindrain\arduinolcd\test\pain drain\libraries\lvgl\src\misc\lv_style.h ****     LV_STYLE_BG_GRAD_COLOR          = 34,
 208:c:\projects\paindrain\arduinolcd\test\pain drain\libraries\lvgl\src\misc\lv_style.h ****     LV_STYLE_BG_GRAD_DIR            = 35,
 209:c:\projects\paindrain\arduinolcd\test\pain drain\libraries\lvgl\src\misc\lv_style.h ****     LV_STYLE_BG_MAIN_STOP           = 36,
 210:c:\projects\paindrain\arduinolcd\test\pain drain\libraries\lvgl\src\misc\lv_style.h ****     LV_STYLE_BG_GRAD_STOP           = 37,
 211:c:\projects\paindrain\arduinolcd\test\pain drain\libraries\lvgl\src\misc\lv_style.h ****     LV_STYLE_BG_GRAD                = 38,
 212:c:\projects\paindrain\arduinolcd\test\pain drain\libraries\lvgl\src\misc\lv_style.h ****     LV_STYLE_BG_DITHER_MODE         = 39,
 213:c:\projects\paindrain\arduinolcd\test\pain drain\libraries\lvgl\src\misc\lv_style.h ****     LV_STYLE_BG_IMG_SRC             = 40,
 214:c:\projects\paindrain\arduinolcd\test\pain drain\libraries\lvgl\src\misc\lv_style.h ****     LV_STYLE_BG_IMG_OPA             = 41,
 215:c:\projects\paindrain\arduinolcd\test\pain drain\libraries\lvgl\src\misc\lv_style.h ****     LV_STYLE_BG_IMG_RECOLOR         = 42,
 216:c:\projects\paindrain\arduinolcd\test\pain drain\libraries\lvgl\src\misc\lv_style.h ****     LV_STYLE_BG_IMG_RECOLOR_OPA     = 43,
ARM GAS  C:\Users\haske\AppData\Local\Temp\ccSAQWsX.s 			page 55


 217:c:\projects\paindrain\arduinolcd\test\pain drain\libraries\lvgl\src\misc\lv_style.h ****     LV_STYLE_BG_IMG_TILED           = 44,
 218:c:\projects\paindrain\arduinolcd\test\pain drain\libraries\lvgl\src\misc\lv_style.h **** 
 219:c:\projects\paindrain\arduinolcd\test\pain drain\libraries\lvgl\src\misc\lv_style.h ****     /*Group 3*/
 220:c:\projects\paindrain\arduinolcd\test\pain drain\libraries\lvgl\src\misc\lv_style.h ****     LV_STYLE_BORDER_COLOR           = 48,
 221:c:\projects\paindrain\arduinolcd\test\pain drain\libraries\lvgl\src\misc\lv_style.h ****     LV_STYLE_BORDER_OPA             = 49,
 222:c:\projects\paindrain\arduinolcd\test\pain drain\libraries\lvgl\src\misc\lv_style.h ****     LV_STYLE_BORDER_WIDTH           = 50,
 223:c:\projects\paindrain\arduinolcd\test\pain drain\libraries\lvgl\src\misc\lv_style.h ****     LV_STYLE_BORDER_SIDE            = 51,
 224:c:\projects\paindrain\arduinolcd\test\pain drain\libraries\lvgl\src\misc\lv_style.h ****     LV_STYLE_BORDER_POST            = 52,
 225:c:\projects\paindrain\arduinolcd\test\pain drain\libraries\lvgl\src\misc\lv_style.h ****     LV_STYLE_OUTLINE_WIDTH          = 53,
 226:c:\projects\paindrain\arduinolcd\test\pain drain\libraries\lvgl\src\misc\lv_style.h ****     LV_STYLE_OUTLINE_COLOR          = 54,
 227:c:\projects\paindrain\arduinolcd\test\pain drain\libraries\lvgl\src\misc\lv_style.h ****     LV_STYLE_OUTLINE_OPA            = 55,
 228:c:\projects\paindrain\arduinolcd\test\pain drain\libraries\lvgl\src\misc\lv_style.h ****     LV_STYLE_OUTLINE_PAD            = 56,
 229:c:\projects\paindrain\arduinolcd\test\pain drain\libraries\lvgl\src\misc\lv_style.h **** 
 230:c:\projects\paindrain\arduinolcd\test\pain drain\libraries\lvgl\src\misc\lv_style.h ****     /*Group 4*/
 231:c:\projects\paindrain\arduinolcd\test\pain drain\libraries\lvgl\src\misc\lv_style.h ****     LV_STYLE_SHADOW_WIDTH           = 64,
 232:c:\projects\paindrain\arduinolcd\test\pain drain\libraries\lvgl\src\misc\lv_style.h ****     LV_STYLE_SHADOW_OFS_X           = 65,
 233:c:\projects\paindrain\arduinolcd\test\pain drain\libraries\lvgl\src\misc\lv_style.h ****     LV_STYLE_SHADOW_OFS_Y           = 66,
 234:c:\projects\paindrain\arduinolcd\test\pain drain\libraries\lvgl\src\misc\lv_style.h ****     LV_STYLE_SHADOW_SPREAD          = 67,
 235:c:\projects\paindrain\arduinolcd\test\pain drain\libraries\lvgl\src\misc\lv_style.h ****     LV_STYLE_SHADOW_COLOR           = 68,
 236:c:\projects\paindrain\arduinolcd\test\pain drain\libraries\lvgl\src\misc\lv_style.h ****     LV_STYLE_SHADOW_OPA             = 69,
 237:c:\projects\paindrain\arduinolcd\test\pain drain\libraries\lvgl\src\misc\lv_style.h ****     LV_STYLE_IMG_OPA                = 70,
 238:c:\projects\paindrain\arduinolcd\test\pain drain\libraries\lvgl\src\misc\lv_style.h ****     LV_STYLE_IMG_RECOLOR            = 71,
 239:c:\projects\paindrain\arduinolcd\test\pain drain\libraries\lvgl\src\misc\lv_style.h ****     LV_STYLE_IMG_RECOLOR_OPA        = 72,
 240:c:\projects\paindrain\arduinolcd\test\pain drain\libraries\lvgl\src\misc\lv_style.h ****     LV_STYLE_LINE_WIDTH             = 73,
 241:c:\projects\paindrain\arduinolcd\test\pain drain\libraries\lvgl\src\misc\lv_style.h ****     LV_STYLE_LINE_DASH_WIDTH        = 74,
 242:c:\projects\paindrain\arduinolcd\test\pain drain\libraries\lvgl\src\misc\lv_style.h ****     LV_STYLE_LINE_DASH_GAP          = 75,
 243:c:\projects\paindrain\arduinolcd\test\pain drain\libraries\lvgl\src\misc\lv_style.h ****     LV_STYLE_LINE_ROUNDED           = 76,
 244:c:\projects\paindrain\arduinolcd\test\pain drain\libraries\lvgl\src\misc\lv_style.h ****     LV_STYLE_LINE_COLOR             = 77,
 245:c:\projects\paindrain\arduinolcd\test\pain drain\libraries\lvgl\src\misc\lv_style.h ****     LV_STYLE_LINE_OPA               = 78,
 246:c:\projects\paindrain\arduinolcd\test\pain drain\libraries\lvgl\src\misc\lv_style.h **** 
 247:c:\projects\paindrain\arduinolcd\test\pain drain\libraries\lvgl\src\misc\lv_style.h ****     /*Group 5*/
 248:c:\projects\paindrain\arduinolcd\test\pain drain\libraries\lvgl\src\misc\lv_style.h ****     LV_STYLE_ARC_WIDTH              = 80,
 249:c:\projects\paindrain\arduinolcd\test\pain drain\libraries\lvgl\src\misc\lv_style.h ****     LV_STYLE_ARC_ROUNDED            = 81,
 250:c:\projects\paindrain\arduinolcd\test\pain drain\libraries\lvgl\src\misc\lv_style.h ****     LV_STYLE_ARC_COLOR              = 82,
 251:c:\projects\paindrain\arduinolcd\test\pain drain\libraries\lvgl\src\misc\lv_style.h ****     LV_STYLE_ARC_OPA                = 83,
 252:c:\projects\paindrain\arduinolcd\test\pain drain\libraries\lvgl\src\misc\lv_style.h ****     LV_STYLE_ARC_IMG_SRC            = 84,
 253:c:\projects\paindrain\arduinolcd\test\pain drain\libraries\lvgl\src\misc\lv_style.h ****     LV_STYLE_TEXT_COLOR             = 85,
 254:c:\projects\paindrain\arduinolcd\test\pain drain\libraries\lvgl\src\misc\lv_style.h ****     LV_STYLE_TEXT_OPA               = 86,
 255:c:\projects\paindrain\arduinolcd\test\pain drain\libraries\lvgl\src\misc\lv_style.h ****     LV_STYLE_TEXT_FONT              = 87,
 256:c:\projects\paindrain\arduinolcd\test\pain drain\libraries\lvgl\src\misc\lv_style.h ****     LV_STYLE_TEXT_LETTER_SPACE      = 88,
 257:c:\projects\paindrain\arduinolcd\test\pain drain\libraries\lvgl\src\misc\lv_style.h ****     LV_STYLE_TEXT_LINE_SPACE        = 89,
 258:c:\projects\paindrain\arduinolcd\test\pain drain\libraries\lvgl\src\misc\lv_style.h ****     LV_STYLE_TEXT_DECOR             = 90,
 259:c:\projects\paindrain\arduinolcd\test\pain drain\libraries\lvgl\src\misc\lv_style.h ****     LV_STYLE_TEXT_ALIGN             = 91,
 260:c:\projects\paindrain\arduinolcd\test\pain drain\libraries\lvgl\src\misc\lv_style.h **** 
 261:c:\projects\paindrain\arduinolcd\test\pain drain\libraries\lvgl\src\misc\lv_style.h ****     /*Group 6*/
 262:c:\projects\paindrain\arduinolcd\test\pain drain\libraries\lvgl\src\misc\lv_style.h ****     LV_STYLE_OPA                    = 96,
 263:c:\projects\paindrain\arduinolcd\test\pain drain\libraries\lvgl\src\misc\lv_style.h ****     LV_STYLE_COLOR_FILTER_DSC       = 97,
 264:c:\projects\paindrain\arduinolcd\test\pain drain\libraries\lvgl\src\misc\lv_style.h ****     LV_STYLE_COLOR_FILTER_OPA       = 98,
 265:c:\projects\paindrain\arduinolcd\test\pain drain\libraries\lvgl\src\misc\lv_style.h ****     LV_STYLE_ANIM                   = 99,
 266:c:\projects\paindrain\arduinolcd\test\pain drain\libraries\lvgl\src\misc\lv_style.h ****     LV_STYLE_ANIM_TIME              = 100,
 267:c:\projects\paindrain\arduinolcd\test\pain drain\libraries\lvgl\src\misc\lv_style.h ****     LV_STYLE_ANIM_SPEED             = 101,
 268:c:\projects\paindrain\arduinolcd\test\pain drain\libraries\lvgl\src\misc\lv_style.h ****     LV_STYLE_TRANSITION             = 102,
 269:c:\projects\paindrain\arduinolcd\test\pain drain\libraries\lvgl\src\misc\lv_style.h ****     LV_STYLE_BLEND_MODE             = 103,
 270:c:\projects\paindrain\arduinolcd\test\pain drain\libraries\lvgl\src\misc\lv_style.h ****     LV_STYLE_TRANSFORM_WIDTH        = 104,
 271:c:\projects\paindrain\arduinolcd\test\pain drain\libraries\lvgl\src\misc\lv_style.h ****     LV_STYLE_TRANSFORM_HEIGHT       = 105,
 272:c:\projects\paindrain\arduinolcd\test\pain drain\libraries\lvgl\src\misc\lv_style.h ****     LV_STYLE_TRANSLATE_X            = 106,
 273:c:\projects\paindrain\arduinolcd\test\pain drain\libraries\lvgl\src\misc\lv_style.h ****     LV_STYLE_TRANSLATE_Y            = 107,
ARM GAS  C:\Users\haske\AppData\Local\Temp\ccSAQWsX.s 			page 56


 274:c:\projects\paindrain\arduinolcd\test\pain drain\libraries\lvgl\src\misc\lv_style.h ****     LV_STYLE_TRANSFORM_ZOOM         = 108,
 275:c:\projects\paindrain\arduinolcd\test\pain drain\libraries\lvgl\src\misc\lv_style.h ****     LV_STYLE_TRANSFORM_ANGLE        = 109,
 276:c:\projects\paindrain\arduinolcd\test\pain drain\libraries\lvgl\src\misc\lv_style.h ****     LV_STYLE_TRANSFORM_PIVOT_X      = 110,
 277:c:\projects\paindrain\arduinolcd\test\pain drain\libraries\lvgl\src\misc\lv_style.h ****     LV_STYLE_TRANSFORM_PIVOT_Y      = 111,
 278:c:\projects\paindrain\arduinolcd\test\pain drain\libraries\lvgl\src\misc\lv_style.h **** 
 279:c:\projects\paindrain\arduinolcd\test\pain drain\libraries\lvgl\src\misc\lv_style.h ****     _LV_STYLE_LAST_BUILT_IN_PROP     = 111,
 280:c:\projects\paindrain\arduinolcd\test\pain drain\libraries\lvgl\src\misc\lv_style.h ****     _LV_STYLE_NUM_BUILT_IN_PROPS     = _LV_STYLE_LAST_BUILT_IN_PROP + 1,
 281:c:\projects\paindrain\arduinolcd\test\pain drain\libraries\lvgl\src\misc\lv_style.h **** 
 282:c:\projects\paindrain\arduinolcd\test\pain drain\libraries\lvgl\src\misc\lv_style.h ****     LV_STYLE_PROP_ANY                = 0xFFFF,
 283:c:\projects\paindrain\arduinolcd\test\pain drain\libraries\lvgl\src\misc\lv_style.h ****     _LV_STYLE_PROP_CONST             = 0xFFFF /* magic value for const styles */
 284:c:\projects\paindrain\arduinolcd\test\pain drain\libraries\lvgl\src\misc\lv_style.h **** } lv_style_prop_t;
 285:c:\projects\paindrain\arduinolcd\test\pain drain\libraries\lvgl\src\misc\lv_style.h **** 
 286:c:\projects\paindrain\arduinolcd\test\pain drain\libraries\lvgl\src\misc\lv_style.h **** enum {
 287:c:\projects\paindrain\arduinolcd\test\pain drain\libraries\lvgl\src\misc\lv_style.h ****     LV_STYLE_RES_NOT_FOUND,
 288:c:\projects\paindrain\arduinolcd\test\pain drain\libraries\lvgl\src\misc\lv_style.h ****     LV_STYLE_RES_FOUND,
 289:c:\projects\paindrain\arduinolcd\test\pain drain\libraries\lvgl\src\misc\lv_style.h ****     LV_STYLE_RES_INHERIT
 290:c:\projects\paindrain\arduinolcd\test\pain drain\libraries\lvgl\src\misc\lv_style.h **** };
 291:c:\projects\paindrain\arduinolcd\test\pain drain\libraries\lvgl\src\misc\lv_style.h **** 
 292:c:\projects\paindrain\arduinolcd\test\pain drain\libraries\lvgl\src\misc\lv_style.h **** typedef uint8_t lv_style_res_t;
 293:c:\projects\paindrain\arduinolcd\test\pain drain\libraries\lvgl\src\misc\lv_style.h **** 
 294:c:\projects\paindrain\arduinolcd\test\pain drain\libraries\lvgl\src\misc\lv_style.h **** /**
 295:c:\projects\paindrain\arduinolcd\test\pain drain\libraries\lvgl\src\misc\lv_style.h ****  * Descriptor for style transitions
 296:c:\projects\paindrain\arduinolcd\test\pain drain\libraries\lvgl\src\misc\lv_style.h ****  */
 297:c:\projects\paindrain\arduinolcd\test\pain drain\libraries\lvgl\src\misc\lv_style.h **** typedef struct {
 298:c:\projects\paindrain\arduinolcd\test\pain drain\libraries\lvgl\src\misc\lv_style.h ****     const lv_style_prop_t * props; /**< An array with the properties to animate.*/
 299:c:\projects\paindrain\arduinolcd\test\pain drain\libraries\lvgl\src\misc\lv_style.h **** #if LV_USE_USER_DATA
