ARM GAS  C:\Users\haske\AppData\Local\Temp\ccyibBJU.s 			page 1


   1              		.syntax unified
   2              		.cpu cortex-m0plus
   3              		.fpu softvfp
   4              		.eabi_attribute 20, 1
   5              		.eabi_attribute 21, 1
   6              		.eabi_attribute 23, 3
   7              		.eabi_attribute 24, 1
   8              		.eabi_attribute 25, 1
   9              		.eabi_attribute 26, 1
  10              		.eabi_attribute 30, 1
  11              		.eabi_attribute 34, 0
  12              		.eabi_attribute 18, 4
  13              		.thumb
  14              		.syntax unified
  15              		.file	"lv_tileview.c"
  16              		.text
  17              	.Ltext0:
  18              		.cfi_sections	.debug_frame
  19              		.section	.text.lv_tileview_constructor,"ax",%progbits
  20              		.align	2
  21              		.code	16
  22              		.thumb_func
  23              		.type	lv_tileview_constructor, %function
  24              	lv_tileview_constructor:
  25              	.LFB164:
  26              		.file 1 "..\\..\\..\\arduinoLCD\\test\\Pain Drain\\libraries\\lvgl\\src\\extra\\widgets\\tileview\
   1:..\..\..\arduinoLCD\test\Pain Drain\libraries\lvgl\src\extra\widgets\tileview/lv_tileview.c **** /**
   2:..\..\..\arduinoLCD\test\Pain Drain\libraries\lvgl\src\extra\widgets\tileview/lv_tileview.c ****  * @file lv_tileview.c
   3:..\..\..\arduinoLCD\test\Pain Drain\libraries\lvgl\src\extra\widgets\tileview/lv_tileview.c ****  *
   4:..\..\..\arduinoLCD\test\Pain Drain\libraries\lvgl\src\extra\widgets\tileview/lv_tileview.c ****  */
   5:..\..\..\arduinoLCD\test\Pain Drain\libraries\lvgl\src\extra\widgets\tileview/lv_tileview.c **** 
   6:..\..\..\arduinoLCD\test\Pain Drain\libraries\lvgl\src\extra\widgets\tileview/lv_tileview.c **** /*********************
   7:..\..\..\arduinoLCD\test\Pain Drain\libraries\lvgl\src\extra\widgets\tileview/lv_tileview.c ****  *      INCLUDES
   8:..\..\..\arduinoLCD\test\Pain Drain\libraries\lvgl\src\extra\widgets\tileview/lv_tileview.c ****  *********************/
   9:..\..\..\arduinoLCD\test\Pain Drain\libraries\lvgl\src\extra\widgets\tileview/lv_tileview.c **** #include "lv_tileview.h"
  10:..\..\..\arduinoLCD\test\Pain Drain\libraries\lvgl\src\extra\widgets\tileview/lv_tileview.c **** #include "../../../core/lv_indev.h"
  11:..\..\..\arduinoLCD\test\Pain Drain\libraries\lvgl\src\extra\widgets\tileview/lv_tileview.c **** #if LV_USE_TILEVIEW
  12:..\..\..\arduinoLCD\test\Pain Drain\libraries\lvgl\src\extra\widgets\tileview/lv_tileview.c **** 
  13:..\..\..\arduinoLCD\test\Pain Drain\libraries\lvgl\src\extra\widgets\tileview/lv_tileview.c **** /*********************
  14:..\..\..\arduinoLCD\test\Pain Drain\libraries\lvgl\src\extra\widgets\tileview/lv_tileview.c ****  *      DEFINES
  15:..\..\..\arduinoLCD\test\Pain Drain\libraries\lvgl\src\extra\widgets\tileview/lv_tileview.c ****  *********************/
  16:..\..\..\arduinoLCD\test\Pain Drain\libraries\lvgl\src\extra\widgets\tileview/lv_tileview.c **** 
  17:..\..\..\arduinoLCD\test\Pain Drain\libraries\lvgl\src\extra\widgets\tileview/lv_tileview.c **** /**********************
  18:..\..\..\arduinoLCD\test\Pain Drain\libraries\lvgl\src\extra\widgets\tileview/lv_tileview.c ****  *      TYPEDEFS
  19:..\..\..\arduinoLCD\test\Pain Drain\libraries\lvgl\src\extra\widgets\tileview/lv_tileview.c ****  **********************/
  20:..\..\..\arduinoLCD\test\Pain Drain\libraries\lvgl\src\extra\widgets\tileview/lv_tileview.c **** 
  21:..\..\..\arduinoLCD\test\Pain Drain\libraries\lvgl\src\extra\widgets\tileview/lv_tileview.c **** /**********************
  22:..\..\..\arduinoLCD\test\Pain Drain\libraries\lvgl\src\extra\widgets\tileview/lv_tileview.c ****  *  STATIC PROTOTYPES
  23:..\..\..\arduinoLCD\test\Pain Drain\libraries\lvgl\src\extra\widgets\tileview/lv_tileview.c ****  **********************/
  24:..\..\..\arduinoLCD\test\Pain Drain\libraries\lvgl\src\extra\widgets\tileview/lv_tileview.c **** static void lv_tileview_constructor(const lv_obj_class_t * class_p, lv_obj_t * obj);
  25:..\..\..\arduinoLCD\test\Pain Drain\libraries\lvgl\src\extra\widgets\tileview/lv_tileview.c **** static void lv_tileview_tile_constructor(const lv_obj_class_t * class_p, lv_obj_t * obj);
  26:..\..\..\arduinoLCD\test\Pain Drain\libraries\lvgl\src\extra\widgets\tileview/lv_tileview.c **** static void tileview_event_cb(lv_event_t * e);
  27:..\..\..\arduinoLCD\test\Pain Drain\libraries\lvgl\src\extra\widgets\tileview/lv_tileview.c **** 
  28:..\..\..\arduinoLCD\test\Pain Drain\libraries\lvgl\src\extra\widgets\tileview/lv_tileview.c **** /**********************
  29:..\..\..\arduinoLCD\test\Pain Drain\libraries\lvgl\src\extra\widgets\tileview/lv_tileview.c ****  *  STATIC VARIABLES
  30:..\..\..\arduinoLCD\test\Pain Drain\libraries\lvgl\src\extra\widgets\tileview/lv_tileview.c ****  **********************/
  31:..\..\..\arduinoLCD\test\Pain Drain\libraries\lvgl\src\extra\widgets\tileview/lv_tileview.c **** 
ARM GAS  C:\Users\haske\AppData\Local\Temp\ccyibBJU.s 			page 2


  32:..\..\..\arduinoLCD\test\Pain Drain\libraries\lvgl\src\extra\widgets\tileview/lv_tileview.c **** const lv_obj_class_t lv_tileview_class = {.constructor_cb = lv_tileview_constructor,
  33:..\..\..\arduinoLCD\test\Pain Drain\libraries\lvgl\src\extra\widgets\tileview/lv_tileview.c ****                                           .base_class = &lv_obj_class,
  34:..\..\..\arduinoLCD\test\Pain Drain\libraries\lvgl\src\extra\widgets\tileview/lv_tileview.c ****                                           .instance_size = sizeof(lv_tileview_t)
  35:..\..\..\arduinoLCD\test\Pain Drain\libraries\lvgl\src\extra\widgets\tileview/lv_tileview.c ****                                          };
  36:..\..\..\arduinoLCD\test\Pain Drain\libraries\lvgl\src\extra\widgets\tileview/lv_tileview.c **** 
  37:..\..\..\arduinoLCD\test\Pain Drain\libraries\lvgl\src\extra\widgets\tileview/lv_tileview.c **** const lv_obj_class_t lv_tileview_tile_class = {.constructor_cb = lv_tileview_tile_constructor,
  38:..\..\..\arduinoLCD\test\Pain Drain\libraries\lvgl\src\extra\widgets\tileview/lv_tileview.c ****                                                .base_class = &lv_obj_class,
  39:..\..\..\arduinoLCD\test\Pain Drain\libraries\lvgl\src\extra\widgets\tileview/lv_tileview.c ****                                                .instance_size = sizeof(lv_tileview_tile_t)
  40:..\..\..\arduinoLCD\test\Pain Drain\libraries\lvgl\src\extra\widgets\tileview/lv_tileview.c ****                                               };
  41:..\..\..\arduinoLCD\test\Pain Drain\libraries\lvgl\src\extra\widgets\tileview/lv_tileview.c **** 
  42:..\..\..\arduinoLCD\test\Pain Drain\libraries\lvgl\src\extra\widgets\tileview/lv_tileview.c **** static lv_dir_t create_dir;
  43:..\..\..\arduinoLCD\test\Pain Drain\libraries\lvgl\src\extra\widgets\tileview/lv_tileview.c **** static uint32_t create_col_id;
  44:..\..\..\arduinoLCD\test\Pain Drain\libraries\lvgl\src\extra\widgets\tileview/lv_tileview.c **** static uint32_t create_row_id;
  45:..\..\..\arduinoLCD\test\Pain Drain\libraries\lvgl\src\extra\widgets\tileview/lv_tileview.c **** 
  46:..\..\..\arduinoLCD\test\Pain Drain\libraries\lvgl\src\extra\widgets\tileview/lv_tileview.c **** /**********************
  47:..\..\..\arduinoLCD\test\Pain Drain\libraries\lvgl\src\extra\widgets\tileview/lv_tileview.c ****  *      MACROS
  48:..\..\..\arduinoLCD\test\Pain Drain\libraries\lvgl\src\extra\widgets\tileview/lv_tileview.c ****  **********************/
  49:..\..\..\arduinoLCD\test\Pain Drain\libraries\lvgl\src\extra\widgets\tileview/lv_tileview.c **** 
  50:..\..\..\arduinoLCD\test\Pain Drain\libraries\lvgl\src\extra\widgets\tileview/lv_tileview.c **** /**********************
  51:..\..\..\arduinoLCD\test\Pain Drain\libraries\lvgl\src\extra\widgets\tileview/lv_tileview.c ****  *   GLOBAL FUNCTIONS
  52:..\..\..\arduinoLCD\test\Pain Drain\libraries\lvgl\src\extra\widgets\tileview/lv_tileview.c ****  **********************/
  53:..\..\..\arduinoLCD\test\Pain Drain\libraries\lvgl\src\extra\widgets\tileview/lv_tileview.c **** 
  54:..\..\..\arduinoLCD\test\Pain Drain\libraries\lvgl\src\extra\widgets\tileview/lv_tileview.c **** lv_obj_t * lv_tileview_create(lv_obj_t * parent)
  55:..\..\..\arduinoLCD\test\Pain Drain\libraries\lvgl\src\extra\widgets\tileview/lv_tileview.c **** {
  56:..\..\..\arduinoLCD\test\Pain Drain\libraries\lvgl\src\extra\widgets\tileview/lv_tileview.c ****     LV_LOG_INFO("begin");
  57:..\..\..\arduinoLCD\test\Pain Drain\libraries\lvgl\src\extra\widgets\tileview/lv_tileview.c ****     lv_obj_t * obj = lv_obj_class_create_obj(&lv_tileview_class, parent);
  58:..\..\..\arduinoLCD\test\Pain Drain\libraries\lvgl\src\extra\widgets\tileview/lv_tileview.c ****     lv_obj_class_init_obj(obj);
  59:..\..\..\arduinoLCD\test\Pain Drain\libraries\lvgl\src\extra\widgets\tileview/lv_tileview.c ****     return obj;
  60:..\..\..\arduinoLCD\test\Pain Drain\libraries\lvgl\src\extra\widgets\tileview/lv_tileview.c **** }
  61:..\..\..\arduinoLCD\test\Pain Drain\libraries\lvgl\src\extra\widgets\tileview/lv_tileview.c **** 
  62:..\..\..\arduinoLCD\test\Pain Drain\libraries\lvgl\src\extra\widgets\tileview/lv_tileview.c **** /*======================
  63:..\..\..\arduinoLCD\test\Pain Drain\libraries\lvgl\src\extra\widgets\tileview/lv_tileview.c ****  * Add/remove functions
  64:..\..\..\arduinoLCD\test\Pain Drain\libraries\lvgl\src\extra\widgets\tileview/lv_tileview.c ****  *=====================*/
  65:..\..\..\arduinoLCD\test\Pain Drain\libraries\lvgl\src\extra\widgets\tileview/lv_tileview.c **** 
  66:..\..\..\arduinoLCD\test\Pain Drain\libraries\lvgl\src\extra\widgets\tileview/lv_tileview.c **** lv_obj_t * lv_tileview_add_tile(lv_obj_t * tv, uint8_t col_id, uint8_t row_id, lv_dir_t dir)
  67:..\..\..\arduinoLCD\test\Pain Drain\libraries\lvgl\src\extra\widgets\tileview/lv_tileview.c **** {
  68:..\..\..\arduinoLCD\test\Pain Drain\libraries\lvgl\src\extra\widgets\tileview/lv_tileview.c ****     LV_LOG_INFO("begin");
  69:..\..\..\arduinoLCD\test\Pain Drain\libraries\lvgl\src\extra\widgets\tileview/lv_tileview.c ****     create_dir = dir;
  70:..\..\..\arduinoLCD\test\Pain Drain\libraries\lvgl\src\extra\widgets\tileview/lv_tileview.c ****     create_col_id = col_id;
  71:..\..\..\arduinoLCD\test\Pain Drain\libraries\lvgl\src\extra\widgets\tileview/lv_tileview.c ****     create_row_id = row_id;
  72:..\..\..\arduinoLCD\test\Pain Drain\libraries\lvgl\src\extra\widgets\tileview/lv_tileview.c **** 
  73:..\..\..\arduinoLCD\test\Pain Drain\libraries\lvgl\src\extra\widgets\tileview/lv_tileview.c ****     lv_obj_t * obj = lv_obj_class_create_obj(&lv_tileview_tile_class, tv);
  74:..\..\..\arduinoLCD\test\Pain Drain\libraries\lvgl\src\extra\widgets\tileview/lv_tileview.c ****     lv_obj_class_init_obj(obj);
  75:..\..\..\arduinoLCD\test\Pain Drain\libraries\lvgl\src\extra\widgets\tileview/lv_tileview.c ****     return obj;
  76:..\..\..\arduinoLCD\test\Pain Drain\libraries\lvgl\src\extra\widgets\tileview/lv_tileview.c **** }
  77:..\..\..\arduinoLCD\test\Pain Drain\libraries\lvgl\src\extra\widgets\tileview/lv_tileview.c **** 
  78:..\..\..\arduinoLCD\test\Pain Drain\libraries\lvgl\src\extra\widgets\tileview/lv_tileview.c **** void lv_obj_set_tile(lv_obj_t * obj, lv_obj_t * tile_obj, lv_anim_enable_t anim_en)
  79:..\..\..\arduinoLCD\test\Pain Drain\libraries\lvgl\src\extra\widgets\tileview/lv_tileview.c **** {
  80:..\..\..\arduinoLCD\test\Pain Drain\libraries\lvgl\src\extra\widgets\tileview/lv_tileview.c ****     lv_coord_t tx = lv_obj_get_x(tile_obj);
  81:..\..\..\arduinoLCD\test\Pain Drain\libraries\lvgl\src\extra\widgets\tileview/lv_tileview.c ****     lv_coord_t ty = lv_obj_get_y(tile_obj);
  82:..\..\..\arduinoLCD\test\Pain Drain\libraries\lvgl\src\extra\widgets\tileview/lv_tileview.c **** 
  83:..\..\..\arduinoLCD\test\Pain Drain\libraries\lvgl\src\extra\widgets\tileview/lv_tileview.c ****     lv_tileview_tile_t * tile = (lv_tileview_tile_t *)tile_obj;
  84:..\..\..\arduinoLCD\test\Pain Drain\libraries\lvgl\src\extra\widgets\tileview/lv_tileview.c ****     lv_tileview_t * tv = (lv_tileview_t *) obj;
  85:..\..\..\arduinoLCD\test\Pain Drain\libraries\lvgl\src\extra\widgets\tileview/lv_tileview.c ****     tv->tile_act = (lv_obj_t *)tile;
  86:..\..\..\arduinoLCD\test\Pain Drain\libraries\lvgl\src\extra\widgets\tileview/lv_tileview.c **** 
  87:..\..\..\arduinoLCD\test\Pain Drain\libraries\lvgl\src\extra\widgets\tileview/lv_tileview.c ****     lv_obj_set_scroll_dir(obj, tile->dir);
  88:..\..\..\arduinoLCD\test\Pain Drain\libraries\lvgl\src\extra\widgets\tileview/lv_tileview.c ****     lv_obj_scroll_to(obj, tx, ty, anim_en);
ARM GAS  C:\Users\haske\AppData\Local\Temp\ccyibBJU.s 			page 3


  89:..\..\..\arduinoLCD\test\Pain Drain\libraries\lvgl\src\extra\widgets\tileview/lv_tileview.c **** }
  90:..\..\..\arduinoLCD\test\Pain Drain\libraries\lvgl\src\extra\widgets\tileview/lv_tileview.c **** 
  91:..\..\..\arduinoLCD\test\Pain Drain\libraries\lvgl\src\extra\widgets\tileview/lv_tileview.c **** void lv_obj_set_tile_id(lv_obj_t * tv, uint32_t col_id, uint32_t row_id, lv_anim_enable_t anim_en)
  92:..\..\..\arduinoLCD\test\Pain Drain\libraries\lvgl\src\extra\widgets\tileview/lv_tileview.c **** {
  93:..\..\..\arduinoLCD\test\Pain Drain\libraries\lvgl\src\extra\widgets\tileview/lv_tileview.c ****     lv_obj_update_layout(tv);
  94:..\..\..\arduinoLCD\test\Pain Drain\libraries\lvgl\src\extra\widgets\tileview/lv_tileview.c **** 
  95:..\..\..\arduinoLCD\test\Pain Drain\libraries\lvgl\src\extra\widgets\tileview/lv_tileview.c ****     lv_coord_t w = lv_obj_get_content_width(tv);
  96:..\..\..\arduinoLCD\test\Pain Drain\libraries\lvgl\src\extra\widgets\tileview/lv_tileview.c ****     lv_coord_t h = lv_obj_get_content_height(tv);
  97:..\..\..\arduinoLCD\test\Pain Drain\libraries\lvgl\src\extra\widgets\tileview/lv_tileview.c **** 
  98:..\..\..\arduinoLCD\test\Pain Drain\libraries\lvgl\src\extra\widgets\tileview/lv_tileview.c ****     lv_coord_t tx = col_id * w;
  99:..\..\..\arduinoLCD\test\Pain Drain\libraries\lvgl\src\extra\widgets\tileview/lv_tileview.c ****     lv_coord_t ty = row_id * h;
 100:..\..\..\arduinoLCD\test\Pain Drain\libraries\lvgl\src\extra\widgets\tileview/lv_tileview.c **** 
 101:..\..\..\arduinoLCD\test\Pain Drain\libraries\lvgl\src\extra\widgets\tileview/lv_tileview.c ****     uint32_t i;
 102:..\..\..\arduinoLCD\test\Pain Drain\libraries\lvgl\src\extra\widgets\tileview/lv_tileview.c ****     for(i = 0; i < lv_obj_get_child_cnt(tv); i++) {
 103:..\..\..\arduinoLCD\test\Pain Drain\libraries\lvgl\src\extra\widgets\tileview/lv_tileview.c ****         lv_obj_t * tile_obj = lv_obj_get_child(tv, i);
 104:..\..\..\arduinoLCD\test\Pain Drain\libraries\lvgl\src\extra\widgets\tileview/lv_tileview.c ****         lv_coord_t x = lv_obj_get_x(tile_obj);
 105:..\..\..\arduinoLCD\test\Pain Drain\libraries\lvgl\src\extra\widgets\tileview/lv_tileview.c ****         lv_coord_t y = lv_obj_get_y(tile_obj);
 106:..\..\..\arduinoLCD\test\Pain Drain\libraries\lvgl\src\extra\widgets\tileview/lv_tileview.c ****         if(x == tx && y == ty) {
 107:..\..\..\arduinoLCD\test\Pain Drain\libraries\lvgl\src\extra\widgets\tileview/lv_tileview.c ****             lv_obj_set_tile(tv, tile_obj, anim_en);
 108:..\..\..\arduinoLCD\test\Pain Drain\libraries\lvgl\src\extra\widgets\tileview/lv_tileview.c ****             return;
 109:..\..\..\arduinoLCD\test\Pain Drain\libraries\lvgl\src\extra\widgets\tileview/lv_tileview.c ****         }
 110:..\..\..\arduinoLCD\test\Pain Drain\libraries\lvgl\src\extra\widgets\tileview/lv_tileview.c ****     }
 111:..\..\..\arduinoLCD\test\Pain Drain\libraries\lvgl\src\extra\widgets\tileview/lv_tileview.c **** 
 112:..\..\..\arduinoLCD\test\Pain Drain\libraries\lvgl\src\extra\widgets\tileview/lv_tileview.c ****     LV_LOG_WARN("No tile found with at (%d,%d) index", (int)col_id, (int)row_id);
 113:..\..\..\arduinoLCD\test\Pain Drain\libraries\lvgl\src\extra\widgets\tileview/lv_tileview.c **** }
 114:..\..\..\arduinoLCD\test\Pain Drain\libraries\lvgl\src\extra\widgets\tileview/lv_tileview.c **** 
 115:..\..\..\arduinoLCD\test\Pain Drain\libraries\lvgl\src\extra\widgets\tileview/lv_tileview.c **** lv_obj_t * lv_tileview_get_tile_act(lv_obj_t * obj)
 116:..\..\..\arduinoLCD\test\Pain Drain\libraries\lvgl\src\extra\widgets\tileview/lv_tileview.c **** {
 117:..\..\..\arduinoLCD\test\Pain Drain\libraries\lvgl\src\extra\widgets\tileview/lv_tileview.c ****     lv_tileview_t * tv = (lv_tileview_t *) obj;
 118:..\..\..\arduinoLCD\test\Pain Drain\libraries\lvgl\src\extra\widgets\tileview/lv_tileview.c ****     return tv->tile_act;
 119:..\..\..\arduinoLCD\test\Pain Drain\libraries\lvgl\src\extra\widgets\tileview/lv_tileview.c **** }
 120:..\..\..\arduinoLCD\test\Pain Drain\libraries\lvgl\src\extra\widgets\tileview/lv_tileview.c **** 
 121:..\..\..\arduinoLCD\test\Pain Drain\libraries\lvgl\src\extra\widgets\tileview/lv_tileview.c **** /**********************
 122:..\..\..\arduinoLCD\test\Pain Drain\libraries\lvgl\src\extra\widgets\tileview/lv_tileview.c ****  *   STATIC FUNCTIONS
 123:..\..\..\arduinoLCD\test\Pain Drain\libraries\lvgl\src\extra\widgets\tileview/lv_tileview.c ****  **********************/
 124:..\..\..\arduinoLCD\test\Pain Drain\libraries\lvgl\src\extra\widgets\tileview/lv_tileview.c **** 
 125:..\..\..\arduinoLCD\test\Pain Drain\libraries\lvgl\src\extra\widgets\tileview/lv_tileview.c **** static void lv_tileview_constructor(const lv_obj_class_t * class_p, lv_obj_t * obj)
 126:..\..\..\arduinoLCD\test\Pain Drain\libraries\lvgl\src\extra\widgets\tileview/lv_tileview.c **** {
  27              		.loc 1 126 0
  28              		.cfi_startproc
  29              		@ args = 0, pretend = 0, frame = 0
  30              		@ frame_needed = 0, uses_anonymous_args = 0
  31              	.LVL0:
  32 0000 10B5     		push	{r4, lr}
  33              		.cfi_def_cfa_offset 8
  34              		.cfi_offset 4, -8
  35              		.cfi_offset 14, -4
  36 0002 0C00     		movs	r4, r1
 127:..\..\..\arduinoLCD\test\Pain Drain\libraries\lvgl\src\extra\widgets\tileview/lv_tileview.c ****     LV_UNUSED(class_p);
 128:..\..\..\arduinoLCD\test\Pain Drain\libraries\lvgl\src\extra\widgets\tileview/lv_tileview.c ****     lv_obj_set_size(obj, LV_PCT(100), LV_PCT(100));
  37              		.loc 1 128 0
  38 0004 0B49     		ldr	r1, .L2
  39              	.LVL1:
  40 0006 0A00     		movs	r2, r1
  41 0008 2000     		movs	r0, r4
  42              	.LVL2:
  43 000a FFF7FEFF 		bl	lv_obj_set_size
ARM GAS  C:\Users\haske\AppData\Local\Temp\ccyibBJU.s 			page 4


  44              	.LVL3:
 129:..\..\..\arduinoLCD\test\Pain Drain\libraries\lvgl\src\extra\widgets\tileview/lv_tileview.c ****     lv_obj_add_event_cb(obj, tileview_event_cb, LV_EVENT_ALL, NULL);
  45              		.loc 1 129 0
  46 000e 0023     		movs	r3, #0
  47 0010 0022     		movs	r2, #0
  48 0012 0949     		ldr	r1, .L2+4
  49 0014 2000     		movs	r0, r4
  50 0016 FFF7FEFF 		bl	lv_obj_add_event_cb
  51              	.LVL4:
 130:..\..\..\arduinoLCD\test\Pain Drain\libraries\lvgl\src\extra\widgets\tileview/lv_tileview.c ****     lv_obj_add_flag(obj, LV_OBJ_FLAG_SCROLL_ONE);
  52              		.loc 1 130 0
  53 001a 8021     		movs	r1, #128
  54 001c 2000     		movs	r0, r4
  55 001e FFF7FEFF 		bl	lv_obj_add_flag
  56              	.LVL5:
 131:..\..\..\arduinoLCD\test\Pain Drain\libraries\lvgl\src\extra\widgets\tileview/lv_tileview.c ****     lv_obj_set_scroll_snap_x(obj, LV_SCROLL_SNAP_CENTER);
  57              		.loc 1 131 0
  58 0022 0321     		movs	r1, #3
  59 0024 2000     		movs	r0, r4
  60 0026 FFF7FEFF 		bl	lv_obj_set_scroll_snap_x
  61              	.LVL6:
 132:..\..\..\arduinoLCD\test\Pain Drain\libraries\lvgl\src\extra\widgets\tileview/lv_tileview.c ****     lv_obj_set_scroll_snap_y(obj, LV_SCROLL_SNAP_CENTER);
  62              		.loc 1 132 0
  63 002a 0321     		movs	r1, #3
  64 002c 2000     		movs	r0, r4
  65 002e FFF7FEFF 		bl	lv_obj_set_scroll_snap_y
  66              	.LVL7:
 133:..\..\..\arduinoLCD\test\Pain Drain\libraries\lvgl\src\extra\widgets\tileview/lv_tileview.c **** 
 134:..\..\..\arduinoLCD\test\Pain Drain\libraries\lvgl\src\extra\widgets\tileview/lv_tileview.c **** }
  67              		.loc 1 134 0
  68              		@ sp needed
  69              	.LVL8:
  70 0032 10BD     		pop	{r4, pc}
  71              	.L3:
  72              		.align	2
  73              	.L2:
  74 0034 64200000 		.word	8292
  75 0038 00000000 		.word	tileview_event_cb
  76              		.cfi_endproc
  77              	.LFE164:
  78              		.size	lv_tileview_constructor, .-lv_tileview_constructor
  79              		.global	__aeabi_idiv
  80              		.section	.text.tileview_event_cb,"ax",%progbits
  81              		.align	2
  82              		.code	16
  83              		.thumb_func
  84              		.type	tileview_event_cb, %function
  85              	tileview_event_cb:
  86              	.LFB166:
 135:..\..\..\arduinoLCD\test\Pain Drain\libraries\lvgl\src\extra\widgets\tileview/lv_tileview.c **** 
 136:..\..\..\arduinoLCD\test\Pain Drain\libraries\lvgl\src\extra\widgets\tileview/lv_tileview.c **** static void lv_tileview_tile_constructor(const lv_obj_class_t * class_p, lv_obj_t * obj)
 137:..\..\..\arduinoLCD\test\Pain Drain\libraries\lvgl\src\extra\widgets\tileview/lv_tileview.c **** {
 138:..\..\..\arduinoLCD\test\Pain Drain\libraries\lvgl\src\extra\widgets\tileview/lv_tileview.c **** 
 139:..\..\..\arduinoLCD\test\Pain Drain\libraries\lvgl\src\extra\widgets\tileview/lv_tileview.c ****     LV_UNUSED(class_p);
 140:..\..\..\arduinoLCD\test\Pain Drain\libraries\lvgl\src\extra\widgets\tileview/lv_tileview.c ****     lv_obj_t * parent = lv_obj_get_parent(obj);
 141:..\..\..\arduinoLCD\test\Pain Drain\libraries\lvgl\src\extra\widgets\tileview/lv_tileview.c ****     lv_obj_set_size(obj, LV_PCT(100), LV_PCT(100));
 142:..\..\..\arduinoLCD\test\Pain Drain\libraries\lvgl\src\extra\widgets\tileview/lv_tileview.c ****     lv_obj_update_layout(obj);  /*Be sure the size is correct*/
ARM GAS  C:\Users\haske\AppData\Local\Temp\ccyibBJU.s 			page 5


 143:..\..\..\arduinoLCD\test\Pain Drain\libraries\lvgl\src\extra\widgets\tileview/lv_tileview.c ****     lv_obj_set_pos(obj, create_col_id * lv_obj_get_content_width(parent),
 144:..\..\..\arduinoLCD\test\Pain Drain\libraries\lvgl\src\extra\widgets\tileview/lv_tileview.c ****                    create_row_id * lv_obj_get_content_height(parent));
 145:..\..\..\arduinoLCD\test\Pain Drain\libraries\lvgl\src\extra\widgets\tileview/lv_tileview.c **** 
 146:..\..\..\arduinoLCD\test\Pain Drain\libraries\lvgl\src\extra\widgets\tileview/lv_tileview.c ****     lv_tileview_tile_t * tile = (lv_tileview_tile_t *)obj;
 147:..\..\..\arduinoLCD\test\Pain Drain\libraries\lvgl\src\extra\widgets\tileview/lv_tileview.c ****     tile->dir = create_dir;
 148:..\..\..\arduinoLCD\test\Pain Drain\libraries\lvgl\src\extra\widgets\tileview/lv_tileview.c **** 
 149:..\..\..\arduinoLCD\test\Pain Drain\libraries\lvgl\src\extra\widgets\tileview/lv_tileview.c ****     if(create_col_id == 0 && create_row_id == 0) {
 150:..\..\..\arduinoLCD\test\Pain Drain\libraries\lvgl\src\extra\widgets\tileview/lv_tileview.c ****         lv_obj_set_scroll_dir(parent, create_dir);
 151:..\..\..\arduinoLCD\test\Pain Drain\libraries\lvgl\src\extra\widgets\tileview/lv_tileview.c ****     }
 152:..\..\..\arduinoLCD\test\Pain Drain\libraries\lvgl\src\extra\widgets\tileview/lv_tileview.c **** }
 153:..\..\..\arduinoLCD\test\Pain Drain\libraries\lvgl\src\extra\widgets\tileview/lv_tileview.c **** 
 154:..\..\..\arduinoLCD\test\Pain Drain\libraries\lvgl\src\extra\widgets\tileview/lv_tileview.c **** static void tileview_event_cb(lv_event_t * e)
 155:..\..\..\arduinoLCD\test\Pain Drain\libraries\lvgl\src\extra\widgets\tileview/lv_tileview.c **** {
  87              		.loc 1 155 0
  88              		.cfi_startproc
  89              		@ args = 0, pretend = 0, frame = 16
  90              		@ frame_needed = 0, uses_anonymous_args = 0
  91              	.LVL9:
  92 0000 F0B5     		push	{r4, r5, r6, r7, lr}
  93              		.cfi_def_cfa_offset 20
  94              		.cfi_offset 4, -20
  95              		.cfi_offset 5, -16
  96              		.cfi_offset 6, -12
  97              		.cfi_offset 7, -8
  98              		.cfi_offset 14, -4
  99 0002 4746     		mov	r7, r8
 100 0004 80B4     		push	{r7}
 101              		.cfi_def_cfa_offset 24
 102              		.cfi_offset 8, -24
 103 0006 84B0     		sub	sp, sp, #16
 104              		.cfi_def_cfa_offset 40
 105 0008 0400     		movs	r4, r0
 156:..\..\..\arduinoLCD\test\Pain Drain\libraries\lvgl\src\extra\widgets\tileview/lv_tileview.c ****     lv_event_code_t code = lv_event_get_code(e);
 106              		.loc 1 156 0
 107 000a FFF7FEFF 		bl	lv_event_get_code
 108              	.LVL10:
 109 000e 0500     		movs	r5, r0
 110              	.LVL11:
 157:..\..\..\arduinoLCD\test\Pain Drain\libraries\lvgl\src\extra\widgets\tileview/lv_tileview.c ****     lv_obj_t * obj = lv_event_get_target(e);
 111              		.loc 1 157 0
 112 0010 2000     		movs	r0, r4
 113 0012 FFF7FEFF 		bl	lv_event_get_target
 114              	.LVL12:
 115 0016 0190     		str	r0, [sp, #4]
 116              	.LVL13:
 158:..\..\..\arduinoLCD\test\Pain Drain\libraries\lvgl\src\extra\widgets\tileview/lv_tileview.c ****     lv_tileview_t * tv = (lv_tileview_t *) obj;
 159:..\..\..\arduinoLCD\test\Pain Drain\libraries\lvgl\src\extra\widgets\tileview/lv_tileview.c **** 
 160:..\..\..\arduinoLCD\test\Pain Drain\libraries\lvgl\src\extra\widgets\tileview/lv_tileview.c ****     if(code == LV_EVENT_SCROLL_END) {
 117              		.loc 1 160 0
 118 0018 0A2D     		cmp	r5, #10
 119 001a 52D1     		bne	.L4
 120              	.LBB2:
 161:..\..\..\arduinoLCD\test\Pain Drain\libraries\lvgl\src\extra\widgets\tileview/lv_tileview.c ****         lv_indev_t * indev = lv_indev_get_act();
 121              		.loc 1 161 0
 122 001c FFF7FEFF 		bl	lv_indev_get_act
 123              	.LVL14:
 162:..\..\..\arduinoLCD\test\Pain Drain\libraries\lvgl\src\extra\widgets\tileview/lv_tileview.c ****         if(indev && indev->proc.state == LV_INDEV_STATE_PRESSED) {
ARM GAS  C:\Users\haske\AppData\Local\Temp\ccyibBJU.s 			page 6


 124              		.loc 1 162 0
 125 0020 0028     		cmp	r0, #0
 126 0022 02D0     		beq	.L6
 127              		.loc 1 162 0 is_stmt 0 discriminator 1
 128 0024 0379     		ldrb	r3, [r0, #4]
 129 0026 012B     		cmp	r3, #1
 130 0028 4BD0     		beq	.L4
 131              	.L6:
 163:..\..\..\arduinoLCD\test\Pain Drain\libraries\lvgl\src\extra\widgets\tileview/lv_tileview.c ****             return;
 164:..\..\..\arduinoLCD\test\Pain Drain\libraries\lvgl\src\extra\widgets\tileview/lv_tileview.c ****         }
 165:..\..\..\arduinoLCD\test\Pain Drain\libraries\lvgl\src\extra\widgets\tileview/lv_tileview.c **** 
 166:..\..\..\arduinoLCD\test\Pain Drain\libraries\lvgl\src\extra\widgets\tileview/lv_tileview.c ****         lv_coord_t w = lv_obj_get_content_width(obj);
 132              		.loc 1 166 0 is_stmt 1
 133 002a 019E     		ldr	r6, [sp, #4]
 134 002c 3000     		movs	r0, r6
 135              	.LVL15:
 136 002e FFF7FEFF 		bl	lv_obj_get_content_width
 137              	.LVL16:
 138 0032 0700     		movs	r7, r0
 139              	.LVL17:
 167:..\..\..\arduinoLCD\test\Pain Drain\libraries\lvgl\src\extra\widgets\tileview/lv_tileview.c ****         lv_coord_t h = lv_obj_get_content_height(obj);
 140              		.loc 1 167 0
 141 0034 3000     		movs	r0, r6
 142 0036 FFF7FEFF 		bl	lv_obj_get_content_height
 143              	.LVL18:
 144 003a 0400     		movs	r4, r0
 145              	.LVL19:
 168:..\..\..\arduinoLCD\test\Pain Drain\libraries\lvgl\src\extra\widgets\tileview/lv_tileview.c **** 
 169:..\..\..\arduinoLCD\test\Pain Drain\libraries\lvgl\src\extra\widgets\tileview/lv_tileview.c ****         lv_point_t scroll_end;
 170:..\..\..\arduinoLCD\test\Pain Drain\libraries\lvgl\src\extra\widgets\tileview/lv_tileview.c ****         lv_obj_get_scroll_end(obj, &scroll_end);
 146              		.loc 1 170 0
 147 003c 03AD     		add	r5, sp, #12
 148              	.LVL20:
 149 003e 2900     		movs	r1, r5
 150 0040 3000     		movs	r0, r6
 151 0042 FFF7FEFF 		bl	lv_obj_get_scroll_end
 152              	.LVL21:
 171:..\..\..\arduinoLCD\test\Pain Drain\libraries\lvgl\src\extra\widgets\tileview/lv_tileview.c ****         lv_coord_t left = scroll_end.x;
 153              		.loc 1 171 0
 154 0046 0023     		movs	r3, #0
 155 0048 E85E     		ldrsh	r0, [r5, r3]
 156              	.LVL22:
 172:..\..\..\arduinoLCD\test\Pain Drain\libraries\lvgl\src\extra\widgets\tileview/lv_tileview.c ****         lv_coord_t top = scroll_end.y;
 157              		.loc 1 172 0
 158 004a 0223     		movs	r3, #2
 159 004c ED5E     		ldrsh	r5, [r5, r3]
 160              	.LVL23:
 173:..\..\..\arduinoLCD\test\Pain Drain\libraries\lvgl\src\extra\widgets\tileview/lv_tileview.c **** 
 174:..\..\..\arduinoLCD\test\Pain Drain\libraries\lvgl\src\extra\widgets\tileview/lv_tileview.c ****         lv_coord_t tx = ((left + (w / 2)) / w) * w;
 161              		.loc 1 174 0
 162 004e FB0F     		lsrs	r3, r7, #31
 163 0050 DB19     		adds	r3, r3, r7
 164 0052 5B10     		asrs	r3, r3, #1
 165 0054 1BB2     		sxth	r3, r3
 166 0056 C018     		adds	r0, r0, r3
 167              	.LVL24:
 168 0058 3900     		movs	r1, r7
ARM GAS  C:\Users\haske\AppData\Local\Temp\ccyibBJU.s 			page 7


 169 005a FFF7FEFF 		bl	__aeabi_idiv
 170              	.LVL25:
 171 005e 4743     		muls	r7, r0
 172              	.LVL26:
 173 0060 3FB2     		sxth	r7, r7
 174              	.LVL27:
 175:..\..\..\arduinoLCD\test\Pain Drain\libraries\lvgl\src\extra\widgets\tileview/lv_tileview.c ****         lv_coord_t ty = ((top + (h / 2)) / h) * h;
 175              		.loc 1 175 0
 176 0062 E00F     		lsrs	r0, r4, #31
 177 0064 0019     		adds	r0, r0, r4
 178 0066 4010     		asrs	r0, r0, #1
 179 0068 00B2     		sxth	r0, r0
 180 006a 2818     		adds	r0, r5, r0
 181 006c 2100     		movs	r1, r4
 182 006e FFF7FEFF 		bl	__aeabi_idiv
 183              	.LVL28:
 184 0072 4443     		muls	r4, r0
 185              	.LVL29:
 186 0074 23B2     		sxth	r3, r4
 187 0076 9846     		mov	r8, r3
 188              	.LVL30:
 176:..\..\..\arduinoLCD\test\Pain Drain\libraries\lvgl\src\extra\widgets\tileview/lv_tileview.c **** 
 177:..\..\..\arduinoLCD\test\Pain Drain\libraries\lvgl\src\extra\widgets\tileview/lv_tileview.c ****         lv_dir_t dir = LV_DIR_ALL;
 178:..\..\..\arduinoLCD\test\Pain Drain\libraries\lvgl\src\extra\widgets\tileview/lv_tileview.c ****         uint32_t i;
 179:..\..\..\arduinoLCD\test\Pain Drain\libraries\lvgl\src\extra\widgets\tileview/lv_tileview.c ****         for(i = 0; i < lv_obj_get_child_cnt(obj); i++) {
 189              		.loc 1 179 0
 190 0078 0024     		movs	r4, #0
 191 007a 18E0     		b	.L8
 192              	.LVL31:
 193              	.L11:
 194              	.LBB3:
 180:..\..\..\arduinoLCD\test\Pain Drain\libraries\lvgl\src\extra\widgets\tileview/lv_tileview.c ****             lv_obj_t * tile_obj = lv_obj_get_child(obj, i);
 195              		.loc 1 180 0
 196 007c 2100     		movs	r1, r4
 197 007e 0198     		ldr	r0, [sp, #4]
 198 0080 FFF7FEFF 		bl	lv_obj_get_child
 199              	.LVL32:
 200 0084 0500     		movs	r5, r0
 201              	.LVL33:
 181:..\..\..\arduinoLCD\test\Pain Drain\libraries\lvgl\src\extra\widgets\tileview/lv_tileview.c ****             lv_coord_t x = lv_obj_get_x(tile_obj);
 202              		.loc 1 181 0
 203 0086 FFF7FEFF 		bl	lv_obj_get_x
 204              	.LVL34:
 205 008a 0600     		movs	r6, r0
 206              	.LVL35:
 182:..\..\..\arduinoLCD\test\Pain Drain\libraries\lvgl\src\extra\widgets\tileview/lv_tileview.c ****             lv_coord_t y = lv_obj_get_y(tile_obj);
 207              		.loc 1 182 0
 208 008c 2800     		movs	r0, r5
 209 008e FFF7FEFF 		bl	lv_obj_get_y
 210              	.LVL36:
 183:..\..\..\arduinoLCD\test\Pain Drain\libraries\lvgl\src\extra\widgets\tileview/lv_tileview.c ****             if(x == tx && y == ty) {
 211              		.loc 1 183 0
 212 0092 B742     		cmp	r7, r6
 213 0094 0AD1     		bne	.L9
 214              		.loc 1 183 0 is_stmt 0 discriminator 1
 215 0096 8045     		cmp	r8, r0
 216 0098 08D1     		bne	.L9
ARM GAS  C:\Users\haske\AppData\Local\Temp\ccyibBJU.s 			page 8


 217              	.LVL37:
 218              	.LBB4:
 184:..\..\..\arduinoLCD\test\Pain Drain\libraries\lvgl\src\extra\widgets\tileview/lv_tileview.c ****                 lv_tileview_tile_t * tile = (lv_tileview_tile_t *)tile_obj;
 185:..\..\..\arduinoLCD\test\Pain Drain\libraries\lvgl\src\extra\widgets\tileview/lv_tileview.c ****                 tv->tile_act = (lv_obj_t *)tile;
 219              		.loc 1 185 0 is_stmt 1
 220 009a 0198     		ldr	r0, [sp, #4]
 221              	.LVL38:
 222 009c 4562     		str	r5, [r0, #36]
 186:..\..\..\arduinoLCD\test\Pain Drain\libraries\lvgl\src\extra\widgets\tileview/lv_tileview.c ****                 dir = tile->dir;
 223              		.loc 1 186 0
 224 009e 2423     		movs	r3, #36
 225 00a0 EC5C     		ldrb	r4, [r5, r3]
 226              	.LVL39:
 187:..\..\..\arduinoLCD\test\Pain Drain\libraries\lvgl\src\extra\widgets\tileview/lv_tileview.c ****                 lv_event_send(obj, LV_EVENT_VALUE_CHANGED, NULL);
 227              		.loc 1 187 0
 228 00a2 0022     		movs	r2, #0
 229 00a4 1C21     		movs	r1, #28
 230 00a6 FFF7FEFF 		bl	lv_event_send
 231              	.LVL40:
 188:..\..\..\arduinoLCD\test\Pain Drain\libraries\lvgl\src\extra\widgets\tileview/lv_tileview.c ****                 break;
 232              		.loc 1 188 0
 233 00aa 06E0     		b	.L10
 234              	.LVL41:
 235              	.L9:
 236              	.LBE4:
 237              	.LBE3:
 179:..\..\..\arduinoLCD\test\Pain Drain\libraries\lvgl\src\extra\widgets\tileview/lv_tileview.c ****             lv_obj_t * tile_obj = lv_obj_get_child(obj, i);
 238              		.loc 1 179 0 discriminator 2
 239 00ac 0134     		adds	r4, r4, #1
 240              	.LVL42:
 241              	.L8:
 179:..\..\..\arduinoLCD\test\Pain Drain\libraries\lvgl\src\extra\widgets\tileview/lv_tileview.c ****             lv_obj_t * tile_obj = lv_obj_get_child(obj, i);
 242              		.loc 1 179 0 is_stmt 0 discriminator 1
 243 00ae 0198     		ldr	r0, [sp, #4]
 244 00b0 FFF7FEFF 		bl	lv_obj_get_child_cnt
 245              	.LVL43:
 246 00b4 8442     		cmp	r4, r0
 247 00b6 E1D3     		bcc	.L11
 177:..\..\..\arduinoLCD\test\Pain Drain\libraries\lvgl\src\extra\widgets\tileview/lv_tileview.c ****         uint32_t i;
 248              		.loc 1 177 0 is_stmt 1
 249 00b8 0F24     		movs	r4, #15
 250              	.LVL44:
 251              	.L10:
 189:..\..\..\arduinoLCD\test\Pain Drain\libraries\lvgl\src\extra\widgets\tileview/lv_tileview.c ****             }
 190:..\..\..\arduinoLCD\test\Pain Drain\libraries\lvgl\src\extra\widgets\tileview/lv_tileview.c ****         }
 191:..\..\..\arduinoLCD\test\Pain Drain\libraries\lvgl\src\extra\widgets\tileview/lv_tileview.c ****         lv_obj_set_scroll_dir(obj, dir);
 252              		.loc 1 191 0
 253 00ba 2100     		movs	r1, r4
 254 00bc 0198     		ldr	r0, [sp, #4]
 255 00be FFF7FEFF 		bl	lv_obj_set_scroll_dir
 256              	.LVL45:
 257              	.L4:
 258              	.LBE2:
 192:..\..\..\arduinoLCD\test\Pain Drain\libraries\lvgl\src\extra\widgets\tileview/lv_tileview.c ****     }
 193:..\..\..\arduinoLCD\test\Pain Drain\libraries\lvgl\src\extra\widgets\tileview/lv_tileview.c **** }
 259              		.loc 1 193 0
 260 00c2 04B0     		add	sp, sp, #16
ARM GAS  C:\Users\haske\AppData\Local\Temp\ccyibBJU.s 			page 9


 261              		@ sp needed
 262 00c4 04BC     		pop	{r2}
 263 00c6 9046     		mov	r8, r2
 264 00c8 F0BD     		pop	{r4, r5, r6, r7, pc}
 265              		.cfi_endproc
 266              	.LFE166:
 267              		.size	tileview_event_cb, .-tileview_event_cb
 268 00ca C046     		.section	.text.lv_tileview_tile_constructor,"ax",%progbits
 269              		.align	2
 270              		.code	16
 271              		.thumb_func
 272              		.type	lv_tileview_tile_constructor, %function
 273              	lv_tileview_tile_constructor:
 274              	.LFB165:
 137:..\..\..\arduinoLCD\test\Pain Drain\libraries\lvgl\src\extra\widgets\tileview/lv_tileview.c **** 
 275              		.loc 1 137 0
 276              		.cfi_startproc
 277              		@ args = 0, pretend = 0, frame = 0
 278              		@ frame_needed = 0, uses_anonymous_args = 0
 279              	.LVL46:
 280 0000 F8B5     		push	{r3, r4, r5, r6, r7, lr}
 281              		.cfi_def_cfa_offset 24
 282              		.cfi_offset 3, -24
 283              		.cfi_offset 4, -20
 284              		.cfi_offset 5, -16
 285              		.cfi_offset 6, -12
 286              		.cfi_offset 7, -8
 287              		.cfi_offset 14, -4
 288 0002 0C00     		movs	r4, r1
 140:..\..\..\arduinoLCD\test\Pain Drain\libraries\lvgl\src\extra\widgets\tileview/lv_tileview.c ****     lv_obj_set_size(obj, LV_PCT(100), LV_PCT(100));
 289              		.loc 1 140 0
 290 0004 0800     		movs	r0, r1
 291              	.LVL47:
 292 0006 FFF7FEFF 		bl	lv_obj_get_parent
 293              	.LVL48:
 294 000a 0600     		movs	r6, r0
 295              	.LVL49:
 141:..\..\..\arduinoLCD\test\Pain Drain\libraries\lvgl\src\extra\widgets\tileview/lv_tileview.c ****     lv_obj_update_layout(obj);  /*Be sure the size is correct*/
 296              		.loc 1 141 0
 297 000c 1349     		ldr	r1, .L14
 298 000e 0A00     		movs	r2, r1
 299 0010 2000     		movs	r0, r4
 300              	.LVL50:
 301 0012 FFF7FEFF 		bl	lv_obj_set_size
 302              	.LVL51:
 142:..\..\..\arduinoLCD\test\Pain Drain\libraries\lvgl\src\extra\widgets\tileview/lv_tileview.c ****     lv_obj_set_pos(obj, create_col_id * lv_obj_get_content_width(parent),
 303              		.loc 1 142 0
 304 0016 2000     		movs	r0, r4
 305 0018 FFF7FEFF 		bl	lv_obj_update_layout
 306              	.LVL52:
 143:..\..\..\arduinoLCD\test\Pain Drain\libraries\lvgl\src\extra\widgets\tileview/lv_tileview.c ****                    create_row_id * lv_obj_get_content_height(parent));
 307              		.loc 1 143 0
 308 001c 3000     		movs	r0, r6
 309 001e FFF7FEFF 		bl	lv_obj_get_content_width
 310              	.LVL53:
 311 0022 0F4F     		ldr	r7, .L14+4
 312 0024 3B68     		ldr	r3, [r7]
ARM GAS  C:\Users\haske\AppData\Local\Temp\ccyibBJU.s 			page 10


 313 0026 5843     		muls	r0, r3
 314 0028 05B2     		sxth	r5, r0
 144:..\..\..\arduinoLCD\test\Pain Drain\libraries\lvgl\src\extra\widgets\tileview/lv_tileview.c **** 
 315              		.loc 1 144 0
 316 002a 3000     		movs	r0, r6
 317 002c FFF7FEFF 		bl	lv_obj_get_content_height
 318              	.LVL54:
 143:..\..\..\arduinoLCD\test\Pain Drain\libraries\lvgl\src\extra\widgets\tileview/lv_tileview.c ****                    create_row_id * lv_obj_get_content_height(parent));
 319              		.loc 1 143 0
 320 0030 7B68     		ldr	r3, [r7, #4]
 321 0032 5843     		muls	r0, r3
 322 0034 02B2     		sxth	r2, r0
 323 0036 2900     		movs	r1, r5
 324 0038 2000     		movs	r0, r4
 325 003a FFF7FEFF 		bl	lv_obj_set_pos
 326              	.LVL55:
 147:..\..\..\arduinoLCD\test\Pain Drain\libraries\lvgl\src\extra\widgets\tileview/lv_tileview.c **** 
 327              		.loc 1 147 0
 328 003e 397A     		ldrb	r1, [r7, #8]
 329 0040 2423     		movs	r3, #36
 330 0042 E154     		strb	r1, [r4, r3]
 149:..\..\..\arduinoLCD\test\Pain Drain\libraries\lvgl\src\extra\widgets\tileview/lv_tileview.c ****         lv_obj_set_scroll_dir(parent, create_dir);
 331              		.loc 1 149 0
 332 0044 3B68     		ldr	r3, [r7]
 333 0046 002B     		cmp	r3, #0
 334 0048 06D1     		bne	.L12
 149:..\..\..\arduinoLCD\test\Pain Drain\libraries\lvgl\src\extra\widgets\tileview/lv_tileview.c ****         lv_obj_set_scroll_dir(parent, create_dir);
 335              		.loc 1 149 0 is_stmt 0 discriminator 1
 336 004a 054B     		ldr	r3, .L14+4
 337 004c 5B68     		ldr	r3, [r3, #4]
 338 004e 002B     		cmp	r3, #0
 339 0050 02D1     		bne	.L12
 150:..\..\..\arduinoLCD\test\Pain Drain\libraries\lvgl\src\extra\widgets\tileview/lv_tileview.c ****     }
 340              		.loc 1 150 0 is_stmt 1
 341 0052 3000     		movs	r0, r6
 342 0054 FFF7FEFF 		bl	lv_obj_set_scroll_dir
 343              	.LVL56:
 344              	.L12:
 152:..\..\..\arduinoLCD\test\Pain Drain\libraries\lvgl\src\extra\widgets\tileview/lv_tileview.c **** 
 345              		.loc 1 152 0
 346              		@ sp needed
 347              	.LVL57:
 348              	.LVL58:
 349 0058 F8BD     		pop	{r3, r4, r5, r6, r7, pc}
 350              	.L15:
 351 005a C046     		.align	2
 352              	.L14:
 353 005c 64200000 		.word	8292
 354 0060 00000000 		.word	.LANCHOR0
 355              		.cfi_endproc
 356              	.LFE165:
 357              		.size	lv_tileview_tile_constructor, .-lv_tileview_tile_constructor
 358              		.section	.text.lv_tileview_create,"ax",%progbits
 359              		.align	2
 360              		.global	lv_tileview_create
 361              		.code	16
 362              		.thumb_func
ARM GAS  C:\Users\haske\AppData\Local\Temp\ccyibBJU.s 			page 11


 363              		.type	lv_tileview_create, %function
 364              	lv_tileview_create:
 365              	.LFB159:
  55:..\..\..\arduinoLCD\test\Pain Drain\libraries\lvgl\src\extra\widgets\tileview/lv_tileview.c ****     LV_LOG_INFO("begin");
 366              		.loc 1 55 0
 367              		.cfi_startproc
 368              		@ args = 0, pretend = 0, frame = 0
 369              		@ frame_needed = 0, uses_anonymous_args = 0
 370              	.LVL59:
 371 0000 10B5     		push	{r4, lr}
 372              		.cfi_def_cfa_offset 8
 373              		.cfi_offset 4, -8
 374              		.cfi_offset 14, -4
 375 0002 0100     		movs	r1, r0
  57:..\..\..\arduinoLCD\test\Pain Drain\libraries\lvgl\src\extra\widgets\tileview/lv_tileview.c ****     lv_obj_class_init_obj(obj);
 376              		.loc 1 57 0
 377 0004 0348     		ldr	r0, .L17
 378              	.LVL60:
 379 0006 FFF7FEFF 		bl	lv_obj_class_create_obj
 380              	.LVL61:
 381 000a 0400     		movs	r4, r0
 382              	.LVL62:
  58:..\..\..\arduinoLCD\test\Pain Drain\libraries\lvgl\src\extra\widgets\tileview/lv_tileview.c ****     return obj;
 383              		.loc 1 58 0
 384 000c FFF7FEFF 		bl	lv_obj_class_init_obj
 385              	.LVL63:
  60:..\..\..\arduinoLCD\test\Pain Drain\libraries\lvgl\src\extra\widgets\tileview/lv_tileview.c **** 
 386              		.loc 1 60 0
 387 0010 2000     		movs	r0, r4
 388              		@ sp needed
 389              	.LVL64:
 390 0012 10BD     		pop	{r4, pc}
 391              	.L18:
 392              		.align	2
 393              	.L17:
 394 0014 00000000 		.word	.LANCHOR1
 395              		.cfi_endproc
 396              	.LFE159:
 397              		.size	lv_tileview_create, .-lv_tileview_create
 398              		.section	.text.lv_tileview_add_tile,"ax",%progbits
 399              		.align	2
 400              		.global	lv_tileview_add_tile
 401              		.code	16
 402              		.thumb_func
 403              		.type	lv_tileview_add_tile, %function
 404              	lv_tileview_add_tile:
 405              	.LFB160:
  67:..\..\..\arduinoLCD\test\Pain Drain\libraries\lvgl\src\extra\widgets\tileview/lv_tileview.c ****     LV_LOG_INFO("begin");
 406              		.loc 1 67 0
 407              		.cfi_startproc
 408              		@ args = 0, pretend = 0, frame = 0
 409              		@ frame_needed = 0, uses_anonymous_args = 0
 410              	.LVL65:
 411 0000 10B5     		push	{r4, lr}
 412              		.cfi_def_cfa_offset 8
 413              		.cfi_offset 4, -8
 414              		.cfi_offset 14, -4
ARM GAS  C:\Users\haske\AppData\Local\Temp\ccyibBJU.s 			page 12


  69:..\..\..\arduinoLCD\test\Pain Drain\libraries\lvgl\src\extra\widgets\tileview/lv_tileview.c ****     create_col_id = col_id;
 415              		.loc 1 69 0
 416 0002 074C     		ldr	r4, .L20
 417 0004 2372     		strb	r3, [r4, #8]
  70:..\..\..\arduinoLCD\test\Pain Drain\libraries\lvgl\src\extra\widgets\tileview/lv_tileview.c ****     create_row_id = row_id;
 418              		.loc 1 70 0
 419 0006 2160     		str	r1, [r4]
  71:..\..\..\arduinoLCD\test\Pain Drain\libraries\lvgl\src\extra\widgets\tileview/lv_tileview.c **** 
 420              		.loc 1 71 0
 421 0008 6260     		str	r2, [r4, #4]
  73:..\..\..\arduinoLCD\test\Pain Drain\libraries\lvgl\src\extra\widgets\tileview/lv_tileview.c ****     lv_obj_class_init_obj(obj);
 422              		.loc 1 73 0
 423 000a 0100     		movs	r1, r0
 424              	.LVL66:
 425 000c 0548     		ldr	r0, .L20+4
 426              	.LVL67:
 427 000e 1C30     		adds	r0, r0, #28
 428 0010 FFF7FEFF 		bl	lv_obj_class_create_obj
 429              	.LVL68:
 430 0014 0400     		movs	r4, r0
 431              	.LVL69:
  74:..\..\..\arduinoLCD\test\Pain Drain\libraries\lvgl\src\extra\widgets\tileview/lv_tileview.c ****     return obj;
 432              		.loc 1 74 0
 433 0016 FFF7FEFF 		bl	lv_obj_class_init_obj
 434              	.LVL70:
  76:..\..\..\arduinoLCD\test\Pain Drain\libraries\lvgl\src\extra\widgets\tileview/lv_tileview.c **** 
 435              		.loc 1 76 0
 436 001a 2000     		movs	r0, r4
 437              		@ sp needed
 438              	.LVL71:
 439 001c 10BD     		pop	{r4, pc}
 440              	.L21:
 441 001e C046     		.align	2
 442              	.L20:
 443 0020 00000000 		.word	.LANCHOR0
 444 0024 00000000 		.word	.LANCHOR1
 445              		.cfi_endproc
 446              	.LFE160:
 447              		.size	lv_tileview_add_tile, .-lv_tileview_add_tile
 448              		.section	.text.lv_obj_set_tile,"ax",%progbits
 449              		.align	2
 450              		.global	lv_obj_set_tile
 451              		.code	16
 452              		.thumb_func
 453              		.type	lv_obj_set_tile, %function
 454              	lv_obj_set_tile:
 455              	.LFB161:
  79:..\..\..\arduinoLCD\test\Pain Drain\libraries\lvgl\src\extra\widgets\tileview/lv_tileview.c ****     lv_coord_t tx = lv_obj_get_x(tile_obj);
 456              		.loc 1 79 0
 457              		.cfi_startproc
 458              		@ args = 0, pretend = 0, frame = 8
 459              		@ frame_needed = 0, uses_anonymous_args = 0
 460              	.LVL72:
 461 0000 F0B5     		push	{r4, r5, r6, r7, lr}
 462              		.cfi_def_cfa_offset 20
 463              		.cfi_offset 4, -20
 464              		.cfi_offset 5, -16
ARM GAS  C:\Users\haske\AppData\Local\Temp\ccyibBJU.s 			page 13


 465              		.cfi_offset 6, -12
 466              		.cfi_offset 7, -8
 467              		.cfi_offset 14, -4
 468 0002 83B0     		sub	sp, sp, #12
 469              		.cfi_def_cfa_offset 32
 470 0004 0500     		movs	r5, r0
 471 0006 0C00     		movs	r4, r1
 472 0008 1700     		movs	r7, r2
  80:..\..\..\arduinoLCD\test\Pain Drain\libraries\lvgl\src\extra\widgets\tileview/lv_tileview.c ****     lv_coord_t ty = lv_obj_get_y(tile_obj);
 473              		.loc 1 80 0
 474 000a 0800     		movs	r0, r1
 475              	.LVL73:
 476 000c FFF7FEFF 		bl	lv_obj_get_x
 477              	.LVL74:
 478 0010 0190     		str	r0, [sp, #4]
 479              	.LVL75:
  81:..\..\..\arduinoLCD\test\Pain Drain\libraries\lvgl\src\extra\widgets\tileview/lv_tileview.c **** 
 480              		.loc 1 81 0
 481 0012 2000     		movs	r0, r4
 482 0014 FFF7FEFF 		bl	lv_obj_get_y
 483              	.LVL76:
 484 0018 0600     		movs	r6, r0
 485              	.LVL77:
  85:..\..\..\arduinoLCD\test\Pain Drain\libraries\lvgl\src\extra\widgets\tileview/lv_tileview.c **** 
 486              		.loc 1 85 0
 487 001a 6C62     		str	r4, [r5, #36]
  87:..\..\..\arduinoLCD\test\Pain Drain\libraries\lvgl\src\extra\widgets\tileview/lv_tileview.c ****     lv_obj_scroll_to(obj, tx, ty, anim_en);
 488              		.loc 1 87 0
 489 001c 2423     		movs	r3, #36
 490 001e E15C     		ldrb	r1, [r4, r3]
 491 0020 2800     		movs	r0, r5
 492 0022 FFF7FEFF 		bl	lv_obj_set_scroll_dir
 493              	.LVL78:
  88:..\..\..\arduinoLCD\test\Pain Drain\libraries\lvgl\src\extra\widgets\tileview/lv_tileview.c **** }
 494              		.loc 1 88 0
 495 0026 3B00     		movs	r3, r7
 496 0028 3200     		movs	r2, r6
 497 002a 0199     		ldr	r1, [sp, #4]
 498 002c 2800     		movs	r0, r5
 499 002e FFF7FEFF 		bl	lv_obj_scroll_to
 500              	.LVL79:
  89:..\..\..\arduinoLCD\test\Pain Drain\libraries\lvgl\src\extra\widgets\tileview/lv_tileview.c **** 
 501              		.loc 1 89 0
 502 0032 03B0     		add	sp, sp, #12
 503              		@ sp needed
 504              	.LVL80:
 505              	.LVL81:
 506              	.LVL82:
 507 0034 F0BD     		pop	{r4, r5, r6, r7, pc}
 508              		.cfi_endproc
 509              	.LFE161:
 510              		.size	lv_obj_set_tile, .-lv_obj_set_tile
 511 0036 C046     		.section	.text.lv_obj_set_tile_id,"ax",%progbits
 512              		.align	2
 513              		.global	lv_obj_set_tile_id
 514              		.code	16
 515              		.thumb_func
ARM GAS  C:\Users\haske\AppData\Local\Temp\ccyibBJU.s 			page 14


 516              		.type	lv_obj_set_tile_id, %function
 517              	lv_obj_set_tile_id:
 518              	.LFB162:
  92:..\..\..\arduinoLCD\test\Pain Drain\libraries\lvgl\src\extra\widgets\tileview/lv_tileview.c ****     lv_obj_update_layout(tv);
 519              		.loc 1 92 0
 520              		.cfi_startproc
 521              		@ args = 0, pretend = 0, frame = 8
 522              		@ frame_needed = 0, uses_anonymous_args = 0
 523              	.LVL83:
 524 0000 F0B5     		push	{r4, r5, r6, r7, lr}
 525              		.cfi_def_cfa_offset 20
 526              		.cfi_offset 4, -20
 527              		.cfi_offset 5, -16
 528              		.cfi_offset 6, -12
 529              		.cfi_offset 7, -8
 530              		.cfi_offset 14, -4
 531 0002 4746     		mov	r7, r8
 532 0004 80B4     		push	{r7}
 533              		.cfi_def_cfa_offset 24
 534              		.cfi_offset 8, -24
 535 0006 82B0     		sub	sp, sp, #8
 536              		.cfi_def_cfa_offset 32
 537 0008 0700     		movs	r7, r0
 538 000a 0090     		str	r0, [sp]
 539 000c 0E00     		movs	r6, r1
 540 000e 1500     		movs	r5, r2
 541 0010 0193     		str	r3, [sp, #4]
  93:..\..\..\arduinoLCD\test\Pain Drain\libraries\lvgl\src\extra\widgets\tileview/lv_tileview.c **** 
 542              		.loc 1 93 0
 543 0012 FFF7FEFF 		bl	lv_obj_update_layout
 544              	.LVL84:
  95:..\..\..\arduinoLCD\test\Pain Drain\libraries\lvgl\src\extra\widgets\tileview/lv_tileview.c ****     lv_coord_t h = lv_obj_get_content_height(tv);
 545              		.loc 1 95 0
 546 0016 3800     		movs	r0, r7
 547 0018 FFF7FEFF 		bl	lv_obj_get_content_width
 548              	.LVL85:
 549 001c 0400     		movs	r4, r0
 550              	.LVL86:
  96:..\..\..\arduinoLCD\test\Pain Drain\libraries\lvgl\src\extra\widgets\tileview/lv_tileview.c **** 
 551              		.loc 1 96 0
 552 001e 3800     		movs	r0, r7
 553 0020 FFF7FEFF 		bl	lv_obj_get_content_height
 554              	.LVL87:
  98:..\..\..\arduinoLCD\test\Pain Drain\libraries\lvgl\src\extra\widgets\tileview/lv_tileview.c ****     lv_coord_t ty = row_id * h;
 555              		.loc 1 98 0
 556 0024 7443     		muls	r4, r6
 557              	.LVL88:
 558 0026 26B2     		sxth	r6, r4
 559              	.LVL89:
  99:..\..\..\arduinoLCD\test\Pain Drain\libraries\lvgl\src\extra\widgets\tileview/lv_tileview.c **** 
 560              		.loc 1 99 0
 561 0028 6843     		muls	r0, r5
 562              	.LVL90:
 563 002a 03B2     		sxth	r3, r0
 564 002c 9846     		mov	r8, r3
 565              	.LVL91:
 102:..\..\..\arduinoLCD\test\Pain Drain\libraries\lvgl\src\extra\widgets\tileview/lv_tileview.c ****         lv_obj_t * tile_obj = lv_obj_get_child(tv, i);
ARM GAS  C:\Users\haske\AppData\Local\Temp\ccyibBJU.s 			page 15


 566              		.loc 1 102 0
 567 002e 0024     		movs	r4, #0
 568 0030 15E0     		b	.L24
 569              	.LVL92:
 570              	.L27:
 571              	.LBB5:
 103:..\..\..\arduinoLCD\test\Pain Drain\libraries\lvgl\src\extra\widgets\tileview/lv_tileview.c ****         lv_coord_t x = lv_obj_get_x(tile_obj);
 572              		.loc 1 103 0
 573 0032 2100     		movs	r1, r4
 574 0034 0098     		ldr	r0, [sp]
 575 0036 FFF7FEFF 		bl	lv_obj_get_child
 576              	.LVL93:
 577 003a 0500     		movs	r5, r0
 578              	.LVL94:
 104:..\..\..\arduinoLCD\test\Pain Drain\libraries\lvgl\src\extra\widgets\tileview/lv_tileview.c ****         lv_coord_t y = lv_obj_get_y(tile_obj);
 579              		.loc 1 104 0
 580 003c FFF7FEFF 		bl	lv_obj_get_x
 581              	.LVL95:
 582 0040 0700     		movs	r7, r0
 583              	.LVL96:
 105:..\..\..\arduinoLCD\test\Pain Drain\libraries\lvgl\src\extra\widgets\tileview/lv_tileview.c ****         if(x == tx && y == ty) {
 584              		.loc 1 105 0
 585 0042 2800     		movs	r0, r5
 586 0044 FFF7FEFF 		bl	lv_obj_get_y
 587              	.LVL97:
 106:..\..\..\arduinoLCD\test\Pain Drain\libraries\lvgl\src\extra\widgets\tileview/lv_tileview.c ****             lv_obj_set_tile(tv, tile_obj, anim_en);
 588              		.loc 1 106 0
 589 0048 BE42     		cmp	r6, r7
 590 004a 07D1     		bne	.L25
 106:..\..\..\arduinoLCD\test\Pain Drain\libraries\lvgl\src\extra\widgets\tileview/lv_tileview.c ****             lv_obj_set_tile(tv, tile_obj, anim_en);
 591              		.loc 1 106 0 is_stmt 0 discriminator 1
 592 004c 8045     		cmp	r8, r0
 593 004e 05D1     		bne	.L25
 107:..\..\..\arduinoLCD\test\Pain Drain\libraries\lvgl\src\extra\widgets\tileview/lv_tileview.c ****             return;
 594              		.loc 1 107 0 is_stmt 1
 595 0050 019A     		ldr	r2, [sp, #4]
 596 0052 2900     		movs	r1, r5
 597 0054 0098     		ldr	r0, [sp]
 598              	.LVL98:
 599 0056 FFF7FEFF 		bl	lv_obj_set_tile
 600              	.LVL99:
 108:..\..\..\arduinoLCD\test\Pain Drain\libraries\lvgl\src\extra\widgets\tileview/lv_tileview.c ****         }
 601              		.loc 1 108 0
 602 005a 05E0     		b	.L23
 603              	.LVL100:
 604              	.L25:
 605              	.LBE5:
 102:..\..\..\arduinoLCD\test\Pain Drain\libraries\lvgl\src\extra\widgets\tileview/lv_tileview.c ****         lv_obj_t * tile_obj = lv_obj_get_child(tv, i);
 606              		.loc 1 102 0 discriminator 2
 607 005c 0134     		adds	r4, r4, #1
 608              	.LVL101:
 609              	.L24:
 102:..\..\..\arduinoLCD\test\Pain Drain\libraries\lvgl\src\extra\widgets\tileview/lv_tileview.c ****         lv_obj_t * tile_obj = lv_obj_get_child(tv, i);
 610              		.loc 1 102 0 is_stmt 0 discriminator 1
 611 005e 0098     		ldr	r0, [sp]
 612 0060 FFF7FEFF 		bl	lv_obj_get_child_cnt
 613              	.LVL102:
ARM GAS  C:\Users\haske\AppData\Local\Temp\ccyibBJU.s 			page 16


 614 0064 8442     		cmp	r4, r0
 615 0066 E4D3     		bcc	.L27
 616              	.L23:
 113:..\..\..\arduinoLCD\test\Pain Drain\libraries\lvgl\src\extra\widgets\tileview/lv_tileview.c **** 
 617              		.loc 1 113 0 is_stmt 1
 618 0068 02B0     		add	sp, sp, #8
 619              	.LVL103:
 620              		@ sp needed
 621              	.LVL104:
 622              	.LVL105:
 623              	.LVL106:
 624 006a 04BC     		pop	{r2}
 625 006c 9046     		mov	r8, r2
 626 006e F0BD     		pop	{r4, r5, r6, r7, pc}
 627              		.cfi_endproc
 628              	.LFE162:
 629              		.size	lv_obj_set_tile_id, .-lv_obj_set_tile_id
 630              		.section	.text.lv_tileview_get_tile_act,"ax",%progbits
 631              		.align	2
 632              		.global	lv_tileview_get_tile_act
 633              		.code	16
 634              		.thumb_func
 635              		.type	lv_tileview_get_tile_act, %function
 636              	lv_tileview_get_tile_act:
 637              	.LFB163:
 116:..\..\..\arduinoLCD\test\Pain Drain\libraries\lvgl\src\extra\widgets\tileview/lv_tileview.c ****     lv_tileview_t * tv = (lv_tileview_t *) obj;
 638              		.loc 1 116 0
 639              		.cfi_startproc
 640              		@ args = 0, pretend = 0, frame = 0
 641              		@ frame_needed = 0, uses_anonymous_args = 0
 642              		@ link register save eliminated.
 643              	.LVL107:
 118:..\..\..\arduinoLCD\test\Pain Drain\libraries\lvgl\src\extra\widgets\tileview/lv_tileview.c **** }
 644              		.loc 1 118 0
 645 0000 406A     		ldr	r0, [r0, #36]
 646              	.LVL108:
 119:..\..\..\arduinoLCD\test\Pain Drain\libraries\lvgl\src\extra\widgets\tileview/lv_tileview.c **** 
 647              		.loc 1 119 0
 648              		@ sp needed
 649 0002 7047     		bx	lr
 650              		.cfi_endproc
 651              	.LFE163:
 652              		.size	lv_tileview_get_tile_act, .-lv_tileview_get_tile_act
 653              		.global	lv_tileview_tile_class
 654              		.global	lv_tileview_class
 655              		.section	.rodata
 656              		.align	2
 657              		.set	.LANCHOR1,. + 0
 658              		.type	lv_tileview_class, %object
 659              		.size	lv_tileview_class, 28
 660              	lv_tileview_class:
 661 0000 00000000 		.word	lv_obj_class
 662 0004 00000000 		.word	lv_tileview_constructor
 663 0008 00000000 		.space	16
 663      00000000 
 663      00000000 
 663      00000000 
ARM GAS  C:\Users\haske\AppData\Local\Temp\ccyibBJU.s 			page 17


 664 0018 80       		.byte	128
 665 0019 02       		.byte	2
 666 001a 00       		.byte	0
 667 001b 00       		.space	1
 668              		.type	lv_tileview_tile_class, %object
 669              		.size	lv_tileview_tile_class, 28
 670              	lv_tileview_tile_class:
 671 001c 00000000 		.word	lv_obj_class
 672 0020 00000000 		.word	lv_tileview_tile_constructor
 673 0024 00000000 		.space	16
 673      00000000 
 673      00000000 
 673      00000000 
 674 0034 80       		.byte	128
 675 0035 02       		.byte	2
 676 0036 00       		.byte	0
 677 0037 00       		.space	1
 678              		.bss
 679              		.align	2
 680              		.set	.LANCHOR0,. + 0
 681              		.type	create_col_id, %object
 682              		.size	create_col_id, 4
 683              	create_col_id:
 684 0000 00000000 		.space	4
 685              		.type	create_row_id, %object
 686              		.size	create_row_id, 4
 687              	create_row_id:
 688 0004 00000000 		.space	4
 689              		.type	create_dir, %object
 690              		.size	create_dir, 1
 691              	create_dir:
 692 0008 00       		.space	1
 693              		.text
 694              	.Letext0:
 695              		.file 2 "c:\\program files (x86)\\cypress\\psoc creator\\4.4\\psoc creator\\import\\gnu\\arm\\5.4.
 696              		.file 3 "c:\\program files (x86)\\cypress\\psoc creator\\4.4\\psoc creator\\import\\gnu\\arm\\5.4.
 697              		.file 4 "c:\\program files (x86)\\cypress\\psoc creator\\4.4\\psoc creator\\import\\gnu\\arm\\5.4.
 698              		.file 5 "c:\\projects\\paindrain\\arduinolcd\\test\\pain drain\\libraries\\lvgl\\src\\misc\\lv_are
 699              		.file 6 "c:\\projects\\paindrain\\arduinolcd\\test\\pain drain\\libraries\\lvgl\\src\\font\\lv_fon
 700              		.file 7 "c:\\projects\\paindrain\\arduinolcd\\test\\pain drain\\libraries\\lvgl\\src\\misc\\lv_typ
 701              		.file 8 "c:\\projects\\paindrain\\arduinolcd\\test\\pain drain\\libraries\\lvgl\\src\\misc\\lv_col
 702              		.file 9 "c:\\projects\\paindrain\\arduinolcd\\test\\pain drain\\libraries\\lvgl\\src\\misc\\lv_ani
 703              		.file 10 "c:\\projects\\paindrain\\arduinolcd\\test\\pain drain\\libraries\\lvgl\\src\\misc\\lv_tx
 704              		.file 11 "c:\\projects\\paindrain\\arduinolcd\\test\\pain drain\\libraries\\lvgl\\src\\misc\\lv_bi
 705              		.file 12 "c:\\projects\\paindrain\\arduinolcd\\test\\pain drain\\libraries\\lvgl\\src\\misc\\lv_st
 706              		.file 13 "c:\\projects\\paindrain\\arduinolcd\\test\\pain drain\\libraries\\lvgl\\src\\draw\\lv_im
 707              		.file 14 "c:\\projects\\paindrain\\arduinolcd\\test\\pain drain\\libraries\\lvgl\\src\\core\\lv_ob
 708              		.file 15 "c:\\projects\\paindrain\\arduinolcd\\test\\pain drain\\libraries\\lvgl\\src\\draw\\lv_dr
 709              		.file 16 "c:\\projects\\paindrain\\arduinolcd\\test\\pain drain\\libraries\\lvgl\\src\\draw\\lv_dr
 710              		.file 17 "c:\\projects\\paindrain\\arduinolcd\\test\\pain drain\\libraries\\lvgl\\src\\draw\\lv_dr
 711              		.file 18 "c:\\projects\\paindrain\\arduinolcd\\test\\pain drain\\libraries\\lvgl\\src\\draw\\lv_dr
 712              		.file 19 "c:\\projects\\paindrain\\arduinolcd\\test\\pain drain\\libraries\\lvgl\\src\\draw\\lv_dr
 713              		.file 20 "c:\\projects\\paindrain\\arduinolcd\\test\\pain drain\\libraries\\lvgl\\src\\draw\\lv_dr
 714              		.file 21 "c:\\projects\\paindrain\\arduinolcd\\test\\pain drain\\libraries\\lvgl\\src\\draw\\lv_dr
 715              		.file 22 "c:\\projects\\paindrain\\arduinolcd\\test\\pain drain\\libraries\\lvgl\\src\\misc\\lv_ll
 716              		.file 23 "c:\\projects\\paindrain\\arduinolcd\\test\\pain drain\\libraries\\lvgl\\src\\misc\\lv_ti
 717              		.file 24 "c:\\projects\\paindrain\\arduinolcd\\test\\pain drain\\libraries\\lvgl\\src\\hal\\lv_hal
ARM GAS  C:\Users\haske\AppData\Local\Temp\ccyibBJU.s 			page 18


 718              		.file 25 "c:\\projects\\paindrain\\arduinolcd\\test\\pain drain\\libraries\\lvgl\\src\\hal\\lv_hal
 719              		.file 26 "c:\\projects\\paindrain\\arduinolcd\\test\\pain drain\\libraries\\lvgl\\src\\core\\lv_gr
 720              		.file 27 "c:\\projects\\paindrain\\arduinolcd\\test\\pain drain\\libraries\\lvgl\\src\\core\\lv_ob
 721              		.file 28 "c:\\projects\\paindrain\\arduinolcd\\test\\pain drain\\libraries\\lvgl\\src\\core\\lv_ob
 722              		.file 29 "c:\\projects\\paindrain\\arduinolcd\\test\\pain drain\\libraries\\lvgl\\src\\core\\lv_ob
 723              		.file 30 "c:\\projects\\paindrain\\arduinolcd\\test\\pain drain\\libraries\\lvgl\\src\\core\\lv_ev
 724              		.file 31 "..\\..\\..\\arduinoLCD\\test\\Pain Drain\\libraries\\lvgl\\src\\extra\\widgets\\tileview
 725              		.file 32 "c:\\projects\\paindrain\\arduinolcd\\test\\pain drain\\libraries\\lvgl\\src\\core\\lv_ob
 726              		.file 33 "c:\\projects\\paindrain\\arduinolcd\\test\\pain drain\\libraries\\lvgl\\src\\core\\lv_ob
 727              		.file 34 "c:\\projects\\paindrain\\arduinolcd\\test\\pain drain\\libraries\\lvgl\\src\\core\\lv_in