ARM GAS  C:\Users\haske\AppData\Local\Temp\ccl5xMyd.s 			page 1


   1              		.syntax unified
   2              		.cpu cortex-m0plus
   3              		.fpu softvfp
   4              		.eabi_attribute 20, 1
   5              		.eabi_attribute 21, 1
   6              		.eabi_attribute 23, 3
   7              		.eabi_attribute 24, 1
   8              		.eabi_attribute 25, 1
   9              		.eabi_attribute 26, 1
  10              		.eabi_attribute 30, 1
  11              		.eabi_attribute 34, 0
  12              		.eabi_attribute 18, 4
  13              		.thumb
  14              		.syntax unified
  15              		.file	"lv_theme.c"
  16              		.text
  17              	.Ltext0:
  18              		.cfi_sections	.debug_frame
  19              		.section	.text.apply_theme,"ax",%progbits
  20              		.align	2
  21              		.code	16
  22              		.thumb_func
  23              		.type	apply_theme, %function
  24              	apply_theme:
  25              	.LFB211:
  26              		.file 1 "..\\..\\..\\arduinoLCD\\test\\Pain Drain\\libraries\\lvgl\\src\\core\\lv_theme.c"
   1:..\..\..\arduinoLCD\test\Pain Drain\libraries\lvgl\src\core/lv_theme.c **** /**
   2:..\..\..\arduinoLCD\test\Pain Drain\libraries\lvgl\src\core/lv_theme.c ****  * @file lv_theme.c
   3:..\..\..\arduinoLCD\test\Pain Drain\libraries\lvgl\src\core/lv_theme.c ****  *
   4:..\..\..\arduinoLCD\test\Pain Drain\libraries\lvgl\src\core/lv_theme.c ****  */
   5:..\..\..\arduinoLCD\test\Pain Drain\libraries\lvgl\src\core/lv_theme.c **** 
   6:..\..\..\arduinoLCD\test\Pain Drain\libraries\lvgl\src\core/lv_theme.c **** /*********************
   7:..\..\..\arduinoLCD\test\Pain Drain\libraries\lvgl\src\core/lv_theme.c ****  *      INCLUDES
   8:..\..\..\arduinoLCD\test\Pain Drain\libraries\lvgl\src\core/lv_theme.c ****  *********************/
   9:..\..\..\arduinoLCD\test\Pain Drain\libraries\lvgl\src\core/lv_theme.c **** #include "../../lvgl.h"
  10:..\..\..\arduinoLCD\test\Pain Drain\libraries\lvgl\src\core/lv_theme.c **** 
  11:..\..\..\arduinoLCD\test\Pain Drain\libraries\lvgl\src\core/lv_theme.c **** /*********************
  12:..\..\..\arduinoLCD\test\Pain Drain\libraries\lvgl\src\core/lv_theme.c ****  *      DEFINES
  13:..\..\..\arduinoLCD\test\Pain Drain\libraries\lvgl\src\core/lv_theme.c ****  *********************/
  14:..\..\..\arduinoLCD\test\Pain Drain\libraries\lvgl\src\core/lv_theme.c **** 
  15:..\..\..\arduinoLCD\test\Pain Drain\libraries\lvgl\src\core/lv_theme.c **** /**********************
  16:..\..\..\arduinoLCD\test\Pain Drain\libraries\lvgl\src\core/lv_theme.c ****  *      TYPEDEFS
  17:..\..\..\arduinoLCD\test\Pain Drain\libraries\lvgl\src\core/lv_theme.c ****  **********************/
  18:..\..\..\arduinoLCD\test\Pain Drain\libraries\lvgl\src\core/lv_theme.c **** 
  19:..\..\..\arduinoLCD\test\Pain Drain\libraries\lvgl\src\core/lv_theme.c **** /**********************
  20:..\..\..\arduinoLCD\test\Pain Drain\libraries\lvgl\src\core/lv_theme.c ****  *  STATIC PROTOTYPES
  21:..\..\..\arduinoLCD\test\Pain Drain\libraries\lvgl\src\core/lv_theme.c ****  **********************/
  22:..\..\..\arduinoLCD\test\Pain Drain\libraries\lvgl\src\core/lv_theme.c **** static void apply_theme(lv_theme_t * th, lv_obj_t * obj);
  23:..\..\..\arduinoLCD\test\Pain Drain\libraries\lvgl\src\core/lv_theme.c **** 
  24:..\..\..\arduinoLCD\test\Pain Drain\libraries\lvgl\src\core/lv_theme.c **** /**********************
  25:..\..\..\arduinoLCD\test\Pain Drain\libraries\lvgl\src\core/lv_theme.c ****  *  STATIC VARIABLES
  26:..\..\..\arduinoLCD\test\Pain Drain\libraries\lvgl\src\core/lv_theme.c ****  **********************/
  27:..\..\..\arduinoLCD\test\Pain Drain\libraries\lvgl\src\core/lv_theme.c **** 
  28:..\..\..\arduinoLCD\test\Pain Drain\libraries\lvgl\src\core/lv_theme.c **** /**********************
  29:..\..\..\arduinoLCD\test\Pain Drain\libraries\lvgl\src\core/lv_theme.c ****  *      MACROS
  30:..\..\..\arduinoLCD\test\Pain Drain\libraries\lvgl\src\core/lv_theme.c ****  **********************/
  31:..\..\..\arduinoLCD\test\Pain Drain\libraries\lvgl\src\core/lv_theme.c **** 
ARM GAS  C:\Users\haske\AppData\Local\Temp\ccl5xMyd.s 			page 2


  32:..\..\..\arduinoLCD\test\Pain Drain\libraries\lvgl\src\core/lv_theme.c **** /**********************
  33:..\..\..\arduinoLCD\test\Pain Drain\libraries\lvgl\src\core/lv_theme.c ****  *   GLOBAL FUNCTIONS
  34:..\..\..\arduinoLCD\test\Pain Drain\libraries\lvgl\src\core/lv_theme.c ****  **********************/
  35:..\..\..\arduinoLCD\test\Pain Drain\libraries\lvgl\src\core/lv_theme.c **** 
  36:..\..\..\arduinoLCD\test\Pain Drain\libraries\lvgl\src\core/lv_theme.c **** lv_theme_t  * lv_theme_get_from_obj(lv_obj_t * obj)
  37:..\..\..\arduinoLCD\test\Pain Drain\libraries\lvgl\src\core/lv_theme.c **** {
  38:..\..\..\arduinoLCD\test\Pain Drain\libraries\lvgl\src\core/lv_theme.c ****     lv_disp_t * disp = obj ? lv_obj_get_disp(obj) : lv_disp_get_default();
  39:..\..\..\arduinoLCD\test\Pain Drain\libraries\lvgl\src\core/lv_theme.c ****     return lv_disp_get_theme(disp);
  40:..\..\..\arduinoLCD\test\Pain Drain\libraries\lvgl\src\core/lv_theme.c **** }
  41:..\..\..\arduinoLCD\test\Pain Drain\libraries\lvgl\src\core/lv_theme.c **** 
  42:..\..\..\arduinoLCD\test\Pain Drain\libraries\lvgl\src\core/lv_theme.c **** /**
  43:..\..\..\arduinoLCD\test\Pain Drain\libraries\lvgl\src\core/lv_theme.c ****  * Apply the active theme on an object
  44:..\..\..\arduinoLCD\test\Pain Drain\libraries\lvgl\src\core/lv_theme.c ****  * @param obj pointer to an object
  45:..\..\..\arduinoLCD\test\Pain Drain\libraries\lvgl\src\core/lv_theme.c ****  * @param name the name of the theme element to apply. E.g. `LV_THEME_BTN`
  46:..\..\..\arduinoLCD\test\Pain Drain\libraries\lvgl\src\core/lv_theme.c ****  */
  47:..\..\..\arduinoLCD\test\Pain Drain\libraries\lvgl\src\core/lv_theme.c **** void lv_theme_apply(lv_obj_t * obj)
  48:..\..\..\arduinoLCD\test\Pain Drain\libraries\lvgl\src\core/lv_theme.c **** {
  49:..\..\..\arduinoLCD\test\Pain Drain\libraries\lvgl\src\core/lv_theme.c ****     lv_theme_t * th = lv_theme_get_from_obj(obj);
  50:..\..\..\arduinoLCD\test\Pain Drain\libraries\lvgl\src\core/lv_theme.c ****     if(th == NULL) return;
  51:..\..\..\arduinoLCD\test\Pain Drain\libraries\lvgl\src\core/lv_theme.c **** 
  52:..\..\..\arduinoLCD\test\Pain Drain\libraries\lvgl\src\core/lv_theme.c ****     lv_obj_remove_style_all(obj);
  53:..\..\..\arduinoLCD\test\Pain Drain\libraries\lvgl\src\core/lv_theme.c **** 
  54:..\..\..\arduinoLCD\test\Pain Drain\libraries\lvgl\src\core/lv_theme.c ****     apply_theme(th, obj);    /*Apply the theme including the base theme(s)*/
  55:..\..\..\arduinoLCD\test\Pain Drain\libraries\lvgl\src\core/lv_theme.c **** }
  56:..\..\..\arduinoLCD\test\Pain Drain\libraries\lvgl\src\core/lv_theme.c **** 
  57:..\..\..\arduinoLCD\test\Pain Drain\libraries\lvgl\src\core/lv_theme.c **** /**
  58:..\..\..\arduinoLCD\test\Pain Drain\libraries\lvgl\src\core/lv_theme.c ****  * Set a base theme for a theme.
  59:..\..\..\arduinoLCD\test\Pain Drain\libraries\lvgl\src\core/lv_theme.c ****  * The styles from the base them will be added before the styles of the current theme.
  60:..\..\..\arduinoLCD\test\Pain Drain\libraries\lvgl\src\core/lv_theme.c ****  * Arbitrary long chain of themes can be created by setting base themes.
  61:..\..\..\arduinoLCD\test\Pain Drain\libraries\lvgl\src\core/lv_theme.c ****  * @param new_theme pointer to theme which base should be set
  62:..\..\..\arduinoLCD\test\Pain Drain\libraries\lvgl\src\core/lv_theme.c ****  * @param base pointer to the base theme
  63:..\..\..\arduinoLCD\test\Pain Drain\libraries\lvgl\src\core/lv_theme.c ****  */
  64:..\..\..\arduinoLCD\test\Pain Drain\libraries\lvgl\src\core/lv_theme.c **** void lv_theme_set_parent(lv_theme_t * new_theme, lv_theme_t * base)
  65:..\..\..\arduinoLCD\test\Pain Drain\libraries\lvgl\src\core/lv_theme.c **** {
  66:..\..\..\arduinoLCD\test\Pain Drain\libraries\lvgl\src\core/lv_theme.c ****     new_theme->parent = base;
  67:..\..\..\arduinoLCD\test\Pain Drain\libraries\lvgl\src\core/lv_theme.c **** }
  68:..\..\..\arduinoLCD\test\Pain Drain\libraries\lvgl\src\core/lv_theme.c **** 
  69:..\..\..\arduinoLCD\test\Pain Drain\libraries\lvgl\src\core/lv_theme.c **** /**
  70:..\..\..\arduinoLCD\test\Pain Drain\libraries\lvgl\src\core/lv_theme.c ****  * Set a callback for a theme.
  71:..\..\..\arduinoLCD\test\Pain Drain\libraries\lvgl\src\core/lv_theme.c ****  * The callback is used to add styles to different objects
  72:..\..\..\arduinoLCD\test\Pain Drain\libraries\lvgl\src\core/lv_theme.c ****  * @param theme pointer to theme which callback should be set
  73:..\..\..\arduinoLCD\test\Pain Drain\libraries\lvgl\src\core/lv_theme.c ****  * @param cb pointer to the callback
  74:..\..\..\arduinoLCD\test\Pain Drain\libraries\lvgl\src\core/lv_theme.c ****  */
  75:..\..\..\arduinoLCD\test\Pain Drain\libraries\lvgl\src\core/lv_theme.c **** void lv_theme_set_apply_cb(lv_theme_t * theme, lv_theme_apply_cb_t apply_cb)
  76:..\..\..\arduinoLCD\test\Pain Drain\libraries\lvgl\src\core/lv_theme.c **** {
  77:..\..\..\arduinoLCD\test\Pain Drain\libraries\lvgl\src\core/lv_theme.c ****     theme->apply_cb = apply_cb;
  78:..\..\..\arduinoLCD\test\Pain Drain\libraries\lvgl\src\core/lv_theme.c **** }
  79:..\..\..\arduinoLCD\test\Pain Drain\libraries\lvgl\src\core/lv_theme.c **** 
  80:..\..\..\arduinoLCD\test\Pain Drain\libraries\lvgl\src\core/lv_theme.c **** const lv_font_t * lv_theme_get_font_small(lv_obj_t * obj)
  81:..\..\..\arduinoLCD\test\Pain Drain\libraries\lvgl\src\core/lv_theme.c **** {
  82:..\..\..\arduinoLCD\test\Pain Drain\libraries\lvgl\src\core/lv_theme.c ****     lv_theme_t * th = lv_theme_get_from_obj(obj);
  83:..\..\..\arduinoLCD\test\Pain Drain\libraries\lvgl\src\core/lv_theme.c ****     return th ? th->font_small : LV_FONT_DEFAULT;
  84:..\..\..\arduinoLCD\test\Pain Drain\libraries\lvgl\src\core/lv_theme.c **** }
  85:..\..\..\arduinoLCD\test\Pain Drain\libraries\lvgl\src\core/lv_theme.c **** 
  86:..\..\..\arduinoLCD\test\Pain Drain\libraries\lvgl\src\core/lv_theme.c **** const lv_font_t * lv_theme_get_font_normal(lv_obj_t * obj)
  87:..\..\..\arduinoLCD\test\Pain Drain\libraries\lvgl\src\core/lv_theme.c **** {
  88:..\..\..\arduinoLCD\test\Pain Drain\libraries\lvgl\src\core/lv_theme.c ****     lv_theme_t * th = lv_theme_get_from_obj(obj);
ARM GAS  C:\Users\haske\AppData\Local\Temp\ccl5xMyd.s 			page 3


  89:..\..\..\arduinoLCD\test\Pain Drain\libraries\lvgl\src\core/lv_theme.c ****     return th ? th->font_normal : LV_FONT_DEFAULT;
  90:..\..\..\arduinoLCD\test\Pain Drain\libraries\lvgl\src\core/lv_theme.c **** }
  91:..\..\..\arduinoLCD\test\Pain Drain\libraries\lvgl\src\core/lv_theme.c **** 
  92:..\..\..\arduinoLCD\test\Pain Drain\libraries\lvgl\src\core/lv_theme.c **** const lv_font_t * lv_theme_get_font_large(lv_obj_t * obj)
  93:..\..\..\arduinoLCD\test\Pain Drain\libraries\lvgl\src\core/lv_theme.c **** {
  94:..\..\..\arduinoLCD\test\Pain Drain\libraries\lvgl\src\core/lv_theme.c ****     lv_theme_t * th = lv_theme_get_from_obj(obj);
  95:..\..\..\arduinoLCD\test\Pain Drain\libraries\lvgl\src\core/lv_theme.c ****     return th ? th->font_large : LV_FONT_DEFAULT;
  96:..\..\..\arduinoLCD\test\Pain Drain\libraries\lvgl\src\core/lv_theme.c **** }
  97:..\..\..\arduinoLCD\test\Pain Drain\libraries\lvgl\src\core/lv_theme.c **** 
  98:..\..\..\arduinoLCD\test\Pain Drain\libraries\lvgl\src\core/lv_theme.c **** lv_color_t lv_theme_get_color_primary(lv_obj_t * obj)
  99:..\..\..\arduinoLCD\test\Pain Drain\libraries\lvgl\src\core/lv_theme.c **** {
 100:..\..\..\arduinoLCD\test\Pain Drain\libraries\lvgl\src\core/lv_theme.c ****     lv_theme_t * th = lv_theme_get_from_obj(obj);
 101:..\..\..\arduinoLCD\test\Pain Drain\libraries\lvgl\src\core/lv_theme.c ****     return th ? th->color_primary : lv_palette_main(LV_PALETTE_BLUE_GREY);
 102:..\..\..\arduinoLCD\test\Pain Drain\libraries\lvgl\src\core/lv_theme.c **** }
 103:..\..\..\arduinoLCD\test\Pain Drain\libraries\lvgl\src\core/lv_theme.c **** 
 104:..\..\..\arduinoLCD\test\Pain Drain\libraries\lvgl\src\core/lv_theme.c **** lv_color_t lv_theme_get_color_secondary(lv_obj_t * obj)
 105:..\..\..\arduinoLCD\test\Pain Drain\libraries\lvgl\src\core/lv_theme.c **** {
 106:..\..\..\arduinoLCD\test\Pain Drain\libraries\lvgl\src\core/lv_theme.c ****     lv_theme_t * th = lv_theme_get_from_obj(obj);
 107:..\..\..\arduinoLCD\test\Pain Drain\libraries\lvgl\src\core/lv_theme.c ****     return th ? th->color_secondary : lv_palette_main(LV_PALETTE_BLUE);
 108:..\..\..\arduinoLCD\test\Pain Drain\libraries\lvgl\src\core/lv_theme.c **** }
 109:..\..\..\arduinoLCD\test\Pain Drain\libraries\lvgl\src\core/lv_theme.c **** 
 110:..\..\..\arduinoLCD\test\Pain Drain\libraries\lvgl\src\core/lv_theme.c **** /**********************
 111:..\..\..\arduinoLCD\test\Pain Drain\libraries\lvgl\src\core/lv_theme.c ****  *   STATIC FUNCTIONS
 112:..\..\..\arduinoLCD\test\Pain Drain\libraries\lvgl\src\core/lv_theme.c ****  **********************/
 113:..\..\..\arduinoLCD\test\Pain Drain\libraries\lvgl\src\core/lv_theme.c **** 
 114:..\..\..\arduinoLCD\test\Pain Drain\libraries\lvgl\src\core/lv_theme.c **** static void apply_theme(lv_theme_t * th, lv_obj_t * obj)
 115:..\..\..\arduinoLCD\test\Pain Drain\libraries\lvgl\src\core/lv_theme.c **** {
  27              		.loc 1 115 0
  28              		.cfi_startproc
  29              		@ args = 0, pretend = 0, frame = 0
  30              		@ frame_needed = 0, uses_anonymous_args = 0
  31              	.LVL0:
  32 0000 70B5     		push	{r4, r5, r6, lr}
  33              		.cfi_def_cfa_offset 16
  34              		.cfi_offset 4, -16
  35              		.cfi_offset 5, -12
  36              		.cfi_offset 6, -8
  37              		.cfi_offset 14, -4
  38 0002 0400     		movs	r4, r0
  39 0004 0D00     		movs	r5, r1
 116:..\..\..\arduinoLCD\test\Pain Drain\libraries\lvgl\src\core/lv_theme.c ****     if(th->parent) apply_theme(th->parent, obj);
  40              		.loc 1 116 0
  41 0006 4068     		ldr	r0, [r0, #4]
  42              	.LVL1:
  43 0008 0028     		cmp	r0, #0
  44 000a 01D0     		beq	.L2
  45              		.loc 1 116 0 is_stmt 0 discriminator 1
  46 000c FFF7F8FF 		bl	apply_theme
  47              	.LVL2:
  48              	.L2:
 117:..\..\..\arduinoLCD\test\Pain Drain\libraries\lvgl\src\core/lv_theme.c ****     if(th->apply_cb) th->apply_cb(th, obj);
  49              		.loc 1 117 0 is_stmt 1
  50 0010 2368     		ldr	r3, [r4]
  51 0012 002B     		cmp	r3, #0
  52 0014 02D0     		beq	.L1
  53              		.loc 1 117 0 is_stmt 0 discriminator 1
  54 0016 2900     		movs	r1, r5
ARM GAS  C:\Users\haske\AppData\Local\Temp\ccl5xMyd.s 			page 4


  55 0018 2000     		movs	r0, r4
  56 001a 9847     		blx	r3
  57              	.LVL3:
  58              	.L1:
 118:..\..\..\arduinoLCD\test\Pain Drain\libraries\lvgl\src\core/lv_theme.c **** }
  59              		.loc 1 118 0 is_stmt 1
  60              		@ sp needed
  61              	.LVL4:
  62              	.LVL5:
  63 001c 70BD     		pop	{r4, r5, r6, pc}
  64              		.cfi_endproc
  65              	.LFE211:
  66              		.size	apply_theme, .-apply_theme
  67 001e C046     		.section	.text.lv_theme_get_from_obj,"ax",%progbits
  68              		.align	2
  69              		.global	lv_theme_get_from_obj
  70              		.code	16
  71              		.thumb_func
  72              		.type	lv_theme_get_from_obj, %function
  73              	lv_theme_get_from_obj:
  74              	.LFB202:
  37:..\..\..\arduinoLCD\test\Pain Drain\libraries\lvgl\src\core/lv_theme.c ****     lv_disp_t * disp = obj ? lv_obj_get_disp(obj) : lv_disp_get_default();
  75              		.loc 1 37 0
  76              		.cfi_startproc
  77              		@ args = 0, pretend = 0, frame = 0
  78              		@ frame_needed = 0, uses_anonymous_args = 0
  79              	.LVL6:
  80 0000 10B5     		push	{r4, lr}
  81              		.cfi_def_cfa_offset 8
  82              		.cfi_offset 4, -8
  83              		.cfi_offset 14, -4
  38:..\..\..\arduinoLCD\test\Pain Drain\libraries\lvgl\src\core/lv_theme.c ****     return lv_disp_get_theme(disp);
  84              		.loc 1 38 0
  85 0002 0028     		cmp	r0, #0
  86 0004 02D0     		beq	.L5
  38:..\..\..\arduinoLCD\test\Pain Drain\libraries\lvgl\src\core/lv_theme.c ****     return lv_disp_get_theme(disp);
  87              		.loc 1 38 0 is_stmt 0 discriminator 1
  88 0006 FFF7FEFF 		bl	lv_obj_get_disp
  89              	.LVL7:
  90 000a 01E0     		b	.L6
  91              	.LVL8:
  92              	.L5:
  38:..\..\..\arduinoLCD\test\Pain Drain\libraries\lvgl\src\core/lv_theme.c ****     return lv_disp_get_theme(disp);
  93              		.loc 1 38 0 discriminator 2
  94 000c FFF7FEFF 		bl	lv_disp_get_default
  95              	.LVL9:
  96              	.L6:
  39:..\..\..\arduinoLCD\test\Pain Drain\libraries\lvgl\src\core/lv_theme.c **** }
  97              		.loc 1 39 0 is_stmt 1 discriminator 4
  98 0010 FFF7FEFF 		bl	lv_disp_get_theme
  99              	.LVL10:
  40:..\..\..\arduinoLCD\test\Pain Drain\libraries\lvgl\src\core/lv_theme.c **** 
 100              		.loc 1 40 0 discriminator 4
 101              		@ sp needed
 102 0014 10BD     		pop	{r4, pc}
 103              		.cfi_endproc
 104              	.LFE202:
ARM GAS  C:\Users\haske\AppData\Local\Temp\ccl5xMyd.s 			page 5


 105              		.size	lv_theme_get_from_obj, .-lv_theme_get_from_obj
 106 0016 C046     		.section	.text.lv_theme_apply,"ax",%progbits
 107              		.align	2
 108              		.global	lv_theme_apply
 109              		.code	16
 110              		.thumb_func
 111              		.type	lv_theme_apply, %function
 112              	lv_theme_apply:
 113              	.LFB203:
  48:..\..\..\arduinoLCD\test\Pain Drain\libraries\lvgl\src\core/lv_theme.c ****     lv_theme_t * th = lv_theme_get_from_obj(obj);
 114              		.loc 1 48 0
 115              		.cfi_startproc
 116              		@ args = 0, pretend = 0, frame = 0
 117              		@ frame_needed = 0, uses_anonymous_args = 0
 118              	.LVL11:
 119 0000 70B5     		push	{r4, r5, r6, lr}
 120              		.cfi_def_cfa_offset 16
 121              		.cfi_offset 4, -16
 122              		.cfi_offset 5, -12
 123              		.cfi_offset 6, -8
 124              		.cfi_offset 14, -4
 125 0002 0400     		movs	r4, r0
  49:..\..\..\arduinoLCD\test\Pain Drain\libraries\lvgl\src\core/lv_theme.c ****     if(th == NULL) return;
 126              		.loc 1 49 0
 127 0004 FFF7FEFF 		bl	lv_theme_get_from_obj
 128              	.LVL12:
 129 0008 051E     		subs	r5, r0, #0
 130              	.LVL13:
  50:..\..\..\arduinoLCD\test\Pain Drain\libraries\lvgl\src\core/lv_theme.c **** 
 131              		.loc 1 50 0
 132 000a 08D0     		beq	.L7
 133              	.LVL14:
 134              	.LBB4:
 135              	.LBB5:
 136              		.file 2 "c:\\projects\\paindrain\\arduinolcd\\test\\pain drain\\libraries\\lvgl\\src/core/lv_obj_s
   1:c:\projects\paindrain\arduinolcd\test\pain drain\libraries\lvgl\src/core\lv_obj_style.h **** /**
   2:c:\projects\paindrain\arduinolcd\test\pain drain\libraries\lvgl\src/core\lv_obj_style.h ****  * @file lv_obj_style.h
   3:c:\projects\paindrain\arduinolcd\test\pain drain\libraries\lvgl\src/core\lv_obj_style.h ****  *
   4:c:\projects\paindrain\arduinolcd\test\pain drain\libraries\lvgl\src/core\lv_obj_style.h ****  */
   5:c:\projects\paindrain\arduinolcd\test\pain drain\libraries\lvgl\src/core\lv_obj_style.h **** 
   6:c:\projects\paindrain\arduinolcd\test\pain drain\libraries\lvgl\src/core\lv_obj_style.h **** #ifndef LV_OBJ_STYLE_H
   7:c:\projects\paindrain\arduinolcd\test\pain drain\libraries\lvgl\src/core\lv_obj_style.h **** #define LV_OBJ_STYLE_H
   8:c:\projects\paindrain\arduinolcd\test\pain drain\libraries\lvgl\src/core\lv_obj_style.h **** 
   9:c:\projects\paindrain\arduinolcd\test\pain drain\libraries\lvgl\src/core\lv_obj_style.h **** #ifdef __cplusplus
  10:c:\projects\paindrain\arduinolcd\test\pain drain\libraries\lvgl\src/core\lv_obj_style.h **** extern "C" {
  11:c:\projects\paindrain\arduinolcd\test\pain drain\libraries\lvgl\src/core\lv_obj_style.h **** #endif
  12:c:\projects\paindrain\arduinolcd\test\pain drain\libraries\lvgl\src/core\lv_obj_style.h **** 
  13:c:\projects\paindrain\arduinolcd\test\pain drain\libraries\lvgl\src/core\lv_obj_style.h **** /*********************
  14:c:\projects\paindrain\arduinolcd\test\pain drain\libraries\lvgl\src/core\lv_obj_style.h ****  *      INCLUDES
  15:c:\projects\paindrain\arduinolcd\test\pain drain\libraries\lvgl\src/core\lv_obj_style.h ****  *********************/
  16:c:\projects\paindrain\arduinolcd\test\pain drain\libraries\lvgl\src/core\lv_obj_style.h **** #include <stdint.h>
  17:c:\projects\paindrain\arduinolcd\test\pain drain\libraries\lvgl\src/core\lv_obj_style.h **** #include <stdbool.h>
  18:c:\projects\paindrain\arduinolcd\test\pain drain\libraries\lvgl\src/core\lv_obj_style.h **** #include "../misc/lv_bidi.h"
  19:c:\projects\paindrain\arduinolcd\test\pain drain\libraries\lvgl\src/core\lv_obj_style.h **** 
  20:c:\projects\paindrain\arduinolcd\test\pain drain\libraries\lvgl\src/core\lv_obj_style.h **** /*********************
  21:c:\projects\paindrain\arduinolcd\test\pain drain\libraries\lvgl\src/core\lv_obj_style.h ****  *      DEFINES
  22:c:\projects\paindrain\arduinolcd\test\pain drain\libraries\lvgl\src/core\lv_obj_style.h ****  *********************/
ARM GAS  C:\Users\haske\AppData\Local\Temp\ccl5xMyd.s 			page 6


  23:c:\projects\paindrain\arduinolcd\test\pain drain\libraries\lvgl\src/core\lv_obj_style.h **** 
  24:c:\projects\paindrain\arduinolcd\test\pain drain\libraries\lvgl\src/core\lv_obj_style.h **** /**********************
  25:c:\projects\paindrain\arduinolcd\test\pain drain\libraries\lvgl\src/core\lv_obj_style.h ****  *      TYPEDEFS
  26:c:\projects\paindrain\arduinolcd\test\pain drain\libraries\lvgl\src/core\lv_obj_style.h ****  **********************/
  27:c:\projects\paindrain\arduinolcd\test\pain drain\libraries\lvgl\src/core\lv_obj_style.h **** /*Can't include lv_obj.h because it includes this header file*/
  28:c:\projects\paindrain\arduinolcd\test\pain drain\libraries\lvgl\src/core\lv_obj_style.h **** struct _lv_obj_t;
  29:c:\projects\paindrain\arduinolcd\test\pain drain\libraries\lvgl\src/core\lv_obj_style.h **** 
  30:c:\projects\paindrain\arduinolcd\test\pain drain\libraries\lvgl\src/core\lv_obj_style.h **** typedef enum {
  31:c:\projects\paindrain\arduinolcd\test\pain drain\libraries\lvgl\src/core\lv_obj_style.h ****     _LV_STYLE_STATE_CMP_SAME,           /*The style properties in the 2 states are identical*/
  32:c:\projects\paindrain\arduinolcd\test\pain drain\libraries\lvgl\src/core\lv_obj_style.h ****     _LV_STYLE_STATE_CMP_DIFF_REDRAW,    /*The differences can be shown with a simple redraw*/
  33:c:\projects\paindrain\arduinolcd\test\pain drain\libraries\lvgl\src/core\lv_obj_style.h ****     _LV_STYLE_STATE_CMP_DIFF_DRAW_PAD,  /*The differences can be shown with a simple redraw*/
  34:c:\projects\paindrain\arduinolcd\test\pain drain\libraries\lvgl\src/core\lv_obj_style.h ****     _LV_STYLE_STATE_CMP_DIFF_LAYOUT,    /*The differences can be shown with a simple redraw*/
  35:c:\projects\paindrain\arduinolcd\test\pain drain\libraries\lvgl\src/core\lv_obj_style.h **** } _lv_style_state_cmp_t;
  36:c:\projects\paindrain\arduinolcd\test\pain drain\libraries\lvgl\src/core\lv_obj_style.h **** 
  37:c:\projects\paindrain\arduinolcd\test\pain drain\libraries\lvgl\src/core\lv_obj_style.h **** typedef uint32_t lv_style_selector_t;
  38:c:\projects\paindrain\arduinolcd\test\pain drain\libraries\lvgl\src/core\lv_obj_style.h **** 
  39:c:\projects\paindrain\arduinolcd\test\pain drain\libraries\lvgl\src/core\lv_obj_style.h **** typedef struct {
  40:c:\projects\paindrain\arduinolcd\test\pain drain\libraries\lvgl\src/core\lv_obj_style.h ****     lv_style_t * style;
  41:c:\projects\paindrain\arduinolcd\test\pain drain\libraries\lvgl\src/core\lv_obj_style.h ****     uint32_t selector : 24;
  42:c:\projects\paindrain\arduinolcd\test\pain drain\libraries\lvgl\src/core\lv_obj_style.h ****     uint32_t is_local : 1;
  43:c:\projects\paindrain\arduinolcd\test\pain drain\libraries\lvgl\src/core\lv_obj_style.h ****     uint32_t is_trans : 1;
  44:c:\projects\paindrain\arduinolcd\test\pain drain\libraries\lvgl\src/core\lv_obj_style.h **** } _lv_obj_style_t;
  45:c:\projects\paindrain\arduinolcd\test\pain drain\libraries\lvgl\src/core\lv_obj_style.h **** 
  46:c:\projects\paindrain\arduinolcd\test\pain drain\libraries\lvgl\src/core\lv_obj_style.h **** typedef struct {
  47:c:\projects\paindrain\arduinolcd\test\pain drain\libraries\lvgl\src/core\lv_obj_style.h ****     uint16_t time;
  48:c:\projects\paindrain\arduinolcd\test\pain drain\libraries\lvgl\src/core\lv_obj_style.h ****     uint16_t delay;
  49:c:\projects\paindrain\arduinolcd\test\pain drain\libraries\lvgl\src/core\lv_obj_style.h ****     lv_style_selector_t selector;
  50:c:\projects\paindrain\arduinolcd\test\pain drain\libraries\lvgl\src/core\lv_obj_style.h ****     lv_style_prop_t prop;
  51:c:\projects\paindrain\arduinolcd\test\pain drain\libraries\lvgl\src/core\lv_obj_style.h ****     lv_anim_path_cb_t path_cb;
  52:c:\projects\paindrain\arduinolcd\test\pain drain\libraries\lvgl\src/core\lv_obj_style.h **** #if LV_USE_USER_DATA
  53:c:\projects\paindrain\arduinolcd\test\pain drain\libraries\lvgl\src/core\lv_obj_style.h ****     void * user_data;
  54:c:\projects\paindrain\arduinolcd\test\pain drain\libraries\lvgl\src/core\lv_obj_style.h **** #endif
  55:c:\projects\paindrain\arduinolcd\test\pain drain\libraries\lvgl\src/core\lv_obj_style.h **** } _lv_obj_style_transition_dsc_t;
  56:c:\projects\paindrain\arduinolcd\test\pain drain\libraries\lvgl\src/core\lv_obj_style.h **** 
  57:c:\projects\paindrain\arduinolcd\test\pain drain\libraries\lvgl\src/core\lv_obj_style.h **** /**********************
  58:c:\projects\paindrain\arduinolcd\test\pain drain\libraries\lvgl\src/core\lv_obj_style.h ****  * GLOBAL PROTOTYPES
  59:c:\projects\paindrain\arduinolcd\test\pain drain\libraries\lvgl\src/core\lv_obj_style.h ****  **********************/
  60:c:\projects\paindrain\arduinolcd\test\pain drain\libraries\lvgl\src/core\lv_obj_style.h **** 
  61:c:\projects\paindrain\arduinolcd\test\pain drain\libraries\lvgl\src/core\lv_obj_style.h **** /**
  62:c:\projects\paindrain\arduinolcd\test\pain drain\libraries\lvgl\src/core\lv_obj_style.h ****  * Initialize the object related style manager module.
  63:c:\projects\paindrain\arduinolcd\test\pain drain\libraries\lvgl\src/core\lv_obj_style.h ****  * Called by LVGL in `lv_init()`
  64:c:\projects\paindrain\arduinolcd\test\pain drain\libraries\lvgl\src/core\lv_obj_style.h ****  */
  65:c:\projects\paindrain\arduinolcd\test\pain drain\libraries\lvgl\src/core\lv_obj_style.h **** void _lv_obj_style_init(void);
  66:c:\projects\paindrain\arduinolcd\test\pain drain\libraries\lvgl\src/core\lv_obj_style.h **** 
  67:c:\projects\paindrain\arduinolcd\test\pain drain\libraries\lvgl\src/core\lv_obj_style.h **** /**
  68:c:\projects\paindrain\arduinolcd\test\pain drain\libraries\lvgl\src/core\lv_obj_style.h ****  * Add a style to an object.
  69:c:\projects\paindrain\arduinolcd\test\pain drain\libraries\lvgl\src/core\lv_obj_style.h ****  * @param obj       pointer to an object
  70:c:\projects\paindrain\arduinolcd\test\pain drain\libraries\lvgl\src/core\lv_obj_style.h ****  * @param style     pointer to a style to add
  71:c:\projects\paindrain\arduinolcd\test\pain drain\libraries\lvgl\src/core\lv_obj_style.h ****  * @param selector  OR-ed value of parts and state to which the style should be added
  72:c:\projects\paindrain\arduinolcd\test\pain drain\libraries\lvgl\src/core\lv_obj_style.h ****  * @example         lv_obj_add_style(btn, &style_btn, 0); //Default button style
  73:c:\projects\paindrain\arduinolcd\test\pain drain\libraries\lvgl\src/core\lv_obj_style.h ****  * @example         lv_obj_add_style(btn, &btn_red, LV_STATE_PRESSED); //Overwrite only some colors
  74:c:\projects\paindrain\arduinolcd\test\pain drain\libraries\lvgl\src/core\lv_obj_style.h ****  */
  75:c:\projects\paindrain\arduinolcd\test\pain drain\libraries\lvgl\src/core\lv_obj_style.h **** void lv_obj_add_style(struct _lv_obj_t * obj, lv_style_t * style, lv_style_selector_t selector);
  76:c:\projects\paindrain\arduinolcd\test\pain drain\libraries\lvgl\src/core\lv_obj_style.h **** 
  77:c:\projects\paindrain\arduinolcd\test\pain drain\libraries\lvgl\src/core\lv_obj_style.h **** /**
  78:c:\projects\paindrain\arduinolcd\test\pain drain\libraries\lvgl\src/core\lv_obj_style.h ****  * Add a style to an object.
  79:c:\projects\paindrain\arduinolcd\test\pain drain\libraries\lvgl\src/core\lv_obj_style.h ****  * @param obj       pointer to an object
ARM GAS  C:\Users\haske\AppData\Local\Temp\ccl5xMyd.s 			page 7


  80:c:\projects\paindrain\arduinolcd\test\pain drain\libraries\lvgl\src/core\lv_obj_style.h ****  * @param style     pointer to a style to remove. Can be NULL to check only the selector
  81:c:\projects\paindrain\arduinolcd\test\pain drain\libraries\lvgl\src/core\lv_obj_style.h ****  * @param selector  OR-ed values of states and a part to remove only styles with matching selectors
  82:c:\projects\paindrain\arduinolcd\test\pain drain\libraries\lvgl\src/core\lv_obj_style.h ****  * @example lv_obj_remove_style(obj, &style, LV_PART_ANY | LV_STATE_ANY); //Remove a specific style
  83:c:\projects\paindrain\arduinolcd\test\pain drain\libraries\lvgl\src/core\lv_obj_style.h ****  * @example lv_obj_remove_style(obj, NULL, LV_PART_MAIN | LV_STATE_ANY); //Remove all styles from t
  84:c:\projects\paindrain\arduinolcd\test\pain drain\libraries\lvgl\src/core\lv_obj_style.h ****  * @example lv_obj_remove_style(obj, NULL, LV_PART_ANY | LV_STATE_ANY); //Remove all styles
  85:c:\projects\paindrain\arduinolcd\test\pain drain\libraries\lvgl\src/core\lv_obj_style.h ****  */
  86:c:\projects\paindrain\arduinolcd\test\pain drain\libraries\lvgl\src/core\lv_obj_style.h **** void lv_obj_remove_style(struct _lv_obj_t * obj, lv_style_t * style, lv_style_selector_t selector);
  87:c:\projects\paindrain\arduinolcd\test\pain drain\libraries\lvgl\src/core\lv_obj_style.h **** 
  88:c:\projects\paindrain\arduinolcd\test\pain drain\libraries\lvgl\src/core\lv_obj_style.h **** /**
  89:c:\projects\paindrain\arduinolcd\test\pain drain\libraries\lvgl\src/core\lv_obj_style.h ****  * Remove all styles from an object
  90:c:\projects\paindrain\arduinolcd\test\pain drain\libraries\lvgl\src/core\lv_obj_style.h ****  * @param obj       pointer to an object
  91:c:\projects\paindrain\arduinolcd\test\pain drain\libraries\lvgl\src/core\lv_obj_style.h ****  */
  92:c:\projects\paindrain\arduinolcd\test\pain drain\libraries\lvgl\src/core\lv_obj_style.h **** static inline void lv_obj_remove_style_all(struct _lv_obj_t * obj)
  93:c:\projects\paindrain\arduinolcd\test\pain drain\libraries\lvgl\src/core\lv_obj_style.h **** {
  94:c:\projects\paindrain\arduinolcd\test\pain drain\libraries\lvgl\src/core\lv_obj_style.h ****     lv_obj_remove_style(obj, NULL, LV_PART_ANY | LV_STATE_ANY);
 137              		.loc 2 94 0
 138 000c 044A     		ldr	r2, .L9
 139 000e 0021     		movs	r1, #0
 140 0010 2000     		movs	r0, r4
 141              	.LVL15:
 142 0012 FFF7FEFF 		bl	lv_obj_remove_style
 143              	.LVL16:
 144              	.LBE5:
 145              	.LBE4:
  54:..\..\..\arduinoLCD\test\Pain Drain\libraries\lvgl\src\core/lv_theme.c **** }
 146              		.loc 1 54 0
 147 0016 2100     		movs	r1, r4
 148 0018 2800     		movs	r0, r5
 149 001a FFF7FEFF 		bl	apply_theme
 150              	.LVL17:
 151              	.L7:
  55:..\..\..\arduinoLCD\test\Pain Drain\libraries\lvgl\src\core/lv_theme.c **** 
 152              		.loc 1 55 0
 153              		@ sp needed
 154              	.LVL18:
 155              	.LVL19:
 156 001e 70BD     		pop	{r4, r5, r6, pc}
 157              	.L10:
 158              		.align	2
 159              	.L9:
 160 0020 FFFF0F00 		.word	1048575
 161              		.cfi_endproc
 162              	.LFE203:
 163              		.size	lv_theme_apply, .-lv_theme_apply
 164              		.section	.text.lv_theme_set_parent,"ax",%progbits
 165              		.align	2
 166              		.global	lv_theme_set_parent
 167              		.code	16
 168              		.thumb_func
 169              		.type	lv_theme_set_parent, %function
 170              	lv_theme_set_parent:
 171              	.LFB204:
  65:..\..\..\arduinoLCD\test\Pain Drain\libraries\lvgl\src\core/lv_theme.c ****     new_theme->parent = base;
 172              		.loc 1 65 0
 173              		.cfi_startproc
 174              		@ args = 0, pretend = 0, frame = 0
 175              		@ frame_needed = 0, uses_anonymous_args = 0
ARM GAS  C:\Users\haske\AppData\Local\Temp\ccl5xMyd.s 			page 8


 176              		@ link register save eliminated.
 177              	.LVL20:
  66:..\..\..\arduinoLCD\test\Pain Drain\libraries\lvgl\src\core/lv_theme.c **** }
 178              		.loc 1 66 0
 179 0000 4160     		str	r1, [r0, #4]
  67:..\..\..\arduinoLCD\test\Pain Drain\libraries\lvgl\src\core/lv_theme.c **** 
 180              		.loc 1 67 0
 181              		@ sp needed
 182 0002 7047     		bx	lr
 183              		.cfi_endproc
 184              	.LFE204:
 185              		.size	lv_theme_set_parent, .-lv_theme_set_parent
 186              		.section	.text.lv_theme_set_apply_cb,"ax",%progbits
 187              		.align	2
 188              		.global	lv_theme_set_apply_cb
 189              		.code	16
 190              		.thumb_func
 191              		.type	lv_theme_set_apply_cb, %function
 192              	lv_theme_set_apply_cb:
 193              	.LFB205:
  76:..\..\..\arduinoLCD\test\Pain Drain\libraries\lvgl\src\core/lv_theme.c ****     theme->apply_cb = apply_cb;
 194              		.loc 1 76 0
 195              		.cfi_startproc
 196              		@ args = 0, pretend = 0, frame = 0
 197              		@ frame_needed = 0, uses_anonymous_args = 0
 198              		@ link register save eliminated.
 199              	.LVL21:
  77:..\..\..\arduinoLCD\test\Pain Drain\libraries\lvgl\src\core/lv_theme.c **** }
 200              		.loc 1 77 0
 201 0000 0160     		str	r1, [r0]
  78:..\..\..\arduinoLCD\test\Pain Drain\libraries\lvgl\src\core/lv_theme.c **** 
 202              		.loc 1 78 0
 203              		@ sp needed
 204 0002 7047     		bx	lr
 205              		.cfi_endproc
 206              	.LFE205:
 207              		.size	lv_theme_set_apply_cb, .-lv_theme_set_apply_cb
 208              		.section	.text.lv_theme_get_font_small,"ax",%progbits
 209              		.align	2
 210              		.global	lv_theme_get_font_small
 211              		.code	16
 212              		.thumb_func
 213              		.type	lv_theme_get_font_small, %function
 214              	lv_theme_get_font_small:
 215              	.LFB206:
  81:..\..\..\arduinoLCD\test\Pain Drain\libraries\lvgl\src\core/lv_theme.c ****     lv_theme_t * th = lv_theme_get_from_obj(obj);
 216              		.loc 1 81 0
 217              		.cfi_startproc
 218              		@ args = 0, pretend = 0, frame = 0
 219              		@ frame_needed = 0, uses_anonymous_args = 0
 220              	.LVL22:
 221 0000 10B5     		push	{r4, lr}
 222              		.cfi_def_cfa_offset 8
 223              		.cfi_offset 4, -8
 224              		.cfi_offset 14, -4
  82:..\..\..\arduinoLCD\test\Pain Drain\libraries\lvgl\src\core/lv_theme.c ****     return th ? th->font_small : LV_FONT_DEFAULT;
 225              		.loc 1 82 0
ARM GAS  C:\Users\haske\AppData\Local\Temp\ccl5xMyd.s 			page 9


 226 0002 FFF7FEFF 		bl	lv_theme_get_from_obj
 227              	.LVL23:
  83:..\..\..\arduinoLCD\test\Pain Drain\libraries\lvgl\src\core/lv_theme.c **** }
 228              		.loc 1 83 0
 229 0006 0028     		cmp	r0, #0
 230 0008 01D0     		beq	.L15
  83:..\..\..\arduinoLCD\test\Pain Drain\libraries\lvgl\src\core/lv_theme.c **** }
 231              		.loc 1 83 0 is_stmt 0 discriminator 1
 232 000a 4069     		ldr	r0, [r0, #20]
 233              	.LVL24:
 234 000c 00E0     		b	.L14
 235              	.LVL25:
 236              	.L15:
  83:..\..\..\arduinoLCD\test\Pain Drain\libraries\lvgl\src\core/lv_theme.c **** }
 237              		.loc 1 83 0
 238 000e 0148     		ldr	r0, .L16
 239              	.LVL26:
 240              	.L14:
  84:..\..\..\arduinoLCD\test\Pain Drain\libraries\lvgl\src\core/lv_theme.c **** 
 241              		.loc 1 84 0 is_stmt 1 discriminator 4
 242              		@ sp needed
 243 0010 10BD     		pop	{r4, pc}
 244              	.L17:
 245 0012 C046     		.align	2
 246              	.L16:
 247 0014 00000000 		.word	lv_font_montserrat_14
 248              		.cfi_endproc
 249              	.LFE206:
 250              		.size	lv_theme_get_font_small, .-lv_theme_get_font_small
 251              		.section	.text.lv_theme_get_font_normal,"ax",%progbits
 252              		.align	2
 253              		.global	lv_theme_get_font_normal
 254              		.code	16
 255              		.thumb_func
 256              		.type	lv_theme_get_font_normal, %function
 257              	lv_theme_get_font_normal:
 258              	.LFB207:
  87:..\..\..\arduinoLCD\test\Pain Drain\libraries\lvgl\src\core/lv_theme.c ****     lv_theme_t * th = lv_theme_get_from_obj(obj);
 259              		.loc 1 87 0
 260              		.cfi_startproc
 261              		@ args = 0, pretend = 0, frame = 0
 262              		@ frame_needed = 0, uses_anonymous_args = 0
 263              	.LVL27:
 264 0000 10B5     		push	{r4, lr}
 265              		.cfi_def_cfa_offset 8
 266              		.cfi_offset 4, -8
 267              		.cfi_offset 14, -4
  88:..\..\..\arduinoLCD\test\Pain Drain\libraries\lvgl\src\core/lv_theme.c ****     return th ? th->font_normal : LV_FONT_DEFAULT;
 268              		.loc 1 88 0
 269 0002 FFF7FEFF 		bl	lv_theme_get_from_obj
 270              	.LVL28:
  89:..\..\..\arduinoLCD\test\Pain Drain\libraries\lvgl\src\core/lv_theme.c **** }
 271              		.loc 1 89 0
 272 0006 0028     		cmp	r0, #0
 273 0008 01D0     		beq	.L20
  89:..\..\..\arduinoLCD\test\Pain Drain\libraries\lvgl\src\core/lv_theme.c **** }
 274              		.loc 1 89 0 is_stmt 0 discriminator 1
ARM GAS  C:\Users\haske\AppData\Local\Temp\ccl5xMyd.s 			page 10


 275 000a 8069     		ldr	r0, [r0, #24]
 276              	.LVL29:
 277 000c 00E0     		b	.L19
 278              	.LVL30:
 279              	.L20:
  89:..\..\..\arduinoLCD\test\Pain Drain\libraries\lvgl\src\core/lv_theme.c **** }
 280              		.loc 1 89 0
 281 000e 0148     		ldr	r0, .L21
 282              	.LVL31:
 283              	.L19:
  90:..\..\..\arduinoLCD\test\Pain Drain\libraries\lvgl\src\core/lv_theme.c **** 
 284              		.loc 1 90 0 is_stmt 1 discriminator 4
 285              		@ sp needed
 286 0010 10BD     		pop	{r4, pc}
 287              	.L22:
 288 0012 C046     		.align	2
 289              	.L21:
 290 0014 00000000 		.word	lv_font_montserrat_14
 291              		.cfi_endproc
 292              	.LFE207:
 293              		.size	lv_theme_get_font_normal, .-lv_theme_get_font_normal
 294              		.section	.text.lv_theme_get_font_large,"ax",%progbits
 295              		.align	2
 296              		.global	lv_theme_get_font_large
 297              		.code	16
 298              		.thumb_func
 299              		.type	lv_theme_get_font_large, %function
 300              	lv_theme_get_font_large:
 301              	.LFB208:
  93:..\..\..\arduinoLCD\test\Pain Drain\libraries\lvgl\src\core/lv_theme.c ****     lv_theme_t * th = lv_theme_get_from_obj(obj);
 302              		.loc 1 93 0
 303              		.cfi_startproc
 304              		@ args = 0, pretend = 0, frame = 0
 305              		@ frame_needed = 0, uses_anonymous_args = 0
 306              	.LVL32:
 307 0000 10B5     		push	{r4, lr}
 308              		.cfi_def_cfa_offset 8
 309              		.cfi_offset 4, -8
 310              		.cfi_offset 14, -4
  94:..\..\..\arduinoLCD\test\Pain Drain\libraries\lvgl\src\core/lv_theme.c ****     return th ? th->font_large : LV_FONT_DEFAULT;
 311              		.loc 1 94 0
 312 0002 FFF7FEFF 		bl	lv_theme_get_from_obj
 313              	.LVL33:
  95:..\..\..\arduinoLCD\test\Pain Drain\libraries\lvgl\src\core/lv_theme.c **** }
 314              		.loc 1 95 0
 315 0006 0028     		cmp	r0, #0
 316 0008 01D0     		beq	.L25
  95:..\..\..\arduinoLCD\test\Pain Drain\libraries\lvgl\src\core/lv_theme.c **** }
 317              		.loc 1 95 0 is_stmt 0 discriminator 1
 318 000a C069     		ldr	r0, [r0, #28]
 319              	.LVL34:
 320 000c 00E0     		b	.L24
 321              	.LVL35:
 322              	.L25:
  95:..\..\..\arduinoLCD\test\Pain Drain\libraries\lvgl\src\core/lv_theme.c **** }
 323              		.loc 1 95 0
 324 000e 0148     		ldr	r0, .L26
ARM GAS  C:\Users\haske\AppData\Local\Temp\ccl5xMyd.s 			page 11


 325              	.LVL36:
 326              	.L24:
  96:..\..\..\arduinoLCD\test\Pain Drain\libraries\lvgl\src\core/lv_theme.c **** 
 327              		.loc 1 96 0 is_stmt 1 discriminator 4
 328              		@ sp needed
 329 0010 10BD     		pop	{r4, pc}
 330              	.L27:
 331 0012 C046     		.align	2
 332              	.L26:
 333 0014 00000000 		.word	lv_font_montserrat_14
 334              		.cfi_endproc
 335              	.LFE208:
 336              		.size	lv_theme_get_font_large, .-lv_theme_get_font_large
 337              		.section	.text.lv_theme_get_color_primary,"ax",%progbits
 338              		.align	2
 339              		.global	lv_theme_get_color_primary
 340              		.code	16
 341              		.thumb_func
 342              		.type	lv_theme_get_color_primary, %function
 343              	lv_theme_get_color_primary:
 344              	.LFB209:
  99:..\..\..\arduinoLCD\test\Pain Drain\libraries\lvgl\src\core/lv_theme.c ****     lv_theme_t * th = lv_theme_get_from_obj(obj);
 345              		.loc 1 99 0
 346              		.cfi_startproc
 347              		@ args = 0, pretend = 0, frame = 0
 348              		@ frame_needed = 0, uses_anonymous_args = 0
 349              	.LVL37:
 350 0000 10B5     		push	{r4, lr}
 351              		.cfi_def_cfa_offset 8
 352              		.cfi_offset 4, -8
 353              		.cfi_offset 14, -4
 100:..\..\..\arduinoLCD\test\Pain Drain\libraries\lvgl\src\core/lv_theme.c ****     return th ? th->color_primary : lv_palette_main(LV_PALETTE_BLUE_GREY);
 354              		.loc 1 100 0
 355 0002 FFF7FEFF 		bl	lv_theme_get_from_obj
 356              	.LVL38:
 101:..\..\..\arduinoLCD\test\Pain Drain\libraries\lvgl\src\core/lv_theme.c **** }
 357              		.loc 1 101 0
 358 0006 0028     		cmp	r0, #0
 359 0008 01D0     		beq	.L29
 101:..\..\..\arduinoLCD\test\Pain Drain\libraries\lvgl\src\core/lv_theme.c **** }
 360              		.loc 1 101 0 is_stmt 0 discriminator 1
 361 000a 008A     		ldrh	r0, [r0, #16]
 362              	.LVL39:
 363 000c 02E0     		b	.L30
 364              	.LVL40:
 365              	.L29:
 101:..\..\..\arduinoLCD\test\Pain Drain\libraries\lvgl\src\core/lv_theme.c **** }
 366              		.loc 1 101 0 discriminator 2
 367 000e 1120     		movs	r0, #17
 368              	.LVL41:
 369 0010 FFF7FEFF 		bl	lv_palette_main
 370              	.LVL42:
 371              	.L30:
 102:..\..\..\arduinoLCD\test\Pain Drain\libraries\lvgl\src\core/lv_theme.c **** 
 372              		.loc 1 102 0 is_stmt 1
 373              		@ sp needed
 374 0014 10BD     		pop	{r4, pc}
ARM GAS  C:\Users\haske\AppData\Local\Temp\ccl5xMyd.s 			page 12


 375              		.cfi_endproc
 376              	.LFE209:
 377              		.size	lv_theme_get_color_primary, .-lv_theme_get_color_primary
 378 0016 C046     		.section	.text.lv_theme_get_color_secondary,"ax",%progbits
 379              		.align	2
 380              		.global	lv_theme_get_color_secondary
 381              		.code	16
 382              		.thumb_func
 383              		.type	lv_theme_get_color_secondary, %function
 384              	lv_theme_get_color_secondary:
 385              	.LFB210:
 105:..\..\..\arduinoLCD\test\Pain Drain\libraries\lvgl\src\core/lv_theme.c ****     lv_theme_t * th = lv_theme_get_from_obj(obj);
 386              		.loc 1 105 0
 387              		.cfi_startproc
 388              		@ args = 0, pretend = 0, frame = 0
 389              		@ frame_needed = 0, uses_anonymous_args = 0
 390              	.LVL43:
 391 0000 10B5     		push	{r4, lr}
 392              		.cfi_def_cfa_offset 8
 393              		.cfi_offset 4, -8
 394              		.cfi_offset 14, -4
 106:..\..\..\arduinoLCD\test\Pain Drain\libraries\lvgl\src\core/lv_theme.c ****     return th ? th->color_secondary : lv_palette_main(LV_PALETTE_BLUE);
 395              		.loc 1 106 0
 396 0002 FFF7FEFF 		bl	lv_theme_get_from_obj
 397              	.LVL44:
 107:..\..\..\arduinoLCD\test\Pain Drain\libraries\lvgl\src\core/lv_theme.c **** }
 398              		.loc 1 107 0
 399 0006 0028     		cmp	r0, #0
 400 0008 01D0     		beq	.L32
 107:..\..\..\arduinoLCD\test\Pain Drain\libraries\lvgl\src\core/lv_theme.c **** }
 401              		.loc 1 107 0 is_stmt 0 discriminator 1
 402 000a 408A     		ldrh	r0, [r0, #18]
 403              	.LVL45:
 404 000c 02E0     		b	.L33
 405              	.LVL46:
 406              	.L32:
 107:..\..\..\arduinoLCD\test\Pain Drain\libraries\lvgl\src\core/lv_theme.c **** }
 407              		.loc 1 107 0 discriminator 2
 408 000e 0520     		movs	r0, #5
 409              	.LVL47:
 410 0010 FFF7FEFF 		bl	lv_palette_main
 411              	.LVL48:
 412              	.L33:
 108:..\..\..\arduinoLCD\test\Pain Drain\libraries\lvgl\src\core/lv_theme.c **** 
 413              		.loc 1 108 0 is_stmt 1
 414              		@ sp needed
 415 0014 10BD     		pop	{r4, pc}
 416              		.cfi_endproc
 417              	.LFE210:
 418              		.size	lv_theme_get_color_secondary, .-lv_theme_get_color_secondary
 419 0016 C046     		.text
 420              	.Letext0:
 421              		.file 3 "c:\\program files (x86)\\cypress\\psoc creator\\4.4\\psoc creator\\import\\gnu\\arm\\5.4.
 422              		.file 4 "c:\\program files (x86)\\cypress\\psoc creator\\4.4\\psoc creator\\import\\gnu\\arm\\5.4.
 423              		.file 5 "c:\\projects\\paindrain\\arduinolcd\\test\\pain drain\\libraries\\lvgl\\src/misc/lv_types
 424              		.file 6 "c:\\projects\\paindrain\\arduinolcd\\test\\pain drain\\libraries\\lvgl\\src/misc/lv_timer
 425              		.file 7 "c:\\program files (x86)\\cypress\\psoc creator\\4.4\\psoc creator\\import\\gnu\\arm\\5.4.
ARM GAS  C:\Users\haske\AppData\Local\Temp\ccl5xMyd.s 			page 13


 426              		.file 8 "c:\\projects\\paindrain\\arduinolcd\\test\\pain drain\\libraries\\lvgl\\src\\misc\\lv_are
 427              		.file 9 "c:\\projects\\paindrain\\arduinolcd\\test\\pain drain\\libraries\\lvgl\\src\\font\\lv_fon
 428              		.file 10 "c:\\projects\\paindrain\\arduinolcd\\test\\pain drain\\libraries\\lvgl\\src\\misc\\lv_co
 429              		.file 11 "c:\\projects\\paindrain\\arduinolcd\\test\\pain drain\\libraries\\lvgl\\src\\misc\\lv_tx
 430              		.file 12 "c:\\projects\\paindrain\\arduinolcd\\test\\pain drain\\libraries\\lvgl\\src\\misc\\lv_bi
 431              		.file 13 "c:\\projects\\paindrain\\arduinolcd\\test\\pain drain\\libraries\\lvgl\\src\\misc\\lv_st
 432              		.file 14 "c:\\projects\\paindrain\\arduinolcd\\test\\pain drain\\libraries\\lvgl\\src\\draw\\lv_im
 433              		.file 15 "c:\\projects\\paindrain\\arduinolcd\\test\\pain drain\\libraries\\lvgl\\src/core/lv_obj.
 434              		.file 16 "c:\\projects\\paindrain\\arduinolcd\\test\\pain drain\\libraries\\lvgl\\src\\draw\\lv_dr
 435              		.file 17 "c:\\projects\\paindrain\\arduinolcd\\test\\pain drain\\libraries\\lvgl\\src\\draw\\lv_dr
 436              		.file 18 "c:\\projects\\paindrain\\arduinolcd\\test\\pain drain\\libraries\\lvgl\\src\\draw\\lv_dr
 437              		.file 19 "c:\\projects\\paindrain\\arduinolcd\\test\\pain drain\\libraries\\lvgl\\src\\draw\\lv_dr
 438              		.file 20 "c:\\projects\\paindrain\\arduinolcd\\test\\pain drain\\libraries\\lvgl\\src\\draw\\lv_dr
 439              		.file 21 "c:\\projects\\paindrain\\arduinolcd\\test\\pain drain\\libraries\\lvgl\\src\\draw\\lv_dr
 440              		.file 22 "c:\\projects\\paindrain\\arduinolcd\\test\\pain drain\\libraries\\lvgl\\src\\draw\\lv_dr
 441              		.file 23 "c:\\projects\\paindrain\\arduinolcd\\test\\pain drain\\libraries\\lvgl\\src\\misc\\lv_ll
 442              		.file 24 "c:\\projects\\paindrain\\arduinolcd\\test\\pain drain\\libraries\\lvgl\\src/hal/lv_hal_d
 443              		.file 25 "c:\\projects\\paindrain\\arduinolcd\\test\\pain drain\\libraries\\lvgl\\src/core/lv_them
 444              		.file 26 "c:\\projects\\paindrain\\arduinolcd\\test\\pain drain\\libraries\\lvgl\\src/core/lv_grou
 445              		.file 27 "c:\\projects\\paindrain\\arduinolcd\\test\\pain drain\\libraries\\lvgl\\src/core/lv_obj_
 446              		.file 28 "c:\\projects\\paindrain\\arduinolcd\\test\\pain drain\\libraries\\lvgl\\src/core/lv_obj_
 447              		.file 29 "c:\\projects\\paindrain\\arduinolcd\\test\\pain drain\\libraries\\lvgl\\src/core/lv_even
 448              		.file 30 "c:\\projects\\paindrain\\arduinolcd\\test\\pain drain\\libraries\\lvgl\\src/extra/layout
 449              		.file 31 "c:\\projects\\paindrain\\arduinolcd\\test\\pain drain\\libraries\\lvgl\\src/extra/layout
 450              		.file 32 "c:\\projects\\paindrain\\arduinolcd\\test\\pain drain\\libraries\\lvgl\\src/core/lv_obj_
 451              		.file 33 "c:\\projects\\paindrain\\arduinolcd\\test\\pain drain\\libraries\\lvgl\\src/core/lv_disp