ARM GAS  C:\Users\haske\AppData\Local\Temp\ccg6iOQH.s 			page 1


   1              		.syntax unified
   2              		.cpu cortex-m0plus
   3              		.fpu softvfp
   4              		.eabi_attribute 20, 1
   5              		.eabi_attribute 21, 1
   6              		.eabi_attribute 23, 3
   7              		.eabi_attribute 24, 1
   8              		.eabi_attribute 25, 1
   9              		.eabi_attribute 26, 1
  10              		.eabi_attribute 30, 1
  11              		.eabi_attribute 34, 0
  12              		.eabi_attribute 18, 4
  13              		.thumb
  14              		.syntax unified
  15              		.file	"lv_txt.c"
  16              		.text
  17              	.Ltext0:
  18              		.cfi_sections	.debug_frame
  19              		.section	.text.lv_txt_utf8_size,"ax",%progbits
  20              		.align	2
  21              		.code	16
  22              		.thumb_func
  23              		.type	lv_txt_utf8_size, %function
  24              	lv_txt_utf8_size:
  25              	.LFB64:
  26              		.file 1 "..\\..\\..\\arduinoLCD\\test\\Pain Drain\\libraries\\lvgl\\src\\misc\\lv_txt.c"
   1:..\..\..\arduinoLCD\test\Pain Drain\libraries\lvgl\src\misc/lv_txt.c **** /**
   2:..\..\..\arduinoLCD\test\Pain Drain\libraries\lvgl\src\misc/lv_txt.c ****  * @file lv_txt.c
   3:..\..\..\arduinoLCD\test\Pain Drain\libraries\lvgl\src\misc/lv_txt.c ****  *
   4:..\..\..\arduinoLCD\test\Pain Drain\libraries\lvgl\src\misc/lv_txt.c ****  */
   5:..\..\..\arduinoLCD\test\Pain Drain\libraries\lvgl\src\misc/lv_txt.c **** 
   6:..\..\..\arduinoLCD\test\Pain Drain\libraries\lvgl\src\misc/lv_txt.c **** /*********************
   7:..\..\..\arduinoLCD\test\Pain Drain\libraries\lvgl\src\misc/lv_txt.c ****  *      INCLUDES
   8:..\..\..\arduinoLCD\test\Pain Drain\libraries\lvgl\src\misc/lv_txt.c ****  *********************/
   9:..\..\..\arduinoLCD\test\Pain Drain\libraries\lvgl\src\misc/lv_txt.c **** #include <stdarg.h>
  10:..\..\..\arduinoLCD\test\Pain Drain\libraries\lvgl\src\misc/lv_txt.c **** #include "lv_txt.h"
  11:..\..\..\arduinoLCD\test\Pain Drain\libraries\lvgl\src\misc/lv_txt.c **** #include "lv_txt_ap.h"
  12:..\..\..\arduinoLCD\test\Pain Drain\libraries\lvgl\src\misc/lv_txt.c **** #include "lv_math.h"
  13:..\..\..\arduinoLCD\test\Pain Drain\libraries\lvgl\src\misc/lv_txt.c **** #include "lv_log.h"
  14:..\..\..\arduinoLCD\test\Pain Drain\libraries\lvgl\src\misc/lv_txt.c **** #include "lv_mem.h"
  15:..\..\..\arduinoLCD\test\Pain Drain\libraries\lvgl\src\misc/lv_txt.c **** #include "lv_assert.h"
  16:..\..\..\arduinoLCD\test\Pain Drain\libraries\lvgl\src\misc/lv_txt.c **** 
  17:..\..\..\arduinoLCD\test\Pain Drain\libraries\lvgl\src\misc/lv_txt.c **** /*********************
  18:..\..\..\arduinoLCD\test\Pain Drain\libraries\lvgl\src\misc/lv_txt.c ****  *      DEFINES
  19:..\..\..\arduinoLCD\test\Pain Drain\libraries\lvgl\src\misc/lv_txt.c ****  *********************/
  20:..\..\..\arduinoLCD\test\Pain Drain\libraries\lvgl\src\misc/lv_txt.c **** #define NO_BREAK_FOUND UINT32_MAX
  21:..\..\..\arduinoLCD\test\Pain Drain\libraries\lvgl\src\misc/lv_txt.c **** 
  22:..\..\..\arduinoLCD\test\Pain Drain\libraries\lvgl\src\misc/lv_txt.c **** /**********************
  23:..\..\..\arduinoLCD\test\Pain Drain\libraries\lvgl\src\misc/lv_txt.c ****  *      TYPEDEFS
  24:..\..\..\arduinoLCD\test\Pain Drain\libraries\lvgl\src\misc/lv_txt.c ****  **********************/
  25:..\..\..\arduinoLCD\test\Pain Drain\libraries\lvgl\src\misc/lv_txt.c **** 
  26:..\..\..\arduinoLCD\test\Pain Drain\libraries\lvgl\src\misc/lv_txt.c **** /**********************
  27:..\..\..\arduinoLCD\test\Pain Drain\libraries\lvgl\src\misc/lv_txt.c ****  *  STATIC PROTOTYPES
  28:..\..\..\arduinoLCD\test\Pain Drain\libraries\lvgl\src\misc/lv_txt.c ****  **********************/
  29:..\..\..\arduinoLCD\test\Pain Drain\libraries\lvgl\src\misc/lv_txt.c **** 
  30:..\..\..\arduinoLCD\test\Pain Drain\libraries\lvgl\src\misc/lv_txt.c **** #if LV_TXT_ENC == LV_TXT_ENC_UTF8
  31:..\..\..\arduinoLCD\test\Pain Drain\libraries\lvgl\src\misc/lv_txt.c ****     static uint8_t lv_txt_utf8_size(const char * str);
ARM GAS  C:\Users\haske\AppData\Local\Temp\ccg6iOQH.s 			page 2


  32:..\..\..\arduinoLCD\test\Pain Drain\libraries\lvgl\src\misc/lv_txt.c ****     static uint32_t lv_txt_unicode_to_utf8(uint32_t letter_uni);
  33:..\..\..\arduinoLCD\test\Pain Drain\libraries\lvgl\src\misc/lv_txt.c ****     static uint32_t lv_txt_utf8_conv_wc(uint32_t c);
  34:..\..\..\arduinoLCD\test\Pain Drain\libraries\lvgl\src\misc/lv_txt.c ****     static uint32_t lv_txt_utf8_next(const char * txt, uint32_t * i);
  35:..\..\..\arduinoLCD\test\Pain Drain\libraries\lvgl\src\misc/lv_txt.c ****     static uint32_t lv_txt_utf8_prev(const char * txt, uint32_t * i_start);
  36:..\..\..\arduinoLCD\test\Pain Drain\libraries\lvgl\src\misc/lv_txt.c ****     static uint32_t lv_txt_utf8_get_byte_id(const char * txt, uint32_t utf8_id);
  37:..\..\..\arduinoLCD\test\Pain Drain\libraries\lvgl\src\misc/lv_txt.c ****     static uint32_t lv_txt_utf8_get_char_id(const char * txt, uint32_t byte_id);
  38:..\..\..\arduinoLCD\test\Pain Drain\libraries\lvgl\src\misc/lv_txt.c ****     static uint32_t lv_txt_utf8_get_length(const char * txt);
  39:..\..\..\arduinoLCD\test\Pain Drain\libraries\lvgl\src\misc/lv_txt.c **** #elif LV_TXT_ENC == LV_TXT_ENC_ASCII
  40:..\..\..\arduinoLCD\test\Pain Drain\libraries\lvgl\src\misc/lv_txt.c ****     static uint8_t lv_txt_iso8859_1_size(const char * str);
  41:..\..\..\arduinoLCD\test\Pain Drain\libraries\lvgl\src\misc/lv_txt.c ****     static uint32_t lv_txt_unicode_to_iso8859_1(uint32_t letter_uni);
  42:..\..\..\arduinoLCD\test\Pain Drain\libraries\lvgl\src\misc/lv_txt.c ****     static uint32_t lv_txt_iso8859_1_conv_wc(uint32_t c);
  43:..\..\..\arduinoLCD\test\Pain Drain\libraries\lvgl\src\misc/lv_txt.c ****     static uint32_t lv_txt_iso8859_1_next(const char * txt, uint32_t * i);
  44:..\..\..\arduinoLCD\test\Pain Drain\libraries\lvgl\src\misc/lv_txt.c ****     static uint32_t lv_txt_iso8859_1_prev(const char * txt, uint32_t * i_start);
  45:..\..\..\arduinoLCD\test\Pain Drain\libraries\lvgl\src\misc/lv_txt.c ****     static uint32_t lv_txt_iso8859_1_get_byte_id(const char * txt, uint32_t utf8_id);
  46:..\..\..\arduinoLCD\test\Pain Drain\libraries\lvgl\src\misc/lv_txt.c ****     static uint32_t lv_txt_iso8859_1_get_char_id(const char * txt, uint32_t byte_id);
  47:..\..\..\arduinoLCD\test\Pain Drain\libraries\lvgl\src\misc/lv_txt.c ****     static uint32_t lv_txt_iso8859_1_get_length(const char * txt);
  48:..\..\..\arduinoLCD\test\Pain Drain\libraries\lvgl\src\misc/lv_txt.c **** #endif
  49:..\..\..\arduinoLCD\test\Pain Drain\libraries\lvgl\src\misc/lv_txt.c **** /**********************
  50:..\..\..\arduinoLCD\test\Pain Drain\libraries\lvgl\src\misc/lv_txt.c ****  *  STATIC VARIABLES
  51:..\..\..\arduinoLCD\test\Pain Drain\libraries\lvgl\src\misc/lv_txt.c ****  **********************/
  52:..\..\..\arduinoLCD\test\Pain Drain\libraries\lvgl\src\misc/lv_txt.c **** 
  53:..\..\..\arduinoLCD\test\Pain Drain\libraries\lvgl\src\misc/lv_txt.c **** /**********************
  54:..\..\..\arduinoLCD\test\Pain Drain\libraries\lvgl\src\misc/lv_txt.c ****  *  GLOBAL VARIABLES
  55:..\..\..\arduinoLCD\test\Pain Drain\libraries\lvgl\src\misc/lv_txt.c ****  **********************/
  56:..\..\..\arduinoLCD\test\Pain Drain\libraries\lvgl\src\misc/lv_txt.c **** #if LV_TXT_ENC == LV_TXT_ENC_UTF8
  57:..\..\..\arduinoLCD\test\Pain Drain\libraries\lvgl\src\misc/lv_txt.c ****     uint8_t (*_lv_txt_encoded_size)(const char *)                   = lv_txt_utf8_size;
  58:..\..\..\arduinoLCD\test\Pain Drain\libraries\lvgl\src\misc/lv_txt.c ****     uint32_t (*_lv_txt_unicode_to_encoded)(uint32_t)                = lv_txt_unicode_to_utf8;
  59:..\..\..\arduinoLCD\test\Pain Drain\libraries\lvgl\src\misc/lv_txt.c ****     uint32_t (*_lv_txt_encoded_conv_wc)(uint32_t)                   = lv_txt_utf8_conv_wc;
  60:..\..\..\arduinoLCD\test\Pain Drain\libraries\lvgl\src\misc/lv_txt.c ****     uint32_t (*_lv_txt_encoded_next)(const char *, uint32_t *)      = lv_txt_utf8_next;
  61:..\..\..\arduinoLCD\test\Pain Drain\libraries\lvgl\src\misc/lv_txt.c ****     uint32_t (*_lv_txt_encoded_prev)(const char *, uint32_t *)      = lv_txt_utf8_prev;
  62:..\..\..\arduinoLCD\test\Pain Drain\libraries\lvgl\src\misc/lv_txt.c ****     uint32_t (*_lv_txt_encoded_get_byte_id)(const char *, uint32_t) = lv_txt_utf8_get_byte_id;
  63:..\..\..\arduinoLCD\test\Pain Drain\libraries\lvgl\src\misc/lv_txt.c ****     uint32_t (*_lv_txt_encoded_get_char_id)(const char *, uint32_t) = lv_txt_utf8_get_char_id;
  64:..\..\..\arduinoLCD\test\Pain Drain\libraries\lvgl\src\misc/lv_txt.c ****     uint32_t (*_lv_txt_get_encoded_length)(const char *)            = lv_txt_utf8_get_length;
  65:..\..\..\arduinoLCD\test\Pain Drain\libraries\lvgl\src\misc/lv_txt.c **** #elif LV_TXT_ENC == LV_TXT_ENC_ASCII
  66:..\..\..\arduinoLCD\test\Pain Drain\libraries\lvgl\src\misc/lv_txt.c ****     uint8_t (*_lv_txt_encoded_size)(const char *)                   = lv_txt_iso8859_1_size;
  67:..\..\..\arduinoLCD\test\Pain Drain\libraries\lvgl\src\misc/lv_txt.c ****     uint32_t (*_lv_txt_unicode_to_encoded)(uint32_t)                = lv_txt_unicode_to_iso8859_1;
  68:..\..\..\arduinoLCD\test\Pain Drain\libraries\lvgl\src\misc/lv_txt.c ****     uint32_t (*_lv_txt_encoded_conv_wc)(uint32_t)                   = lv_txt_iso8859_1_conv_wc;
  69:..\..\..\arduinoLCD\test\Pain Drain\libraries\lvgl\src\misc/lv_txt.c ****     uint32_t (*_lv_txt_encoded_next)(const char *, uint32_t *)      = lv_txt_iso8859_1_next;
  70:..\..\..\arduinoLCD\test\Pain Drain\libraries\lvgl\src\misc/lv_txt.c ****     uint32_t (*_lv_txt_encoded_prev)(const char *, uint32_t *)      = lv_txt_iso8859_1_prev;
  71:..\..\..\arduinoLCD\test\Pain Drain\libraries\lvgl\src\misc/lv_txt.c ****     uint32_t (*_lv_txt_encoded_get_byte_id)(const char *, uint32_t) = lv_txt_iso8859_1_get_byte_id;
  72:..\..\..\arduinoLCD\test\Pain Drain\libraries\lvgl\src\misc/lv_txt.c ****     uint32_t (*_lv_txt_encoded_get_char_id)(const char *, uint32_t)     = lv_txt_iso8859_1_get_char
  73:..\..\..\arduinoLCD\test\Pain Drain\libraries\lvgl\src\misc/lv_txt.c ****     uint32_t (*_lv_txt_get_encoded_length)(const char *)            = lv_txt_iso8859_1_get_length;
  74:..\..\..\arduinoLCD\test\Pain Drain\libraries\lvgl\src\misc/lv_txt.c **** 
  75:..\..\..\arduinoLCD\test\Pain Drain\libraries\lvgl\src\misc/lv_txt.c **** #endif
  76:..\..\..\arduinoLCD\test\Pain Drain\libraries\lvgl\src\misc/lv_txt.c **** 
  77:..\..\..\arduinoLCD\test\Pain Drain\libraries\lvgl\src\misc/lv_txt.c **** /**********************
  78:..\..\..\arduinoLCD\test\Pain Drain\libraries\lvgl\src\misc/lv_txt.c ****  *      MACROS
  79:..\..\..\arduinoLCD\test\Pain Drain\libraries\lvgl\src\misc/lv_txt.c ****  **********************/
  80:..\..\..\arduinoLCD\test\Pain Drain\libraries\lvgl\src\misc/lv_txt.c **** 
  81:..\..\..\arduinoLCD\test\Pain Drain\libraries\lvgl\src\misc/lv_txt.c **** #define LV_IS_ASCII(value)              ((value & 0x80U) == 0x00U)
  82:..\..\..\arduinoLCD\test\Pain Drain\libraries\lvgl\src\misc/lv_txt.c **** #define LV_IS_2BYTES_UTF8_CODE(value)   ((value & 0xE0U) == 0xC0U)
  83:..\..\..\arduinoLCD\test\Pain Drain\libraries\lvgl\src\misc/lv_txt.c **** #define LV_IS_3BYTES_UTF8_CODE(value)   ((value & 0xF0U) == 0xE0U)
  84:..\..\..\arduinoLCD\test\Pain Drain\libraries\lvgl\src\misc/lv_txt.c **** #define LV_IS_4BYTES_UTF8_CODE(value)   ((value & 0xF8U) == 0xF0U)
  85:..\..\..\arduinoLCD\test\Pain Drain\libraries\lvgl\src\misc/lv_txt.c **** #define LV_IS_INVALID_UTF8_CODE(value)  ((value & 0xC0U) != 0x80U)
  86:..\..\..\arduinoLCD\test\Pain Drain\libraries\lvgl\src\misc/lv_txt.c **** 
  87:..\..\..\arduinoLCD\test\Pain Drain\libraries\lvgl\src\misc/lv_txt.c **** /**********************
  88:..\..\..\arduinoLCD\test\Pain Drain\libraries\lvgl\src\misc/lv_txt.c ****  *   GLOBAL FUNCTIONS
ARM GAS  C:\Users\haske\AppData\Local\Temp\ccg6iOQH.s 			page 3


  89:..\..\..\arduinoLCD\test\Pain Drain\libraries\lvgl\src\misc/lv_txt.c ****  **********************/
  90:..\..\..\arduinoLCD\test\Pain Drain\libraries\lvgl\src\misc/lv_txt.c **** 
  91:..\..\..\arduinoLCD\test\Pain Drain\libraries\lvgl\src\misc/lv_txt.c **** void lv_txt_get_size(lv_point_t * size_res, const char * text, const lv_font_t * font, lv_coord_t l
  92:..\..\..\arduinoLCD\test\Pain Drain\libraries\lvgl\src\misc/lv_txt.c ****                      lv_coord_t line_space, lv_coord_t max_width, lv_text_flag_t flag)
  93:..\..\..\arduinoLCD\test\Pain Drain\libraries\lvgl\src\misc/lv_txt.c **** {
  94:..\..\..\arduinoLCD\test\Pain Drain\libraries\lvgl\src\misc/lv_txt.c ****     size_res->x = 0;
  95:..\..\..\arduinoLCD\test\Pain Drain\libraries\lvgl\src\misc/lv_txt.c ****     size_res->y = 0;
  96:..\..\..\arduinoLCD\test\Pain Drain\libraries\lvgl\src\misc/lv_txt.c **** 
  97:..\..\..\arduinoLCD\test\Pain Drain\libraries\lvgl\src\misc/lv_txt.c ****     if(text == NULL) return;
  98:..\..\..\arduinoLCD\test\Pain Drain\libraries\lvgl\src\misc/lv_txt.c ****     if(font == NULL) return;
  99:..\..\..\arduinoLCD\test\Pain Drain\libraries\lvgl\src\misc/lv_txt.c **** 
 100:..\..\..\arduinoLCD\test\Pain Drain\libraries\lvgl\src\misc/lv_txt.c ****     if(flag & LV_TEXT_FLAG_EXPAND) max_width = LV_COORD_MAX;
 101:..\..\..\arduinoLCD\test\Pain Drain\libraries\lvgl\src\misc/lv_txt.c **** 
 102:..\..\..\arduinoLCD\test\Pain Drain\libraries\lvgl\src\misc/lv_txt.c ****     uint32_t line_start     = 0;
 103:..\..\..\arduinoLCD\test\Pain Drain\libraries\lvgl\src\misc/lv_txt.c ****     uint32_t new_line_start = 0;
 104:..\..\..\arduinoLCD\test\Pain Drain\libraries\lvgl\src\misc/lv_txt.c ****     uint16_t letter_height = lv_font_get_line_height(font);
 105:..\..\..\arduinoLCD\test\Pain Drain\libraries\lvgl\src\misc/lv_txt.c **** 
 106:..\..\..\arduinoLCD\test\Pain Drain\libraries\lvgl\src\misc/lv_txt.c ****     /*Calc. the height and longest line*/
 107:..\..\..\arduinoLCD\test\Pain Drain\libraries\lvgl\src\misc/lv_txt.c ****     while(text[line_start] != '\0') {
 108:..\..\..\arduinoLCD\test\Pain Drain\libraries\lvgl\src\misc/lv_txt.c ****         new_line_start += _lv_txt_get_next_line(&text[line_start], font, letter_space, max_width, N
 109:..\..\..\arduinoLCD\test\Pain Drain\libraries\lvgl\src\misc/lv_txt.c **** 
 110:..\..\..\arduinoLCD\test\Pain Drain\libraries\lvgl\src\misc/lv_txt.c ****         if((unsigned long)size_res->y + (unsigned long)letter_height + (unsigned long)line_space > 
 111:..\..\..\arduinoLCD\test\Pain Drain\libraries\lvgl\src\misc/lv_txt.c ****             LV_LOG_WARN("lv_txt_get_size: integer overflow while calculating text height");
 112:..\..\..\arduinoLCD\test\Pain Drain\libraries\lvgl\src\misc/lv_txt.c ****             return;
 113:..\..\..\arduinoLCD\test\Pain Drain\libraries\lvgl\src\misc/lv_txt.c ****         }
 114:..\..\..\arduinoLCD\test\Pain Drain\libraries\lvgl\src\misc/lv_txt.c ****         else {
 115:..\..\..\arduinoLCD\test\Pain Drain\libraries\lvgl\src\misc/lv_txt.c ****             size_res->y += letter_height;
 116:..\..\..\arduinoLCD\test\Pain Drain\libraries\lvgl\src\misc/lv_txt.c ****             size_res->y += line_space;
 117:..\..\..\arduinoLCD\test\Pain Drain\libraries\lvgl\src\misc/lv_txt.c ****         }
 118:..\..\..\arduinoLCD\test\Pain Drain\libraries\lvgl\src\misc/lv_txt.c **** 
 119:..\..\..\arduinoLCD\test\Pain Drain\libraries\lvgl\src\misc/lv_txt.c ****         /*Calculate the longest line*/
 120:..\..\..\arduinoLCD\test\Pain Drain\libraries\lvgl\src\misc/lv_txt.c ****         lv_coord_t act_line_length = lv_txt_get_width(&text[line_start], new_line_start - line_star
 121:..\..\..\arduinoLCD\test\Pain Drain\libraries\lvgl\src\misc/lv_txt.c ****                                                       flag);
 122:..\..\..\arduinoLCD\test\Pain Drain\libraries\lvgl\src\misc/lv_txt.c **** 
 123:..\..\..\arduinoLCD\test\Pain Drain\libraries\lvgl\src\misc/lv_txt.c ****         size_res->x = LV_MAX(act_line_length, size_res->x);
 124:..\..\..\arduinoLCD\test\Pain Drain\libraries\lvgl\src\misc/lv_txt.c ****         line_start  = new_line_start;
 125:..\..\..\arduinoLCD\test\Pain Drain\libraries\lvgl\src\misc/lv_txt.c ****     }
 126:..\..\..\arduinoLCD\test\Pain Drain\libraries\lvgl\src\misc/lv_txt.c **** 
 127:..\..\..\arduinoLCD\test\Pain Drain\libraries\lvgl\src\misc/lv_txt.c ****     /*Make the text one line taller if the last character is '\n' or '\r'*/
 128:..\..\..\arduinoLCD\test\Pain Drain\libraries\lvgl\src\misc/lv_txt.c ****     if((line_start != 0) && (text[line_start - 1] == '\n' || text[line_start - 1] == '\r')) {
 129:..\..\..\arduinoLCD\test\Pain Drain\libraries\lvgl\src\misc/lv_txt.c ****         size_res->y += letter_height + line_space;
 130:..\..\..\arduinoLCD\test\Pain Drain\libraries\lvgl\src\misc/lv_txt.c ****     }
 131:..\..\..\arduinoLCD\test\Pain Drain\libraries\lvgl\src\misc/lv_txt.c **** 
 132:..\..\..\arduinoLCD\test\Pain Drain\libraries\lvgl\src\misc/lv_txt.c ****     /*Correction with the last line space or set the height manually if the text is empty*/
 133:..\..\..\arduinoLCD\test\Pain Drain\libraries\lvgl\src\misc/lv_txt.c ****     if(size_res->y == 0)
 134:..\..\..\arduinoLCD\test\Pain Drain\libraries\lvgl\src\misc/lv_txt.c ****         size_res->y = letter_height;
 135:..\..\..\arduinoLCD\test\Pain Drain\libraries\lvgl\src\misc/lv_txt.c ****     else
 136:..\..\..\arduinoLCD\test\Pain Drain\libraries\lvgl\src\misc/lv_txt.c ****         size_res->y -= line_space;
 137:..\..\..\arduinoLCD\test\Pain Drain\libraries\lvgl\src\misc/lv_txt.c **** }
 138:..\..\..\arduinoLCD\test\Pain Drain\libraries\lvgl\src\misc/lv_txt.c **** 
 139:..\..\..\arduinoLCD\test\Pain Drain\libraries\lvgl\src\misc/lv_txt.c **** /**
 140:..\..\..\arduinoLCD\test\Pain Drain\libraries\lvgl\src\misc/lv_txt.c ****  * Get the next word of text. A word is delimited by break characters.
 141:..\..\..\arduinoLCD\test\Pain Drain\libraries\lvgl\src\misc/lv_txt.c ****  *
 142:..\..\..\arduinoLCD\test\Pain Drain\libraries\lvgl\src\misc/lv_txt.c ****  * If the word cannot fit in the max_width space, obey LV_TXT_LINE_BREAK_LONG_* rules.
 143:..\..\..\arduinoLCD\test\Pain Drain\libraries\lvgl\src\misc/lv_txt.c ****  *
 144:..\..\..\arduinoLCD\test\Pain Drain\libraries\lvgl\src\misc/lv_txt.c ****  * If the next word cannot fit anything, return 0.
 145:..\..\..\arduinoLCD\test\Pain Drain\libraries\lvgl\src\misc/lv_txt.c ****  *
ARM GAS  C:\Users\haske\AppData\Local\Temp\ccg6iOQH.s 			page 4


 146:..\..\..\arduinoLCD\test\Pain Drain\libraries\lvgl\src\misc/lv_txt.c ****  * If the first character is a break character, returns the next index.
 147:..\..\..\arduinoLCD\test\Pain Drain\libraries\lvgl\src\misc/lv_txt.c ****  *
 148:..\..\..\arduinoLCD\test\Pain Drain\libraries\lvgl\src\misc/lv_txt.c ****  * Example calls from lv_txt_get_next_line() assuming sufficient max_width and
 149:..\..\..\arduinoLCD\test\Pain Drain\libraries\lvgl\src\misc/lv_txt.c ****  * txt = "Test text\n"
 150:..\..\..\arduinoLCD\test\Pain Drain\libraries\lvgl\src\misc/lv_txt.c ****  *        0123456789
 151:..\..\..\arduinoLCD\test\Pain Drain\libraries\lvgl\src\misc/lv_txt.c ****  *
 152:..\..\..\arduinoLCD\test\Pain Drain\libraries\lvgl\src\misc/lv_txt.c ****  * Calls would be as follows:
 153:..\..\..\arduinoLCD\test\Pain Drain\libraries\lvgl\src\misc/lv_txt.c ****  *     1. Return i=4, pointing at breakchar ' ', for the string "Test"
 154:..\..\..\arduinoLCD\test\Pain Drain\libraries\lvgl\src\misc/lv_txt.c ****  *     2. Return i=5, since i=4 was a breakchar.
 155:..\..\..\arduinoLCD\test\Pain Drain\libraries\lvgl\src\misc/lv_txt.c ****  *     3. Return i=9, pointing at breakchar '\n'
 156:..\..\..\arduinoLCD\test\Pain Drain\libraries\lvgl\src\misc/lv_txt.c ****  *     4. Parenting lv_txt_get_next_line() would detect subsequent '\0'
 157:..\..\..\arduinoLCD\test\Pain Drain\libraries\lvgl\src\misc/lv_txt.c ****  *
 158:..\..\..\arduinoLCD\test\Pain Drain\libraries\lvgl\src\misc/lv_txt.c ****  * TODO: Returned word_w_ptr may overestimate the returned word's width when
 159:..\..\..\arduinoLCD\test\Pain Drain\libraries\lvgl\src\misc/lv_txt.c ****  * max_width is reached. In current usage, this has no impact.
 160:..\..\..\arduinoLCD\test\Pain Drain\libraries\lvgl\src\misc/lv_txt.c ****  *
 161:..\..\..\arduinoLCD\test\Pain Drain\libraries\lvgl\src\misc/lv_txt.c ****  * @param txt a '\0' terminated string
 162:..\..\..\arduinoLCD\test\Pain Drain\libraries\lvgl\src\misc/lv_txt.c ****  * @param font pointer to a font
 163:..\..\..\arduinoLCD\test\Pain Drain\libraries\lvgl\src\misc/lv_txt.c ****  * @param letter_space letter space
 164:..\..\..\arduinoLCD\test\Pain Drain\libraries\lvgl\src\misc/lv_txt.c ****  * @param max_width max width of the text (break the lines to fit this size). Set COORD_MAX to avoi
 165:..\..\..\arduinoLCD\test\Pain Drain\libraries\lvgl\src\misc/lv_txt.c ****  * @param flags settings for the text from 'txt_flag_type' enum
 166:..\..\..\arduinoLCD\test\Pain Drain\libraries\lvgl\src\misc/lv_txt.c ****  * @param[out] word_w_ptr width (in pixels) of the parsed word. May be NULL.
 167:..\..\..\arduinoLCD\test\Pain Drain\libraries\lvgl\src\misc/lv_txt.c ****  * @param cmd_state pointer to a txt_cmd_state_t variable which stores the current state of command
 168:..\..\..\arduinoLCD\test\Pain Drain\libraries\lvgl\src\misc/lv_txt.c ****  * @param force Force return the fraction of the word that can fit in the provided space.
 169:..\..\..\arduinoLCD\test\Pain Drain\libraries\lvgl\src\misc/lv_txt.c ****  * @return the index of the first char of the next word (in byte index not letter index. With UTF-8
 170:..\..\..\arduinoLCD\test\Pain Drain\libraries\lvgl\src\misc/lv_txt.c ****  */
 171:..\..\..\arduinoLCD\test\Pain Drain\libraries\lvgl\src\misc/lv_txt.c **** static uint32_t lv_txt_get_next_word(const char * txt, const lv_font_t * font,
 172:..\..\..\arduinoLCD\test\Pain Drain\libraries\lvgl\src\misc/lv_txt.c ****                                      lv_coord_t letter_space, lv_coord_t max_width,
 173:..\..\..\arduinoLCD\test\Pain Drain\libraries\lvgl\src\misc/lv_txt.c ****                                      lv_text_flag_t flag, uint32_t * word_w_ptr, lv_text_cmd_state_
 174:..\..\..\arduinoLCD\test\Pain Drain\libraries\lvgl\src\misc/lv_txt.c **** {
 175:..\..\..\arduinoLCD\test\Pain Drain\libraries\lvgl\src\misc/lv_txt.c ****     if(txt == NULL || txt[0] == '\0') return 0;
 176:..\..\..\arduinoLCD\test\Pain Drain\libraries\lvgl\src\misc/lv_txt.c ****     if(font == NULL) return 0;
 177:..\..\..\arduinoLCD\test\Pain Drain\libraries\lvgl\src\misc/lv_txt.c **** 
 178:..\..\..\arduinoLCD\test\Pain Drain\libraries\lvgl\src\misc/lv_txt.c ****     if(flag & LV_TEXT_FLAG_EXPAND) max_width = LV_COORD_MAX;
 179:..\..\..\arduinoLCD\test\Pain Drain\libraries\lvgl\src\misc/lv_txt.c **** 
 180:..\..\..\arduinoLCD\test\Pain Drain\libraries\lvgl\src\misc/lv_txt.c ****     uint32_t i = 0, i_next = 0, i_next_next = 0;  /*Iterating index into txt*/
 181:..\..\..\arduinoLCD\test\Pain Drain\libraries\lvgl\src\misc/lv_txt.c ****     uint32_t letter = 0;      /*Letter at i*/
 182:..\..\..\arduinoLCD\test\Pain Drain\libraries\lvgl\src\misc/lv_txt.c ****     uint32_t letter_next = 0; /*Letter at i_next*/
 183:..\..\..\arduinoLCD\test\Pain Drain\libraries\lvgl\src\misc/lv_txt.c ****     lv_coord_t letter_w;
 184:..\..\..\arduinoLCD\test\Pain Drain\libraries\lvgl\src\misc/lv_txt.c ****     lv_coord_t cur_w = 0;  /*Pixel Width of transversed string*/
 185:..\..\..\arduinoLCD\test\Pain Drain\libraries\lvgl\src\misc/lv_txt.c ****     uint32_t word_len = 0;   /*Number of characters in the transversed word*/
 186:..\..\..\arduinoLCD\test\Pain Drain\libraries\lvgl\src\misc/lv_txt.c ****     uint32_t break_index = NO_BREAK_FOUND; /*only used for "long" words*/
 187:..\..\..\arduinoLCD\test\Pain Drain\libraries\lvgl\src\misc/lv_txt.c ****     uint32_t break_letter_count = 0; /*Number of characters up to the long word break point*/
 188:..\..\..\arduinoLCD\test\Pain Drain\libraries\lvgl\src\misc/lv_txt.c **** 
 189:..\..\..\arduinoLCD\test\Pain Drain\libraries\lvgl\src\misc/lv_txt.c ****     letter = _lv_txt_encoded_next(txt, &i_next);
 190:..\..\..\arduinoLCD\test\Pain Drain\libraries\lvgl\src\misc/lv_txt.c ****     i_next_next = i_next;
 191:..\..\..\arduinoLCD\test\Pain Drain\libraries\lvgl\src\misc/lv_txt.c **** 
 192:..\..\..\arduinoLCD\test\Pain Drain\libraries\lvgl\src\misc/lv_txt.c ****     /*Obtain the full word, regardless if it fits or not in max_width*/
 193:..\..\..\arduinoLCD\test\Pain Drain\libraries\lvgl\src\misc/lv_txt.c ****     while(txt[i] != '\0') {
 194:..\..\..\arduinoLCD\test\Pain Drain\libraries\lvgl\src\misc/lv_txt.c ****         letter_next = _lv_txt_encoded_next(txt, &i_next_next);
 195:..\..\..\arduinoLCD\test\Pain Drain\libraries\lvgl\src\misc/lv_txt.c ****         word_len++;
 196:..\..\..\arduinoLCD\test\Pain Drain\libraries\lvgl\src\misc/lv_txt.c **** 
 197:..\..\..\arduinoLCD\test\Pain Drain\libraries\lvgl\src\misc/lv_txt.c ****         /*Handle the recolor command*/
 198:..\..\..\arduinoLCD\test\Pain Drain\libraries\lvgl\src\misc/lv_txt.c ****         if((flag & LV_TEXT_FLAG_RECOLOR) != 0) {
 199:..\..\..\arduinoLCD\test\Pain Drain\libraries\lvgl\src\misc/lv_txt.c ****             if(_lv_txt_is_cmd(cmd_state, letter) != false) {
 200:..\..\..\arduinoLCD\test\Pain Drain\libraries\lvgl\src\misc/lv_txt.c ****                 i = i_next;
 201:..\..\..\arduinoLCD\test\Pain Drain\libraries\lvgl\src\misc/lv_txt.c ****                 i_next = i_next_next;
 202:..\..\..\arduinoLCD\test\Pain Drain\libraries\lvgl\src\misc/lv_txt.c ****                 letter = letter_next;
ARM GAS  C:\Users\haske\AppData\Local\Temp\ccg6iOQH.s 			page 5


 203:..\..\..\arduinoLCD\test\Pain Drain\libraries\lvgl\src\misc/lv_txt.c ****                 continue;   /*Skip the letter if it is part of a command*/
 204:..\..\..\arduinoLCD\test\Pain Drain\libraries\lvgl\src\misc/lv_txt.c ****             }
 205:..\..\..\arduinoLCD\test\Pain Drain\libraries\lvgl\src\misc/lv_txt.c ****         }
 206:..\..\..\arduinoLCD\test\Pain Drain\libraries\lvgl\src\misc/lv_txt.c **** 
 207:..\..\..\arduinoLCD\test\Pain Drain\libraries\lvgl\src\misc/lv_txt.c ****         letter_w = lv_font_get_glyph_width(font, letter, letter_next);
 208:..\..\..\arduinoLCD\test\Pain Drain\libraries\lvgl\src\misc/lv_txt.c ****         cur_w += letter_w;
 209:..\..\..\arduinoLCD\test\Pain Drain\libraries\lvgl\src\misc/lv_txt.c **** 
 210:..\..\..\arduinoLCD\test\Pain Drain\libraries\lvgl\src\misc/lv_txt.c ****         if(letter_w > 0) {
 211:..\..\..\arduinoLCD\test\Pain Drain\libraries\lvgl\src\misc/lv_txt.c ****             cur_w += letter_space;
 212:..\..\..\arduinoLCD\test\Pain Drain\libraries\lvgl\src\misc/lv_txt.c ****         }
 213:..\..\..\arduinoLCD\test\Pain Drain\libraries\lvgl\src\misc/lv_txt.c **** 
 214:..\..\..\arduinoLCD\test\Pain Drain\libraries\lvgl\src\misc/lv_txt.c ****         /*Test if this character fits within max_width*/
 215:..\..\..\arduinoLCD\test\Pain Drain\libraries\lvgl\src\misc/lv_txt.c ****         if(break_index == NO_BREAK_FOUND && (cur_w - letter_space) > max_width) {
 216:..\..\..\arduinoLCD\test\Pain Drain\libraries\lvgl\src\misc/lv_txt.c ****             break_index = i;
 217:..\..\..\arduinoLCD\test\Pain Drain\libraries\lvgl\src\misc/lv_txt.c ****             break_letter_count = word_len - 1;
 218:..\..\..\arduinoLCD\test\Pain Drain\libraries\lvgl\src\misc/lv_txt.c ****             /*break_index is now pointing at the character that doesn't fit*/
 219:..\..\..\arduinoLCD\test\Pain Drain\libraries\lvgl\src\misc/lv_txt.c ****         }
 220:..\..\..\arduinoLCD\test\Pain Drain\libraries\lvgl\src\misc/lv_txt.c **** 
 221:..\..\..\arduinoLCD\test\Pain Drain\libraries\lvgl\src\misc/lv_txt.c ****         /*Check for new line chars and breakchars*/
 222:..\..\..\arduinoLCD\test\Pain Drain\libraries\lvgl\src\misc/lv_txt.c ****         if(letter == '\n' || letter == '\r' || _lv_txt_is_break_char(letter)) {
 223:..\..\..\arduinoLCD\test\Pain Drain\libraries\lvgl\src\misc/lv_txt.c ****             /*Update the output width on the first character if it fits.
 224:..\..\..\arduinoLCD\test\Pain Drain\libraries\lvgl\src\misc/lv_txt.c ****              *Must do this here in case first letter is a break character.*/
 225:..\..\..\arduinoLCD\test\Pain Drain\libraries\lvgl\src\misc/lv_txt.c ****             if(i == 0 && break_index == NO_BREAK_FOUND && word_w_ptr != NULL) *word_w_ptr = cur_w;
 226:..\..\..\arduinoLCD\test\Pain Drain\libraries\lvgl\src\misc/lv_txt.c ****             word_len--;
 227:..\..\..\arduinoLCD\test\Pain Drain\libraries\lvgl\src\misc/lv_txt.c ****             break;
 228:..\..\..\arduinoLCD\test\Pain Drain\libraries\lvgl\src\misc/lv_txt.c ****         }
 229:..\..\..\arduinoLCD\test\Pain Drain\libraries\lvgl\src\misc/lv_txt.c **** 
 230:..\..\..\arduinoLCD\test\Pain Drain\libraries\lvgl\src\misc/lv_txt.c ****         /*Update the output width*/
 231:..\..\..\arduinoLCD\test\Pain Drain\libraries\lvgl\src\misc/lv_txt.c ****         if(word_w_ptr != NULL && break_index == NO_BREAK_FOUND) *word_w_ptr = cur_w;
 232:..\..\..\arduinoLCD\test\Pain Drain\libraries\lvgl\src\misc/lv_txt.c **** 
 233:..\..\..\arduinoLCD\test\Pain Drain\libraries\lvgl\src\misc/lv_txt.c ****         i = i_next;
 234:..\..\..\arduinoLCD\test\Pain Drain\libraries\lvgl\src\misc/lv_txt.c ****         i_next = i_next_next;
 235:..\..\..\arduinoLCD\test\Pain Drain\libraries\lvgl\src\misc/lv_txt.c ****         letter = letter_next;
 236:..\..\..\arduinoLCD\test\Pain Drain\libraries\lvgl\src\misc/lv_txt.c ****     }
 237:..\..\..\arduinoLCD\test\Pain Drain\libraries\lvgl\src\misc/lv_txt.c **** 
 238:..\..\..\arduinoLCD\test\Pain Drain\libraries\lvgl\src\misc/lv_txt.c ****     /*Entire Word fits in the provided space*/
 239:..\..\..\arduinoLCD\test\Pain Drain\libraries\lvgl\src\misc/lv_txt.c ****     if(break_index == NO_BREAK_FOUND) {
 240:..\..\..\arduinoLCD\test\Pain Drain\libraries\lvgl\src\misc/lv_txt.c ****         if(word_len == 0 || (letter == '\r' && letter_next == '\n')) i = i_next;
 241:..\..\..\arduinoLCD\test\Pain Drain\libraries\lvgl\src\misc/lv_txt.c ****         return i;
 242:..\..\..\arduinoLCD\test\Pain Drain\libraries\lvgl\src\misc/lv_txt.c ****     }
 243:..\..\..\arduinoLCD\test\Pain Drain\libraries\lvgl\src\misc/lv_txt.c **** 
 244:..\..\..\arduinoLCD\test\Pain Drain\libraries\lvgl\src\misc/lv_txt.c **** #if LV_TXT_LINE_BREAK_LONG_LEN > 0
 245:..\..\..\arduinoLCD\test\Pain Drain\libraries\lvgl\src\misc/lv_txt.c ****     /*Word doesn't fit in provided space, but isn't "long"*/
 246:..\..\..\arduinoLCD\test\Pain Drain\libraries\lvgl\src\misc/lv_txt.c ****     if(word_len < LV_TXT_LINE_BREAK_LONG_LEN) {
 247:..\..\..\arduinoLCD\test\Pain Drain\libraries\lvgl\src\misc/lv_txt.c ****         if(force) return break_index;
 248:..\..\..\arduinoLCD\test\Pain Drain\libraries\lvgl\src\misc/lv_txt.c ****         if(word_w_ptr != NULL) *word_w_ptr = 0; /*Return no word*/
 249:..\..\..\arduinoLCD\test\Pain Drain\libraries\lvgl\src\misc/lv_txt.c ****         return 0;
 250:..\..\..\arduinoLCD\test\Pain Drain\libraries\lvgl\src\misc/lv_txt.c ****     }
 251:..\..\..\arduinoLCD\test\Pain Drain\libraries\lvgl\src\misc/lv_txt.c **** 
 252:..\..\..\arduinoLCD\test\Pain Drain\libraries\lvgl\src\misc/lv_txt.c ****     /*Word is "long," but insufficient amounts can fit in provided space*/
 253:..\..\..\arduinoLCD\test\Pain Drain\libraries\lvgl\src\misc/lv_txt.c ****     if(break_letter_count < LV_TXT_LINE_BREAK_LONG_PRE_MIN_LEN) {
 254:..\..\..\arduinoLCD\test\Pain Drain\libraries\lvgl\src\misc/lv_txt.c ****         if(force) return break_index;
 255:..\..\..\arduinoLCD\test\Pain Drain\libraries\lvgl\src\misc/lv_txt.c ****         if(word_w_ptr != NULL) *word_w_ptr = 0;
 256:..\..\..\arduinoLCD\test\Pain Drain\libraries\lvgl\src\misc/lv_txt.c ****         return 0;
 257:..\..\..\arduinoLCD\test\Pain Drain\libraries\lvgl\src\misc/lv_txt.c ****     }
 258:..\..\..\arduinoLCD\test\Pain Drain\libraries\lvgl\src\misc/lv_txt.c **** 
 259:..\..\..\arduinoLCD\test\Pain Drain\libraries\lvgl\src\misc/lv_txt.c ****     /*Word is a "long", but letters may need to be better distributed*/
ARM GAS  C:\Users\haske\AppData\Local\Temp\ccg6iOQH.s 			page 6


 260:..\..\..\arduinoLCD\test\Pain Drain\libraries\lvgl\src\misc/lv_txt.c ****     {
 261:..\..\..\arduinoLCD\test\Pain Drain\libraries\lvgl\src\misc/lv_txt.c ****         i = break_index;
 262:..\..\..\arduinoLCD\test\Pain Drain\libraries\lvgl\src\misc/lv_txt.c ****         int32_t n_move = LV_TXT_LINE_BREAK_LONG_POST_MIN_LEN - (word_len - break_letter_count);
 263:..\..\..\arduinoLCD\test\Pain Drain\libraries\lvgl\src\misc/lv_txt.c ****         /*Move pointer "i" backwards*/
 264:..\..\..\arduinoLCD\test\Pain Drain\libraries\lvgl\src\misc/lv_txt.c ****         for(; n_move > 0; n_move--) {
 265:..\..\..\arduinoLCD\test\Pain Drain\libraries\lvgl\src\misc/lv_txt.c ****             _lv_txt_encoded_prev(txt, &i);
 266:..\..\..\arduinoLCD\test\Pain Drain\libraries\lvgl\src\misc/lv_txt.c ****             // TODO: it would be appropriate to update the returned word width here
 267:..\..\..\arduinoLCD\test\Pain Drain\libraries\lvgl\src\misc/lv_txt.c ****             // However, in current usage, this doesn't impact anything.
 268:..\..\..\arduinoLCD\test\Pain Drain\libraries\lvgl\src\misc/lv_txt.c ****         }
 269:..\..\..\arduinoLCD\test\Pain Drain\libraries\lvgl\src\misc/lv_txt.c ****     }
 270:..\..\..\arduinoLCD\test\Pain Drain\libraries\lvgl\src\misc/lv_txt.c ****     return i;
 271:..\..\..\arduinoLCD\test\Pain Drain\libraries\lvgl\src\misc/lv_txt.c **** #else
 272:..\..\..\arduinoLCD\test\Pain Drain\libraries\lvgl\src\misc/lv_txt.c ****     if(force) return break_index;
 273:..\..\..\arduinoLCD\test\Pain Drain\libraries\lvgl\src\misc/lv_txt.c ****     if(word_w_ptr != NULL) *word_w_ptr = 0; /*Return no word*/
 274:..\..\..\arduinoLCD\test\Pain Drain\libraries\lvgl\src\misc/lv_txt.c ****     (void) break_letter_count;
 275:..\..\..\arduinoLCD\test\Pain Drain\libraries\lvgl\src\misc/lv_txt.c ****     return 0;
 276:..\..\..\arduinoLCD\test\Pain Drain\libraries\lvgl\src\misc/lv_txt.c **** #endif
 277:..\..\..\arduinoLCD\test\Pain Drain\libraries\lvgl\src\misc/lv_txt.c **** }
 278:..\..\..\arduinoLCD\test\Pain Drain\libraries\lvgl\src\misc/lv_txt.c **** 
 279:..\..\..\arduinoLCD\test\Pain Drain\libraries\lvgl\src\misc/lv_txt.c **** uint32_t _lv_txt_get_next_line(const char * txt, const lv_font_t * font,
 280:..\..\..\arduinoLCD\test\Pain Drain\libraries\lvgl\src\misc/lv_txt.c ****                                lv_coord_t letter_space, lv_coord_t max_width,
 281:..\..\..\arduinoLCD\test\Pain Drain\libraries\lvgl\src\misc/lv_txt.c ****                                lv_coord_t * used_width, lv_text_flag_t flag)
 282:..\..\..\arduinoLCD\test\Pain Drain\libraries\lvgl\src\misc/lv_txt.c **** {
 283:..\..\..\arduinoLCD\test\Pain Drain\libraries\lvgl\src\misc/lv_txt.c ****     if(used_width) *used_width = 0;
 284:..\..\..\arduinoLCD\test\Pain Drain\libraries\lvgl\src\misc/lv_txt.c **** 
 285:..\..\..\arduinoLCD\test\Pain Drain\libraries\lvgl\src\misc/lv_txt.c ****     if(txt == NULL) return 0;
 286:..\..\..\arduinoLCD\test\Pain Drain\libraries\lvgl\src\misc/lv_txt.c ****     if(txt[0] == '\0') return 0;
 287:..\..\..\arduinoLCD\test\Pain Drain\libraries\lvgl\src\misc/lv_txt.c ****     if(font == NULL) return 0;
 288:..\..\..\arduinoLCD\test\Pain Drain\libraries\lvgl\src\misc/lv_txt.c **** 
 289:..\..\..\arduinoLCD\test\Pain Drain\libraries\lvgl\src\misc/lv_txt.c ****     lv_coord_t line_w = 0;
 290:..\..\..\arduinoLCD\test\Pain Drain\libraries\lvgl\src\misc/lv_txt.c **** 
 291:..\..\..\arduinoLCD\test\Pain Drain\libraries\lvgl\src\misc/lv_txt.c ****     /*If max_width doesn't mater simply find the new line character
 292:..\..\..\arduinoLCD\test\Pain Drain\libraries\lvgl\src\misc/lv_txt.c ****      *without thinking about word wrapping*/
 293:..\..\..\arduinoLCD\test\Pain Drain\libraries\lvgl\src\misc/lv_txt.c ****     if((flag & LV_TEXT_FLAG_EXPAND) || (flag & LV_TEXT_FLAG_FIT)) {
 294:..\..\..\arduinoLCD\test\Pain Drain\libraries\lvgl\src\misc/lv_txt.c ****         uint32_t i;
 295:..\..\..\arduinoLCD\test\Pain Drain\libraries\lvgl\src\misc/lv_txt.c ****         for(i = 0; txt[i] != '\n' && txt[i] != '\r' && txt[i] != '\0'; i++) {
 296:..\..\..\arduinoLCD\test\Pain Drain\libraries\lvgl\src\misc/lv_txt.c ****             /*Just find the new line chars or string ends by incrementing `i`*/
 297:..\..\..\arduinoLCD\test\Pain Drain\libraries\lvgl\src\misc/lv_txt.c ****         }
 298:..\..\..\arduinoLCD\test\Pain Drain\libraries\lvgl\src\misc/lv_txt.c ****         if(txt[i] != '\0') i++;    /*To go beyond `\n`*/
 299:..\..\..\arduinoLCD\test\Pain Drain\libraries\lvgl\src\misc/lv_txt.c ****         if(used_width) *used_width = -1;
 300:..\..\..\arduinoLCD\test\Pain Drain\libraries\lvgl\src\misc/lv_txt.c ****         return i;
 301:..\..\..\arduinoLCD\test\Pain Drain\libraries\lvgl\src\misc/lv_txt.c ****     }
 302:..\..\..\arduinoLCD\test\Pain Drain\libraries\lvgl\src\misc/lv_txt.c **** 
 303:..\..\..\arduinoLCD\test\Pain Drain\libraries\lvgl\src\misc/lv_txt.c ****     if(flag & LV_TEXT_FLAG_EXPAND) max_width = LV_COORD_MAX;
 304:..\..\..\arduinoLCD\test\Pain Drain\libraries\lvgl\src\misc/lv_txt.c ****     lv_text_cmd_state_t cmd_state = LV_TEXT_CMD_STATE_WAIT;
 305:..\..\..\arduinoLCD\test\Pain Drain\libraries\lvgl\src\misc/lv_txt.c ****     uint32_t i = 0;                                        /*Iterating index into txt*/
 306:..\..\..\arduinoLCD\test\Pain Drain\libraries\lvgl\src\misc/lv_txt.c **** 
 307:..\..\..\arduinoLCD\test\Pain Drain\libraries\lvgl\src\misc/lv_txt.c ****     while(txt[i] != '\0' && max_width > 0) {
 308:..\..\..\arduinoLCD\test\Pain Drain\libraries\lvgl\src\misc/lv_txt.c ****         uint32_t word_w = 0;
 309:..\..\..\arduinoLCD\test\Pain Drain\libraries\lvgl\src\misc/lv_txt.c ****         uint32_t advance = lv_txt_get_next_word(&txt[i], font, letter_space, max_width, flag, &word
 310:..\..\..\arduinoLCD\test\Pain Drain\libraries\lvgl\src\misc/lv_txt.c ****         max_width -= word_w;
 311:..\..\..\arduinoLCD\test\Pain Drain\libraries\lvgl\src\misc/lv_txt.c ****         line_w += word_w;
 312:..\..\..\arduinoLCD\test\Pain Drain\libraries\lvgl\src\misc/lv_txt.c **** 
 313:..\..\..\arduinoLCD\test\Pain Drain\libraries\lvgl\src\misc/lv_txt.c ****         if(advance == 0) {
 314:..\..\..\arduinoLCD\test\Pain Drain\libraries\lvgl\src\misc/lv_txt.c ****             break;
 315:..\..\..\arduinoLCD\test\Pain Drain\libraries\lvgl\src\misc/lv_txt.c ****         }
 316:..\..\..\arduinoLCD\test\Pain Drain\libraries\lvgl\src\misc/lv_txt.c **** 
ARM GAS  C:\Users\haske\AppData\Local\Temp\ccg6iOQH.s 			page 7


 317:..\..\..\arduinoLCD\test\Pain Drain\libraries\lvgl\src\misc/lv_txt.c ****         i += advance;
 318:..\..\..\arduinoLCD\test\Pain Drain\libraries\lvgl\src\misc/lv_txt.c **** 
 319:..\..\..\arduinoLCD\test\Pain Drain\libraries\lvgl\src\misc/lv_txt.c ****         if(txt[0] == '\n' || txt[0] == '\r') break;
 320:..\..\..\arduinoLCD\test\Pain Drain\libraries\lvgl\src\misc/lv_txt.c **** 
 321:..\..\..\arduinoLCD\test\Pain Drain\libraries\lvgl\src\misc/lv_txt.c ****         if(txt[i] == '\n' || txt[i] == '\r') {
 322:..\..\..\arduinoLCD\test\Pain Drain\libraries\lvgl\src\misc/lv_txt.c ****             i++;  /*Include the following newline in the current line*/
 323:..\..\..\arduinoLCD\test\Pain Drain\libraries\lvgl\src\misc/lv_txt.c ****             break;
 324:..\..\..\arduinoLCD\test\Pain Drain\libraries\lvgl\src\misc/lv_txt.c ****         }
 325:..\..\..\arduinoLCD\test\Pain Drain\libraries\lvgl\src\misc/lv_txt.c **** 
 326:..\..\..\arduinoLCD\test\Pain Drain\libraries\lvgl\src\misc/lv_txt.c ****     }
 327:..\..\..\arduinoLCD\test\Pain Drain\libraries\lvgl\src\misc/lv_txt.c **** 
 328:..\..\..\arduinoLCD\test\Pain Drain\libraries\lvgl\src\misc/lv_txt.c ****     /*Always step at least one to avoid infinite loops*/
 329:..\..\..\arduinoLCD\test\Pain Drain\libraries\lvgl\src\misc/lv_txt.c ****     if(i == 0) {
 330:..\..\..\arduinoLCD\test\Pain Drain\libraries\lvgl\src\misc/lv_txt.c ****         uint32_t letter = _lv_txt_encoded_next(txt, &i);
 331:..\..\..\arduinoLCD\test\Pain Drain\libraries\lvgl\src\misc/lv_txt.c ****         if(used_width != NULL) {
 332:..\..\..\arduinoLCD\test\Pain Drain\libraries\lvgl\src\misc/lv_txt.c ****             line_w = lv_font_get_glyph_width(font, letter, '\0');
 333:..\..\..\arduinoLCD\test\Pain Drain\libraries\lvgl\src\misc/lv_txt.c ****         }
 334:..\..\..\arduinoLCD\test\Pain Drain\libraries\lvgl\src\misc/lv_txt.c ****     }
 335:..\..\..\arduinoLCD\test\Pain Drain\libraries\lvgl\src\misc/lv_txt.c **** 
 336:..\..\..\arduinoLCD\test\Pain Drain\libraries\lvgl\src\misc/lv_txt.c ****     if(used_width != NULL) {
 337:..\..\..\arduinoLCD\test\Pain Drain\libraries\lvgl\src\misc/lv_txt.c ****         *used_width = line_w;
 338:..\..\..\arduinoLCD\test\Pain Drain\libraries\lvgl\src\misc/lv_txt.c ****     }
 339:..\..\..\arduinoLCD\test\Pain Drain\libraries\lvgl\src\misc/lv_txt.c **** 
 340:..\..\..\arduinoLCD\test\Pain Drain\libraries\lvgl\src\misc/lv_txt.c ****     return i;
 341:..\..\..\arduinoLCD\test\Pain Drain\libraries\lvgl\src\misc/lv_txt.c **** }
 342:..\..\..\arduinoLCD\test\Pain Drain\libraries\lvgl\src\misc/lv_txt.c **** 
 343:..\..\..\arduinoLCD\test\Pain Drain\libraries\lvgl\src\misc/lv_txt.c **** lv_coord_t lv_txt_get_width(const char * txt, uint32_t length, const lv_font_t * font, lv_coord_t l
 344:..\..\..\arduinoLCD\test\Pain Drain\libraries\lvgl\src\misc/lv_txt.c ****                             lv_text_flag_t flag)
 345:..\..\..\arduinoLCD\test\Pain Drain\libraries\lvgl\src\misc/lv_txt.c **** {
 346:..\..\..\arduinoLCD\test\Pain Drain\libraries\lvgl\src\misc/lv_txt.c ****     if(txt == NULL) return 0;
 347:..\..\..\arduinoLCD\test\Pain Drain\libraries\lvgl\src\misc/lv_txt.c ****     if(font == NULL) return 0;
 348:..\..\..\arduinoLCD\test\Pain Drain\libraries\lvgl\src\misc/lv_txt.c ****     if(txt[0] == '\0') return 0;
 349:..\..\..\arduinoLCD\test\Pain Drain\libraries\lvgl\src\misc/lv_txt.c **** 
 350:..\..\..\arduinoLCD\test\Pain Drain\libraries\lvgl\src\misc/lv_txt.c ****     uint32_t i                   = 0;
 351:..\..\..\arduinoLCD\test\Pain Drain\libraries\lvgl\src\misc/lv_txt.c ****     lv_coord_t width             = 0;
 352:..\..\..\arduinoLCD\test\Pain Drain\libraries\lvgl\src\misc/lv_txt.c ****     lv_text_cmd_state_t cmd_state = LV_TEXT_CMD_STATE_WAIT;
 353:..\..\..\arduinoLCD\test\Pain Drain\libraries\lvgl\src\misc/lv_txt.c **** 
 354:..\..\..\arduinoLCD\test\Pain Drain\libraries\lvgl\src\misc/lv_txt.c ****     if(length != 0) {
 355:..\..\..\arduinoLCD\test\Pain Drain\libraries\lvgl\src\misc/lv_txt.c ****         while(i < length) {
 356:..\..\..\arduinoLCD\test\Pain Drain\libraries\lvgl\src\misc/lv_txt.c ****             uint32_t letter;
 357:..\..\..\arduinoLCD\test\Pain Drain\libraries\lvgl\src\misc/lv_txt.c ****             uint32_t letter_next;
 358:..\..\..\arduinoLCD\test\Pain Drain\libraries\lvgl\src\misc/lv_txt.c ****             _lv_txt_encoded_letter_next_2(txt, &letter, &letter_next, &i);
 359:..\..\..\arduinoLCD\test\Pain Drain\libraries\lvgl\src\misc/lv_txt.c **** 
 360:..\..\..\arduinoLCD\test\Pain Drain\libraries\lvgl\src\misc/lv_txt.c ****             if((flag & LV_TEXT_FLAG_RECOLOR) != 0) {
 361:..\..\..\arduinoLCD\test\Pain Drain\libraries\lvgl\src\misc/lv_txt.c ****                 if(_lv_txt_is_cmd(&cmd_state, letter) != false) {
 362:..\..\..\arduinoLCD\test\Pain Drain\libraries\lvgl\src\misc/lv_txt.c ****                     continue;
 363:..\..\..\arduinoLCD\test\Pain Drain\libraries\lvgl\src\misc/lv_txt.c ****                 }
 364:..\..\..\arduinoLCD\test\Pain Drain\libraries\lvgl\src\misc/lv_txt.c ****             }
 365:..\..\..\arduinoLCD\test\Pain Drain\libraries\lvgl\src\misc/lv_txt.c **** 
 366:..\..\..\arduinoLCD\test\Pain Drain\libraries\lvgl\src\misc/lv_txt.c ****             lv_coord_t char_width = lv_font_get_glyph_width(font, letter, letter_next);
 367:..\..\..\arduinoLCD\test\Pain Drain\libraries\lvgl\src\misc/lv_txt.c ****             if(char_width > 0) {
 368:..\..\..\arduinoLCD\test\Pain Drain\libraries\lvgl\src\misc/lv_txt.c ****                 width += char_width;
 369:..\..\..\arduinoLCD\test\Pain Drain\libraries\lvgl\src\misc/lv_txt.c ****                 width += letter_space;
 370:..\..\..\arduinoLCD\test\Pain Drain\libraries\lvgl\src\misc/lv_txt.c ****             }
 371:..\..\..\arduinoLCD\test\Pain Drain\libraries\lvgl\src\misc/lv_txt.c ****         }
 372:..\..\..\arduinoLCD\test\Pain Drain\libraries\lvgl\src\misc/lv_txt.c **** 
 373:..\..\..\arduinoLCD\test\Pain Drain\libraries\lvgl\src\misc/lv_txt.c ****         if(width > 0) {
ARM GAS  C:\Users\haske\AppData\Local\Temp\ccg6iOQH.s 			page 8


 374:..\..\..\arduinoLCD\test\Pain Drain\libraries\lvgl\src\misc/lv_txt.c ****             width -= letter_space; /*Trim the last letter space. Important if the text is center
 375:..\..\..\arduinoLCD\test\Pain Drain\libraries\lvgl\src\misc/lv_txt.c ****                                       aligned*/
 376:..\..\..\arduinoLCD\test\Pain Drain\libraries\lvgl\src\misc/lv_txt.c ****         }
 377:..\..\..\arduinoLCD\test\Pain Drain\libraries\lvgl\src\misc/lv_txt.c ****     }
 378:..\..\..\arduinoLCD\test\Pain Drain\libraries\lvgl\src\misc/lv_txt.c **** 
 379:..\..\..\arduinoLCD\test\Pain Drain\libraries\lvgl\src\misc/lv_txt.c ****     return width;
 380:..\..\..\arduinoLCD\test\Pain Drain\libraries\lvgl\src\misc/lv_txt.c **** }
 381:..\..\..\arduinoLCD\test\Pain Drain\libraries\lvgl\src\misc/lv_txt.c **** 
 382:..\..\..\arduinoLCD\test\Pain Drain\libraries\lvgl\src\misc/lv_txt.c **** bool _lv_txt_is_cmd(lv_text_cmd_state_t * state, uint32_t c)
 383:..\..\..\arduinoLCD\test\Pain Drain\libraries\lvgl\src\misc/lv_txt.c **** {
 384:..\..\..\arduinoLCD\test\Pain Drain\libraries\lvgl\src\misc/lv_txt.c ****     bool ret = false;
 385:..\..\..\arduinoLCD\test\Pain Drain\libraries\lvgl\src\misc/lv_txt.c **** 
 386:..\..\..\arduinoLCD\test\Pain Drain\libraries\lvgl\src\misc/lv_txt.c ****     if(c == (uint32_t)LV_TXT_COLOR_CMD[0]) {
 387:..\..\..\arduinoLCD\test\Pain Drain\libraries\lvgl\src\misc/lv_txt.c ****         if(*state == LV_TEXT_CMD_STATE_WAIT) { /*Start char*/
 388:..\..\..\arduinoLCD\test\Pain Drain\libraries\lvgl\src\misc/lv_txt.c ****             *state = LV_TEXT_CMD_STATE_PAR;
 389:..\..\..\arduinoLCD\test\Pain Drain\libraries\lvgl\src\misc/lv_txt.c ****             ret    = true;
 390:..\..\..\arduinoLCD\test\Pain Drain\libraries\lvgl\src\misc/lv_txt.c ****         }
 391:..\..\..\arduinoLCD\test\Pain Drain\libraries\lvgl\src\misc/lv_txt.c ****         /*Other start char in parameter is escaped cmd. char*/
 392:..\..\..\arduinoLCD\test\Pain Drain\libraries\lvgl\src\misc/lv_txt.c ****         else if(*state == LV_TEXT_CMD_STATE_PAR) {
 393:..\..\..\arduinoLCD\test\Pain Drain\libraries\lvgl\src\misc/lv_txt.c ****             *state = LV_TEXT_CMD_STATE_WAIT;
 394:..\..\..\arduinoLCD\test\Pain Drain\libraries\lvgl\src\misc/lv_txt.c ****         }
 395:..\..\..\arduinoLCD\test\Pain Drain\libraries\lvgl\src\misc/lv_txt.c ****         /*Command end*/
 396:..\..\..\arduinoLCD\test\Pain Drain\libraries\lvgl\src\misc/lv_txt.c ****         else if(*state == LV_TEXT_CMD_STATE_IN) {
 397:..\..\..\arduinoLCD\test\Pain Drain\libraries\lvgl\src\misc/lv_txt.c ****             *state = LV_TEXT_CMD_STATE_WAIT;
 398:..\..\..\arduinoLCD\test\Pain Drain\libraries\lvgl\src\misc/lv_txt.c ****             ret    = true;
 399:..\..\..\arduinoLCD\test\Pain Drain\libraries\lvgl\src\misc/lv_txt.c ****         }
 400:..\..\..\arduinoLCD\test\Pain Drain\libraries\lvgl\src\misc/lv_txt.c ****     }
 401:..\..\..\arduinoLCD\test\Pain Drain\libraries\lvgl\src\misc/lv_txt.c **** 
 402:..\..\..\arduinoLCD\test\Pain Drain\libraries\lvgl\src\misc/lv_txt.c ****     /*Skip the color parameter and wait the space after it*/
 403:..\..\..\arduinoLCD\test\Pain Drain\libraries\lvgl\src\misc/lv_txt.c ****     if(*state == LV_TEXT_CMD_STATE_PAR) {
 404:..\..\..\arduinoLCD\test\Pain Drain\libraries\lvgl\src\misc/lv_txt.c ****         if(c == ' ') {
 405:..\..\..\arduinoLCD\test\Pain Drain\libraries\lvgl\src\misc/lv_txt.c ****             *state = LV_TEXT_CMD_STATE_IN; /*After the parameter the text is in the command*/
 406:..\..\..\arduinoLCD\test\Pain Drain\libraries\lvgl\src\misc/lv_txt.c ****         }
 407:..\..\..\arduinoLCD\test\Pain Drain\libraries\lvgl\src\misc/lv_txt.c ****         ret = true;
 408:..\..\..\arduinoLCD\test\Pain Drain\libraries\lvgl\src\misc/lv_txt.c ****     }
 409:..\..\..\arduinoLCD\test\Pain Drain\libraries\lvgl\src\misc/lv_txt.c **** 
 410:..\..\..\arduinoLCD\test\Pain Drain\libraries\lvgl\src\misc/lv_txt.c ****     return ret;
 411:..\..\..\arduinoLCD\test\Pain Drain\libraries\lvgl\src\misc/lv_txt.c **** }
 412:..\..\..\arduinoLCD\test\Pain Drain\libraries\lvgl\src\misc/lv_txt.c **** 
 413:..\..\..\arduinoLCD\test\Pain Drain\libraries\lvgl\src\misc/lv_txt.c **** void _lv_txt_ins(char * txt_buf, uint32_t pos, const char * ins_txt)
 414:..\..\..\arduinoLCD\test\Pain Drain\libraries\lvgl\src\misc/lv_txt.c **** {
 415:..\..\..\arduinoLCD\test\Pain Drain\libraries\lvgl\src\misc/lv_txt.c ****     if(txt_buf == NULL || ins_txt == NULL) return;
 416:..\..\..\arduinoLCD\test\Pain Drain\libraries\lvgl\src\misc/lv_txt.c **** 
 417:..\..\..\arduinoLCD\test\Pain Drain\libraries\lvgl\src\misc/lv_txt.c ****     size_t old_len = strlen(txt_buf);
 418:..\..\..\arduinoLCD\test\Pain Drain\libraries\lvgl\src\misc/lv_txt.c ****     size_t ins_len = strlen(ins_txt);
 419:..\..\..\arduinoLCD\test\Pain Drain\libraries\lvgl\src\misc/lv_txt.c ****     if(ins_len == 0) return;
 420:..\..\..\arduinoLCD\test\Pain Drain\libraries\lvgl\src\misc/lv_txt.c **** 
 421:..\..\..\arduinoLCD\test\Pain Drain\libraries\lvgl\src\misc/lv_txt.c ****     size_t new_len = ins_len + old_len;
 422:..\..\..\arduinoLCD\test\Pain Drain\libraries\lvgl\src\misc/lv_txt.c ****     pos              = _lv_txt_encoded_get_byte_id(txt_buf, pos); /*Convert to byte index instead o
 423:..\..\..\arduinoLCD\test\Pain Drain\libraries\lvgl\src\misc/lv_txt.c **** 
 424:..\..\..\arduinoLCD\test\Pain Drain\libraries\lvgl\src\misc/lv_txt.c ****     /*Copy the second part into the end to make place to text to insert*/
 425:..\..\..\arduinoLCD\test\Pain Drain\libraries\lvgl\src\misc/lv_txt.c ****     size_t i;
 426:..\..\..\arduinoLCD\test\Pain Drain\libraries\lvgl\src\misc/lv_txt.c ****     for(i = new_len; i >= pos + ins_len; i--) {
 427:..\..\..\arduinoLCD\test\Pain Drain\libraries\lvgl\src\misc/lv_txt.c ****         txt_buf[i] = txt_buf[i - ins_len];
 428:..\..\..\arduinoLCD\test\Pain Drain\libraries\lvgl\src\misc/lv_txt.c ****     }
 429:..\..\..\arduinoLCD\test\Pain Drain\libraries\lvgl\src\misc/lv_txt.c **** 
 430:..\..\..\arduinoLCD\test\Pain Drain\libraries\lvgl\src\misc/lv_txt.c ****     /*Copy the text into the new space*/
ARM GAS  C:\Users\haske\AppData\Local\Temp\ccg6iOQH.s 			page 9


 431:..\..\..\arduinoLCD\test\Pain Drain\libraries\lvgl\src\misc/lv_txt.c ****     lv_memcpy_small(txt_buf + pos, ins_txt, ins_len);
 432:..\..\..\arduinoLCD\test\Pain Drain\libraries\lvgl\src\misc/lv_txt.c **** }
 433:..\..\..\arduinoLCD\test\Pain Drain\libraries\lvgl\src\misc/lv_txt.c **** 
 434:..\..\..\arduinoLCD\test\Pain Drain\libraries\lvgl\src\misc/lv_txt.c **** void _lv_txt_cut(char * txt, uint32_t pos, uint32_t len)
 435:..\..\..\arduinoLCD\test\Pain Drain\libraries\lvgl\src\misc/lv_txt.c **** {
 436:..\..\..\arduinoLCD\test\Pain Drain\libraries\lvgl\src\misc/lv_txt.c ****     if(txt == NULL) return;
 437:..\..\..\arduinoLCD\test\Pain Drain\libraries\lvgl\src\misc/lv_txt.c **** 
 438:..\..\..\arduinoLCD\test\Pain Drain\libraries\lvgl\src\misc/lv_txt.c ****     size_t old_len = strlen(txt);
 439:..\..\..\arduinoLCD\test\Pain Drain\libraries\lvgl\src\misc/lv_txt.c **** 
 440:..\..\..\arduinoLCD\test\Pain Drain\libraries\lvgl\src\misc/lv_txt.c ****     pos = _lv_txt_encoded_get_byte_id(txt, pos); /*Convert to byte index instead of letter index*/
 441:..\..\..\arduinoLCD\test\Pain Drain\libraries\lvgl\src\misc/lv_txt.c ****     len = _lv_txt_encoded_get_byte_id(&txt[pos], len);
 442:..\..\..\arduinoLCD\test\Pain Drain\libraries\lvgl\src\misc/lv_txt.c **** 
 443:..\..\..\arduinoLCD\test\Pain Drain\libraries\lvgl\src\misc/lv_txt.c ****     /*Copy the second part into the end to make place to text to insert*/
 444:..\..\..\arduinoLCD\test\Pain Drain\libraries\lvgl\src\misc/lv_txt.c ****     uint32_t i;
 445:..\..\..\arduinoLCD\test\Pain Drain\libraries\lvgl\src\misc/lv_txt.c ****     for(i = pos; i <= old_len - len; i++) {
 446:..\..\..\arduinoLCD\test\Pain Drain\libraries\lvgl\src\misc/lv_txt.c ****         txt[i] = txt[i + len];
 447:..\..\..\arduinoLCD\test\Pain Drain\libraries\lvgl\src\misc/lv_txt.c ****     }
 448:..\..\..\arduinoLCD\test\Pain Drain\libraries\lvgl\src\misc/lv_txt.c **** }
 449:..\..\..\arduinoLCD\test\Pain Drain\libraries\lvgl\src\misc/lv_txt.c **** 
 450:..\..\..\arduinoLCD\test\Pain Drain\libraries\lvgl\src\misc/lv_txt.c **** char * _lv_txt_set_text_vfmt(const char * fmt, va_list ap)
 451:..\..\..\arduinoLCD\test\Pain Drain\libraries\lvgl\src\misc/lv_txt.c **** {
 452:..\..\..\arduinoLCD\test\Pain Drain\libraries\lvgl\src\misc/lv_txt.c ****     /*Allocate space for the new text by using trick from C99 standard section 7.19.6.12*/
 453:..\..\..\arduinoLCD\test\Pain Drain\libraries\lvgl\src\misc/lv_txt.c ****     va_list ap_copy;
 454:..\..\..\arduinoLCD\test\Pain Drain\libraries\lvgl\src\misc/lv_txt.c ****     va_copy(ap_copy, ap);
 455:..\..\..\arduinoLCD\test\Pain Drain\libraries\lvgl\src\misc/lv_txt.c ****     uint32_t len = lv_vsnprintf(NULL, 0, fmt, ap_copy);
 456:..\..\..\arduinoLCD\test\Pain Drain\libraries\lvgl\src\misc/lv_txt.c ****     va_end(ap_copy);
 457:..\..\..\arduinoLCD\test\Pain Drain\libraries\lvgl\src\misc/lv_txt.c **** 
 458:..\..\..\arduinoLCD\test\Pain Drain\libraries\lvgl\src\misc/lv_txt.c ****     char * text = 0;
 459:..\..\..\arduinoLCD\test\Pain Drain\libraries\lvgl\src\misc/lv_txt.c **** #if LV_USE_ARABIC_PERSIAN_CHARS
 460:..\..\..\arduinoLCD\test\Pain Drain\libraries\lvgl\src\misc/lv_txt.c ****     /*Put together the text according to the format string*/
 461:..\..\..\arduinoLCD\test\Pain Drain\libraries\lvgl\src\misc/lv_txt.c ****     char * raw_txt = lv_mem_buf_get(len + 1);
 462:..\..\..\arduinoLCD\test\Pain Drain\libraries\lvgl\src\misc/lv_txt.c ****     LV_ASSERT_MALLOC(raw_txt);
 463:..\..\..\arduinoLCD\test\Pain Drain\libraries\lvgl\src\misc/lv_txt.c ****     if(raw_txt == NULL) {
 464:..\..\..\arduinoLCD\test\Pain Drain\libraries\lvgl\src\misc/lv_txt.c ****         return NULL;
 465:..\..\..\arduinoLCD\test\Pain Drain\libraries\lvgl\src\misc/lv_txt.c ****     }
 466:..\..\..\arduinoLCD\test\Pain Drain\libraries\lvgl\src\misc/lv_txt.c **** 
 467:..\..\..\arduinoLCD\test\Pain Drain\libraries\lvgl\src\misc/lv_txt.c ****     lv_vsnprintf(raw_txt, len + 1, fmt, ap);
 468:..\..\..\arduinoLCD\test\Pain Drain\libraries\lvgl\src\misc/lv_txt.c **** 
 469:..\..\..\arduinoLCD\test\Pain Drain\libraries\lvgl\src\misc/lv_txt.c ****     /*Get the size of the Arabic text and process it*/
 470:..\..\..\arduinoLCD\test\Pain Drain\libraries\lvgl\src\misc/lv_txt.c ****     size_t len_ap = _lv_txt_ap_calc_bytes_cnt(raw_txt);
 471:..\..\..\arduinoLCD\test\Pain Drain\libraries\lvgl\src\misc/lv_txt.c ****     text = lv_mem_alloc(len_ap + 1);
 472:..\..\..\arduinoLCD\test\Pain Drain\libraries\lvgl\src\misc/lv_txt.c ****     LV_ASSERT_MALLOC(text);
 473:..\..\..\arduinoLCD\test\Pain Drain\libraries\lvgl\src\misc/lv_txt.c ****     if(text == NULL) {
 474:..\..\..\arduinoLCD\test\Pain Drain\libraries\lvgl\src\misc/lv_txt.c ****         return NULL;
 475:..\..\..\arduinoLCD\test\Pain Drain\libraries\lvgl\src\misc/lv_txt.c ****     }
 476:..\..\..\arduinoLCD\test\Pain Drain\libraries\lvgl\src\misc/lv_txt.c ****     _lv_txt_ap_proc(raw_txt, text);
 477:..\..\..\arduinoLCD\test\Pain Drain\libraries\lvgl\src\misc/lv_txt.c **** 
 478:..\..\..\arduinoLCD\test\Pain Drain\libraries\lvgl\src\misc/lv_txt.c ****     lv_mem_buf_release(raw_txt);
 479:..\..\..\arduinoLCD\test\Pain Drain\libraries\lvgl\src\misc/lv_txt.c **** #else
 480:..\..\..\arduinoLCD\test\Pain Drain\libraries\lvgl\src\misc/lv_txt.c ****     text = lv_mem_alloc(len + 1);
 481:..\..\..\arduinoLCD\test\Pain Drain\libraries\lvgl\src\misc/lv_txt.c ****     LV_ASSERT_MALLOC(text);
 482:..\..\..\arduinoLCD\test\Pain Drain\libraries\lvgl\src\misc/lv_txt.c ****     if(text == NULL) {
 483:..\..\..\arduinoLCD\test\Pain Drain\libraries\lvgl\src\misc/lv_txt.c ****         return NULL;
 484:..\..\..\arduinoLCD\test\Pain Drain\libraries\lvgl\src\misc/lv_txt.c ****     }
 485:..\..\..\arduinoLCD\test\Pain Drain\libraries\lvgl\src\misc/lv_txt.c ****     text[len] = 0; /*Ensure NULL termination*/
 486:..\..\..\arduinoLCD\test\Pain Drain\libraries\lvgl\src\misc/lv_txt.c **** 
 487:..\..\..\arduinoLCD\test\Pain Drain\libraries\lvgl\src\misc/lv_txt.c ****     lv_vsnprintf(text, len + 1, fmt, ap);
ARM GAS  C:\Users\haske\AppData\Local\Temp\ccg6iOQH.s 			page 10


 488:..\..\..\arduinoLCD\test\Pain Drain\libraries\lvgl\src\misc/lv_txt.c **** #endif
 489:..\..\..\arduinoLCD\test\Pain Drain\libraries\lvgl\src\misc/lv_txt.c **** 
 490:..\..\..\arduinoLCD\test\Pain Drain\libraries\lvgl\src\misc/lv_txt.c ****     return text;
 491:..\..\..\arduinoLCD\test\Pain Drain\libraries\lvgl\src\misc/lv_txt.c **** }
 492:..\..\..\arduinoLCD\test\Pain Drain\libraries\lvgl\src\misc/lv_txt.c **** 
 493:..\..\..\arduinoLCD\test\Pain Drain\libraries\lvgl\src\misc/lv_txt.c **** void _lv_txt_encoded_letter_next_2(const char * txt, uint32_t * letter, uint32_t * letter_next, uin
 494:..\..\..\arduinoLCD\test\Pain Drain\libraries\lvgl\src\misc/lv_txt.c **** {
 495:..\..\..\arduinoLCD\test\Pain Drain\libraries\lvgl\src\misc/lv_txt.c ****     *letter = _lv_txt_encoded_next(txt, ofs);
 496:..\..\..\arduinoLCD\test\Pain Drain\libraries\lvgl\src\misc/lv_txt.c ****     *letter_next = *letter != '\0' ? _lv_txt_encoded_next(&txt[*ofs], NULL) : 0;
 497:..\..\..\arduinoLCD\test\Pain Drain\libraries\lvgl\src\misc/lv_txt.c **** }
 498:..\..\..\arduinoLCD\test\Pain Drain\libraries\lvgl\src\misc/lv_txt.c **** 
 499:..\..\..\arduinoLCD\test\Pain Drain\libraries\lvgl\src\misc/lv_txt.c **** #if LV_TXT_ENC == LV_TXT_ENC_UTF8
 500:..\..\..\arduinoLCD\test\Pain Drain\libraries\lvgl\src\misc/lv_txt.c **** /*******************************
 501:..\..\..\arduinoLCD\test\Pain Drain\libraries\lvgl\src\misc/lv_txt.c ****  *   UTF-8 ENCODER/DECODER
 502:..\..\..\arduinoLCD\test\Pain Drain\libraries\lvgl\src\misc/lv_txt.c ****  ******************************/
 503:..\..\..\arduinoLCD\test\Pain Drain\libraries\lvgl\src\misc/lv_txt.c **** 
 504:..\..\..\arduinoLCD\test\Pain Drain\libraries\lvgl\src\misc/lv_txt.c **** /**
 505:..\..\..\arduinoLCD\test\Pain Drain\libraries\lvgl\src\misc/lv_txt.c ****  * Give the size of an UTF-8 coded character
 506:..\..\..\arduinoLCD\test\Pain Drain\libraries\lvgl\src\misc/lv_txt.c ****  * @param str pointer to a character in a string
 507:..\..\..\arduinoLCD\test\Pain Drain\libraries\lvgl\src\misc/lv_txt.c ****  * @return length of the UTF-8 character (1,2,3 or 4), 0 on invalid code.
 508:..\..\..\arduinoLCD\test\Pain Drain\libraries\lvgl\src\misc/lv_txt.c ****  */
 509:..\..\..\arduinoLCD\test\Pain Drain\libraries\lvgl\src\misc/lv_txt.c **** static uint8_t lv_txt_utf8_size(const char * str)
 510:..\..\..\arduinoLCD\test\Pain Drain\libraries\lvgl\src\misc/lv_txt.c **** {
  27              		.loc 1 510 0
  28              		.cfi_startproc
  29              		@ args = 0, pretend = 0, frame = 0
  30              		@ frame_needed = 0, uses_anonymous_args = 0
  31              		@ link register save eliminated.
  32              	.LVL0:
 511:..\..\..\arduinoLCD\test\Pain Drain\libraries\lvgl\src\misc/lv_txt.c ****     if(LV_IS_ASCII(str[0]))
  33              		.loc 1 511 0
  34 0000 0378     		ldrb	r3, [r0]
  35 0002 5AB2     		sxtb	r2, r3
  36 0004 002A     		cmp	r2, #0
  37 0006 0FDA     		bge	.L3
 512:..\..\..\arduinoLCD\test\Pain Drain\libraries\lvgl\src\misc/lv_txt.c ****         return 1;
 513:..\..\..\arduinoLCD\test\Pain Drain\libraries\lvgl\src\misc/lv_txt.c ****     else if(LV_IS_2BYTES_UTF8_CODE(str[0]))
  38              		.loc 1 513 0
  39 0008 1F22     		movs	r2, #31
  40 000a 1900     		movs	r1, r3
  41 000c 9143     		bics	r1, r2
  42 000e C029     		cmp	r1, #192
  43 0010 0CD0     		beq	.L4
 514:..\..\..\arduinoLCD\test\Pain Drain\libraries\lvgl\src\misc/lv_txt.c ****         return 2;
 515:..\..\..\arduinoLCD\test\Pain Drain\libraries\lvgl\src\misc/lv_txt.c ****     else if(LV_IS_3BYTES_UTF8_CODE(str[0]))
  44              		.loc 1 515 0
  45 0012 0F22     		movs	r2, #15
  46 0014 1900     		movs	r1, r3
  47 0016 9143     		bics	r1, r2
  48 0018 E029     		cmp	r1, #224
  49 001a 09D0     		beq	.L5
 516:..\..\..\arduinoLCD\test\Pain Drain\libraries\lvgl\src\misc/lv_txt.c ****         return 3;
 517:..\..\..\arduinoLCD\test\Pain Drain\libraries\lvgl\src\misc/lv_txt.c ****     else if(LV_IS_4BYTES_UTF8_CODE(str[0]))
  50              		.loc 1 517 0
  51 001c 0722     		movs	r2, #7
  52 001e 9343     		bics	r3, r2
  53 0020 F02B     		cmp	r3, #240
ARM GAS  C:\Users\haske\AppData\Local\Temp\ccg6iOQH.s 			page 11


  54 0022 07D1     		bne	.L6
 518:..\..\..\arduinoLCD\test\Pain Drain\libraries\lvgl\src\misc/lv_txt.c ****         return 4;
  55              		.loc 1 518 0
  56 0024 0420     		movs	r0, #4
  57              	.LVL1:
  58 0026 06E0     		b	.L2
  59              	.LVL2:
  60              	.L3:
 512:..\..\..\arduinoLCD\test\Pain Drain\libraries\lvgl\src\misc/lv_txt.c ****     else if(LV_IS_2BYTES_UTF8_CODE(str[0]))
  61              		.loc 1 512 0
  62 0028 0120     		movs	r0, #1
  63              	.LVL3:
  64 002a 04E0     		b	.L2
  65              	.LVL4:
  66              	.L4:
 514:..\..\..\arduinoLCD\test\Pain Drain\libraries\lvgl\src\misc/lv_txt.c ****     else if(LV_IS_3BYTES_UTF8_CODE(str[0]))
  67              		.loc 1 514 0
  68 002c 0220     		movs	r0, #2
  69              	.LVL5:
  70 002e 02E0     		b	.L2
  71              	.LVL6:
  72              	.L5:
 516:..\..\..\arduinoLCD\test\Pain Drain\libraries\lvgl\src\misc/lv_txt.c ****     else if(LV_IS_4BYTES_UTF8_CODE(str[0]))
  73              		.loc 1 516 0
  74 0030 0320     		movs	r0, #3
  75              	.LVL7:
  76 0032 00E0     		b	.L2
  77              	.LVL8:
  78              	.L6:
 519:..\..\..\arduinoLCD\test\Pain Drain\libraries\lvgl\src\misc/lv_txt.c ****     return 0;
  79              		.loc 1 519 0
  80 0034 0020     		movs	r0, #0
  81              	.LVL9:
  82              	.L2:
 520:..\..\..\arduinoLCD\test\Pain Drain\libraries\lvgl\src\misc/lv_txt.c **** }
  83              		.loc 1 520 0
  84              		@ sp needed
  85 0036 7047     		bx	lr
  86              		.cfi_endproc
  87              	.LFE64:
  88              		.size	lv_txt_utf8_size, .-lv_txt_utf8_size
  89              		.section	.text.lv_txt_unicode_to_utf8,"ax",%progbits
  90              		.align	2
  91              		.code	16
  92              		.thumb_func
  93              		.type	lv_txt_unicode_to_utf8, %function
  94              	lv_txt_unicode_to_utf8:
  95              	.LFB65:
 521:..\..\..\arduinoLCD\test\Pain Drain\libraries\lvgl\src\misc/lv_txt.c **** 
 522:..\..\..\arduinoLCD\test\Pain Drain\libraries\lvgl\src\misc/lv_txt.c **** /**
 523:..\..\..\arduinoLCD\test\Pain Drain\libraries\lvgl\src\misc/lv_txt.c ****  * Convert a Unicode letter to UTF-8.
 524:..\..\..\arduinoLCD\test\Pain Drain\libraries\lvgl\src\misc/lv_txt.c ****  * @param letter_uni a Unicode letter
 525:..\..\..\arduinoLCD\test\Pain Drain\libraries\lvgl\src\misc/lv_txt.c ****  * @return UTF-8 coded character in Little Endian to be compatible with C chars (e.g. '', '')
 526:..\..\..\arduinoLCD\test\Pain Drain\libraries\lvgl\src\misc/lv_txt.c ****  */
 527:..\..\..\arduinoLCD\test\Pain Drain\libraries\lvgl\src\misc/lv_txt.c **** static uint32_t lv_txt_unicode_to_utf8(uint32_t letter_uni)
 528:..\..\..\arduinoLCD\test\Pain Drain\libraries\lvgl\src\misc/lv_txt.c **** {
  96              		.loc 1 528 0
ARM GAS  C:\Users\haske\AppData\Local\Temp\ccg6iOQH.s 			page 12


  97              		.cfi_startproc
  98              		@ args = 0, pretend = 0, frame = 8
  99              		@ frame_needed = 0, uses_anonymous_args = 0
 100              	.LVL10:
 101 0000 10B5     		push	{r4, lr}
 102              		.cfi_def_cfa_offset 8
 103              		.cfi_offset 4, -8
 104              		.cfi_offset 14, -4
 105 0002 82B0     		sub	sp, sp, #8
 106              		.cfi_def_cfa_offset 16
 529:..\..\..\arduinoLCD\test\Pain Drain\libraries\lvgl\src\misc/lv_txt.c ****     if(letter_uni < 128) return letter_uni;
 107              		.loc 1 529 0
 108 0004 7F28     		cmp	r0, #127
 109 0006 44D9     		bls	.L8
 530:..\..\..\arduinoLCD\test\Pain Drain\libraries\lvgl\src\misc/lv_txt.c ****     uint8_t bytes[4];
 531:..\..\..\arduinoLCD\test\Pain Drain\libraries\lvgl\src\misc/lv_txt.c **** 
 532:..\..\..\arduinoLCD\test\Pain Drain\libraries\lvgl\src\misc/lv_txt.c ****     if(letter_uni < 0x0800) {
 110              		.loc 1 532 0
 111 0008 234B     		ldr	r3, .L14
 112 000a 9842     		cmp	r0, r3
 113 000c 0FD8     		bhi	.L9
 533:..\..\..\arduinoLCD\test\Pain Drain\libraries\lvgl\src\misc/lv_txt.c ****         bytes[0] = ((letter_uni >> 6) & 0x1F) | 0xC0;
 114              		.loc 1 533 0
 115 000e 8309     		lsrs	r3, r0, #6
 116 0010 01AA     		add	r2, sp, #4
 117 0012 1F21     		movs	r1, #31
 118 0014 0B40     		ands	r3, r1
 119 0016 5F39     		subs	r1, r1, #95
 120 0018 0B43     		orrs	r3, r1
 121 001a 1370     		strb	r3, [r2]
 534:..\..\..\arduinoLCD\test\Pain Drain\libraries\lvgl\src\misc/lv_txt.c ****         bytes[1] = ((letter_uni >> 0) & 0x3F) | 0x80;
 122              		.loc 1 534 0
 123 001c 3F23     		movs	r3, #63
 124 001e 1840     		ands	r0, r3
 125              	.LVL11:
 126 0020 BF3B     		subs	r3, r3, #191
 127 0022 1843     		orrs	r0, r3
 128 0024 5070     		strb	r0, [r2, #1]
 535:..\..\..\arduinoLCD\test\Pain Drain\libraries\lvgl\src\misc/lv_txt.c ****         bytes[2] = 0;
 129              		.loc 1 535 0
 130 0026 0023     		movs	r3, #0
 131 0028 9370     		strb	r3, [r2, #2]
 536:..\..\..\arduinoLCD\test\Pain Drain\libraries\lvgl\src\misc/lv_txt.c ****         bytes[3] = 0;
 132              		.loc 1 536 0
 133 002a D370     		strb	r3, [r2, #3]
 134 002c 2EE0     		b	.L10
 135              	.LVL12:
 136              	.L9:
 537:..\..\..\arduinoLCD\test\Pain Drain\libraries\lvgl\src\misc/lv_txt.c ****     }
 538:..\..\..\arduinoLCD\test\Pain Drain\libraries\lvgl\src\misc/lv_txt.c ****     else if(letter_uni < 0x010000) {
 137              		.loc 1 538 0
 138 002e 1B4B     		ldr	r3, .L14+4
 139 0030 9842     		cmp	r0, r3
 140 0032 13D8     		bhi	.L11
 539:..\..\..\arduinoLCD\test\Pain Drain\libraries\lvgl\src\misc/lv_txt.c ****         bytes[0] = ((letter_uni >> 12) & 0x0F) | 0xE0;
 141              		.loc 1 539 0
 142 0034 030B     		lsrs	r3, r0, #12
ARM GAS  C:\Users\haske\AppData\Local\Temp\ccg6iOQH.s 			page 13


 143 0036 01A9     		add	r1, sp, #4
 144 0038 0F22     		movs	r2, #15
 145 003a 1340     		ands	r3, r2
 146 003c 2F3A     		subs	r2, r2, #47
 147 003e 1343     		orrs	r3, r2
 148 0040 0B70     		strb	r3, [r1]
 540:..\..\..\arduinoLCD\test\Pain Drain\libraries\lvgl\src\misc/lv_txt.c ****         bytes[1] = ((letter_uni >> 6) & 0x3F) | 0x80;
 149              		.loc 1 540 0
 150 0042 8209     		lsrs	r2, r0, #6
 151 0044 3F23     		movs	r3, #63
 152 0046 1A40     		ands	r2, r3
 153 0048 8024     		movs	r4, #128
 154 004a 6442     		rsbs	r4, r4, #0
 155 004c 2243     		orrs	r2, r4
 156 004e 4A70     		strb	r2, [r1, #1]
 541:..\..\..\arduinoLCD\test\Pain Drain\libraries\lvgl\src\misc/lv_txt.c ****         bytes[2] = ((letter_uni >> 0) & 0x3F) | 0x80;
 157              		.loc 1 541 0
 158 0050 1840     		ands	r0, r3
 159              	.LVL13:
 160 0052 2043     		orrs	r0, r4
 161 0054 8870     		strb	r0, [r1, #2]
 542:..\..\..\arduinoLCD\test\Pain Drain\libraries\lvgl\src\misc/lv_txt.c ****         bytes[3] = 0;
 162              		.loc 1 542 0
 163 0056 0023     		movs	r3, #0
 164 0058 CB70     		strb	r3, [r1, #3]
 165 005a 17E0     		b	.L10
 166              	.LVL14:
 167              	.L11:
 543:..\..\..\arduinoLCD\test\Pain Drain\libraries\lvgl\src\misc/lv_txt.c ****     }
 544:..\..\..\arduinoLCD\test\Pain Drain\libraries\lvgl\src\misc/lv_txt.c ****     else if(letter_uni < 0x110000) {
 168              		.loc 1 544 0
 169 005c 104B     		ldr	r3, .L14+8
 170 005e 9842     		cmp	r0, r3
 171 0060 16D8     		bhi	.L13
 545:..\..\..\arduinoLCD\test\Pain Drain\libraries\lvgl\src\misc/lv_txt.c ****         bytes[0] = ((letter_uni >> 18) & 0x07) | 0xF0;
 172              		.loc 1 545 0
 173 0062 830C     		lsrs	r3, r0, #18
 174 0064 01A9     		add	r1, sp, #4
 175 0066 0722     		movs	r2, #7
 176 0068 1340     		ands	r3, r2
 177 006a 173A     		subs	r2, r2, #23
 178 006c 1343     		orrs	r3, r2
 179 006e 0B70     		strb	r3, [r1]
 546:..\..\..\arduinoLCD\test\Pain Drain\libraries\lvgl\src\misc/lv_txt.c ****         bytes[1] = ((letter_uni >> 12) & 0x3F) | 0x80;
 180              		.loc 1 546 0
 181 0070 020B     		lsrs	r2, r0, #12
 182 0072 3F23     		movs	r3, #63
 183 0074 1A40     		ands	r2, r3
 184 0076 8024     		movs	r4, #128
 185 0078 6442     		rsbs	r4, r4, #0
 186 007a 2243     		orrs	r2, r4
 187 007c 4A70     		strb	r2, [r1, #1]
 547:..\..\..\arduinoLCD\test\Pain Drain\libraries\lvgl\src\misc/lv_txt.c ****         bytes[2] = ((letter_uni >> 6) & 0x3F) | 0x80;
 188              		.loc 1 547 0
 189 007e 8209     		lsrs	r2, r0, #6
 190 0080 1A40     		ands	r2, r3
 191 0082 2243     		orrs	r2, r4
ARM GAS  C:\Users\haske\AppData\Local\Temp\ccg6iOQH.s 			page 14


 192 0084 8A70     		strb	r2, [r1, #2]
 548:..\..\..\arduinoLCD\test\Pain Drain\libraries\lvgl\src\misc/lv_txt.c ****         bytes[3] = ((letter_uni >> 0) & 0x3F) | 0x80;
 193              		.loc 1 548 0
 194 0086 1840     		ands	r0, r3
 195              	.LVL15:
 196 0088 2043     		orrs	r0, r4
 197 008a C870     		strb	r0, [r1, #3]
 198              	.L10:
 199              	.LVL16:
 549:..\..\..\arduinoLCD\test\Pain Drain\libraries\lvgl\src\misc/lv_txt.c ****     }
 550:..\..\..\arduinoLCD\test\Pain Drain\libraries\lvgl\src\misc/lv_txt.c ****     else {
 551:..\..\..\arduinoLCD\test\Pain Drain\libraries\lvgl\src\misc/lv_txt.c ****         return 0;
 552:..\..\..\arduinoLCD\test\Pain Drain\libraries\lvgl\src\misc/lv_txt.c ****     }
 553:..\..\..\arduinoLCD\test\Pain Drain\libraries\lvgl\src\misc/lv_txt.c **** 
 554:..\..\..\arduinoLCD\test\Pain Drain\libraries\lvgl\src\misc/lv_txt.c ****     uint32_t * res_p = (uint32_t *)bytes;
 555:..\..\..\arduinoLCD\test\Pain Drain\libraries\lvgl\src\misc/lv_txt.c ****     return *res_p;
 200              		.loc 1 555 0
 201 008c 0198     		ldr	r0, [sp, #4]
 202 008e 00E0     		b	.L8
 203              	.LVL17:
 204              	.L13:
 551:..\..\..\arduinoLCD\test\Pain Drain\libraries\lvgl\src\misc/lv_txt.c ****     }
 205              		.loc 1 551 0
 206 0090 0020     		movs	r0, #0
 207              	.LVL18:
 208              	.L8:
 556:..\..\..\arduinoLCD\test\Pain Drain\libraries\lvgl\src\misc/lv_txt.c **** }
 209              		.loc 1 556 0
 210 0092 02B0     		add	sp, sp, #8
 211              		@ sp needed
 212 0094 10BD     		pop	{r4, pc}
 213              	.L15:
 214 0096 C046     		.align	2
 215              	.L14:
 216 0098 FF070000 		.word	2047
 217 009c FFFF0000 		.word	65535
 218 00a0 FFFF1000 		.word	1114111
 219              		.cfi_endproc
 220              	.LFE65:
 221              		.size	lv_txt_unicode_to_utf8, .-lv_txt_unicode_to_utf8
 222              		.section	.text.lv_txt_utf8_conv_wc,"ax",%progbits
 223              		.align	2
 224              		.code	16
 225              		.thumb_func
 226              		.type	lv_txt_utf8_conv_wc, %function
 227              	lv_txt_utf8_conv_wc:
 228              	.LFB66:
 557:..\..\..\arduinoLCD\test\Pain Drain\libraries\lvgl\src\misc/lv_txt.c **** 
 558:..\..\..\arduinoLCD\test\Pain Drain\libraries\lvgl\src\misc/lv_txt.c **** /**
 559:..\..\..\arduinoLCD\test\Pain Drain\libraries\lvgl\src\misc/lv_txt.c ****  * Convert a wide character, e.g. '' little endian to be UTF-8 compatible
 560:..\..\..\arduinoLCD\test\Pain Drain\libraries\lvgl\src\misc/lv_txt.c ****  * @param c a wide character or a  Little endian number
 561:..\..\..\arduinoLCD\test\Pain Drain\libraries\lvgl\src\misc/lv_txt.c ****  * @return `c` in big endian
 562:..\..\..\arduinoLCD\test\Pain Drain\libraries\lvgl\src\misc/lv_txt.c ****  */
 563:..\..\..\arduinoLCD\test\Pain Drain\libraries\lvgl\src\misc/lv_txt.c **** static uint32_t lv_txt_utf8_conv_wc(uint32_t c)
 564:..\..\..\arduinoLCD\test\Pain Drain\libraries\lvgl\src\misc/lv_txt.c **** {
 229              		.loc 1 564 0
 230              		.cfi_startproc
ARM GAS  C:\Users\haske\AppData\Local\Temp\ccg6iOQH.s 			page 15


 231              		@ args = 0, pretend = 0, frame = 16
 232              		@ frame_needed = 0, uses_anonymous_args = 0
 233              		@ link register save eliminated.
 234              	.LVL19:
 235 0000 84B0     		sub	sp, sp, #16
 236              		.cfi_def_cfa_offset 16
 237 0002 0300     		movs	r3, r0
 238 0004 0190     		str	r0, [sp, #4]
 565:..\..\..\arduinoLCD\test\Pain Drain\libraries\lvgl\src\misc/lv_txt.c **** #if LV_BIG_ENDIAN_SYSTEM == 0
 566:..\..\..\arduinoLCD\test\Pain Drain\libraries\lvgl\src\misc/lv_txt.c ****     /*Swap the bytes (UTF-8 is big endian, but the MCUs are little endian)*/
 567:..\..\..\arduinoLCD\test\Pain Drain\libraries\lvgl\src\misc/lv_txt.c ****     if((c & 0x80) != 0) {
 239              		.loc 1 567 0
 240 0006 1B06     		lsls	r3, r3, #24
 241 0008 06D4     		bmi	.L23
 242 000a 20E0     		b	.L18
 243              	.LVL20:
 244              	.L19:
 245              	.LBB12:
 246              	.LBB13:
 247              	.LBB14:
 248              		.file 2 "c:\\projects\\paindrain\\arduinolcd\\test\\pain drain\\libraries\\lvgl\\src\\misc\\lv_mem
   1:c:\projects\paindrain\arduinolcd\test\pain drain\libraries\lvgl\src\misc\lv_mem.h **** /**
   2:c:\projects\paindrain\arduinolcd\test\pain drain\libraries\lvgl\src\misc\lv_mem.h ****  * @file lv_mem.h
   3:c:\projects\paindrain\arduinolcd\test\pain drain\libraries\lvgl\src\misc\lv_mem.h ****  *
   4:c:\projects\paindrain\arduinolcd\test\pain drain\libraries\lvgl\src\misc\lv_mem.h ****  */
   5:c:\projects\paindrain\arduinolcd\test\pain drain\libraries\lvgl\src\misc\lv_mem.h **** 
   6:c:\projects\paindrain\arduinolcd\test\pain drain\libraries\lvgl\src\misc\lv_mem.h **** #ifndef LV_MEM_H
   7:c:\projects\paindrain\arduinolcd\test\pain drain\libraries\lvgl\src\misc\lv_mem.h **** #define LV_MEM_H
   8:c:\projects\paindrain\arduinolcd\test\pain drain\libraries\lvgl\src\misc\lv_mem.h **** 
   9:c:\projects\paindrain\arduinolcd\test\pain drain\libraries\lvgl\src\misc\lv_mem.h **** #ifdef __cplusplus
  10:c:\projects\paindrain\arduinolcd\test\pain drain\libraries\lvgl\src\misc\lv_mem.h **** extern "C" {
  11:c:\projects\paindrain\arduinolcd\test\pain drain\libraries\lvgl\src\misc\lv_mem.h **** #endif
  12:c:\projects\paindrain\arduinolcd\test\pain drain\libraries\lvgl\src\misc\lv_mem.h **** 
  13:c:\projects\paindrain\arduinolcd\test\pain drain\libraries\lvgl\src\misc\lv_mem.h **** /*********************
  14:c:\projects\paindrain\arduinolcd\test\pain drain\libraries\lvgl\src\misc\lv_mem.h ****  *      INCLUDES
  15:c:\projects\paindrain\arduinolcd\test\pain drain\libraries\lvgl\src\misc\lv_mem.h ****  *********************/
  16:c:\projects\paindrain\arduinolcd\test\pain drain\libraries\lvgl\src\misc\lv_mem.h **** #include "../lv_conf_internal.h"
  17:c:\projects\paindrain\arduinolcd\test\pain drain\libraries\lvgl\src\misc\lv_mem.h **** 
  18:c:\projects\paindrain\arduinolcd\test\pain drain\libraries\lvgl\src\misc\lv_mem.h **** #include <stdint.h>
  19:c:\projects\paindrain\arduinolcd\test\pain drain\libraries\lvgl\src\misc\lv_mem.h **** #include <stddef.h>
  20:c:\projects\paindrain\arduinolcd\test\pain drain\libraries\lvgl\src\misc\lv_mem.h **** #include <string.h>
  21:c:\projects\paindrain\arduinolcd\test\pain drain\libraries\lvgl\src\misc\lv_mem.h **** 
  22:c:\projects\paindrain\arduinolcd\test\pain drain\libraries\lvgl\src\misc\lv_mem.h **** #include "lv_types.h"
  23:c:\projects\paindrain\arduinolcd\test\pain drain\libraries\lvgl\src\misc\lv_mem.h **** 
  24:c:\projects\paindrain\arduinolcd\test\pain drain\libraries\lvgl\src\misc\lv_mem.h **** /*********************
  25:c:\projects\paindrain\arduinolcd\test\pain drain\libraries\lvgl\src\misc\lv_mem.h ****  *      DEFINES
  26:c:\projects\paindrain\arduinolcd\test\pain drain\libraries\lvgl\src\misc\lv_mem.h ****  *********************/
  27:c:\projects\paindrain\arduinolcd\test\pain drain\libraries\lvgl\src\misc\lv_mem.h **** 
  28:c:\projects\paindrain\arduinolcd\test\pain drain\libraries\lvgl\src\misc\lv_mem.h **** /**********************
  29:c:\projects\paindrain\arduinolcd\test\pain drain\libraries\lvgl\src\misc\lv_mem.h ****  *      TYPEDEFS
  30:c:\projects\paindrain\arduinolcd\test\pain drain\libraries\lvgl\src\misc\lv_mem.h ****  **********************/
  31:c:\projects\paindrain\arduinolcd\test\pain drain\libraries\lvgl\src\misc\lv_mem.h **** 
  32:c:\projects\paindrain\arduinolcd\test\pain drain\libraries\lvgl\src\misc\lv_mem.h **** /**
  33:c:\projects\paindrain\arduinolcd\test\pain drain\libraries\lvgl\src\misc\lv_mem.h ****  * Heap information structure.
  34:c:\projects\paindrain\arduinolcd\test\pain drain\libraries\lvgl\src\misc\lv_mem.h ****  */
  35:c:\projects\paindrain\arduinolcd\test\pain drain\libraries\lvgl\src\misc\lv_mem.h **** typedef struct {
  36:c:\projects\paindrain\arduinolcd\test\pain drain\libraries\lvgl\src\misc\lv_mem.h ****     uint32_t total_size; /**< Total heap size*/
ARM GAS  C:\Users\haske\AppData\Local\Temp\ccg6iOQH.s 			page 16


  37:c:\projects\paindrain\arduinolcd\test\pain drain\libraries\lvgl\src\misc\lv_mem.h ****     uint32_t free_cnt;
  38:c:\projects\paindrain\arduinolcd\test\pain drain\libraries\lvgl\src\misc\lv_mem.h ****     uint32_t free_size; /**< Size of available memory*/
  39:c:\projects\paindrain\arduinolcd\test\pain drain\libraries\lvgl\src\misc\lv_mem.h ****     uint32_t free_biggest_size;
  40:c:\projects\paindrain\arduinolcd\test\pain drain\libraries\lvgl\src\misc\lv_mem.h ****     uint32_t used_cnt;
  41:c:\projects\paindrain\arduinolcd\test\pain drain\libraries\lvgl\src\misc\lv_mem.h ****     uint32_t max_used; /**< Max size of Heap memory used*/
  42:c:\projects\paindrain\arduinolcd\test\pain drain\libraries\lvgl\src\misc\lv_mem.h ****     uint8_t used_pct; /**< Percentage used*/
  43:c:\projects\paindrain\arduinolcd\test\pain drain\libraries\lvgl\src\misc\lv_mem.h ****     uint8_t frag_pct; /**< Amount of fragmentation*/
  44:c:\projects\paindrain\arduinolcd\test\pain drain\libraries\lvgl\src\misc\lv_mem.h **** } lv_mem_monitor_t;
  45:c:\projects\paindrain\arduinolcd\test\pain drain\libraries\lvgl\src\misc\lv_mem.h **** 
  46:c:\projects\paindrain\arduinolcd\test\pain drain\libraries\lvgl\src\misc\lv_mem.h **** typedef struct {
  47:c:\projects\paindrain\arduinolcd\test\pain drain\libraries\lvgl\src\misc\lv_mem.h ****     void * p;
  48:c:\projects\paindrain\arduinolcd\test\pain drain\libraries\lvgl\src\misc\lv_mem.h ****     uint16_t size;
  49:c:\projects\paindrain\arduinolcd\test\pain drain\libraries\lvgl\src\misc\lv_mem.h ****     uint8_t used : 1;
  50:c:\projects\paindrain\arduinolcd\test\pain drain\libraries\lvgl\src\misc\lv_mem.h **** } lv_mem_buf_t;
  51:c:\projects\paindrain\arduinolcd\test\pain drain\libraries\lvgl\src\misc\lv_mem.h **** 
  52:c:\projects\paindrain\arduinolcd\test\pain drain\libraries\lvgl\src\misc\lv_mem.h **** typedef lv_mem_buf_t lv_mem_buf_arr_t[LV_MEM_BUF_MAX_NUM];
  53:c:\projects\paindrain\arduinolcd\test\pain drain\libraries\lvgl\src\misc\lv_mem.h **** 
  54:c:\projects\paindrain\arduinolcd\test\pain drain\libraries\lvgl\src\misc\lv_mem.h **** /**********************
  55:c:\projects\paindrain\arduinolcd\test\pain drain\libraries\lvgl\src\misc\lv_mem.h ****  * GLOBAL PROTOTYPES
  56:c:\projects\paindrain\arduinolcd\test\pain drain\libraries\lvgl\src\misc\lv_mem.h ****  **********************/
  57:c:\projects\paindrain\arduinolcd\test\pain drain\libraries\lvgl\src\misc\lv_mem.h **** 
  58:c:\projects\paindrain\arduinolcd\test\pain drain\libraries\lvgl\src\misc\lv_mem.h **** /**
  59:c:\projects\paindrain\arduinolcd\test\pain drain\libraries\lvgl\src\misc\lv_mem.h ****  * Initialize the dyn_mem module (work memory and other variables)
  60:c:\projects\paindrain\arduinolcd\test\pain drain\libraries\lvgl\src\misc\lv_mem.h ****  */
  61:c:\projects\paindrain\arduinolcd\test\pain drain\libraries\lvgl\src\misc\lv_mem.h **** void lv_mem_init(void);
  62:c:\projects\paindrain\arduinolcd\test\pain drain\libraries\lvgl\src\misc\lv_mem.h **** 
  63:c:\projects\paindrain\arduinolcd\test\pain drain\libraries\lvgl\src\misc\lv_mem.h **** /**
  64:c:\projects\paindrain\arduinolcd\test\pain drain\libraries\lvgl\src\misc\lv_mem.h ****  * Clean up the memory buffer which frees all the allocated memories.
  65:c:\projects\paindrain\arduinolcd\test\pain drain\libraries\lvgl\src\misc\lv_mem.h ****  * @note It work only if `LV_MEM_CUSTOM == 0`
  66:c:\projects\paindrain\arduinolcd\test\pain drain\libraries\lvgl\src\misc\lv_mem.h ****  */
  67:c:\projects\paindrain\arduinolcd\test\pain drain\libraries\lvgl\src\misc\lv_mem.h **** void lv_mem_deinit(void);
  68:c:\projects\paindrain\arduinolcd\test\pain drain\libraries\lvgl\src\misc\lv_mem.h **** 
  69:c:\projects\paindrain\arduinolcd\test\pain drain\libraries\lvgl\src\misc\lv_mem.h **** /**
  70:c:\projects\paindrain\arduinolcd\test\pain drain\libraries\lvgl\src\misc\lv_mem.h ****  * Allocate a memory dynamically
  71:c:\projects\paindrain\arduinolcd\test\pain drain\libraries\lvgl\src\misc\lv_mem.h ****  * @param size size of the memory to allocate in bytes
  72:c:\projects\paindrain\arduinolcd\test\pain drain\libraries\lvgl\src\misc\lv_mem.h ****  * @return pointer to the allocated memory
  73:c:\projects\paindrain\arduinolcd\test\pain drain\libraries\lvgl\src\misc\lv_mem.h ****  */
  74:c:\projects\paindrain\arduinolcd\test\pain drain\libraries\lvgl\src\misc\lv_mem.h **** void * lv_mem_alloc(size_t size);
  75:c:\projects\paindrain\arduinolcd\test\pain drain\libraries\lvgl\src\misc\lv_mem.h **** 
  76:c:\projects\paindrain\arduinolcd\test\pain drain\libraries\lvgl\src\misc\lv_mem.h **** /**
  77:c:\projects\paindrain\arduinolcd\test\pain drain\libraries\lvgl\src\misc\lv_mem.h ****  * Free an allocated data
  78:c:\projects\paindrain\arduinolcd\test\pain drain\libraries\lvgl\src\misc\lv_mem.h ****  * @param data pointer to an allocated memory
  79:c:\projects\paindrain\arduinolcd\test\pain drain\libraries\lvgl\src\misc\lv_mem.h ****  */
  80:c:\projects\paindrain\arduinolcd\test\pain drain\libraries\lvgl\src\misc\lv_mem.h **** void lv_mem_free(void * data);
  81:c:\projects\paindrain\arduinolcd\test\pain drain\libraries\lvgl\src\misc\lv_mem.h **** 
  82:c:\projects\paindrain\arduinolcd\test\pain drain\libraries\lvgl\src\misc\lv_mem.h **** /**
  83:c:\projects\paindrain\arduinolcd\test\pain drain\libraries\lvgl\src\misc\lv_mem.h ****  * Reallocate a memory with a new size. The old content will be kept.
  84:c:\projects\paindrain\arduinolcd\test\pain drain\libraries\lvgl\src\misc\lv_mem.h ****  * @param data pointer to an allocated memory.
  85:c:\projects\paindrain\arduinolcd\test\pain drain\libraries\lvgl\src\misc\lv_mem.h ****  * Its content will be copied to the new memory block and freed
  86:c:\projects\paindrain\arduinolcd\test\pain drain\libraries\lvgl\src\misc\lv_mem.h ****  * @param new_size the desired new size in byte
  87:c:\projects\paindrain\arduinolcd\test\pain drain\libraries\lvgl\src\misc\lv_mem.h ****  * @return pointer to the new memory, NULL on failure
  88:c:\projects\paindrain\arduinolcd\test\pain drain\libraries\lvgl\src\misc\lv_mem.h ****  */
  89:c:\projects\paindrain\arduinolcd\test\pain drain\libraries\lvgl\src\misc\lv_mem.h **** void * lv_mem_realloc(void * data_p, size_t new_size);
  90:c:\projects\paindrain\arduinolcd\test\pain drain\libraries\lvgl\src\misc\lv_mem.h **** 
  91:c:\projects\paindrain\arduinolcd\test\pain drain\libraries\lvgl\src\misc\lv_mem.h **** /**
  92:c:\projects\paindrain\arduinolcd\test\pain drain\libraries\lvgl\src\misc\lv_mem.h ****  *
  93:c:\projects\paindrain\arduinolcd\test\pain drain\libraries\lvgl\src\misc\lv_mem.h ****  * @return
ARM GAS  C:\Users\haske\AppData\Local\Temp\ccg6iOQH.s 			page 17


  94:c:\projects\paindrain\arduinolcd\test\pain drain\libraries\lvgl\src\misc\lv_mem.h ****  */
  95:c:\projects\paindrain\arduinolcd\test\pain drain\libraries\lvgl\src\misc\lv_mem.h **** lv_res_t lv_mem_test(void);
  96:c:\projects\paindrain\arduinolcd\test\pain drain\libraries\lvgl\src\misc\lv_mem.h **** 
  97:c:\projects\paindrain\arduinolcd\test\pain drain\libraries\lvgl\src\misc\lv_mem.h **** /**
  98:c:\projects\paindrain\arduinolcd\test\pain drain\libraries\lvgl\src\misc\lv_mem.h ****  * Give information about the work memory of dynamic allocation
  99:c:\projects\paindrain\arduinolcd\test\pain drain\libraries\lvgl\src\misc\lv_mem.h ****  * @param mon_p pointer to a lv_mem_monitor_t variable,
 100:c:\projects\paindrain\arduinolcd\test\pain drain\libraries\lvgl\src\misc\lv_mem.h ****  *              the result of the analysis will be stored here
 101:c:\projects\paindrain\arduinolcd\test\pain drain\libraries\lvgl\src\misc\lv_mem.h ****  */
 102:c:\projects\paindrain\arduinolcd\test\pain drain\libraries\lvgl\src\misc\lv_mem.h **** void lv_mem_monitor(lv_mem_monitor_t * mon_p);
 103:c:\projects\paindrain\arduinolcd\test\pain drain\libraries\lvgl\src\misc\lv_mem.h **** 
 104:c:\projects\paindrain\arduinolcd\test\pain drain\libraries\lvgl\src\misc\lv_mem.h **** 
 105:c:\projects\paindrain\arduinolcd\test\pain drain\libraries\lvgl\src\misc\lv_mem.h **** /**
 106:c:\projects\paindrain\arduinolcd\test\pain drain\libraries\lvgl\src\misc\lv_mem.h ****  * Get a temporal buffer with the given size.
 107:c:\projects\paindrain\arduinolcd\test\pain drain\libraries\lvgl\src\misc\lv_mem.h ****  * @param size the required size
 108:c:\projects\paindrain\arduinolcd\test\pain drain\libraries\lvgl\src\misc\lv_mem.h ****  */
 109:c:\projects\paindrain\arduinolcd\test\pain drain\libraries\lvgl\src\misc\lv_mem.h **** void * lv_mem_buf_get(uint32_t size);
 110:c:\projects\paindrain\arduinolcd\test\pain drain\libraries\lvgl\src\misc\lv_mem.h **** 
 111:c:\projects\paindrain\arduinolcd\test\pain drain\libraries\lvgl\src\misc\lv_mem.h **** /**
 112:c:\projects\paindrain\arduinolcd\test\pain drain\libraries\lvgl\src\misc\lv_mem.h ****  * Release a memory buffer
 113:c:\projects\paindrain\arduinolcd\test\pain drain\libraries\lvgl\src\misc\lv_mem.h ****  * @param p buffer to release
 114:c:\projects\paindrain\arduinolcd\test\pain drain\libraries\lvgl\src\misc\lv_mem.h ****  */
 115:c:\projects\paindrain\arduinolcd\test\pain drain\libraries\lvgl\src\misc\lv_mem.h **** void lv_mem_buf_release(void * p);
 116:c:\projects\paindrain\arduinolcd\test\pain drain\libraries\lvgl\src\misc\lv_mem.h **** 
 117:c:\projects\paindrain\arduinolcd\test\pain drain\libraries\lvgl\src\misc\lv_mem.h **** /**
 118:c:\projects\paindrain\arduinolcd\test\pain drain\libraries\lvgl\src\misc\lv_mem.h ****  * Free all memory buffers
 119:c:\projects\paindrain\arduinolcd\test\pain drain\libraries\lvgl\src\misc\lv_mem.h ****  */
 120:c:\projects\paindrain\arduinolcd\test\pain drain\libraries\lvgl\src\misc\lv_mem.h **** void lv_mem_buf_free_all(void);
 121:c:\projects\paindrain\arduinolcd\test\pain drain\libraries\lvgl\src\misc\lv_mem.h **** 
 122:c:\projects\paindrain\arduinolcd\test\pain drain\libraries\lvgl\src\misc\lv_mem.h **** //! @cond Doxygen_Suppress
 123:c:\projects\paindrain\arduinolcd\test\pain drain\libraries\lvgl\src\misc\lv_mem.h **** 
 124:c:\projects\paindrain\arduinolcd\test\pain drain\libraries\lvgl\src\misc\lv_mem.h **** #if LV_MEMCPY_MEMSET_STD
 125:c:\projects\paindrain\arduinolcd\test\pain drain\libraries\lvgl\src\misc\lv_mem.h **** 
 126:c:\projects\paindrain\arduinolcd\test\pain drain\libraries\lvgl\src\misc\lv_mem.h **** /**
 127:c:\projects\paindrain\arduinolcd\test\pain drain\libraries\lvgl\src\misc\lv_mem.h ****  * Wrapper for the standard memcpy
 128:c:\projects\paindrain\arduinolcd\test\pain drain\libraries\lvgl\src\misc\lv_mem.h ****  * @param dst pointer to the destination buffer
 129:c:\projects\paindrain\arduinolcd\test\pain drain\libraries\lvgl\src\misc\lv_mem.h ****  * @param src pointer to the source buffer
 130:c:\projects\paindrain\arduinolcd\test\pain drain\libraries\lvgl\src\misc\lv_mem.h ****  * @param len number of byte to copy
 131:c:\projects\paindrain\arduinolcd\test\pain drain\libraries\lvgl\src\misc\lv_mem.h ****  */
 132:c:\projects\paindrain\arduinolcd\test\pain drain\libraries\lvgl\src\misc\lv_mem.h **** static inline void * lv_memcpy(void * dst, const void * src, size_t len)
 133:c:\projects\paindrain\arduinolcd\test\pain drain\libraries\lvgl\src\misc\lv_mem.h **** {
 134:c:\projects\paindrain\arduinolcd\test\pain drain\libraries\lvgl\src\misc\lv_mem.h ****     return memcpy(dst, src, len);
 135:c:\projects\paindrain\arduinolcd\test\pain drain\libraries\lvgl\src\misc\lv_mem.h **** }
 136:c:\projects\paindrain\arduinolcd\test\pain drain\libraries\lvgl\src\misc\lv_mem.h **** 
 137:c:\projects\paindrain\arduinolcd\test\pain drain\libraries\lvgl\src\misc\lv_mem.h **** /**
 138:c:\projects\paindrain\arduinolcd\test\pain drain\libraries\lvgl\src\misc\lv_mem.h ****  * Wrapper for the standard memcpy
 139:c:\projects\paindrain\arduinolcd\test\pain drain\libraries\lvgl\src\misc\lv_mem.h ****  * @param dst pointer to the destination buffer
 140:c:\projects\paindrain\arduinolcd\test\pain drain\libraries\lvgl\src\misc\lv_mem.h ****  * @param src pointer to the source buffer
 141:c:\projects\paindrain\arduinolcd\test\pain drain\libraries\lvgl\src\misc\lv_mem.h ****  * @param len number of byte to copy
 142:c:\projects\paindrain\arduinolcd\test\pain drain\libraries\lvgl\src\misc\lv_mem.h ****  */
 143:c:\projects\paindrain\arduinolcd\test\pain drain\libraries\lvgl\src\misc\lv_mem.h **** static inline void * lv_memcpy_small(void * dst, const void * src, size_t len)
 144:c:\projects\paindrain\arduinolcd\test\pain drain\libraries\lvgl\src\misc\lv_mem.h **** {
 145:c:\projects\paindrain\arduinolcd\test\pain drain\libraries\lvgl\src\misc\lv_mem.h ****     return memcpy(dst, src, len);
 146:c:\projects\paindrain\arduinolcd\test\pain drain\libraries\lvgl\src\misc\lv_mem.h **** }
 147:c:\projects\paindrain\arduinolcd\test\pain drain\libraries\lvgl\src\misc\lv_mem.h **** 
 148:c:\projects\paindrain\arduinolcd\test\pain drain\libraries\lvgl\src\misc\lv_mem.h **** /**
 149:c:\projects\paindrain\arduinolcd\test\pain drain\libraries\lvgl\src\misc\lv_mem.h ****  * Wrapper for the standard memset
 150:c:\projects\paindrain\arduinolcd\test\pain drain\libraries\lvgl\src\misc\lv_mem.h ****  * @param dst pointer to the destination buffer
ARM GAS  C:\Users\haske\AppData\Local\Temp\ccg6iOQH.s 			page 18


 151:c:\projects\paindrain\arduinolcd\test\pain drain\libraries\lvgl\src\misc\lv_mem.h ****  * @param v value to set [0..255]
 152:c:\projects\paindrain\arduinolcd\test\pain drain\libraries\lvgl\src\misc\lv_mem.h ****  * @param len number of byte to set
 153:c:\projects\paindrain\arduinolcd\test\pain drain\libraries\lvgl\src\misc\lv_mem.h ****  */
 154:c:\projects\paindrain\arduinolcd\test\pain drain\libraries\lvgl\src\misc\lv_mem.h **** static inline void lv_memset(void * dst, uint8_t v, size_t len)
 155:c:\projects\paindrain\arduinolcd\test\pain drain\libraries\lvgl\src\misc\lv_mem.h **** {
 156:c:\projects\paindrain\arduinolcd\test\pain drain\libraries\lvgl\src\misc\lv_mem.h ****     memset(dst, v, len);
 157:c:\projects\paindrain\arduinolcd\test\pain drain\libraries\lvgl\src\misc\lv_mem.h **** }
 158:c:\projects\paindrain\arduinolcd\test\pain drain\libraries\lvgl\src\misc\lv_mem.h **** 
 159:c:\projects\paindrain\arduinolcd\test\pain drain\libraries\lvgl\src\misc\lv_mem.h **** /**
 160:c:\projects\paindrain\arduinolcd\test\pain drain\libraries\lvgl\src\misc\lv_mem.h ****  * Wrapper for the standard memset with fixed 0x00 value
 161:c:\projects\paindrain\arduinolcd\test\pain drain\libraries\lvgl\src\misc\lv_mem.h ****  * @param dst pointer to the destination buffer
 162:c:\projects\paindrain\arduinolcd\test\pain drain\libraries\lvgl\src\misc\lv_mem.h ****  * @param len number of byte to set
 163:c:\projects\paindrain\arduinolcd\test\pain drain\libraries\lvgl\src\misc\lv_mem.h ****  */
 164:c:\projects\paindrain\arduinolcd\test\pain drain\libraries\lvgl\src\misc\lv_mem.h **** static inline void lv_memset_00(void * dst, size_t len)
 165:c:\projects\paindrain\arduinolcd\test\pain drain\libraries\lvgl\src\misc\lv_mem.h **** {
 166:c:\projects\paindrain\arduinolcd\test\pain drain\libraries\lvgl\src\misc\lv_mem.h ****     memset(dst, 0x00, len);
 167:c:\projects\paindrain\arduinolcd\test\pain drain\libraries\lvgl\src\misc\lv_mem.h **** }
 168:c:\projects\paindrain\arduinolcd\test\pain drain\libraries\lvgl\src\misc\lv_mem.h **** 
 169:c:\projects\paindrain\arduinolcd\test\pain drain\libraries\lvgl\src\misc\lv_mem.h **** /**
 170:c:\projects\paindrain\arduinolcd\test\pain drain\libraries\lvgl\src\misc\lv_mem.h ****  * Wrapper for the standard memset with fixed 0xFF value
 171:c:\projects\paindrain\arduinolcd\test\pain drain\libraries\lvgl\src\misc\lv_mem.h ****  * @param dst pointer to the destination buffer
 172:c:\projects\paindrain\arduinolcd\test\pain drain\libraries\lvgl\src\misc\lv_mem.h ****  * @param len number of byte to set
 173:c:\projects\paindrain\arduinolcd\test\pain drain\libraries\lvgl\src\misc\lv_mem.h ****  */
 174:c:\projects\paindrain\arduinolcd\test\pain drain\libraries\lvgl\src\misc\lv_mem.h **** static inline void lv_memset_ff(void * dst, size_t len)
 175:c:\projects\paindrain\arduinolcd\test\pain drain\libraries\lvgl\src\misc\lv_mem.h **** {
 176:c:\projects\paindrain\arduinolcd\test\pain drain\libraries\lvgl\src\misc\lv_mem.h ****     memset(dst, 0xFF, len);
 177:c:\projects\paindrain\arduinolcd\test\pain drain\libraries\lvgl\src\misc\lv_mem.h **** }
 178:c:\projects\paindrain\arduinolcd\test\pain drain\libraries\lvgl\src\misc\lv_mem.h **** 
 179:c:\projects\paindrain\arduinolcd\test\pain drain\libraries\lvgl\src\misc\lv_mem.h **** #else
 180:c:\projects\paindrain\arduinolcd\test\pain drain\libraries\lvgl\src\misc\lv_mem.h **** /**
 181:c:\projects\paindrain\arduinolcd\test\pain drain\libraries\lvgl\src\misc\lv_mem.h ****  * Same as `memcpy` but optimized for 4 byte operation.
 182:c:\projects\paindrain\arduinolcd\test\pain drain\libraries\lvgl\src\misc\lv_mem.h ****  * @param dst pointer to the destination buffer
 183:c:\projects\paindrain\arduinolcd\test\pain drain\libraries\lvgl\src\misc\lv_mem.h ****  * @param src pointer to the source buffer
 184:c:\projects\paindrain\arduinolcd\test\pain drain\libraries\lvgl\src\misc\lv_mem.h ****  * @param len number of byte to copy
 185:c:\projects\paindrain\arduinolcd\test\pain drain\libraries\lvgl\src\misc\lv_mem.h ****  */
 186:c:\projects\paindrain\arduinolcd\test\pain drain\libraries\lvgl\src\misc\lv_mem.h **** LV_ATTRIBUTE_FAST_MEM void * lv_memcpy(void * dst, const void * src, size_t len);
 187:c:\projects\paindrain\arduinolcd\test\pain drain\libraries\lvgl\src\misc\lv_mem.h **** 
 188:c:\projects\paindrain\arduinolcd\test\pain drain\libraries\lvgl\src\misc\lv_mem.h **** /**
 189:c:\projects\paindrain\arduinolcd\test\pain drain\libraries\lvgl\src\misc\lv_mem.h ****  * Same as `memcpy` but optimized to copy only a few bytes.
 190:c:\projects\paindrain\arduinolcd\test\pain drain\libraries\lvgl\src\misc\lv_mem.h ****  * @param dst pointer to the destination buffer
 191:c:\projects\paindrain\arduinolcd\test\pain drain\libraries\lvgl\src\misc\lv_mem.h ****  * @param src pointer to the source buffer
 192:c:\projects\paindrain\arduinolcd\test\pain drain\libraries\lvgl\src\misc\lv_mem.h ****  * @param len number of byte to copy
 193:c:\projects\paindrain\arduinolcd\test\pain drain\libraries\lvgl\src\misc\lv_mem.h ****  */
 194:c:\projects\paindrain\arduinolcd\test\pain drain\libraries\lvgl\src\misc\lv_mem.h **** LV_ATTRIBUTE_FAST_MEM static inline void * lv_memcpy_small(void * dst, const void * src, size_t len
 195:c:\projects\paindrain\arduinolcd\test\pain drain\libraries\lvgl\src\misc\lv_mem.h **** {
 196:c:\projects\paindrain\arduinolcd\test\pain drain\libraries\lvgl\src\misc\lv_mem.h ****     uint8_t * d8 = (uint8_t *)dst;
 197:c:\projects\paindrain\arduinolcd\test\pain drain\libraries\lvgl\src\misc\lv_mem.h ****     const uint8_t * s8 = (const uint8_t *)src;
 198:c:\projects\paindrain\arduinolcd\test\pain drain\libraries\lvgl\src\misc\lv_mem.h **** 
 199:c:\projects\paindrain\arduinolcd\test\pain drain\libraries\lvgl\src\misc\lv_mem.h ****     while(len) {
 200:c:\projects\paindrain\arduinolcd\test\pain drain\libraries\lvgl\src\misc\lv_mem.h ****         *d8 = *s8;
 249              		.loc 2 200 0
 250 000c 0878     		ldrb	r0, [r1]
 251 000e 1070     		strb	r0, [r2]
 201:c:\projects\paindrain\arduinolcd\test\pain drain\libraries\lvgl\src\misc\lv_mem.h ****         d8++;
 252              		.loc 2 201 0
 253 0010 0132     		adds	r2, r2, #1
 254              	.LVL21:
ARM GAS  C:\Users\haske\AppData\Local\Temp\ccg6iOQH.s 			page 19


 202:c:\projects\paindrain\arduinolcd\test\pain drain\libraries\lvgl\src\misc\lv_mem.h ****         s8++;
 255              		.loc 2 202 0
 256 0012 0131     		adds	r1, r1, #1
 257              	.LVL22:
 203:c:\projects\paindrain\arduinolcd\test\pain drain\libraries\lvgl\src\misc\lv_mem.h ****         len--;
 258              		.loc 2 203 0
 259 0014 013B     		subs	r3, r3, #1
 260              	.LVL23:
 261 0016 02E0     		b	.L17
 262              	.LVL24:
 263              	.L23:
 264              	.LBE14:
 265              	.LBE13:
 266              	.LBE12:
 267 0018 01A9     		add	r1, sp, #4
 268 001a 03AA     		add	r2, sp, #12
 269 001c 0423     		movs	r3, #4
 270              	.LVL25:
 271              	.L17:
 272              	.LBB17:
 273              	.LBB16:
 274              	.LBB15:
 199:c:\projects\paindrain\arduinolcd\test\pain drain\libraries\lvgl\src\misc\lv_mem.h ****         *d8 = *s8;
 275              		.loc 2 199 0
 276 001e 002B     		cmp	r3, #0
 277 0020 F4D1     		bne	.L19
 278              	.LVL26:
 279              	.LBE15:
 280              	.LBE16:
 568:..\..\..\arduinoLCD\test\Pain Drain\libraries\lvgl\src\misc/lv_txt.c ****         uint32_t swapped;
 569:..\..\..\arduinoLCD\test\Pain Drain\libraries\lvgl\src\misc/lv_txt.c ****         uint8_t c8[4];
 570:..\..\..\arduinoLCD\test\Pain Drain\libraries\lvgl\src\misc/lv_txt.c ****         lv_memcpy_small(c8, &c, 4);
 571:..\..\..\arduinoLCD\test\Pain Drain\libraries\lvgl\src\misc/lv_txt.c ****         swapped = (c8[0] << 24) + (c8[1] << 16) + (c8[2] << 8) + (c8[3]);
 281              		.loc 1 571 0
 282 0022 03A9     		add	r1, sp, #12
 283              	.LVL27:
 284 0024 0A78     		ldrb	r2, [r1]
 285              	.LVL28:
 286 0026 1206     		lsls	r2, r2, #24
 287 0028 4B78     		ldrb	r3, [r1, #1]
 288 002a 1B04     		lsls	r3, r3, #16
 289 002c D218     		adds	r2, r2, r3
 290 002e 8B78     		ldrb	r3, [r1, #2]
 291 0030 1B02     		lsls	r3, r3, #8
 292 0032 D218     		adds	r2, r2, r3
 293 0034 CB78     		ldrb	r3, [r1, #3]
 294 0036 9A18     		adds	r2, r3, r2
 295              	.LVL29:
 572:..\..\..\arduinoLCD\test\Pain Drain\libraries\lvgl\src\misc/lv_txt.c ****         uint8_t i;
 573:..\..\..\arduinoLCD\test\Pain Drain\libraries\lvgl\src\misc/lv_txt.c ****         for(i = 0; i < 4; i++) {
 296              		.loc 1 573 0
 297 0038 0023     		movs	r3, #0
 298 003a 05E0     		b	.L20
 299              	.LVL30:
 300              	.L22:
 574:..\..\..\arduinoLCD\test\Pain Drain\libraries\lvgl\src\misc/lv_txt.c ****             if((swapped & 0xFF) == 0)
 301              		.loc 1 574 0
ARM GAS  C:\Users\haske\AppData\Local\Temp\ccg6iOQH.s 			page 20


 302 003c FF21     		movs	r1, #255
 303 003e 1142     		tst	r1, r2
 304 0040 00D1     		bne	.L21
 575:..\..\..\arduinoLCD\test\Pain Drain\libraries\lvgl\src\misc/lv_txt.c ****                 swapped = (swapped >> 8); /*Ignore leading zeros (they were in the end originally)*
 305              		.loc 1 575 0
 306 0042 120A     		lsrs	r2, r2, #8
 307              	.LVL31:
 308              	.L21:
 573:..\..\..\arduinoLCD\test\Pain Drain\libraries\lvgl\src\misc/lv_txt.c ****             if((swapped & 0xFF) == 0)
 309              		.loc 1 573 0 discriminator 2
 310 0044 0133     		adds	r3, r3, #1
 311              	.LVL32:
 312 0046 DBB2     		uxtb	r3, r3
 313              	.LVL33:
 314              	.L20:
 573:..\..\..\arduinoLCD\test\Pain Drain\libraries\lvgl\src\misc/lv_txt.c ****             if((swapped & 0xFF) == 0)
 315              		.loc 1 573 0 is_stmt 0 discriminator 1
 316 0048 032B     		cmp	r3, #3
 317 004a F7D9     		bls	.L22
 576:..\..\..\arduinoLCD\test\Pain Drain\libraries\lvgl\src\misc/lv_txt.c ****         }
 577:..\..\..\arduinoLCD\test\Pain Drain\libraries\lvgl\src\misc/lv_txt.c ****         c = swapped;
 318              		.loc 1 577 0 is_stmt 1
 319 004c 0192     		str	r2, [sp, #4]
 320              	.LVL34:
 321              	.L18:
 322              	.LBE17:
 578:..\..\..\arduinoLCD\test\Pain Drain\libraries\lvgl\src\misc/lv_txt.c ****     }
 579:..\..\..\arduinoLCD\test\Pain Drain\libraries\lvgl\src\misc/lv_txt.c **** #endif
 580:..\..\..\arduinoLCD\test\Pain Drain\libraries\lvgl\src\misc/lv_txt.c ****     return c;
 581:..\..\..\arduinoLCD\test\Pain Drain\libraries\lvgl\src\misc/lv_txt.c **** }
 323              		.loc 1 581 0
 324 004e 0198     		ldr	r0, [sp, #4]
 325 0050 04B0     		add	sp, sp, #16
 326              		@ sp needed
 327 0052 7047     		bx	lr
 328              		.cfi_endproc
 329              	.LFE66:
 330              		.size	lv_txt_utf8_conv_wc, .-lv_txt_utf8_conv_wc
 331              		.section	.text.lv_txt_utf8_next,"ax",%progbits
 332              		.align	2
 333              		.code	16
 334              		.thumb_func
 335              		.type	lv_txt_utf8_next, %function
 336              	lv_txt_utf8_next:
 337              	.LFB67:
 582:..\..\..\arduinoLCD\test\Pain Drain\libraries\lvgl\src\misc/lv_txt.c **** 
 583:..\..\..\arduinoLCD\test\Pain Drain\libraries\lvgl\src\misc/lv_txt.c **** /**
 584:..\..\..\arduinoLCD\test\Pain Drain\libraries\lvgl\src\misc/lv_txt.c ****  * Decode an UTF-8 character from a string.
 585:..\..\..\arduinoLCD\test\Pain Drain\libraries\lvgl\src\misc/lv_txt.c ****  * @param txt pointer to '\0' terminated string
 586:..\..\..\arduinoLCD\test\Pain Drain\libraries\lvgl\src\misc/lv_txt.c ****  * @param i start byte index in 'txt' where to start.
 587:..\..\..\arduinoLCD\test\Pain Drain\libraries\lvgl\src\misc/lv_txt.c ****  *          After call it will point to the next UTF-8 char in 'txt'.
 588:..\..\..\arduinoLCD\test\Pain Drain\libraries\lvgl\src\misc/lv_txt.c ****  *          NULL to use txt[0] as index
 589:..\..\..\arduinoLCD\test\Pain Drain\libraries\lvgl\src\misc/lv_txt.c ****  * @return the decoded Unicode character or 0 on invalid UTF-8 code
 590:..\..\..\arduinoLCD\test\Pain Drain\libraries\lvgl\src\misc/lv_txt.c ****  */
 591:..\..\..\arduinoLCD\test\Pain Drain\libraries\lvgl\src\misc/lv_txt.c **** static uint32_t lv_txt_utf8_next(const char * txt, uint32_t * i)
 592:..\..\..\arduinoLCD\test\Pain Drain\libraries\lvgl\src\misc/lv_txt.c **** {
 338              		.loc 1 592 0
ARM GAS  C:\Users\haske\AppData\Local\Temp\ccg6iOQH.s 			page 21


 339              		.cfi_startproc
 340              		@ args = 0, pretend = 0, frame = 8
 341              		@ frame_needed = 0, uses_anonymous_args = 0
 342              	.LVL35:
 343 0000 70B5     		push	{r4, r5, r6, lr}
 344              		.cfi_def_cfa_offset 16
 345              		.cfi_offset 4, -16
 346              		.cfi_offset 5, -12
 347              		.cfi_offset 6, -8
 348              		.cfi_offset 14, -4
 349 0002 82B0     		sub	sp, sp, #8
 350              		.cfi_def_cfa_offset 24
 351              	.LVL36:
 593:..\..\..\arduinoLCD\test\Pain Drain\libraries\lvgl\src\misc/lv_txt.c ****     /**
 594:..\..\..\arduinoLCD\test\Pain Drain\libraries\lvgl\src\misc/lv_txt.c ****      * Unicode to UTF-8
 595:..\..\..\arduinoLCD\test\Pain Drain\libraries\lvgl\src\misc/lv_txt.c ****      * 00000000 00000000 00000000 0xxxxxxx -> 0xxxxxxx
 596:..\..\..\arduinoLCD\test\Pain Drain\libraries\lvgl\src\misc/lv_txt.c ****      * 00000000 00000000 00000yyy yyxxxxxx -> 110yyyyy 10xxxxxx
 597:..\..\..\arduinoLCD\test\Pain Drain\libraries\lvgl\src\misc/lv_txt.c ****      * 00000000 00000000 zzzzyyyy yyxxxxxx -> 1110zzzz 10yyyyyy 10xxxxxx
 598:..\..\..\arduinoLCD\test\Pain Drain\libraries\lvgl\src\misc/lv_txt.c ****      * 00000000 000wwwzz zzzzyyyy yyxxxxxx -> 11110www 10zzzzzz 10yyyyyy 10xxxxxx
 599:..\..\..\arduinoLCD\test\Pain Drain\libraries\lvgl\src\misc/lv_txt.c ****      */
 600:..\..\..\arduinoLCD\test\Pain Drain\libraries\lvgl\src\misc/lv_txt.c **** 
 601:..\..\..\arduinoLCD\test\Pain Drain\libraries\lvgl\src\misc/lv_txt.c ****     uint32_t result = 0;
 602:..\..\..\arduinoLCD\test\Pain Drain\libraries\lvgl\src\misc/lv_txt.c **** 
 603:..\..\..\arduinoLCD\test\Pain Drain\libraries\lvgl\src\misc/lv_txt.c ****     /*Dummy 'i' pointer is required*/
 604:..\..\..\arduinoLCD\test\Pain Drain\libraries\lvgl\src\misc/lv_txt.c ****     uint32_t i_tmp = 0;
 352              		.loc 1 604 0
 353 0004 0023     		movs	r3, #0
 354 0006 0193     		str	r3, [sp, #4]
 605:..\..\..\arduinoLCD\test\Pain Drain\libraries\lvgl\src\misc/lv_txt.c ****     if(i == NULL) i = &i_tmp;
 355              		.loc 1 605 0
 356 0008 0029     		cmp	r1, #0
 357 000a 00D1     		bne	.L25
 358 000c 01A9     		add	r1, sp, #4
 359              	.LVL37:
 360              	.L25:
 606:..\..\..\arduinoLCD\test\Pain Drain\libraries\lvgl\src\misc/lv_txt.c **** 
 607:..\..\..\arduinoLCD\test\Pain Drain\libraries\lvgl\src\misc/lv_txt.c ****     /*Normal ASCII*/
 608:..\..\..\arduinoLCD\test\Pain Drain\libraries\lvgl\src\misc/lv_txt.c ****     if(LV_IS_ASCII(txt[*i])) {
 361              		.loc 1 608 0
 362 000e 0C68     		ldr	r4, [r1]
 363 0010 035D     		ldrb	r3, [r0, r4]
 364 0012 5AB2     		sxtb	r2, r3
 365 0014 002A     		cmp	r2, #0
 366 0016 03DB     		blt	.L26
 367              	.LVL38:
 609:..\..\..\arduinoLCD\test\Pain Drain\libraries\lvgl\src\misc/lv_txt.c ****         result = txt[*i];
 610:..\..\..\arduinoLCD\test\Pain Drain\libraries\lvgl\src\misc/lv_txt.c ****         (*i)++;
 368              		.loc 1 610 0
 369 0018 0134     		adds	r4, r4, #1
 370 001a 0C60     		str	r4, [r1]
 609:..\..\..\arduinoLCD\test\Pain Drain\libraries\lvgl\src\misc/lv_txt.c ****         result = txt[*i];
 371              		.loc 1 609 0
 372 001c 1800     		movs	r0, r3
 373              	.LVL39:
 374 001e 7BE0     		b	.L27
 375              	.LVL40:
 376              	.L26:
ARM GAS  C:\Users\haske\AppData\Local\Temp\ccg6iOQH.s 			page 22


 611:..\..\..\arduinoLCD\test\Pain Drain\libraries\lvgl\src\misc/lv_txt.c ****     }
 612:..\..\..\arduinoLCD\test\Pain Drain\libraries\lvgl\src\misc/lv_txt.c ****     /*Real UTF-8 decode*/
 613:..\..\..\arduinoLCD\test\Pain Drain\libraries\lvgl\src\misc/lv_txt.c ****     else {
 614:..\..\..\arduinoLCD\test\Pain Drain\libraries\lvgl\src\misc/lv_txt.c ****         /*2 bytes UTF-8 code*/
 615:..\..\..\arduinoLCD\test\Pain Drain\libraries\lvgl\src\misc/lv_txt.c ****         if(LV_IS_2BYTES_UTF8_CODE(txt[*i])) {
 377              		.loc 1 615 0
 378 0020 1F22     		movs	r2, #31
 379 0022 1D00     		movs	r5, r3
 380 0024 9543     		bics	r5, r2
 381 0026 C02D     		cmp	r5, #192
 382 0028 12D1     		bne	.L28
 616:..\..\..\arduinoLCD\test\Pain Drain\libraries\lvgl\src\misc/lv_txt.c ****             result = (uint32_t)(txt[*i] & 0x1F) << 6;
 383              		.loc 1 616 0
 384 002a 9B01     		lsls	r3, r3, #6
 385 002c F822     		movs	r2, #248
 386 002e D200     		lsls	r2, r2, #3
 387 0030 1340     		ands	r3, r2
 388              	.LVL41:
 617:..\..\..\arduinoLCD\test\Pain Drain\libraries\lvgl\src\misc/lv_txt.c ****             (*i)++;
 389              		.loc 1 617 0
 390 0032 0134     		adds	r4, r4, #1
 391 0034 0C60     		str	r4, [r1]
 618:..\..\..\arduinoLCD\test\Pain Drain\libraries\lvgl\src\misc/lv_txt.c ****             if(LV_IS_INVALID_UTF8_CODE(txt[*i])) return 0;
 392              		.loc 1 618 0
 393 0036 025D     		ldrb	r2, [r0, r4]
 394 0038 3F20     		movs	r0, #63
 395              	.LVL42:
 396 003a 1500     		movs	r5, r2
 397 003c 8543     		bics	r5, r0
 398 003e 2800     		movs	r0, r5
 399 0040 802D     		cmp	r5, #128
 400 0042 5ED1     		bne	.L32
 619:..\..\..\arduinoLCD\test\Pain Drain\libraries\lvgl\src\misc/lv_txt.c ****             result += (txt[*i] & 0x3F);
 401              		.loc 1 619 0
 402 0044 4138     		subs	r0, r0, #65
 403 0046 0240     		ands	r2, r0
 404              	.LVL43:
 620:..\..\..\arduinoLCD\test\Pain Drain\libraries\lvgl\src\misc/lv_txt.c ****             (*i)++;
 405              		.loc 1 620 0
 406 0048 0134     		adds	r4, r4, #1
 407 004a 0C60     		str	r4, [r1]
 619:..\..\..\arduinoLCD\test\Pain Drain\libraries\lvgl\src\misc/lv_txt.c ****             result += (txt[*i] & 0x3F);
 408              		.loc 1 619 0
 409 004c D018     		adds	r0, r2, r3
 410              	.LVL44:
 411 004e 63E0     		b	.L27
 412              	.LVL45:
 413              	.L28:
 621:..\..\..\arduinoLCD\test\Pain Drain\libraries\lvgl\src\misc/lv_txt.c ****         }
 622:..\..\..\arduinoLCD\test\Pain Drain\libraries\lvgl\src\misc/lv_txt.c ****         /*3 bytes UTF-8 code*/
 623:..\..\..\arduinoLCD\test\Pain Drain\libraries\lvgl\src\misc/lv_txt.c ****         else if(LV_IS_3BYTES_UTF8_CODE(txt[*i])) {
 414              		.loc 1 623 0
 415 0050 0F22     		movs	r2, #15
 416 0052 1D00     		movs	r5, r3
 417 0054 9543     		bics	r5, r2
 418 0056 E02D     		cmp	r5, #224
 419 0058 1DD1     		bne	.L29
ARM GAS  C:\Users\haske\AppData\Local\Temp\ccg6iOQH.s 			page 23


 624:..\..\..\arduinoLCD\test\Pain Drain\libraries\lvgl\src\misc/lv_txt.c ****             result = (uint32_t)(txt[*i] & 0x0F) << 12;
 420              		.loc 1 624 0
 421 005a 1B07     		lsls	r3, r3, #28
 422 005c 1B0C     		lsrs	r3, r3, #16
 423              	.LVL46:
 625:..\..\..\arduinoLCD\test\Pain Drain\libraries\lvgl\src\misc/lv_txt.c ****             (*i)++;
 424              		.loc 1 625 0
 425 005e 0134     		adds	r4, r4, #1
 426 0060 0C60     		str	r4, [r1]
 626:..\..\..\arduinoLCD\test\Pain Drain\libraries\lvgl\src\misc/lv_txt.c **** 
 627:..\..\..\arduinoLCD\test\Pain Drain\libraries\lvgl\src\misc/lv_txt.c ****             if(LV_IS_INVALID_UTF8_CODE(txt[*i])) return 0;
 427              		.loc 1 627 0
 428 0062 025D     		ldrb	r2, [r0, r4]
 429 0064 3F25     		movs	r5, #63
 430 0066 1600     		movs	r6, r2
 431 0068 AE43     		bics	r6, r5
 432 006a 802E     		cmp	r6, #128
 433 006c 4BD1     		bne	.L33
 628:..\..\..\arduinoLCD\test\Pain Drain\libraries\lvgl\src\misc/lv_txt.c ****             result += (uint32_t)(txt[*i] & 0x3F) << 6;
 434              		.loc 1 628 0
 435 006e 9201     		lsls	r2, r2, #6
 436 0070 FC25     		movs	r5, #252
 437 0072 2D01     		lsls	r5, r5, #4
 438 0074 2A40     		ands	r2, r5
 439 0076 9B18     		adds	r3, r3, r2
 440              	.LVL47:
 629:..\..\..\arduinoLCD\test\Pain Drain\libraries\lvgl\src\misc/lv_txt.c ****             (*i)++;
 441              		.loc 1 629 0
 442 0078 0134     		adds	r4, r4, #1
 443 007a 0C60     		str	r4, [r1]
 630:..\..\..\arduinoLCD\test\Pain Drain\libraries\lvgl\src\misc/lv_txt.c **** 
 631:..\..\..\arduinoLCD\test\Pain Drain\libraries\lvgl\src\misc/lv_txt.c ****             if(LV_IS_INVALID_UTF8_CODE(txt[*i])) return 0;
 444              		.loc 1 631 0
 445 007c 025D     		ldrb	r2, [r0, r4]
 446 007e 3F20     		movs	r0, #63
 447              	.LVL48:
 448 0080 1500     		movs	r5, r2
 449 0082 8543     		bics	r5, r0
 450 0084 2800     		movs	r0, r5
 451 0086 802D     		cmp	r5, #128
 452 0088 3FD1     		bne	.L34
 632:..\..\..\arduinoLCD\test\Pain Drain\libraries\lvgl\src\misc/lv_txt.c ****             result += (txt[*i] & 0x3F);
 453              		.loc 1 632 0
 454 008a 4138     		subs	r0, r0, #65
 455 008c 0240     		ands	r2, r0
 456              	.LVL49:
 633:..\..\..\arduinoLCD\test\Pain Drain\libraries\lvgl\src\misc/lv_txt.c ****             (*i)++;
 457              		.loc 1 633 0
 458 008e 0134     		adds	r4, r4, #1
 459 0090 0C60     		str	r4, [r1]
 632:..\..\..\arduinoLCD\test\Pain Drain\libraries\lvgl\src\misc/lv_txt.c ****             result += (txt[*i] & 0x3F);
 460              		.loc 1 632 0
 461 0092 D018     		adds	r0, r2, r3
 462              	.LVL50:
 463 0094 40E0     		b	.L27
 464              	.LVL51:
 465              	.L29:
ARM GAS  C:\Users\haske\AppData\Local\Temp\ccg6iOQH.s 			page 24


 634:..\..\..\arduinoLCD\test\Pain Drain\libraries\lvgl\src\misc/lv_txt.c ****         }
 635:..\..\..\arduinoLCD\test\Pain Drain\libraries\lvgl\src\misc/lv_txt.c ****         /*4 bytes UTF-8 code*/
 636:..\..\..\arduinoLCD\test\Pain Drain\libraries\lvgl\src\misc/lv_txt.c ****         else if(LV_IS_4BYTES_UTF8_CODE(txt[*i])) {
 466              		.loc 1 636 0
 467 0096 0722     		movs	r2, #7
 468 0098 1D00     		movs	r5, r3
 469 009a 9543     		bics	r5, r2
 470 009c F02D     		cmp	r5, #240
 471 009e 2CD1     		bne	.L30
 637:..\..\..\arduinoLCD\test\Pain Drain\libraries\lvgl\src\misc/lv_txt.c ****             result = (uint32_t)(txt[*i] & 0x07) << 18;
 472              		.loc 1 637 0
 473 00a0 9B04     		lsls	r3, r3, #18
 474 00a2 E022     		movs	r2, #224
 475 00a4 5203     		lsls	r2, r2, #13
 476 00a6 1340     		ands	r3, r2
 477              	.LVL52:
 638:..\..\..\arduinoLCD\test\Pain Drain\libraries\lvgl\src\misc/lv_txt.c ****             (*i)++;
 478              		.loc 1 638 0
 479 00a8 0134     		adds	r4, r4, #1
 480 00aa 0C60     		str	r4, [r1]
 639:..\..\..\arduinoLCD\test\Pain Drain\libraries\lvgl\src\misc/lv_txt.c **** 
 640:..\..\..\arduinoLCD\test\Pain Drain\libraries\lvgl\src\misc/lv_txt.c ****             if(LV_IS_INVALID_UTF8_CODE(txt[*i])) return 0;
 481              		.loc 1 640 0
 482 00ac 025D     		ldrb	r2, [r0, r4]
 483 00ae 3F25     		movs	r5, #63
 484 00b0 1600     		movs	r6, r2
 485 00b2 AE43     		bics	r6, r5
 486 00b4 802E     		cmp	r6, #128
 487 00b6 2AD1     		bne	.L35
 641:..\..\..\arduinoLCD\test\Pain Drain\libraries\lvgl\src\misc/lv_txt.c ****             result += (uint32_t)(txt[*i] & 0x3F) << 12;
 488              		.loc 1 641 0
 489 00b8 1203     		lsls	r2, r2, #12
 490 00ba FC25     		movs	r5, #252
 491 00bc AD02     		lsls	r5, r5, #10
 492 00be 2A40     		ands	r2, r5
 493 00c0 9B18     		adds	r3, r3, r2
 494              	.LVL53:
 642:..\..\..\arduinoLCD\test\Pain Drain\libraries\lvgl\src\misc/lv_txt.c ****             (*i)++;
 495              		.loc 1 642 0
 496 00c2 651C     		adds	r5, r4, #1
 497 00c4 0D60     		str	r5, [r1]
 643:..\..\..\arduinoLCD\test\Pain Drain\libraries\lvgl\src\misc/lv_txt.c **** 
 644:..\..\..\arduinoLCD\test\Pain Drain\libraries\lvgl\src\misc/lv_txt.c ****             if(LV_IS_INVALID_UTF8_CODE(txt[*i])) return 0;
 498              		.loc 1 644 0
 499 00c6 425D     		ldrb	r2, [r0, r5]
 500 00c8 3F24     		movs	r4, #63
 501 00ca 1600     		movs	r6, r2
 502 00cc A643     		bics	r6, r4
 503 00ce 802E     		cmp	r6, #128
 504 00d0 1FD1     		bne	.L36
 645:..\..\..\arduinoLCD\test\Pain Drain\libraries\lvgl\src\misc/lv_txt.c ****             result += (uint32_t)(txt[*i] & 0x3F) << 6;
 505              		.loc 1 645 0
 506 00d2 9201     		lsls	r2, r2, #6
 507 00d4 FC24     		movs	r4, #252
 508 00d6 2401     		lsls	r4, r4, #4
 509 00d8 2240     		ands	r2, r4
 510 00da 9A18     		adds	r2, r3, r2
ARM GAS  C:\Users\haske\AppData\Local\Temp\ccg6iOQH.s 			page 25


 511              	.LVL54:
 646:..\..\..\arduinoLCD\test\Pain Drain\libraries\lvgl\src\misc/lv_txt.c ****             (*i)++;
 512              		.loc 1 646 0
 513 00dc 6C1C     		adds	r4, r5, #1
 514 00de 0C60     		str	r4, [r1]
 647:..\..\..\arduinoLCD\test\Pain Drain\libraries\lvgl\src\misc/lv_txt.c **** 
 648:..\..\..\arduinoLCD\test\Pain Drain\libraries\lvgl\src\misc/lv_txt.c ****             if(LV_IS_INVALID_UTF8_CODE(txt[*i])) return 0;
 515              		.loc 1 648 0
 516 00e0 035D     		ldrb	r3, [r0, r4]
 517 00e2 3F20     		movs	r0, #63
 518              	.LVL55:
 519 00e4 1D00     		movs	r5, r3
 520 00e6 8543     		bics	r5, r0
 521 00e8 2800     		movs	r0, r5
 522 00ea 802D     		cmp	r5, #128
 523 00ec 13D1     		bne	.L37
 649:..\..\..\arduinoLCD\test\Pain Drain\libraries\lvgl\src\misc/lv_txt.c ****             result += txt[*i] & 0x3F;
 524              		.loc 1 649 0
 525 00ee 4138     		subs	r0, r0, #65
 526 00f0 0340     		ands	r3, r0
 527              	.LVL56:
 650:..\..\..\arduinoLCD\test\Pain Drain\libraries\lvgl\src\misc/lv_txt.c ****             (*i)++;
 528              		.loc 1 650 0
 529 00f2 0134     		adds	r4, r4, #1
 530 00f4 0C60     		str	r4, [r1]
 649:..\..\..\arduinoLCD\test\Pain Drain\libraries\lvgl\src\misc/lv_txt.c ****             result += txt[*i] & 0x3F;
 531              		.loc 1 649 0
 532 00f6 9818     		adds	r0, r3, r2
 533              	.LVL57:
 534 00f8 0EE0     		b	.L27
 535              	.LVL58:
 536              	.L30:
 651:..\..\..\arduinoLCD\test\Pain Drain\libraries\lvgl\src\misc/lv_txt.c ****         }
 652:..\..\..\arduinoLCD\test\Pain Drain\libraries\lvgl\src\misc/lv_txt.c ****         else {
 653:..\..\..\arduinoLCD\test\Pain Drain\libraries\lvgl\src\misc/lv_txt.c ****             (*i)++; /*Not UTF-8 char. Go the next.*/
 537              		.loc 1 653 0
 538 00fa 0134     		adds	r4, r4, #1
 539 00fc 0C60     		str	r4, [r1]
 601:..\..\..\arduinoLCD\test\Pain Drain\libraries\lvgl\src\misc/lv_txt.c **** 
 540              		.loc 1 601 0
 541 00fe 0020     		movs	r0, #0
 542              	.LVL59:
 543 0100 0AE0     		b	.L27
 544              	.LVL60:
 545              	.L32:
 618:..\..\..\arduinoLCD\test\Pain Drain\libraries\lvgl\src\misc/lv_txt.c ****             result += (txt[*i] & 0x3F);
 546              		.loc 1 618 0
 547 0102 0020     		movs	r0, #0
 548 0104 08E0     		b	.L27
 549              	.LVL61:
 550              	.L33:
 627:..\..\..\arduinoLCD\test\Pain Drain\libraries\lvgl\src\misc/lv_txt.c ****             result += (uint32_t)(txt[*i] & 0x3F) << 6;
 551              		.loc 1 627 0
 552 0106 0020     		movs	r0, #0
 553              	.LVL62:
 554 0108 06E0     		b	.L27
 555              	.L34:
ARM GAS  C:\Users\haske\AppData\Local\Temp\ccg6iOQH.s 			page 26


 631:..\..\..\arduinoLCD\test\Pain Drain\libraries\lvgl\src\misc/lv_txt.c ****             result += (txt[*i] & 0x3F);
 556              		.loc 1 631 0
 557 010a 0020     		movs	r0, #0
 558 010c 04E0     		b	.L27
 559              	.LVL63:
 560              	.L35:
 640:..\..\..\arduinoLCD\test\Pain Drain\libraries\lvgl\src\misc/lv_txt.c ****             result += (uint32_t)(txt[*i] & 0x3F) << 12;
 561              		.loc 1 640 0
 562 010e 0020     		movs	r0, #0
 563              	.LVL64:
 564 0110 02E0     		b	.L27
 565              	.LVL65:
 566              	.L36:
 644:..\..\..\arduinoLCD\test\Pain Drain\libraries\lvgl\src\misc/lv_txt.c ****             result += (uint32_t)(txt[*i] & 0x3F) << 6;
 567              		.loc 1 644 0
 568 0112 0020     		movs	r0, #0
 569              	.LVL66:
 570 0114 00E0     		b	.L27
 571              	.LVL67:
 572              	.L37:
 648:..\..\..\arduinoLCD\test\Pain Drain\libraries\lvgl\src\misc/lv_txt.c ****             result += txt[*i] & 0x3F;
 573              		.loc 1 648 0
 574 0116 0020     		movs	r0, #0
 575              	.LVL68:
 576              	.L27:
 654:..\..\..\arduinoLCD\test\Pain Drain\libraries\lvgl\src\misc/lv_txt.c ****         }
 655:..\..\..\arduinoLCD\test\Pain Drain\libraries\lvgl\src\misc/lv_txt.c ****     }
 656:..\..\..\arduinoLCD\test\Pain Drain\libraries\lvgl\src\misc/lv_txt.c ****     return result;
 657:..\..\..\arduinoLCD\test\Pain Drain\libraries\lvgl\src\misc/lv_txt.c **** }
 577              		.loc 1 657 0
 578 0118 02B0     		add	sp, sp, #8
 579              		@ sp needed
 580 011a 70BD     		pop	{r4, r5, r6, pc}
 581              		.cfi_endproc
 582              	.LFE67:
 583              		.size	lv_txt_utf8_next, .-lv_txt_utf8_next
 584              		.section	.text.lv_txt_utf8_prev,"ax",%progbits
 585              		.align	2
 586              		.code	16
 587              		.thumb_func
 588              		.type	lv_txt_utf8_prev, %function
 589              	lv_txt_utf8_prev:
 590              	.LFB68:
 658:..\..\..\arduinoLCD\test\Pain Drain\libraries\lvgl\src\misc/lv_txt.c **** 
 659:..\..\..\arduinoLCD\test\Pain Drain\libraries\lvgl\src\misc/lv_txt.c **** /**
 660:..\..\..\arduinoLCD\test\Pain Drain\libraries\lvgl\src\misc/lv_txt.c ****  * Get previous UTF-8 character form a string.
 661:..\..\..\arduinoLCD\test\Pain Drain\libraries\lvgl\src\misc/lv_txt.c ****  * @param txt pointer to '\0' terminated string
 662:..\..\..\arduinoLCD\test\Pain Drain\libraries\lvgl\src\misc/lv_txt.c ****  * @param i start byte index in 'txt' where to start. After the call it will point to the previous
 663:..\..\..\arduinoLCD\test\Pain Drain\libraries\lvgl\src\misc/lv_txt.c ****  * UTF-8 char in 'txt'.
 664:..\..\..\arduinoLCD\test\Pain Drain\libraries\lvgl\src\misc/lv_txt.c ****  * @return the decoded Unicode character or 0 on invalid UTF-8 code
 665:..\..\..\arduinoLCD\test\Pain Drain\libraries\lvgl\src\misc/lv_txt.c ****  */
 666:..\..\..\arduinoLCD\test\Pain Drain\libraries\lvgl\src\misc/lv_txt.c **** static uint32_t lv_txt_utf8_prev(const char * txt, uint32_t * i)
 667:..\..\..\arduinoLCD\test\Pain Drain\libraries\lvgl\src\misc/lv_txt.c **** {
 591              		.loc 1 667 0
 592              		.cfi_startproc
 593              		@ args = 0, pretend = 0, frame = 8
 594              		@ frame_needed = 0, uses_anonymous_args = 0
ARM GAS  C:\Users\haske\AppData\Local\Temp\ccg6iOQH.s 			page 27


 595              	.LVL69:
 596 0000 70B5     		push	{r4, r5, r6, lr}
 597              		.cfi_def_cfa_offset 16
 598              		.cfi_offset 4, -16
 599              		.cfi_offset 5, -12
 600              		.cfi_offset 6, -8
 601              		.cfi_offset 14, -4
 602 0002 82B0     		sub	sp, sp, #8
 603              		.cfi_def_cfa_offset 24
 604 0004 0600     		movs	r6, r0
 605 0006 0D00     		movs	r5, r1
 606              	.LVL70:
 668:..\..\..\arduinoLCD\test\Pain Drain\libraries\lvgl\src\misc/lv_txt.c ****     uint8_t c_size;
 669:..\..\..\arduinoLCD\test\Pain Drain\libraries\lvgl\src\misc/lv_txt.c ****     uint8_t cnt = 0;
 670:..\..\..\arduinoLCD\test\Pain Drain\libraries\lvgl\src\misc/lv_txt.c **** 
 671:..\..\..\arduinoLCD\test\Pain Drain\libraries\lvgl\src\misc/lv_txt.c ****     /*Try to find a !0 long UTF-8 char by stepping one character back*/
 672:..\..\..\arduinoLCD\test\Pain Drain\libraries\lvgl\src\misc/lv_txt.c ****     (*i)--;
 607              		.loc 1 672 0
 608 0008 0B68     		ldr	r3, [r1]
 609 000a 013B     		subs	r3, r3, #1
 610 000c 0B60     		str	r3, [r1]
 669:..\..\..\arduinoLCD\test\Pain Drain\libraries\lvgl\src\misc/lv_txt.c **** 
 611              		.loc 1 669 0
 612 000e 0024     		movs	r4, #0
 613              	.LVL71:
 614              	.L41:
 673:..\..\..\arduinoLCD\test\Pain Drain\libraries\lvgl\src\misc/lv_txt.c ****     do {
 674:..\..\..\arduinoLCD\test\Pain Drain\libraries\lvgl\src\misc/lv_txt.c ****         if(cnt >= 4) return 0; /*No UTF-8 char found before the initial*/
 615              		.loc 1 674 0
 616 0010 032C     		cmp	r4, #3
 617 0012 17D8     		bhi	.L42
 675:..\..\..\arduinoLCD\test\Pain Drain\libraries\lvgl\src\misc/lv_txt.c **** 
 676:..\..\..\arduinoLCD\test\Pain Drain\libraries\lvgl\src\misc/lv_txt.c ****         c_size = _lv_txt_encoded_size(&txt[*i]);
 618              		.loc 1 676 0
 619 0014 0D4B     		ldr	r3, .L43
 620 0016 1B68     		ldr	r3, [r3]
 621 0018 2A68     		ldr	r2, [r5]
 622 001a B018     		adds	r0, r6, r2
 623 001c 9847     		blx	r3
 624              	.LVL72:
 625 001e 031E     		subs	r3, r0, #0
 626              	.LVL73:
 677:..\..\..\arduinoLCD\test\Pain Drain\libraries\lvgl\src\misc/lv_txt.c ****         if(c_size == 0) {
 627              		.loc 1 677 0
 628 0020 04D1     		bne	.L40
 678:..\..\..\arduinoLCD\test\Pain Drain\libraries\lvgl\src\misc/lv_txt.c ****             if(*i != 0)
 629              		.loc 1 678 0
 630 0022 2868     		ldr	r0, [r5]
 631              	.LVL74:
 632 0024 0028     		cmp	r0, #0
 633 0026 0ED0     		beq	.L39
 679:..\..\..\arduinoLCD\test\Pain Drain\libraries\lvgl\src\misc/lv_txt.c ****                 (*i)--;
 634              		.loc 1 679 0
 635 0028 0138     		subs	r0, r0, #1
 636 002a 2860     		str	r0, [r5]
 637              	.L40:
 680:..\..\..\arduinoLCD\test\Pain Drain\libraries\lvgl\src\misc/lv_txt.c ****             else
ARM GAS  C:\Users\haske\AppData\Local\Temp\ccg6iOQH.s 			page 28


 681:..\..\..\arduinoLCD\test\Pain Drain\libraries\lvgl\src\misc/lv_txt.c ****                 return 0;
 682:..\..\..\arduinoLCD\test\Pain Drain\libraries\lvgl\src\misc/lv_txt.c ****         }
 683:..\..\..\arduinoLCD\test\Pain Drain\libraries\lvgl\src\misc/lv_txt.c ****         cnt++;
 638              		.loc 1 683 0
 639 002c 0134     		adds	r4, r4, #1
 640              	.LVL75:
 641 002e E4B2     		uxtb	r4, r4
 642              	.LVL76:
 684:..\..\..\arduinoLCD\test\Pain Drain\libraries\lvgl\src\misc/lv_txt.c ****     } while(c_size == 0);
 643              		.loc 1 684 0
 644 0030 002B     		cmp	r3, #0
 645 0032 EDD0     		beq	.L41
 685:..\..\..\arduinoLCD\test\Pain Drain\libraries\lvgl\src\misc/lv_txt.c **** 
 686:..\..\..\arduinoLCD\test\Pain Drain\libraries\lvgl\src\misc/lv_txt.c ****     uint32_t i_tmp  = *i;
 646              		.loc 1 686 0
 647 0034 2B68     		ldr	r3, [r5]
 648              	.LVL77:
 649 0036 0193     		str	r3, [sp, #4]
 687:..\..\..\arduinoLCD\test\Pain Drain\libraries\lvgl\src\misc/lv_txt.c ****     uint32_t letter = _lv_txt_encoded_next(txt, &i_tmp); /*Character found, get it*/
 650              		.loc 1 687 0
 651 0038 044B     		ldr	r3, .L43
 652 003a 5B68     		ldr	r3, [r3, #4]
 653 003c 01A9     		add	r1, sp, #4
 654 003e 3000     		movs	r0, r6
 655 0040 9847     		blx	r3
 656              	.LVL78:
 688:..\..\..\arduinoLCD\test\Pain Drain\libraries\lvgl\src\misc/lv_txt.c **** 
 689:..\..\..\arduinoLCD\test\Pain Drain\libraries\lvgl\src\misc/lv_txt.c ****     return letter;
 657              		.loc 1 689 0
 658 0042 00E0     		b	.L39
 659              	.L42:
 674:..\..\..\arduinoLCD\test\Pain Drain\libraries\lvgl\src\misc/lv_txt.c **** 
 660              		.loc 1 674 0
 661 0044 0020     		movs	r0, #0
 662              	.L39:
 690:..\..\..\arduinoLCD\test\Pain Drain\libraries\lvgl\src\misc/lv_txt.c **** }
 663              		.loc 1 690 0
 664 0046 02B0     		add	sp, sp, #8
 665              		@ sp needed
 666              	.LVL79:
 667              	.LVL80:
 668              	.LVL81:
 669 0048 70BD     		pop	{r4, r5, r6, pc}
 670              	.L44:
 671 004a C046     		.align	2
 672              	.L43:
 673 004c 00000000 		.word	.LANCHOR0
 674              		.cfi_endproc
 675              	.LFE68:
 676              		.size	lv_txt_utf8_prev, .-lv_txt_utf8_prev
 677              		.section	.text.lv_txt_utf8_get_byte_id,"ax",%progbits
 678              		.align	2
 679              		.code	16
 680              		.thumb_func
 681              		.type	lv_txt_utf8_get_byte_id, %function
 682              	lv_txt_utf8_get_byte_id:
 683              	.LFB69:
ARM GAS  C:\Users\haske\AppData\Local\Temp\ccg6iOQH.s 			page 29


 691:..\..\..\arduinoLCD\test\Pain Drain\libraries\lvgl\src\misc/lv_txt.c **** 
 692:..\..\..\arduinoLCD\test\Pain Drain\libraries\lvgl\src\misc/lv_txt.c **** /**
 693:..\..\..\arduinoLCD\test\Pain Drain\libraries\lvgl\src\misc/lv_txt.c ****  * Convert a character index (in an UTF-8 text) to byte index.
 694:..\..\..\arduinoLCD\test\Pain Drain\libraries\lvgl\src\misc/lv_txt.c ****  * E.g. in "ART" index of 'R' is 2th char but start at byte 3 because '' is 2 bytes long
 695:..\..\..\arduinoLCD\test\Pain Drain\libraries\lvgl\src\misc/lv_txt.c ****  * @param txt a '\0' terminated UTF-8 string
 696:..\..\..\arduinoLCD\test\Pain Drain\libraries\lvgl\src\misc/lv_txt.c ****  * @param utf8_id character index
 697:..\..\..\arduinoLCD\test\Pain Drain\libraries\lvgl\src\misc/lv_txt.c ****  * @return byte index of the 'utf8_id'th letter
 698:..\..\..\arduinoLCD\test\Pain Drain\libraries\lvgl\src\misc/lv_txt.c ****  */
 699:..\..\..\arduinoLCD\test\Pain Drain\libraries\lvgl\src\misc/lv_txt.c **** static uint32_t lv_txt_utf8_get_byte_id(const char * txt, uint32_t utf8_id)
 700:..\..\..\arduinoLCD\test\Pain Drain\libraries\lvgl\src\misc/lv_txt.c **** {
 684              		.loc 1 700 0
 685              		.cfi_startproc
 686              		@ args = 0, pretend = 0, frame = 0
 687              		@ frame_needed = 0, uses_anonymous_args = 0
 688              	.LVL82:
 689 0000 F8B5     		push	{r3, r4, r5, r6, r7, lr}
 690              		.cfi_def_cfa_offset 24
 691              		.cfi_offset 3, -24
 692              		.cfi_offset 4, -20
 693              		.cfi_offset 5, -16
 694              		.cfi_offset 6, -12
 695              		.cfi_offset 7, -8
 696              		.cfi_offset 14, -4
 697 0002 0700     		movs	r7, r0
 698 0004 0E00     		movs	r6, r1
 699              	.LVL83:
 701:..\..\..\arduinoLCD\test\Pain Drain\libraries\lvgl\src\misc/lv_txt.c ****     uint32_t i;
 702:..\..\..\arduinoLCD\test\Pain Drain\libraries\lvgl\src\misc/lv_txt.c ****     uint32_t byte_cnt = 0;
 700              		.loc 1 702 0
 701 0006 0024     		movs	r4, #0
 703:..\..\..\arduinoLCD\test\Pain Drain\libraries\lvgl\src\misc/lv_txt.c ****     for(i = 0; i < utf8_id && txt[byte_cnt] != '\0'; i++) {
 702              		.loc 1 703 0
 703 0008 0025     		movs	r5, #0
 704 000a 07E0     		b	.L46
 705              	.LVL84:
 706              	.L49:
 707              	.LBB18:
 704:..\..\..\arduinoLCD\test\Pain Drain\libraries\lvgl\src\misc/lv_txt.c ****         uint8_t c_size = _lv_txt_encoded_size(&txt[byte_cnt]);
 708              		.loc 1 704 0
 709 000c 074B     		ldr	r3, .L51
 710 000e 1B68     		ldr	r3, [r3]
 711 0010 9847     		blx	r3
 712              	.LVL85:
 705:..\..\..\arduinoLCD\test\Pain Drain\libraries\lvgl\src\misc/lv_txt.c ****         /* If the char was invalid tell it's 1 byte long*/
 706:..\..\..\arduinoLCD\test\Pain Drain\libraries\lvgl\src\misc/lv_txt.c ****         byte_cnt += c_size ? c_size : 1;
 713              		.loc 1 706 0
 714 0012 0028     		cmp	r0, #0
 715 0014 00D1     		bne	.L47
 716 0016 0120     		movs	r0, #1
 717              	.LVL86:
 718              	.L47:
 719              		.loc 1 706 0 is_stmt 0 discriminator 4
 720 0018 2418     		adds	r4, r4, r0
 721              	.LVL87:
 722              	.LBE18:
 703:..\..\..\arduinoLCD\test\Pain Drain\libraries\lvgl\src\misc/lv_txt.c ****         uint8_t c_size = _lv_txt_encoded_size(&txt[byte_cnt]);
 723              		.loc 1 703 0 is_stmt 1 discriminator 4
ARM GAS  C:\Users\haske\AppData\Local\Temp\ccg6iOQH.s 			page 30


 724 001a 0135     		adds	r5, r5, #1
 725              	.LVL88:
 726              	.L46:
 703:..\..\..\arduinoLCD\test\Pain Drain\libraries\lvgl\src\misc/lv_txt.c ****         uint8_t c_size = _lv_txt_encoded_size(&txt[byte_cnt]);
 727              		.loc 1 703 0 is_stmt 0 discriminator 2
 728 001c B542     		cmp	r5, r6
 729 001e 03D2     		bcs	.L48
 703:..\..\..\arduinoLCD\test\Pain Drain\libraries\lvgl\src\misc/lv_txt.c ****         uint8_t c_size = _lv_txt_encoded_size(&txt[byte_cnt]);
 730              		.loc 1 703 0 discriminator 3
 731 0020 3819     		adds	r0, r7, r4
 732 0022 0378     		ldrb	r3, [r0]
 733 0024 002B     		cmp	r3, #0
 734 0026 F1D1     		bne	.L49
 735              	.L48:
 707:..\..\..\arduinoLCD\test\Pain Drain\libraries\lvgl\src\misc/lv_txt.c ****     }
 708:..\..\..\arduinoLCD\test\Pain Drain\libraries\lvgl\src\misc/lv_txt.c **** 
 709:..\..\..\arduinoLCD\test\Pain Drain\libraries\lvgl\src\misc/lv_txt.c ****     return byte_cnt;
 710:..\..\..\arduinoLCD\test\Pain Drain\libraries\lvgl\src\misc/lv_txt.c **** }
 736              		.loc 1 710 0 is_stmt 1
 737 0028 2000     		movs	r0, r4
 738              		@ sp needed
 739              	.LVL89:
 740              	.LVL90:
 741              	.LVL91:
 742              	.LVL92:
 743 002a F8BD     		pop	{r3, r4, r5, r6, r7, pc}
 744              	.L52:
 745              		.align	2
 746              	.L51:
 747 002c 00000000 		.word	.LANCHOR0
 748              		.cfi_endproc
 749              	.LFE69:
 750              		.size	lv_txt_utf8_get_byte_id, .-lv_txt_utf8_get_byte_id
 751              		.section	.text.lv_txt_utf8_get_char_id,"ax",%progbits
 752              		.align	2
 753              		.code	16
 754              		.thumb_func
 755              		.type	lv_txt_utf8_get_char_id, %function
 756              	lv_txt_utf8_get_char_id:
 757              	.LFB70:
 711:..\..\..\arduinoLCD\test\Pain Drain\libraries\lvgl\src\misc/lv_txt.c **** 
 712:..\..\..\arduinoLCD\test\Pain Drain\libraries\lvgl\src\misc/lv_txt.c **** /**
 713:..\..\..\arduinoLCD\test\Pain Drain\libraries\lvgl\src\misc/lv_txt.c ****  * Convert a byte index (in an UTF-8 text) to character index.
 714:..\..\..\arduinoLCD\test\Pain Drain\libraries\lvgl\src\misc/lv_txt.c ****  * E.g. in "ART" index of 'R' is 2th char but start at byte 3 because '' is 2 bytes long
 715:..\..\..\arduinoLCD\test\Pain Drain\libraries\lvgl\src\misc/lv_txt.c ****  * @param txt a '\0' terminated UTF-8 string
 716:..\..\..\arduinoLCD\test\Pain Drain\libraries\lvgl\src\misc/lv_txt.c ****  * @param byte_id byte index
 717:..\..\..\arduinoLCD\test\Pain Drain\libraries\lvgl\src\misc/lv_txt.c ****  * @return character index of the letter at 'byte_id'th position
 718:..\..\..\arduinoLCD\test\Pain Drain\libraries\lvgl\src\misc/lv_txt.c ****  */
 719:..\..\..\arduinoLCD\test\Pain Drain\libraries\lvgl\src\misc/lv_txt.c **** static uint32_t lv_txt_utf8_get_char_id(const char * txt, uint32_t byte_id)
 720:..\..\..\arduinoLCD\test\Pain Drain\libraries\lvgl\src\misc/lv_txt.c **** {
 758              		.loc 1 720 0
 759              		.cfi_startproc
 760              		@ args = 0, pretend = 0, frame = 8
 761              		@ frame_needed = 0, uses_anonymous_args = 0
 762              	.LVL93:
 763 0000 70B5     		push	{r4, r5, r6, lr}
 764              		.cfi_def_cfa_offset 16
ARM GAS  C:\Users\haske\AppData\Local\Temp\ccg6iOQH.s 			page 31


 765              		.cfi_offset 4, -16
 766              		.cfi_offset 5, -12
 767              		.cfi_offset 6, -8
 768              		.cfi_offset 14, -4
 769 0002 82B0     		sub	sp, sp, #8
 770              		.cfi_def_cfa_offset 24
 771 0004 0500     		movs	r5, r0
 772 0006 0E00     		movs	r6, r1
 721:..\..\..\arduinoLCD\test\Pain Drain\libraries\lvgl\src\misc/lv_txt.c ****     uint32_t i        = 0;
 773              		.loc 1 721 0
 774 0008 0023     		movs	r3, #0
 775 000a 0193     		str	r3, [sp, #4]
 776              	.LVL94:
 722:..\..\..\arduinoLCD\test\Pain Drain\libraries\lvgl\src\misc/lv_txt.c ****     uint32_t char_cnt = 0;
 777              		.loc 1 722 0
 778 000c 0024     		movs	r4, #0
 723:..\..\..\arduinoLCD\test\Pain Drain\libraries\lvgl\src\misc/lv_txt.c **** 
 724:..\..\..\arduinoLCD\test\Pain Drain\libraries\lvgl\src\misc/lv_txt.c ****     while(i < byte_id) {
 779              		.loc 1 724 0
 780 000e 05E0     		b	.L54
 781              	.LVL95:
 782              	.L55:
 725:..\..\..\arduinoLCD\test\Pain Drain\libraries\lvgl\src\misc/lv_txt.c ****         _lv_txt_encoded_next(txt, &i); /*'i' points to the next letter so use the prev. value*/
 783              		.loc 1 725 0
 784 0010 054B     		ldr	r3, .L56
 785 0012 5B68     		ldr	r3, [r3, #4]
 786 0014 01A9     		add	r1, sp, #4
 787 0016 2800     		movs	r0, r5
 788 0018 9847     		blx	r3
 789              	.LVL96:
 726:..\..\..\arduinoLCD\test\Pain Drain\libraries\lvgl\src\misc/lv_txt.c ****         char_cnt++;
 790              		.loc 1 726 0
 791 001a 0134     		adds	r4, r4, #1
 792              	.LVL97:
 793              	.L54:
 724:..\..\..\arduinoLCD\test\Pain Drain\libraries\lvgl\src\misc/lv_txt.c ****         _lv_txt_encoded_next(txt, &i); /*'i' points to the next letter so use the prev. value*/
 794              		.loc 1 724 0
 795 001c 019B     		ldr	r3, [sp, #4]
 796 001e B342     		cmp	r3, r6
 797 0020 F6D3     		bcc	.L55
 727:..\..\..\arduinoLCD\test\Pain Drain\libraries\lvgl\src\misc/lv_txt.c ****     }
 728:..\..\..\arduinoLCD\test\Pain Drain\libraries\lvgl\src\misc/lv_txt.c **** 
 729:..\..\..\arduinoLCD\test\Pain Drain\libraries\lvgl\src\misc/lv_txt.c ****     return char_cnt;
 730:..\..\..\arduinoLCD\test\Pain Drain\libraries\lvgl\src\misc/lv_txt.c **** }
 798              		.loc 1 730 0
 799 0022 2000     		movs	r0, r4
 800 0024 02B0     		add	sp, sp, #8
 801              		@ sp needed
 802              	.LVL98:
 803              	.LVL99:
 804              	.LVL100:
 805 0026 70BD     		pop	{r4, r5, r6, pc}
 806              	.L57:
 807              		.align	2
 808              	.L56:
 809 0028 00000000 		.word	.LANCHOR0
 810              		.cfi_endproc
ARM GAS  C:\Users\haske\AppData\Local\Temp\ccg6iOQH.s 			page 32


 811              	.LFE70:
 812              		.size	lv_txt_utf8_get_char_id, .-lv_txt_utf8_get_char_id
 813              		.section	.text.lv_txt_utf8_get_length,"ax",%progbits
 814              		.align	2
 815              		.code	16
 816              		.thumb_func
 817              		.type	lv_txt_utf8_get_length, %function
 818              	lv_txt_utf8_get_length:
 819              	.LFB71:
 731:..\..\..\arduinoLCD\test\Pain Drain\libraries\lvgl\src\misc/lv_txt.c **** 
 732:..\..\..\arduinoLCD\test\Pain Drain\libraries\lvgl\src\misc/lv_txt.c **** /**
 733:..\..\..\arduinoLCD\test\Pain Drain\libraries\lvgl\src\misc/lv_txt.c ****  * Get the number of characters (and NOT bytes) in a string. Decode it with UTF-8 if enabled.
 734:..\..\..\arduinoLCD\test\Pain Drain\libraries\lvgl\src\misc/lv_txt.c ****  * E.g.: "BC" is 3 characters (but 4 bytes)
 735:..\..\..\arduinoLCD\test\Pain Drain\libraries\lvgl\src\misc/lv_txt.c ****  * @param txt a '\0' terminated char string
 736:..\..\..\arduinoLCD\test\Pain Drain\libraries\lvgl\src\misc/lv_txt.c ****  * @return number of characters
 737:..\..\..\arduinoLCD\test\Pain Drain\libraries\lvgl\src\misc/lv_txt.c ****  */
 738:..\..\..\arduinoLCD\test\Pain Drain\libraries\lvgl\src\misc/lv_txt.c **** static uint32_t lv_txt_utf8_get_length(const char * txt)
 739:..\..\..\arduinoLCD\test\Pain Drain\libraries\lvgl\src\misc/lv_txt.c **** {
 820              		.loc 1 739 0
 821              		.cfi_startproc
 822              		@ args = 0, pretend = 0, frame = 8
 823              		@ frame_needed = 0, uses_anonymous_args = 0
 824              	.LVL101:
 825 0000 30B5     		push	{r4, r5, lr}
 826              		.cfi_def_cfa_offset 12
 827              		.cfi_offset 4, -12
 828              		.cfi_offset 5, -8
 829              		.cfi_offset 14, -4
 830 0002 83B0     		sub	sp, sp, #12
 831              		.cfi_def_cfa_offset 24
 832 0004 0500     		movs	r5, r0
 833              	.LVL102:
 740:..\..\..\arduinoLCD\test\Pain Drain\libraries\lvgl\src\misc/lv_txt.c ****     uint32_t len = 0;
 741:..\..\..\arduinoLCD\test\Pain Drain\libraries\lvgl\src\misc/lv_txt.c ****     uint32_t i   = 0;
 834              		.loc 1 741 0
 835 0006 0023     		movs	r3, #0
 836 0008 0193     		str	r3, [sp, #4]
 740:..\..\..\arduinoLCD\test\Pain Drain\libraries\lvgl\src\misc/lv_txt.c ****     uint32_t len = 0;
 837              		.loc 1 740 0
 838 000a 0024     		movs	r4, #0
 742:..\..\..\arduinoLCD\test\Pain Drain\libraries\lvgl\src\misc/lv_txt.c **** 
 743:..\..\..\arduinoLCD\test\Pain Drain\libraries\lvgl\src\misc/lv_txt.c ****     while(txt[i] != '\0') {
 839              		.loc 1 743 0
 840 000c 05E0     		b	.L59
 841              	.LVL103:
 842              	.L60:
 744:..\..\..\arduinoLCD\test\Pain Drain\libraries\lvgl\src\misc/lv_txt.c ****         _lv_txt_encoded_next(txt, &i);
 843              		.loc 1 744 0
 844 000e 064B     		ldr	r3, .L61
 845 0010 5B68     		ldr	r3, [r3, #4]
 846 0012 01A9     		add	r1, sp, #4
 847 0014 2800     		movs	r0, r5
 848 0016 9847     		blx	r3
 849              	.LVL104:
 745:..\..\..\arduinoLCD\test\Pain Drain\libraries\lvgl\src\misc/lv_txt.c ****         len++;
 850              		.loc 1 745 0
 851 0018 0134     		adds	r4, r4, #1
ARM GAS  C:\Users\haske\AppData\Local\Temp\ccg6iOQH.s 			page 33


 852              	.LVL105:
 853              	.L59:
 743:..\..\..\arduinoLCD\test\Pain Drain\libraries\lvgl\src\misc/lv_txt.c ****         _lv_txt_encoded_next(txt, &i);
 854              		.loc 1 743 0
 855 001a 019B     		ldr	r3, [sp, #4]
 856 001c EB5C     		ldrb	r3, [r5, r3]
 857 001e 002B     		cmp	r3, #0
 858 0020 F5D1     		bne	.L60
 746:..\..\..\arduinoLCD\test\Pain Drain\libraries\lvgl\src\misc/lv_txt.c ****     }
 747:..\..\..\arduinoLCD\test\Pain Drain\libraries\lvgl\src\misc/lv_txt.c **** 
 748:..\..\..\arduinoLCD\test\Pain Drain\libraries\lvgl\src\misc/lv_txt.c ****     return len;
 749:..\..\..\arduinoLCD\test\Pain Drain\libraries\lvgl\src\misc/lv_txt.c **** }
 859              		.loc 1 749 0
 860 0022 2000     		movs	r0, r4
 861 0024 03B0     		add	sp, sp, #12
 862              		@ sp needed
 863              	.LVL106:
 864              	.LVL107:
 865 0026 30BD     		pop	{r4, r5, pc}
 866              	.L62:
 867              		.align	2
 868              	.L61:
 869 0028 00000000 		.word	.LANCHOR0
 870              		.cfi_endproc
 871              	.LFE71:
 872              		.size	lv_txt_utf8_get_length, .-lv_txt_utf8_get_length
 873              		.section	.text._lv_txt_is_cmd,"ax",%progbits
 874              		.align	2
 875              		.global	_lv_txt_is_cmd
 876              		.code	16
 877              		.thumb_func
 878              		.type	_lv_txt_is_cmd, %function
 879              	_lv_txt_is_cmd:
 880              	.LFB59:
 383:..\..\..\arduinoLCD\test\Pain Drain\libraries\lvgl\src\misc/lv_txt.c ****     bool ret = false;
 881              		.loc 1 383 0
 882              		.cfi_startproc
 883              		@ args = 0, pretend = 0, frame = 0
 884              		@ frame_needed = 0, uses_anonymous_args = 0
 885              		@ link register save eliminated.
 886              	.LVL108:
 386:..\..\..\arduinoLCD\test\Pain Drain\libraries\lvgl\src\misc/lv_txt.c ****         if(*state == LV_TEXT_CMD_STATE_WAIT) { /*Start char*/
 887              		.loc 1 386 0
 888 0000 2329     		cmp	r1, #35
 889 0002 10D1     		bne	.L68
 387:..\..\..\arduinoLCD\test\Pain Drain\libraries\lvgl\src\misc/lv_txt.c ****             *state = LV_TEXT_CMD_STATE_PAR;
 890              		.loc 1 387 0
 891 0004 0378     		ldrb	r3, [r0]
 892 0006 002B     		cmp	r3, #0
 893 0008 02D1     		bne	.L65
 388:..\..\..\arduinoLCD\test\Pain Drain\libraries\lvgl\src\misc/lv_txt.c ****             ret    = true;
 894              		.loc 1 388 0
 895 000a 0133     		adds	r3, r3, #1
 896 000c 0370     		strb	r3, [r0]
 897              	.LVL109:
 898 000e 0DE0     		b	.L64
 899              	.LVL110:
ARM GAS  C:\Users\haske\AppData\Local\Temp\ccg6iOQH.s 			page 34


 900              	.L65:
 392:..\..\..\arduinoLCD\test\Pain Drain\libraries\lvgl\src\misc/lv_txt.c ****             *state = LV_TEXT_CMD_STATE_WAIT;
 901              		.loc 1 392 0
 902 0010 012B     		cmp	r3, #1
 903 0012 02D1     		bne	.L66
 393:..\..\..\arduinoLCD\test\Pain Drain\libraries\lvgl\src\misc/lv_txt.c ****         }
 904              		.loc 1 393 0
 905 0014 0023     		movs	r3, #0
 906 0016 0370     		strb	r3, [r0]
 907 0018 08E0     		b	.L64
 908              	.L66:
 396:..\..\..\arduinoLCD\test\Pain Drain\libraries\lvgl\src\misc/lv_txt.c ****             *state = LV_TEXT_CMD_STATE_WAIT;
 909              		.loc 1 396 0
 910 001a 022B     		cmp	r3, #2
 911 001c 05D1     		bne	.L69
 397:..\..\..\arduinoLCD\test\Pain Drain\libraries\lvgl\src\misc/lv_txt.c ****             ret    = true;
 912              		.loc 1 397 0
 913 001e 0023     		movs	r3, #0
 914 0020 0370     		strb	r3, [r0]
 915              	.LVL111:
 398:..\..\..\arduinoLCD\test\Pain Drain\libraries\lvgl\src\misc/lv_txt.c ****         }
 916              		.loc 1 398 0
 917 0022 0133     		adds	r3, r3, #1
 918 0024 02E0     		b	.L64
 919              	.LVL112:
 920              	.L68:
 384:..\..\..\arduinoLCD\test\Pain Drain\libraries\lvgl\src\misc/lv_txt.c **** 
 921              		.loc 1 384 0
 922 0026 0023     		movs	r3, #0
 923 0028 00E0     		b	.L64
 924              	.L69:
 925 002a 0023     		movs	r3, #0
 926              	.LVL113:
 927              	.L64:
 403:..\..\..\arduinoLCD\test\Pain Drain\libraries\lvgl\src\misc/lv_txt.c ****         if(c == ' ') {
 928              		.loc 1 403 0
 929 002c 0278     		ldrb	r2, [r0]
 930 002e 012A     		cmp	r2, #1
 931 0030 06D1     		bne	.L67
 404:..\..\..\arduinoLCD\test\Pain Drain\libraries\lvgl\src\misc/lv_txt.c ****             *state = LV_TEXT_CMD_STATE_IN; /*After the parameter the text is in the command*/
 932              		.loc 1 404 0
 933 0032 2029     		cmp	r1, #32
 934 0034 03D1     		bne	.L70
 405:..\..\..\arduinoLCD\test\Pain Drain\libraries\lvgl\src\misc/lv_txt.c ****         }
 935              		.loc 1 405 0
 936 0036 0223     		movs	r3, #2
 937              	.LVL114:
 938 0038 0370     		strb	r3, [r0]
 407:..\..\..\arduinoLCD\test\Pain Drain\libraries\lvgl\src\misc/lv_txt.c ****     }
 939              		.loc 1 407 0
 940 003a 013B     		subs	r3, r3, #1
 941 003c 00E0     		b	.L67
 942              	.LVL115:
 943              	.L70:
 944 003e 0123     		movs	r3, #1
 945              	.LVL116:
 946              	.L67:
ARM GAS  C:\Users\haske\AppData\Local\Temp\ccg6iOQH.s 			page 35


 411:..\..\..\arduinoLCD\test\Pain Drain\libraries\lvgl\src\misc/lv_txt.c **** 
 947              		.loc 1 411 0
 948 0040 1800     		movs	r0, r3
 949              	.LVL117:
 950              		@ sp needed
 951 0042 7047     		bx	lr
 952              		.cfi_endproc
 953              	.LFE59:
 954              		.size	_lv_txt_is_cmd, .-_lv_txt_is_cmd
 955              		.section	.text.lv_txt_get_next_word,"ax",%progbits
 956              		.align	2
 957              		.code	16
 958              		.thumb_func
 959              		.type	lv_txt_get_next_word, %function
 960              	lv_txt_get_next_word:
 961              	.LFB56:
 174:..\..\..\arduinoLCD\test\Pain Drain\libraries\lvgl\src\misc/lv_txt.c ****     if(txt == NULL || txt[0] == '\0') return 0;
 962              		.loc 1 174 0
 963              		.cfi_startproc
 964              		@ args = 16, pretend = 0, frame = 32
 965              		@ frame_needed = 0, uses_anonymous_args = 0
 966              	.LVL118:
 967 0000 F0B5     		push	{r4, r5, r6, r7, lr}
 968              		.cfi_def_cfa_offset 20
 969              		.cfi_offset 4, -20
 970              		.cfi_offset 5, -16
 971              		.cfi_offset 6, -12
 972              		.cfi_offset 7, -8
 973              		.cfi_offset 14, -4
 974 0002 5F46     		mov	r7, fp
 975 0004 5646     		mov	r6, r10
 976 0006 4D46     		mov	r5, r9
 977 0008 4446     		mov	r4, r8
 978 000a F0B4     		push	{r4, r5, r6, r7}
 979              		.cfi_def_cfa_offset 36
 980              		.cfi_offset 8, -36
 981              		.cfi_offset 9, -32
 982              		.cfi_offset 10, -28
 983              		.cfi_offset 11, -24
 984 000c 89B0     		sub	sp, sp, #36
 985              		.cfi_def_cfa_offset 72
 986 000e 0600     		movs	r6, r0
 987 0010 0391     		str	r1, [sp, #12]
 988 0012 9046     		mov	r8, r2
 989 0014 0493     		str	r3, [sp, #16]
 990 0016 12AB     		add	r3, sp, #72
 991              	.LVL119:
 992 0018 1B78     		ldrb	r3, [r3]
 993              	.LVL120:
 994 001a 9B46     		mov	fp, r3
 995 001c 139B     		ldr	r3, [sp, #76]
 996 001e 9946     		mov	r9, r3
 997 0020 15AB     		add	r3, sp, #84
 998              	.LVL121:
 999 0022 1B78     		ldrb	r3, [r3]
 1000              	.LVL122:
 1001 0024 0593     		str	r3, [sp, #20]
ARM GAS  C:\Users\haske\AppData\Local\Temp\ccg6iOQH.s 			page 36


 175:..\..\..\arduinoLCD\test\Pain Drain\libraries\lvgl\src\misc/lv_txt.c ****     if(font == NULL) return 0;
 1002              		.loc 1 175 0
 1003 0026 0028     		cmp	r0, #0
 1004 0028 00D1     		bne	.LCB1027
 1005 002a 98E0     		b	.L89	@long jump
 1006              	.LCB1027:
 175:..\..\..\arduinoLCD\test\Pain Drain\libraries\lvgl\src\misc/lv_txt.c ****     if(font == NULL) return 0;
 1007              		.loc 1 175 0 is_stmt 0 discriminator 2
 1008 002c 0378     		ldrb	r3, [r0]
 1009 002e 002B     		cmp	r3, #0
 1010 0030 00D1     		bne	.LCB1030
 1011 0032 96E0     		b	.L90	@long jump
 1012              	.LCB1030:
 176:..\..\..\arduinoLCD\test\Pain Drain\libraries\lvgl\src\misc/lv_txt.c **** 
 1013              		.loc 1 176 0 is_stmt 1
 1014 0034 0029     		cmp	r1, #0
 1015 0036 00D1     		bne	.LCB1032
 1016 0038 95E0     		b	.L91	@long jump
 1017              	.LCB1032:
 178:..\..\..\arduinoLCD\test\Pain Drain\libraries\lvgl\src\misc/lv_txt.c **** 
 1018              		.loc 1 178 0
 1019 003a 5B46     		mov	r3, fp
 1020 003c 9B07     		lsls	r3, r3, #30
 1021 003e 01D5     		bpl	.L73
 1022 0040 514B     		ldr	r3, .L100
 1023 0042 0493     		str	r3, [sp, #16]
 1024              	.L73:
 1025              	.LVL123:
 180:..\..\..\arduinoLCD\test\Pain Drain\libraries\lvgl\src\misc/lv_txt.c ****     uint32_t letter = 0;      /*Letter at i*/
 1026              		.loc 1 180 0
 1027 0044 0023     		movs	r3, #0
 1028 0046 0793     		str	r3, [sp, #28]
 1029 0048 0693     		str	r3, [sp, #24]
 1030              	.LVL124:
 189:..\..\..\arduinoLCD\test\Pain Drain\libraries\lvgl\src\misc/lv_txt.c ****     i_next_next = i_next;
 1031              		.loc 1 189 0
 1032 004a 504B     		ldr	r3, .L100+4
 1033 004c 5B68     		ldr	r3, [r3, #4]
 1034 004e 07A9     		add	r1, sp, #28
 1035              	.LVL125:
 1036 0050 3000     		movs	r0, r6
 1037              	.LVL126:
 1038 0052 9847     		blx	r3
 1039              	.LVL127:
 1040 0054 0400     		movs	r4, r0
 1041              	.LVL128:
 190:..\..\..\arduinoLCD\test\Pain Drain\libraries\lvgl\src\misc/lv_txt.c **** 
 1042              		.loc 1 190 0
 1043 0056 079B     		ldr	r3, [sp, #28]
 1044 0058 0693     		str	r3, [sp, #24]
 186:..\..\..\arduinoLCD\test\Pain Drain\libraries\lvgl\src\misc/lv_txt.c ****     uint32_t break_letter_count = 0; /*Number of characters up to the long word break point*/
 1045              		.loc 1 186 0
 1046 005a 0123     		movs	r3, #1
 1047 005c 5B42     		rsbs	r3, r3, #0
 1048 005e 9A46     		mov	r10, r3
 185:..\..\..\arduinoLCD\test\Pain Drain\libraries\lvgl\src\misc/lv_txt.c ****     uint32_t break_index = NO_BREAK_FOUND; /*only used for "long" words*/
 1049              		.loc 1 185 0
ARM GAS  C:\Users\haske\AppData\Local\Temp\ccg6iOQH.s 			page 37


 1050 0060 0023     		movs	r3, #0
 1051 0062 0193     		str	r3, [sp, #4]
 184:..\..\..\arduinoLCD\test\Pain Drain\libraries\lvgl\src\misc/lv_txt.c ****     uint32_t word_len = 0;   /*Number of characters in the transversed word*/
 1052              		.loc 1 184 0
 1053 0064 0025     		movs	r5, #0
 182:..\..\..\arduinoLCD\test\Pain Drain\libraries\lvgl\src\misc/lv_txt.c ****     lv_coord_t letter_w;
 1054              		.loc 1 182 0
 1055 0066 0093     		str	r3, [sp]
 180:..\..\..\arduinoLCD\test\Pain Drain\libraries\lvgl\src\misc/lv_txt.c ****     uint32_t letter = 0;      /*Letter at i*/
 1056              		.loc 1 180 0
 1057 0068 0027     		movs	r7, #0
 193:..\..\..\arduinoLCD\test\Pain Drain\libraries\lvgl\src\misc/lv_txt.c ****         letter_next = _lv_txt_encoded_next(txt, &i_next_next);
 1058              		.loc 1 193 0
 1059 006a 5DE0     		b	.L74
 1060              	.LVL129:
 1061              	.L86:
 194:..\..\..\arduinoLCD\test\Pain Drain\libraries\lvgl\src\misc/lv_txt.c ****         word_len++;
 1062              		.loc 1 194 0
 1063 006c 474B     		ldr	r3, .L100+4
 1064 006e 5B68     		ldr	r3, [r3, #4]
 1065 0070 06A9     		add	r1, sp, #24
 1066 0072 3000     		movs	r0, r6
 1067 0074 9847     		blx	r3
 1068              	.LVL130:
 1069 0076 0090     		str	r0, [sp]
 1070              	.LVL131:
 195:..\..\..\arduinoLCD\test\Pain Drain\libraries\lvgl\src\misc/lv_txt.c **** 
 1071              		.loc 1 195 0
 1072 0078 019B     		ldr	r3, [sp, #4]
 1073 007a 0133     		adds	r3, r3, #1
 1074 007c 0293     		str	r3, [sp, #8]
 1075              	.LVL132:
 198:..\..\..\arduinoLCD\test\Pain Drain\libraries\lvgl\src\misc/lv_txt.c ****             if(_lv_txt_is_cmd(cmd_state, letter) != false) {
 1076              		.loc 1 198 0
 1077 007e 5B46     		mov	r3, fp
 1078              	.LVL133:
 1079 0080 DB07     		lsls	r3, r3, #31
 1080 0082 09D5     		bpl	.L75
 199:..\..\..\arduinoLCD\test\Pain Drain\libraries\lvgl\src\misc/lv_txt.c ****                 i = i_next;
 1081              		.loc 1 199 0
 1082 0084 2100     		movs	r1, r4
 1083 0086 1498     		ldr	r0, [sp, #80]
 1084              	.LVL134:
 1085 0088 FFF7FEFF 		bl	_lv_txt_is_cmd
 1086              	.LVL135:
 1087 008c 0028     		cmp	r0, #0
 1088 008e 03D0     		beq	.L75
 200:..\..\..\arduinoLCD\test\Pain Drain\libraries\lvgl\src\misc/lv_txt.c ****                 i_next = i_next_next;
 1089              		.loc 1 200 0
 1090 0090 079F     		ldr	r7, [sp, #28]
 1091              	.LVL136:
 201:..\..\..\arduinoLCD\test\Pain Drain\libraries\lvgl\src\misc/lv_txt.c ****                 letter = letter_next;
 1092              		.loc 1 201 0
 1093 0092 069B     		ldr	r3, [sp, #24]
 1094 0094 0793     		str	r3, [sp, #28]
 1095              	.LVL137:
 203:..\..\..\arduinoLCD\test\Pain Drain\libraries\lvgl\src\misc/lv_txt.c ****             }
ARM GAS  C:\Users\haske\AppData\Local\Temp\ccg6iOQH.s 			page 38


 1096              		.loc 1 203 0
 1097 0096 44E0     		b	.L76
 1098              	.LVL138:
 1099              	.L75:
 207:..\..\..\arduinoLCD\test\Pain Drain\libraries\lvgl\src\misc/lv_txt.c ****         cur_w += letter_w;
 1100              		.loc 1 207 0
 1101 0098 009A     		ldr	r2, [sp]
 1102 009a 2100     		movs	r1, r4
 1103 009c 0398     		ldr	r0, [sp, #12]
 1104 009e FFF7FEFF 		bl	lv_font_get_glyph_width
 1105              	.LVL139:
 1106 00a2 03B2     		sxth	r3, r0
 1107              	.LVL140:
 208:..\..\..\arduinoLCD\test\Pain Drain\libraries\lvgl\src\misc/lv_txt.c **** 
 1108              		.loc 1 208 0
 1109 00a4 4019     		adds	r0, r0, r5
 1110 00a6 80B2     		uxth	r0, r0
 1111 00a8 05B2     		sxth	r5, r0
 1112              	.LVL141:
 210:..\..\..\arduinoLCD\test\Pain Drain\libraries\lvgl\src\misc/lv_txt.c ****             cur_w += letter_space;
 1113              		.loc 1 210 0
 1114 00aa 002B     		cmp	r3, #0
 1115 00ac 01DD     		ble	.L77
 211:..\..\..\arduinoLCD\test\Pain Drain\libraries\lvgl\src\misc/lv_txt.c ****         }
 1116              		.loc 1 211 0
 1117 00ae 4044     		add	r0, r0, r8
 1118 00b0 05B2     		sxth	r5, r0
 1119              	.LVL142:
 1120              	.L77:
 215:..\..\..\arduinoLCD\test\Pain Drain\libraries\lvgl\src\misc/lv_txt.c ****             break_index = i;
 1121              		.loc 1 215 0
 1122 00b2 5346     		mov	r3, r10
 1123              	.LVL143:
 1124 00b4 0133     		adds	r3, r3, #1
 1125 00b6 05D1     		bne	.L78
 215:..\..\..\arduinoLCD\test\Pain Drain\libraries\lvgl\src\misc/lv_txt.c ****             break_index = i;
 1126              		.loc 1 215 0 is_stmt 0 discriminator 1
 1127 00b8 4346     		mov	r3, r8
 1128 00ba EB1A     		subs	r3, r5, r3
 1129 00bc 049A     		ldr	r2, [sp, #16]
 1130 00be 9342     		cmp	r3, r2
 1131 00c0 00DD     		ble	.L78
 216:..\..\..\arduinoLCD\test\Pain Drain\libraries\lvgl\src\misc/lv_txt.c ****             break_letter_count = word_len - 1;
 1132              		.loc 1 216 0 is_stmt 1
 1133 00c2 BA46     		mov	r10, r7
 1134              	.LVL144:
 1135              	.L78:
 222:..\..\..\arduinoLCD\test\Pain Drain\libraries\lvgl\src\misc/lv_txt.c ****             /*Update the output width on the first character if it fits.
 1136              		.loc 1 222 0
 1137 00c4 0A2C     		cmp	r4, #10
 1138 00c6 17D0     		beq	.L79
 222:..\..\..\arduinoLCD\test\Pain Drain\libraries\lvgl\src\misc/lv_txt.c ****             /*Update the output width on the first character if it fits.
 1139              		.loc 1 222 0 is_stmt 0 discriminator 1
 1140 00c8 0D2C     		cmp	r4, #13
 1141 00ca 15D0     		beq	.L79
 1142              	.LVL145:
 1143              	.LBB19:
ARM GAS  C:\Users\haske\AppData\Local\Temp\ccg6iOQH.s 			page 39


 1144              	.LBB20:
 1145              		.file 3 "..\\..\\..\\arduinoLCD\\test\\Pain Drain\\libraries\\lvgl\\src\\misc\\lv_txt.h"
   1:..\..\..\arduinoLCD\test\Pain Drain\libraries\lvgl\src\misc/lv_txt.h **** /**
   2:..\..\..\arduinoLCD\test\Pain Drain\libraries\lvgl\src\misc/lv_txt.h ****  * @file lv_txt.h
   3:..\..\..\arduinoLCD\test\Pain Drain\libraries\lvgl\src\misc/lv_txt.h ****  *
   4:..\..\..\arduinoLCD\test\Pain Drain\libraries\lvgl\src\misc/lv_txt.h ****  */
   5:..\..\..\arduinoLCD\test\Pain Drain\libraries\lvgl\src\misc/lv_txt.h **** 
   6:..\..\..\arduinoLCD\test\Pain Drain\libraries\lvgl\src\misc/lv_txt.h **** #ifndef LV_TXT_H
   7:..\..\..\arduinoLCD\test\Pain Drain\libraries\lvgl\src\misc/lv_txt.h **** #define LV_TXT_H
   8:..\..\..\arduinoLCD\test\Pain Drain\libraries\lvgl\src\misc/lv_txt.h **** 
   9:..\..\..\arduinoLCD\test\Pain Drain\libraries\lvgl\src\misc/lv_txt.h **** #ifdef __cplusplus
  10:..\..\..\arduinoLCD\test\Pain Drain\libraries\lvgl\src\misc/lv_txt.h **** extern "C" {
  11:..\..\..\arduinoLCD\test\Pain Drain\libraries\lvgl\src\misc/lv_txt.h **** #endif
  12:..\..\..\arduinoLCD\test\Pain Drain\libraries\lvgl\src\misc/lv_txt.h **** 
  13:..\..\..\arduinoLCD\test\Pain Drain\libraries\lvgl\src\misc/lv_txt.h **** /*********************
  14:..\..\..\arduinoLCD\test\Pain Drain\libraries\lvgl\src\misc/lv_txt.h ****  *      INCLUDES
  15:..\..\..\arduinoLCD\test\Pain Drain\libraries\lvgl\src\misc/lv_txt.h ****  *********************/
  16:..\..\..\arduinoLCD\test\Pain Drain\libraries\lvgl\src\misc/lv_txt.h **** #include "../lv_conf_internal.h"
  17:..\..\..\arduinoLCD\test\Pain Drain\libraries\lvgl\src\misc/lv_txt.h **** 
  18:..\..\..\arduinoLCD\test\Pain Drain\libraries\lvgl\src\misc/lv_txt.h **** #include <stdbool.h>
  19:..\..\..\arduinoLCD\test\Pain Drain\libraries\lvgl\src\misc/lv_txt.h **** #include <stdarg.h>
  20:..\..\..\arduinoLCD\test\Pain Drain\libraries\lvgl\src\misc/lv_txt.h **** #include "lv_area.h"
  21:..\..\..\arduinoLCD\test\Pain Drain\libraries\lvgl\src\misc/lv_txt.h **** #include "../font/lv_font.h"
  22:..\..\..\arduinoLCD\test\Pain Drain\libraries\lvgl\src\misc/lv_txt.h **** #include "lv_printf.h"
  23:..\..\..\arduinoLCD\test\Pain Drain\libraries\lvgl\src\misc/lv_txt.h **** #include "lv_types.h"
  24:..\..\..\arduinoLCD\test\Pain Drain\libraries\lvgl\src\misc/lv_txt.h **** 
  25:..\..\..\arduinoLCD\test\Pain Drain\libraries\lvgl\src\misc/lv_txt.h **** /*********************
  26:..\..\..\arduinoLCD\test\Pain Drain\libraries\lvgl\src\misc/lv_txt.h ****  *      DEFINES
  27:..\..\..\arduinoLCD\test\Pain Drain\libraries\lvgl\src\misc/lv_txt.h ****  *********************/
  28:..\..\..\arduinoLCD\test\Pain Drain\libraries\lvgl\src\misc/lv_txt.h **** #ifndef LV_TXT_COLOR_CMD
  29:..\..\..\arduinoLCD\test\Pain Drain\libraries\lvgl\src\misc/lv_txt.h **** #define LV_TXT_COLOR_CMD "#"
  30:..\..\..\arduinoLCD\test\Pain Drain\libraries\lvgl\src\misc/lv_txt.h **** #endif
  31:..\..\..\arduinoLCD\test\Pain Drain\libraries\lvgl\src\misc/lv_txt.h **** 
  32:..\..\..\arduinoLCD\test\Pain Drain\libraries\lvgl\src\misc/lv_txt.h **** #define LV_TXT_ENC_UTF8 1
  33:..\..\..\arduinoLCD\test\Pain Drain\libraries\lvgl\src\misc/lv_txt.h **** #define LV_TXT_ENC_ASCII 2
  34:..\..\..\arduinoLCD\test\Pain Drain\libraries\lvgl\src\misc/lv_txt.h **** 
  35:..\..\..\arduinoLCD\test\Pain Drain\libraries\lvgl\src\misc/lv_txt.h **** /**********************
  36:..\..\..\arduinoLCD\test\Pain Drain\libraries\lvgl\src\misc/lv_txt.h ****  *      TYPEDEFS
  37:..\..\..\arduinoLCD\test\Pain Drain\libraries\lvgl\src\misc/lv_txt.h ****  **********************/
  38:..\..\..\arduinoLCD\test\Pain Drain\libraries\lvgl\src\misc/lv_txt.h **** 
  39:..\..\..\arduinoLCD\test\Pain Drain\libraries\lvgl\src\misc/lv_txt.h **** /**
  40:..\..\..\arduinoLCD\test\Pain Drain\libraries\lvgl\src\misc/lv_txt.h ****  * Options for text rendering.
  41:..\..\..\arduinoLCD\test\Pain Drain\libraries\lvgl\src\misc/lv_txt.h ****  */
  42:..\..\..\arduinoLCD\test\Pain Drain\libraries\lvgl\src\misc/lv_txt.h **** enum {
  43:..\..\..\arduinoLCD\test\Pain Drain\libraries\lvgl\src\misc/lv_txt.h ****     LV_TEXT_FLAG_NONE    = 0x00,
  44:..\..\..\arduinoLCD\test\Pain Drain\libraries\lvgl\src\misc/lv_txt.h ****     LV_TEXT_FLAG_RECOLOR = 0x01, /**< Enable parsing of recolor command*/
  45:..\..\..\arduinoLCD\test\Pain Drain\libraries\lvgl\src\misc/lv_txt.h ****     LV_TEXT_FLAG_EXPAND  = 0x02, /**< Ignore max-width to avoid automatic word wrapping*/
  46:..\..\..\arduinoLCD\test\Pain Drain\libraries\lvgl\src\misc/lv_txt.h ****     LV_TEXT_FLAG_FIT     = 0x04, /**< Max-width is already equal to the longest line. (Used to skip
  47:..\..\..\arduinoLCD\test\Pain Drain\libraries\lvgl\src\misc/lv_txt.h **** };
  48:..\..\..\arduinoLCD\test\Pain Drain\libraries\lvgl\src\misc/lv_txt.h **** typedef uint8_t lv_text_flag_t;
  49:..\..\..\arduinoLCD\test\Pain Drain\libraries\lvgl\src\misc/lv_txt.h **** 
  50:..\..\..\arduinoLCD\test\Pain Drain\libraries\lvgl\src\misc/lv_txt.h **** /**
  51:..\..\..\arduinoLCD\test\Pain Drain\libraries\lvgl\src\misc/lv_txt.h ****  * State machine for text renderer.*/
  52:..\..\..\arduinoLCD\test\Pain Drain\libraries\lvgl\src\misc/lv_txt.h **** enum {
  53:..\..\..\arduinoLCD\test\Pain Drain\libraries\lvgl\src\misc/lv_txt.h ****     LV_TEXT_CMD_STATE_WAIT, /**< Waiting for command*/
  54:..\..\..\arduinoLCD\test\Pain Drain\libraries\lvgl\src\misc/lv_txt.h ****     LV_TEXT_CMD_STATE_PAR,  /**< Processing the parameter*/
  55:..\..\..\arduinoLCD\test\Pain Drain\libraries\lvgl\src\misc/lv_txt.h ****     LV_TEXT_CMD_STATE_IN,   /**< Processing the command*/
ARM GAS  C:\Users\haske\AppData\Local\Temp\ccg6iOQH.s 			page 40


  56:..\..\..\arduinoLCD\test\Pain Drain\libraries\lvgl\src\misc/lv_txt.h **** };
  57:..\..\..\arduinoLCD\test\Pain Drain\libraries\lvgl\src\misc/lv_txt.h **** typedef uint8_t lv_text_cmd_state_t;
  58:..\..\..\arduinoLCD\test\Pain Drain\libraries\lvgl\src\misc/lv_txt.h **** 
  59:..\..\..\arduinoLCD\test\Pain Drain\libraries\lvgl\src\misc/lv_txt.h **** /** Label align policy*/
  60:..\..\..\arduinoLCD\test\Pain Drain\libraries\lvgl\src\misc/lv_txt.h **** enum {
  61:..\..\..\arduinoLCD\test\Pain Drain\libraries\lvgl\src\misc/lv_txt.h ****     LV_TEXT_ALIGN_AUTO, /**< Align text auto*/
  62:..\..\..\arduinoLCD\test\Pain Drain\libraries\lvgl\src\misc/lv_txt.h ****     LV_TEXT_ALIGN_LEFT, /**< Align text to left*/
  63:..\..\..\arduinoLCD\test\Pain Drain\libraries\lvgl\src\misc/lv_txt.h ****     LV_TEXT_ALIGN_CENTER, /**< Align text to center*/
  64:..\..\..\arduinoLCD\test\Pain Drain\libraries\lvgl\src\misc/lv_txt.h ****     LV_TEXT_ALIGN_RIGHT, /**< Align text to right*/
  65:..\..\..\arduinoLCD\test\Pain Drain\libraries\lvgl\src\misc/lv_txt.h **** };
  66:..\..\..\arduinoLCD\test\Pain Drain\libraries\lvgl\src\misc/lv_txt.h **** typedef uint8_t lv_text_align_t;
  67:..\..\..\arduinoLCD\test\Pain Drain\libraries\lvgl\src\misc/lv_txt.h **** 
  68:..\..\..\arduinoLCD\test\Pain Drain\libraries\lvgl\src\misc/lv_txt.h **** /**********************
  69:..\..\..\arduinoLCD\test\Pain Drain\libraries\lvgl\src\misc/lv_txt.h ****  * GLOBAL PROTOTYPES
  70:..\..\..\arduinoLCD\test\Pain Drain\libraries\lvgl\src\misc/lv_txt.h ****  **********************/
  71:..\..\..\arduinoLCD\test\Pain Drain\libraries\lvgl\src\misc/lv_txt.h **** 
  72:..\..\..\arduinoLCD\test\Pain Drain\libraries\lvgl\src\misc/lv_txt.h **** /**
  73:..\..\..\arduinoLCD\test\Pain Drain\libraries\lvgl\src\misc/lv_txt.h ****  * Get size of a text
  74:..\..\..\arduinoLCD\test\Pain Drain\libraries\lvgl\src\misc/lv_txt.h ****  * @param size_res pointer to a 'point_t' variable to store the result
  75:..\..\..\arduinoLCD\test\Pain Drain\libraries\lvgl\src\misc/lv_txt.h ****  * @param text pointer to a text
  76:..\..\..\arduinoLCD\test\Pain Drain\libraries\lvgl\src\misc/lv_txt.h ****  * @param font pointer to font of the text
  77:..\..\..\arduinoLCD\test\Pain Drain\libraries\lvgl\src\misc/lv_txt.h ****  * @param letter_space letter space of the text
  78:..\..\..\arduinoLCD\test\Pain Drain\libraries\lvgl\src\misc/lv_txt.h ****  * @param line_space line space of the text
  79:..\..\..\arduinoLCD\test\Pain Drain\libraries\lvgl\src\misc/lv_txt.h ****  * @param flags settings for the text from ::lv_text_flag_t
  80:..\..\..\arduinoLCD\test\Pain Drain\libraries\lvgl\src\misc/lv_txt.h ****  * @param max_width max width of the text (break the lines to fit this size). Set COORD_MAX to avoi
  81:..\..\..\arduinoLCD\test\Pain Drain\libraries\lvgl\src\misc/lv_txt.h ****  * line breaks
  82:..\..\..\arduinoLCD\test\Pain Drain\libraries\lvgl\src\misc/lv_txt.h ****  */
  83:..\..\..\arduinoLCD\test\Pain Drain\libraries\lvgl\src\misc/lv_txt.h **** void lv_txt_get_size(lv_point_t * size_res, const char * text, const lv_font_t * font, lv_coord_t l
  84:..\..\..\arduinoLCD\test\Pain Drain\libraries\lvgl\src\misc/lv_txt.h ****                      lv_coord_t line_space, lv_coord_t max_width, lv_text_flag_t flag);
  85:..\..\..\arduinoLCD\test\Pain Drain\libraries\lvgl\src\misc/lv_txt.h **** 
  86:..\..\..\arduinoLCD\test\Pain Drain\libraries\lvgl\src\misc/lv_txt.h **** /**
  87:..\..\..\arduinoLCD\test\Pain Drain\libraries\lvgl\src\misc/lv_txt.h ****  * Get the next line of text. Check line length and break chars too.
  88:..\..\..\arduinoLCD\test\Pain Drain\libraries\lvgl\src\misc/lv_txt.h ****  * @param txt a '\0' terminated string
  89:..\..\..\arduinoLCD\test\Pain Drain\libraries\lvgl\src\misc/lv_txt.h ****  * @param font pointer to a font
  90:..\..\..\arduinoLCD\test\Pain Drain\libraries\lvgl\src\misc/lv_txt.h ****  * @param letter_space letter space
  91:..\..\..\arduinoLCD\test\Pain Drain\libraries\lvgl\src\misc/lv_txt.h ****  * @param max_width max width of the text (break the lines to fit this size). Set COORD_MAX to avoi
  92:..\..\..\arduinoLCD\test\Pain Drain\libraries\lvgl\src\misc/lv_txt.h ****  * line breaks
  93:..\..\..\arduinoLCD\test\Pain Drain\libraries\lvgl\src\misc/lv_txt.h ****  * @param used_width When used_width != NULL, save the width of this line if
  94:..\..\..\arduinoLCD\test\Pain Drain\libraries\lvgl\src\misc/lv_txt.h ****  * flag == LV_TEXT_FLAG_NONE, otherwise save -1.
  95:..\..\..\arduinoLCD\test\Pain Drain\libraries\lvgl\src\misc/lv_txt.h ****  * @param flags settings for the text from 'txt_flag_type' enum
  96:..\..\..\arduinoLCD\test\Pain Drain\libraries\lvgl\src\misc/lv_txt.h ****  * @return the index of the first char of the new line (in byte index not letter index. With UTF-8
  97:..\..\..\arduinoLCD\test\Pain Drain\libraries\lvgl\src\misc/lv_txt.h ****  * they are different)
  98:..\..\..\arduinoLCD\test\Pain Drain\libraries\lvgl\src\misc/lv_txt.h ****  */
  99:..\..\..\arduinoLCD\test\Pain Drain\libraries\lvgl\src\misc/lv_txt.h **** uint32_t _lv_txt_get_next_line(const char * txt, const lv_font_t * font, lv_coord_t letter_space,
 100:..\..\..\arduinoLCD\test\Pain Drain\libraries\lvgl\src\misc/lv_txt.h ****                                lv_coord_t max_width, lv_coord_t * used_width, lv_text_flag_t flag);
 101:..\..\..\arduinoLCD\test\Pain Drain\libraries\lvgl\src\misc/lv_txt.h **** 
 102:..\..\..\arduinoLCD\test\Pain Drain\libraries\lvgl\src\misc/lv_txt.h **** /**
 103:..\..\..\arduinoLCD\test\Pain Drain\libraries\lvgl\src\misc/lv_txt.h ****  * Give the length of a text with a given font
 104:..\..\..\arduinoLCD\test\Pain Drain\libraries\lvgl\src\misc/lv_txt.h ****  * @param txt a '\0' terminate string
 105:..\..\..\arduinoLCD\test\Pain Drain\libraries\lvgl\src\misc/lv_txt.h ****  * @param length length of 'txt' in byte count and not characters ( is 1 character but 2 bytes in
 106:..\..\..\arduinoLCD\test\Pain Drain\libraries\lvgl\src\misc/lv_txt.h ****  * UTF-8)
 107:..\..\..\arduinoLCD\test\Pain Drain\libraries\lvgl\src\misc/lv_txt.h ****  * @param font pointer to a font
 108:..\..\..\arduinoLCD\test\Pain Drain\libraries\lvgl\src\misc/lv_txt.h ****  * @param letter_space letter space
 109:..\..\..\arduinoLCD\test\Pain Drain\libraries\lvgl\src\misc/lv_txt.h ****  * @param flags settings for the text from 'txt_flag_t' enum
 110:..\..\..\arduinoLCD\test\Pain Drain\libraries\lvgl\src\misc/lv_txt.h ****  * @return length of a char_num long text
 111:..\..\..\arduinoLCD\test\Pain Drain\libraries\lvgl\src\misc/lv_txt.h ****  */
 112:..\..\..\arduinoLCD\test\Pain Drain\libraries\lvgl\src\misc/lv_txt.h **** lv_coord_t lv_txt_get_width(const char * txt, uint32_t length, const lv_font_t * font, lv_coord_t l
ARM GAS  C:\Users\haske\AppData\Local\Temp\ccg6iOQH.s 			page 41


 113:..\..\..\arduinoLCD\test\Pain Drain\libraries\lvgl\src\misc/lv_txt.h ****                             lv_text_flag_t flag);
 114:..\..\..\arduinoLCD\test\Pain Drain\libraries\lvgl\src\misc/lv_txt.h **** 
 115:..\..\..\arduinoLCD\test\Pain Drain\libraries\lvgl\src\misc/lv_txt.h **** /**
 116:..\..\..\arduinoLCD\test\Pain Drain\libraries\lvgl\src\misc/lv_txt.h ****  * Check next character in a string and decide if the character is part of the command or not
 117:..\..\..\arduinoLCD\test\Pain Drain\libraries\lvgl\src\misc/lv_txt.h ****  * @param state pointer to a txt_cmd_state_t variable which stores the current state of command
 118:..\..\..\arduinoLCD\test\Pain Drain\libraries\lvgl\src\misc/lv_txt.h ****  * processing
 119:..\..\..\arduinoLCD\test\Pain Drain\libraries\lvgl\src\misc/lv_txt.h ****  * @param c the current character
 120:..\..\..\arduinoLCD\test\Pain Drain\libraries\lvgl\src\misc/lv_txt.h ****  * @return true: the character is part of a command and should not be written,
 121:..\..\..\arduinoLCD\test\Pain Drain\libraries\lvgl\src\misc/lv_txt.h ****  *         false: the character should be written
 122:..\..\..\arduinoLCD\test\Pain Drain\libraries\lvgl\src\misc/lv_txt.h ****  */
 123:..\..\..\arduinoLCD\test\Pain Drain\libraries\lvgl\src\misc/lv_txt.h **** bool _lv_txt_is_cmd(lv_text_cmd_state_t * state, uint32_t c);
 124:..\..\..\arduinoLCD\test\Pain Drain\libraries\lvgl\src\misc/lv_txt.h **** 
 125:..\..\..\arduinoLCD\test\Pain Drain\libraries\lvgl\src\misc/lv_txt.h **** /**
 126:..\..\..\arduinoLCD\test\Pain Drain\libraries\lvgl\src\misc/lv_txt.h ****  * Insert a string into an other
 127:..\..\..\arduinoLCD\test\Pain Drain\libraries\lvgl\src\misc/lv_txt.h ****  * @param txt_buf the original text (must be big enough for the result text and NULL terminated)
 128:..\..\..\arduinoLCD\test\Pain Drain\libraries\lvgl\src\misc/lv_txt.h ****  * @param pos position to insert (0: before the original text, 1: after the first char etc.)
 129:..\..\..\arduinoLCD\test\Pain Drain\libraries\lvgl\src\misc/lv_txt.h ****  * @param ins_txt text to insert, must be '\0' terminated
 130:..\..\..\arduinoLCD\test\Pain Drain\libraries\lvgl\src\misc/lv_txt.h ****  */
 131:..\..\..\arduinoLCD\test\Pain Drain\libraries\lvgl\src\misc/lv_txt.h **** void _lv_txt_ins(char * txt_buf, uint32_t pos, const char * ins_txt);
 132:..\..\..\arduinoLCD\test\Pain Drain\libraries\lvgl\src\misc/lv_txt.h **** 
 133:..\..\..\arduinoLCD\test\Pain Drain\libraries\lvgl\src\misc/lv_txt.h **** /**
 134:..\..\..\arduinoLCD\test\Pain Drain\libraries\lvgl\src\misc/lv_txt.h ****  * Delete a part of a string
 135:..\..\..\arduinoLCD\test\Pain Drain\libraries\lvgl\src\misc/lv_txt.h ****  * @param txt string to modify, must be '\0' terminated and should point to a heap or stack frame, 
 136:..\..\..\arduinoLCD\test\Pain Drain\libraries\lvgl\src\misc/lv_txt.h ****  * @param pos position where to start the deleting (0: before the first char, 1: after the first
 137:..\..\..\arduinoLCD\test\Pain Drain\libraries\lvgl\src\misc/lv_txt.h ****  * char etc.)
 138:..\..\..\arduinoLCD\test\Pain Drain\libraries\lvgl\src\misc/lv_txt.h ****  * @param len number of characters to delete
 139:..\..\..\arduinoLCD\test\Pain Drain\libraries\lvgl\src\misc/lv_txt.h ****  */
 140:..\..\..\arduinoLCD\test\Pain Drain\libraries\lvgl\src\misc/lv_txt.h **** void _lv_txt_cut(char * txt, uint32_t pos, uint32_t len);
 141:..\..\..\arduinoLCD\test\Pain Drain\libraries\lvgl\src\misc/lv_txt.h **** 
 142:..\..\..\arduinoLCD\test\Pain Drain\libraries\lvgl\src\misc/lv_txt.h **** /**
 143:..\..\..\arduinoLCD\test\Pain Drain\libraries\lvgl\src\misc/lv_txt.h ****  * return a new formatted text. Memory will be allocated to store the text.
 144:..\..\..\arduinoLCD\test\Pain Drain\libraries\lvgl\src\misc/lv_txt.h ****  * @param fmt `printf`-like format
 145:..\..\..\arduinoLCD\test\Pain Drain\libraries\lvgl\src\misc/lv_txt.h ****  * @return pointer to the allocated text string.
 146:..\..\..\arduinoLCD\test\Pain Drain\libraries\lvgl\src\misc/lv_txt.h ****  */
 147:..\..\..\arduinoLCD\test\Pain Drain\libraries\lvgl\src\misc/lv_txt.h **** char * _lv_txt_set_text_vfmt(const char * fmt, va_list ap) LV_FORMAT_ATTRIBUTE(1, 0);
 148:..\..\..\arduinoLCD\test\Pain Drain\libraries\lvgl\src\misc/lv_txt.h **** 
 149:..\..\..\arduinoLCD\test\Pain Drain\libraries\lvgl\src\misc/lv_txt.h **** /**
 150:..\..\..\arduinoLCD\test\Pain Drain\libraries\lvgl\src\misc/lv_txt.h ****  * Decode two encoded character from a string.
 151:..\..\..\arduinoLCD\test\Pain Drain\libraries\lvgl\src\misc/lv_txt.h ****  * @param txt pointer to '\0' terminated string
 152:..\..\..\arduinoLCD\test\Pain Drain\libraries\lvgl\src\misc/lv_txt.h ****  * @param letter the first decoded Unicode character or 0 on invalid data code
 153:..\..\..\arduinoLCD\test\Pain Drain\libraries\lvgl\src\misc/lv_txt.h ****  * @param letter_next the second decoded Unicode character or 0 on invalid data code
 154:..\..\..\arduinoLCD\test\Pain Drain\libraries\lvgl\src\misc/lv_txt.h ****  * @param ofs start index in 'txt' where to start.
 155:..\..\..\arduinoLCD\test\Pain Drain\libraries\lvgl\src\misc/lv_txt.h ****  *                After the call it will point to the next encoded char in 'txt'.
 156:..\..\..\arduinoLCD\test\Pain Drain\libraries\lvgl\src\misc/lv_txt.h ****  *                NULL to use txt[0] as index
 157:..\..\..\arduinoLCD\test\Pain Drain\libraries\lvgl\src\misc/lv_txt.h ****  */
 158:..\..\..\arduinoLCD\test\Pain Drain\libraries\lvgl\src\misc/lv_txt.h **** void _lv_txt_encoded_letter_next_2(const char * txt, uint32_t * letter, uint32_t * letter_next, uin
 159:..\..\..\arduinoLCD\test\Pain Drain\libraries\lvgl\src\misc/lv_txt.h **** 
 160:..\..\..\arduinoLCD\test\Pain Drain\libraries\lvgl\src\misc/lv_txt.h **** /**
 161:..\..\..\arduinoLCD\test\Pain Drain\libraries\lvgl\src\misc/lv_txt.h ****  * Test if char is break char or not (a text can broken here or not)
 162:..\..\..\arduinoLCD\test\Pain Drain\libraries\lvgl\src\misc/lv_txt.h ****  * @param letter a letter
 163:..\..\..\arduinoLCD\test\Pain Drain\libraries\lvgl\src\misc/lv_txt.h ****  * @return false: 'letter' is not break char
 164:..\..\..\arduinoLCD\test\Pain Drain\libraries\lvgl\src\misc/lv_txt.h ****  */
 165:..\..\..\arduinoLCD\test\Pain Drain\libraries\lvgl\src\misc/lv_txt.h **** static inline bool _lv_txt_is_break_char(uint32_t letter)
 166:..\..\..\arduinoLCD\test\Pain Drain\libraries\lvgl\src\misc/lv_txt.h **** {
 167:..\..\..\arduinoLCD\test\Pain Drain\libraries\lvgl\src\misc/lv_txt.h ****     uint8_t i;
 168:..\..\..\arduinoLCD\test\Pain Drain\libraries\lvgl\src\misc/lv_txt.h ****     bool ret = false;
 169:..\..\..\arduinoLCD\test\Pain Drain\libraries\lvgl\src\misc/lv_txt.h **** 
ARM GAS  C:\Users\haske\AppData\Local\Temp\ccg6iOQH.s 			page 42


 170:..\..\..\arduinoLCD\test\Pain Drain\libraries\lvgl\src\misc/lv_txt.h ****     /* each chinese character can be break */
 171:..\..\..\arduinoLCD\test\Pain Drain\libraries\lvgl\src\misc/lv_txt.h ****     if(letter >= 0x4E00 && letter <= 0x9FA5) {
 1146              		.loc 3 171 0 is_stmt 1
 1147 00cc 304A     		ldr	r2, .L100+8
 1148 00ce 314B     		ldr	r3, .L100+12
 1149 00d0 E318     		adds	r3, r4, r3
 1150 00d2 9342     		cmp	r3, r2
 1151 00d4 0BD9     		bls	.L94
 1152 00d6 0023     		movs	r3, #0
 1153 00d8 03E0     		b	.L81
 1154              	.LVL146:
 1155              	.L82:
 172:..\..\..\arduinoLCD\test\Pain Drain\libraries\lvgl\src\misc/lv_txt.h ****         return true;
 173:..\..\..\arduinoLCD\test\Pain Drain\libraries\lvgl\src\misc/lv_txt.h ****     }
 174:..\..\..\arduinoLCD\test\Pain Drain\libraries\lvgl\src\misc/lv_txt.h **** 
 175:..\..\..\arduinoLCD\test\Pain Drain\libraries\lvgl\src\misc/lv_txt.h ****     /*Compare the letter to TXT_BREAK_CHARS*/
 176:..\..\..\arduinoLCD\test\Pain Drain\libraries\lvgl\src\misc/lv_txt.h ****     for(i = 0; LV_TXT_BREAK_CHARS[i] != '\0'; i++) {
 177:..\..\..\arduinoLCD\test\Pain Drain\libraries\lvgl\src\misc/lv_txt.h ****         if(letter == (uint32_t)LV_TXT_BREAK_CHARS[i]) {
 1156              		.loc 3 177 0
 1157 00da 9442     		cmp	r4, r2
 1158 00dc 09D0     		beq	.L95
 176:..\..\..\arduinoLCD\test\Pain Drain\libraries\lvgl\src\misc/lv_txt.h ****         if(letter == (uint32_t)LV_TXT_BREAK_CHARS[i]) {
 1159              		.loc 3 176 0
 1160 00de 0133     		adds	r3, r3, #1
 1161              	.LVL147:
 1162 00e0 DBB2     		uxtb	r3, r3
 1163              	.LVL148:
 1164              	.L81:
 1165 00e2 2D4A     		ldr	r2, .L100+16
 1166 00e4 D25C     		ldrb	r2, [r2, r3]
 1167 00e6 002A     		cmp	r2, #0
 1168 00e8 F7D1     		bne	.L82
 168:..\..\..\arduinoLCD\test\Pain Drain\libraries\lvgl\src\misc/lv_txt.h **** 
 1169              		.loc 3 168 0
 1170 00ea 0023     		movs	r3, #0
 1171              	.LVL149:
 1172 00ec 02E0     		b	.L80
 1173              	.L94:
 172:..\..\..\arduinoLCD\test\Pain Drain\libraries\lvgl\src\misc/lv_txt.h ****         return true;
 1174              		.loc 3 172 0
 1175 00ee 0123     		movs	r3, #1
 1176 00f0 00E0     		b	.L80
 1177              	.LVL150:
 1178              	.L95:
 178:..\..\..\arduinoLCD\test\Pain Drain\libraries\lvgl\src\misc/lv_txt.h ****             ret = true; /*If match then it is break char*/
 1179              		.loc 3 178 0
 1180 00f2 0123     		movs	r3, #1
 1181              	.LVL151:
 1182              	.L80:
 1183              	.LBE20:
 1184              	.LBE19:
 222:..\..\..\arduinoLCD\test\Pain Drain\libraries\lvgl\src\misc/lv_txt.c ****             /*Update the output width on the first character if it fits.
 1185              		.loc 1 222 0
 1186 00f4 002B     		cmp	r3, #0
 1187 00f6 09D0     		beq	.L83
 1188              	.LVL152:
 1189              	.L79:
ARM GAS  C:\Users\haske\AppData\Local\Temp\ccg6iOQH.s 			page 43


 225:..\..\..\arduinoLCD\test\Pain Drain\libraries\lvgl\src\misc/lv_txt.c ****             word_len--;
 1190              		.loc 1 225 0
 1191 00f8 002F     		cmp	r7, #0
 1192 00fa 18D1     		bne	.L84
 225:..\..\..\arduinoLCD\test\Pain Drain\libraries\lvgl\src\misc/lv_txt.c ****             word_len--;
 1193              		.loc 1 225 0 is_stmt 0 discriminator 1
 1194 00fc 5346     		mov	r3, r10
 1195 00fe 0133     		adds	r3, r3, #1
 1196 0100 15D1     		bne	.L84
 225:..\..\..\arduinoLCD\test\Pain Drain\libraries\lvgl\src\misc/lv_txt.c ****             word_len--;
 1197              		.loc 1 225 0 discriminator 2
 1198 0102 4B46     		mov	r3, r9
 1199 0104 002B     		cmp	r3, #0
 1200 0106 12D0     		beq	.L84
 225:..\..\..\arduinoLCD\test\Pain Drain\libraries\lvgl\src\misc/lv_txt.c ****             word_len--;
 1201              		.loc 1 225 0 discriminator 3
 1202 0108 1D60     		str	r5, [r3]
 1203 010a 10E0     		b	.L84
 1204              	.LVL153:
 1205              	.L83:
 231:..\..\..\arduinoLCD\test\Pain Drain\libraries\lvgl\src\misc/lv_txt.c **** 
 1206              		.loc 1 231 0 is_stmt 1
 1207 010c 4B46     		mov	r3, r9
 1208 010e 002B     		cmp	r3, #0
 1209 0110 04D0     		beq	.L85
 231:..\..\..\arduinoLCD\test\Pain Drain\libraries\lvgl\src\misc/lv_txt.c **** 
 1210              		.loc 1 231 0 is_stmt 0 discriminator 1
 1211 0112 5346     		mov	r3, r10
 1212 0114 0133     		adds	r3, r3, #1
 1213 0116 01D1     		bne	.L85
 231:..\..\..\arduinoLCD\test\Pain Drain\libraries\lvgl\src\misc/lv_txt.c **** 
 1214              		.loc 1 231 0 discriminator 2
 1215 0118 4B46     		mov	r3, r9
 1216 011a 1D60     		str	r5, [r3]
 1217              	.L85:
 233:..\..\..\arduinoLCD\test\Pain Drain\libraries\lvgl\src\misc/lv_txt.c ****         i_next = i_next_next;
 1218              		.loc 1 233 0 is_stmt 1
 1219 011c 079F     		ldr	r7, [sp, #28]
 1220              	.LVL154:
 234:..\..\..\arduinoLCD\test\Pain Drain\libraries\lvgl\src\misc/lv_txt.c ****         letter = letter_next;
 1221              		.loc 1 234 0
 1222 011e 069B     		ldr	r3, [sp, #24]
 1223 0120 0793     		str	r3, [sp, #28]
 1224              	.LVL155:
 1225              	.L76:
 1226              	.LBB22:
 1227              	.LBB21:
 168:..\..\..\arduinoLCD\test\Pain Drain\libraries\lvgl\src\misc/lv_txt.h **** 
 1228              		.loc 3 168 0
 1229 0122 029B     		ldr	r3, [sp, #8]
 1230 0124 0193     		str	r3, [sp, #4]
 1231 0126 009C     		ldr	r4, [sp]
 1232              	.LVL156:
 1233              	.L74:
 1234              	.LBE21:
 1235              	.LBE22:
 193:..\..\..\arduinoLCD\test\Pain Drain\libraries\lvgl\src\misc/lv_txt.c ****         letter_next = _lv_txt_encoded_next(txt, &i_next_next);
ARM GAS  C:\Users\haske\AppData\Local\Temp\ccg6iOQH.s 			page 44


 1236              		.loc 1 193 0
 1237 0128 F35D     		ldrb	r3, [r6, r7]
 1238 012a 002B     		cmp	r3, #0
 1239 012c 9ED1     		bne	.L86
 1240              	.LVL157:
 1241              	.L84:
 239:..\..\..\arduinoLCD\test\Pain Drain\libraries\lvgl\src\misc/lv_txt.c ****         if(word_len == 0 || (letter == '\r' && letter_next == '\n')) i = i_next;
 1242              		.loc 1 239 0
 1243 012e 5346     		mov	r3, r10
 1244 0130 0133     		adds	r3, r3, #1
 1245 0132 09D1     		bne	.L87
 240:..\..\..\arduinoLCD\test\Pain Drain\libraries\lvgl\src\misc/lv_txt.c ****         return i;
 1246              		.loc 1 240 0
 1247 0134 019B     		ldr	r3, [sp, #4]
 1248 0136 002B     		cmp	r3, #0
 1249 0138 04D0     		beq	.L88
 240:..\..\..\arduinoLCD\test\Pain Drain\libraries\lvgl\src\misc/lv_txt.c ****         return i;
 1250              		.loc 1 240 0 is_stmt 0 discriminator 2
 1251 013a 0D2C     		cmp	r4, #13
 1252 013c 15D1     		bne	.L96
 240:..\..\..\arduinoLCD\test\Pain Drain\libraries\lvgl\src\misc/lv_txt.c ****         return i;
 1253              		.loc 1 240 0 discriminator 3
 1254 013e 009B     		ldr	r3, [sp]
 1255 0140 0A2B     		cmp	r3, #10
 1256 0142 14D1     		bne	.L97
 1257              	.L88:
 240:..\..\..\arduinoLCD\test\Pain Drain\libraries\lvgl\src\misc/lv_txt.c ****         return i;
 1258              		.loc 1 240 0 discriminator 4
 1259 0144 0798     		ldr	r0, [sp, #28]
 1260              	.LVL158:
 1261 0146 17E0     		b	.L72
 1262              	.LVL159:
 1263              	.L87:
 272:..\..\..\arduinoLCD\test\Pain Drain\libraries\lvgl\src\misc/lv_txt.c ****     if(word_w_ptr != NULL) *word_w_ptr = 0; /*Return no word*/
 1264              		.loc 1 272 0 is_stmt 1
 1265 0148 059B     		ldr	r3, [sp, #20]
 1266 014a 002B     		cmp	r3, #0
 1267 014c 11D1     		bne	.L98
 273:..\..\..\arduinoLCD\test\Pain Drain\libraries\lvgl\src\misc/lv_txt.c ****     (void) break_letter_count;
 1268              		.loc 1 273 0
 1269 014e 4B46     		mov	r3, r9
 1270 0150 002B     		cmp	r3, #0
 1271 0152 10D0     		beq	.L99
 273:..\..\..\arduinoLCD\test\Pain Drain\libraries\lvgl\src\misc/lv_txt.c ****     (void) break_letter_count;
 1272              		.loc 1 273 0 is_stmt 0 discriminator 1
 1273 0154 0023     		movs	r3, #0
 1274 0156 4A46     		mov	r2, r9
 1275 0158 1360     		str	r3, [r2]
 275:..\..\..\arduinoLCD\test\Pain Drain\libraries\lvgl\src\misc/lv_txt.c **** #endif
 1276              		.loc 1 275 0 is_stmt 1 discriminator 1
 1277 015a 0020     		movs	r0, #0
 1278 015c 0CE0     		b	.L72
 1279              	.LVL160:
 1280              	.L89:
 175:..\..\..\arduinoLCD\test\Pain Drain\libraries\lvgl\src\misc/lv_txt.c ****     if(font == NULL) return 0;
 1281              		.loc 1 175 0
 1282 015e 0020     		movs	r0, #0
ARM GAS  C:\Users\haske\AppData\Local\Temp\ccg6iOQH.s 			page 45


 1283              	.LVL161:
 1284 0160 0AE0     		b	.L72
 1285              	.LVL162:
 1286              	.L90:
 1287 0162 0020     		movs	r0, #0
 1288              	.LVL163:
 1289 0164 08E0     		b	.L72
 1290              	.LVL164:
 1291              	.L91:
 176:..\..\..\arduinoLCD\test\Pain Drain\libraries\lvgl\src\misc/lv_txt.c **** 
 1292              		.loc 1 176 0
 1293 0166 0020     		movs	r0, #0
 1294              	.LVL165:
 1295 0168 06E0     		b	.L72
 1296              	.LVL166:
 1297              	.L96:
 1298 016a 3800     		movs	r0, r7
 1299 016c 04E0     		b	.L72
 1300              	.LVL167:
 1301              	.L97:
 1302 016e 3800     		movs	r0, r7
 1303 0170 02E0     		b	.L72
 1304              	.LVL168:
 1305              	.L98:
 272:..\..\..\arduinoLCD\test\Pain Drain\libraries\lvgl\src\misc/lv_txt.c ****     if(word_w_ptr != NULL) *word_w_ptr = 0; /*Return no word*/
 1306              		.loc 1 272 0
 1307 0172 5046     		mov	r0, r10
 1308 0174 00E0     		b	.L72
 1309              	.L99:
 275:..\..\..\arduinoLCD\test\Pain Drain\libraries\lvgl\src\misc/lv_txt.c **** #endif
 1310              		.loc 1 275 0
 1311 0176 0020     		movs	r0, #0
 1312              	.LVL169:
 1313              	.L72:
 277:..\..\..\arduinoLCD\test\Pain Drain\libraries\lvgl\src\misc/lv_txt.c **** 
 1314              		.loc 1 277 0
 1315 0178 09B0     		add	sp, sp, #36
 1316              		@ sp needed
 1317              	.LVL170:
 1318 017a 3CBC     		pop	{r2, r3, r4, r5}
 1319 017c 9046     		mov	r8, r2
 1320 017e 9946     		mov	r9, r3
 1321 0180 A246     		mov	r10, r4
 1322 0182 AB46     		mov	fp, r5
 1323 0184 F0BD     		pop	{r4, r5, r6, r7, pc}
 1324              	.L101:
 1325 0186 C046     		.align	2
 1326              	.L100:
 1327 0188 FF1F0000 		.word	8191
 1328 018c 00000000 		.word	.LANCHOR0
 1329 0190 A5510000 		.word	20901
 1330 0194 00B2FFFF 		.word	-19968
 1331 0198 00000000 		.word	.LC5
 1332              		.cfi_endproc
 1333              	.LFE56:
 1334              		.size	lv_txt_get_next_word, .-lv_txt_get_next_word
 1335              		.section	.text._lv_txt_get_next_line,"ax",%progbits
ARM GAS  C:\Users\haske\AppData\Local\Temp\ccg6iOQH.s 			page 46


 1336              		.align	2
 1337              		.global	_lv_txt_get_next_line
 1338              		.code	16
 1339              		.thumb_func
 1340              		.type	_lv_txt_get_next_line, %function
 1341              	_lv_txt_get_next_line:
 1342              	.LFB57:
 282:..\..\..\arduinoLCD\test\Pain Drain\libraries\lvgl\src\misc/lv_txt.c ****     if(used_width) *used_width = 0;
 1343              		.loc 1 282 0
 1344              		.cfi_startproc
 1345              		@ args = 8, pretend = 0, frame = 24
 1346              		@ frame_needed = 0, uses_anonymous_args = 0
 1347              	.LVL171:
 1348 0000 F0B5     		push	{r4, r5, r6, r7, lr}
 1349              		.cfi_def_cfa_offset 20
 1350              		.cfi_offset 4, -20
 1351              		.cfi_offset 5, -16
 1352              		.cfi_offset 6, -12
 1353              		.cfi_offset 7, -8
 1354              		.cfi_offset 14, -4
 1355 0002 4F46     		mov	r7, r9
 1356 0004 80B4     		push	{r7}
 1357              		.cfi_def_cfa_offset 24
 1358              		.cfi_offset 9, -24
 1359 0006 8AB0     		sub	sp, sp, #40
 1360              		.cfi_def_cfa_offset 64
 1361 0008 0700     		movs	r7, r0
 1362 000a 0491     		str	r1, [sp, #16]
 1363 000c 0592     		str	r2, [sp, #20]
 1364 000e 1E00     		movs	r6, r3
 1365 0010 10AB     		add	r3, sp, #64
 1366              	.LVL172:
 1367 0012 20CB     		ldmia	r3!, {r5}
 1368              	.LVL173:
 1369 0014 1B78     		ldrb	r3, [r3]
 1370              	.LVL174:
 1371 0016 9946     		mov	r9, r3
 283:..\..\..\arduinoLCD\test\Pain Drain\libraries\lvgl\src\misc/lv_txt.c **** 
 1372              		.loc 1 283 0
 1373 0018 002D     		cmp	r5, #0
 1374 001a 01D0     		beq	.L103
 283:..\..\..\arduinoLCD\test\Pain Drain\libraries\lvgl\src\misc/lv_txt.c **** 
 1375              		.loc 1 283 0 is_stmt 0 discriminator 1
 1376 001c 0023     		movs	r3, #0
 1377 001e 2B80     		strh	r3, [r5]
 1378              	.L103:
 285:..\..\..\arduinoLCD\test\Pain Drain\libraries\lvgl\src\misc/lv_txt.c ****     if(txt[0] == '\0') return 0;
 1379              		.loc 1 285 0 is_stmt 1
 1380 0020 002F     		cmp	r7, #0
 1381 0022 72D0     		beq	.L119
 286:..\..\..\arduinoLCD\test\Pain Drain\libraries\lvgl\src\misc/lv_txt.c ****     if(font == NULL) return 0;
 1382              		.loc 1 286 0
 1383 0024 3B78     		ldrb	r3, [r7]
 1384 0026 002B     		cmp	r3, #0
 1385 0028 71D0     		beq	.L120
 287:..\..\..\arduinoLCD\test\Pain Drain\libraries\lvgl\src\misc/lv_txt.c **** 
 1386              		.loc 1 287 0
ARM GAS  C:\Users\haske\AppData\Local\Temp\ccg6iOQH.s 			page 47


 1387 002a 049B     		ldr	r3, [sp, #16]
 1388 002c 002B     		cmp	r3, #0
 1389 002e 70D0     		beq	.L121
 1390              	.LVL175:
 293:..\..\..\arduinoLCD\test\Pain Drain\libraries\lvgl\src\misc/lv_txt.c ****         uint32_t i;
 1391              		.loc 1 293 0
 1392 0030 0623     		movs	r3, #6
 1393 0032 4A46     		mov	r2, r9
 1394              	.LVL176:
 1395 0034 1342     		tst	r3, r2
 1396 0036 02D1     		bne	.L122
 1397 0038 12E0     		b	.L125
 1398              	.LVL177:
 1399              	.L108:
 1400              	.LBB23:
 295:..\..\..\arduinoLCD\test\Pain Drain\libraries\lvgl\src\misc/lv_txt.c ****             /*Just find the new line chars or string ends by incrementing `i`*/
 1401              		.loc 1 295 0 discriminator 5
 1402 003a 0130     		adds	r0, r0, #1
 1403              	.LVL178:
 1404 003c 00E0     		b	.L105
 1405              	.LVL179:
 1406              	.L122:
 1407              	.LBE23:
 1408 003e 0020     		movs	r0, #0
 1409              	.LVL180:
 1410              	.L105:
 1411              	.LBB24:
 295:..\..\..\arduinoLCD\test\Pain Drain\libraries\lvgl\src\misc/lv_txt.c ****             /*Just find the new line chars or string ends by incrementing `i`*/
 1412              		.loc 1 295 0 is_stmt 0 discriminator 1
 1413 0040 3B5C     		ldrb	r3, [r7, r0]
 1414 0042 0A2B     		cmp	r3, #10
 1415 0044 03D0     		beq	.L107
 295:..\..\..\arduinoLCD\test\Pain Drain\libraries\lvgl\src\misc/lv_txt.c ****             /*Just find the new line chars or string ends by incrementing `i`*/
 1416              		.loc 1 295 0 discriminator 3
 1417 0046 0D2B     		cmp	r3, #13
 1418 0048 01D0     		beq	.L107
 295:..\..\..\arduinoLCD\test\Pain Drain\libraries\lvgl\src\misc/lv_txt.c ****             /*Just find the new line chars or string ends by incrementing `i`*/
 1419              		.loc 1 295 0 discriminator 4
 1420 004a 002B     		cmp	r3, #0
 1421 004c F5D1     		bne	.L108
 1422              	.L107:
 298:..\..\..\arduinoLCD\test\Pain Drain\libraries\lvgl\src\misc/lv_txt.c ****         if(used_width) *used_width = -1;
 1423              		.loc 1 298 0 is_stmt 1
 1424 004e 002B     		cmp	r3, #0
 1425 0050 00D0     		beq	.L109
 298:..\..\..\arduinoLCD\test\Pain Drain\libraries\lvgl\src\misc/lv_txt.c ****         if(used_width) *used_width = -1;
 1426              		.loc 1 298 0 is_stmt 0 discriminator 1
 1427 0052 0130     		adds	r0, r0, #1
 1428              	.LVL181:
 1429              	.L109:
 299:..\..\..\arduinoLCD\test\Pain Drain\libraries\lvgl\src\misc/lv_txt.c ****         return i;
 1430              		.loc 1 299 0 is_stmt 1
 1431 0054 002D     		cmp	r5, #0
 1432 0056 5DD0     		beq	.L104
 299:..\..\..\arduinoLCD\test\Pain Drain\libraries\lvgl\src\misc/lv_txt.c ****         return i;
 1433              		.loc 1 299 0 is_stmt 0 discriminator 1
 1434 0058 0123     		movs	r3, #1
ARM GAS  C:\Users\haske\AppData\Local\Temp\ccg6iOQH.s 			page 48


 1435 005a 5B42     		rsbs	r3, r3, #0
 1436 005c 2B80     		strh	r3, [r5]
 1437 005e 59E0     		b	.L104
 1438              	.LVL182:
 1439              	.L125:
 1440              	.LBE24:
 303:..\..\..\arduinoLCD\test\Pain Drain\libraries\lvgl\src\misc/lv_txt.c ****     lv_text_cmd_state_t cmd_state = LV_TEXT_CMD_STATE_WAIT;
 1441              		.loc 1 303 0 is_stmt 1
 1442 0060 4B46     		mov	r3, r9
 1443 0062 9B07     		lsls	r3, r3, #30
 1444 0064 00D5     		bpl	.L110
 1445 0066 2D4E     		ldr	r6, .L126
 1446              	.L110:
 1447              	.LVL183:
 304:..\..\..\arduinoLCD\test\Pain Drain\libraries\lvgl\src\misc/lv_txt.c ****     uint32_t i = 0;                                        /*Iterating index into txt*/
 1448              		.loc 1 304 0
 1449 0068 0023     		movs	r3, #0
 1450 006a 1F22     		movs	r2, #31
 1451 006c 02A9     		add	r1, sp, #8
 1452              	.LVL184:
 1453 006e 8C46     		mov	ip, r1
 1454 0070 6244     		add	r2, r2, ip
 1455 0072 1370     		strb	r3, [r2]
 305:..\..\..\arduinoLCD\test\Pain Drain\libraries\lvgl\src\misc/lv_txt.c **** 
 1456              		.loc 1 305 0
 1457 0074 0893     		str	r3, [sp, #32]
 289:..\..\..\arduinoLCD\test\Pain Drain\libraries\lvgl\src\misc/lv_txt.c **** 
 1458              		.loc 1 289 0
 1459 0076 0024     		movs	r4, #0
 307:..\..\..\arduinoLCD\test\Pain Drain\libraries\lvgl\src\misc/lv_txt.c ****         uint32_t word_w = 0;
 1460              		.loc 1 307 0
 1461 0078 2BE0     		b	.L111
 1462              	.LVL185:
 1463              	.L116:
 1464              	.LBB25:
 308:..\..\..\arduinoLCD\test\Pain Drain\libraries\lvgl\src\misc/lv_txt.c ****         uint32_t advance = lv_txt_get_next_word(&txt[i], font, letter_space, max_width, flag, &word
 1465              		.loc 1 308 0
 1466 007a 0022     		movs	r2, #0
 1467 007c 0792     		str	r2, [sp, #28]
 309:..\..\..\arduinoLCD\test\Pain Drain\libraries\lvgl\src\misc/lv_txt.c ****         max_width -= word_w;
 1468              		.loc 1 309 0
 1469 007e 5A42     		rsbs	r2, r3, #0
 1470 0080 5341     		adcs	r3, r3, r2
 1471 0082 0393     		str	r3, [sp, #12]
 1472 0084 1F23     		movs	r3, #31
 1473 0086 02AA     		add	r2, sp, #8
 1474 0088 9446     		mov	ip, r2
 1475 008a 6344     		add	r3, r3, ip
 1476 008c 0293     		str	r3, [sp, #8]
 1477 008e 07AB     		add	r3, sp, #28
 1478 0090 0193     		str	r3, [sp, #4]
 1479 0092 4B46     		mov	r3, r9
 1480 0094 0093     		str	r3, [sp]
 1481 0096 3300     		movs	r3, r6
 1482 0098 059A     		ldr	r2, [sp, #20]
 1483 009a 0499     		ldr	r1, [sp, #16]
 1484 009c FFF7FEFF 		bl	lv_txt_get_next_word
ARM GAS  C:\Users\haske\AppData\Local\Temp\ccg6iOQH.s 			page 49


 1485              	.LVL186:
 310:..\..\..\arduinoLCD\test\Pain Drain\libraries\lvgl\src\misc/lv_txt.c ****         line_w += word_w;
 1486              		.loc 1 310 0
 1487 00a0 079B     		ldr	r3, [sp, #28]
 1488 00a2 9AB2     		uxth	r2, r3
 1489 00a4 B61A     		subs	r6, r6, r2
 1490              	.LVL187:
 1491 00a6 36B2     		sxth	r6, r6
 1492              	.LVL188:
 311:..\..\..\arduinoLCD\test\Pain Drain\libraries\lvgl\src\misc/lv_txt.c **** 
 1493              		.loc 1 311 0
 1494 00a8 1219     		adds	r2, r2, r4
 1495 00aa 14B2     		sxth	r4, r2
 1496              	.LVL189:
 313:..\..\..\arduinoLCD\test\Pain Drain\libraries\lvgl\src\misc/lv_txt.c ****             break;
 1497              		.loc 1 313 0
 1498 00ac 0028     		cmp	r0, #0
 1499 00ae 17D0     		beq	.L115
 317:..\..\..\arduinoLCD\test\Pain Drain\libraries\lvgl\src\misc/lv_txt.c **** 
 1500              		.loc 1 317 0
 1501 00b0 089B     		ldr	r3, [sp, #32]
 1502 00b2 9C46     		mov	ip, r3
 1503 00b4 6044     		add	r0, r0, ip
 1504              	.LVL190:
 1505 00b6 0890     		str	r0, [sp, #32]
 319:..\..\..\arduinoLCD\test\Pain Drain\libraries\lvgl\src\misc/lv_txt.c **** 
 1506              		.loc 1 319 0
 1507 00b8 3B78     		ldrb	r3, [r7]
 1508 00ba 0A2B     		cmp	r3, #10
 1509 00bc 10D0     		beq	.L115
 319:..\..\..\arduinoLCD\test\Pain Drain\libraries\lvgl\src\misc/lv_txt.c **** 
 1510              		.loc 1 319 0 is_stmt 0 discriminator 1
 1511 00be 0D2B     		cmp	r3, #13
 1512 00c0 0ED0     		beq	.L115
 321:..\..\..\arduinoLCD\test\Pain Drain\libraries\lvgl\src\misc/lv_txt.c ****             i++;  /*Include the following newline in the current line*/
 1513              		.loc 1 321 0 is_stmt 1
 1514 00c2 3B5C     		ldrb	r3, [r7, r0]
 1515 00c4 0A2B     		cmp	r3, #10
 1516 00c6 01D0     		beq	.L113
 321:..\..\..\arduinoLCD\test\Pain Drain\libraries\lvgl\src\misc/lv_txt.c ****             i++;  /*Include the following newline in the current line*/
 1517              		.loc 1 321 0 is_stmt 0 discriminator 1
 1518 00c8 0D2B     		cmp	r3, #13
 1519 00ca 02D1     		bne	.L111
 1520              	.L113:
 322:..\..\..\arduinoLCD\test\Pain Drain\libraries\lvgl\src\misc/lv_txt.c ****             break;
 1521              		.loc 1 322 0 is_stmt 1
 1522 00cc 0130     		adds	r0, r0, #1
 1523 00ce 0890     		str	r0, [sp, #32]
 323:..\..\..\arduinoLCD\test\Pain Drain\libraries\lvgl\src\misc/lv_txt.c ****         }
 1524              		.loc 1 323 0
 1525 00d0 06E0     		b	.L115
 1526              	.LVL191:
 1527              	.L111:
 1528              	.LBE25:
 307:..\..\..\arduinoLCD\test\Pain Drain\libraries\lvgl\src\misc/lv_txt.c ****         uint32_t word_w = 0;
 1529              		.loc 1 307 0
 1530 00d2 089B     		ldr	r3, [sp, #32]
ARM GAS  C:\Users\haske\AppData\Local\Temp\ccg6iOQH.s 			page 50


 1531 00d4 F818     		adds	r0, r7, r3
 1532 00d6 0278     		ldrb	r2, [r0]
 1533 00d8 002A     		cmp	r2, #0
 1534 00da 01D0     		beq	.L115
 307:..\..\..\arduinoLCD\test\Pain Drain\libraries\lvgl\src\misc/lv_txt.c ****         uint32_t word_w = 0;
 1535              		.loc 1 307 0 is_stmt 0 discriminator 1
 1536 00dc 002E     		cmp	r6, #0
 1537 00de CCDC     		bgt	.L116
 1538              	.L115:
 329:..\..\..\arduinoLCD\test\Pain Drain\libraries\lvgl\src\misc/lv_txt.c ****         uint32_t letter = _lv_txt_encoded_next(txt, &i);
 1539              		.loc 1 329 0 is_stmt 1
 1540 00e0 089B     		ldr	r3, [sp, #32]
 1541 00e2 002B     		cmp	r3, #0
 1542 00e4 0CD1     		bne	.L117
 1543              	.LBB26:
 330:..\..\..\arduinoLCD\test\Pain Drain\libraries\lvgl\src\misc/lv_txt.c ****         if(used_width != NULL) {
 1544              		.loc 1 330 0
 1545 00e6 0E4B     		ldr	r3, .L126+4
 1546 00e8 5B68     		ldr	r3, [r3, #4]
 1547 00ea 08A9     		add	r1, sp, #32
 1548 00ec 3800     		movs	r0, r7
 1549 00ee 9847     		blx	r3
 1550              	.LVL192:
 331:..\..\..\arduinoLCD\test\Pain Drain\libraries\lvgl\src\misc/lv_txt.c ****             line_w = lv_font_get_glyph_width(font, letter, '\0');
 1551              		.loc 1 331 0
 1552 00f0 002D     		cmp	r5, #0
 1553 00f2 05D0     		beq	.L117
 332:..\..\..\arduinoLCD\test\Pain Drain\libraries\lvgl\src\misc/lv_txt.c ****         }
 1554              		.loc 1 332 0
 1555 00f4 0022     		movs	r2, #0
 1556 00f6 0100     		movs	r1, r0
 1557 00f8 0498     		ldr	r0, [sp, #16]
 1558              	.LVL193:
 1559 00fa FFF7FEFF 		bl	lv_font_get_glyph_width
 1560              	.LVL194:
 1561 00fe 04B2     		sxth	r4, r0
 1562              	.LVL195:
 1563              	.L117:
 1564              	.LBE26:
 336:..\..\..\arduinoLCD\test\Pain Drain\libraries\lvgl\src\misc/lv_txt.c ****         *used_width = line_w;
 1565              		.loc 1 336 0
 1566 0100 002D     		cmp	r5, #0
 1567 0102 00D0     		beq	.L118
 337:..\..\..\arduinoLCD\test\Pain Drain\libraries\lvgl\src\misc/lv_txt.c ****     }
 1568              		.loc 1 337 0
 1569 0104 2C80     		strh	r4, [r5]
 1570              	.L118:
 340:..\..\..\arduinoLCD\test\Pain Drain\libraries\lvgl\src\misc/lv_txt.c **** }
 1571              		.loc 1 340 0
 1572 0106 0898     		ldr	r0, [sp, #32]
 1573 0108 04E0     		b	.L104
 1574              	.LVL196:
 1575              	.L119:
 285:..\..\..\arduinoLCD\test\Pain Drain\libraries\lvgl\src\misc/lv_txt.c ****     if(txt[0] == '\0') return 0;
 1576              		.loc 1 285 0
 1577 010a 0020     		movs	r0, #0
 1578              	.LVL197:
ARM GAS  C:\Users\haske\AppData\Local\Temp\ccg6iOQH.s 			page 51


 1579 010c 02E0     		b	.L104
 1580              	.LVL198:
 1581              	.L120:
 286:..\..\..\arduinoLCD\test\Pain Drain\libraries\lvgl\src\misc/lv_txt.c ****     if(font == NULL) return 0;
 1582              		.loc 1 286 0
 1583 010e 0020     		movs	r0, #0
 1584              	.LVL199:
 1585 0110 00E0     		b	.L104
 1586              	.LVL200:
 1587              	.L121:
 287:..\..\..\arduinoLCD\test\Pain Drain\libraries\lvgl\src\misc/lv_txt.c **** 
 1588              		.loc 1 287 0
 1589 0112 0020     		movs	r0, #0
 1590              	.LVL201:
 1591              	.L104:
 341:..\..\..\arduinoLCD\test\Pain Drain\libraries\lvgl\src\misc/lv_txt.c **** 
 1592              		.loc 1 341 0
 1593 0114 0AB0     		add	sp, sp, #40
 1594              		@ sp needed
 1595              	.LVL202:
 1596 0116 04BC     		pop	{r2}
 1597 0118 9146     		mov	r9, r2
 1598 011a F0BD     		pop	{r4, r5, r6, r7, pc}
 1599              	.L127:
 1600              		.align	2
 1601              	.L126:
 1602 011c FF1F0000 		.word	8191
 1603 0120 00000000 		.word	.LANCHOR0
 1604              		.cfi_endproc
 1605              	.LFE57:
 1606              		.size	_lv_txt_get_next_line, .-_lv_txt_get_next_line
 1607              		.section	.text._lv_txt_ins,"ax",%progbits
 1608              		.align	2
 1609              		.global	_lv_txt_ins
 1610              		.code	16
 1611              		.thumb_func
 1612              		.type	_lv_txt_ins, %function
 1613              	_lv_txt_ins:
 1614              	.LFB60:
 414:..\..\..\arduinoLCD\test\Pain Drain\libraries\lvgl\src\misc/lv_txt.c ****     if(txt_buf == NULL || ins_txt == NULL) return;
 1615              		.loc 1 414 0
 1616              		.cfi_startproc
 1617              		@ args = 0, pretend = 0, frame = 8
 1618              		@ frame_needed = 0, uses_anonymous_args = 0
 1619              	.LVL203:
 1620 0000 F0B5     		push	{r4, r5, r6, r7, lr}
 1621              		.cfi_def_cfa_offset 20
 1622              		.cfi_offset 4, -20
 1623              		.cfi_offset 5, -16
 1624              		.cfi_offset 6, -12
 1625              		.cfi_offset 7, -8
 1626              		.cfi_offset 14, -4
 1627 0002 83B0     		sub	sp, sp, #12
 1628              		.cfi_def_cfa_offset 32
 1629 0004 0700     		movs	r7, r0
 1630 0006 0191     		str	r1, [sp, #4]
 1631 0008 1600     		movs	r6, r2
ARM GAS  C:\Users\haske\AppData\Local\Temp\ccg6iOQH.s 			page 52


 415:..\..\..\arduinoLCD\test\Pain Drain\libraries\lvgl\src\misc/lv_txt.c **** 
 1632              		.loc 1 415 0
 1633 000a 0028     		cmp	r0, #0
 1634 000c 20D0     		beq	.L128
 415:..\..\..\arduinoLCD\test\Pain Drain\libraries\lvgl\src\misc/lv_txt.c **** 
 1635              		.loc 1 415 0 is_stmt 0 discriminator 1
 1636 000e 002A     		cmp	r2, #0
 1637 0010 1ED0     		beq	.L128
 417:..\..\..\arduinoLCD\test\Pain Drain\libraries\lvgl\src\misc/lv_txt.c ****     size_t ins_len = strlen(ins_txt);
 1638              		.loc 1 417 0 is_stmt 1
 1639 0012 FFF7FEFF 		bl	strlen
 1640              	.LVL204:
 1641 0016 0400     		movs	r4, r0
 1642              	.LVL205:
 418:..\..\..\arduinoLCD\test\Pain Drain\libraries\lvgl\src\misc/lv_txt.c ****     if(ins_len == 0) return;
 1643              		.loc 1 418 0
 1644 0018 3000     		movs	r0, r6
 1645              	.LVL206:
 1646 001a FFF7FEFF 		bl	strlen
 1647              	.LVL207:
 1648 001e 051E     		subs	r5, r0, #0
 1649              	.LVL208:
 419:..\..\..\arduinoLCD\test\Pain Drain\libraries\lvgl\src\misc/lv_txt.c **** 
 1650              		.loc 1 419 0
 1651 0020 16D0     		beq	.L128
 421:..\..\..\arduinoLCD\test\Pain Drain\libraries\lvgl\src\misc/lv_txt.c ****     pos              = _lv_txt_encoded_get_byte_id(txt_buf, pos); /*Convert to byte index instead o
 1652              		.loc 1 421 0
 1653 0022 2418     		adds	r4, r4, r0
 1654              	.LVL209:
 422:..\..\..\arduinoLCD\test\Pain Drain\libraries\lvgl\src\misc/lv_txt.c **** 
 1655              		.loc 1 422 0
 1656 0024 0B4B     		ldr	r3, .L134
 1657 0026 9B68     		ldr	r3, [r3, #8]
 1658 0028 0199     		ldr	r1, [sp, #4]
 1659 002a 3800     		movs	r0, r7
 1660              	.LVL210:
 1661 002c 9847     		blx	r3
 1662              	.LVL211:
 426:..\..\..\arduinoLCD\test\Pain Drain\libraries\lvgl\src\misc/lv_txt.c ****         txt_buf[i] = txt_buf[i - ins_len];
 1663              		.loc 1 426 0
 1664 002e 03E0     		b	.L130
 1665              	.LVL212:
 1666              	.L131:
 427:..\..\..\arduinoLCD\test\Pain Drain\libraries\lvgl\src\misc/lv_txt.c ****     }
 1667              		.loc 1 427 0 discriminator 3
 1668 0030 631B     		subs	r3, r4, r5
 1669 0032 FB5C     		ldrb	r3, [r7, r3]
 1670 0034 3B55     		strb	r3, [r7, r4]
 426:..\..\..\arduinoLCD\test\Pain Drain\libraries\lvgl\src\misc/lv_txt.c ****         txt_buf[i] = txt_buf[i - ins_len];
 1671              		.loc 1 426 0 discriminator 3
 1672 0036 013C     		subs	r4, r4, #1
 1673              	.LVL213:
 1674              	.L130:
 426:..\..\..\arduinoLCD\test\Pain Drain\libraries\lvgl\src\misc/lv_txt.c ****         txt_buf[i] = txt_buf[i - ins_len];
 1675              		.loc 1 426 0 is_stmt 0 discriminator 1
 1676 0038 2B18     		adds	r3, r5, r0
 1677 003a 9C42     		cmp	r4, r3
ARM GAS  C:\Users\haske\AppData\Local\Temp\ccg6iOQH.s 			page 53


 1678 003c F8D2     		bcs	.L131
 431:..\..\..\arduinoLCD\test\Pain Drain\libraries\lvgl\src\misc/lv_txt.c **** }
 1679              		.loc 1 431 0 is_stmt 1
 1680 003e 3818     		adds	r0, r7, r0
 1681              	.LVL214:
 1682 0040 04E0     		b	.L132
 1683              	.LVL215:
 1684              	.L133:
 1685              	.LBB27:
 1686              	.LBB28:
 200:c:\projects\paindrain\arduinolcd\test\pain drain\libraries\lvgl\src\misc\lv_mem.h ****         d8++;
 1687              		.loc 2 200 0
 1688 0042 3378     		ldrb	r3, [r6]
 1689 0044 0370     		strb	r3, [r0]
 201:c:\projects\paindrain\arduinolcd\test\pain drain\libraries\lvgl\src\misc\lv_mem.h ****         s8++;
 1690              		.loc 2 201 0
 1691 0046 0130     		adds	r0, r0, #1
 1692              	.LVL216:
 202:c:\projects\paindrain\arduinolcd\test\pain drain\libraries\lvgl\src\misc\lv_mem.h ****         len--;
 1693              		.loc 2 202 0
 1694 0048 0136     		adds	r6, r6, #1
 1695              	.LVL217:
 1696              		.loc 2 203 0
 1697 004a 013D     		subs	r5, r5, #1
 1698              	.LVL218:
 1699              	.L132:
 199:c:\projects\paindrain\arduinolcd\test\pain drain\libraries\lvgl\src\misc\lv_mem.h ****         *d8 = *s8;
 1700              		.loc 2 199 0
 1701 004c 002D     		cmp	r5, #0
 1702 004e F8D1     		bne	.L133
 1703              	.LVL219:
 1704              	.L128:
 1705              	.LBE28:
 1706              	.LBE27:
 432:..\..\..\arduinoLCD\test\Pain Drain\libraries\lvgl\src\misc/lv_txt.c **** 
 1707              		.loc 1 432 0
 1708 0050 03B0     		add	sp, sp, #12
 1709              		@ sp needed
 1710              	.LVL220:
 1711 0052 F0BD     		pop	{r4, r5, r6, r7, pc}
 1712              	.L135:
 1713              		.align	2
 1714              	.L134:
 1715 0054 00000000 		.word	.LANCHOR0
 1716              		.cfi_endproc
 1717              	.LFE60:
 1718              		.size	_lv_txt_ins, .-_lv_txt_ins
 1719              		.section	.text._lv_txt_cut,"ax",%progbits
 1720              		.align	2
 1721              		.global	_lv_txt_cut
 1722              		.code	16
 1723              		.thumb_func
 1724              		.type	_lv_txt_cut, %function
 1725              	_lv_txt_cut:
 1726              	.LFB61:
 435:..\..\..\arduinoLCD\test\Pain Drain\libraries\lvgl\src\misc/lv_txt.c ****     if(txt == NULL) return;
 1727              		.loc 1 435 0
ARM GAS  C:\Users\haske\AppData\Local\Temp\ccg6iOQH.s 			page 54


 1728              		.cfi_startproc
 1729              		@ args = 0, pretend = 0, frame = 8
 1730              		@ frame_needed = 0, uses_anonymous_args = 0
 1731              	.LVL221:
 1732 0000 F0B5     		push	{r4, r5, r6, r7, lr}
 1733              		.cfi_def_cfa_offset 20
 1734              		.cfi_offset 4, -20
 1735              		.cfi_offset 5, -16
 1736              		.cfi_offset 6, -12
 1737              		.cfi_offset 7, -8
 1738              		.cfi_offset 14, -4
 1739 0002 83B0     		sub	sp, sp, #12
 1740              		.cfi_def_cfa_offset 32
 1741 0004 0500     		movs	r5, r0
 1742 0006 0C00     		movs	r4, r1
 1743 0008 0192     		str	r2, [sp, #4]
 436:..\..\..\arduinoLCD\test\Pain Drain\libraries\lvgl\src\misc/lv_txt.c **** 
 1744              		.loc 1 436 0
 1745 000a 0028     		cmp	r0, #0
 1746 000c 14D0     		beq	.L136
 438:..\..\..\arduinoLCD\test\Pain Drain\libraries\lvgl\src\misc/lv_txt.c **** 
 1747              		.loc 1 438 0
 1748 000e FFF7FEFF 		bl	strlen
 1749              	.LVL222:
 1750 0012 0600     		movs	r6, r0
 1751              	.LVL223:
 440:..\..\..\arduinoLCD\test\Pain Drain\libraries\lvgl\src\misc/lv_txt.c ****     len = _lv_txt_encoded_get_byte_id(&txt[pos], len);
 1752              		.loc 1 440 0
 1753 0014 094F     		ldr	r7, .L140
 1754 0016 2100     		movs	r1, r4
 1755 0018 2800     		movs	r0, r5
 1756              	.LVL224:
 1757 001a BB68     		ldr	r3, [r7, #8]
 1758 001c 9847     		blx	r3
 1759              	.LVL225:
 1760 001e 0400     		movs	r4, r0
 1761              	.LVL226:
 441:..\..\..\arduinoLCD\test\Pain Drain\libraries\lvgl\src\misc/lv_txt.c **** 
 1762              		.loc 1 441 0
 1763 0020 BB68     		ldr	r3, [r7, #8]
 1764 0022 2818     		adds	r0, r5, r0
 1765              	.LVL227:
 1766 0024 0199     		ldr	r1, [sp, #4]
 1767 0026 9847     		blx	r3
 1768              	.LVL228:
 445:..\..\..\arduinoLCD\test\Pain Drain\libraries\lvgl\src\misc/lv_txt.c ****         txt[i] = txt[i + len];
 1769              		.loc 1 445 0
 1770 0028 03E0     		b	.L138
 1771              	.LVL229:
 1772              	.L139:
 446:..\..\..\arduinoLCD\test\Pain Drain\libraries\lvgl\src\misc/lv_txt.c ****     }
 1773              		.loc 1 446 0 discriminator 3
 1774 002a 2B19     		adds	r3, r5, r4
 1775 002c 1A5C     		ldrb	r2, [r3, r0]
 1776 002e 1A70     		strb	r2, [r3]
 445:..\..\..\arduinoLCD\test\Pain Drain\libraries\lvgl\src\misc/lv_txt.c ****         txt[i] = txt[i + len];
 1777              		.loc 1 445 0 discriminator 3
ARM GAS  C:\Users\haske\AppData\Local\Temp\ccg6iOQH.s 			page 55


 1778 0030 0134     		adds	r4, r4, #1
 1779              	.LVL230:
 1780              	.L138:
 445:..\..\..\arduinoLCD\test\Pain Drain\libraries\lvgl\src\misc/lv_txt.c ****         txt[i] = txt[i + len];
 1781              		.loc 1 445 0 is_stmt 0 discriminator 1
 1782 0032 331A     		subs	r3, r6, r0
 1783 0034 9C42     		cmp	r4, r3
 1784 0036 F8D9     		bls	.L139
 1785              	.LVL231:
 1786              	.L136:
 448:..\..\..\arduinoLCD\test\Pain Drain\libraries\lvgl\src\misc/lv_txt.c **** 
 1787              		.loc 1 448 0 is_stmt 1
 1788 0038 03B0     		add	sp, sp, #12
 1789              		@ sp needed
 1790              	.LVL232:
 1791 003a F0BD     		pop	{r4, r5, r6, r7, pc}
 1792              	.L141:
 1793              		.align	2
 1794              	.L140:
 1795 003c 00000000 		.word	.LANCHOR0
 1796              		.cfi_endproc
 1797              	.LFE61:
 1798              		.size	_lv_txt_cut, .-_lv_txt_cut
 1799              		.section	.text._lv_txt_set_text_vfmt,"ax",%progbits
 1800              		.align	2
 1801              		.global	_lv_txt_set_text_vfmt
 1802              		.code	16
 1803              		.thumb_func
 1804              		.type	_lv_txt_set_text_vfmt, %function
 1805              	_lv_txt_set_text_vfmt:
 1806              	.LFB62:
 451:..\..\..\arduinoLCD\test\Pain Drain\libraries\lvgl\src\misc/lv_txt.c ****     /*Allocate space for the new text by using trick from C99 standard section 7.19.6.12*/
 1807              		.loc 1 451 0
 1808              		.cfi_startproc
 1809              		@ args = 0, pretend = 0, frame = 16
 1810              		@ frame_needed = 0, uses_anonymous_args = 0
 1811              	.LVL233:
 1812 0000 F0B5     		push	{r4, r5, r6, r7, lr}
 1813              		.cfi_def_cfa_offset 20
 1814              		.cfi_offset 4, -20
 1815              		.cfi_offset 5, -16
 1816              		.cfi_offset 6, -12
 1817              		.cfi_offset 7, -8
 1818              		.cfi_offset 14, -4
 1819 0002 85B0     		sub	sp, sp, #20
 1820              		.cfi_def_cfa_offset 40
 1821 0004 0190     		str	r0, [sp, #4]
 1822 0006 0D00     		movs	r5, r1
 454:..\..\..\arduinoLCD\test\Pain Drain\libraries\lvgl\src\misc/lv_txt.c ****     uint32_t len = lv_vsnprintf(NULL, 0, fmt, ap_copy);
 1823              		.loc 1 454 0
 1824 0008 0391     		str	r1, [sp, #12]
 455:..\..\..\arduinoLCD\test\Pain Drain\libraries\lvgl\src\misc/lv_txt.c ****     va_end(ap_copy);
 1825              		.loc 1 455 0
 1826 000a 0B00     		movs	r3, r1
 1827 000c 0200     		movs	r2, r0
 1828 000e 0021     		movs	r1, #0
 1829              	.LVL234:
ARM GAS  C:\Users\haske\AppData\Local\Temp\ccg6iOQH.s 			page 56


 1830 0010 0020     		movs	r0, #0
 1831              	.LVL235:
 1832 0012 FFF7FEFF 		bl	lv_vsnprintf
 1833              	.LVL236:
 1834 0016 0700     		movs	r7, r0
 1835              	.LVL237:
 480:..\..\..\arduinoLCD\test\Pain Drain\libraries\lvgl\src\misc/lv_txt.c ****     LV_ASSERT_MALLOC(text);
 1836              		.loc 1 480 0
 1837 0018 461C     		adds	r6, r0, #1
 1838 001a 3000     		movs	r0, r6
 1839              	.LVL238:
 1840 001c FFF7FEFF 		bl	lv_mem_alloc
 1841              	.LVL239:
 1842 0020 041E     		subs	r4, r0, #0
 1843              	.LVL240:
 481:..\..\..\arduinoLCD\test\Pain Drain\libraries\lvgl\src\misc/lv_txt.c ****     if(text == NULL) {
 1844              		.loc 1 481 0
 1845 0022 00D1     		bne	.L143
 1846              	.L144:
 1847 0024 FEE7     		b	.L144
 1848              	.L143:
 482:..\..\..\arduinoLCD\test\Pain Drain\libraries\lvgl\src\misc/lv_txt.c ****         return NULL;
 1849              		.loc 1 482 0
 1850 0026 0028     		cmp	r0, #0
 1851 0028 09D0     		beq	.L146
 485:..\..\..\arduinoLCD\test\Pain Drain\libraries\lvgl\src\misc/lv_txt.c **** 
 1852              		.loc 1 485 0
 1853 002a C319     		adds	r3, r0, r7
 1854 002c 0022     		movs	r2, #0
 1855 002e 1A70     		strb	r2, [r3]
 1856              	.LVL241:
 487:..\..\..\arduinoLCD\test\Pain Drain\libraries\lvgl\src\misc/lv_txt.c **** #endif
 1857              		.loc 1 487 0
 1858 0030 2B00     		movs	r3, r5
 1859 0032 019A     		ldr	r2, [sp, #4]
 1860 0034 3100     		movs	r1, r6
 1861 0036 FFF7FEFF 		bl	lv_vsnprintf
 1862              	.LVL242:
 490:..\..\..\arduinoLCD\test\Pain Drain\libraries\lvgl\src\misc/lv_txt.c **** }
 1863              		.loc 1 490 0
 1864 003a 2000     		movs	r0, r4
 1865 003c 00E0     		b	.L145
 1866              	.LVL243:
 1867              	.L146:
 483:..\..\..\arduinoLCD\test\Pain Drain\libraries\lvgl\src\misc/lv_txt.c ****     }
 1868              		.loc 1 483 0
 1869 003e 0020     		movs	r0, #0
 1870              	.LVL244:
 1871              	.L145:
 491:..\..\..\arduinoLCD\test\Pain Drain\libraries\lvgl\src\misc/lv_txt.c **** 
 1872              		.loc 1 491 0
 1873 0040 05B0     		add	sp, sp, #20
 1874              		@ sp needed
 1875              	.LVL245:
 1876              	.LVL246:
 1877              	.LVL247:
 1878 0042 F0BD     		pop	{r4, r5, r6, r7, pc}
ARM GAS  C:\Users\haske\AppData\Local\Temp\ccg6iOQH.s 			page 57


 1879              		.cfi_endproc
 1880              	.LFE62:
 1881              		.size	_lv_txt_set_text_vfmt, .-_lv_txt_set_text_vfmt
 1882              		.section	.text._lv_txt_encoded_letter_next_2,"ax",%progbits
 1883              		.align	2
 1884              		.global	_lv_txt_encoded_letter_next_2
 1885              		.code	16
 1886              		.thumb_func
 1887              		.type	_lv_txt_encoded_letter_next_2, %function
 1888              	_lv_txt_encoded_letter_next_2:
 1889              	.LFB63:
 494:..\..\..\arduinoLCD\test\Pain Drain\libraries\lvgl\src\misc/lv_txt.c ****     *letter = _lv_txt_encoded_next(txt, ofs);
 1890              		.loc 1 494 0
 1891              		.cfi_startproc
 1892              		@ args = 0, pretend = 0, frame = 0
 1893              		@ frame_needed = 0, uses_anonymous_args = 0
 1894              	.LVL248:
 1895 0000 F8B5     		push	{r3, r4, r5, r6, r7, lr}
 1896              		.cfi_def_cfa_offset 24
 1897              		.cfi_offset 3, -24
 1898              		.cfi_offset 4, -20
 1899              		.cfi_offset 5, -16
 1900              		.cfi_offset 6, -12
 1901              		.cfi_offset 7, -8
 1902              		.cfi_offset 14, -4
 1903 0002 0400     		movs	r4, r0
 1904 0004 0F00     		movs	r7, r1
 1905 0006 1600     		movs	r6, r2
 1906 0008 1D00     		movs	r5, r3
 495:..\..\..\arduinoLCD\test\Pain Drain\libraries\lvgl\src\misc/lv_txt.c ****     *letter_next = *letter != '\0' ? _lv_txt_encoded_next(&txt[*ofs], NULL) : 0;
 1907              		.loc 1 495 0
 1908 000a 074B     		ldr	r3, .L149
 1909              	.LVL249:
 1910 000c 5B68     		ldr	r3, [r3, #4]
 1911 000e 2900     		movs	r1, r5
 1912              	.LVL250:
 1913 0010 9847     		blx	r3
 1914              	.LVL251:
 1915 0012 3860     		str	r0, [r7]
 496:..\..\..\arduinoLCD\test\Pain Drain\libraries\lvgl\src\misc/lv_txt.c **** }
 1916              		.loc 1 496 0
 1917 0014 0028     		cmp	r0, #0
 1918 0016 05D0     		beq	.L148
 496:..\..\..\arduinoLCD\test\Pain Drain\libraries\lvgl\src\misc/lv_txt.c **** }
 1919              		.loc 1 496 0 is_stmt 0 discriminator 1
 1920 0018 034B     		ldr	r3, .L149
 1921 001a 5B68     		ldr	r3, [r3, #4]
 1922 001c 2868     		ldr	r0, [r5]
 1923 001e 2018     		adds	r0, r4, r0
 1924 0020 0021     		movs	r1, #0
 1925 0022 9847     		blx	r3
 1926              	.LVL252:
 1927              	.L148:
 496:..\..\..\arduinoLCD\test\Pain Drain\libraries\lvgl\src\misc/lv_txt.c **** }
 1928              		.loc 1 496 0 discriminator 4
 1929 0024 3060     		str	r0, [r6]
 497:..\..\..\arduinoLCD\test\Pain Drain\libraries\lvgl\src\misc/lv_txt.c **** 
ARM GAS  C:\Users\haske\AppData\Local\Temp\ccg6iOQH.s 			page 58


 1930              		.loc 1 497 0 is_stmt 1 discriminator 4
 1931              		@ sp needed
 1932              	.LVL253:
 1933              	.LVL254:
 1934              	.LVL255:
 1935              	.LVL256:
 1936 0026 F8BD     		pop	{r3, r4, r5, r6, r7, pc}
 1937              	.L150:
 1938              		.align	2
 1939              	.L149:
 1940 0028 00000000 		.word	.LANCHOR0
 1941              		.cfi_endproc
 1942              	.LFE63:
 1943              		.size	_lv_txt_encoded_letter_next_2, .-_lv_txt_encoded_letter_next_2
 1944              		.section	.text.lv_txt_get_width,"ax",%progbits
 1945              		.align	2
 1946              		.global	lv_txt_get_width
 1947              		.code	16
 1948              		.thumb_func
 1949              		.type	lv_txt_get_width, %function
 1950              	lv_txt_get_width:
 1951              	.LFB58:
 345:..\..\..\arduinoLCD\test\Pain Drain\libraries\lvgl\src\misc/lv_txt.c ****     if(txt == NULL) return 0;
 1952              		.loc 1 345 0
 1953              		.cfi_startproc
 1954              		@ args = 4, pretend = 0, frame = 24
 1955              		@ frame_needed = 0, uses_anonymous_args = 0
 1956              	.LVL257:
 1957 0000 F0B5     		push	{r4, r5, r6, r7, lr}
 1958              		.cfi_def_cfa_offset 20
 1959              		.cfi_offset 4, -20
 1960              		.cfi_offset 5, -16
 1961              		.cfi_offset 6, -12
 1962              		.cfi_offset 7, -8
 1963              		.cfi_offset 14, -4
 1964 0002 4746     		mov	r7, r8
 1965 0004 80B4     		push	{r7}
 1966              		.cfi_def_cfa_offset 24
 1967              		.cfi_offset 8, -24
 1968 0006 86B0     		sub	sp, sp, #24
 1969              		.cfi_def_cfa_offset 48
 1970 0008 0400     		movs	r4, r0
 1971 000a 0E00     		movs	r6, r1
 1972 000c 0192     		str	r2, [sp, #4]
 1973 000e 9846     		mov	r8, r3
 1974 0010 0CAB     		add	r3, sp, #48
 1975              	.LVL258:
 1976 0012 1F78     		ldrb	r7, [r3]
 346:..\..\..\arduinoLCD\test\Pain Drain\libraries\lvgl\src\misc/lv_txt.c ****     if(font == NULL) return 0;
 1977              		.loc 1 346 0
 1978 0014 0028     		cmp	r0, #0
 1979 0016 37D0     		beq	.L158
 347:..\..\..\arduinoLCD\test\Pain Drain\libraries\lvgl\src\misc/lv_txt.c ****     if(txt[0] == '\0') return 0;
 1980              		.loc 1 347 0
 1981 0018 002A     		cmp	r2, #0
 1982 001a 37D0     		beq	.L159
 348:..\..\..\arduinoLCD\test\Pain Drain\libraries\lvgl\src\misc/lv_txt.c **** 
ARM GAS  C:\Users\haske\AppData\Local\Temp\ccg6iOQH.s 			page 59


 1983              		.loc 1 348 0
 1984 001c 0378     		ldrb	r3, [r0]
 1985              	.LVL259:
 1986 001e 002B     		cmp	r3, #0
 1987 0020 36D0     		beq	.L160
 350:..\..\..\arduinoLCD\test\Pain Drain\libraries\lvgl\src\misc/lv_txt.c ****     lv_coord_t width             = 0;
 1988              		.loc 1 350 0
 1989 0022 0023     		movs	r3, #0
 1990 0024 0593     		str	r3, [sp, #20]
 1991              	.LVL260:
 352:..\..\..\arduinoLCD\test\Pain Drain\libraries\lvgl\src\misc/lv_txt.c **** 
 1992              		.loc 1 352 0
 1993 0026 0B22     		movs	r2, #11
 1994              	.LVL261:
 1995 0028 02A9     		add	r1, sp, #8
 1996              	.LVL262:
 1997 002a 8C46     		mov	ip, r1
 1998 002c 6244     		add	r2, r2, ip
 1999 002e 1370     		strb	r3, [r2]
 354:..\..\..\arduinoLCD\test\Pain Drain\libraries\lvgl\src\misc/lv_txt.c ****         while(i < length) {
 2000              		.loc 1 354 0
 2001 0030 002E     		cmp	r6, #0
 2002 0032 1FD1     		bne	.L161
 351:..\..\..\arduinoLCD\test\Pain Drain\libraries\lvgl\src\misc/lv_txt.c ****     lv_text_cmd_state_t cmd_state = LV_TEXT_CMD_STATE_WAIT;
 2003              		.loc 1 351 0
 2004 0034 0020     		movs	r0, #0
 2005              	.LVL263:
 2006 0036 2EE0     		b	.L152
 2007              	.LVL264:
 2008              	.L157:
 2009              	.LBB29:
 358:..\..\..\arduinoLCD\test\Pain Drain\libraries\lvgl\src\misc/lv_txt.c **** 
 2010              		.loc 1 358 0
 2011 0038 05AB     		add	r3, sp, #20
 2012 003a 03AA     		add	r2, sp, #12
 2013 003c 02A9     		add	r1, sp, #8
 2014 003e 2000     		movs	r0, r4
 2015 0040 FFF7FEFF 		bl	_lv_txt_encoded_letter_next_2
 2016              	.LVL265:
 360:..\..\..\arduinoLCD\test\Pain Drain\libraries\lvgl\src\misc/lv_txt.c ****                 if(_lv_txt_is_cmd(&cmd_state, letter) != false) {
 2017              		.loc 1 360 0
 2018 0044 FB07     		lsls	r3, r7, #31
 2019 0046 08D5     		bpl	.L154
 361:..\..\..\arduinoLCD\test\Pain Drain\libraries\lvgl\src\misc/lv_txt.c ****                     continue;
 2020              		.loc 1 361 0
 2021 0048 0299     		ldr	r1, [sp, #8]
 2022 004a 0B20     		movs	r0, #11
 2023 004c 02AB     		add	r3, sp, #8
 2024 004e 9C46     		mov	ip, r3
 2025 0050 6044     		add	r0, r0, ip
 2026 0052 FFF7FEFF 		bl	_lv_txt_is_cmd
 2027              	.LVL266:
 2028 0056 0028     		cmp	r0, #0
 2029 0058 0DD1     		bne	.L153
 2030              	.L154:
 366:..\..\..\arduinoLCD\test\Pain Drain\libraries\lvgl\src\misc/lv_txt.c ****             if(char_width > 0) {
 2031              		.loc 1 366 0
ARM GAS  C:\Users\haske\AppData\Local\Temp\ccg6iOQH.s 			page 60


 2032 005a 039A     		ldr	r2, [sp, #12]
 2033 005c 0299     		ldr	r1, [sp, #8]
 2034 005e 0198     		ldr	r0, [sp, #4]
 2035 0060 FFF7FEFF 		bl	lv_font_get_glyph_width
 2036              	.LVL267:
 2037 0064 03B2     		sxth	r3, r0
 2038              	.LVL268:
 367:..\..\..\arduinoLCD\test\Pain Drain\libraries\lvgl\src\misc/lv_txt.c ****                 width += char_width;
 2039              		.loc 1 367 0
 2040 0066 002B     		cmp	r3, #0
 2041 0068 05DD     		ble	.L153
 368:..\..\..\arduinoLCD\test\Pain Drain\libraries\lvgl\src\misc/lv_txt.c ****                 width += letter_space;
 2042              		.loc 1 368 0
 2043 006a 4019     		adds	r0, r0, r5
 2044 006c 80B2     		uxth	r0, r0
 2045              	.LVL269:
 369:..\..\..\arduinoLCD\test\Pain Drain\libraries\lvgl\src\misc/lv_txt.c ****             }
 2046              		.loc 1 369 0
 2047 006e 4044     		add	r0, r0, r8
 2048              	.LVL270:
 2049 0070 05B2     		sxth	r5, r0
 2050              	.LVL271:
 2051 0072 00E0     		b	.L153
 2052              	.LVL272:
 2053              	.L161:
 2054              	.LBE29:
 2055 0074 0025     		movs	r5, #0
 2056              	.LVL273:
 2057              	.L153:
 355:..\..\..\arduinoLCD\test\Pain Drain\libraries\lvgl\src\misc/lv_txt.c ****             uint32_t letter;
 2058              		.loc 1 355 0
 2059 0076 059B     		ldr	r3, [sp, #20]
 2060 0078 9E42     		cmp	r6, r3
 2061 007a DDD8     		bhi	.L157
 373:..\..\..\arduinoLCD\test\Pain Drain\libraries\lvgl\src\misc/lv_txt.c ****             width -= letter_space; /*Trim the last letter space. Important if the text is center
 2062              		.loc 1 373 0
 2063 007c 002D     		cmp	r5, #0
 2064 007e 09DD     		ble	.L162
 374:..\..\..\arduinoLCD\test\Pain Drain\libraries\lvgl\src\misc/lv_txt.c ****                                       aligned*/
 2065              		.loc 1 374 0
 2066 0080 4346     		mov	r3, r8
 2067 0082 E81A     		subs	r0, r5, r3
 2068              	.LVL274:
 2069 0084 00B2     		sxth	r0, r0
 2070 0086 06E0     		b	.L152
 2071              	.LVL275:
 2072              	.L158:
 346:..\..\..\arduinoLCD\test\Pain Drain\libraries\lvgl\src\misc/lv_txt.c ****     if(font == NULL) return 0;
 2073              		.loc 1 346 0
 2074 0088 0020     		movs	r0, #0
 2075              	.LVL276:
 2076 008a 04E0     		b	.L152
 2077              	.LVL277:
 2078              	.L159:
 347:..\..\..\arduinoLCD\test\Pain Drain\libraries\lvgl\src\misc/lv_txt.c ****     if(txt[0] == '\0') return 0;
 2079              		.loc 1 347 0
 2080 008c 0020     		movs	r0, #0
ARM GAS  C:\Users\haske\AppData\Local\Temp\ccg6iOQH.s 			page 61


 2081              	.LVL278:
 2082 008e 02E0     		b	.L152
 2083              	.LVL279:
 2084              	.L160:
 348:..\..\..\arduinoLCD\test\Pain Drain\libraries\lvgl\src\misc/lv_txt.c **** 
 2085              		.loc 1 348 0
 2086 0090 0020     		movs	r0, #0
 2087              	.LVL280:
 2088 0092 00E0     		b	.L152
 2089              	.LVL281:
 2090              	.L162:
 2091 0094 2800     		movs	r0, r5
 2092              	.LVL282:
 2093              	.L152:
 380:..\..\..\arduinoLCD\test\Pain Drain\libraries\lvgl\src\misc/lv_txt.c **** 
 2094              		.loc 1 380 0
 2095 0096 06B0     		add	sp, sp, #24
 2096              		@ sp needed
 2097              	.LVL283:
 2098              	.LVL284:
 2099 0098 04BC     		pop	{r2}
 2100 009a 9046     		mov	r8, r2
 2101 009c F0BD     		pop	{r4, r5, r6, r7, pc}
 2102              		.cfi_endproc
 2103              	.LFE58:
 2104              		.size	lv_txt_get_width, .-lv_txt_get_width
 2105 009e C046     		.section	.text.lv_txt_get_size,"ax",%progbits
 2106              		.align	2
 2107              		.global	lv_txt_get_size
 2108              		.code	16
 2109              		.thumb_func
 2110              		.type	lv_txt_get_size, %function
 2111              	lv_txt_get_size:
 2112              	.LFB55:
  93:..\..\..\arduinoLCD\test\Pain Drain\libraries\lvgl\src\misc/lv_txt.c ****     size_res->x = 0;
 2113              		.loc 1 93 0
 2114              		.cfi_startproc
 2115              		@ args = 12, pretend = 0, frame = 16
 2116              		@ frame_needed = 0, uses_anonymous_args = 0
 2117              	.LVL285:
 2118 0000 F0B5     		push	{r4, r5, r6, r7, lr}
 2119              		.cfi_def_cfa_offset 20
 2120              		.cfi_offset 4, -20
 2121              		.cfi_offset 5, -16
 2122              		.cfi_offset 6, -12
 2123              		.cfi_offset 7, -8
 2124              		.cfi_offset 14, -4
 2125 0002 5F46     		mov	r7, fp
 2126 0004 5646     		mov	r6, r10
 2127 0006 4D46     		mov	r5, r9
 2128 0008 4446     		mov	r4, r8
 2129 000a F0B4     		push	{r4, r5, r6, r7}
 2130              		.cfi_def_cfa_offset 36
 2131              		.cfi_offset 8, -36
 2132              		.cfi_offset 9, -32
 2133              		.cfi_offset 10, -28
 2134              		.cfi_offset 11, -24
ARM GAS  C:\Users\haske\AppData\Local\Temp\ccg6iOQH.s 			page 62


 2135 000c 87B0     		sub	sp, sp, #28
 2136              		.cfi_def_cfa_offset 64
 2137 000e 0400     		movs	r4, r0
 2138 0010 8B46     		mov	fp, r1
 2139 0012 0292     		str	r2, [sp, #8]
 2140 0014 0393     		str	r3, [sp, #12]
 2141 0016 10AB     		add	r3, sp, #64
 2142              	.LVL286:
 2143 0018 0027     		movs	r7, #0
 2144 001a DF5F     		ldrsh	r7, [r3, r7]
 2145              	.LVL287:
 2146 001c 11AB     		add	r3, sp, #68
 2147              	.LVL288:
 2148 001e 0021     		movs	r1, #0
 2149 0020 5B5E     		ldrsh	r3, [r3, r1]
 2150              	.LVL289:
 2151 0022 0493     		str	r3, [sp, #16]
 2152 0024 12AB     		add	r3, sp, #72
 2153              	.LVL290:
 2154 0026 1B78     		ldrb	r3, [r3]
 2155              	.LVL291:
 2156 0028 9846     		mov	r8, r3
  94:..\..\..\arduinoLCD\test\Pain Drain\libraries\lvgl\src\misc/lv_txt.c ****     size_res->y = 0;
 2157              		.loc 1 94 0
 2158 002a 0023     		movs	r3, #0
 2159 002c 0380     		strh	r3, [r0]
  95:..\..\..\arduinoLCD\test\Pain Drain\libraries\lvgl\src\misc/lv_txt.c **** 
 2160              		.loc 1 95 0
 2161 002e 4380     		strh	r3, [r0, #2]
  97:..\..\..\arduinoLCD\test\Pain Drain\libraries\lvgl\src\misc/lv_txt.c ****     if(font == NULL) return;
 2162              		.loc 1 97 0
 2163 0030 5B46     		mov	r3, fp
 2164 0032 002B     		cmp	r3, #0
 2165 0034 57D0     		beq	.L163
  98:..\..\..\arduinoLCD\test\Pain Drain\libraries\lvgl\src\misc/lv_txt.c **** 
 2166              		.loc 1 98 0
 2167 0036 002A     		cmp	r2, #0
 2168 0038 55D0     		beq	.L163
 100:..\..\..\arduinoLCD\test\Pain Drain\libraries\lvgl\src\misc/lv_txt.c **** 
 2169              		.loc 1 100 0
 2170 003a 4346     		mov	r3, r8
 2171 003c 9B07     		lsls	r3, r3, #30
 2172 003e 01D5     		bpl	.L165
 2173 0040 2C4B     		ldr	r3, .L173
 2174 0042 0493     		str	r3, [sp, #16]
 2175              	.L165:
 2176              	.LVL292:
 2177              	.LBB30:
 2178              	.LBB31:
 2179              		.file 4 "..\\..\\..\\arduinoLCD\\test\\Pain Drain\\libraries\\lvgl\\src\\misc\\../font/lv_font.h"
   1:..\..\..\arduinoLCD\test\Pain Drain\libraries\lvgl\src\misc\../font/lv_font.h **** /**
   2:..\..\..\arduinoLCD\test\Pain Drain\libraries\lvgl\src\misc\../font/lv_font.h ****  * @file lv_font.h
   3:..\..\..\arduinoLCD\test\Pain Drain\libraries\lvgl\src\misc\../font/lv_font.h ****  *
   4:..\..\..\arduinoLCD\test\Pain Drain\libraries\lvgl\src\misc\../font/lv_font.h ****  */
   5:..\..\..\arduinoLCD\test\Pain Drain\libraries\lvgl\src\misc\../font/lv_font.h **** 
   6:..\..\..\arduinoLCD\test\Pain Drain\libraries\lvgl\src\misc\../font/lv_font.h **** #ifndef LV_FONT_H
   7:..\..\..\arduinoLCD\test\Pain Drain\libraries\lvgl\src\misc\../font/lv_font.h **** #define LV_FONT_H
ARM GAS  C:\Users\haske\AppData\Local\Temp\ccg6iOQH.s 			page 63


   8:..\..\..\arduinoLCD\test\Pain Drain\libraries\lvgl\src\misc\../font/lv_font.h **** 
   9:..\..\..\arduinoLCD\test\Pain Drain\libraries\lvgl\src\misc\../font/lv_font.h **** #ifdef __cplusplus
  10:..\..\..\arduinoLCD\test\Pain Drain\libraries\lvgl\src\misc\../font/lv_font.h **** extern "C" {
  11:..\..\..\arduinoLCD\test\Pain Drain\libraries\lvgl\src\misc\../font/lv_font.h **** #endif
  12:..\..\..\arduinoLCD\test\Pain Drain\libraries\lvgl\src\misc\../font/lv_font.h **** 
  13:..\..\..\arduinoLCD\test\Pain Drain\libraries\lvgl\src\misc\../font/lv_font.h **** /*********************
  14:..\..\..\arduinoLCD\test\Pain Drain\libraries\lvgl\src\misc\../font/lv_font.h ****  *      INCLUDES
  15:..\..\..\arduinoLCD\test\Pain Drain\libraries\lvgl\src\misc\../font/lv_font.h ****  *********************/
  16:..\..\..\arduinoLCD\test\Pain Drain\libraries\lvgl\src\misc\../font/lv_font.h **** #include "../lv_conf_internal.h"
  17:..\..\..\arduinoLCD\test\Pain Drain\libraries\lvgl\src\misc\../font/lv_font.h **** #include <stdint.h>
  18:..\..\..\arduinoLCD\test\Pain Drain\libraries\lvgl\src\misc\../font/lv_font.h **** #include <stddef.h>
  19:..\..\..\arduinoLCD\test\Pain Drain\libraries\lvgl\src\misc\../font/lv_font.h **** #include <stdbool.h>
  20:..\..\..\arduinoLCD\test\Pain Drain\libraries\lvgl\src\misc\../font/lv_font.h **** 
  21:..\..\..\arduinoLCD\test\Pain Drain\libraries\lvgl\src\misc\../font/lv_font.h **** #include "lv_symbol_def.h"
  22:..\..\..\arduinoLCD\test\Pain Drain\libraries\lvgl\src\misc\../font/lv_font.h **** #include "../misc/lv_area.h"
  23:..\..\..\arduinoLCD\test\Pain Drain\libraries\lvgl\src\misc\../font/lv_font.h **** 
  24:..\..\..\arduinoLCD\test\Pain Drain\libraries\lvgl\src\misc\../font/lv_font.h **** /*********************
  25:..\..\..\arduinoLCD\test\Pain Drain\libraries\lvgl\src\misc\../font/lv_font.h ****  *      DEFINES
  26:..\..\..\arduinoLCD\test\Pain Drain\libraries\lvgl\src\misc\../font/lv_font.h ****  *********************/
  27:..\..\..\arduinoLCD\test\Pain Drain\libraries\lvgl\src\misc\../font/lv_font.h **** 
  28:..\..\..\arduinoLCD\test\Pain Drain\libraries\lvgl\src\misc\../font/lv_font.h **** /* imgfont identifier */
  29:..\..\..\arduinoLCD\test\Pain Drain\libraries\lvgl\src\misc\../font/lv_font.h **** #define LV_IMGFONT_BPP 9
  30:..\..\..\arduinoLCD\test\Pain Drain\libraries\lvgl\src\misc\../font/lv_font.h **** 
  31:..\..\..\arduinoLCD\test\Pain Drain\libraries\lvgl\src\misc\../font/lv_font.h **** /**********************
  32:..\..\..\arduinoLCD\test\Pain Drain\libraries\lvgl\src\misc\../font/lv_font.h ****  *      TYPEDEFS
  33:..\..\..\arduinoLCD\test\Pain Drain\libraries\lvgl\src\misc\../font/lv_font.h ****  **********************/
  34:..\..\..\arduinoLCD\test\Pain Drain\libraries\lvgl\src\misc\../font/lv_font.h **** 
  35:..\..\..\arduinoLCD\test\Pain Drain\libraries\lvgl\src\misc\../font/lv_font.h **** /*------------------
  36:..\..\..\arduinoLCD\test\Pain Drain\libraries\lvgl\src\misc\../font/lv_font.h ****  * General types
  37:..\..\..\arduinoLCD\test\Pain Drain\libraries\lvgl\src\misc\../font/lv_font.h ****  *-----------------*/
  38:..\..\..\arduinoLCD\test\Pain Drain\libraries\lvgl\src\misc\../font/lv_font.h **** 
  39:..\..\..\arduinoLCD\test\Pain Drain\libraries\lvgl\src\misc\../font/lv_font.h **** struct _lv_font_t;
  40:..\..\..\arduinoLCD\test\Pain Drain\libraries\lvgl\src\misc\../font/lv_font.h **** /** Describes the properties of a glyph.*/
  41:..\..\..\arduinoLCD\test\Pain Drain\libraries\lvgl\src\misc\../font/lv_font.h **** typedef struct {
  42:..\..\..\arduinoLCD\test\Pain Drain\libraries\lvgl\src\misc\../font/lv_font.h ****     const struct _lv_font_t *
  43:..\..\..\arduinoLCD\test\Pain Drain\libraries\lvgl\src\misc\../font/lv_font.h ****         resolved_font; /**< Pointer to a font where the glyph was actually found after handling fal
  44:..\..\..\arduinoLCD\test\Pain Drain\libraries\lvgl\src\misc\../font/lv_font.h ****     uint16_t adv_w; /**< The glyph needs this space. Draw the next glyph after this width.*/
  45:..\..\..\arduinoLCD\test\Pain Drain\libraries\lvgl\src\misc\../font/lv_font.h ****     uint16_t box_w; /**< Width of the glyph's bounding box*/
  46:..\..\..\arduinoLCD\test\Pain Drain\libraries\lvgl\src\misc\../font/lv_font.h ****     uint16_t box_h; /**< Height of the glyph's bounding box*/
  47:..\..\..\arduinoLCD\test\Pain Drain\libraries\lvgl\src\misc\../font/lv_font.h ****     int16_t ofs_x;  /**< x offset of the bounding box*/
  48:..\..\..\arduinoLCD\test\Pain Drain\libraries\lvgl\src\misc\../font/lv_font.h ****     int16_t ofs_y;  /**< y offset of the bounding box*/
  49:..\..\..\arduinoLCD\test\Pain Drain\libraries\lvgl\src\misc\../font/lv_font.h ****     uint8_t bpp: 4;  /**< Bit-per-pixel: 1, 2, 4, 8*/
  50:..\..\..\arduinoLCD\test\Pain Drain\libraries\lvgl\src\misc\../font/lv_font.h ****     uint8_t is_placeholder: 1; /** Glyph is missing. But placeholder will still be displayed */
  51:..\..\..\arduinoLCD\test\Pain Drain\libraries\lvgl\src\misc\../font/lv_font.h **** } lv_font_glyph_dsc_t;
  52:..\..\..\arduinoLCD\test\Pain Drain\libraries\lvgl\src\misc\../font/lv_font.h **** 
  53:..\..\..\arduinoLCD\test\Pain Drain\libraries\lvgl\src\misc\../font/lv_font.h **** /** The bitmaps might be upscaled by 3 to achieve subpixel rendering.*/
  54:..\..\..\arduinoLCD\test\Pain Drain\libraries\lvgl\src\misc\../font/lv_font.h **** enum {
  55:..\..\..\arduinoLCD\test\Pain Drain\libraries\lvgl\src\misc\../font/lv_font.h ****     LV_FONT_SUBPX_NONE,
  56:..\..\..\arduinoLCD\test\Pain Drain\libraries\lvgl\src\misc\../font/lv_font.h ****     LV_FONT_SUBPX_HOR,
  57:..\..\..\arduinoLCD\test\Pain Drain\libraries\lvgl\src\misc\../font/lv_font.h ****     LV_FONT_SUBPX_VER,
  58:..\..\..\arduinoLCD\test\Pain Drain\libraries\lvgl\src\misc\../font/lv_font.h ****     LV_FONT_SUBPX_BOTH,
  59:..\..\..\arduinoLCD\test\Pain Drain\libraries\lvgl\src\misc\../font/lv_font.h **** };
  60:..\..\..\arduinoLCD\test\Pain Drain\libraries\lvgl\src\misc\../font/lv_font.h **** 
  61:..\..\..\arduinoLCD\test\Pain Drain\libraries\lvgl\src\misc\../font/lv_font.h **** typedef uint8_t lv_font_subpx_t;
  62:..\..\..\arduinoLCD\test\Pain Drain\libraries\lvgl\src\misc\../font/lv_font.h **** 
  63:..\..\..\arduinoLCD\test\Pain Drain\libraries\lvgl\src\misc\../font/lv_font.h **** /** Describe the properties of a font*/
  64:..\..\..\arduinoLCD\test\Pain Drain\libraries\lvgl\src\misc\../font/lv_font.h **** typedef struct _lv_font_t {
ARM GAS  C:\Users\haske\AppData\Local\Temp\ccg6iOQH.s 			page 64


  65:..\..\..\arduinoLCD\test\Pain Drain\libraries\lvgl\src\misc\../font/lv_font.h ****     /** Get a glyph's descriptor from a font*/
  66:..\..\..\arduinoLCD\test\Pain Drain\libraries\lvgl\src\misc\../font/lv_font.h ****     bool (*get_glyph_dsc)(const struct _lv_font_t *, lv_font_glyph_dsc_t *, uint32_t letter, uint32
  67:..\..\..\arduinoLCD\test\Pain Drain\libraries\lvgl\src\misc\../font/lv_font.h **** 
  68:..\..\..\arduinoLCD\test\Pain Drain\libraries\lvgl\src\misc\../font/lv_font.h ****     /** Get a glyph's bitmap from a font*/
  69:..\..\..\arduinoLCD\test\Pain Drain\libraries\lvgl\src\misc\../font/lv_font.h ****     const uint8_t * (*get_glyph_bitmap)(const struct _lv_font_t *, uint32_t);
  70:..\..\..\arduinoLCD\test\Pain Drain\libraries\lvgl\src\misc\../font/lv_font.h **** 
  71:..\..\..\arduinoLCD\test\Pain Drain\libraries\lvgl\src\misc\../font/lv_font.h ****     /*Pointer to the font in a font pack (must have the same line height)*/
  72:..\..\..\arduinoLCD\test\Pain Drain\libraries\lvgl\src\misc\../font/lv_font.h ****     lv_coord_t line_height;         /**< The real line height where any text fits*/
  73:..\..\..\arduinoLCD\test\Pain Drain\libraries\lvgl\src\misc\../font/lv_font.h ****     lv_coord_t base_line;           /**< Base line measured from the top of the line_height*/
  74:..\..\..\arduinoLCD\test\Pain Drain\libraries\lvgl\src\misc\../font/lv_font.h ****     uint8_t subpx  : 2;             /**< An element of `lv_font_subpx_t`*/
  75:..\..\..\arduinoLCD\test\Pain Drain\libraries\lvgl\src\misc\../font/lv_font.h **** 
  76:..\..\..\arduinoLCD\test\Pain Drain\libraries\lvgl\src\misc\../font/lv_font.h ****     int8_t underline_position;      /**< Distance between the top of the underline and base line (<
  77:..\..\..\arduinoLCD\test\Pain Drain\libraries\lvgl\src\misc\../font/lv_font.h ****     int8_t underline_thickness;     /**< Thickness of the underline*/
  78:..\..\..\arduinoLCD\test\Pain Drain\libraries\lvgl\src\misc\../font/lv_font.h **** 
  79:..\..\..\arduinoLCD\test\Pain Drain\libraries\lvgl\src\misc\../font/lv_font.h ****     const void * dsc;               /**< Store implementation specific or run_time data or caching 
  80:..\..\..\arduinoLCD\test\Pain Drain\libraries\lvgl\src\misc\../font/lv_font.h ****     const struct _lv_font_t * fallback;   /**< Fallback font for missing glyph. Resolved recursivel
  81:..\..\..\arduinoLCD\test\Pain Drain\libraries\lvgl\src\misc\../font/lv_font.h **** #if LV_USE_USER_DATA
  82:..\..\..\arduinoLCD\test\Pain Drain\libraries\lvgl\src\misc\../font/lv_font.h ****     void * user_data;               /**< Custom user data for font.*/
  83:..\..\..\arduinoLCD\test\Pain Drain\libraries\lvgl\src\misc\../font/lv_font.h **** #endif
  84:..\..\..\arduinoLCD\test\Pain Drain\libraries\lvgl\src\misc\../font/lv_font.h **** } lv_font_t;
  85:..\..\..\arduinoLCD\test\Pain Drain\libraries\lvgl\src\misc\../font/lv_font.h **** 
  86:..\..\..\arduinoLCD\test\Pain Drain\libraries\lvgl\src\misc\../font/lv_font.h **** /**********************
  87:..\..\..\arduinoLCD\test\Pain Drain\libraries\lvgl\src\misc\../font/lv_font.h ****  * GLOBAL PROTOTYPES
  88:..\..\..\arduinoLCD\test\Pain Drain\libraries\lvgl\src\misc\../font/lv_font.h ****  **********************/
  89:..\..\..\arduinoLCD\test\Pain Drain\libraries\lvgl\src\misc\../font/lv_font.h **** 
  90:..\..\..\arduinoLCD\test\Pain Drain\libraries\lvgl\src\misc\../font/lv_font.h **** /**
  91:..\..\..\arduinoLCD\test\Pain Drain\libraries\lvgl\src\misc\../font/lv_font.h ****  * Return with the bitmap of a font.
  92:..\..\..\arduinoLCD\test\Pain Drain\libraries\lvgl\src\misc\../font/lv_font.h ****  * @param font_p pointer to a font
  93:..\..\..\arduinoLCD\test\Pain Drain\libraries\lvgl\src\misc\../font/lv_font.h ****  * @param letter a UNICODE character code
  94:..\..\..\arduinoLCD\test\Pain Drain\libraries\lvgl\src\misc\../font/lv_font.h ****  * @return pointer to the bitmap of the letter
  95:..\..\..\arduinoLCD\test\Pain Drain\libraries\lvgl\src\misc\../font/lv_font.h ****  */
  96:..\..\..\arduinoLCD\test\Pain Drain\libraries\lvgl\src\misc\../font/lv_font.h **** const uint8_t * lv_font_get_glyph_bitmap(const lv_font_t * font_p, uint32_t letter);
  97:..\..\..\arduinoLCD\test\Pain Drain\libraries\lvgl\src\misc\../font/lv_font.h **** 
  98:..\..\..\arduinoLCD\test\Pain Drain\libraries\lvgl\src\misc\../font/lv_font.h **** /**
  99:..\..\..\arduinoLCD\test\Pain Drain\libraries\lvgl\src\misc\../font/lv_font.h ****  * Get the descriptor of a glyph
 100:..\..\..\arduinoLCD\test\Pain Drain\libraries\lvgl\src\misc\../font/lv_font.h ****  * @param font_p pointer to font
 101:..\..\..\arduinoLCD\test\Pain Drain\libraries\lvgl\src\misc\../font/lv_font.h ****  * @param dsc_out store the result descriptor here
 102:..\..\..\arduinoLCD\test\Pain Drain\libraries\lvgl\src\misc\../font/lv_font.h ****  * @param letter a UNICODE letter code
 103:..\..\..\arduinoLCD\test\Pain Drain\libraries\lvgl\src\misc\../font/lv_font.h ****  * @param letter_next the next letter after `letter`. Used for kerning
 104:..\..\..\arduinoLCD\test\Pain Drain\libraries\lvgl\src\misc\../font/lv_font.h ****  * @return true: descriptor is successfully loaded into `dsc_out`.
 105:..\..\..\arduinoLCD\test\Pain Drain\libraries\lvgl\src\misc\../font/lv_font.h ****  *         false: the letter was not found, no data is loaded to `dsc_out`
 106:..\..\..\arduinoLCD\test\Pain Drain\libraries\lvgl\src\misc\../font/lv_font.h ****  */
 107:..\..\..\arduinoLCD\test\Pain Drain\libraries\lvgl\src\misc\../font/lv_font.h **** bool lv_font_get_glyph_dsc(const lv_font_t * font_p, lv_font_glyph_dsc_t * dsc_out, uint32_t letter
 108:..\..\..\arduinoLCD\test\Pain Drain\libraries\lvgl\src\misc\../font/lv_font.h ****                            uint32_t letter_next);
 109:..\..\..\arduinoLCD\test\Pain Drain\libraries\lvgl\src\misc\../font/lv_font.h **** 
 110:..\..\..\arduinoLCD\test\Pain Drain\libraries\lvgl\src\misc\../font/lv_font.h **** /**
 111:..\..\..\arduinoLCD\test\Pain Drain\libraries\lvgl\src\misc\../font/lv_font.h ****  * Get the width of a glyph with kerning
 112:..\..\..\arduinoLCD\test\Pain Drain\libraries\lvgl\src\misc\../font/lv_font.h ****  * @param font pointer to a font
 113:..\..\..\arduinoLCD\test\Pain Drain\libraries\lvgl\src\misc\../font/lv_font.h ****  * @param letter a UNICODE letter
 114:..\..\..\arduinoLCD\test\Pain Drain\libraries\lvgl\src\misc\../font/lv_font.h ****  * @param letter_next the next letter after `letter`. Used for kerning
 115:..\..\..\arduinoLCD\test\Pain Drain\libraries\lvgl\src\misc\../font/lv_font.h ****  * @return the width of the glyph
 116:..\..\..\arduinoLCD\test\Pain Drain\libraries\lvgl\src\misc\../font/lv_font.h ****  */
 117:..\..\..\arduinoLCD\test\Pain Drain\libraries\lvgl\src\misc\../font/lv_font.h **** uint16_t lv_font_get_glyph_width(const lv_font_t * font, uint32_t letter, uint32_t letter_next);
 118:..\..\..\arduinoLCD\test\Pain Drain\libraries\lvgl\src\misc\../font/lv_font.h **** 
 119:..\..\..\arduinoLCD\test\Pain Drain\libraries\lvgl\src\misc\../font/lv_font.h **** /**
 120:..\..\..\arduinoLCD\test\Pain Drain\libraries\lvgl\src\misc\../font/lv_font.h ****  * Get the line height of a font. All characters fit into this height
 121:..\..\..\arduinoLCD\test\Pain Drain\libraries\lvgl\src\misc\../font/lv_font.h ****  * @param font_p pointer to a font
ARM GAS  C:\Users\haske\AppData\Local\Temp\ccg6iOQH.s 			page 65


 122:..\..\..\arduinoLCD\test\Pain Drain\libraries\lvgl\src\misc\../font/lv_font.h ****  * @return the height of a font
 123:..\..\..\arduinoLCD\test\Pain Drain\libraries\lvgl\src\misc\../font/lv_font.h ****  */
 124:..\..\..\arduinoLCD\test\Pain Drain\libraries\lvgl\src\misc\../font/lv_font.h **** static inline lv_coord_t lv_font_get_line_height(const lv_font_t * font_p)
 125:..\..\..\arduinoLCD\test\Pain Drain\libraries\lvgl\src\misc\../font/lv_font.h **** {
 126:..\..\..\arduinoLCD\test\Pain Drain\libraries\lvgl\src\misc\../font/lv_font.h ****     return font_p->line_height;
 2180              		.loc 4 126 0
 2181 0044 029B     		ldr	r3, [sp, #8]
 2182 0046 0822     		movs	r2, #8
 2183 0048 9B5E     		ldrsh	r3, [r3, r2]
 2184              	.LVL293:
 2185 004a 9946     		mov	r9, r3
 2186              	.LVL294:
 2187              	.LBE31:
 2188              	.LBE30:
 104:..\..\..\arduinoLCD\test\Pain Drain\libraries\lvgl\src\misc/lv_txt.c **** 
 2189              		.loc 1 104 0
 2190 004c 6A46     		mov	r2, sp
 2191 004e D382     		strh	r3, [r2, #22]
 2192 0050 D38A     		ldrh	r3, [r2, #22]
 2193 0052 9A46     		mov	r10, r3
 2194              	.LVL295:
 102:..\..\..\arduinoLCD\test\Pain Drain\libraries\lvgl\src\misc/lv_txt.c ****     uint32_t new_line_start = 0;
 2195              		.loc 1 102 0
 2196 0054 0026     		movs	r6, #0
 2197 0056 3B00     		movs	r3, r7
 2198 0058 5746     		mov	r7, r10
 2199 005a 9A46     		mov	r10, r3
 2200              	.LVL296:
 107:..\..\..\arduinoLCD\test\Pain Drain\libraries\lvgl\src\misc/lv_txt.c ****         new_line_start += _lv_txt_get_next_line(&text[line_start], font, letter_space, max_width, N
 2201              		.loc 1 107 0
 2202 005c 24E0     		b	.L166
 2203              	.LVL297:
 2204              	.L168:
 2205              	.LBB32:
 108:..\..\..\arduinoLCD\test\Pain Drain\libraries\lvgl\src\misc/lv_txt.c **** 
 2206              		.loc 1 108 0
 2207 005e 4346     		mov	r3, r8
 2208 0060 0193     		str	r3, [sp, #4]
 2209 0062 0023     		movs	r3, #0
 2210 0064 0093     		str	r3, [sp]
 2211 0066 049B     		ldr	r3, [sp, #16]
 2212 0068 039A     		ldr	r2, [sp, #12]
 2213 006a 0299     		ldr	r1, [sp, #8]
 2214 006c 2800     		movs	r0, r5
 2215 006e FFF7FEFF 		bl	_lv_txt_get_next_line
 2216              	.LVL298:
 2217 0072 3618     		adds	r6, r6, r0
 2218              	.LVL299:
 110:..\..\..\arduinoLCD\test\Pain Drain\libraries\lvgl\src\misc/lv_txt.c ****             LV_LOG_WARN("lv_txt_get_size: integer overflow while calculating text height");
 2219              		.loc 1 110 0
 2220 0074 0221     		movs	r1, #2
 2221 0076 635E     		ldrsh	r3, [r4, r1]
 2222 0078 DA19     		adds	r2, r3, r7
 2223 007a 5244     		add	r2, r2, r10
 2224 007c 1E49     		ldr	r1, .L173+4
 2225 007e 8A42     		cmp	r2, r1
 2226 0080 31D8     		bhi	.L163
ARM GAS  C:\Users\haske\AppData\Local\Temp\ccg6iOQH.s 			page 66


 115:..\..\..\arduinoLCD\test\Pain Drain\libraries\lvgl\src\misc/lv_txt.c ****             size_res->y += line_space;
 2227              		.loc 1 115 0
 2228 0082 FB18     		adds	r3, r7, r3
 2229 0084 9BB2     		uxth	r3, r3
 116:..\..\..\arduinoLCD\test\Pain Drain\libraries\lvgl\src\misc/lv_txt.c ****         }
 2230              		.loc 1 116 0
 2231 0086 5344     		add	r3, r3, r10
 2232 0088 6380     		strh	r3, [r4, #2]
 120:..\..\..\arduinoLCD\test\Pain Drain\libraries\lvgl\src\misc/lv_txt.c ****                                                       flag);
 2233              		.loc 1 120 0
 2234 008a 4146     		mov	r1, r8
 2235 008c 0091     		str	r1, [sp]
 2236 008e 039B     		ldr	r3, [sp, #12]
