ARM GAS  C:\Users\haske\AppData\Local\Temp\ccswauRt.s 			page 1


   1              		.syntax unified
   2              		.cpu cortex-m0plus
   3              		.fpu softvfp
   4              		.eabi_attribute 20, 1
   5              		.eabi_attribute 21, 1
   6              		.eabi_attribute 23, 3
   7              		.eabi_attribute 24, 1
   8              		.eabi_attribute 25, 1
   9              		.eabi_attribute 26, 1
  10              		.eabi_attribute 30, 1
  11              		.eabi_attribute 34, 0
  12              		.eabi_attribute 18, 4
  13              		.thumb
  14              		.syntax unified
  15              		.file	"lv_tlsf.c"
  16              		.text
  17              	.Ltext0:
  18              		.cfi_sections	.debug_frame
  19              		.section	.text.block_size,"ax",%progbits
  20              		.align	2
  21              		.code	16
  22              		.thumb_func
  23              		.type	block_size, %function
  24              	block_size:
  25              	.LFB3:
  26              		.file 1 "..\\..\\..\\arduinoLCD\\test\\Pain Drain\\libraries\\lvgl\\src\\misc\\lv_tlsf.c"
   1:..\..\..\arduinoLCD\test\Pain Drain\libraries\lvgl\src\misc/lv_tlsf.c **** #include "../lv_conf_internal.h"
   2:..\..\..\arduinoLCD\test\Pain Drain\libraries\lvgl\src\misc/lv_tlsf.c **** #if LV_MEM_CUSTOM == 0
   3:..\..\..\arduinoLCD\test\Pain Drain\libraries\lvgl\src\misc/lv_tlsf.c **** 
   4:..\..\..\arduinoLCD\test\Pain Drain\libraries\lvgl\src\misc/lv_tlsf.c **** #include <limits.h>
   5:..\..\..\arduinoLCD\test\Pain Drain\libraries\lvgl\src\misc/lv_tlsf.c **** #include "lv_tlsf.h"
   6:..\..\..\arduinoLCD\test\Pain Drain\libraries\lvgl\src\misc/lv_tlsf.c **** #include "lv_mem.h"
   7:..\..\..\arduinoLCD\test\Pain Drain\libraries\lvgl\src\misc/lv_tlsf.c **** #include "lv_log.h"
   8:..\..\..\arduinoLCD\test\Pain Drain\libraries\lvgl\src\misc/lv_tlsf.c **** #include "lv_assert.h"
   9:..\..\..\arduinoLCD\test\Pain Drain\libraries\lvgl\src\misc/lv_tlsf.c **** 
  10:..\..\..\arduinoLCD\test\Pain Drain\libraries\lvgl\src\misc/lv_tlsf.c **** #undef  printf
  11:..\..\..\arduinoLCD\test\Pain Drain\libraries\lvgl\src\misc/lv_tlsf.c **** #define printf LV_LOG_ERROR
  12:..\..\..\arduinoLCD\test\Pain Drain\libraries\lvgl\src\misc/lv_tlsf.c **** 
  13:..\..\..\arduinoLCD\test\Pain Drain\libraries\lvgl\src\misc/lv_tlsf.c **** #define TLSF_MAX_POOL_SIZE LV_MEM_SIZE
  14:..\..\..\arduinoLCD\test\Pain Drain\libraries\lvgl\src\misc/lv_tlsf.c **** 
  15:..\..\..\arduinoLCD\test\Pain Drain\libraries\lvgl\src\misc/lv_tlsf.c **** #if !defined(_DEBUG)
  16:..\..\..\arduinoLCD\test\Pain Drain\libraries\lvgl\src\misc/lv_tlsf.c ****     #define _DEBUG 0
  17:..\..\..\arduinoLCD\test\Pain Drain\libraries\lvgl\src\misc/lv_tlsf.c **** #endif
  18:..\..\..\arduinoLCD\test\Pain Drain\libraries\lvgl\src\misc/lv_tlsf.c **** 
  19:..\..\..\arduinoLCD\test\Pain Drain\libraries\lvgl\src\misc/lv_tlsf.c **** #if defined(__cplusplus)
  20:..\..\..\arduinoLCD\test\Pain Drain\libraries\lvgl\src\misc/lv_tlsf.c ****     #define tlsf_decl inline
  21:..\..\..\arduinoLCD\test\Pain Drain\libraries\lvgl\src\misc/lv_tlsf.c **** #else
  22:..\..\..\arduinoLCD\test\Pain Drain\libraries\lvgl\src\misc/lv_tlsf.c ****     #define tlsf_decl static
  23:..\..\..\arduinoLCD\test\Pain Drain\libraries\lvgl\src\misc/lv_tlsf.c **** #endif
  24:..\..\..\arduinoLCD\test\Pain Drain\libraries\lvgl\src\misc/lv_tlsf.c **** 
  25:..\..\..\arduinoLCD\test\Pain Drain\libraries\lvgl\src\misc/lv_tlsf.c **** /*
  26:..\..\..\arduinoLCD\test\Pain Drain\libraries\lvgl\src\misc/lv_tlsf.c **** ** Architecture-specific bit manipulation routines.
  27:..\..\..\arduinoLCD\test\Pain Drain\libraries\lvgl\src\misc/lv_tlsf.c **** **
  28:..\..\..\arduinoLCD\test\Pain Drain\libraries\lvgl\src\misc/lv_tlsf.c **** ** TLSF achieves O(1) cost for malloc and free operations by limiting
  29:..\..\..\arduinoLCD\test\Pain Drain\libraries\lvgl\src\misc/lv_tlsf.c **** ** the search for a free block to a free list of guaranteed size
  30:..\..\..\arduinoLCD\test\Pain Drain\libraries\lvgl\src\misc/lv_tlsf.c **** ** adequate to fulfill the request, combined with efficient free list
  31:..\..\..\arduinoLCD\test\Pain Drain\libraries\lvgl\src\misc/lv_tlsf.c **** ** queries using bitmasks and architecture-specific bit-manipulation
ARM GAS  C:\Users\haske\AppData\Local\Temp\ccswauRt.s 			page 2


  32:..\..\..\arduinoLCD\test\Pain Drain\libraries\lvgl\src\misc/lv_tlsf.c **** ** routines.
  33:..\..\..\arduinoLCD\test\Pain Drain\libraries\lvgl\src\misc/lv_tlsf.c **** **
  34:..\..\..\arduinoLCD\test\Pain Drain\libraries\lvgl\src\misc/lv_tlsf.c **** ** Most modern processors provide instructions to count leading zeroes
  35:..\..\..\arduinoLCD\test\Pain Drain\libraries\lvgl\src\misc/lv_tlsf.c **** ** in a word, find the lowest and highest set bit, etc. These
  36:..\..\..\arduinoLCD\test\Pain Drain\libraries\lvgl\src\misc/lv_tlsf.c **** ** specific implementations will be used when available, falling back
  37:..\..\..\arduinoLCD\test\Pain Drain\libraries\lvgl\src\misc/lv_tlsf.c **** ** to a reasonably efficient generic implementation.
  38:..\..\..\arduinoLCD\test\Pain Drain\libraries\lvgl\src\misc/lv_tlsf.c **** **
  39:..\..\..\arduinoLCD\test\Pain Drain\libraries\lvgl\src\misc/lv_tlsf.c **** ** NOTE: TLSF spec relies on ffs/fls returning value 0..31.
  40:..\..\..\arduinoLCD\test\Pain Drain\libraries\lvgl\src\misc/lv_tlsf.c **** ** ffs/fls return 1-32 by default, returning 0 for error.
  41:..\..\..\arduinoLCD\test\Pain Drain\libraries\lvgl\src\misc/lv_tlsf.c **** */
  42:..\..\..\arduinoLCD\test\Pain Drain\libraries\lvgl\src\misc/lv_tlsf.c **** 
  43:..\..\..\arduinoLCD\test\Pain Drain\libraries\lvgl\src\misc/lv_tlsf.c **** /*
  44:..\..\..\arduinoLCD\test\Pain Drain\libraries\lvgl\src\misc/lv_tlsf.c **** ** Detect whether or not we are building for a 32- or 64-bit (LP/LLP)
  45:..\..\..\arduinoLCD\test\Pain Drain\libraries\lvgl\src\misc/lv_tlsf.c **** ** architecture. There is no reliable portable method at compile-time.
  46:..\..\..\arduinoLCD\test\Pain Drain\libraries\lvgl\src\misc/lv_tlsf.c **** */
  47:..\..\..\arduinoLCD\test\Pain Drain\libraries\lvgl\src\misc/lv_tlsf.c **** #if defined (__alpha__) || defined (__ia64__) || defined (__x86_64__) \
  48:..\..\..\arduinoLCD\test\Pain Drain\libraries\lvgl\src\misc/lv_tlsf.c ****     || defined (_WIN64) || defined (__LP64__) || defined (__LLP64__)
  49:..\..\..\arduinoLCD\test\Pain Drain\libraries\lvgl\src\misc/lv_tlsf.c ****     #define TLSF_64BIT
  50:..\..\..\arduinoLCD\test\Pain Drain\libraries\lvgl\src\misc/lv_tlsf.c **** #endif
  51:..\..\..\arduinoLCD\test\Pain Drain\libraries\lvgl\src\misc/lv_tlsf.c **** 
  52:..\..\..\arduinoLCD\test\Pain Drain\libraries\lvgl\src\misc/lv_tlsf.c **** /*
  53:..\..\..\arduinoLCD\test\Pain Drain\libraries\lvgl\src\misc/lv_tlsf.c **** ** Returns one plus the index of the most significant 1-bit of n,
  54:..\..\..\arduinoLCD\test\Pain Drain\libraries\lvgl\src\misc/lv_tlsf.c **** ** or if n is zero, returns zero.
  55:..\..\..\arduinoLCD\test\Pain Drain\libraries\lvgl\src\misc/lv_tlsf.c **** */
  56:..\..\..\arduinoLCD\test\Pain Drain\libraries\lvgl\src\misc/lv_tlsf.c **** #ifdef TLSF_64BIT
  57:..\..\..\arduinoLCD\test\Pain Drain\libraries\lvgl\src\misc/lv_tlsf.c ****     #define TLSF_FLS(n) ((n) & 0xffffffff00000000ull ? 32 + TLSF_FLS32((size_t)(n) >> 32) : TLSF_FL
  58:..\..\..\arduinoLCD\test\Pain Drain\libraries\lvgl\src\misc/lv_tlsf.c **** #else
  59:..\..\..\arduinoLCD\test\Pain Drain\libraries\lvgl\src\misc/lv_tlsf.c ****     #define TLSF_FLS(n) TLSF_FLS32(n)
  60:..\..\..\arduinoLCD\test\Pain Drain\libraries\lvgl\src\misc/lv_tlsf.c **** #endif
  61:..\..\..\arduinoLCD\test\Pain Drain\libraries\lvgl\src\misc/lv_tlsf.c **** 
  62:..\..\..\arduinoLCD\test\Pain Drain\libraries\lvgl\src\misc/lv_tlsf.c **** #define TLSF_FLS32(n) ((n) & 0xffff0000 ? 16 + TLSF_FLS16((n) >> 16) : TLSF_FLS16(n))
  63:..\..\..\arduinoLCD\test\Pain Drain\libraries\lvgl\src\misc/lv_tlsf.c **** #define TLSF_FLS16(n) ((n) & 0xff00     ?  8 + TLSF_FLS8 ((n) >>  8) : TLSF_FLS8 (n))
  64:..\..\..\arduinoLCD\test\Pain Drain\libraries\lvgl\src\misc/lv_tlsf.c **** #define TLSF_FLS8(n)  ((n) & 0xf0       ?  4 + TLSF_FLS4 ((n) >>  4) : TLSF_FLS4 (n))
  65:..\..\..\arduinoLCD\test\Pain Drain\libraries\lvgl\src\misc/lv_tlsf.c **** #define TLSF_FLS4(n)  ((n) & 0xc        ?  2 + TLSF_FLS2 ((n) >>  2) : TLSF_FLS2 (n))
  66:..\..\..\arduinoLCD\test\Pain Drain\libraries\lvgl\src\misc/lv_tlsf.c **** #define TLSF_FLS2(n)  ((n) & 0x2        ?  1 + TLSF_FLS1 ((n) >>  1) : TLSF_FLS1 (n))
  67:..\..\..\arduinoLCD\test\Pain Drain\libraries\lvgl\src\misc/lv_tlsf.c **** #define TLSF_FLS1(n)  ((n) & 0x1        ?  1 : 0)
  68:..\..\..\arduinoLCD\test\Pain Drain\libraries\lvgl\src\misc/lv_tlsf.c **** 
  69:..\..\..\arduinoLCD\test\Pain Drain\libraries\lvgl\src\misc/lv_tlsf.c **** /*
  70:..\..\..\arduinoLCD\test\Pain Drain\libraries\lvgl\src\misc/lv_tlsf.c **** ** Returns round up value of log2(n).
  71:..\..\..\arduinoLCD\test\Pain Drain\libraries\lvgl\src\misc/lv_tlsf.c **** ** Note: it is used at compile time.
  72:..\..\..\arduinoLCD\test\Pain Drain\libraries\lvgl\src\misc/lv_tlsf.c **** */
  73:..\..\..\arduinoLCD\test\Pain Drain\libraries\lvgl\src\misc/lv_tlsf.c **** #define TLSF_LOG2_CEIL(n) ((n) & (n - 1) ? TLSF_FLS(n) : TLSF_FLS(n) - 1)
  74:..\..\..\arduinoLCD\test\Pain Drain\libraries\lvgl\src\misc/lv_tlsf.c **** 
  75:..\..\..\arduinoLCD\test\Pain Drain\libraries\lvgl\src\misc/lv_tlsf.c **** /*
  76:..\..\..\arduinoLCD\test\Pain Drain\libraries\lvgl\src\misc/lv_tlsf.c **** ** gcc 3.4 and above have builtin support, specialized for architecture.
  77:..\..\..\arduinoLCD\test\Pain Drain\libraries\lvgl\src\misc/lv_tlsf.c **** ** Some compilers masquerade as gcc; patchlevel test filters them out.
  78:..\..\..\arduinoLCD\test\Pain Drain\libraries\lvgl\src\misc/lv_tlsf.c **** */
  79:..\..\..\arduinoLCD\test\Pain Drain\libraries\lvgl\src\misc/lv_tlsf.c **** #if defined (__GNUC__) && (__GNUC__ > 3 || (__GNUC__ == 3 && __GNUC_MINOR__ >= 4)) \
  80:..\..\..\arduinoLCD\test\Pain Drain\libraries\lvgl\src\misc/lv_tlsf.c ****     && defined (__GNUC_PATCHLEVEL__)
  81:..\..\..\arduinoLCD\test\Pain Drain\libraries\lvgl\src\misc/lv_tlsf.c **** 
  82:..\..\..\arduinoLCD\test\Pain Drain\libraries\lvgl\src\misc/lv_tlsf.c **** #if defined (__SNC__)
  83:..\..\..\arduinoLCD\test\Pain Drain\libraries\lvgl\src\misc/lv_tlsf.c **** /* SNC for Playstation 3. */
  84:..\..\..\arduinoLCD\test\Pain Drain\libraries\lvgl\src\misc/lv_tlsf.c **** 
  85:..\..\..\arduinoLCD\test\Pain Drain\libraries\lvgl\src\misc/lv_tlsf.c **** tlsf_decl int tlsf_ffs(unsigned int word)
  86:..\..\..\arduinoLCD\test\Pain Drain\libraries\lvgl\src\misc/lv_tlsf.c **** {
  87:..\..\..\arduinoLCD\test\Pain Drain\libraries\lvgl\src\misc/lv_tlsf.c ****     const unsigned int reverse = word & (~word + 1);
  88:..\..\..\arduinoLCD\test\Pain Drain\libraries\lvgl\src\misc/lv_tlsf.c ****     const int bit = 32 - __builtin_clz(reverse);
ARM GAS  C:\Users\haske\AppData\Local\Temp\ccswauRt.s 			page 3


  89:..\..\..\arduinoLCD\test\Pain Drain\libraries\lvgl\src\misc/lv_tlsf.c ****     return bit - 1;
  90:..\..\..\arduinoLCD\test\Pain Drain\libraries\lvgl\src\misc/lv_tlsf.c **** }
  91:..\..\..\arduinoLCD\test\Pain Drain\libraries\lvgl\src\misc/lv_tlsf.c **** 
  92:..\..\..\arduinoLCD\test\Pain Drain\libraries\lvgl\src\misc/lv_tlsf.c **** #else
  93:..\..\..\arduinoLCD\test\Pain Drain\libraries\lvgl\src\misc/lv_tlsf.c **** 
  94:..\..\..\arduinoLCD\test\Pain Drain\libraries\lvgl\src\misc/lv_tlsf.c **** tlsf_decl int tlsf_ffs(unsigned int word)
  95:..\..\..\arduinoLCD\test\Pain Drain\libraries\lvgl\src\misc/lv_tlsf.c **** {
  96:..\..\..\arduinoLCD\test\Pain Drain\libraries\lvgl\src\misc/lv_tlsf.c ****     return __builtin_ffs(word) - 1;
  97:..\..\..\arduinoLCD\test\Pain Drain\libraries\lvgl\src\misc/lv_tlsf.c **** }
  98:..\..\..\arduinoLCD\test\Pain Drain\libraries\lvgl\src\misc/lv_tlsf.c **** 
  99:..\..\..\arduinoLCD\test\Pain Drain\libraries\lvgl\src\misc/lv_tlsf.c **** #endif
 100:..\..\..\arduinoLCD\test\Pain Drain\libraries\lvgl\src\misc/lv_tlsf.c **** 
 101:..\..\..\arduinoLCD\test\Pain Drain\libraries\lvgl\src\misc/lv_tlsf.c **** tlsf_decl int tlsf_fls(unsigned int word)
 102:..\..\..\arduinoLCD\test\Pain Drain\libraries\lvgl\src\misc/lv_tlsf.c **** {
 103:..\..\..\arduinoLCD\test\Pain Drain\libraries\lvgl\src\misc/lv_tlsf.c ****     const int bit = word ? 32 - __builtin_clz(word) : 0;
 104:..\..\..\arduinoLCD\test\Pain Drain\libraries\lvgl\src\misc/lv_tlsf.c ****     return bit - 1;
 105:..\..\..\arduinoLCD\test\Pain Drain\libraries\lvgl\src\misc/lv_tlsf.c **** }
 106:..\..\..\arduinoLCD\test\Pain Drain\libraries\lvgl\src\misc/lv_tlsf.c **** 
 107:..\..\..\arduinoLCD\test\Pain Drain\libraries\lvgl\src\misc/lv_tlsf.c **** #elif defined (_MSC_VER) && (_MSC_VER >= 1400) && (defined (_M_IX86) || defined (_M_X64))
 108:..\..\..\arduinoLCD\test\Pain Drain\libraries\lvgl\src\misc/lv_tlsf.c **** /* Microsoft Visual C++ support on x86/X64 architectures. */
 109:..\..\..\arduinoLCD\test\Pain Drain\libraries\lvgl\src\misc/lv_tlsf.c **** 
 110:..\..\..\arduinoLCD\test\Pain Drain\libraries\lvgl\src\misc/lv_tlsf.c **** #include <intrin.h>
 111:..\..\..\arduinoLCD\test\Pain Drain\libraries\lvgl\src\misc/lv_tlsf.c **** 
 112:..\..\..\arduinoLCD\test\Pain Drain\libraries\lvgl\src\misc/lv_tlsf.c **** #pragma intrinsic(_BitScanReverse)
 113:..\..\..\arduinoLCD\test\Pain Drain\libraries\lvgl\src\misc/lv_tlsf.c **** #pragma intrinsic(_BitScanForward)
 114:..\..\..\arduinoLCD\test\Pain Drain\libraries\lvgl\src\misc/lv_tlsf.c **** 
 115:..\..\..\arduinoLCD\test\Pain Drain\libraries\lvgl\src\misc/lv_tlsf.c **** tlsf_decl int tlsf_fls(unsigned int word)
 116:..\..\..\arduinoLCD\test\Pain Drain\libraries\lvgl\src\misc/lv_tlsf.c **** {
 117:..\..\..\arduinoLCD\test\Pain Drain\libraries\lvgl\src\misc/lv_tlsf.c ****     unsigned long index;
 118:..\..\..\arduinoLCD\test\Pain Drain\libraries\lvgl\src\misc/lv_tlsf.c ****     return _BitScanReverse(&index, word) ? index : -1;
 119:..\..\..\arduinoLCD\test\Pain Drain\libraries\lvgl\src\misc/lv_tlsf.c **** }
 120:..\..\..\arduinoLCD\test\Pain Drain\libraries\lvgl\src\misc/lv_tlsf.c **** 
 121:..\..\..\arduinoLCD\test\Pain Drain\libraries\lvgl\src\misc/lv_tlsf.c **** tlsf_decl int tlsf_ffs(unsigned int word)
 122:..\..\..\arduinoLCD\test\Pain Drain\libraries\lvgl\src\misc/lv_tlsf.c **** {
 123:..\..\..\arduinoLCD\test\Pain Drain\libraries\lvgl\src\misc/lv_tlsf.c ****     unsigned long index;
 124:..\..\..\arduinoLCD\test\Pain Drain\libraries\lvgl\src\misc/lv_tlsf.c ****     return _BitScanForward(&index, word) ? index : -1;
 125:..\..\..\arduinoLCD\test\Pain Drain\libraries\lvgl\src\misc/lv_tlsf.c **** }
 126:..\..\..\arduinoLCD\test\Pain Drain\libraries\lvgl\src\misc/lv_tlsf.c **** 
 127:..\..\..\arduinoLCD\test\Pain Drain\libraries\lvgl\src\misc/lv_tlsf.c **** #elif defined (_MSC_VER) && defined (_M_PPC)
 128:..\..\..\arduinoLCD\test\Pain Drain\libraries\lvgl\src\misc/lv_tlsf.c **** /* Microsoft Visual C++ support on PowerPC architectures. */
 129:..\..\..\arduinoLCD\test\Pain Drain\libraries\lvgl\src\misc/lv_tlsf.c **** 
 130:..\..\..\arduinoLCD\test\Pain Drain\libraries\lvgl\src\misc/lv_tlsf.c **** #include <ppcintrinsics.h>
 131:..\..\..\arduinoLCD\test\Pain Drain\libraries\lvgl\src\misc/lv_tlsf.c **** 
 132:..\..\..\arduinoLCD\test\Pain Drain\libraries\lvgl\src\misc/lv_tlsf.c **** tlsf_decl int tlsf_fls(unsigned int word)
 133:..\..\..\arduinoLCD\test\Pain Drain\libraries\lvgl\src\misc/lv_tlsf.c **** {
 134:..\..\..\arduinoLCD\test\Pain Drain\libraries\lvgl\src\misc/lv_tlsf.c ****     const int bit = 32 - _CountLeadingZeros(word);
 135:..\..\..\arduinoLCD\test\Pain Drain\libraries\lvgl\src\misc/lv_tlsf.c ****     return bit - 1;
 136:..\..\..\arduinoLCD\test\Pain Drain\libraries\lvgl\src\misc/lv_tlsf.c **** }
 137:..\..\..\arduinoLCD\test\Pain Drain\libraries\lvgl\src\misc/lv_tlsf.c **** 
 138:..\..\..\arduinoLCD\test\Pain Drain\libraries\lvgl\src\misc/lv_tlsf.c **** tlsf_decl int tlsf_ffs(unsigned int word)
 139:..\..\..\arduinoLCD\test\Pain Drain\libraries\lvgl\src\misc/lv_tlsf.c **** {
 140:..\..\..\arduinoLCD\test\Pain Drain\libraries\lvgl\src\misc/lv_tlsf.c ****     const unsigned int reverse = word & (~word + 1);
 141:..\..\..\arduinoLCD\test\Pain Drain\libraries\lvgl\src\misc/lv_tlsf.c ****     const int bit = 32 - _CountLeadingZeros(reverse);
 142:..\..\..\arduinoLCD\test\Pain Drain\libraries\lvgl\src\misc/lv_tlsf.c ****     return bit - 1;
 143:..\..\..\arduinoLCD\test\Pain Drain\libraries\lvgl\src\misc/lv_tlsf.c **** }
 144:..\..\..\arduinoLCD\test\Pain Drain\libraries\lvgl\src\misc/lv_tlsf.c **** 
 145:..\..\..\arduinoLCD\test\Pain Drain\libraries\lvgl\src\misc/lv_tlsf.c **** #elif defined (__ARMCC_VERSION)
ARM GAS  C:\Users\haske\AppData\Local\Temp\ccswauRt.s 			page 4


 146:..\..\..\arduinoLCD\test\Pain Drain\libraries\lvgl\src\misc/lv_tlsf.c **** /* RealView Compilation Tools for ARM */
 147:..\..\..\arduinoLCD\test\Pain Drain\libraries\lvgl\src\misc/lv_tlsf.c **** 
 148:..\..\..\arduinoLCD\test\Pain Drain\libraries\lvgl\src\misc/lv_tlsf.c **** tlsf_decl int tlsf_ffs(unsigned int word)
 149:..\..\..\arduinoLCD\test\Pain Drain\libraries\lvgl\src\misc/lv_tlsf.c **** {
 150:..\..\..\arduinoLCD\test\Pain Drain\libraries\lvgl\src\misc/lv_tlsf.c ****     const unsigned int reverse = word & (~word + 1);
 151:..\..\..\arduinoLCD\test\Pain Drain\libraries\lvgl\src\misc/lv_tlsf.c ****     const int bit = 32 - __clz(reverse);
 152:..\..\..\arduinoLCD\test\Pain Drain\libraries\lvgl\src\misc/lv_tlsf.c ****     return bit - 1;
 153:..\..\..\arduinoLCD\test\Pain Drain\libraries\lvgl\src\misc/lv_tlsf.c **** }
 154:..\..\..\arduinoLCD\test\Pain Drain\libraries\lvgl\src\misc/lv_tlsf.c **** 
 155:..\..\..\arduinoLCD\test\Pain Drain\libraries\lvgl\src\misc/lv_tlsf.c **** tlsf_decl int tlsf_fls(unsigned int word)
 156:..\..\..\arduinoLCD\test\Pain Drain\libraries\lvgl\src\misc/lv_tlsf.c **** {
 157:..\..\..\arduinoLCD\test\Pain Drain\libraries\lvgl\src\misc/lv_tlsf.c ****     const int bit = word ? 32 - __clz(word) : 0;
 158:..\..\..\arduinoLCD\test\Pain Drain\libraries\lvgl\src\misc/lv_tlsf.c ****     return bit - 1;
 159:..\..\..\arduinoLCD\test\Pain Drain\libraries\lvgl\src\misc/lv_tlsf.c **** }
 160:..\..\..\arduinoLCD\test\Pain Drain\libraries\lvgl\src\misc/lv_tlsf.c **** 
 161:..\..\..\arduinoLCD\test\Pain Drain\libraries\lvgl\src\misc/lv_tlsf.c **** #elif defined (__ghs__)
 162:..\..\..\arduinoLCD\test\Pain Drain\libraries\lvgl\src\misc/lv_tlsf.c **** /* Green Hills support for PowerPC */
 163:..\..\..\arduinoLCD\test\Pain Drain\libraries\lvgl\src\misc/lv_tlsf.c **** 
 164:..\..\..\arduinoLCD\test\Pain Drain\libraries\lvgl\src\misc/lv_tlsf.c **** #include <ppc_ghs.h>
 165:..\..\..\arduinoLCD\test\Pain Drain\libraries\lvgl\src\misc/lv_tlsf.c **** 
 166:..\..\..\arduinoLCD\test\Pain Drain\libraries\lvgl\src\misc/lv_tlsf.c **** tlsf_decl int tlsf_ffs(unsigned int word)
 167:..\..\..\arduinoLCD\test\Pain Drain\libraries\lvgl\src\misc/lv_tlsf.c **** {
 168:..\..\..\arduinoLCD\test\Pain Drain\libraries\lvgl\src\misc/lv_tlsf.c ****     const unsigned int reverse = word & (~word + 1);
 169:..\..\..\arduinoLCD\test\Pain Drain\libraries\lvgl\src\misc/lv_tlsf.c ****     const int bit = 32 - __CLZ32(reverse);
 170:..\..\..\arduinoLCD\test\Pain Drain\libraries\lvgl\src\misc/lv_tlsf.c ****     return bit - 1;
 171:..\..\..\arduinoLCD\test\Pain Drain\libraries\lvgl\src\misc/lv_tlsf.c **** }
 172:..\..\..\arduinoLCD\test\Pain Drain\libraries\lvgl\src\misc/lv_tlsf.c **** 
 173:..\..\..\arduinoLCD\test\Pain Drain\libraries\lvgl\src\misc/lv_tlsf.c **** tlsf_decl int tlsf_fls(unsigned int word)
 174:..\..\..\arduinoLCD\test\Pain Drain\libraries\lvgl\src\misc/lv_tlsf.c **** {
 175:..\..\..\arduinoLCD\test\Pain Drain\libraries\lvgl\src\misc/lv_tlsf.c ****     const int bit = word ? 32 - __CLZ32(word) : 0;
 176:..\..\..\arduinoLCD\test\Pain Drain\libraries\lvgl\src\misc/lv_tlsf.c ****     return bit - 1;
 177:..\..\..\arduinoLCD\test\Pain Drain\libraries\lvgl\src\misc/lv_tlsf.c **** }
 178:..\..\..\arduinoLCD\test\Pain Drain\libraries\lvgl\src\misc/lv_tlsf.c **** 
 179:..\..\..\arduinoLCD\test\Pain Drain\libraries\lvgl\src\misc/lv_tlsf.c **** #else
 180:..\..\..\arduinoLCD\test\Pain Drain\libraries\lvgl\src\misc/lv_tlsf.c **** /* Fall back to generic implementation. */
 181:..\..\..\arduinoLCD\test\Pain Drain\libraries\lvgl\src\misc/lv_tlsf.c **** 
 182:..\..\..\arduinoLCD\test\Pain Drain\libraries\lvgl\src\misc/lv_tlsf.c **** /* Implement ffs in terms of fls. */
 183:..\..\..\arduinoLCD\test\Pain Drain\libraries\lvgl\src\misc/lv_tlsf.c **** tlsf_decl int tlsf_ffs(unsigned int word)
 184:..\..\..\arduinoLCD\test\Pain Drain\libraries\lvgl\src\misc/lv_tlsf.c **** {
 185:..\..\..\arduinoLCD\test\Pain Drain\libraries\lvgl\src\misc/lv_tlsf.c ****     const unsigned int reverse = word & (~word + 1);
 186:..\..\..\arduinoLCD\test\Pain Drain\libraries\lvgl\src\misc/lv_tlsf.c ****     return TLSF_FLS32(reverse) - 1;
 187:..\..\..\arduinoLCD\test\Pain Drain\libraries\lvgl\src\misc/lv_tlsf.c **** }
 188:..\..\..\arduinoLCD\test\Pain Drain\libraries\lvgl\src\misc/lv_tlsf.c **** 
 189:..\..\..\arduinoLCD\test\Pain Drain\libraries\lvgl\src\misc/lv_tlsf.c **** tlsf_decl int tlsf_fls(unsigned int word)
 190:..\..\..\arduinoLCD\test\Pain Drain\libraries\lvgl\src\misc/lv_tlsf.c **** {
 191:..\..\..\arduinoLCD\test\Pain Drain\libraries\lvgl\src\misc/lv_tlsf.c ****     return TLSF_FLS32(word) - 1;
 192:..\..\..\arduinoLCD\test\Pain Drain\libraries\lvgl\src\misc/lv_tlsf.c **** }
 193:..\..\..\arduinoLCD\test\Pain Drain\libraries\lvgl\src\misc/lv_tlsf.c **** 
 194:..\..\..\arduinoLCD\test\Pain Drain\libraries\lvgl\src\misc/lv_tlsf.c **** #endif
 195:..\..\..\arduinoLCD\test\Pain Drain\libraries\lvgl\src\misc/lv_tlsf.c **** 
 196:..\..\..\arduinoLCD\test\Pain Drain\libraries\lvgl\src\misc/lv_tlsf.c **** /* Possibly 64-bit version of tlsf_fls. */
 197:..\..\..\arduinoLCD\test\Pain Drain\libraries\lvgl\src\misc/lv_tlsf.c **** #if defined (TLSF_64BIT)
 198:..\..\..\arduinoLCD\test\Pain Drain\libraries\lvgl\src\misc/lv_tlsf.c **** tlsf_decl int tlsf_fls_sizet(size_t size)
 199:..\..\..\arduinoLCD\test\Pain Drain\libraries\lvgl\src\misc/lv_tlsf.c **** {
 200:..\..\..\arduinoLCD\test\Pain Drain\libraries\lvgl\src\misc/lv_tlsf.c ****     int high = (int)(size >> 32);
 201:..\..\..\arduinoLCD\test\Pain Drain\libraries\lvgl\src\misc/lv_tlsf.c ****     int bits = 0;
 202:..\..\..\arduinoLCD\test\Pain Drain\libraries\lvgl\src\misc/lv_tlsf.c ****     if(high) {
ARM GAS  C:\Users\haske\AppData\Local\Temp\ccswauRt.s 			page 5


 203:..\..\..\arduinoLCD\test\Pain Drain\libraries\lvgl\src\misc/lv_tlsf.c ****         bits = 32 + tlsf_fls(high);
 204:..\..\..\arduinoLCD\test\Pain Drain\libraries\lvgl\src\misc/lv_tlsf.c ****     }
 205:..\..\..\arduinoLCD\test\Pain Drain\libraries\lvgl\src\misc/lv_tlsf.c ****     else {
 206:..\..\..\arduinoLCD\test\Pain Drain\libraries\lvgl\src\misc/lv_tlsf.c ****         bits = tlsf_fls((int)size & 0xffffffff);
 207:..\..\..\arduinoLCD\test\Pain Drain\libraries\lvgl\src\misc/lv_tlsf.c **** 
 208:..\..\..\arduinoLCD\test\Pain Drain\libraries\lvgl\src\misc/lv_tlsf.c ****     }
 209:..\..\..\arduinoLCD\test\Pain Drain\libraries\lvgl\src\misc/lv_tlsf.c ****     return bits;
 210:..\..\..\arduinoLCD\test\Pain Drain\libraries\lvgl\src\misc/lv_tlsf.c **** }
 211:..\..\..\arduinoLCD\test\Pain Drain\libraries\lvgl\src\misc/lv_tlsf.c **** #else
 212:..\..\..\arduinoLCD\test\Pain Drain\libraries\lvgl\src\misc/lv_tlsf.c **** #define tlsf_fls_sizet tlsf_fls
 213:..\..\..\arduinoLCD\test\Pain Drain\libraries\lvgl\src\misc/lv_tlsf.c **** #endif
 214:..\..\..\arduinoLCD\test\Pain Drain\libraries\lvgl\src\misc/lv_tlsf.c **** 
 215:..\..\..\arduinoLCD\test\Pain Drain\libraries\lvgl\src\misc/lv_tlsf.c **** #undef tlsf_decl
 216:..\..\..\arduinoLCD\test\Pain Drain\libraries\lvgl\src\misc/lv_tlsf.c **** 
 217:..\..\..\arduinoLCD\test\Pain Drain\libraries\lvgl\src\misc/lv_tlsf.c **** /*
 218:..\..\..\arduinoLCD\test\Pain Drain\libraries\lvgl\src\misc/lv_tlsf.c **** ** Constants.
 219:..\..\..\arduinoLCD\test\Pain Drain\libraries\lvgl\src\misc/lv_tlsf.c **** */
 220:..\..\..\arduinoLCD\test\Pain Drain\libraries\lvgl\src\misc/lv_tlsf.c **** 
 221:..\..\..\arduinoLCD\test\Pain Drain\libraries\lvgl\src\misc/lv_tlsf.c **** /* Public constants: may be modified. */
 222:..\..\..\arduinoLCD\test\Pain Drain\libraries\lvgl\src\misc/lv_tlsf.c **** enum tlsf_public {
 223:..\..\..\arduinoLCD\test\Pain Drain\libraries\lvgl\src\misc/lv_tlsf.c ****     /* log2 of number of linear subdivisions of block sizes. Larger
 224:..\..\..\arduinoLCD\test\Pain Drain\libraries\lvgl\src\misc/lv_tlsf.c ****     ** values require more memory in the control structure. Values of
 225:..\..\..\arduinoLCD\test\Pain Drain\libraries\lvgl\src\misc/lv_tlsf.c ****     ** 4 or 5 are typical.
 226:..\..\..\arduinoLCD\test\Pain Drain\libraries\lvgl\src\misc/lv_tlsf.c ****     */
 227:..\..\..\arduinoLCD\test\Pain Drain\libraries\lvgl\src\misc/lv_tlsf.c ****     SL_INDEX_COUNT_LOG2 = 5,
 228:..\..\..\arduinoLCD\test\Pain Drain\libraries\lvgl\src\misc/lv_tlsf.c **** };
 229:..\..\..\arduinoLCD\test\Pain Drain\libraries\lvgl\src\misc/lv_tlsf.c **** 
 230:..\..\..\arduinoLCD\test\Pain Drain\libraries\lvgl\src\misc/lv_tlsf.c **** /* Private constants: do not modify. */
 231:..\..\..\arduinoLCD\test\Pain Drain\libraries\lvgl\src\misc/lv_tlsf.c **** enum tlsf_private {
 232:..\..\..\arduinoLCD\test\Pain Drain\libraries\lvgl\src\misc/lv_tlsf.c **** #if defined (TLSF_64BIT)
 233:..\..\..\arduinoLCD\test\Pain Drain\libraries\lvgl\src\misc/lv_tlsf.c ****     /* All allocation sizes and addresses are aligned to 8 bytes. */
 234:..\..\..\arduinoLCD\test\Pain Drain\libraries\lvgl\src\misc/lv_tlsf.c ****     ALIGN_SIZE_LOG2 = 3,
 235:..\..\..\arduinoLCD\test\Pain Drain\libraries\lvgl\src\misc/lv_tlsf.c **** #else
 236:..\..\..\arduinoLCD\test\Pain Drain\libraries\lvgl\src\misc/lv_tlsf.c ****     /* All allocation sizes and addresses are aligned to 4 bytes. */
 237:..\..\..\arduinoLCD\test\Pain Drain\libraries\lvgl\src\misc/lv_tlsf.c ****     ALIGN_SIZE_LOG2 = 2,
 238:..\..\..\arduinoLCD\test\Pain Drain\libraries\lvgl\src\misc/lv_tlsf.c **** #endif
 239:..\..\..\arduinoLCD\test\Pain Drain\libraries\lvgl\src\misc/lv_tlsf.c ****     ALIGN_SIZE = (1 << ALIGN_SIZE_LOG2),
 240:..\..\..\arduinoLCD\test\Pain Drain\libraries\lvgl\src\misc/lv_tlsf.c **** 
 241:..\..\..\arduinoLCD\test\Pain Drain\libraries\lvgl\src\misc/lv_tlsf.c ****     /*
 242:..\..\..\arduinoLCD\test\Pain Drain\libraries\lvgl\src\misc/lv_tlsf.c ****     ** We support allocations of sizes up to (1 << FL_INDEX_MAX) bits.
 243:..\..\..\arduinoLCD\test\Pain Drain\libraries\lvgl\src\misc/lv_tlsf.c ****     ** However, because we linearly subdivide the second-level lists, and
 244:..\..\..\arduinoLCD\test\Pain Drain\libraries\lvgl\src\misc/lv_tlsf.c ****     ** our minimum size granularity is 4 bytes, it doesn't make sense to
 245:..\..\..\arduinoLCD\test\Pain Drain\libraries\lvgl\src\misc/lv_tlsf.c ****     ** create first-level lists for sizes smaller than SL_INDEX_COUNT * 4,
 246:..\..\..\arduinoLCD\test\Pain Drain\libraries\lvgl\src\misc/lv_tlsf.c ****     ** or (1 << (SL_INDEX_COUNT_LOG2 + 2)) bytes, as there we will be
 247:..\..\..\arduinoLCD\test\Pain Drain\libraries\lvgl\src\misc/lv_tlsf.c ****     ** trying to split size ranges into more slots than we have available.
 248:..\..\..\arduinoLCD\test\Pain Drain\libraries\lvgl\src\misc/lv_tlsf.c ****     ** Instead, we calculate the minimum threshold size, and place all
 249:..\..\..\arduinoLCD\test\Pain Drain\libraries\lvgl\src\misc/lv_tlsf.c ****     ** blocks below that size into the 0th first-level list.
 250:..\..\..\arduinoLCD\test\Pain Drain\libraries\lvgl\src\misc/lv_tlsf.c ****     */
 251:..\..\..\arduinoLCD\test\Pain Drain\libraries\lvgl\src\misc/lv_tlsf.c **** 
 252:..\..\..\arduinoLCD\test\Pain Drain\libraries\lvgl\src\misc/lv_tlsf.c **** #if defined (TLSF_MAX_POOL_SIZE)
 253:..\..\..\arduinoLCD\test\Pain Drain\libraries\lvgl\src\misc/lv_tlsf.c ****     FL_INDEX_MAX = TLSF_LOG2_CEIL(TLSF_MAX_POOL_SIZE),
 254:..\..\..\arduinoLCD\test\Pain Drain\libraries\lvgl\src\misc/lv_tlsf.c **** #elif defined (TLSF_64BIT)
 255:..\..\..\arduinoLCD\test\Pain Drain\libraries\lvgl\src\misc/lv_tlsf.c ****     /*
 256:..\..\..\arduinoLCD\test\Pain Drain\libraries\lvgl\src\misc/lv_tlsf.c ****     ** TODO: We can increase this to support larger sizes, at the expense
 257:..\..\..\arduinoLCD\test\Pain Drain\libraries\lvgl\src\misc/lv_tlsf.c ****     ** of more overhead in the TLSF structure.
 258:..\..\..\arduinoLCD\test\Pain Drain\libraries\lvgl\src\misc/lv_tlsf.c ****     */
 259:..\..\..\arduinoLCD\test\Pain Drain\libraries\lvgl\src\misc/lv_tlsf.c ****     FL_INDEX_MAX = 32,
ARM GAS  C:\Users\haske\AppData\Local\Temp\ccswauRt.s 			page 6


 260:..\..\..\arduinoLCD\test\Pain Drain\libraries\lvgl\src\misc/lv_tlsf.c **** #else
 261:..\..\..\arduinoLCD\test\Pain Drain\libraries\lvgl\src\misc/lv_tlsf.c ****     FL_INDEX_MAX = 30,
 262:..\..\..\arduinoLCD\test\Pain Drain\libraries\lvgl\src\misc/lv_tlsf.c **** #endif
 263:..\..\..\arduinoLCD\test\Pain Drain\libraries\lvgl\src\misc/lv_tlsf.c ****     SL_INDEX_COUNT = (1 << SL_INDEX_COUNT_LOG2),
 264:..\..\..\arduinoLCD\test\Pain Drain\libraries\lvgl\src\misc/lv_tlsf.c ****     FL_INDEX_SHIFT = (SL_INDEX_COUNT_LOG2 + ALIGN_SIZE_LOG2),
 265:..\..\..\arduinoLCD\test\Pain Drain\libraries\lvgl\src\misc/lv_tlsf.c ****     FL_INDEX_COUNT = (FL_INDEX_MAX - FL_INDEX_SHIFT + 1),
 266:..\..\..\arduinoLCD\test\Pain Drain\libraries\lvgl\src\misc/lv_tlsf.c **** 
 267:..\..\..\arduinoLCD\test\Pain Drain\libraries\lvgl\src\misc/lv_tlsf.c ****     SMALL_BLOCK_SIZE = (1 << FL_INDEX_SHIFT),
 268:..\..\..\arduinoLCD\test\Pain Drain\libraries\lvgl\src\misc/lv_tlsf.c **** };
 269:..\..\..\arduinoLCD\test\Pain Drain\libraries\lvgl\src\misc/lv_tlsf.c **** 
 270:..\..\..\arduinoLCD\test\Pain Drain\libraries\lvgl\src\misc/lv_tlsf.c **** /*
 271:..\..\..\arduinoLCD\test\Pain Drain\libraries\lvgl\src\misc/lv_tlsf.c **** ** Cast and min/max macros.
 272:..\..\..\arduinoLCD\test\Pain Drain\libraries\lvgl\src\misc/lv_tlsf.c **** */
 273:..\..\..\arduinoLCD\test\Pain Drain\libraries\lvgl\src\misc/lv_tlsf.c **** 
 274:..\..\..\arduinoLCD\test\Pain Drain\libraries\lvgl\src\misc/lv_tlsf.c **** #define tlsf_cast(t, exp)   ((t) (exp))
 275:..\..\..\arduinoLCD\test\Pain Drain\libraries\lvgl\src\misc/lv_tlsf.c **** #define tlsf_min(a, b)      ((a) < (b) ? (a) : (b))
 276:..\..\..\arduinoLCD\test\Pain Drain\libraries\lvgl\src\misc/lv_tlsf.c **** #define tlsf_max(a, b)      ((a) > (b) ? (a) : (b))
 277:..\..\..\arduinoLCD\test\Pain Drain\libraries\lvgl\src\misc/lv_tlsf.c **** 
 278:..\..\..\arduinoLCD\test\Pain Drain\libraries\lvgl\src\misc/lv_tlsf.c **** /*
 279:..\..\..\arduinoLCD\test\Pain Drain\libraries\lvgl\src\misc/lv_tlsf.c **** ** Set assert macro, if it has not been provided by the user.
 280:..\..\..\arduinoLCD\test\Pain Drain\libraries\lvgl\src\misc/lv_tlsf.c **** */
 281:..\..\..\arduinoLCD\test\Pain Drain\libraries\lvgl\src\misc/lv_tlsf.c **** #define tlsf_assert LV_ASSERT
 282:..\..\..\arduinoLCD\test\Pain Drain\libraries\lvgl\src\misc/lv_tlsf.c **** 
 283:..\..\..\arduinoLCD\test\Pain Drain\libraries\lvgl\src\misc/lv_tlsf.c **** #if !defined (tlsf_assert)
 284:..\..\..\arduinoLCD\test\Pain Drain\libraries\lvgl\src\misc/lv_tlsf.c ****     #define tlsf_assert assert
 285:..\..\..\arduinoLCD\test\Pain Drain\libraries\lvgl\src\misc/lv_tlsf.c **** #endif
 286:..\..\..\arduinoLCD\test\Pain Drain\libraries\lvgl\src\misc/lv_tlsf.c **** 
 287:..\..\..\arduinoLCD\test\Pain Drain\libraries\lvgl\src\misc/lv_tlsf.c **** /*
 288:..\..\..\arduinoLCD\test\Pain Drain\libraries\lvgl\src\misc/lv_tlsf.c **** ** Static assertion mechanism.
 289:..\..\..\arduinoLCD\test\Pain Drain\libraries\lvgl\src\misc/lv_tlsf.c **** */
 290:..\..\..\arduinoLCD\test\Pain Drain\libraries\lvgl\src\misc/lv_tlsf.c **** 
 291:..\..\..\arduinoLCD\test\Pain Drain\libraries\lvgl\src\misc/lv_tlsf.c **** #define _tlsf_glue2(x, y) x ## y
 292:..\..\..\arduinoLCD\test\Pain Drain\libraries\lvgl\src\misc/lv_tlsf.c **** #define _tlsf_glue(x, y) _tlsf_glue2(x, y)
 293:..\..\..\arduinoLCD\test\Pain Drain\libraries\lvgl\src\misc/lv_tlsf.c **** #define tlsf_static_assert(exp) \
 294:..\..\..\arduinoLCD\test\Pain Drain\libraries\lvgl\src\misc/lv_tlsf.c ****     typedef char _tlsf_glue(static_assert, __LINE__) [(exp) ? 1 : -1]
 295:..\..\..\arduinoLCD\test\Pain Drain\libraries\lvgl\src\misc/lv_tlsf.c **** 
 296:..\..\..\arduinoLCD\test\Pain Drain\libraries\lvgl\src\misc/lv_tlsf.c **** /* This code has been tested on 32- and 64-bit (LP/LLP) architectures. */
 297:..\..\..\arduinoLCD\test\Pain Drain\libraries\lvgl\src\misc/lv_tlsf.c **** tlsf_static_assert(sizeof(int) * CHAR_BIT == 32);
 298:..\..\..\arduinoLCD\test\Pain Drain\libraries\lvgl\src\misc/lv_tlsf.c **** tlsf_static_assert(sizeof(size_t) * CHAR_BIT >= 32);
 299:..\..\..\arduinoLCD\test\Pain Drain\libraries\lvgl\src\misc/lv_tlsf.c **** tlsf_static_assert(sizeof(size_t) * CHAR_BIT <= 64);
 300:..\..\..\arduinoLCD\test\Pain Drain\libraries\lvgl\src\misc/lv_tlsf.c **** 
 301:..\..\..\arduinoLCD\test\Pain Drain\libraries\lvgl\src\misc/lv_tlsf.c **** /* SL_INDEX_COUNT must be <= number of bits in sl_bitmap's storage type. */
 302:..\..\..\arduinoLCD\test\Pain Drain\libraries\lvgl\src\misc/lv_tlsf.c **** tlsf_static_assert(sizeof(unsigned int) * CHAR_BIT >= SL_INDEX_COUNT);
 303:..\..\..\arduinoLCD\test\Pain Drain\libraries\lvgl\src\misc/lv_tlsf.c **** 
 304:..\..\..\arduinoLCD\test\Pain Drain\libraries\lvgl\src\misc/lv_tlsf.c **** /* Ensure we've properly tuned our sizes. */
 305:..\..\..\arduinoLCD\test\Pain Drain\libraries\lvgl\src\misc/lv_tlsf.c **** tlsf_static_assert(ALIGN_SIZE == SMALL_BLOCK_SIZE / SL_INDEX_COUNT);
 306:..\..\..\arduinoLCD\test\Pain Drain\libraries\lvgl\src\misc/lv_tlsf.c **** 
 307:..\..\..\arduinoLCD\test\Pain Drain\libraries\lvgl\src\misc/lv_tlsf.c **** /*
 308:..\..\..\arduinoLCD\test\Pain Drain\libraries\lvgl\src\misc/lv_tlsf.c **** ** Data structures and associated constants.
 309:..\..\..\arduinoLCD\test\Pain Drain\libraries\lvgl\src\misc/lv_tlsf.c **** */
 310:..\..\..\arduinoLCD\test\Pain Drain\libraries\lvgl\src\misc/lv_tlsf.c **** 
 311:..\..\..\arduinoLCD\test\Pain Drain\libraries\lvgl\src\misc/lv_tlsf.c **** /*
 312:..\..\..\arduinoLCD\test\Pain Drain\libraries\lvgl\src\misc/lv_tlsf.c **** ** Block header structure.
 313:..\..\..\arduinoLCD\test\Pain Drain\libraries\lvgl\src\misc/lv_tlsf.c **** **
 314:..\..\..\arduinoLCD\test\Pain Drain\libraries\lvgl\src\misc/lv_tlsf.c **** ** There are several implementation subtleties involved:
 315:..\..\..\arduinoLCD\test\Pain Drain\libraries\lvgl\src\misc/lv_tlsf.c **** ** - The prev_phys_block field is only valid if the previous block is free.
 316:..\..\..\arduinoLCD\test\Pain Drain\libraries\lvgl\src\misc/lv_tlsf.c **** ** - The prev_phys_block field is actually stored at the end of the
ARM GAS  C:\Users\haske\AppData\Local\Temp\ccswauRt.s 			page 7


 317:..\..\..\arduinoLCD\test\Pain Drain\libraries\lvgl\src\misc/lv_tlsf.c **** **   previous block. It appears at the beginning of this structure only to
 318:..\..\..\arduinoLCD\test\Pain Drain\libraries\lvgl\src\misc/lv_tlsf.c **** **   simplify the implementation.
 319:..\..\..\arduinoLCD\test\Pain Drain\libraries\lvgl\src\misc/lv_tlsf.c **** ** - The next_free / prev_free fields are only valid if the block is free.
 320:..\..\..\arduinoLCD\test\Pain Drain\libraries\lvgl\src\misc/lv_tlsf.c **** */
 321:..\..\..\arduinoLCD\test\Pain Drain\libraries\lvgl\src\misc/lv_tlsf.c **** typedef struct block_header_t {
 322:..\..\..\arduinoLCD\test\Pain Drain\libraries\lvgl\src\misc/lv_tlsf.c ****     /* Points to the previous physical block. */
 323:..\..\..\arduinoLCD\test\Pain Drain\libraries\lvgl\src\misc/lv_tlsf.c ****     struct block_header_t * prev_phys_block;
 324:..\..\..\arduinoLCD\test\Pain Drain\libraries\lvgl\src\misc/lv_tlsf.c **** 
 325:..\..\..\arduinoLCD\test\Pain Drain\libraries\lvgl\src\misc/lv_tlsf.c ****     /* The size of this block, excluding the block header. */
 326:..\..\..\arduinoLCD\test\Pain Drain\libraries\lvgl\src\misc/lv_tlsf.c ****     size_t size;
 327:..\..\..\arduinoLCD\test\Pain Drain\libraries\lvgl\src\misc/lv_tlsf.c **** 
 328:..\..\..\arduinoLCD\test\Pain Drain\libraries\lvgl\src\misc/lv_tlsf.c ****     /* Next and previous free blocks. */
 329:..\..\..\arduinoLCD\test\Pain Drain\libraries\lvgl\src\misc/lv_tlsf.c ****     struct block_header_t * next_free;
 330:..\..\..\arduinoLCD\test\Pain Drain\libraries\lvgl\src\misc/lv_tlsf.c ****     struct block_header_t * prev_free;
 331:..\..\..\arduinoLCD\test\Pain Drain\libraries\lvgl\src\misc/lv_tlsf.c **** } block_header_t;
 332:..\..\..\arduinoLCD\test\Pain Drain\libraries\lvgl\src\misc/lv_tlsf.c **** 
 333:..\..\..\arduinoLCD\test\Pain Drain\libraries\lvgl\src\misc/lv_tlsf.c **** /*
 334:..\..\..\arduinoLCD\test\Pain Drain\libraries\lvgl\src\misc/lv_tlsf.c **** ** Since block sizes are always at least a multiple of 4, the two least
 335:..\..\..\arduinoLCD\test\Pain Drain\libraries\lvgl\src\misc/lv_tlsf.c **** ** significant bits of the size field are used to store the block status:
 336:..\..\..\arduinoLCD\test\Pain Drain\libraries\lvgl\src\misc/lv_tlsf.c **** ** - bit 0: whether block is busy or free
 337:..\..\..\arduinoLCD\test\Pain Drain\libraries\lvgl\src\misc/lv_tlsf.c **** ** - bit 1: whether previous block is busy or free
 338:..\..\..\arduinoLCD\test\Pain Drain\libraries\lvgl\src\misc/lv_tlsf.c **** */
 339:..\..\..\arduinoLCD\test\Pain Drain\libraries\lvgl\src\misc/lv_tlsf.c **** static const size_t block_header_free_bit = 1 << 0;
 340:..\..\..\arduinoLCD\test\Pain Drain\libraries\lvgl\src\misc/lv_tlsf.c **** static const size_t block_header_prev_free_bit = 1 << 1;
 341:..\..\..\arduinoLCD\test\Pain Drain\libraries\lvgl\src\misc/lv_tlsf.c **** 
 342:..\..\..\arduinoLCD\test\Pain Drain\libraries\lvgl\src\misc/lv_tlsf.c **** /*
 343:..\..\..\arduinoLCD\test\Pain Drain\libraries\lvgl\src\misc/lv_tlsf.c **** ** The size of the block header exposed to used blocks is the size field.
 344:..\..\..\arduinoLCD\test\Pain Drain\libraries\lvgl\src\misc/lv_tlsf.c **** ** The prev_phys_block field is stored *inside* the previous free block.
 345:..\..\..\arduinoLCD\test\Pain Drain\libraries\lvgl\src\misc/lv_tlsf.c **** */
 346:..\..\..\arduinoLCD\test\Pain Drain\libraries\lvgl\src\misc/lv_tlsf.c **** static const size_t block_header_overhead = sizeof(size_t);
 347:..\..\..\arduinoLCD\test\Pain Drain\libraries\lvgl\src\misc/lv_tlsf.c **** 
 348:..\..\..\arduinoLCD\test\Pain Drain\libraries\lvgl\src\misc/lv_tlsf.c **** /* User data starts directly after the size field in a used block. */
 349:..\..\..\arduinoLCD\test\Pain Drain\libraries\lvgl\src\misc/lv_tlsf.c **** static const size_t block_start_offset =
 350:..\..\..\arduinoLCD\test\Pain Drain\libraries\lvgl\src\misc/lv_tlsf.c ****     offsetof(block_header_t, size) + sizeof(size_t);
 351:..\..\..\arduinoLCD\test\Pain Drain\libraries\lvgl\src\misc/lv_tlsf.c **** 
 352:..\..\..\arduinoLCD\test\Pain Drain\libraries\lvgl\src\misc/lv_tlsf.c **** /*
 353:..\..\..\arduinoLCD\test\Pain Drain\libraries\lvgl\src\misc/lv_tlsf.c **** ** A free block must be large enough to store its header minus the size of
 354:..\..\..\arduinoLCD\test\Pain Drain\libraries\lvgl\src\misc/lv_tlsf.c **** ** the prev_phys_block field, and no larger than the number of addressable
 355:..\..\..\arduinoLCD\test\Pain Drain\libraries\lvgl\src\misc/lv_tlsf.c **** ** bits for FL_INDEX.
 356:..\..\..\arduinoLCD\test\Pain Drain\libraries\lvgl\src\misc/lv_tlsf.c **** */
 357:..\..\..\arduinoLCD\test\Pain Drain\libraries\lvgl\src\misc/lv_tlsf.c **** static const size_t block_size_min =
 358:..\..\..\arduinoLCD\test\Pain Drain\libraries\lvgl\src\misc/lv_tlsf.c ****     sizeof(block_header_t) - sizeof(block_header_t *);
 359:..\..\..\arduinoLCD\test\Pain Drain\libraries\lvgl\src\misc/lv_tlsf.c **** static const size_t block_size_max = tlsf_cast(size_t, 1) << FL_INDEX_MAX;
 360:..\..\..\arduinoLCD\test\Pain Drain\libraries\lvgl\src\misc/lv_tlsf.c **** 
 361:..\..\..\arduinoLCD\test\Pain Drain\libraries\lvgl\src\misc/lv_tlsf.c **** 
 362:..\..\..\arduinoLCD\test\Pain Drain\libraries\lvgl\src\misc/lv_tlsf.c **** /* The TLSF control structure. */
 363:..\..\..\arduinoLCD\test\Pain Drain\libraries\lvgl\src\misc/lv_tlsf.c **** typedef struct control_t {
 364:..\..\..\arduinoLCD\test\Pain Drain\libraries\lvgl\src\misc/lv_tlsf.c ****     /* Empty lists point at this block to indicate they are free. */
 365:..\..\..\arduinoLCD\test\Pain Drain\libraries\lvgl\src\misc/lv_tlsf.c ****     block_header_t block_null;
 366:..\..\..\arduinoLCD\test\Pain Drain\libraries\lvgl\src\misc/lv_tlsf.c **** 
 367:..\..\..\arduinoLCD\test\Pain Drain\libraries\lvgl\src\misc/lv_tlsf.c ****     /* Bitmaps for free lists. */
 368:..\..\..\arduinoLCD\test\Pain Drain\libraries\lvgl\src\misc/lv_tlsf.c ****     unsigned int fl_bitmap;
 369:..\..\..\arduinoLCD\test\Pain Drain\libraries\lvgl\src\misc/lv_tlsf.c ****     unsigned int sl_bitmap[FL_INDEX_COUNT];
 370:..\..\..\arduinoLCD\test\Pain Drain\libraries\lvgl\src\misc/lv_tlsf.c **** 
 371:..\..\..\arduinoLCD\test\Pain Drain\libraries\lvgl\src\misc/lv_tlsf.c ****     /* Head of free lists. */
 372:..\..\..\arduinoLCD\test\Pain Drain\libraries\lvgl\src\misc/lv_tlsf.c ****     block_header_t * blocks[FL_INDEX_COUNT][SL_INDEX_COUNT];
 373:..\..\..\arduinoLCD\test\Pain Drain\libraries\lvgl\src\misc/lv_tlsf.c **** } control_t;
ARM GAS  C:\Users\haske\AppData\Local\Temp\ccswauRt.s 			page 8


 374:..\..\..\arduinoLCD\test\Pain Drain\libraries\lvgl\src\misc/lv_tlsf.c **** 
 375:..\..\..\arduinoLCD\test\Pain Drain\libraries\lvgl\src\misc/lv_tlsf.c **** /* A type used for casting when doing pointer arithmetic. */
 376:..\..\..\arduinoLCD\test\Pain Drain\libraries\lvgl\src\misc/lv_tlsf.c **** typedef ptrdiff_t tlsfptr_t;
 377:..\..\..\arduinoLCD\test\Pain Drain\libraries\lvgl\src\misc/lv_tlsf.c **** 
 378:..\..\..\arduinoLCD\test\Pain Drain\libraries\lvgl\src\misc/lv_tlsf.c **** /*
 379:..\..\..\arduinoLCD\test\Pain Drain\libraries\lvgl\src\misc/lv_tlsf.c **** ** block_header_t member functions.
 380:..\..\..\arduinoLCD\test\Pain Drain\libraries\lvgl\src\misc/lv_tlsf.c **** */
 381:..\..\..\arduinoLCD\test\Pain Drain\libraries\lvgl\src\misc/lv_tlsf.c **** 
 382:..\..\..\arduinoLCD\test\Pain Drain\libraries\lvgl\src\misc/lv_tlsf.c **** static size_t block_size(const block_header_t * block)
 383:..\..\..\arduinoLCD\test\Pain Drain\libraries\lvgl\src\misc/lv_tlsf.c **** {
  27              		.loc 1 383 0
  28              		.cfi_startproc
  29              		@ args = 0, pretend = 0, frame = 0
  30              		@ frame_needed = 0, uses_anonymous_args = 0
  31              		@ link register save eliminated.
  32              	.LVL0:
 384:..\..\..\arduinoLCD\test\Pain Drain\libraries\lvgl\src\misc/lv_tlsf.c ****     return block->size & ~(block_header_free_bit | block_header_prev_free_bit);
  33              		.loc 1 384 0
  34 0000 4068     		ldr	r0, [r0, #4]
  35              	.LVL1:
  36 0002 0323     		movs	r3, #3
  37 0004 9843     		bics	r0, r3
 385:..\..\..\arduinoLCD\test\Pain Drain\libraries\lvgl\src\misc/lv_tlsf.c **** }
  38              		.loc 1 385 0
  39              		@ sp needed
  40 0006 7047     		bx	lr
  41              		.cfi_endproc
  42              	.LFE3:
  43              		.size	block_size, .-block_size
  44              		.section	.text.block_set_size,"ax",%progbits
  45              		.align	2
  46              		.code	16
  47              		.thumb_func
  48              		.type	block_set_size, %function
  49              	block_set_size:
  50              	.LFB4:
 386:..\..\..\arduinoLCD\test\Pain Drain\libraries\lvgl\src\misc/lv_tlsf.c **** 
 387:..\..\..\arduinoLCD\test\Pain Drain\libraries\lvgl\src\misc/lv_tlsf.c **** static void block_set_size(block_header_t * block, size_t size)
 388:..\..\..\arduinoLCD\test\Pain Drain\libraries\lvgl\src\misc/lv_tlsf.c **** {
  51              		.loc 1 388 0
  52              		.cfi_startproc
  53              		@ args = 0, pretend = 0, frame = 0
  54              		@ frame_needed = 0, uses_anonymous_args = 0
  55              		@ link register save eliminated.
  56              	.LVL2:
 389:..\..\..\arduinoLCD\test\Pain Drain\libraries\lvgl\src\misc/lv_tlsf.c ****     const size_t oldsize = block->size;
 390:..\..\..\arduinoLCD\test\Pain Drain\libraries\lvgl\src\misc/lv_tlsf.c ****     block->size = size | (oldsize & (block_header_free_bit | block_header_prev_free_bit));
  57              		.loc 1 390 0
  58 0000 0323     		movs	r3, #3
  59 0002 4268     		ldr	r2, [r0, #4]
  60 0004 1340     		ands	r3, r2
  61 0006 1943     		orrs	r1, r3
  62              	.LVL3:
  63 0008 4160     		str	r1, [r0, #4]
  64              	.LVL4:
 391:..\..\..\arduinoLCD\test\Pain Drain\libraries\lvgl\src\misc/lv_tlsf.c **** }
  65              		.loc 1 391 0
ARM GAS  C:\Users\haske\AppData\Local\Temp\ccswauRt.s 			page 9


  66              		@ sp needed
  67 000a 7047     		bx	lr
  68              		.cfi_endproc
  69              	.LFE4:
  70              		.size	block_set_size, .-block_set_size
  71              		.section	.text.block_is_last,"ax",%progbits
  72              		.align	2
  73              		.code	16
  74              		.thumb_func
  75              		.type	block_is_last, %function
  76              	block_is_last:
  77              	.LFB5:
 392:..\..\..\arduinoLCD\test\Pain Drain\libraries\lvgl\src\misc/lv_tlsf.c **** 
 393:..\..\..\arduinoLCD\test\Pain Drain\libraries\lvgl\src\misc/lv_tlsf.c **** static int block_is_last(const block_header_t * block)
 394:..\..\..\arduinoLCD\test\Pain Drain\libraries\lvgl\src\misc/lv_tlsf.c **** {
  78              		.loc 1 394 0
  79              		.cfi_startproc
  80              		@ args = 0, pretend = 0, frame = 0
  81              		@ frame_needed = 0, uses_anonymous_args = 0
  82              	.LVL5:
  83 0000 10B5     		push	{r4, lr}
  84              		.cfi_def_cfa_offset 8
  85              		.cfi_offset 4, -8
  86              		.cfi_offset 14, -4
 395:..\..\..\arduinoLCD\test\Pain Drain\libraries\lvgl\src\misc/lv_tlsf.c ****     return block_size(block) == 0;
  87              		.loc 1 395 0
  88 0002 FFF7FEFF 		bl	block_size
  89              	.LVL6:
  90 0006 4342     		rsbs	r3, r0, #0
  91 0008 5841     		adcs	r0, r0, r3
  92 000a C0B2     		uxtb	r0, r0
 396:..\..\..\arduinoLCD\test\Pain Drain\libraries\lvgl\src\misc/lv_tlsf.c **** }
  93              		.loc 1 396 0
  94              		@ sp needed
  95 000c 10BD     		pop	{r4, pc}
  96              		.cfi_endproc
  97              	.LFE5:
  98              		.size	block_is_last, .-block_is_last
  99 000e C046     		.section	.text.block_is_free,"ax",%progbits
 100              		.align	2
 101              		.code	16
 102              		.thumb_func
 103              		.type	block_is_free, %function
 104              	block_is_free:
 105              	.LFB6:
 397:..\..\..\arduinoLCD\test\Pain Drain\libraries\lvgl\src\misc/lv_tlsf.c **** 
 398:..\..\..\arduinoLCD\test\Pain Drain\libraries\lvgl\src\misc/lv_tlsf.c **** static int block_is_free(const block_header_t * block)
 399:..\..\..\arduinoLCD\test\Pain Drain\libraries\lvgl\src\misc/lv_tlsf.c **** {
 106              		.loc 1 399 0
 107              		.cfi_startproc
 108              		@ args = 0, pretend = 0, frame = 0
 109              		@ frame_needed = 0, uses_anonymous_args = 0
 110              		@ link register save eliminated.
 111              	.LVL7:
 400:..\..\..\arduinoLCD\test\Pain Drain\libraries\lvgl\src\misc/lv_tlsf.c ****     return tlsf_cast(int, block->size & block_header_free_bit);
 112              		.loc 1 400 0
 113 0000 4368     		ldr	r3, [r0, #4]
ARM GAS  C:\Users\haske\AppData\Local\Temp\ccswauRt.s 			page 10


 114 0002 0120     		movs	r0, #1
 115              	.LVL8:
 116 0004 1840     		ands	r0, r3
 401:..\..\..\arduinoLCD\test\Pain Drain\libraries\lvgl\src\misc/lv_tlsf.c **** }
 117              		.loc 1 401 0
 118              		@ sp needed
 119 0006 7047     		bx	lr
 120              		.cfi_endproc
 121              	.LFE6:
 122              		.size	block_is_free, .-block_is_free
 123              		.section	.text.block_set_free,"ax",%progbits
 124              		.align	2
 125              		.code	16
 126              		.thumb_func
 127              		.type	block_set_free, %function
 128              	block_set_free:
 129              	.LFB7:
 402:..\..\..\arduinoLCD\test\Pain Drain\libraries\lvgl\src\misc/lv_tlsf.c **** 
 403:..\..\..\arduinoLCD\test\Pain Drain\libraries\lvgl\src\misc/lv_tlsf.c **** static void block_set_free(block_header_t * block)
 404:..\..\..\arduinoLCD\test\Pain Drain\libraries\lvgl\src\misc/lv_tlsf.c **** {
 130              		.loc 1 404 0
 131              		.cfi_startproc
 132              		@ args = 0, pretend = 0, frame = 0
 133              		@ frame_needed = 0, uses_anonymous_args = 0
 134              		@ link register save eliminated.
 135              	.LVL9:
 405:..\..\..\arduinoLCD\test\Pain Drain\libraries\lvgl\src\misc/lv_tlsf.c ****     block->size |= block_header_free_bit;
 136              		.loc 1 405 0
 137 0000 0123     		movs	r3, #1
 138 0002 4268     		ldr	r2, [r0, #4]
 139 0004 1343     		orrs	r3, r2
 140 0006 4360     		str	r3, [r0, #4]
 406:..\..\..\arduinoLCD\test\Pain Drain\libraries\lvgl\src\misc/lv_tlsf.c **** }
 141              		.loc 1 406 0
 142              		@ sp needed
 143 0008 7047     		bx	lr
 144              		.cfi_endproc
 145              	.LFE7:
 146              		.size	block_set_free, .-block_set_free
 147 000a C046     		.section	.text.block_set_used,"ax",%progbits
 148              		.align	2
 149              		.code	16
 150              		.thumb_func
 151              		.type	block_set_used, %function
 152              	block_set_used:
 153              	.LFB8:
 407:..\..\..\arduinoLCD\test\Pain Drain\libraries\lvgl\src\misc/lv_tlsf.c **** 
 408:..\..\..\arduinoLCD\test\Pain Drain\libraries\lvgl\src\misc/lv_tlsf.c **** static void block_set_used(block_header_t * block)
 409:..\..\..\arduinoLCD\test\Pain Drain\libraries\lvgl\src\misc/lv_tlsf.c **** {
 154              		.loc 1 409 0
 155              		.cfi_startproc
 156              		@ args = 0, pretend = 0, frame = 0
 157              		@ frame_needed = 0, uses_anonymous_args = 0
 158              		@ link register save eliminated.
 159              	.LVL10:
 410:..\..\..\arduinoLCD\test\Pain Drain\libraries\lvgl\src\misc/lv_tlsf.c ****     block->size &= ~block_header_free_bit;
 160              		.loc 1 410 0
ARM GAS  C:\Users\haske\AppData\Local\Temp\ccswauRt.s 			page 11


 161 0000 0123     		movs	r3, #1
 162 0002 4268     		ldr	r2, [r0, #4]
 163 0004 9A43     		bics	r2, r3
 164 0006 4260     		str	r2, [r0, #4]
 411:..\..\..\arduinoLCD\test\Pain Drain\libraries\lvgl\src\misc/lv_tlsf.c **** }
 165              		.loc 1 411 0
 166              		@ sp needed
 167 0008 7047     		bx	lr
 168              		.cfi_endproc
 169              	.LFE8:
 170              		.size	block_set_used, .-block_set_used
 171 000a C046     		.section	.text.block_is_prev_free,"ax",%progbits
 172              		.align	2
 173              		.code	16
 174              		.thumb_func
 175              		.type	block_is_prev_free, %function
 176              	block_is_prev_free:
 177              	.LFB9:
 412:..\..\..\arduinoLCD\test\Pain Drain\libraries\lvgl\src\misc/lv_tlsf.c **** 
 413:..\..\..\arduinoLCD\test\Pain Drain\libraries\lvgl\src\misc/lv_tlsf.c **** static int block_is_prev_free(const block_header_t * block)
 414:..\..\..\arduinoLCD\test\Pain Drain\libraries\lvgl\src\misc/lv_tlsf.c **** {
 178              		.loc 1 414 0
 179              		.cfi_startproc
 180              		@ args = 0, pretend = 0, frame = 0
 181              		@ frame_needed = 0, uses_anonymous_args = 0
 182              		@ link register save eliminated.
 183              	.LVL11:
 415:..\..\..\arduinoLCD\test\Pain Drain\libraries\lvgl\src\misc/lv_tlsf.c ****     return tlsf_cast(int, block->size & block_header_prev_free_bit);
 184              		.loc 1 415 0
 185 0000 4368     		ldr	r3, [r0, #4]
 186 0002 0220     		movs	r0, #2
 187              	.LVL12:
 188 0004 1840     		ands	r0, r3
 416:..\..\..\arduinoLCD\test\Pain Drain\libraries\lvgl\src\misc/lv_tlsf.c **** }
 189              		.loc 1 416 0
 190              		@ sp needed
 191 0006 7047     		bx	lr
 192              		.cfi_endproc
 193              	.LFE9:
 194              		.size	block_is_prev_free, .-block_is_prev_free
 195              		.section	.text.block_set_prev_free,"ax",%progbits
 196              		.align	2
 197              		.code	16
 198              		.thumb_func
 199              		.type	block_set_prev_free, %function
 200              	block_set_prev_free:
 201              	.LFB10:
 417:..\..\..\arduinoLCD\test\Pain Drain\libraries\lvgl\src\misc/lv_tlsf.c **** 
 418:..\..\..\arduinoLCD\test\Pain Drain\libraries\lvgl\src\misc/lv_tlsf.c **** static void block_set_prev_free(block_header_t * block)
 419:..\..\..\arduinoLCD\test\Pain Drain\libraries\lvgl\src\misc/lv_tlsf.c **** {
 202              		.loc 1 419 0
 203              		.cfi_startproc
 204              		@ args = 0, pretend = 0, frame = 0
 205              		@ frame_needed = 0, uses_anonymous_args = 0
 206              		@ link register save eliminated.
 207              	.LVL13:
 420:..\..\..\arduinoLCD\test\Pain Drain\libraries\lvgl\src\misc/lv_tlsf.c ****     block->size |= block_header_prev_free_bit;
ARM GAS  C:\Users\haske\AppData\Local\Temp\ccswauRt.s 			page 12


 208              		.loc 1 420 0
 209 0000 0223     		movs	r3, #2
 210 0002 4268     		ldr	r2, [r0, #4]
 211 0004 1343     		orrs	r3, r2
 212 0006 4360     		str	r3, [r0, #4]
 421:..\..\..\arduinoLCD\test\Pain Drain\libraries\lvgl\src\misc/lv_tlsf.c **** }
 213              		.loc 1 421 0
 214              		@ sp needed
 215 0008 7047     		bx	lr
 216              		.cfi_endproc
 217              	.LFE10:
 218              		.size	block_set_prev_free, .-block_set_prev_free
 219 000a C046     		.section	.text.block_set_prev_used,"ax",%progbits
 220              		.align	2
 221              		.code	16
 222              		.thumb_func
 223              		.type	block_set_prev_used, %function
 224              	block_set_prev_used:
 225              	.LFB11:
 422:..\..\..\arduinoLCD\test\Pain Drain\libraries\lvgl\src\misc/lv_tlsf.c **** 
 423:..\..\..\arduinoLCD\test\Pain Drain\libraries\lvgl\src\misc/lv_tlsf.c **** static void block_set_prev_used(block_header_t * block)
 424:..\..\..\arduinoLCD\test\Pain Drain\libraries\lvgl\src\misc/lv_tlsf.c **** {
 226              		.loc 1 424 0
 227              		.cfi_startproc
 228              		@ args = 0, pretend = 0, frame = 0
 229              		@ frame_needed = 0, uses_anonymous_args = 0
 230              		@ link register save eliminated.
 231              	.LVL14:
 425:..\..\..\arduinoLCD\test\Pain Drain\libraries\lvgl\src\misc/lv_tlsf.c ****     block->size &= ~block_header_prev_free_bit;
 232              		.loc 1 425 0
 233 0000 0223     		movs	r3, #2
 234 0002 4268     		ldr	r2, [r0, #4]
 235 0004 9A43     		bics	r2, r3
 236 0006 4260     		str	r2, [r0, #4]
 426:..\..\..\arduinoLCD\test\Pain Drain\libraries\lvgl\src\misc/lv_tlsf.c **** }
 237              		.loc 1 426 0
 238              		@ sp needed
 239 0008 7047     		bx	lr
 240              		.cfi_endproc
 241              	.LFE11:
 242              		.size	block_set_prev_used, .-block_set_prev_used
 243 000a C046     		.section	.text.block_from_ptr,"ax",%progbits
 244              		.align	2
 245              		.code	16
 246              		.thumb_func
 247              		.type	block_from_ptr, %function
 248              	block_from_ptr:
 249              	.LFB12:
 427:..\..\..\arduinoLCD\test\Pain Drain\libraries\lvgl\src\misc/lv_tlsf.c **** 
 428:..\..\..\arduinoLCD\test\Pain Drain\libraries\lvgl\src\misc/lv_tlsf.c **** static block_header_t * block_from_ptr(const void * ptr)
 429:..\..\..\arduinoLCD\test\Pain Drain\libraries\lvgl\src\misc/lv_tlsf.c **** {
 250              		.loc 1 429 0
 251              		.cfi_startproc
 252              		@ args = 0, pretend = 0, frame = 0
 253              		@ frame_needed = 0, uses_anonymous_args = 0
 254              		@ link register save eliminated.
 255              	.LVL15:
ARM GAS  C:\Users\haske\AppData\Local\Temp\ccswauRt.s 			page 13


 430:..\..\..\arduinoLCD\test\Pain Drain\libraries\lvgl\src\misc/lv_tlsf.c ****     return tlsf_cast(block_header_t *,
 256              		.loc 1 430 0
 257 0000 0838     		subs	r0, r0, #8
 258              	.LVL16:
 431:..\..\..\arduinoLCD\test\Pain Drain\libraries\lvgl\src\misc/lv_tlsf.c ****                      tlsf_cast(unsigned char *, ptr) - block_start_offset);
 432:..\..\..\arduinoLCD\test\Pain Drain\libraries\lvgl\src\misc/lv_tlsf.c **** }
 259              		.loc 1 432 0
 260              		@ sp needed
 261 0002 7047     		bx	lr
 262              		.cfi_endproc
 263              	.LFE12:
 264              		.size	block_from_ptr, .-block_from_ptr
 265              		.section	.text.block_to_ptr,"ax",%progbits
 266              		.align	2
 267              		.code	16
 268              		.thumb_func
 269              		.type	block_to_ptr, %function
 270              	block_to_ptr:
 271              	.LFB13:
 433:..\..\..\arduinoLCD\test\Pain Drain\libraries\lvgl\src\misc/lv_tlsf.c **** 
 434:..\..\..\arduinoLCD\test\Pain Drain\libraries\lvgl\src\misc/lv_tlsf.c **** static void * block_to_ptr(const block_header_t * block)
 435:..\..\..\arduinoLCD\test\Pain Drain\libraries\lvgl\src\misc/lv_tlsf.c **** {
 272              		.loc 1 435 0
 273              		.cfi_startproc
 274              		@ args = 0, pretend = 0, frame = 0
 275              		@ frame_needed = 0, uses_anonymous_args = 0
 276              		@ link register save eliminated.
 277              	.LVL17:
 436:..\..\..\arduinoLCD\test\Pain Drain\libraries\lvgl\src\misc/lv_tlsf.c ****     return tlsf_cast(void *,
 278              		.loc 1 436 0
 279 0000 0830     		adds	r0, r0, #8
 280              	.LVL18:
 437:..\..\..\arduinoLCD\test\Pain Drain\libraries\lvgl\src\misc/lv_tlsf.c ****                      tlsf_cast(unsigned char *, block) + block_start_offset);
 438:..\..\..\arduinoLCD\test\Pain Drain\libraries\lvgl\src\misc/lv_tlsf.c **** }
 281              		.loc 1 438 0
 282              		@ sp needed
 283 0002 7047     		bx	lr
 284              		.cfi_endproc
 285              	.LFE13:
 286              		.size	block_to_ptr, .-block_to_ptr
 287              		.section	.text.offset_to_block,"ax",%progbits
 288              		.align	2
 289              		.code	16
 290              		.thumb_func
 291              		.type	offset_to_block, %function
 292              	offset_to_block:
 293              	.LFB14:
 439:..\..\..\arduinoLCD\test\Pain Drain\libraries\lvgl\src\misc/lv_tlsf.c **** 
 440:..\..\..\arduinoLCD\test\Pain Drain\libraries\lvgl\src\misc/lv_tlsf.c **** /* Return location of next block after block of given size. */
 441:..\..\..\arduinoLCD\test\Pain Drain\libraries\lvgl\src\misc/lv_tlsf.c **** static block_header_t * offset_to_block(const void * ptr, size_t size)
 442:..\..\..\arduinoLCD\test\Pain Drain\libraries\lvgl\src\misc/lv_tlsf.c **** {
 294              		.loc 1 442 0
 295              		.cfi_startproc
 296              		@ args = 0, pretend = 0, frame = 0
 297              		@ frame_needed = 0, uses_anonymous_args = 0
 298              		@ link register save eliminated.
 299              	.LVL19:
ARM GAS  C:\Users\haske\AppData\Local\Temp\ccswauRt.s 			page 14


 443:..\..\..\arduinoLCD\test\Pain Drain\libraries\lvgl\src\misc/lv_tlsf.c ****     return tlsf_cast(block_header_t *, tlsf_cast(tlsfptr_t, ptr) + size);
 300              		.loc 1 443 0
 301 0000 4018     		adds	r0, r0, r1
 302              	.LVL20:
 444:..\..\..\arduinoLCD\test\Pain Drain\libraries\lvgl\src\misc/lv_tlsf.c **** }
 303              		.loc 1 444 0
 304              		@ sp needed
 305 0002 7047     		bx	lr
 306              		.cfi_endproc
 307              	.LFE14:
 308              		.size	offset_to_block, .-offset_to_block
 309              		.section	.text.block_prev,"ax",%progbits
 310              		.align	2
 311              		.code	16
 312              		.thumb_func
 313              		.type	block_prev, %function
 314              	block_prev:
 315              	.LFB15:
 445:..\..\..\arduinoLCD\test\Pain Drain\libraries\lvgl\src\misc/lv_tlsf.c **** 
 446:..\..\..\arduinoLCD\test\Pain Drain\libraries\lvgl\src\misc/lv_tlsf.c **** /* Return location of previous block. */
 447:..\..\..\arduinoLCD\test\Pain Drain\libraries\lvgl\src\misc/lv_tlsf.c **** static block_header_t * block_prev(const block_header_t * block)
 448:..\..\..\arduinoLCD\test\Pain Drain\libraries\lvgl\src\misc/lv_tlsf.c **** {
 316              		.loc 1 448 0
 317              		.cfi_startproc
 318              		@ args = 0, pretend = 0, frame = 0
 319              		@ frame_needed = 0, uses_anonymous_args = 0
 320              	.LVL21:
 321 0000 10B5     		push	{r4, lr}
 322              		.cfi_def_cfa_offset 8
 323              		.cfi_offset 4, -8
 324              		.cfi_offset 14, -4
 325 0002 0400     		movs	r4, r0
 449:..\..\..\arduinoLCD\test\Pain Drain\libraries\lvgl\src\misc/lv_tlsf.c ****     tlsf_assert(block_is_prev_free(block) && "previous block must be free");
 326              		.loc 1 449 0
 327 0004 FFF7FEFF 		bl	block_is_prev_free
 328              	.LVL22:
 329 0008 0028     		cmp	r0, #0
 330 000a 00D1     		bne	.L14
 331              	.L15:
 332 000c FEE7     		b	.L15
 333              	.L14:
 450:..\..\..\arduinoLCD\test\Pain Drain\libraries\lvgl\src\misc/lv_tlsf.c ****     return block->prev_phys_block;
 334              		.loc 1 450 0
 335 000e 2068     		ldr	r0, [r4]
 451:..\..\..\arduinoLCD\test\Pain Drain\libraries\lvgl\src\misc/lv_tlsf.c **** }
 336              		.loc 1 451 0
 337              		@ sp needed
 338              	.LVL23:
 339 0010 10BD     		pop	{r4, pc}
 340              		.cfi_endproc
 341              	.LFE15:
 342              		.size	block_prev, .-block_prev
 343 0012 C046     		.section	.text.block_next,"ax",%progbits
 344              		.align	2
 345              		.code	16
 346              		.thumb_func
 347              		.type	block_next, %function
ARM GAS  C:\Users\haske\AppData\Local\Temp\ccswauRt.s 			page 15


 348              	block_next:
 349              	.LFB16:
 452:..\..\..\arduinoLCD\test\Pain Drain\libraries\lvgl\src\misc/lv_tlsf.c **** 
 453:..\..\..\arduinoLCD\test\Pain Drain\libraries\lvgl\src\misc/lv_tlsf.c **** /* Return location of next existing block. */
 454:..\..\..\arduinoLCD\test\Pain Drain\libraries\lvgl\src\misc/lv_tlsf.c **** static block_header_t * block_next(const block_header_t * block)
 455:..\..\..\arduinoLCD\test\Pain Drain\libraries\lvgl\src\misc/lv_tlsf.c **** {
 350              		.loc 1 455 0
 351              		.cfi_startproc
 352              		@ args = 0, pretend = 0, frame = 0
 353              		@ frame_needed = 0, uses_anonymous_args = 0
 354              	.LVL24:
 355 0000 70B5     		push	{r4, r5, r6, lr}
 356              		.cfi_def_cfa_offset 16
 357              		.cfi_offset 4, -16
 358              		.cfi_offset 5, -12
 359              		.cfi_offset 6, -8
 360              		.cfi_offset 14, -4
 361 0002 0400     		movs	r4, r0
 456:..\..\..\arduinoLCD\test\Pain Drain\libraries\lvgl\src\misc/lv_tlsf.c ****     block_header_t * next = offset_to_block(block_to_ptr(block),
 362              		.loc 1 456 0
 363 0004 FFF7FEFF 		bl	block_to_ptr
 364              	.LVL25:
 365 0008 0500     		movs	r5, r0
 457:..\..\..\arduinoLCD\test\Pain Drain\libraries\lvgl\src\misc/lv_tlsf.c ****                                             block_size(block) - block_header_overhead);
 366              		.loc 1 457 0
 367 000a 2000     		movs	r0, r4
 368 000c FFF7FEFF 		bl	block_size
 369              	.LVL26:
 456:..\..\..\arduinoLCD\test\Pain Drain\libraries\lvgl\src\misc/lv_tlsf.c ****     block_header_t * next = offset_to_block(block_to_ptr(block),
 370              		.loc 1 456 0
 371 0010 011F     		subs	r1, r0, #4
 372 0012 2800     		movs	r0, r5
 373 0014 FFF7FEFF 		bl	offset_to_block
 374              	.LVL27:
 375 0018 0500     		movs	r5, r0
 376              	.LVL28:
 458:..\..\..\arduinoLCD\test\Pain Drain\libraries\lvgl\src\misc/lv_tlsf.c ****     tlsf_assert(!block_is_last(block));
 377              		.loc 1 458 0
 378 001a 2000     		movs	r0, r4
 379              	.LVL29:
 380 001c FFF7FEFF 		bl	block_is_last
 381              	.LVL30:
 382 0020 0028     		cmp	r0, #0
 383 0022 00D0     		beq	.L17
 384              	.L18:
 385 0024 FEE7     		b	.L18
 386              	.L17:
 459:..\..\..\arduinoLCD\test\Pain Drain\libraries\lvgl\src\misc/lv_tlsf.c ****     return next;
 460:..\..\..\arduinoLCD\test\Pain Drain\libraries\lvgl\src\misc/lv_tlsf.c **** }
 387              		.loc 1 460 0
 388 0026 2800     		movs	r0, r5
 389              		@ sp needed
 390              	.LVL31:
 391              	.LVL32:
 392 0028 70BD     		pop	{r4, r5, r6, pc}
 393              		.cfi_endproc
 394              	.LFE16:
ARM GAS  C:\Users\haske\AppData\Local\Temp\ccswauRt.s 			page 16


 395              		.size	block_next, .-block_next
 396 002a C046     		.section	.text.block_link_next,"ax",%progbits
 397              		.align	2
 398              		.code	16
 399              		.thumb_func
 400              		.type	block_link_next, %function
 401              	block_link_next:
 402              	.LFB17:
 461:..\..\..\arduinoLCD\test\Pain Drain\libraries\lvgl\src\misc/lv_tlsf.c **** 
 462:..\..\..\arduinoLCD\test\Pain Drain\libraries\lvgl\src\misc/lv_tlsf.c **** /* Link a new block with its physical neighbor, return the neighbor. */
 463:..\..\..\arduinoLCD\test\Pain Drain\libraries\lvgl\src\misc/lv_tlsf.c **** static block_header_t * block_link_next(block_header_t * block)
 464:..\..\..\arduinoLCD\test\Pain Drain\libraries\lvgl\src\misc/lv_tlsf.c **** {
 403              		.loc 1 464 0
 404              		.cfi_startproc
 405              		@ args = 0, pretend = 0, frame = 0
 406              		@ frame_needed = 0, uses_anonymous_args = 0
 407              	.LVL33:
 408 0000 10B5     		push	{r4, lr}
 409              		.cfi_def_cfa_offset 8
 410              		.cfi_offset 4, -8
 411              		.cfi_offset 14, -4
 412 0002 0400     		movs	r4, r0
 465:..\..\..\arduinoLCD\test\Pain Drain\libraries\lvgl\src\misc/lv_tlsf.c ****     block_header_t * next = block_next(block);
 413              		.loc 1 465 0
 414 0004 FFF7FEFF 		bl	block_next
 415              	.LVL34:
 466:..\..\..\arduinoLCD\test\Pain Drain\libraries\lvgl\src\misc/lv_tlsf.c ****     next->prev_phys_block = block;
 416              		.loc 1 466 0
 417 0008 0460     		str	r4, [r0]
 467:..\..\..\arduinoLCD\test\Pain Drain\libraries\lvgl\src\misc/lv_tlsf.c ****     return next;
 468:..\..\..\arduinoLCD\test\Pain Drain\libraries\lvgl\src\misc/lv_tlsf.c **** }
 418              		.loc 1 468 0
 419              		@ sp needed
 420              	.LVL35:
 421 000a 10BD     		pop	{r4, pc}
 422              		.cfi_endproc
 423              	.LFE17:
 424              		.size	block_link_next, .-block_link_next
 425              		.section	.text.block_mark_as_free,"ax",%progbits
 426              		.align	2
 427              		.code	16
 428              		.thumb_func
 429              		.type	block_mark_as_free, %function
 430              	block_mark_as_free:
 431              	.LFB18:
 469:..\..\..\arduinoLCD\test\Pain Drain\libraries\lvgl\src\misc/lv_tlsf.c **** 
 470:..\..\..\arduinoLCD\test\Pain Drain\libraries\lvgl\src\misc/lv_tlsf.c **** static void block_mark_as_free(block_header_t * block)
 471:..\..\..\arduinoLCD\test\Pain Drain\libraries\lvgl\src\misc/lv_tlsf.c **** {
 432              		.loc 1 471 0
 433              		.cfi_startproc
 434              		@ args = 0, pretend = 0, frame = 0
 435              		@ frame_needed = 0, uses_anonymous_args = 0
 436              	.LVL36:
 437 0000 10B5     		push	{r4, lr}
 438              		.cfi_def_cfa_offset 8
 439              		.cfi_offset 4, -8
 440              		.cfi_offset 14, -4
ARM GAS  C:\Users\haske\AppData\Local\Temp\ccswauRt.s 			page 17


 441 0002 0400     		movs	r4, r0
 472:..\..\..\arduinoLCD\test\Pain Drain\libraries\lvgl\src\misc/lv_tlsf.c ****     /* Link the block to the next block, first. */
 473:..\..\..\arduinoLCD\test\Pain Drain\libraries\lvgl\src\misc/lv_tlsf.c ****     block_header_t * next = block_link_next(block);
 442              		.loc 1 473 0
 443 0004 FFF7FEFF 		bl	block_link_next
 444              	.LVL37:
 474:..\..\..\arduinoLCD\test\Pain Drain\libraries\lvgl\src\misc/lv_tlsf.c ****     block_set_prev_free(next);
 445              		.loc 1 474 0
 446 0008 FFF7FEFF 		bl	block_set_prev_free
 447              	.LVL38:
 475:..\..\..\arduinoLCD\test\Pain Drain\libraries\lvgl\src\misc/lv_tlsf.c ****     block_set_free(block);
 448              		.loc 1 475 0
 449 000c 2000     		movs	r0, r4
 450 000e FFF7FEFF 		bl	block_set_free
 451              	.LVL39:
 476:..\..\..\arduinoLCD\test\Pain Drain\libraries\lvgl\src\misc/lv_tlsf.c **** }
 452              		.loc 1 476 0
 453              		@ sp needed
 454              	.LVL40:
 455 0012 10BD     		pop	{r4, pc}
 456              		.cfi_endproc
 457              	.LFE18:
 458              		.size	block_mark_as_free, .-block_mark_as_free
 459              		.section	.text.block_mark_as_used,"ax",%progbits
 460              		.align	2
 461              		.code	16
 462              		.thumb_func
 463              		.type	block_mark_as_used, %function
 464              	block_mark_as_used:
 465              	.LFB19:
 477:..\..\..\arduinoLCD\test\Pain Drain\libraries\lvgl\src\misc/lv_tlsf.c **** 
 478:..\..\..\arduinoLCD\test\Pain Drain\libraries\lvgl\src\misc/lv_tlsf.c **** static void block_mark_as_used(block_header_t * block)
 479:..\..\..\arduinoLCD\test\Pain Drain\libraries\lvgl\src\misc/lv_tlsf.c **** {
 466              		.loc 1 479 0
 467              		.cfi_startproc
 468              		@ args = 0, pretend = 0, frame = 0
 469              		@ frame_needed = 0, uses_anonymous_args = 0
 470              	.LVL41:
 471 0000 10B5     		push	{r4, lr}
 472              		.cfi_def_cfa_offset 8
 473              		.cfi_offset 4, -8
 474              		.cfi_offset 14, -4
 475 0002 0400     		movs	r4, r0
 480:..\..\..\arduinoLCD\test\Pain Drain\libraries\lvgl\src\misc/lv_tlsf.c ****     block_header_t * next = block_next(block);
 476              		.loc 1 480 0
 477 0004 FFF7FEFF 		bl	block_next
 478              	.LVL42:
 481:..\..\..\arduinoLCD\test\Pain Drain\libraries\lvgl\src\misc/lv_tlsf.c ****     block_set_prev_used(next);
 479              		.loc 1 481 0
 480 0008 FFF7FEFF 		bl	block_set_prev_used
 481              	.LVL43:
 482:..\..\..\arduinoLCD\test\Pain Drain\libraries\lvgl\src\misc/lv_tlsf.c ****     block_set_used(block);
 482              		.loc 1 482 0
 483 000c 2000     		movs	r0, r4
 484 000e FFF7FEFF 		bl	block_set_used
 485              	.LVL44:
 483:..\..\..\arduinoLCD\test\Pain Drain\libraries\lvgl\src\misc/lv_tlsf.c **** }
ARM GAS  C:\Users\haske\AppData\Local\Temp\ccswauRt.s 			page 18


 486              		.loc 1 483 0
 487              		@ sp needed
 488              	.LVL45:
 489 0012 10BD     		pop	{r4, pc}
 490              		.cfi_endproc
 491              	.LFE19:
 492              		.size	block_mark_as_used, .-block_mark_as_used
 493              		.section	.text.align_up,"ax",%progbits
 494              		.align	2
 495              		.code	16
 496              		.thumb_func
 497              		.type	align_up, %function
 498              	align_up:
 499              	.LFB20:
 484:..\..\..\arduinoLCD\test\Pain Drain\libraries\lvgl\src\misc/lv_tlsf.c **** 
 485:..\..\..\arduinoLCD\test\Pain Drain\libraries\lvgl\src\misc/lv_tlsf.c **** static size_t align_up(size_t x, size_t align)
 486:..\..\..\arduinoLCD\test\Pain Drain\libraries\lvgl\src\misc/lv_tlsf.c **** {
 500              		.loc 1 486 0
 501              		.cfi_startproc
 502              		@ args = 0, pretend = 0, frame = 0
 503              		@ frame_needed = 0, uses_anonymous_args = 0
 504              		@ link register save eliminated.
 505              	.LVL46:
 487:..\..\..\arduinoLCD\test\Pain Drain\libraries\lvgl\src\misc/lv_tlsf.c ****     tlsf_assert(0 == (align & (align - 1)) && "must align to a power of two");
 506              		.loc 1 487 0
 507 0000 4B1E     		subs	r3, r1, #1
 508 0002 0B42     		tst	r3, r1
 509 0004 00D0     		beq	.L23
 510              	.L24:
 511 0006 FEE7     		b	.L24
 512              	.L23:
 488:..\..\..\arduinoLCD\test\Pain Drain\libraries\lvgl\src\misc/lv_tlsf.c ****     return (x + (align - 1)) & ~(align - 1);
 513              		.loc 1 488 0
 514 0008 0818     		adds	r0, r1, r0
 515              	.LVL47:
 516 000a 431E     		subs	r3, r0, #1
 517 000c 4842     		rsbs	r0, r1, #0
 518 000e 1840     		ands	r0, r3
 489:..\..\..\arduinoLCD\test\Pain Drain\libraries\lvgl\src\misc/lv_tlsf.c **** }
 519              		.loc 1 489 0
 520              		@ sp needed
 521 0010 7047     		bx	lr
 522              		.cfi_endproc
 523              	.LFE20:
 524              		.size	align_up, .-align_up
 525 0012 C046     		.section	.text.align_down,"ax",%progbits
 526              		.align	2
 527              		.code	16
 528              		.thumb_func
 529              		.type	align_down, %function
 530              	align_down:
 531              	.LFB21:
 490:..\..\..\arduinoLCD\test\Pain Drain\libraries\lvgl\src\misc/lv_tlsf.c **** 
 491:..\..\..\arduinoLCD\test\Pain Drain\libraries\lvgl\src\misc/lv_tlsf.c **** static size_t align_down(size_t x, size_t align)
 492:..\..\..\arduinoLCD\test\Pain Drain\libraries\lvgl\src\misc/lv_tlsf.c **** {
 532              		.loc 1 492 0
 533              		.cfi_startproc
ARM GAS  C:\Users\haske\AppData\Local\Temp\ccswauRt.s 			page 19


 534              		@ args = 0, pretend = 0, frame = 0
 535              		@ frame_needed = 0, uses_anonymous_args = 0
 536              		@ link register save eliminated.
 537              	.LVL48:
 493:..\..\..\arduinoLCD\test\Pain Drain\libraries\lvgl\src\misc/lv_tlsf.c ****     tlsf_assert(0 == (align & (align - 1)) && "must align to a power of two");
 538              		.loc 1 493 0
 539 0000 4B1E     		subs	r3, r1, #1
 540 0002 0B42     		tst	r3, r1
 541 0004 00D0     		beq	.L26
 542              	.L27:
 543 0006 FEE7     		b	.L27
 544              	.L26:
 494:..\..\..\arduinoLCD\test\Pain Drain\libraries\lvgl\src\misc/lv_tlsf.c ****     return x - (x & (align - 1));
 545              		.loc 1 494 0
 546 0008 4942     		rsbs	r1, r1, #0
 547              	.LVL49:
 548 000a 0840     		ands	r0, r1
 549              	.LVL50:
 495:..\..\..\arduinoLCD\test\Pain Drain\libraries\lvgl\src\misc/lv_tlsf.c **** }
 550              		.loc 1 495 0
 551              		@ sp needed
 552 000c 7047     		bx	lr
 553              		.cfi_endproc
 554              	.LFE21:
 555              		.size	align_down, .-align_down
 556 000e C046     		.section	.text.align_ptr,"ax",%progbits
 557              		.align	2
 558              		.code	16
 559              		.thumb_func
 560              		.type	align_ptr, %function
 561              	align_ptr:
 562              	.LFB22:
 496:..\..\..\arduinoLCD\test\Pain Drain\libraries\lvgl\src\misc/lv_tlsf.c **** 
 497:..\..\..\arduinoLCD\test\Pain Drain\libraries\lvgl\src\misc/lv_tlsf.c **** static void * align_ptr(const void * ptr, size_t align)
 498:..\..\..\arduinoLCD\test\Pain Drain\libraries\lvgl\src\misc/lv_tlsf.c **** {
 563              		.loc 1 498 0
 564              		.cfi_startproc
 565              		@ args = 0, pretend = 0, frame = 0
 566              		@ frame_needed = 0, uses_anonymous_args = 0
 567              		@ link register save eliminated.
 568              	.LVL51:
 499:..\..\..\arduinoLCD\test\Pain Drain\libraries\lvgl\src\misc/lv_tlsf.c ****     const tlsfptr_t aligned =
 500:..\..\..\arduinoLCD\test\Pain Drain\libraries\lvgl\src\misc/lv_tlsf.c ****         (tlsf_cast(tlsfptr_t, ptr) + (align - 1)) & ~(align - 1);
 569              		.loc 1 500 0
 570 0000 4018     		adds	r0, r0, r1
 571              	.LVL52:
 572 0002 0138     		subs	r0, r0, #1
 573 0004 4B42     		rsbs	r3, r1, #0
 574 0006 1840     		ands	r0, r3
 575              	.LVL53:
 501:..\..\..\arduinoLCD\test\Pain Drain\libraries\lvgl\src\misc/lv_tlsf.c ****     tlsf_assert(0 == (align & (align - 1)) && "must align to a power of two");
 576              		.loc 1 501 0
 577 0008 4B1E     		subs	r3, r1, #1
 578 000a 0B42     		tst	r3, r1
 579 000c 00D0     		beq	.L29
 580              	.L30:
 581 000e FEE7     		b	.L30
ARM GAS  C:\Users\haske\AppData\Local\Temp\ccswauRt.s 			page 20


 582              	.L29:
 502:..\..\..\arduinoLCD\test\Pain Drain\libraries\lvgl\src\misc/lv_tlsf.c ****     return tlsf_cast(void *, aligned);
 503:..\..\..\arduinoLCD\test\Pain Drain\libraries\lvgl\src\misc/lv_tlsf.c **** }
 583              		.loc 1 503 0
 584              		@ sp needed
 585 0010 7047     		bx	lr
 586              		.cfi_endproc
 587              	.LFE22:
 588              		.size	align_ptr, .-align_ptr
 589 0012 C046     		.section	.text.adjust_request_size,"ax",%progbits
 590              		.align	2
 591              		.code	16
 592              		.thumb_func
 593              		.type	adjust_request_size, %function
 594              	adjust_request_size:
 595              	.LFB23:
 504:..\..\..\arduinoLCD\test\Pain Drain\libraries\lvgl\src\misc/lv_tlsf.c **** 
 505:..\..\..\arduinoLCD\test\Pain Drain\libraries\lvgl\src\misc/lv_tlsf.c **** /*
 506:..\..\..\arduinoLCD\test\Pain Drain\libraries\lvgl\src\misc/lv_tlsf.c **** ** Adjust an allocation size to be aligned to word size, and no smaller
 507:..\..\..\arduinoLCD\test\Pain Drain\libraries\lvgl\src\misc/lv_tlsf.c **** ** than internal minimum.
 508:..\..\..\arduinoLCD\test\Pain Drain\libraries\lvgl\src\misc/lv_tlsf.c **** */
 509:..\..\..\arduinoLCD\test\Pain Drain\libraries\lvgl\src\misc/lv_tlsf.c **** static size_t adjust_request_size(size_t size, size_t align)
 510:..\..\..\arduinoLCD\test\Pain Drain\libraries\lvgl\src\misc/lv_tlsf.c **** {
 596              		.loc 1 510 0
 597              		.cfi_startproc
 598              		@ args = 0, pretend = 0, frame = 0
 599              		@ frame_needed = 0, uses_anonymous_args = 0
 600              	.LVL54:
 601 0000 10B5     		push	{r4, lr}
 602              		.cfi_def_cfa_offset 8
 603              		.cfi_offset 4, -8
 604              		.cfi_offset 14, -4
 605              	.LVL55:
 511:..\..\..\arduinoLCD\test\Pain Drain\libraries\lvgl\src\misc/lv_tlsf.c ****     size_t adjust = 0;
 512:..\..\..\arduinoLCD\test\Pain Drain\libraries\lvgl\src\misc/lv_tlsf.c ****     if(size) {
 606              		.loc 1 512 0
 607 0002 0028     		cmp	r0, #0
 608 0004 08D0     		beq	.L33
 609              	.LBB2:
 513:..\..\..\arduinoLCD\test\Pain Drain\libraries\lvgl\src\misc/lv_tlsf.c ****         const size_t aligned = align_up(size, align);
 610              		.loc 1 513 0
 611 0006 FFF7FEFF 		bl	align_up
 612              	.LVL56:
 514:..\..\..\arduinoLCD\test\Pain Drain\libraries\lvgl\src\misc/lv_tlsf.c **** 
 515:..\..\..\arduinoLCD\test\Pain Drain\libraries\lvgl\src\misc/lv_tlsf.c ****         /* aligned sized must not exceed block_size_max or we'll go out of bounds on sl_bitmap */
 516:..\..\..\arduinoLCD\test\Pain Drain\libraries\lvgl\src\misc/lv_tlsf.c ****         if(aligned < block_size_max) {
 613              		.loc 1 516 0
 614 000a 054B     		ldr	r3, .L35
 615 000c 9842     		cmp	r0, r3
 616 000e 05D8     		bhi	.L34
 517:..\..\..\arduinoLCD\test\Pain Drain\libraries\lvgl\src\misc/lv_tlsf.c ****             adjust = tlsf_max(aligned, block_size_min);
 617              		.loc 1 517 0
 618 0010 0C28     		cmp	r0, #12
 619 0012 04D8     		bhi	.L32
 620 0014 0C20     		movs	r0, #12
 621              	.LVL57:
 622 0016 02E0     		b	.L32
ARM GAS  C:\Users\haske\AppData\Local\Temp\ccswauRt.s 			page 21


 623              	.LVL58:
 624              	.L33:
 625              	.LBE2:
 511:..\..\..\arduinoLCD\test\Pain Drain\libraries\lvgl\src\misc/lv_tlsf.c ****     if(size) {
 626              		.loc 1 511 0
 627 0018 0020     		movs	r0, #0
 628              	.LVL59:
 629 001a 00E0     		b	.L32
 630              	.LVL60:
 631              	.L34:
 632 001c 0020     		movs	r0, #0
 633              	.LVL61:
 634              	.L32:
 518:..\..\..\arduinoLCD\test\Pain Drain\libraries\lvgl\src\misc/lv_tlsf.c ****         }
 519:..\..\..\arduinoLCD\test\Pain Drain\libraries\lvgl\src\misc/lv_tlsf.c ****     }
 520:..\..\..\arduinoLCD\test\Pain Drain\libraries\lvgl\src\misc/lv_tlsf.c ****     return adjust;
 521:..\..\..\arduinoLCD\test\Pain Drain\libraries\lvgl\src\misc/lv_tlsf.c **** }
 635              		.loc 1 521 0
 636              		@ sp needed
 637 001e 10BD     		pop	{r4, pc}
 638              	.L36:
 639              		.align	2
 640              	.L35:
 641 0020 FFFF0000 		.word	65535
 642              		.cfi_endproc
 643              	.LFE23:
 644              		.size	adjust_request_size, .-adjust_request_size
 645              		.section	.text.remove_free_block,"ax",%progbits
 646              		.align	2
 647              		.code	16
 648              		.thumb_func
 649              		.type	remove_free_block, %function
 650              	remove_free_block:
 651              	.LFB27:
 522:..\..\..\arduinoLCD\test\Pain Drain\libraries\lvgl\src\misc/lv_tlsf.c **** 
 523:..\..\..\arduinoLCD\test\Pain Drain\libraries\lvgl\src\misc/lv_tlsf.c **** /*
 524:..\..\..\arduinoLCD\test\Pain Drain\libraries\lvgl\src\misc/lv_tlsf.c **** ** TLSF utility functions. In most cases, these are direct translations of
 525:..\..\..\arduinoLCD\test\Pain Drain\libraries\lvgl\src\misc/lv_tlsf.c **** ** the documentation found in the white paper.
 526:..\..\..\arduinoLCD\test\Pain Drain\libraries\lvgl\src\misc/lv_tlsf.c **** */
 527:..\..\..\arduinoLCD\test\Pain Drain\libraries\lvgl\src\misc/lv_tlsf.c **** 
 528:..\..\..\arduinoLCD\test\Pain Drain\libraries\lvgl\src\misc/lv_tlsf.c **** static void mapping_insert(size_t size, int * fli, int * sli)
 529:..\..\..\arduinoLCD\test\Pain Drain\libraries\lvgl\src\misc/lv_tlsf.c **** {
 530:..\..\..\arduinoLCD\test\Pain Drain\libraries\lvgl\src\misc/lv_tlsf.c ****     int fl, sl;
 531:..\..\..\arduinoLCD\test\Pain Drain\libraries\lvgl\src\misc/lv_tlsf.c ****     if(size < SMALL_BLOCK_SIZE) {
 532:..\..\..\arduinoLCD\test\Pain Drain\libraries\lvgl\src\misc/lv_tlsf.c ****         /* Store small blocks in first list. */
 533:..\..\..\arduinoLCD\test\Pain Drain\libraries\lvgl\src\misc/lv_tlsf.c ****         fl = 0;
 534:..\..\..\arduinoLCD\test\Pain Drain\libraries\lvgl\src\misc/lv_tlsf.c ****         sl = tlsf_cast(int, size) / (SMALL_BLOCK_SIZE / SL_INDEX_COUNT);
 535:..\..\..\arduinoLCD\test\Pain Drain\libraries\lvgl\src\misc/lv_tlsf.c ****     }
 536:..\..\..\arduinoLCD\test\Pain Drain\libraries\lvgl\src\misc/lv_tlsf.c ****     else {
 537:..\..\..\arduinoLCD\test\Pain Drain\libraries\lvgl\src\misc/lv_tlsf.c ****         fl = tlsf_fls_sizet(size);
 538:..\..\..\arduinoLCD\test\Pain Drain\libraries\lvgl\src\misc/lv_tlsf.c ****         sl = tlsf_cast(int, size >> (fl - SL_INDEX_COUNT_LOG2)) ^ (1 << SL_INDEX_COUNT_LOG2);
 539:..\..\..\arduinoLCD\test\Pain Drain\libraries\lvgl\src\misc/lv_tlsf.c ****         fl -= (FL_INDEX_SHIFT - 1);
 540:..\..\..\arduinoLCD\test\Pain Drain\libraries\lvgl\src\misc/lv_tlsf.c ****     }
 541:..\..\..\arduinoLCD\test\Pain Drain\libraries\lvgl\src\misc/lv_tlsf.c ****     *fli = fl;
 542:..\..\..\arduinoLCD\test\Pain Drain\libraries\lvgl\src\misc/lv_tlsf.c ****     *sli = sl;
 543:..\..\..\arduinoLCD\test\Pain Drain\libraries\lvgl\src\misc/lv_tlsf.c **** }
 544:..\..\..\arduinoLCD\test\Pain Drain\libraries\lvgl\src\misc/lv_tlsf.c **** 
ARM GAS  C:\Users\haske\AppData\Local\Temp\ccswauRt.s 			page 22


 545:..\..\..\arduinoLCD\test\Pain Drain\libraries\lvgl\src\misc/lv_tlsf.c **** /* This version rounds up to the next block size (for allocations) */
 546:..\..\..\arduinoLCD\test\Pain Drain\libraries\lvgl\src\misc/lv_tlsf.c **** static void mapping_search(size_t size, int * fli, int * sli)
 547:..\..\..\arduinoLCD\test\Pain Drain\libraries\lvgl\src\misc/lv_tlsf.c **** {
 548:..\..\..\arduinoLCD\test\Pain Drain\libraries\lvgl\src\misc/lv_tlsf.c ****     if(size >= SMALL_BLOCK_SIZE) {
 549:..\..\..\arduinoLCD\test\Pain Drain\libraries\lvgl\src\misc/lv_tlsf.c ****         const size_t round = (1 << (tlsf_fls_sizet(size) - SL_INDEX_COUNT_LOG2)) - 1;
 550:..\..\..\arduinoLCD\test\Pain Drain\libraries\lvgl\src\misc/lv_tlsf.c ****         size += round;
 551:..\..\..\arduinoLCD\test\Pain Drain\libraries\lvgl\src\misc/lv_tlsf.c ****     }
 552:..\..\..\arduinoLCD\test\Pain Drain\libraries\lvgl\src\misc/lv_tlsf.c ****     mapping_insert(size, fli, sli);
 553:..\..\..\arduinoLCD\test\Pain Drain\libraries\lvgl\src\misc/lv_tlsf.c **** }
 554:..\..\..\arduinoLCD\test\Pain Drain\libraries\lvgl\src\misc/lv_tlsf.c **** 
 555:..\..\..\arduinoLCD\test\Pain Drain\libraries\lvgl\src\misc/lv_tlsf.c **** static block_header_t * search_suitable_block(control_t * control, int * fli, int * sli)
 556:..\..\..\arduinoLCD\test\Pain Drain\libraries\lvgl\src\misc/lv_tlsf.c **** {
 557:..\..\..\arduinoLCD\test\Pain Drain\libraries\lvgl\src\misc/lv_tlsf.c ****     int fl = *fli;
 558:..\..\..\arduinoLCD\test\Pain Drain\libraries\lvgl\src\misc/lv_tlsf.c ****     int sl = *sli;
 559:..\..\..\arduinoLCD\test\Pain Drain\libraries\lvgl\src\misc/lv_tlsf.c **** 
 560:..\..\..\arduinoLCD\test\Pain Drain\libraries\lvgl\src\misc/lv_tlsf.c ****     /*
 561:..\..\..\arduinoLCD\test\Pain Drain\libraries\lvgl\src\misc/lv_tlsf.c ****     ** First, search for a block in the list associated with the given
 562:..\..\..\arduinoLCD\test\Pain Drain\libraries\lvgl\src\misc/lv_tlsf.c ****     ** fl/sl index.
 563:..\..\..\arduinoLCD\test\Pain Drain\libraries\lvgl\src\misc/lv_tlsf.c ****     */
 564:..\..\..\arduinoLCD\test\Pain Drain\libraries\lvgl\src\misc/lv_tlsf.c ****     unsigned int sl_map = control->sl_bitmap[fl] & (~0U << sl);
 565:..\..\..\arduinoLCD\test\Pain Drain\libraries\lvgl\src\misc/lv_tlsf.c ****     if(!sl_map) {
 566:..\..\..\arduinoLCD\test\Pain Drain\libraries\lvgl\src\misc/lv_tlsf.c ****         /* No block exists. Search in the next largest first-level list. */
 567:..\..\..\arduinoLCD\test\Pain Drain\libraries\lvgl\src\misc/lv_tlsf.c ****         const unsigned int fl_map = control->fl_bitmap & (~0U << (fl + 1));
 568:..\..\..\arduinoLCD\test\Pain Drain\libraries\lvgl\src\misc/lv_tlsf.c ****         if(!fl_map) {
 569:..\..\..\arduinoLCD\test\Pain Drain\libraries\lvgl\src\misc/lv_tlsf.c ****             /* No free blocks available, memory has been exhausted. */
 570:..\..\..\arduinoLCD\test\Pain Drain\libraries\lvgl\src\misc/lv_tlsf.c ****             return 0;
 571:..\..\..\arduinoLCD\test\Pain Drain\libraries\lvgl\src\misc/lv_tlsf.c ****         }
 572:..\..\..\arduinoLCD\test\Pain Drain\libraries\lvgl\src\misc/lv_tlsf.c **** 
 573:..\..\..\arduinoLCD\test\Pain Drain\libraries\lvgl\src\misc/lv_tlsf.c ****         fl = tlsf_ffs(fl_map);
 574:..\..\..\arduinoLCD\test\Pain Drain\libraries\lvgl\src\misc/lv_tlsf.c ****         *fli = fl;
 575:..\..\..\arduinoLCD\test\Pain Drain\libraries\lvgl\src\misc/lv_tlsf.c ****         sl_map = control->sl_bitmap[fl];
 576:..\..\..\arduinoLCD\test\Pain Drain\libraries\lvgl\src\misc/lv_tlsf.c ****     }
 577:..\..\..\arduinoLCD\test\Pain Drain\libraries\lvgl\src\misc/lv_tlsf.c ****     tlsf_assert(sl_map && "internal error - second level bitmap is null");
 578:..\..\..\arduinoLCD\test\Pain Drain\libraries\lvgl\src\misc/lv_tlsf.c ****     sl = tlsf_ffs(sl_map);
 579:..\..\..\arduinoLCD\test\Pain Drain\libraries\lvgl\src\misc/lv_tlsf.c ****     *sli = sl;
 580:..\..\..\arduinoLCD\test\Pain Drain\libraries\lvgl\src\misc/lv_tlsf.c **** 
 581:..\..\..\arduinoLCD\test\Pain Drain\libraries\lvgl\src\misc/lv_tlsf.c ****     /* Return the first block in the free list. */
 582:..\..\..\arduinoLCD\test\Pain Drain\libraries\lvgl\src\misc/lv_tlsf.c ****     return control->blocks[fl][sl];
 583:..\..\..\arduinoLCD\test\Pain Drain\libraries\lvgl\src\misc/lv_tlsf.c **** }
 584:..\..\..\arduinoLCD\test\Pain Drain\libraries\lvgl\src\misc/lv_tlsf.c **** 
 585:..\..\..\arduinoLCD\test\Pain Drain\libraries\lvgl\src\misc/lv_tlsf.c **** /* Remove a free block from the free list.*/
 586:..\..\..\arduinoLCD\test\Pain Drain\libraries\lvgl\src\misc/lv_tlsf.c **** static void remove_free_block(control_t * control, block_header_t * block, int fl, int sl)
 587:..\..\..\arduinoLCD\test\Pain Drain\libraries\lvgl\src\misc/lv_tlsf.c **** {
 652              		.loc 1 587 0
 653              		.cfi_startproc
 654              		@ args = 0, pretend = 0, frame = 0
 655              		@ frame_needed = 0, uses_anonymous_args = 0
 656              	.LVL62:
 657 0000 30B5     		push	{r4, r5, lr}
 658              		.cfi_def_cfa_offset 12
 659              		.cfi_offset 4, -12
 660              		.cfi_offset 5, -8
 661              		.cfi_offset 14, -4
 588:..\..\..\arduinoLCD\test\Pain Drain\libraries\lvgl\src\misc/lv_tlsf.c ****     block_header_t * prev = block->prev_free;
 662              		.loc 1 588 0
 663 0002 CC68     		ldr	r4, [r1, #12]
 664              	.LVL63:
ARM GAS  C:\Users\haske\AppData\Local\Temp\ccswauRt.s 			page 23


 589:..\..\..\arduinoLCD\test\Pain Drain\libraries\lvgl\src\misc/lv_tlsf.c ****     block_header_t * next = block->next_free;
 665              		.loc 1 589 0
 666 0004 8D68     		ldr	r5, [r1, #8]
 667              	.LVL64:
 590:..\..\..\arduinoLCD\test\Pain Drain\libraries\lvgl\src\misc/lv_tlsf.c ****     tlsf_assert(prev && "prev_free field can not be null");
 668              		.loc 1 590 0
 669 0006 002C     		cmp	r4, #0
 670 0008 00D1     		bne	.L38
 671              	.L39:
 672 000a FEE7     		b	.L39
 673              	.L38:
 591:..\..\..\arduinoLCD\test\Pain Drain\libraries\lvgl\src\misc/lv_tlsf.c ****     tlsf_assert(next && "next_free field can not be null");
 674              		.loc 1 591 0
 675 000c 002D     		cmp	r5, #0
 676 000e 00D1     		bne	.L40
 677              	.L41:
 678 0010 FEE7     		b	.L41
 679              	.L40:
 592:..\..\..\arduinoLCD\test\Pain Drain\libraries\lvgl\src\misc/lv_tlsf.c ****     next->prev_free = prev;
 680              		.loc 1 592 0
 681 0012 EC60     		str	r4, [r5, #12]
 593:..\..\..\arduinoLCD\test\Pain Drain\libraries\lvgl\src\misc/lv_tlsf.c ****     prev->next_free = next;
 682              		.loc 1 593 0
 683 0014 A560     		str	r5, [r4, #8]
 594:..\..\..\arduinoLCD\test\Pain Drain\libraries\lvgl\src\misc/lv_tlsf.c **** 
 595:..\..\..\arduinoLCD\test\Pain Drain\libraries\lvgl\src\misc/lv_tlsf.c ****     /* If this block is the head of the free list, set new head. */
 596:..\..\..\arduinoLCD\test\Pain Drain\libraries\lvgl\src\misc/lv_tlsf.c ****     if(control->blocks[fl][sl] == block) {
 684              		.loc 1 596 0
 685 0016 5401     		lsls	r4, r2, #5
 686              	.LVL65:
 687 0018 E418     		adds	r4, r4, r3
 688 001a 0E34     		adds	r4, r4, #14
 689 001c A400     		lsls	r4, r4, #2
 690 001e 0419     		adds	r4, r0, r4
 691 0020 6468     		ldr	r4, [r4, #4]
 692 0022 A142     		cmp	r1, r4
 693 0024 15D1     		bne	.L37
 597:..\..\..\arduinoLCD\test\Pain Drain\libraries\lvgl\src\misc/lv_tlsf.c ****         control->blocks[fl][sl] = next;
 694              		.loc 1 597 0
 695 0026 5101     		lsls	r1, r2, #5
 696              	.LVL66:
 697 0028 C918     		adds	r1, r1, r3
 698 002a 0E31     		adds	r1, r1, #14
 699 002c 8900     		lsls	r1, r1, #2
 700 002e 4118     		adds	r1, r0, r1
 701 0030 4D60     		str	r5, [r1, #4]
 598:..\..\..\arduinoLCD\test\Pain Drain\libraries\lvgl\src\misc/lv_tlsf.c **** 
 599:..\..\..\arduinoLCD\test\Pain Drain\libraries\lvgl\src\misc/lv_tlsf.c ****         /* If the new head is null, clear the bitmap. */
 600:..\..\..\arduinoLCD\test\Pain Drain\libraries\lvgl\src\misc/lv_tlsf.c ****         if(next == &control->block_null) {
 702              		.loc 1 600 0
 703 0032 8542     		cmp	r5, r0
 704 0034 0DD1     		bne	.L37
 601:..\..\..\arduinoLCD\test\Pain Drain\libraries\lvgl\src\misc/lv_tlsf.c ****             control->sl_bitmap[fl] &= ~(1U << sl);
 705              		.loc 1 601 0
 706 0036 0121     		movs	r1, #1
 707 0038 9940     		lsls	r1, r1, r3
 708 003a 131D     		adds	r3, r2, #4
ARM GAS  C:\Users\haske\AppData\Local\Temp\ccswauRt.s 			page 24


 709              	.LVL67:
 710 003c 9B00     		lsls	r3, r3, #2
 711 003e C318     		adds	r3, r0, r3
 712 0040 5C68     		ldr	r4, [r3, #4]
 713 0042 8C43     		bics	r4, r1
 714 0044 5C60     		str	r4, [r3, #4]
 602:..\..\..\arduinoLCD\test\Pain Drain\libraries\lvgl\src\misc/lv_tlsf.c **** 
 603:..\..\..\arduinoLCD\test\Pain Drain\libraries\lvgl\src\misc/lv_tlsf.c ****             /* If the second bitmap is now empty, clear the fl bitmap. */
 604:..\..\..\arduinoLCD\test\Pain Drain\libraries\lvgl\src\misc/lv_tlsf.c ****             if(!control->sl_bitmap[fl]) {
 715              		.loc 1 604 0
 716 0046 04D1     		bne	.L37
 605:..\..\..\arduinoLCD\test\Pain Drain\libraries\lvgl\src\misc/lv_tlsf.c ****                 control->fl_bitmap &= ~(1U << fl);
 717              		.loc 1 605 0
 718 0048 0123     		movs	r3, #1
 719 004a 9340     		lsls	r3, r3, r2
 720 004c 0269     		ldr	r2, [r0, #16]
 721              	.LVL68:
 722 004e 9A43     		bics	r2, r3
 723 0050 0261     		str	r2, [r0, #16]
 724              	.L37:
 606:..\..\..\arduinoLCD\test\Pain Drain\libraries\lvgl\src\misc/lv_tlsf.c ****             }
 607:..\..\..\arduinoLCD\test\Pain Drain\libraries\lvgl\src\misc/lv_tlsf.c ****         }
 608:..\..\..\arduinoLCD\test\Pain Drain\libraries\lvgl\src\misc/lv_tlsf.c ****     }
 609:..\..\..\arduinoLCD\test\Pain Drain\libraries\lvgl\src\misc/lv_tlsf.c **** }
 725              		.loc 1 609 0
 726              		@ sp needed
 727              	.LVL69:
 728 0052 30BD     		pop	{r4, r5, pc}
 729              		.cfi_endproc
 730              	.LFE27:
 731              		.size	remove_free_block, .-remove_free_block
 732              		.section	.text.insert_free_block,"ax",%progbits
 733              		.align	2
 734              		.code	16
 735              		.thumb_func
 736              		.type	insert_free_block, %function
 737              	insert_free_block:
 738              	.LFB28:
 610:..\..\..\arduinoLCD\test\Pain Drain\libraries\lvgl\src\misc/lv_tlsf.c **** 
 611:..\..\..\arduinoLCD\test\Pain Drain\libraries\lvgl\src\misc/lv_tlsf.c **** /* Insert a free block into the free block list. */
 612:..\..\..\arduinoLCD\test\Pain Drain\libraries\lvgl\src\misc/lv_tlsf.c **** static void insert_free_block(control_t * control, block_header_t * block, int fl, int sl)
 613:..\..\..\arduinoLCD\test\Pain Drain\libraries\lvgl\src\misc/lv_tlsf.c **** {
 739              		.loc 1 613 0
 740              		.cfi_startproc
 741              		@ args = 0, pretend = 0, frame = 8
 742              		@ frame_needed = 0, uses_anonymous_args = 0
 743              	.LVL70:
 744 0000 F0B5     		push	{r4, r5, r6, r7, lr}
 745              		.cfi_def_cfa_offset 20
 746              		.cfi_offset 4, -20
 747              		.cfi_offset 5, -16
 748              		.cfi_offset 6, -12
 749              		.cfi_offset 7, -8
 750              		.cfi_offset 14, -4
 751 0002 83B0     		sub	sp, sp, #12
 752              		.cfi_def_cfa_offset 32
 753 0004 0500     		movs	r5, r0
ARM GAS  C:\Users\haske\AppData\Local\Temp\ccswauRt.s 			page 25


 754 0006 0E00     		movs	r6, r1
 755 0008 1400     		movs	r4, r2
 756 000a 1F00     		movs	r7, r3
 614:..\..\..\arduinoLCD\test\Pain Drain\libraries\lvgl\src\misc/lv_tlsf.c ****     block_header_t * current = control->blocks[fl][sl];
 757              		.loc 1 614 0
 758 000c 5301     		lsls	r3, r2, #5
 759              	.LVL71:
 760 000e DB19     		adds	r3, r3, r7
 761 0010 0E33     		adds	r3, r3, #14
 762 0012 9B00     		lsls	r3, r3, #2
 763 0014 C318     		adds	r3, r0, r3
 764 0016 5B68     		ldr	r3, [r3, #4]
 765              	.LVL72:
 615:..\..\..\arduinoLCD\test\Pain Drain\libraries\lvgl\src\misc/lv_tlsf.c ****     tlsf_assert(current && "free list cannot have a null entry");
 766              		.loc 1 615 0
 767 0018 002B     		cmp	r3, #0
 768 001a 00D1     		bne	.L44
 769              	.L45:
 770 001c FEE7     		b	.L45
 771              	.L44:
 616:..\..\..\arduinoLCD\test\Pain Drain\libraries\lvgl\src\misc/lv_tlsf.c ****     tlsf_assert(block && "cannot insert a null entry into the free list");
 772              		.loc 1 616 0
 773 001e 0029     		cmp	r1, #0
 774 0020 00D1     		bne	.L46
 775              	.L47:
 776 0022 FEE7     		b	.L47
 777              	.L46:
 617:..\..\..\arduinoLCD\test\Pain Drain\libraries\lvgl\src\misc/lv_tlsf.c ****     block->next_free = current;
 778              		.loc 1 617 0
 779 0024 8B60     		str	r3, [r1, #8]
 618:..\..\..\arduinoLCD\test\Pain Drain\libraries\lvgl\src\misc/lv_tlsf.c ****     block->prev_free = &control->block_null;
 780              		.loc 1 618 0
 781 0026 F060     		str	r0, [r6, #12]
 619:..\..\..\arduinoLCD\test\Pain Drain\libraries\lvgl\src\misc/lv_tlsf.c ****     current->prev_free = block;
 782              		.loc 1 619 0
 783 0028 D960     		str	r1, [r3, #12]
 620:..\..\..\arduinoLCD\test\Pain Drain\libraries\lvgl\src\misc/lv_tlsf.c **** 
 621:..\..\..\arduinoLCD\test\Pain Drain\libraries\lvgl\src\misc/lv_tlsf.c ****     tlsf_assert(block_to_ptr(block) == align_ptr(block_to_ptr(block), ALIGN_SIZE)
 784              		.loc 1 621 0
 785 002a 0800     		movs	r0, r1
 786              	.LVL73:
 787 002c FFF7FEFF 		bl	block_to_ptr
 788              	.LVL74:
 789 0030 0421     		movs	r1, #4
 790 0032 0190     		str	r0, [sp, #4]
 791 0034 FFF7FEFF 		bl	align_ptr
 792              	.LVL75:
 793 0038 019B     		ldr	r3, [sp, #4]
 794 003a 8342     		cmp	r3, r0
 795 003c 00D0     		beq	.L48
 796              	.L49:
 797 003e FEE7     		b	.L49
 798              	.L48:
 622:..\..\..\arduinoLCD\test\Pain Drain\libraries\lvgl\src\misc/lv_tlsf.c ****                 && "block not aligned properly");
 623:..\..\..\arduinoLCD\test\Pain Drain\libraries\lvgl\src\misc/lv_tlsf.c ****     /*
 624:..\..\..\arduinoLCD\test\Pain Drain\libraries\lvgl\src\misc/lv_tlsf.c ****     ** Insert the new block at the head of the list, and mark the first-
 625:..\..\..\arduinoLCD\test\Pain Drain\libraries\lvgl\src\misc/lv_tlsf.c ****     ** and second-level bitmaps appropriately.
ARM GAS  C:\Users\haske\AppData\Local\Temp\ccswauRt.s 			page 26


 626:..\..\..\arduinoLCD\test\Pain Drain\libraries\lvgl\src\misc/lv_tlsf.c ****     */
 627:..\..\..\arduinoLCD\test\Pain Drain\libraries\lvgl\src\misc/lv_tlsf.c ****     control->blocks[fl][sl] = block;
 799              		.loc 1 627 0
 800 0040 6301     		lsls	r3, r4, #5
 801 0042 DB19     		adds	r3, r3, r7
 802 0044 0E33     		adds	r3, r3, #14
 803 0046 9B00     		lsls	r3, r3, #2
 804 0048 EB18     		adds	r3, r5, r3
 805 004a 5E60     		str	r6, [r3, #4]
 628:..\..\..\arduinoLCD\test\Pain Drain\libraries\lvgl\src\misc/lv_tlsf.c ****     control->fl_bitmap |= (1U << fl);
 806              		.loc 1 628 0
 807 004c 0123     		movs	r3, #1
 808 004e 1A00     		movs	r2, r3
 809 0050 A240     		lsls	r2, r2, r4
 810 0052 2969     		ldr	r1, [r5, #16]
 811 0054 0A43     		orrs	r2, r1
 812 0056 2A61     		str	r2, [r5, #16]
 629:..\..\..\arduinoLCD\test\Pain Drain\libraries\lvgl\src\misc/lv_tlsf.c ****     control->sl_bitmap[fl] |= (1U << sl);
 813              		.loc 1 629 0
 814 0058 BB40     		lsls	r3, r3, r7
 815 005a 1A00     		movs	r2, r3
 816 005c 231D     		adds	r3, r4, #4
 817 005e 9B00     		lsls	r3, r3, #2
 818 0060 EB18     		adds	r3, r5, r3
 819 0062 5968     		ldr	r1, [r3, #4]
 820 0064 0A43     		orrs	r2, r1
 821 0066 5A60     		str	r2, [r3, #4]
 630:..\..\..\arduinoLCD\test\Pain Drain\libraries\lvgl\src\misc/lv_tlsf.c **** }
 822              		.loc 1 630 0
 823 0068 03B0     		add	sp, sp, #12
 824              		@ sp needed
 825              	.LVL76:
 826              	.LVL77:
 827              	.LVL78:
 828              	.LVL79:
 829 006a F0BD     		pop	{r4, r5, r6, r7, pc}
 830              		.cfi_endproc
 831              	.LFE28:
 832              		.size	insert_free_block, .-insert_free_block
 833              		.section	.text.block_can_split,"ax",%progbits
 834              		.align	2
 835              		.code	16
 836              		.thumb_func
 837              		.type	block_can_split, %function
 838              	block_can_split:
 839              	.LFB31:
 631:..\..\..\arduinoLCD\test\Pain Drain\libraries\lvgl\src\misc/lv_tlsf.c **** 
 632:..\..\..\arduinoLCD\test\Pain Drain\libraries\lvgl\src\misc/lv_tlsf.c **** /* Remove a given block from the free list. */
 633:..\..\..\arduinoLCD\test\Pain Drain\libraries\lvgl\src\misc/lv_tlsf.c **** static void block_remove(control_t * control, block_header_t * block)
 634:..\..\..\arduinoLCD\test\Pain Drain\libraries\lvgl\src\misc/lv_tlsf.c **** {
 635:..\..\..\arduinoLCD\test\Pain Drain\libraries\lvgl\src\misc/lv_tlsf.c ****     int fl, sl;
 636:..\..\..\arduinoLCD\test\Pain Drain\libraries\lvgl\src\misc/lv_tlsf.c ****     mapping_insert(block_size(block), &fl, &sl);
 637:..\..\..\arduinoLCD\test\Pain Drain\libraries\lvgl\src\misc/lv_tlsf.c ****     remove_free_block(control, block, fl, sl);
 638:..\..\..\arduinoLCD\test\Pain Drain\libraries\lvgl\src\misc/lv_tlsf.c **** }
 639:..\..\..\arduinoLCD\test\Pain Drain\libraries\lvgl\src\misc/lv_tlsf.c **** 
 640:..\..\..\arduinoLCD\test\Pain Drain\libraries\lvgl\src\misc/lv_tlsf.c **** /* Insert a given block into the free list. */
 641:..\..\..\arduinoLCD\test\Pain Drain\libraries\lvgl\src\misc/lv_tlsf.c **** static void block_insert(control_t * control, block_header_t * block)
ARM GAS  C:\Users\haske\AppData\Local\Temp\ccswauRt.s 			page 27


 642:..\..\..\arduinoLCD\test\Pain Drain\libraries\lvgl\src\misc/lv_tlsf.c **** {
 643:..\..\..\arduinoLCD\test\Pain Drain\libraries\lvgl\src\misc/lv_tlsf.c ****     int fl, sl;
 644:..\..\..\arduinoLCD\test\Pain Drain\libraries\lvgl\src\misc/lv_tlsf.c ****     mapping_insert(block_size(block), &fl, &sl);
 645:..\..\..\arduinoLCD\test\Pain Drain\libraries\lvgl\src\misc/lv_tlsf.c ****     insert_free_block(control, block, fl, sl);
 646:..\..\..\arduinoLCD\test\Pain Drain\libraries\lvgl\src\misc/lv_tlsf.c **** }
 647:..\..\..\arduinoLCD\test\Pain Drain\libraries\lvgl\src\misc/lv_tlsf.c **** 
 648:..\..\..\arduinoLCD\test\Pain Drain\libraries\lvgl\src\misc/lv_tlsf.c **** static int block_can_split(block_header_t * block, size_t size)
 649:..\..\..\arduinoLCD\test\Pain Drain\libraries\lvgl\src\misc/lv_tlsf.c **** {
 840              		.loc 1 649 0
 841              		.cfi_startproc
 842              		@ args = 0, pretend = 0, frame = 0
 843              		@ frame_needed = 0, uses_anonymous_args = 0
 844              	.LVL80:
 845 0000 10B5     		push	{r4, lr}
 846              		.cfi_def_cfa_offset 8
 847              		.cfi_offset 4, -8
 848              		.cfi_offset 14, -4
 849 0002 0C00     		movs	r4, r1
 650:..\..\..\arduinoLCD\test\Pain Drain\libraries\lvgl\src\misc/lv_tlsf.c ****     return block_size(block) >= sizeof(block_header_t) + size;
 850              		.loc 1 650 0
 851 0004 FFF7FEFF 		bl	block_size
 852              	.LVL81:
 853 0008 1034     		adds	r4, r4, #16
 854              	.LVL82:
 855 000a 0023     		movs	r3, #0
 856 000c A042     		cmp	r0, r4
 857 000e 5B41     		adcs	r3, r3, r3
 858 0010 D8B2     		uxtb	r0, r3
 651:..\..\..\arduinoLCD\test\Pain Drain\libraries\lvgl\src\misc/lv_tlsf.c **** }
 859              		.loc 1 651 0
 860              		@ sp needed
 861              	.LVL83:
 862 0012 10BD     		pop	{r4, pc}
 863              		.cfi_endproc
 864              	.LFE31:
 865              		.size	block_can_split, .-block_can_split
 866              		.section	.text.block_split,"ax",%progbits
 867              		.align	2
 868              		.code	16
 869              		.thumb_func
 870              		.type	block_split, %function
 871              	block_split:
 872              	.LFB32:
 652:..\..\..\arduinoLCD\test\Pain Drain\libraries\lvgl\src\misc/lv_tlsf.c **** 
 653:..\..\..\arduinoLCD\test\Pain Drain\libraries\lvgl\src\misc/lv_tlsf.c **** /* Split a block into two, the second of which is free. */
 654:..\..\..\arduinoLCD\test\Pain Drain\libraries\lvgl\src\misc/lv_tlsf.c **** static block_header_t * block_split(block_header_t * block, size_t size)
 655:..\..\..\arduinoLCD\test\Pain Drain\libraries\lvgl\src\misc/lv_tlsf.c **** {
 873              		.loc 1 655 0
 874              		.cfi_startproc
 875              		@ args = 0, pretend = 0, frame = 8
 876              		@ frame_needed = 0, uses_anonymous_args = 0
 877              	.LVL84:
 878 0000 F0B5     		push	{r4, r5, r6, r7, lr}
 879              		.cfi_def_cfa_offset 20
 880              		.cfi_offset 4, -20
 881              		.cfi_offset 5, -16
 882              		.cfi_offset 6, -12
ARM GAS  C:\Users\haske\AppData\Local\Temp\ccswauRt.s 			page 28


 883              		.cfi_offset 7, -8
 884              		.cfi_offset 14, -4
 885 0002 83B0     		sub	sp, sp, #12
 886              		.cfi_def_cfa_offset 32
 887 0004 0190     		str	r0, [sp, #4]
 888 0006 0D00     		movs	r5, r1
 656:..\..\..\arduinoLCD\test\Pain Drain\libraries\lvgl\src\misc/lv_tlsf.c ****     /* Calculate the amount of space left in the remaining block. */
 657:..\..\..\arduinoLCD\test\Pain Drain\libraries\lvgl\src\misc/lv_tlsf.c ****     block_header_t * remaining =
 658:..\..\..\arduinoLCD\test\Pain Drain\libraries\lvgl\src\misc/lv_tlsf.c ****         offset_to_block(block_to_ptr(block), size - block_header_overhead);
 889              		.loc 1 658 0
 890 0008 FFF7FEFF 		bl	block_to_ptr
 891              	.LVL85:
 892 000c 291F     		subs	r1, r5, #4
 657:..\..\..\arduinoLCD\test\Pain Drain\libraries\lvgl\src\misc/lv_tlsf.c ****         offset_to_block(block_to_ptr(block), size - block_header_overhead);
 893              		.loc 1 657 0
 894 000e FFF7FEFF 		bl	offset_to_block
 895              	.LVL86:
 896 0012 0090     		str	r0, [sp]
 897              	.LVL87:
 659:..\..\..\arduinoLCD\test\Pain Drain\libraries\lvgl\src\misc/lv_tlsf.c **** 
 660:..\..\..\arduinoLCD\test\Pain Drain\libraries\lvgl\src\misc/lv_tlsf.c ****     const size_t remain_size = block_size(block) - (size + block_header_overhead);
 898              		.loc 1 660 0
 899 0014 0198     		ldr	r0, [sp, #4]
 900              	.LVL88:
 901 0016 FFF7FEFF 		bl	block_size
 902              	.LVL89:
 903 001a 0400     		movs	r4, r0
 904 001c 431B     		subs	r3, r0, r5
 905 001e 1E1F     		subs	r6, r3, #4
 906              	.LVL90:
 661:..\..\..\arduinoLCD\test\Pain Drain\libraries\lvgl\src\misc/lv_tlsf.c **** 
 662:..\..\..\arduinoLCD\test\Pain Drain\libraries\lvgl\src\misc/lv_tlsf.c ****     tlsf_assert(block_to_ptr(remaining) == align_ptr(block_to_ptr(remaining), ALIGN_SIZE)
 907              		.loc 1 662 0
 908 0020 0098     		ldr	r0, [sp]
 909 0022 FFF7FEFF 		bl	block_to_ptr
 910              	.LVL91:
 911 0026 0700     		movs	r7, r0
 912 0028 0421     		movs	r1, #4
 913 002a FFF7FEFF 		bl	align_ptr
 914              	.LVL92:
 915 002e 8742     		cmp	r7, r0
 916 0030 00D0     		beq	.L52
 917              	.L53:
 918 0032 FEE7     		b	.L53
 919              	.L52:
 663:..\..\..\arduinoLCD\test\Pain Drain\libraries\lvgl\src\misc/lv_tlsf.c ****                 && "remaining block not aligned properly");
 664:..\..\..\arduinoLCD\test\Pain Drain\libraries\lvgl\src\misc/lv_tlsf.c **** 
 665:..\..\..\arduinoLCD\test\Pain Drain\libraries\lvgl\src\misc/lv_tlsf.c ****     tlsf_assert(block_size(block) == remain_size + size + block_header_overhead);
 920              		.loc 1 665 0
 921 0034 AB19     		adds	r3, r5, r6
 922 0036 0433     		adds	r3, r3, #4
 923 0038 9C42     		cmp	r4, r3
 924 003a 00D0     		beq	.L54
 925              	.L55:
 926 003c FEE7     		b	.L55
 927              	.L54:
 666:..\..\..\arduinoLCD\test\Pain Drain\libraries\lvgl\src\misc/lv_tlsf.c ****     block_set_size(remaining, remain_size);
ARM GAS  C:\Users\haske\AppData\Local\Temp\ccswauRt.s 			page 29


 928              		.loc 1 666 0
 929 003e 3100     		movs	r1, r6
 930 0040 0098     		ldr	r0, [sp]
 931 0042 FFF7FEFF 		bl	block_set_size
 932              	.LVL93:
 667:..\..\..\arduinoLCD\test\Pain Drain\libraries\lvgl\src\misc/lv_tlsf.c ****     tlsf_assert(block_size(remaining) >= block_size_min && "block split with invalid size");
 933              		.loc 1 667 0
 934 0046 0098     		ldr	r0, [sp]
 935 0048 FFF7FEFF 		bl	block_size
 936              	.LVL94:
 937 004c 0B28     		cmp	r0, #11
 938 004e 00D8     		bhi	.L56
 939              	.L57:
 940 0050 FEE7     		b	.L57
 941              	.L56:
 668:..\..\..\arduinoLCD\test\Pain Drain\libraries\lvgl\src\misc/lv_tlsf.c **** 
 669:..\..\..\arduinoLCD\test\Pain Drain\libraries\lvgl\src\misc/lv_tlsf.c ****     block_set_size(block, size);
 942              		.loc 1 669 0
 943 0052 2900     		movs	r1, r5
 944 0054 0198     		ldr	r0, [sp, #4]
 945 0056 FFF7FEFF 		bl	block_set_size
 946              	.LVL95:
 670:..\..\..\arduinoLCD\test\Pain Drain\libraries\lvgl\src\misc/lv_tlsf.c ****     block_mark_as_free(remaining);
 947              		.loc 1 670 0
 948 005a 0098     		ldr	r0, [sp]
 949 005c FFF7FEFF 		bl	block_mark_as_free
 950              	.LVL96:
 671:..\..\..\arduinoLCD\test\Pain Drain\libraries\lvgl\src\misc/lv_tlsf.c **** 
 672:..\..\..\arduinoLCD\test\Pain Drain\libraries\lvgl\src\misc/lv_tlsf.c ****     return remaining;
 673:..\..\..\arduinoLCD\test\Pain Drain\libraries\lvgl\src\misc/lv_tlsf.c **** }
 951              		.loc 1 673 0
 952 0060 0098     		ldr	r0, [sp]
 953 0062 03B0     		add	sp, sp, #12
 954              	.LVL97:
 955              		@ sp needed
 956              	.LVL98:
 957              	.LVL99:
 958 0064 F0BD     		pop	{r4, r5, r6, r7, pc}
 959              		.cfi_endproc
 960              	.LFE32:
 961              		.size	block_split, .-block_split
 962 0066 C046     		.section	.text.block_absorb,"ax",%progbits
 963              		.align	2
 964              		.code	16
 965              		.thumb_func
 966              		.type	block_absorb, %function
 967              	block_absorb:
 968              	.LFB33:
 674:..\..\..\arduinoLCD\test\Pain Drain\libraries\lvgl\src\misc/lv_tlsf.c **** 
 675:..\..\..\arduinoLCD\test\Pain Drain\libraries\lvgl\src\misc/lv_tlsf.c **** /* Absorb a free block's storage into an adjacent previous free block. */
 676:..\..\..\arduinoLCD\test\Pain Drain\libraries\lvgl\src\misc/lv_tlsf.c **** static block_header_t * block_absorb(block_header_t * prev, block_header_t * block)
 677:..\..\..\arduinoLCD\test\Pain Drain\libraries\lvgl\src\misc/lv_tlsf.c **** {
 969              		.loc 1 677 0
 970              		.cfi_startproc
 971              		@ args = 0, pretend = 0, frame = 0
 972              		@ frame_needed = 0, uses_anonymous_args = 0
 973              	.LVL100:
ARM GAS  C:\Users\haske\AppData\Local\Temp\ccswauRt.s 			page 30


 974 0000 70B5     		push	{r4, r5, r6, lr}
 975              		.cfi_def_cfa_offset 16
 976              		.cfi_offset 4, -16
 977              		.cfi_offset 5, -12
 978              		.cfi_offset 6, -8
 979              		.cfi_offset 14, -4
 980 0002 0400     		movs	r4, r0
 981 0004 0D00     		movs	r5, r1
 678:..\..\..\arduinoLCD\test\Pain Drain\libraries\lvgl\src\misc/lv_tlsf.c ****     tlsf_assert(!block_is_last(prev) && "previous block can't be last");
 982              		.loc 1 678 0
 983 0006 FFF7FEFF 		bl	block_is_last
 984              	.LVL101:
 985 000a 0028     		cmp	r0, #0
 986 000c 00D0     		beq	.L59
 987              	.L60:
 988 000e FEE7     		b	.L60
 989              	.L59:
 679:..\..\..\arduinoLCD\test\Pain Drain\libraries\lvgl\src\misc/lv_tlsf.c ****     /* Note: Leaves flags untouched. */
 680:..\..\..\arduinoLCD\test\Pain Drain\libraries\lvgl\src\misc/lv_tlsf.c ****     prev->size += block_size(block) + block_header_overhead;
 990              		.loc 1 680 0
 991 0010 2800     		movs	r0, r5
 992 0012 FFF7FEFF 		bl	block_size
 993              	.LVL102:
 994 0016 0430     		adds	r0, r0, #4
 995 0018 6368     		ldr	r3, [r4, #4]
 996 001a 9C46     		mov	ip, r3
 997 001c 6044     		add	r0, r0, ip
 998 001e 6060     		str	r0, [r4, #4]
 681:..\..\..\arduinoLCD\test\Pain Drain\libraries\lvgl\src\misc/lv_tlsf.c ****     block_link_next(prev);
 999              		.loc 1 681 0
 1000 0020 2000     		movs	r0, r4
 1001 0022 FFF7FEFF 		bl	block_link_next
 1002              	.LVL103:
 682:..\..\..\arduinoLCD\test\Pain Drain\libraries\lvgl\src\misc/lv_tlsf.c ****     return prev;
 683:..\..\..\arduinoLCD\test\Pain Drain\libraries\lvgl\src\misc/lv_tlsf.c **** }
 1003              		.loc 1 683 0
 1004 0026 2000     		movs	r0, r4
 1005              		@ sp needed
 1006              	.LVL104:
 1007              	.LVL105:
 1008 0028 70BD     		pop	{r4, r5, r6, pc}
 1009              		.cfi_endproc
 1010              	.LFE33:
 1011              		.size	block_absorb, .-block_absorb
 1012 002a C046     		.section	.text.control_constructor,"ax",%progbits
 1013              		.align	2
 1014              		.code	16
 1015              		.thumb_func
 1016              		.type	control_constructor, %function
 1017              	control_constructor:
 1018              	.LFB41:
 684:..\..\..\arduinoLCD\test\Pain Drain\libraries\lvgl\src\misc/lv_tlsf.c **** 
 685:..\..\..\arduinoLCD\test\Pain Drain\libraries\lvgl\src\misc/lv_tlsf.c **** /* Merge a just-freed block with an adjacent previous free block. */
 686:..\..\..\arduinoLCD\test\Pain Drain\libraries\lvgl\src\misc/lv_tlsf.c **** static block_header_t * block_merge_prev(control_t * control, block_header_t * block)
 687:..\..\..\arduinoLCD\test\Pain Drain\libraries\lvgl\src\misc/lv_tlsf.c **** {
 688:..\..\..\arduinoLCD\test\Pain Drain\libraries\lvgl\src\misc/lv_tlsf.c ****     if(block_is_prev_free(block)) {
 689:..\..\..\arduinoLCD\test\Pain Drain\libraries\lvgl\src\misc/lv_tlsf.c ****         block_header_t * prev = block_prev(block);
ARM GAS  C:\Users\haske\AppData\Local\Temp\ccswauRt.s 			page 31


 690:..\..\..\arduinoLCD\test\Pain Drain\libraries\lvgl\src\misc/lv_tlsf.c ****         tlsf_assert(prev && "prev physical block can't be null");
 691:..\..\..\arduinoLCD\test\Pain Drain\libraries\lvgl\src\misc/lv_tlsf.c ****         tlsf_assert(block_is_free(prev) && "prev block is not free though marked as such");
 692:..\..\..\arduinoLCD\test\Pain Drain\libraries\lvgl\src\misc/lv_tlsf.c ****         block_remove(control, prev);
 693:..\..\..\arduinoLCD\test\Pain Drain\libraries\lvgl\src\misc/lv_tlsf.c ****         block = block_absorb(prev, block);
 694:..\..\..\arduinoLCD\test\Pain Drain\libraries\lvgl\src\misc/lv_tlsf.c ****     }
 695:..\..\..\arduinoLCD\test\Pain Drain\libraries\lvgl\src\misc/lv_tlsf.c **** 
 696:..\..\..\arduinoLCD\test\Pain Drain\libraries\lvgl\src\misc/lv_tlsf.c ****     return block;
 697:..\..\..\arduinoLCD\test\Pain Drain\libraries\lvgl\src\misc/lv_tlsf.c **** }
 698:..\..\..\arduinoLCD\test\Pain Drain\libraries\lvgl\src\misc/lv_tlsf.c **** 
 699:..\..\..\arduinoLCD\test\Pain Drain\libraries\lvgl\src\misc/lv_tlsf.c **** /* Merge a just-freed block with an adjacent free block. */
 700:..\..\..\arduinoLCD\test\Pain Drain\libraries\lvgl\src\misc/lv_tlsf.c **** static block_header_t * block_merge_next(control_t * control, block_header_t * block)
 701:..\..\..\arduinoLCD\test\Pain Drain\libraries\lvgl\src\misc/lv_tlsf.c **** {
 702:..\..\..\arduinoLCD\test\Pain Drain\libraries\lvgl\src\misc/lv_tlsf.c ****     block_header_t * next = block_next(block);
 703:..\..\..\arduinoLCD\test\Pain Drain\libraries\lvgl\src\misc/lv_tlsf.c ****     tlsf_assert(next && "next physical block can't be null");
 704:..\..\..\arduinoLCD\test\Pain Drain\libraries\lvgl\src\misc/lv_tlsf.c **** 
 705:..\..\..\arduinoLCD\test\Pain Drain\libraries\lvgl\src\misc/lv_tlsf.c ****     if(block_is_free(next)) {
 706:..\..\..\arduinoLCD\test\Pain Drain\libraries\lvgl\src\misc/lv_tlsf.c ****         tlsf_assert(!block_is_last(block) && "previous block can't be last");
 707:..\..\..\arduinoLCD\test\Pain Drain\libraries\lvgl\src\misc/lv_tlsf.c ****         block_remove(control, next);
 708:..\..\..\arduinoLCD\test\Pain Drain\libraries\lvgl\src\misc/lv_tlsf.c ****         block = block_absorb(block, next);
 709:..\..\..\arduinoLCD\test\Pain Drain\libraries\lvgl\src\misc/lv_tlsf.c ****     }
 710:..\..\..\arduinoLCD\test\Pain Drain\libraries\lvgl\src\misc/lv_tlsf.c **** 
 711:..\..\..\arduinoLCD\test\Pain Drain\libraries\lvgl\src\misc/lv_tlsf.c ****     return block;
 712:..\..\..\arduinoLCD\test\Pain Drain\libraries\lvgl\src\misc/lv_tlsf.c **** }
 713:..\..\..\arduinoLCD\test\Pain Drain\libraries\lvgl\src\misc/lv_tlsf.c **** 
 714:..\..\..\arduinoLCD\test\Pain Drain\libraries\lvgl\src\misc/lv_tlsf.c **** /* Trim any trailing block space off the end of a block, return to pool. */
 715:..\..\..\arduinoLCD\test\Pain Drain\libraries\lvgl\src\misc/lv_tlsf.c **** static void block_trim_free(control_t * control, block_header_t * block, size_t size)
 716:..\..\..\arduinoLCD\test\Pain Drain\libraries\lvgl\src\misc/lv_tlsf.c **** {
 717:..\..\..\arduinoLCD\test\Pain Drain\libraries\lvgl\src\misc/lv_tlsf.c ****     tlsf_assert(block_is_free(block) && "block must be free");
 718:..\..\..\arduinoLCD\test\Pain Drain\libraries\lvgl\src\misc/lv_tlsf.c ****     if(block_can_split(block, size)) {
 719:..\..\..\arduinoLCD\test\Pain Drain\libraries\lvgl\src\misc/lv_tlsf.c ****         block_header_t * remaining_block = block_split(block, size);
 720:..\..\..\arduinoLCD\test\Pain Drain\libraries\lvgl\src\misc/lv_tlsf.c ****         block_link_next(block);
 721:..\..\..\arduinoLCD\test\Pain Drain\libraries\lvgl\src\misc/lv_tlsf.c ****         block_set_prev_free(remaining_block);
 722:..\..\..\arduinoLCD\test\Pain Drain\libraries\lvgl\src\misc/lv_tlsf.c ****         block_insert(control, remaining_block);
 723:..\..\..\arduinoLCD\test\Pain Drain\libraries\lvgl\src\misc/lv_tlsf.c ****     }
 724:..\..\..\arduinoLCD\test\Pain Drain\libraries\lvgl\src\misc/lv_tlsf.c **** }
 725:..\..\..\arduinoLCD\test\Pain Drain\libraries\lvgl\src\misc/lv_tlsf.c **** 
 726:..\..\..\arduinoLCD\test\Pain Drain\libraries\lvgl\src\misc/lv_tlsf.c **** /* Trim any trailing block space off the end of a used block, return to pool. */
 727:..\..\..\arduinoLCD\test\Pain Drain\libraries\lvgl\src\misc/lv_tlsf.c **** static void block_trim_used(control_t * control, block_header_t * block, size_t size)
 728:..\..\..\arduinoLCD\test\Pain Drain\libraries\lvgl\src\misc/lv_tlsf.c **** {
 729:..\..\..\arduinoLCD\test\Pain Drain\libraries\lvgl\src\misc/lv_tlsf.c ****     tlsf_assert(!block_is_free(block) && "block must be used");
 730:..\..\..\arduinoLCD\test\Pain Drain\libraries\lvgl\src\misc/lv_tlsf.c ****     if(block_can_split(block, size)) {
 731:..\..\..\arduinoLCD\test\Pain Drain\libraries\lvgl\src\misc/lv_tlsf.c ****         /* If the next block is free, we must coalesce. */
 732:..\..\..\arduinoLCD\test\Pain Drain\libraries\lvgl\src\misc/lv_tlsf.c ****         block_header_t * remaining_block = block_split(block, size);
 733:..\..\..\arduinoLCD\test\Pain Drain\libraries\lvgl\src\misc/lv_tlsf.c ****         block_set_prev_used(remaining_block);
 734:..\..\..\arduinoLCD\test\Pain Drain\libraries\lvgl\src\misc/lv_tlsf.c **** 
 735:..\..\..\arduinoLCD\test\Pain Drain\libraries\lvgl\src\misc/lv_tlsf.c ****         remaining_block = block_merge_next(control, remaining_block);
 736:..\..\..\arduinoLCD\test\Pain Drain\libraries\lvgl\src\misc/lv_tlsf.c ****         block_insert(control, remaining_block);
 737:..\..\..\arduinoLCD\test\Pain Drain\libraries\lvgl\src\misc/lv_tlsf.c ****     }
 738:..\..\..\arduinoLCD\test\Pain Drain\libraries\lvgl\src\misc/lv_tlsf.c **** }
 739:..\..\..\arduinoLCD\test\Pain Drain\libraries\lvgl\src\misc/lv_tlsf.c **** 
 740:..\..\..\arduinoLCD\test\Pain Drain\libraries\lvgl\src\misc/lv_tlsf.c **** static block_header_t * block_trim_free_leading(control_t * control, block_header_t * block, size_t
 741:..\..\..\arduinoLCD\test\Pain Drain\libraries\lvgl\src\misc/lv_tlsf.c **** {
 742:..\..\..\arduinoLCD\test\Pain Drain\libraries\lvgl\src\misc/lv_tlsf.c ****     block_header_t * remaining_block = block;
 743:..\..\..\arduinoLCD\test\Pain Drain\libraries\lvgl\src\misc/lv_tlsf.c ****     if(block_can_split(block, size)) {
 744:..\..\..\arduinoLCD\test\Pain Drain\libraries\lvgl\src\misc/lv_tlsf.c ****         /* We want the 2nd block. */
 745:..\..\..\arduinoLCD\test\Pain Drain\libraries\lvgl\src\misc/lv_tlsf.c ****         remaining_block = block_split(block, size - block_header_overhead);
 746:..\..\..\arduinoLCD\test\Pain Drain\libraries\lvgl\src\misc/lv_tlsf.c ****         block_set_prev_free(remaining_block);
ARM GAS  C:\Users\haske\AppData\Local\Temp\ccswauRt.s 			page 32


 747:..\..\..\arduinoLCD\test\Pain Drain\libraries\lvgl\src\misc/lv_tlsf.c **** 
 748:..\..\..\arduinoLCD\test\Pain Drain\libraries\lvgl\src\misc/lv_tlsf.c ****         block_link_next(block);
 749:..\..\..\arduinoLCD\test\Pain Drain\libraries\lvgl\src\misc/lv_tlsf.c ****         block_insert(control, block);
 750:..\..\..\arduinoLCD\test\Pain Drain\libraries\lvgl\src\misc/lv_tlsf.c ****     }
 751:..\..\..\arduinoLCD\test\Pain Drain\libraries\lvgl\src\misc/lv_tlsf.c **** 
 752:..\..\..\arduinoLCD\test\Pain Drain\libraries\lvgl\src\misc/lv_tlsf.c ****     return remaining_block;
 753:..\..\..\arduinoLCD\test\Pain Drain\libraries\lvgl\src\misc/lv_tlsf.c **** }
 754:..\..\..\arduinoLCD\test\Pain Drain\libraries\lvgl\src\misc/lv_tlsf.c **** 
 755:..\..\..\arduinoLCD\test\Pain Drain\libraries\lvgl\src\misc/lv_tlsf.c **** static block_header_t * block_locate_free(control_t * control, size_t size)
 756:..\..\..\arduinoLCD\test\Pain Drain\libraries\lvgl\src\misc/lv_tlsf.c **** {
 757:..\..\..\arduinoLCD\test\Pain Drain\libraries\lvgl\src\misc/lv_tlsf.c ****     int fl = 0, sl = 0;
 758:..\..\..\arduinoLCD\test\Pain Drain\libraries\lvgl\src\misc/lv_tlsf.c ****     block_header_t * block = 0;
 759:..\..\..\arduinoLCD\test\Pain Drain\libraries\lvgl\src\misc/lv_tlsf.c **** 
 760:..\..\..\arduinoLCD\test\Pain Drain\libraries\lvgl\src\misc/lv_tlsf.c ****     if(size) {
 761:..\..\..\arduinoLCD\test\Pain Drain\libraries\lvgl\src\misc/lv_tlsf.c ****         mapping_search(size, &fl, &sl);
 762:..\..\..\arduinoLCD\test\Pain Drain\libraries\lvgl\src\misc/lv_tlsf.c **** 
 763:..\..\..\arduinoLCD\test\Pain Drain\libraries\lvgl\src\misc/lv_tlsf.c ****         /*
 764:..\..\..\arduinoLCD\test\Pain Drain\libraries\lvgl\src\misc/lv_tlsf.c ****         ** mapping_search can futz with the size, so for excessively large sizes it can sometimes w
 765:..\..\..\arduinoLCD\test\Pain Drain\libraries\lvgl\src\misc/lv_tlsf.c ****         ** with indices that are off the end of the block array.
 766:..\..\..\arduinoLCD\test\Pain Drain\libraries\lvgl\src\misc/lv_tlsf.c ****         ** So, we protect against that here, since this is the only callsite of mapping_search.
 767:..\..\..\arduinoLCD\test\Pain Drain\libraries\lvgl\src\misc/lv_tlsf.c ****         ** Note that we don't need to check sl, since it comes from a modulo operation that guarant
 768:..\..\..\arduinoLCD\test\Pain Drain\libraries\lvgl\src\misc/lv_tlsf.c ****         */
 769:..\..\..\arduinoLCD\test\Pain Drain\libraries\lvgl\src\misc/lv_tlsf.c ****         if(fl < FL_INDEX_COUNT) {
 770:..\..\..\arduinoLCD\test\Pain Drain\libraries\lvgl\src\misc/lv_tlsf.c ****             block = search_suitable_block(control, &fl, &sl);
 771:..\..\..\arduinoLCD\test\Pain Drain\libraries\lvgl\src\misc/lv_tlsf.c ****         }
 772:..\..\..\arduinoLCD\test\Pain Drain\libraries\lvgl\src\misc/lv_tlsf.c ****     }
 773:..\..\..\arduinoLCD\test\Pain Drain\libraries\lvgl\src\misc/lv_tlsf.c **** 
 774:..\..\..\arduinoLCD\test\Pain Drain\libraries\lvgl\src\misc/lv_tlsf.c ****     if(block) {
 775:..\..\..\arduinoLCD\test\Pain Drain\libraries\lvgl\src\misc/lv_tlsf.c ****         tlsf_assert(block_size(block) >= size);
 776:..\..\..\arduinoLCD\test\Pain Drain\libraries\lvgl\src\misc/lv_tlsf.c ****         remove_free_block(control, block, fl, sl);
 777:..\..\..\arduinoLCD\test\Pain Drain\libraries\lvgl\src\misc/lv_tlsf.c ****     }
 778:..\..\..\arduinoLCD\test\Pain Drain\libraries\lvgl\src\misc/lv_tlsf.c **** 
 779:..\..\..\arduinoLCD\test\Pain Drain\libraries\lvgl\src\misc/lv_tlsf.c ****     return block;
 780:..\..\..\arduinoLCD\test\Pain Drain\libraries\lvgl\src\misc/lv_tlsf.c **** }
 781:..\..\..\arduinoLCD\test\Pain Drain\libraries\lvgl\src\misc/lv_tlsf.c **** 
 782:..\..\..\arduinoLCD\test\Pain Drain\libraries\lvgl\src\misc/lv_tlsf.c **** static void * block_prepare_used(control_t * control, block_header_t * block, size_t size)
 783:..\..\..\arduinoLCD\test\Pain Drain\libraries\lvgl\src\misc/lv_tlsf.c **** {
 784:..\..\..\arduinoLCD\test\Pain Drain\libraries\lvgl\src\misc/lv_tlsf.c ****     void * p = 0;
 785:..\..\..\arduinoLCD\test\Pain Drain\libraries\lvgl\src\misc/lv_tlsf.c ****     if(block) {
 786:..\..\..\arduinoLCD\test\Pain Drain\libraries\lvgl\src\misc/lv_tlsf.c ****         tlsf_assert(size && "size must be non-zero");
 787:..\..\..\arduinoLCD\test\Pain Drain\libraries\lvgl\src\misc/lv_tlsf.c ****         block_trim_free(control, block, size);
 788:..\..\..\arduinoLCD\test\Pain Drain\libraries\lvgl\src\misc/lv_tlsf.c ****         block_mark_as_used(block);
 789:..\..\..\arduinoLCD\test\Pain Drain\libraries\lvgl\src\misc/lv_tlsf.c ****         p = block_to_ptr(block);
 790:..\..\..\arduinoLCD\test\Pain Drain\libraries\lvgl\src\misc/lv_tlsf.c ****     }
 791:..\..\..\arduinoLCD\test\Pain Drain\libraries\lvgl\src\misc/lv_tlsf.c ****     return p;
 792:..\..\..\arduinoLCD\test\Pain Drain\libraries\lvgl\src\misc/lv_tlsf.c **** }
 793:..\..\..\arduinoLCD\test\Pain Drain\libraries\lvgl\src\misc/lv_tlsf.c **** 
 794:..\..\..\arduinoLCD\test\Pain Drain\libraries\lvgl\src\misc/lv_tlsf.c **** /* Clear structure and point all empty lists at the null block. */
 795:..\..\..\arduinoLCD\test\Pain Drain\libraries\lvgl\src\misc/lv_tlsf.c **** static void control_constructor(control_t * control)
 796:..\..\..\arduinoLCD\test\Pain Drain\libraries\lvgl\src\misc/lv_tlsf.c **** {
 1019              		.loc 1 796 0
 1020              		.cfi_startproc
 1021              		@ args = 0, pretend = 0, frame = 0
 1022              		@ frame_needed = 0, uses_anonymous_args = 0
 1023              	.LVL106:
 1024 0000 10B5     		push	{r4, lr}
 1025              		.cfi_def_cfa_offset 8
ARM GAS  C:\Users\haske\AppData\Local\Temp\ccswauRt.s 			page 33


 1026              		.cfi_offset 4, -8
 1027              		.cfi_offset 14, -4
 797:..\..\..\arduinoLCD\test\Pain Drain\libraries\lvgl\src\misc/lv_tlsf.c ****     int i, j;
 798:..\..\..\arduinoLCD\test\Pain Drain\libraries\lvgl\src\misc/lv_tlsf.c **** 
 799:..\..\..\arduinoLCD\test\Pain Drain\libraries\lvgl\src\misc/lv_tlsf.c ****     control->block_null.next_free = &control->block_null;
 1028              		.loc 1 799 0
 1029 0002 0400     		movs	r4, r0
 1030 0004 8060     		str	r0, [r0, #8]
 800:..\..\..\arduinoLCD\test\Pain Drain\libraries\lvgl\src\misc/lv_tlsf.c ****     control->block_null.prev_free = &control->block_null;
 1031              		.loc 1 800 0
 1032 0006 C060     		str	r0, [r0, #12]
 801:..\..\..\arduinoLCD\test\Pain Drain\libraries\lvgl\src\misc/lv_tlsf.c **** 
 802:..\..\..\arduinoLCD\test\Pain Drain\libraries\lvgl\src\misc/lv_tlsf.c ****     control->fl_bitmap = 0;
 1033              		.loc 1 802 0
 1034 0008 0023     		movs	r3, #0
 1035 000a 0361     		str	r3, [r0, #16]
 1036              	.LVL107:
 803:..\..\..\arduinoLCD\test\Pain Drain\libraries\lvgl\src\misc/lv_tlsf.c ****     for(i = 0; i < FL_INDEX_COUNT; ++i) {
 1037              		.loc 1 803 0
 1038 000c 0021     		movs	r1, #0
 1039 000e 0FE0     		b	.L62
 1040              	.LVL108:
 1041              	.L65:
 804:..\..\..\arduinoLCD\test\Pain Drain\libraries\lvgl\src\misc/lv_tlsf.c ****         control->sl_bitmap[i] = 0;
 1042              		.loc 1 804 0
 1043 0010 0B1D     		adds	r3, r1, #4
 1044 0012 9B00     		lsls	r3, r3, #2
 1045 0014 C318     		adds	r3, r0, r3
 1046 0016 0022     		movs	r2, #0
 1047 0018 5A60     		str	r2, [r3, #4]
 1048              	.LVL109:
 805:..\..\..\arduinoLCD\test\Pain Drain\libraries\lvgl\src\misc/lv_tlsf.c ****         for(j = 0; j < SL_INDEX_COUNT; ++j) {
 1049              		.loc 1 805 0
 1050 001a 06E0     		b	.L63
 1051              	.LVL110:
 1052              	.L64:
 806:..\..\..\arduinoLCD\test\Pain Drain\libraries\lvgl\src\misc/lv_tlsf.c ****             control->blocks[i][j] = &control->block_null;
 1053              		.loc 1 806 0 discriminator 3
 1054 001c 4B01     		lsls	r3, r1, #5
 1055 001e 9B18     		adds	r3, r3, r2
 1056 0020 0E33     		adds	r3, r3, #14
 1057 0022 9B00     		lsls	r3, r3, #2
 1058 0024 C318     		adds	r3, r0, r3
 1059 0026 5C60     		str	r4, [r3, #4]
 805:..\..\..\arduinoLCD\test\Pain Drain\libraries\lvgl\src\misc/lv_tlsf.c ****         for(j = 0; j < SL_INDEX_COUNT; ++j) {
 1060              		.loc 1 805 0 discriminator 3
 1061 0028 0132     		adds	r2, r2, #1
 1062              	.LVL111:
 1063              	.L63:
 805:..\..\..\arduinoLCD\test\Pain Drain\libraries\lvgl\src\misc/lv_tlsf.c ****         for(j = 0; j < SL_INDEX_COUNT; ++j) {
 1064              		.loc 1 805 0 is_stmt 0 discriminator 1
 1065 002a 1F2A     		cmp	r2, #31
 1066 002c F6DD     		ble	.L64
 803:..\..\..\arduinoLCD\test\Pain Drain\libraries\lvgl\src\misc/lv_tlsf.c ****         control->sl_bitmap[i] = 0;
 1067              		.loc 1 803 0 is_stmt 1 discriminator 2
 1068 002e 0131     		adds	r1, r1, #1
 1069              	.LVL112:
ARM GAS  C:\Users\haske\AppData\Local\Temp\ccswauRt.s 			page 34


 1070              	.L62:
 803:..\..\..\arduinoLCD\test\Pain Drain\libraries\lvgl\src\misc/lv_tlsf.c ****         control->sl_bitmap[i] = 0;
 1071              		.loc 1 803 0 is_stmt 0 discriminator 1
 1072 0030 0929     		cmp	r1, #9
 1073 0032 EDDD     		ble	.L65
 807:..\..\..\arduinoLCD\test\Pain Drain\libraries\lvgl\src\misc/lv_tlsf.c ****         }
 808:..\..\..\arduinoLCD\test\Pain Drain\libraries\lvgl\src\misc/lv_tlsf.c ****     }
 809:..\..\..\arduinoLCD\test\Pain Drain\libraries\lvgl\src\misc/lv_tlsf.c **** }
 1074              		.loc 1 809 0 is_stmt 1
 1075              		@ sp needed
 1076 0034 10BD     		pop	{r4, pc}
 1077              		.cfi_endproc
 1078              	.LFE41:
 1079              		.size	control_constructor, .-control_constructor
 1080 0036 C046     		.section	.text.integrity_walker,"ax",%progbits
 1081              		.align	2
 1082              		.code	16
 1083              		.thumb_func
 1084              		.type	integrity_walker, %function
 1085              	integrity_walker:
 1086              	.LFB42:
 810:..\..\..\arduinoLCD\test\Pain Drain\libraries\lvgl\src\misc/lv_tlsf.c **** 
 811:..\..\..\arduinoLCD\test\Pain Drain\libraries\lvgl\src\misc/lv_tlsf.c **** /*
 812:..\..\..\arduinoLCD\test\Pain Drain\libraries\lvgl\src\misc/lv_tlsf.c **** ** Debugging utilities.
 813:..\..\..\arduinoLCD\test\Pain Drain\libraries\lvgl\src\misc/lv_tlsf.c **** */
 814:..\..\..\arduinoLCD\test\Pain Drain\libraries\lvgl\src\misc/lv_tlsf.c **** 
 815:..\..\..\arduinoLCD\test\Pain Drain\libraries\lvgl\src\misc/lv_tlsf.c **** typedef struct integrity_t {
 816:..\..\..\arduinoLCD\test\Pain Drain\libraries\lvgl\src\misc/lv_tlsf.c ****     int prev_status;
 817:..\..\..\arduinoLCD\test\Pain Drain\libraries\lvgl\src\misc/lv_tlsf.c ****     int status;
 818:..\..\..\arduinoLCD\test\Pain Drain\libraries\lvgl\src\misc/lv_tlsf.c **** } integrity_t;
 819:..\..\..\arduinoLCD\test\Pain Drain\libraries\lvgl\src\misc/lv_tlsf.c **** 
 820:..\..\..\arduinoLCD\test\Pain Drain\libraries\lvgl\src\misc/lv_tlsf.c **** #define tlsf_insist(x) { tlsf_assert(x); if (!(x)) { status--; } }
 821:..\..\..\arduinoLCD\test\Pain Drain\libraries\lvgl\src\misc/lv_tlsf.c **** 
 822:..\..\..\arduinoLCD\test\Pain Drain\libraries\lvgl\src\misc/lv_tlsf.c **** static void integrity_walker(void * ptr, size_t size, int used, void * user)
 823:..\..\..\arduinoLCD\test\Pain Drain\libraries\lvgl\src\misc/lv_tlsf.c **** {
 1087              		.loc 1 823 0
 1088              		.cfi_startproc
 1089              		@ args = 0, pretend = 0, frame = 8
 1090              		@ frame_needed = 0, uses_anonymous_args = 0
 1091              	.LVL113:
 1092 0000 F0B5     		push	{r4, r5, r6, r7, lr}
 1093              		.cfi_def_cfa_offset 20
 1094              		.cfi_offset 4, -20
 1095              		.cfi_offset 5, -16
 1096              		.cfi_offset 6, -12
 1097              		.cfi_offset 7, -8
 1098              		.cfi_offset 14, -4
 1099 0002 83B0     		sub	sp, sp, #12
 1100              		.cfi_def_cfa_offset 32
 1101 0004 0E00     		movs	r6, r1
 1102 0006 1F00     		movs	r7, r3
 824:..\..\..\arduinoLCD\test\Pain Drain\libraries\lvgl\src\misc/lv_tlsf.c ****     block_header_t * block = block_from_ptr(ptr);
 1103              		.loc 1 824 0
 1104 0008 FFF7FEFF 		bl	block_from_ptr
 1105              	.LVL114:
 1106 000c 0500     		movs	r5, r0
 1107              	.LVL115:
ARM GAS  C:\Users\haske\AppData\Local\Temp\ccswauRt.s 			page 35


 825:..\..\..\arduinoLCD\test\Pain Drain\libraries\lvgl\src\misc/lv_tlsf.c ****     integrity_t * integ = tlsf_cast(integrity_t *, user);
 826:..\..\..\arduinoLCD\test\Pain Drain\libraries\lvgl\src\misc/lv_tlsf.c ****     const int this_prev_status = block_is_prev_free(block) ? 1 : 0;
 1108              		.loc 1 826 0
 1109 000e FFF7FEFF 		bl	block_is_prev_free
 1110              	.LVL116:
 1111 0012 0400     		movs	r4, r0
 1112 0014 601E     		subs	r0, r4, #1
 1113 0016 8441     		sbcs	r4, r4, r0
 1114 0018 E4B2     		uxtb	r4, r4
 1115              	.LVL117:
 827:..\..\..\arduinoLCD\test\Pain Drain\libraries\lvgl\src\misc/lv_tlsf.c ****     const int this_status = block_is_free(block) ? 1 : 0;
 1116              		.loc 1 827 0
 1117 001a 0195     		str	r5, [sp, #4]
 1118 001c 2800     		movs	r0, r5
 1119 001e FFF7FEFF 		bl	block_is_free
 1120              	.LVL118:
 1121 0022 0300     		movs	r3, r0
 1122 0024 581E     		subs	r0, r3, #1
 1123 0026 8341     		sbcs	r3, r3, r0
 1124 0028 DDB2     		uxtb	r5, r3
 1125              	.LVL119:
 828:..\..\..\arduinoLCD\test\Pain Drain\libraries\lvgl\src\misc/lv_tlsf.c ****     const size_t this_block_size = block_size(block);
 1126              		.loc 1 828 0
 1127 002a 0198     		ldr	r0, [sp, #4]
 1128 002c FFF7FEFF 		bl	block_size
 1129              	.LVL120:
 829:..\..\..\arduinoLCD\test\Pain Drain\libraries\lvgl\src\misc/lv_tlsf.c **** 
 830:..\..\..\arduinoLCD\test\Pain Drain\libraries\lvgl\src\misc/lv_tlsf.c ****     int status = 0;
 831:..\..\..\arduinoLCD\test\Pain Drain\libraries\lvgl\src\misc/lv_tlsf.c ****     LV_UNUSED(used);
 832:..\..\..\arduinoLCD\test\Pain Drain\libraries\lvgl\src\misc/lv_tlsf.c ****     tlsf_insist(integ->prev_status == this_prev_status && "prev status incorrect");
 1130              		.loc 1 832 0
 1131 0030 3B68     		ldr	r3, [r7]
 1132 0032 9C42     		cmp	r4, r3
 1133 0034 00D0     		beq	.L67
 1134              	.L68:
 1135 0036 FEE7     		b	.L68
 1136              	.L67:
 1137              		.loc 1 832 0 is_stmt 0 discriminator 1
 1138 0038 9C42     		cmp	r4, r3
 1139 003a 01D1     		bne	.L73
 830:..\..\..\arduinoLCD\test\Pain Drain\libraries\lvgl\src\misc/lv_tlsf.c ****     LV_UNUSED(used);
 1140              		.loc 1 830 0 is_stmt 1
 1141 003c 0023     		movs	r3, #0
 1142 003e 01E0     		b	.L69
 1143              	.L73:
 1144              		.loc 1 832 0
 1145 0040 0123     		movs	r3, #1
 1146 0042 5B42     		rsbs	r3, r3, #0
 1147              	.L69:
 1148              	.LVL121:
 833:..\..\..\arduinoLCD\test\Pain Drain\libraries\lvgl\src\misc/lv_tlsf.c ****     tlsf_insist(size == this_block_size && "block size incorrect");
 1149              		.loc 1 833 0
 1150 0044 B042     		cmp	r0, r6
 1151 0046 00D0     		beq	.L70
 1152              	.L71:
 1153 0048 FEE7     		b	.L71
 1154              	.L70:
ARM GAS  C:\Users\haske\AppData\Local\Temp\ccswauRt.s 			page 36


 1155              		.loc 1 833 0 is_stmt 0 discriminator 1
 1156 004a B042     		cmp	r0, r6
 1157 004c 00D0     		beq	.L72
 1158              		.loc 1 833 0 discriminator 2
 1159 004e 013B     		subs	r3, r3, #1
 1160              	.LVL122:
 1161              	.L72:
 834:..\..\..\arduinoLCD\test\Pain Drain\libraries\lvgl\src\misc/lv_tlsf.c **** 
 835:..\..\..\arduinoLCD\test\Pain Drain\libraries\lvgl\src\misc/lv_tlsf.c ****     integ->prev_status = this_status;
 1162              		.loc 1 835 0 is_stmt 1
 1163 0050 3D60     		str	r5, [r7]
 836:..\..\..\arduinoLCD\test\Pain Drain\libraries\lvgl\src\misc/lv_tlsf.c ****     integ->status += status;
 1164              		.loc 1 836 0
 1165 0052 7A68     		ldr	r2, [r7, #4]
 1166 0054 9446     		mov	ip, r2
 1167 0056 6344     		add	r3, r3, ip
 1168              	.LVL123:
 1169 0058 7B60     		str	r3, [r7, #4]
 837:..\..\..\arduinoLCD\test\Pain Drain\libraries\lvgl\src\misc/lv_tlsf.c **** }
 1170              		.loc 1 837 0
 1171 005a 03B0     		add	sp, sp, #12
 1172              		@ sp needed
 1173              	.LVL124:
 1174              	.LVL125:
 1175              	.LVL126:
 1176              	.LVL127:
 1177 005c F0BD     		pop	{r4, r5, r6, r7, pc}
 1178              		.cfi_endproc
 1179              	.LFE42:
 1180              		.size	integrity_walker, .-integrity_walker
 1181 005e C046     		.section	.text.default_walker,"ax",%progbits
 1182              		.align	2
 1183              		.code	16
 1184              		.thumb_func
 1185              		.type	default_walker, %function
 1186              	default_walker:
 1187              	.LFB44:
 838:..\..\..\arduinoLCD\test\Pain Drain\libraries\lvgl\src\misc/lv_tlsf.c **** 
 839:..\..\..\arduinoLCD\test\Pain Drain\libraries\lvgl\src\misc/lv_tlsf.c **** int lv_tlsf_check(lv_tlsf_t tlsf)
 840:..\..\..\arduinoLCD\test\Pain Drain\libraries\lvgl\src\misc/lv_tlsf.c **** {
 841:..\..\..\arduinoLCD\test\Pain Drain\libraries\lvgl\src\misc/lv_tlsf.c ****     int i, j;
 842:..\..\..\arduinoLCD\test\Pain Drain\libraries\lvgl\src\misc/lv_tlsf.c **** 
 843:..\..\..\arduinoLCD\test\Pain Drain\libraries\lvgl\src\misc/lv_tlsf.c ****     control_t * control = tlsf_cast(control_t *, tlsf);
 844:..\..\..\arduinoLCD\test\Pain Drain\libraries\lvgl\src\misc/lv_tlsf.c ****     int status = 0;
 845:..\..\..\arduinoLCD\test\Pain Drain\libraries\lvgl\src\misc/lv_tlsf.c **** 
 846:..\..\..\arduinoLCD\test\Pain Drain\libraries\lvgl\src\misc/lv_tlsf.c ****     /* Check that the free lists and bitmaps are accurate. */
 847:..\..\..\arduinoLCD\test\Pain Drain\libraries\lvgl\src\misc/lv_tlsf.c ****     for(i = 0; i < FL_INDEX_COUNT; ++i) {
 848:..\..\..\arduinoLCD\test\Pain Drain\libraries\lvgl\src\misc/lv_tlsf.c ****         for(j = 0; j < SL_INDEX_COUNT; ++j) {
 849:..\..\..\arduinoLCD\test\Pain Drain\libraries\lvgl\src\misc/lv_tlsf.c ****             const int fl_map = control->fl_bitmap & (1U << i);
 850:..\..\..\arduinoLCD\test\Pain Drain\libraries\lvgl\src\misc/lv_tlsf.c ****             const int sl_list = control->sl_bitmap[i];
 851:..\..\..\arduinoLCD\test\Pain Drain\libraries\lvgl\src\misc/lv_tlsf.c ****             const int sl_map = sl_list & (1U << j);
 852:..\..\..\arduinoLCD\test\Pain Drain\libraries\lvgl\src\misc/lv_tlsf.c ****             const block_header_t * block = control->blocks[i][j];
 853:..\..\..\arduinoLCD\test\Pain Drain\libraries\lvgl\src\misc/lv_tlsf.c **** 
 854:..\..\..\arduinoLCD\test\Pain Drain\libraries\lvgl\src\misc/lv_tlsf.c ****             /* Check that first- and second-level lists agree. */
 855:..\..\..\arduinoLCD\test\Pain Drain\libraries\lvgl\src\misc/lv_tlsf.c ****             if(!fl_map) {
 856:..\..\..\arduinoLCD\test\Pain Drain\libraries\lvgl\src\misc/lv_tlsf.c ****                 tlsf_insist(!sl_map && "second-level map must be null");
 857:..\..\..\arduinoLCD\test\Pain Drain\libraries\lvgl\src\misc/lv_tlsf.c ****             }
ARM GAS  C:\Users\haske\AppData\Local\Temp\ccswauRt.s 			page 37


 858:..\..\..\arduinoLCD\test\Pain Drain\libraries\lvgl\src\misc/lv_tlsf.c **** 
 859:..\..\..\arduinoLCD\test\Pain Drain\libraries\lvgl\src\misc/lv_tlsf.c ****             if(!sl_map) {
 860:..\..\..\arduinoLCD\test\Pain Drain\libraries\lvgl\src\misc/lv_tlsf.c ****                 tlsf_insist(block == &control->block_null && "block list must be null");
 861:..\..\..\arduinoLCD\test\Pain Drain\libraries\lvgl\src\misc/lv_tlsf.c ****                 continue;
 862:..\..\..\arduinoLCD\test\Pain Drain\libraries\lvgl\src\misc/lv_tlsf.c ****             }
 863:..\..\..\arduinoLCD\test\Pain Drain\libraries\lvgl\src\misc/lv_tlsf.c **** 
 864:..\..\..\arduinoLCD\test\Pain Drain\libraries\lvgl\src\misc/lv_tlsf.c ****             /* Check that there is at least one free block. */
 865:..\..\..\arduinoLCD\test\Pain Drain\libraries\lvgl\src\misc/lv_tlsf.c ****             tlsf_insist(sl_list && "no free blocks in second-level map");
 866:..\..\..\arduinoLCD\test\Pain Drain\libraries\lvgl\src\misc/lv_tlsf.c ****             tlsf_insist(block != &control->block_null && "block should not be null");
 867:..\..\..\arduinoLCD\test\Pain Drain\libraries\lvgl\src\misc/lv_tlsf.c **** 
 868:..\..\..\arduinoLCD\test\Pain Drain\libraries\lvgl\src\misc/lv_tlsf.c ****             while(block != &control->block_null) {
 869:..\..\..\arduinoLCD\test\Pain Drain\libraries\lvgl\src\misc/lv_tlsf.c ****                 int fli, sli;
 870:..\..\..\arduinoLCD\test\Pain Drain\libraries\lvgl\src\misc/lv_tlsf.c ****                 tlsf_insist(block_is_free(block) && "block should be free");
 871:..\..\..\arduinoLCD\test\Pain Drain\libraries\lvgl\src\misc/lv_tlsf.c ****                 tlsf_insist(!block_is_prev_free(block) && "blocks should have coalesced");
 872:..\..\..\arduinoLCD\test\Pain Drain\libraries\lvgl\src\misc/lv_tlsf.c ****                 tlsf_insist(!block_is_free(block_next(block)) && "blocks should have coalesced");
 873:..\..\..\arduinoLCD\test\Pain Drain\libraries\lvgl\src\misc/lv_tlsf.c ****                 tlsf_insist(block_is_prev_free(block_next(block)) && "block should be free");
 874:..\..\..\arduinoLCD\test\Pain Drain\libraries\lvgl\src\misc/lv_tlsf.c ****                 tlsf_insist(block_size(block) >= block_size_min && "block not minimum size");
 875:..\..\..\arduinoLCD\test\Pain Drain\libraries\lvgl\src\misc/lv_tlsf.c **** 
 876:..\..\..\arduinoLCD\test\Pain Drain\libraries\lvgl\src\misc/lv_tlsf.c ****                 mapping_insert(block_size(block), &fli, &sli);
 877:..\..\..\arduinoLCD\test\Pain Drain\libraries\lvgl\src\misc/lv_tlsf.c ****                 tlsf_insist(fli == i && sli == j && "block size indexed in wrong list");
 878:..\..\..\arduinoLCD\test\Pain Drain\libraries\lvgl\src\misc/lv_tlsf.c ****                 block = block->next_free;
 879:..\..\..\arduinoLCD\test\Pain Drain\libraries\lvgl\src\misc/lv_tlsf.c ****             }
 880:..\..\..\arduinoLCD\test\Pain Drain\libraries\lvgl\src\misc/lv_tlsf.c ****         }
 881:..\..\..\arduinoLCD\test\Pain Drain\libraries\lvgl\src\misc/lv_tlsf.c ****     }
 882:..\..\..\arduinoLCD\test\Pain Drain\libraries\lvgl\src\misc/lv_tlsf.c **** 
 883:..\..\..\arduinoLCD\test\Pain Drain\libraries\lvgl\src\misc/lv_tlsf.c ****     return status;
 884:..\..\..\arduinoLCD\test\Pain Drain\libraries\lvgl\src\misc/lv_tlsf.c **** }
 885:..\..\..\arduinoLCD\test\Pain Drain\libraries\lvgl\src\misc/lv_tlsf.c **** 
 886:..\..\..\arduinoLCD\test\Pain Drain\libraries\lvgl\src\misc/lv_tlsf.c **** #undef tlsf_insist
 887:..\..\..\arduinoLCD\test\Pain Drain\libraries\lvgl\src\misc/lv_tlsf.c **** 
 888:..\..\..\arduinoLCD\test\Pain Drain\libraries\lvgl\src\misc/lv_tlsf.c **** static void default_walker(void * ptr, size_t size, int used, void * user)
 889:..\..\..\arduinoLCD\test\Pain Drain\libraries\lvgl\src\misc/lv_tlsf.c **** {
 1188              		.loc 1 889 0
 1189              		.cfi_startproc
 1190              		@ args = 0, pretend = 0, frame = 0
 1191              		@ frame_needed = 0, uses_anonymous_args = 0
 1192              		@ link register save eliminated.
 1193              	.LVL128:
 890:..\..\..\arduinoLCD\test\Pain Drain\libraries\lvgl\src\misc/lv_tlsf.c ****     LV_UNUSED(user);
 891:..\..\..\arduinoLCD\test\Pain Drain\libraries\lvgl\src\misc/lv_tlsf.c ****     printf("\t%p %s size: %x (%p)\n", ptr, used ? "used" : "free", (unsigned int)size, (void *)bloc
 892:..\..\..\arduinoLCD\test\Pain Drain\libraries\lvgl\src\misc/lv_tlsf.c **** }
 1194              		.loc 1 892 0
 1195              		@ sp needed
 1196 0000 7047     		bx	lr
 1197              		.cfi_endproc
 1198              	.LFE44:
 1199              		.size	default_walker, .-default_walker
 1200              		.global	__clzsi2
 1201 0002 C046     		.section	.text.tlsf_fls,"ax",%progbits
 1202              		.align	2
 1203              		.code	16
 1204              		.thumb_func
 1205              		.type	tlsf_fls, %function
 1206              	tlsf_fls:
 1207              	.LFB2:
 102:..\..\..\arduinoLCD\test\Pain Drain\libraries\lvgl\src\misc/lv_tlsf.c ****     const int bit = word ? 32 - __builtin_clz(word) : 0;
 1208              		.loc 1 102 0
ARM GAS  C:\Users\haske\AppData\Local\Temp\ccswauRt.s 			page 38


 1209              		.cfi_startproc
 1210              		@ args = 0, pretend = 0, frame = 0
 1211              		@ frame_needed = 0, uses_anonymous_args = 0
 1212              	.LVL129:
 1213 0000 10B5     		push	{r4, lr}
 1214              		.cfi_def_cfa_offset 8
 1215              		.cfi_offset 4, -8
 1216              		.cfi_offset 14, -4
 103:..\..\..\arduinoLCD\test\Pain Drain\libraries\lvgl\src\misc/lv_tlsf.c ****     return bit - 1;
 1217              		.loc 1 103 0
 1218 0002 0028     		cmp	r0, #0
 1219 0004 04D0     		beq	.L77
 103:..\..\..\arduinoLCD\test\Pain Drain\libraries\lvgl\src\misc/lv_tlsf.c ****     return bit - 1;
 1220              		.loc 1 103 0 is_stmt 0 discriminator 1
 1221 0006 FFF7FEFF 		bl	__clzsi2
 1222              	.LVL130:
 1223 000a 2023     		movs	r3, #32
 1224 000c 181A     		subs	r0, r3, r0
 1225 000e 00E0     		b	.L76
 1226              	.LVL131:
 1227              	.L77:
 103:..\..\..\arduinoLCD\test\Pain Drain\libraries\lvgl\src\misc/lv_tlsf.c ****     return bit - 1;
 1228              		.loc 1 103 0
 1229 0010 0020     		movs	r0, #0
 1230              	.LVL132:
 1231              	.L76:
 104:..\..\..\arduinoLCD\test\Pain Drain\libraries\lvgl\src\misc/lv_tlsf.c **** }
 1232              		.loc 1 104 0 is_stmt 1 discriminator 4
 1233 0012 0138     		subs	r0, r0, #1
 1234              	.LVL133:
 105:..\..\..\arduinoLCD\test\Pain Drain\libraries\lvgl\src\misc/lv_tlsf.c **** 
 1235              		.loc 1 105 0 discriminator 4
 1236              		@ sp needed
 1237 0014 10BD     		pop	{r4, pc}
 1238              		.cfi_endproc
 1239              	.LFE2:
 1240              		.size	tlsf_fls, .-tlsf_fls
 1241 0016 C046     		.section	.text.mapping_insert,"ax",%progbits
 1242              		.align	2
 1243              		.code	16
 1244              		.thumb_func
 1245              		.type	mapping_insert, %function
 1246              	mapping_insert:
 1247              	.LFB24:
 529:..\..\..\arduinoLCD\test\Pain Drain\libraries\lvgl\src\misc/lv_tlsf.c ****     int fl, sl;
 1248              		.loc 1 529 0
 1249              		.cfi_startproc
 1250              		@ args = 0, pretend = 0, frame = 0
 1251              		@ frame_needed = 0, uses_anonymous_args = 0
 1252              	.LVL134:
 1253 0000 70B5     		push	{r4, r5, r6, lr}
 1254              		.cfi_def_cfa_offset 16
 1255              		.cfi_offset 4, -16
 1256              		.cfi_offset 5, -12
 1257              		.cfi_offset 6, -8
 1258              		.cfi_offset 14, -4
 1259 0002 0400     		movs	r4, r0
ARM GAS  C:\Users\haske\AppData\Local\Temp\ccswauRt.s 			page 39


 1260 0004 0E00     		movs	r6, r1
 1261 0006 1500     		movs	r5, r2
 531:..\..\..\arduinoLCD\test\Pain Drain\libraries\lvgl\src\misc/lv_tlsf.c ****         /* Store small blocks in first list. */
 1262              		.loc 1 531 0
 1263 0008 7F28     		cmp	r0, #127
 1264 000a 06D8     		bhi	.L79
 1265              	.LVL135:
 534:..\..\..\arduinoLCD\test\Pain Drain\libraries\lvgl\src\misc/lv_tlsf.c ****     }
 1266              		.loc 1 534 0
 1267 000c C317     		asrs	r3, r0, #31
 1268 000e 0322     		movs	r2, #3
 1269              	.LVL136:
 1270 0010 1340     		ands	r3, r2
 1271 0012 1C18     		adds	r4, r3, r0
 1272 0014 A410     		asrs	r4, r4, #2
 1273              	.LVL137:
 533:..\..\..\arduinoLCD\test\Pain Drain\libraries\lvgl\src\misc/lv_tlsf.c ****         sl = tlsf_cast(int, size) / (SMALL_BLOCK_SIZE / SL_INDEX_COUNT);
 1274              		.loc 1 533 0
 1275 0016 0020     		movs	r0, #0
 1276              	.LVL138:
 1277 0018 06E0     		b	.L80
 1278              	.LVL139:
 1279              	.L79:
 537:..\..\..\arduinoLCD\test\Pain Drain\libraries\lvgl\src\misc/lv_tlsf.c ****         sl = tlsf_cast(int, size >> (fl - SL_INDEX_COUNT_LOG2)) ^ (1 << SL_INDEX_COUNT_LOG2);
 1280              		.loc 1 537 0
 1281 001a FFF7FEFF 		bl	tlsf_fls
 1282              	.LVL140:
 538:..\..\..\arduinoLCD\test\Pain Drain\libraries\lvgl\src\misc/lv_tlsf.c ****         fl -= (FL_INDEX_SHIFT - 1);
 1283              		.loc 1 538 0
 1284 001e 431F     		subs	r3, r0, #5
 1285 0020 DC40     		lsrs	r4, r4, r3
 1286              	.LVL141:
 1287 0022 2023     		movs	r3, #32
 1288 0024 5C40     		eors	r4, r3
 1289              	.LVL142:
 539:..\..\..\arduinoLCD\test\Pain Drain\libraries\lvgl\src\misc/lv_tlsf.c ****     }
 1290              		.loc 1 539 0
 1291 0026 0638     		subs	r0, r0, #6
 1292              	.LVL143:
 1293              	.L80:
 541:..\..\..\arduinoLCD\test\Pain Drain\libraries\lvgl\src\misc/lv_tlsf.c ****     *sli = sl;
 1294              		.loc 1 541 0
 1295 0028 3060     		str	r0, [r6]
 542:..\..\..\arduinoLCD\test\Pain Drain\libraries\lvgl\src\misc/lv_tlsf.c **** }
 1296              		.loc 1 542 0
 1297 002a 2C60     		str	r4, [r5]
 543:..\..\..\arduinoLCD\test\Pain Drain\libraries\lvgl\src\misc/lv_tlsf.c **** 
 1298              		.loc 1 543 0
 1299              		@ sp needed
 1300              	.LVL144:
 1301              	.LVL145:
 1302              	.LVL146:
 1303 002c 70BD     		pop	{r4, r5, r6, pc}
 1304              		.cfi_endproc
 1305              	.LFE24:
 1306              		.size	mapping_insert, .-mapping_insert
 1307 002e C046     		.section	.text.block_insert,"ax",%progbits
ARM GAS  C:\Users\haske\AppData\Local\Temp\ccswauRt.s 			page 40


 1308              		.align	2
 1309              		.code	16
 1310              		.thumb_func
 1311              		.type	block_insert, %function
 1312              	block_insert:
 1313              	.LFB30:
 642:..\..\..\arduinoLCD\test\Pain Drain\libraries\lvgl\src\misc/lv_tlsf.c ****     int fl, sl;
 1314              		.loc 1 642 0
 1315              		.cfi_startproc
 1316              		@ args = 0, pretend = 0, frame = 8
 1317              		@ frame_needed = 0, uses_anonymous_args = 0
 1318              	.LVL147:
 1319 0000 30B5     		push	{r4, r5, lr}
 1320              		.cfi_def_cfa_offset 12
 1321              		.cfi_offset 4, -12
 1322              		.cfi_offset 5, -8
 1323              		.cfi_offset 14, -4
 1324 0002 83B0     		sub	sp, sp, #12
 1325              		.cfi_def_cfa_offset 24
 1326 0004 0500     		movs	r5, r0
 1327 0006 0C00     		movs	r4, r1
 644:..\..\..\arduinoLCD\test\Pain Drain\libraries\lvgl\src\misc/lv_tlsf.c ****     insert_free_block(control, block, fl, sl);
 1328              		.loc 1 644 0
 1329 0008 0800     		movs	r0, r1
 1330              	.LVL148:
 1331 000a FFF7FEFF 		bl	block_size
 1332              	.LVL149:
 1333 000e 6A46     		mov	r2, sp
 1334 0010 01A9     		add	r1, sp, #4
 1335 0012 FFF7FEFF 		bl	mapping_insert
 1336              	.LVL150:
 645:..\..\..\arduinoLCD\test\Pain Drain\libraries\lvgl\src\misc/lv_tlsf.c **** }
 1337              		.loc 1 645 0
 1338 0016 009B     		ldr	r3, [sp]
 1339 0018 019A     		ldr	r2, [sp, #4]
 1340 001a 2100     		movs	r1, r4
 1341 001c 2800     		movs	r0, r5
 1342 001e FFF7FEFF 		bl	insert_free_block
 1343              	.LVL151:
 646:..\..\..\arduinoLCD\test\Pain Drain\libraries\lvgl\src\misc/lv_tlsf.c **** 
 1344              		.loc 1 646 0
 1345 0022 03B0     		add	sp, sp, #12
 1346              		@ sp needed
 1347              	.LVL152:
 1348              	.LVL153:
 1349 0024 30BD     		pop	{r4, r5, pc}
 1350              		.cfi_endproc
 1351              	.LFE30:
 1352              		.size	block_insert, .-block_insert
 1353 0026 C046     		.section	.text.block_trim_free,"ax",%progbits
 1354              		.align	2
 1355              		.code	16
 1356              		.thumb_func
 1357              		.type	block_trim_free, %function
 1358              	block_trim_free:
 1359              	.LFB36:
 716:..\..\..\arduinoLCD\test\Pain Drain\libraries\lvgl\src\misc/lv_tlsf.c ****     tlsf_assert(block_is_free(block) && "block must be free");
ARM GAS  C:\Users\haske\AppData\Local\Temp\ccswauRt.s 			page 41


 1360              		.loc 1 716 0
 1361              		.cfi_startproc
 1362              		@ args = 0, pretend = 0, frame = 0
 1363              		@ frame_needed = 0, uses_anonymous_args = 0
 1364              	.LVL154:
 1365 0000 70B5     		push	{r4, r5, r6, lr}
 1366              		.cfi_def_cfa_offset 16
 1367              		.cfi_offset 4, -16
 1368              		.cfi_offset 5, -12
 1369              		.cfi_offset 6, -8
 1370              		.cfi_offset 14, -4
 1371 0002 0600     		movs	r6, r0
 1372 0004 0C00     		movs	r4, r1
 1373 0006 1500     		movs	r5, r2
 717:..\..\..\arduinoLCD\test\Pain Drain\libraries\lvgl\src\misc/lv_tlsf.c ****     if(block_can_split(block, size)) {
 1374              		.loc 1 717 0
 1375 0008 0800     		movs	r0, r1
 1376              	.LVL155:
 1377 000a FFF7FEFF 		bl	block_is_free
 1378              	.LVL156:
 1379 000e 0028     		cmp	r0, #0
 1380 0010 00D1     		bne	.L83
 1381              	.L84:
 1382 0012 FEE7     		b	.L84
 1383              	.L83:
 718:..\..\..\arduinoLCD\test\Pain Drain\libraries\lvgl\src\misc/lv_tlsf.c ****         block_header_t * remaining_block = block_split(block, size);
 1384              		.loc 1 718 0
 1385 0014 2900     		movs	r1, r5
 1386 0016 2000     		movs	r0, r4
 1387 0018 FFF7FEFF 		bl	block_can_split
 1388              	.LVL157:
 1389 001c 0028     		cmp	r0, #0
 1390 001e 0ED0     		beq	.L82
 1391              	.LBB3:
 719:..\..\..\arduinoLCD\test\Pain Drain\libraries\lvgl\src\misc/lv_tlsf.c ****         block_link_next(block);
 1392              		.loc 1 719 0
 1393 0020 2900     		movs	r1, r5
 1394 0022 2000     		movs	r0, r4
 1395 0024 FFF7FEFF 		bl	block_split
 1396              	.LVL158:
 1397 0028 0500     		movs	r5, r0
 1398              	.LVL159:
 720:..\..\..\arduinoLCD\test\Pain Drain\libraries\lvgl\src\misc/lv_tlsf.c ****         block_set_prev_free(remaining_block);
 1399              		.loc 1 720 0
 1400 002a 2000     		movs	r0, r4
 1401              	.LVL160:
 1402 002c FFF7FEFF 		bl	block_link_next
 1403              	.LVL161:
 721:..\..\..\arduinoLCD\test\Pain Drain\libraries\lvgl\src\misc/lv_tlsf.c ****         block_insert(control, remaining_block);
 1404              		.loc 1 721 0
 1405 0030 2800     		movs	r0, r5
 1406 0032 FFF7FEFF 		bl	block_set_prev_free
 1407              	.LVL162:
 722:..\..\..\arduinoLCD\test\Pain Drain\libraries\lvgl\src\misc/lv_tlsf.c ****     }
 1408              		.loc 1 722 0
 1409 0036 2900     		movs	r1, r5
 1410 0038 3000     		movs	r0, r6
ARM GAS  C:\Users\haske\AppData\Local\Temp\ccswauRt.s 			page 42


 1411 003a FFF7FEFF 		bl	block_insert
 1412              	.LVL163:
 1413              	.L82:
 1414              	.LBE3:
 724:..\..\..\arduinoLCD\test\Pain Drain\libraries\lvgl\src\misc/lv_tlsf.c **** 
 1415              		.loc 1 724 0
 1416              		@ sp needed
 1417              	.LVL164:
 1418              	.LVL165:
 1419 003e 70BD     		pop	{r4, r5, r6, pc}
 1420              		.cfi_endproc
 1421              	.LFE36:
 1422              		.size	block_trim_free, .-block_trim_free
 1423              		.section	.text.block_prepare_used,"ax",%progbits
 1424              		.align	2
 1425              		.code	16
 1426              		.thumb_func
 1427              		.type	block_prepare_used, %function
 1428              	block_prepare_used:
 1429              	.LFB40:
 783:..\..\..\arduinoLCD\test\Pain Drain\libraries\lvgl\src\misc/lv_tlsf.c ****     void * p = 0;
 1430              		.loc 1 783 0
 1431              		.cfi_startproc
 1432              		@ args = 0, pretend = 0, frame = 0
 1433              		@ frame_needed = 0, uses_anonymous_args = 0
 1434              	.LVL166:
 1435 0000 10B5     		push	{r4, lr}
 1436              		.cfi_def_cfa_offset 8
 1437              		.cfi_offset 4, -8
 1438              		.cfi_offset 14, -4
 1439 0002 0C1E     		subs	r4, r1, #0
 1440              	.LVL167:
 785:..\..\..\arduinoLCD\test\Pain Drain\libraries\lvgl\src\misc/lv_tlsf.c ****         tlsf_assert(size && "size must be non-zero");
 1441              		.loc 1 785 0
 1442 0004 0BD0     		beq	.L90
 786:..\..\..\arduinoLCD\test\Pain Drain\libraries\lvgl\src\misc/lv_tlsf.c ****         block_trim_free(control, block, size);
 1443              		.loc 1 786 0
 1444 0006 002A     		cmp	r2, #0
 1445 0008 00D1     		bne	.L88
 1446              	.L89:
 1447 000a FEE7     		b	.L89
 1448              	.L88:
 787:..\..\..\arduinoLCD\test\Pain Drain\libraries\lvgl\src\misc/lv_tlsf.c ****         block_mark_as_used(block);
 1449              		.loc 1 787 0
 1450 000c FFF7FEFF 		bl	block_trim_free
 1451              	.LVL168:
 788:..\..\..\arduinoLCD\test\Pain Drain\libraries\lvgl\src\misc/lv_tlsf.c ****         p = block_to_ptr(block);
 1452              		.loc 1 788 0
 1453 0010 2000     		movs	r0, r4
 1454 0012 FFF7FEFF 		bl	block_mark_as_used
 1455              	.LVL169:
 789:..\..\..\arduinoLCD\test\Pain Drain\libraries\lvgl\src\misc/lv_tlsf.c ****     }
 1456              		.loc 1 789 0
 1457 0016 2000     		movs	r0, r4
 1458 0018 FFF7FEFF 		bl	block_to_ptr
 1459              	.LVL170:
 1460 001c 00E0     		b	.L87
ARM GAS  C:\Users\haske\AppData\Local\Temp\ccswauRt.s 			page 43


 1461              	.LVL171:
 1462              	.L90:
 784:..\..\..\arduinoLCD\test\Pain Drain\libraries\lvgl\src\misc/lv_tlsf.c ****     if(block) {
 1463              		.loc 1 784 0
 1464 001e 0020     		movs	r0, #0
 1465              	.LVL172:
 1466              	.L87:
 792:..\..\..\arduinoLCD\test\Pain Drain\libraries\lvgl\src\misc/lv_tlsf.c **** 
 1467              		.loc 1 792 0
 1468              		@ sp needed
 1469              	.LVL173:
 1470 0020 10BD     		pop	{r4, pc}
 1471              		.cfi_endproc
 1472              	.LFE40:
 1473              		.size	block_prepare_used, .-block_prepare_used
 1474 0022 C046     		.section	.text.block_trim_free_leading,"ax",%progbits
 1475              		.align	2
 1476              		.code	16
 1477              		.thumb_func
 1478              		.type	block_trim_free_leading, %function
 1479              	block_trim_free_leading:
 1480              	.LFB38:
 741:..\..\..\arduinoLCD\test\Pain Drain\libraries\lvgl\src\misc/lv_tlsf.c ****     block_header_t * remaining_block = block;
 1481              		.loc 1 741 0
 1482              		.cfi_startproc
 1483              		@ args = 0, pretend = 0, frame = 0
 1484              		@ frame_needed = 0, uses_anonymous_args = 0
 1485              	.LVL174:
 1486 0000 70B5     		push	{r4, r5, r6, lr}
 1487              		.cfi_def_cfa_offset 16
 1488              		.cfi_offset 4, -16
 1489              		.cfi_offset 5, -12
 1490              		.cfi_offset 6, -8
 1491              		.cfi_offset 14, -4
 1492 0002 0600     		movs	r6, r0
 1493 0004 0C00     		movs	r4, r1
 1494 0006 1500     		movs	r5, r2
 1495              	.LVL175:
 743:..\..\..\arduinoLCD\test\Pain Drain\libraries\lvgl\src\misc/lv_tlsf.c ****         /* We want the 2nd block. */
 1496              		.loc 1 743 0
 1497 0008 1100     		movs	r1, r2
 1498              	.LVL176:
 1499 000a 2000     		movs	r0, r4
 1500              	.LVL177:
 1501 000c FFF7FEFF 		bl	block_can_split
 1502              	.LVL178:
 1503 0010 0028     		cmp	r0, #0
 1504 0012 0ED0     		beq	.L92
 745:..\..\..\arduinoLCD\test\Pain Drain\libraries\lvgl\src\misc/lv_tlsf.c ****         block_set_prev_free(remaining_block);
 1505              		.loc 1 745 0
 1506 0014 291F     		subs	r1, r5, #4
 1507 0016 2000     		movs	r0, r4
 1508 0018 FFF7FEFF 		bl	block_split
 1509              	.LVL179:
 1510 001c 0500     		movs	r5, r0
 1511              	.LVL180:
 746:..\..\..\arduinoLCD\test\Pain Drain\libraries\lvgl\src\misc/lv_tlsf.c **** 
ARM GAS  C:\Users\haske\AppData\Local\Temp\ccswauRt.s 			page 44


 1512              		.loc 1 746 0
 1513 001e FFF7FEFF 		bl	block_set_prev_free
 1514              	.LVL181:
 748:..\..\..\arduinoLCD\test\Pain Drain\libraries\lvgl\src\misc/lv_tlsf.c ****         block_insert(control, block);
 1515              		.loc 1 748 0
 1516 0022 2000     		movs	r0, r4
 1517 0024 FFF7FEFF 		bl	block_link_next
 1518              	.LVL182:
 749:..\..\..\arduinoLCD\test\Pain Drain\libraries\lvgl\src\misc/lv_tlsf.c ****     }
 1519              		.loc 1 749 0
 1520 0028 2100     		movs	r1, r4
 1521 002a 3000     		movs	r0, r6
 1522 002c FFF7FEFF 		bl	block_insert
 1523              	.LVL183:
 745:..\..\..\arduinoLCD\test\Pain Drain\libraries\lvgl\src\misc/lv_tlsf.c ****         block_set_prev_free(remaining_block);
 1524              		.loc 1 745 0
 1525 0030 2C00     		movs	r4, r5
 1526              	.LVL184:
 1527              	.L92:
 753:..\..\..\arduinoLCD\test\Pain Drain\libraries\lvgl\src\misc/lv_tlsf.c **** 
 1528              		.loc 1 753 0
 1529 0032 2000     		movs	r0, r4
 1530              		@ sp needed
 1531              	.LVL185:
 1532              	.LVL186:
 1533 0034 70BD     		pop	{r4, r5, r6, pc}
 1534              		.cfi_endproc
 1535              	.LFE38:
 1536              		.size	block_trim_free_leading, .-block_trim_free_leading
 1537 0036 C046     		.section	.text.block_remove,"ax",%progbits
 1538              		.align	2
 1539              		.code	16
 1540              		.thumb_func
 1541              		.type	block_remove, %function
 1542              	block_remove:
 1543              	.LFB29:
 634:..\..\..\arduinoLCD\test\Pain Drain\libraries\lvgl\src\misc/lv_tlsf.c ****     int fl, sl;
 1544              		.loc 1 634 0
 1545              		.cfi_startproc
 1546              		@ args = 0, pretend = 0, frame = 8
 1547              		@ frame_needed = 0, uses_anonymous_args = 0
 1548              	.LVL187:
 1549 0000 30B5     		push	{r4, r5, lr}
 1550              		.cfi_def_cfa_offset 12
 1551              		.cfi_offset 4, -12
 1552              		.cfi_offset 5, -8
 1553              		.cfi_offset 14, -4
 1554 0002 83B0     		sub	sp, sp, #12
 1555              		.cfi_def_cfa_offset 24
 1556 0004 0500     		movs	r5, r0
 1557 0006 0C00     		movs	r4, r1
 636:..\..\..\arduinoLCD\test\Pain Drain\libraries\lvgl\src\misc/lv_tlsf.c ****     remove_free_block(control, block, fl, sl);
 1558              		.loc 1 636 0
 1559 0008 0800     		movs	r0, r1
 1560              	.LVL188:
 1561 000a FFF7FEFF 		bl	block_size
 1562              	.LVL189:
ARM GAS  C:\Users\haske\AppData\Local\Temp\ccswauRt.s 			page 45


 1563 000e 6A46     		mov	r2, sp
 1564 0010 01A9     		add	r1, sp, #4
 1565 0012 FFF7FEFF 		bl	mapping_insert
 1566              	.LVL190:
 637:..\..\..\arduinoLCD\test\Pain Drain\libraries\lvgl\src\misc/lv_tlsf.c **** }
 1567              		.loc 1 637 0
 1568 0016 009B     		ldr	r3, [sp]
 1569 0018 019A     		ldr	r2, [sp, #4]
 1570 001a 2100     		movs	r1, r4
 1571 001c 2800     		movs	r0, r5
 1572 001e FFF7FEFF 		bl	remove_free_block
 1573              	.LVL191:
 638:..\..\..\arduinoLCD\test\Pain Drain\libraries\lvgl\src\misc/lv_tlsf.c **** 
 1574              		.loc 1 638 0
 1575 0022 03B0     		add	sp, sp, #12
 1576              		@ sp needed
 1577              	.LVL192:
 1578              	.LVL193:
 1579 0024 30BD     		pop	{r4, r5, pc}
 1580              		.cfi_endproc
 1581              	.LFE29:
 1582              		.size	block_remove, .-block_remove
 1583 0026 C046     		.section	.text.block_merge_prev,"ax",%progbits
 1584              		.align	2
 1585              		.code	16
 1586              		.thumb_func
 1587              		.type	block_merge_prev, %function
 1588              	block_merge_prev:
 1589              	.LFB34:
 687:..\..\..\arduinoLCD\test\Pain Drain\libraries\lvgl\src\misc/lv_tlsf.c ****     if(block_is_prev_free(block)) {
 1590              		.loc 1 687 0
 1591              		.cfi_startproc
 1592              		@ args = 0, pretend = 0, frame = 0
 1593              		@ frame_needed = 0, uses_anonymous_args = 0
 1594              	.LVL194:
 1595 0000 70B5     		push	{r4, r5, r6, lr}
 1596              		.cfi_def_cfa_offset 16
 1597              		.cfi_offset 4, -16
 1598              		.cfi_offset 5, -12
 1599              		.cfi_offset 6, -8
 1600              		.cfi_offset 14, -4
 1601 0002 0600     		movs	r6, r0
 1602 0004 0C00     		movs	r4, r1
 688:..\..\..\arduinoLCD\test\Pain Drain\libraries\lvgl\src\misc/lv_tlsf.c ****         block_header_t * prev = block_prev(block);
 1603              		.loc 1 688 0
 1604 0006 0800     		movs	r0, r1
 1605              	.LVL195:
 1606 0008 FFF7FEFF 		bl	block_is_prev_free
 1607              	.LVL196:
 1608 000c 0028     		cmp	r0, #0
 1609 000e 13D0     		beq	.L95
 1610              	.LBB4:
 689:..\..\..\arduinoLCD\test\Pain Drain\libraries\lvgl\src\misc/lv_tlsf.c ****         tlsf_assert(prev && "prev physical block can't be null");
 1611              		.loc 1 689 0
 1612 0010 2000     		movs	r0, r4
 1613 0012 FFF7FEFF 		bl	block_prev
 1614              	.LVL197:
ARM GAS  C:\Users\haske\AppData\Local\Temp\ccswauRt.s 			page 46


 1615 0016 051E     		subs	r5, r0, #0
 1616              	.LVL198:
 690:..\..\..\arduinoLCD\test\Pain Drain\libraries\lvgl\src\misc/lv_tlsf.c ****         tlsf_assert(block_is_free(prev) && "prev block is not free though marked as such");
 1617              		.loc 1 690 0
 1618 0018 00D1     		bne	.L96
 1619              	.L97:
 1620 001a FEE7     		b	.L97
 1621              	.L96:
 691:..\..\..\arduinoLCD\test\Pain Drain\libraries\lvgl\src\misc/lv_tlsf.c ****         block_remove(control, prev);
 1622              		.loc 1 691 0
 1623 001c FFF7FEFF 		bl	block_is_free
 1624              	.LVL199:
 1625 0020 0028     		cmp	r0, #0
 1626 0022 00D1     		bne	.L98
 1627              	.L99:
 1628 0024 FEE7     		b	.L99
 1629              	.L98:
 692:..\..\..\arduinoLCD\test\Pain Drain\libraries\lvgl\src\misc/lv_tlsf.c ****         block = block_absorb(prev, block);
 1630              		.loc 1 692 0
 1631 0026 2900     		movs	r1, r5
 1632 0028 3000     		movs	r0, r6
 1633 002a FFF7FEFF 		bl	block_remove
 1634              	.LVL200:
 693:..\..\..\arduinoLCD\test\Pain Drain\libraries\lvgl\src\misc/lv_tlsf.c ****     }
 1635              		.loc 1 693 0
 1636 002e 2100     		movs	r1, r4
 1637 0030 2800     		movs	r0, r5
 1638 0032 FFF7FEFF 		bl	block_absorb
 1639              	.LVL201:
 1640 0036 0400     		movs	r4, r0
 1641              	.LVL202:
 1642              	.L95:
 1643              	.LBE4:
 697:..\..\..\arduinoLCD\test\Pain Drain\libraries\lvgl\src\misc/lv_tlsf.c **** 
 1644              		.loc 1 697 0
 1645 0038 2000     		movs	r0, r4
 1646              		@ sp needed
 1647              	.LVL203:
 1648              	.LVL204:
 1649 003a 70BD     		pop	{r4, r5, r6, pc}
 1650              		.cfi_endproc
 1651              	.LFE34:
 1652              		.size	block_merge_prev, .-block_merge_prev
 1653              		.section	.text.block_merge_next,"ax",%progbits
 1654              		.align	2
 1655              		.code	16
 1656              		.thumb_func
 1657              		.type	block_merge_next, %function
 1658              	block_merge_next:
 1659              	.LFB35:
 701:..\..\..\arduinoLCD\test\Pain Drain\libraries\lvgl\src\misc/lv_tlsf.c ****     block_header_t * next = block_next(block);
 1660              		.loc 1 701 0
 1661              		.cfi_startproc
 1662              		@ args = 0, pretend = 0, frame = 0
 1663              		@ frame_needed = 0, uses_anonymous_args = 0
 1664              	.LVL205:
 1665 0000 70B5     		push	{r4, r5, r6, lr}
ARM GAS  C:\Users\haske\AppData\Local\Temp\ccswauRt.s 			page 47


 1666              		.cfi_def_cfa_offset 16
 1667              		.cfi_offset 4, -16
 1668              		.cfi_offset 5, -12
 1669              		.cfi_offset 6, -8
 1670              		.cfi_offset 14, -4
 1671 0002 0600     		movs	r6, r0
 1672 0004 0C00     		movs	r4, r1
 702:..\..\..\arduinoLCD\test\Pain Drain\libraries\lvgl\src\misc/lv_tlsf.c ****     tlsf_assert(next && "next physical block can't be null");
 1673              		.loc 1 702 0
 1674 0006 0800     		movs	r0, r1
 1675              	.LVL206:
 1676 0008 FFF7FEFF 		bl	block_next
 1677              	.LVL207:
 1678 000c 051E     		subs	r5, r0, #0
 1679              	.LVL208:
 703:..\..\..\arduinoLCD\test\Pain Drain\libraries\lvgl\src\misc/lv_tlsf.c **** 
 1680              		.loc 1 703 0
 1681 000e 00D1     		bne	.L101
 1682              	.L102:
 1683 0010 FEE7     		b	.L102
 1684              	.L101:
 705:..\..\..\arduinoLCD\test\Pain Drain\libraries\lvgl\src\misc/lv_tlsf.c ****         tlsf_assert(!block_is_last(block) && "previous block can't be last");
 1685              		.loc 1 705 0
 1686 0012 FFF7FEFF 		bl	block_is_free
 1687              	.LVL209:
 1688 0016 0028     		cmp	r0, #0
 1689 0018 0ED0     		beq	.L103
 706:..\..\..\arduinoLCD\test\Pain Drain\libraries\lvgl\src\misc/lv_tlsf.c ****         block_remove(control, next);
 1690              		.loc 1 706 0
 1691 001a 2000     		movs	r0, r4
 1692 001c FFF7FEFF 		bl	block_is_last
 1693              	.LVL210:
 1694 0020 0028     		cmp	r0, #0
 1695 0022 00D0     		beq	.L104
 1696              	.L105:
 1697 0024 FEE7     		b	.L105
 1698              	.L104:
 707:..\..\..\arduinoLCD\test\Pain Drain\libraries\lvgl\src\misc/lv_tlsf.c ****         block = block_absorb(block, next);
 1699              		.loc 1 707 0
 1700 0026 2900     		movs	r1, r5
 1701 0028 3000     		movs	r0, r6
 1702 002a FFF7FEFF 		bl	block_remove
 1703              	.LVL211:
 708:..\..\..\arduinoLCD\test\Pain Drain\libraries\lvgl\src\misc/lv_tlsf.c ****     }
 1704              		.loc 1 708 0
 1705 002e 2900     		movs	r1, r5
 1706 0030 2000     		movs	r0, r4
 1707 0032 FFF7FEFF 		bl	block_absorb
 1708              	.LVL212:
 1709 0036 0400     		movs	r4, r0
 1710              	.LVL213:
 1711              	.L103:
 712:..\..\..\arduinoLCD\test\Pain Drain\libraries\lvgl\src\misc/lv_tlsf.c **** 
 1712              		.loc 1 712 0
 1713 0038 2000     		movs	r0, r4
 1714              		@ sp needed
 1715              	.LVL214:
ARM GAS  C:\Users\haske\AppData\Local\Temp\ccswauRt.s 			page 48


 1716              	.LVL215:
 1717              	.LVL216:
 1718 003a 70BD     		pop	{r4, r5, r6, pc}
 1719              		.cfi_endproc
 1720              	.LFE35:
 1721              		.size	block_merge_next, .-block_merge_next
 1722              		.section	.text.block_trim_used,"ax",%progbits
 1723              		.align	2
 1724              		.code	16
 1725              		.thumb_func
 1726              		.type	block_trim_used, %function
 1727              	block_trim_used:
 1728              	.LFB37:
 728:..\..\..\arduinoLCD\test\Pain Drain\libraries\lvgl\src\misc/lv_tlsf.c ****     tlsf_assert(!block_is_free(block) && "block must be used");
 1729              		.loc 1 728 0
 1730              		.cfi_startproc
 1731              		@ args = 0, pretend = 0, frame = 0
 1732              		@ frame_needed = 0, uses_anonymous_args = 0
 1733              	.LVL217:
 1734 0000 70B5     		push	{r4, r5, r6, lr}
 1735              		.cfi_def_cfa_offset 16
 1736              		.cfi_offset 4, -16
 1737              		.cfi_offset 5, -12
 1738              		.cfi_offset 6, -8
 1739              		.cfi_offset 14, -4
 1740 0002 0500     		movs	r5, r0
 1741 0004 0C00     		movs	r4, r1
 1742 0006 1600     		movs	r6, r2
 729:..\..\..\arduinoLCD\test\Pain Drain\libraries\lvgl\src\misc/lv_tlsf.c ****     if(block_can_split(block, size)) {
 1743              		.loc 1 729 0
 1744 0008 0800     		movs	r0, r1
 1745              	.LVL218:
 1746 000a FFF7FEFF 		bl	block_is_free
 1747              	.LVL219:
 1748 000e 0028     		cmp	r0, #0
 1749 0010 00D0     		beq	.L107
 1750              	.L108:
 1751 0012 FEE7     		b	.L108
 1752              	.L107:
 730:..\..\..\arduinoLCD\test\Pain Drain\libraries\lvgl\src\misc/lv_tlsf.c ****         /* If the next block is free, we must coalesce. */
 1753              		.loc 1 730 0
 1754 0014 3100     		movs	r1, r6
 1755 0016 2000     		movs	r0, r4
 1756 0018 FFF7FEFF 		bl	block_can_split
 1757              	.LVL220:
 1758 001c 0028     		cmp	r0, #0
 1759 001e 0ED0     		beq	.L106
 1760              	.LBB5:
 732:..\..\..\arduinoLCD\test\Pain Drain\libraries\lvgl\src\misc/lv_tlsf.c ****         block_set_prev_used(remaining_block);
 1761              		.loc 1 732 0
 1762 0020 3100     		movs	r1, r6
 1763 0022 2000     		movs	r0, r4
 1764 0024 FFF7FEFF 		bl	block_split
 1765              	.LVL221:
 1766 0028 0400     		movs	r4, r0
 1767              	.LVL222:
 733:..\..\..\arduinoLCD\test\Pain Drain\libraries\lvgl\src\misc/lv_tlsf.c **** 
ARM GAS  C:\Users\haske\AppData\Local\Temp\ccswauRt.s 			page 49


 1768              		.loc 1 733 0
 1769 002a FFF7FEFF 		bl	block_set_prev_used
 1770              	.LVL223:
 735:..\..\..\arduinoLCD\test\Pain Drain\libraries\lvgl\src\misc/lv_tlsf.c ****         block_insert(control, remaining_block);
 1771              		.loc 1 735 0
 1772 002e 2100     		movs	r1, r4
 1773 0030 2800     		movs	r0, r5
 1774 0032 FFF7FEFF 		bl	block_merge_next
 1775              	.LVL224:
 1776 0036 0100     		movs	r1, r0
 1777              	.LVL225:
 736:..\..\..\arduinoLCD\test\Pain Drain\libraries\lvgl\src\misc/lv_tlsf.c ****     }
 1778              		.loc 1 736 0
 1779 0038 2800     		movs	r0, r5
 1780              	.LVL226:
 1781 003a FFF7FEFF 		bl	block_insert
 1782              	.LVL227:
 1783              	.L106:
 1784              	.LBE5:
 738:..\..\..\arduinoLCD\test\Pain Drain\libraries\lvgl\src\misc/lv_tlsf.c **** 
 1785              		.loc 1 738 0
 1786              		@ sp needed
 1787              	.LVL228:
 1788              	.LVL229:
 1789 003e 70BD     		pop	{r4, r5, r6, pc}
 1790              		.cfi_endproc
 1791              	.LFE37:
 1792              		.size	block_trim_used, .-block_trim_used
 1793              		.section	.text.mapping_search,"ax",%progbits
 1794              		.align	2
 1795              		.code	16
 1796              		.thumb_func
 1797              		.type	mapping_search, %function
 1798              	mapping_search:
 1799              	.LFB25:
 547:..\..\..\arduinoLCD\test\Pain Drain\libraries\lvgl\src\misc/lv_tlsf.c ****     if(size >= SMALL_BLOCK_SIZE) {
 1800              		.loc 1 547 0
 1801              		.cfi_startproc
 1802              		@ args = 0, pretend = 0, frame = 0
 1803              		@ frame_needed = 0, uses_anonymous_args = 0
 1804              	.LVL230:
 1805 0000 70B5     		push	{r4, r5, r6, lr}
 1806              		.cfi_def_cfa_offset 16
 1807              		.cfi_offset 4, -16
 1808              		.cfi_offset 5, -12
 1809              		.cfi_offset 6, -8
 1810              		.cfi_offset 14, -4
 1811 0002 0400     		movs	r4, r0
 1812 0004 0D00     		movs	r5, r1
 1813 0006 1600     		movs	r6, r2
 548:..\..\..\arduinoLCD\test\Pain Drain\libraries\lvgl\src\misc/lv_tlsf.c ****         const size_t round = (1 << (tlsf_fls_sizet(size) - SL_INDEX_COUNT_LOG2)) - 1;
 1814              		.loc 1 548 0
 1815 0008 7F28     		cmp	r0, #127
 1816 000a 06D9     		bls	.L111
 1817              	.LBB6:
 549:..\..\..\arduinoLCD\test\Pain Drain\libraries\lvgl\src\misc/lv_tlsf.c ****         size += round;
 1818              		.loc 1 549 0
ARM GAS  C:\Users\haske\AppData\Local\Temp\ccswauRt.s 			page 50


 1819 000c FFF7FEFF 		bl	tlsf_fls
 1820              	.LVL231:
 1821 0010 0538     		subs	r0, r0, #5
 1822 0012 0123     		movs	r3, #1
 1823 0014 8340     		lsls	r3, r3, r0
 1824 0016 013B     		subs	r3, r3, #1
 1825              	.LVL232:
 550:..\..\..\arduinoLCD\test\Pain Drain\libraries\lvgl\src\misc/lv_tlsf.c ****     }
 1826              		.loc 1 550 0
 1827 0018 E418     		adds	r4, r4, r3
 1828              	.LVL233:
 1829              	.L111:
 1830              	.LBE6:
 552:..\..\..\arduinoLCD\test\Pain Drain\libraries\lvgl\src\misc/lv_tlsf.c **** }
 1831              		.loc 1 552 0
 1832 001a 3200     		movs	r2, r6
 1833 001c 2900     		movs	r1, r5
 1834 001e 2000     		movs	r0, r4
 1835 0020 FFF7FEFF 		bl	mapping_insert
 1836              	.LVL234:
 553:..\..\..\arduinoLCD\test\Pain Drain\libraries\lvgl\src\misc/lv_tlsf.c **** 
 1837              		.loc 1 553 0
 1838              		@ sp needed
 1839              	.LVL235:
 1840              	.LVL236:
 1841              	.LVL237:
 1842 0024 70BD     		pop	{r4, r5, r6, pc}
 1843              		.cfi_endproc
 1844              	.LFE25:
 1845              		.size	mapping_search, .-mapping_search
 1846              		.global	__ffssi2
 1847 0026 C046     		.section	.text.tlsf_ffs,"ax",%progbits
 1848              		.align	2
 1849              		.code	16
 1850              		.thumb_func
 1851              		.type	tlsf_ffs, %function
 1852              	tlsf_ffs:
 1853              	.LFB1:
  95:..\..\..\arduinoLCD\test\Pain Drain\libraries\lvgl\src\misc/lv_tlsf.c ****     return __builtin_ffs(word) - 1;
 1854              		.loc 1 95 0
 1855              		.cfi_startproc
 1856              		@ args = 0, pretend = 0, frame = 0
 1857              		@ frame_needed = 0, uses_anonymous_args = 0
 1858              	.LVL238:
 1859 0000 10B5     		push	{r4, lr}
 1860              		.cfi_def_cfa_offset 8
 1861              		.cfi_offset 4, -8
 1862              		.cfi_offset 14, -4
  96:..\..\..\arduinoLCD\test\Pain Drain\libraries\lvgl\src\misc/lv_tlsf.c **** }
 1863              		.loc 1 96 0
 1864 0002 FFF7FEFF 		bl	__ffssi2
 1865              	.LVL239:
 1866 0006 0138     		subs	r0, r0, #1
  97:..\..\..\arduinoLCD\test\Pain Drain\libraries\lvgl\src\misc/lv_tlsf.c **** 
 1867              		.loc 1 97 0
 1868              		@ sp needed
 1869 0008 10BD     		pop	{r4, pc}
ARM GAS  C:\Users\haske\AppData\Local\Temp\ccswauRt.s 			page 51


 1870              		.cfi_endproc
 1871              	.LFE1:
 1872              		.size	tlsf_ffs, .-tlsf_ffs
 1873 000a C046     		.section	.text.search_suitable_block,"ax",%progbits
 1874              		.align	2
 1875              		.code	16
 1876              		.thumb_func
 1877              		.type	search_suitable_block, %function
 1878              	search_suitable_block:
 1879              	.LFB26:
 556:..\..\..\arduinoLCD\test\Pain Drain\libraries\lvgl\src\misc/lv_tlsf.c ****     int fl = *fli;
 1880              		.loc 1 556 0
 1881              		.cfi_startproc
 1882              		@ args = 0, pretend = 0, frame = 0
 1883              		@ frame_needed = 0, uses_anonymous_args = 0
 1884              	.LVL240:
 1885 0000 F8B5     		push	{r3, r4, r5, r6, r7, lr}
 1886              		.cfi_def_cfa_offset 24
 1887              		.cfi_offset 3, -24
 1888              		.cfi_offset 4, -20
 1889              		.cfi_offset 5, -16
 1890              		.cfi_offset 6, -12
 1891              		.cfi_offset 7, -8
 1892              		.cfi_offset 14, -4
 1893 0002 0500     		movs	r5, r0
 1894 0004 0F00     		movs	r7, r1
 1895 0006 1600     		movs	r6, r2
 557:..\..\..\arduinoLCD\test\Pain Drain\libraries\lvgl\src\misc/lv_tlsf.c ****     int sl = *sli;
 1896              		.loc 1 557 0
 1897 0008 0C68     		ldr	r4, [r1]
 1898              	.LVL241:
 564:..\..\..\arduinoLCD\test\Pain Drain\libraries\lvgl\src\misc/lv_tlsf.c ****     if(!sl_map) {
 1899              		.loc 1 564 0
 1900 000a 231D     		adds	r3, r4, #4
 1901 000c 9B00     		lsls	r3, r3, #2
 1902 000e C318     		adds	r3, r0, r3
 1903 0010 5B68     		ldr	r3, [r3, #4]
 1904 0012 0120     		movs	r0, #1
 1905              	.LVL242:
 1906 0014 4042     		rsbs	r0, r0, #0
 1907 0016 1268     		ldr	r2, [r2]
 1908              	.LVL243:
 1909 0018 9040     		lsls	r0, r0, r2
 1910 001a 1840     		ands	r0, r3
 1911              	.LVL244:
 565:..\..\..\arduinoLCD\test\Pain Drain\libraries\lvgl\src\misc/lv_tlsf.c ****         /* No block exists. Search in the next largest first-level list. */
 1912              		.loc 1 565 0
 1913 001c 0DD1     		bne	.L114
 1914              	.LBB7:
 567:..\..\..\arduinoLCD\test\Pain Drain\libraries\lvgl\src\misc/lv_tlsf.c ****         if(!fl_map) {
 1915              		.loc 1 567 0
 1916 001e 0134     		adds	r4, r4, #1
 1917              	.LVL245:
 1918 0020 0138     		subs	r0, r0, #1
 1919              	.LVL246:
 1920 0022 A040     		lsls	r0, r0, r4
 1921              	.LVL247:
ARM GAS  C:\Users\haske\AppData\Local\Temp\ccswauRt.s 			page 52


 1922 0024 2B69     		ldr	r3, [r5, #16]
 1923              	.LVL248:
 1924 0026 1840     		ands	r0, r3
 1925              	.LVL249:
 568:..\..\..\arduinoLCD\test\Pain Drain\libraries\lvgl\src\misc/lv_tlsf.c ****             /* No free blocks available, memory has been exhausted. */
 1926              		.loc 1 568 0
 1927 0028 14D0     		beq	.L118
 573:..\..\..\arduinoLCD\test\Pain Drain\libraries\lvgl\src\misc/lv_tlsf.c ****         *fli = fl;
 1928              		.loc 1 573 0
 1929 002a FFF7FEFF 		bl	tlsf_ffs
 1930              	.LVL250:
 1931 002e 0400     		movs	r4, r0
 1932              	.LVL251:
 574:..\..\..\arduinoLCD\test\Pain Drain\libraries\lvgl\src\misc/lv_tlsf.c ****         sl_map = control->sl_bitmap[fl];
 1933              		.loc 1 574 0
 1934 0030 3860     		str	r0, [r7]
 575:..\..\..\arduinoLCD\test\Pain Drain\libraries\lvgl\src\misc/lv_tlsf.c ****     }
 1935              		.loc 1 575 0
 1936 0032 031D     		adds	r3, r0, #4
 1937 0034 9B00     		lsls	r3, r3, #2
 1938 0036 EB18     		adds	r3, r5, r3
 1939 0038 5868     		ldr	r0, [r3, #4]
 1940              	.LVL252:
 1941              	.L114:
 1942              	.LBE7:
 577:..\..\..\arduinoLCD\test\Pain Drain\libraries\lvgl\src\misc/lv_tlsf.c ****     sl = tlsf_ffs(sl_map);
 1943              		.loc 1 577 0
 1944 003a 0028     		cmp	r0, #0
 1945 003c 00D1     		bne	.L116
 1946              	.L117:
 1947 003e FEE7     		b	.L117
 1948              	.L116:
 578:..\..\..\arduinoLCD\test\Pain Drain\libraries\lvgl\src\misc/lv_tlsf.c ****     *sli = sl;
 1949              		.loc 1 578 0
 1950 0040 FFF7FEFF 		bl	tlsf_ffs
 1951              	.LVL253:
 579:..\..\..\arduinoLCD\test\Pain Drain\libraries\lvgl\src\misc/lv_tlsf.c **** 
 1952              		.loc 1 579 0
 1953 0044 3060     		str	r0, [r6]
 582:..\..\..\arduinoLCD\test\Pain Drain\libraries\lvgl\src\misc/lv_tlsf.c **** }
 1954              		.loc 1 582 0
 1955 0046 6301     		lsls	r3, r4, #5
 1956 0048 1B18     		adds	r3, r3, r0
 1957 004a 0E33     		adds	r3, r3, #14
 1958 004c 9B00     		lsls	r3, r3, #2
 1959 004e EB18     		adds	r3, r5, r3
 1960 0050 5868     		ldr	r0, [r3, #4]
 1961              	.LVL254:
 1962 0052 00E0     		b	.L115
 1963              	.LVL255:
 1964              	.L118:
 1965              	.LBB8:
 570:..\..\..\arduinoLCD\test\Pain Drain\libraries\lvgl\src\misc/lv_tlsf.c ****         }
 1966              		.loc 1 570 0
 1967 0054 0020     		movs	r0, #0
 1968              	.LVL256:
 1969              	.L115:
ARM GAS  C:\Users\haske\AppData\Local\Temp\ccswauRt.s 			page 53


 1970              	.LBE8:
 583:..\..\..\arduinoLCD\test\Pain Drain\libraries\lvgl\src\misc/lv_tlsf.c **** 
 1971              		.loc 1 583 0
 1972              		@ sp needed
 1973              	.LVL257:
 1974              	.LVL258:
 1975              	.LVL259:
 1976 0056 F8BD     		pop	{r3, r4, r5, r6, r7, pc}
 1977              		.cfi_endproc
 1978              	.LFE26:
 1979              		.size	search_suitable_block, .-search_suitable_block
 1980              		.section	.text.block_locate_free,"ax",%progbits
 1981              		.align	2
 1982              		.code	16
 1983              		.thumb_func
 1984              		.type	block_locate_free, %function
 1985              	block_locate_free:
 1986              	.LFB39:
 756:..\..\..\arduinoLCD\test\Pain Drain\libraries\lvgl\src\misc/lv_tlsf.c ****     int fl = 0, sl = 0;
 1987              		.loc 1 756 0
 1988              		.cfi_startproc
 1989              		@ args = 0, pretend = 0, frame = 8
 1990              		@ frame_needed = 0, uses_anonymous_args = 0
 1991              	.LVL260:
 1992 0000 70B5     		push	{r4, r5, r6, lr}
 1993              		.cfi_def_cfa_offset 16
 1994              		.cfi_offset 4, -16
 1995              		.cfi_offset 5, -12
 1996              		.cfi_offset 6, -8
 1997              		.cfi_offset 14, -4
 1998 0002 82B0     		sub	sp, sp, #8
 1999              		.cfi_def_cfa_offset 24
 2000 0004 0600     		movs	r6, r0
 2001 0006 0D00     		movs	r5, r1
 757:..\..\..\arduinoLCD\test\Pain Drain\libraries\lvgl\src\misc/lv_tlsf.c ****     block_header_t * block = 0;
 2002              		.loc 1 757 0
 2003 0008 0023     		movs	r3, #0
 2004 000a 0193     		str	r3, [sp, #4]
 2005 000c 0093     		str	r3, [sp]
 2006              	.LVL261:
 760:..\..\..\arduinoLCD\test\Pain Drain\libraries\lvgl\src\misc/lv_tlsf.c ****         mapping_search(size, &fl, &sl);
 2007              		.loc 1 760 0
 2008 000e 0029     		cmp	r1, #0
 2009 0010 0ED0     		beq	.L124
 761:..\..\..\arduinoLCD\test\Pain Drain\libraries\lvgl\src\misc/lv_tlsf.c **** 
 2010              		.loc 1 761 0
 2011 0012 6A46     		mov	r2, sp
 2012 0014 01A9     		add	r1, sp, #4
 2013              	.LVL262:
 2014 0016 2800     		movs	r0, r5
 2015              	.LVL263:
 2016 0018 FFF7FEFF 		bl	mapping_search
 2017              	.LVL264:
 769:..\..\..\arduinoLCD\test\Pain Drain\libraries\lvgl\src\misc/lv_tlsf.c ****             block = search_suitable_block(control, &fl, &sl);
 2018              		.loc 1 769 0
 2019 001c 019B     		ldr	r3, [sp, #4]
 2020 001e 092B     		cmp	r3, #9
ARM GAS  C:\Users\haske\AppData\Local\Temp\ccswauRt.s 			page 54


 2021 0020 08DC     		bgt	.L125
 770:..\..\..\arduinoLCD\test\Pain Drain\libraries\lvgl\src\misc/lv_tlsf.c ****         }
 2022              		.loc 1 770 0
 2023 0022 6A46     		mov	r2, sp
 2024 0024 01A9     		add	r1, sp, #4
 2025 0026 3000     		movs	r0, r6
 2026 0028 FFF7FEFF 		bl	search_suitable_block
 2027              	.LVL265:
 2028 002c 0400     		movs	r4, r0
 2029              	.LVL266:
 2030 002e 02E0     		b	.L120
 2031              	.LVL267:
 2032              	.L124:
 758:..\..\..\arduinoLCD\test\Pain Drain\libraries\lvgl\src\misc/lv_tlsf.c **** 
 2033              		.loc 1 758 0
 2034 0030 0024     		movs	r4, #0
 2035 0032 00E0     		b	.L120
 2036              	.LVL268:
 2037              	.L125:
 2038 0034 0024     		movs	r4, #0
 2039              	.LVL269:
 2040              	.L120:
 774:..\..\..\arduinoLCD\test\Pain Drain\libraries\lvgl\src\misc/lv_tlsf.c ****         tlsf_assert(block_size(block) >= size);
 2041              		.loc 1 774 0
 2042 0036 002C     		cmp	r4, #0
 2043 0038 0BD0     		beq	.L121
 775:..\..\..\arduinoLCD\test\Pain Drain\libraries\lvgl\src\misc/lv_tlsf.c ****         remove_free_block(control, block, fl, sl);
 2044              		.loc 1 775 0
 2045 003a 2000     		movs	r0, r4
 2046 003c FFF7FEFF 		bl	block_size
 2047              	.LVL270:
 2048 0040 8542     		cmp	r5, r0
 2049 0042 00D9     		bls	.L122
 2050              	.L123:
 2051 0044 FEE7     		b	.L123
 2052              	.L122:
 776:..\..\..\arduinoLCD\test\Pain Drain\libraries\lvgl\src\misc/lv_tlsf.c ****     }
 2053              		.loc 1 776 0
 2054 0046 009B     		ldr	r3, [sp]
 2055 0048 019A     		ldr	r2, [sp, #4]
 2056 004a 2100     		movs	r1, r4
 2057 004c 3000     		movs	r0, r6
 2058 004e FFF7FEFF 		bl	remove_free_block
 2059              	.LVL271:
 2060              	.L121:
 780:..\..\..\arduinoLCD\test\Pain Drain\libraries\lvgl\src\misc/lv_tlsf.c **** 
 2061              		.loc 1 780 0
 2062 0052 2000     		movs	r0, r4
 2063 0054 02B0     		add	sp, sp, #8
 2064              		@ sp needed
 2065              	.LVL272:
 2066              	.LVL273:
 2067              	.LVL274:
 2068 0056 70BD     		pop	{r4, r5, r6, pc}
 2069              		.cfi_endproc
 2070              	.LFE39:
 2071              		.size	block_locate_free, .-block_locate_free
ARM GAS  C:\Users\haske\AppData\Local\Temp\ccswauRt.s 			page 55


 2072              		.section	.text.lv_tlsf_check,"ax",%progbits
 2073              		.align	2
 2074              		.global	lv_tlsf_check
 2075              		.code	16
 2076              		.thumb_func
 2077              		.type	lv_tlsf_check, %function
 2078              	lv_tlsf_check:
 2079              	.LFB43:
 840:..\..\..\arduinoLCD\test\Pain Drain\libraries\lvgl\src\misc/lv_tlsf.c ****     int i, j;
 2080              		.loc 1 840 0
 2081              		.cfi_startproc
 2082              		@ args = 0, pretend = 0, frame = 16
 2083              		@ frame_needed = 0, uses_anonymous_args = 0
 2084              	.LVL275:
 2085 0000 F0B5     		push	{r4, r5, r6, r7, lr}
 2086              		.cfi_def_cfa_offset 20
 2087              		.cfi_offset 4, -20
 2088              		.cfi_offset 5, -16
 2089              		.cfi_offset 6, -12
 2090              		.cfi_offset 7, -8
 2091              		.cfi_offset 14, -4
 2092 0002 5746     		mov	r7, r10
 2093 0004 4E46     		mov	r6, r9
 2094 0006 C0B4     		push	{r6, r7}
 2095              		.cfi_def_cfa_offset 28
 2096              		.cfi_offset 9, -28
 2097              		.cfi_offset 10, -24
 2098 0008 85B0     		sub	sp, sp, #20
 2099              		.cfi_def_cfa_offset 48
 2100 000a 0700     		movs	r7, r0
 2101              	.LVL276:
 844:..\..\..\arduinoLCD\test\Pain Drain\libraries\lvgl\src\misc/lv_tlsf.c **** 
 2102              		.loc 1 844 0
 2103 000c 0024     		movs	r4, #0
 847:..\..\..\arduinoLCD\test\Pain Drain\libraries\lvgl\src\misc/lv_tlsf.c ****         for(j = 0; j < SL_INDEX_COUNT; ++j) {
 2104              		.loc 1 847 0
 2105 000e 0026     		movs	r6, #0
 2106 0010 7CE0     		b	.L127
 2107              	.LVL277:
 2108              	.L163:
 2109              	.LBB9:
 849:..\..\..\arduinoLCD\test\Pain Drain\libraries\lvgl\src\misc/lv_tlsf.c ****             const int sl_list = control->sl_bitmap[i];
 2110              		.loc 1 849 0
 2111 0012 0122     		movs	r2, #1
 2112 0014 1000     		movs	r0, r2
 2113 0016 B040     		lsls	r0, r0, r6
 2114              	.LVL278:
 850:..\..\..\arduinoLCD\test\Pain Drain\libraries\lvgl\src\misc/lv_tlsf.c ****             const int sl_map = sl_list & (1U << j);
 2115              		.loc 1 850 0
 2116 0018 331D     		adds	r3, r6, #4
 2117              	.LVL279:
 2118 001a 9B00     		lsls	r3, r3, #2
 2119 001c FB18     		adds	r3, r7, r3
 2120 001e 5968     		ldr	r1, [r3, #4]
 2121              	.LVL280:
 851:..\..\..\arduinoLCD\test\Pain Drain\libraries\lvgl\src\misc/lv_tlsf.c ****             const block_header_t * block = control->blocks[i][j];
 2122              		.loc 1 851 0
ARM GAS  C:\Users\haske\AppData\Local\Temp\ccswauRt.s 			page 56


 2123 0020 4B46     		mov	r3, r9
 2124 0022 9A40     		lsls	r2, r2, r3
 2125 0024 0A40     		ands	r2, r1
 2126              	.LVL281:
 852:..\..\..\arduinoLCD\test\Pain Drain\libraries\lvgl\src\misc/lv_tlsf.c **** 
 2127              		.loc 1 852 0
 2128 0026 7301     		lsls	r3, r6, #5
 2129 0028 4B44     		add	r3, r3, r9
 2130 002a 0E33     		adds	r3, r3, #14
 2131 002c 9B00     		lsls	r3, r3, #2
 2132 002e FB18     		adds	r3, r7, r3
 2133 0030 5D68     		ldr	r5, [r3, #4]
 2134              	.LVL282:
 855:..\..\..\arduinoLCD\test\Pain Drain\libraries\lvgl\src\misc/lv_tlsf.c ****                 tlsf_insist(!sl_map && "second-level map must be null");
 2135              		.loc 1 855 0
 2136 0032 3B69     		ldr	r3, [r7, #16]
 2137 0034 1842     		tst	r0, r3
 2138 0036 05D1     		bne	.L128
 856:..\..\..\arduinoLCD\test\Pain Drain\libraries\lvgl\src\misc/lv_tlsf.c ****             }
 2139              		.loc 1 856 0
 2140 0038 002A     		cmp	r2, #0
 2141 003a 00D0     		beq	.L129
 2142              	.L130:
 2143 003c FEE7     		b	.L130
 2144              	.L129:
 856:..\..\..\arduinoLCD\test\Pain Drain\libraries\lvgl\src\misc/lv_tlsf.c ****             }
 2145              		.loc 1 856 0 is_stmt 0 discriminator 1
 2146 003e 002A     		cmp	r2, #0
 2147 0040 00D0     		beq	.L128
 856:..\..\..\arduinoLCD\test\Pain Drain\libraries\lvgl\src\misc/lv_tlsf.c ****             }
 2148              		.loc 1 856 0 discriminator 2
 2149 0042 013C     		subs	r4, r4, #1
 2150              	.LVL283:
 2151              	.L128:
 859:..\..\..\arduinoLCD\test\Pain Drain\libraries\lvgl\src\misc/lv_tlsf.c ****                 tlsf_insist(block == &control->block_null && "block list must be null");
 2152              		.loc 1 859 0 is_stmt 1
 2153 0044 002A     		cmp	r2, #0
 2154 0046 06D1     		bne	.L131
 860:..\..\..\arduinoLCD\test\Pain Drain\libraries\lvgl\src\misc/lv_tlsf.c ****                 continue;
 2155              		.loc 1 860 0
 2156 0048 BD42     		cmp	r5, r7
 2157 004a 00D0     		beq	.L132
 2158              	.L133:
 2159 004c FEE7     		b	.L133
 2160              	.L132:
 860:..\..\..\arduinoLCD\test\Pain Drain\libraries\lvgl\src\misc/lv_tlsf.c ****                 continue;
 2161              		.loc 1 860 0 is_stmt 0 discriminator 1
 2162 004e BD42     		cmp	r5, r7
 2163 0050 52D0     		beq	.L135
 860:..\..\..\arduinoLCD\test\Pain Drain\libraries\lvgl\src\misc/lv_tlsf.c ****                 continue;
 2164              		.loc 1 860 0 discriminator 2
 2165 0052 013C     		subs	r4, r4, #1
 2166              	.LVL284:
 861:..\..\..\arduinoLCD\test\Pain Drain\libraries\lvgl\src\misc/lv_tlsf.c ****             }
 2167              		.loc 1 861 0 is_stmt 1 discriminator 2
 2168 0054 50E0     		b	.L135
 2169              	.L131:
ARM GAS  C:\Users\haske\AppData\Local\Temp\ccswauRt.s 			page 57


 865:..\..\..\arduinoLCD\test\Pain Drain\libraries\lvgl\src\misc/lv_tlsf.c ****             tlsf_insist(block != &control->block_null && "block should not be null");
 2170              		.loc 1 865 0
 2171 0056 0029     		cmp	r1, #0
 2172 0058 00D1     		bne	.L136
 2173              	.L137:
 2174 005a FEE7     		b	.L137
 2175              	.L136:
 865:..\..\..\arduinoLCD\test\Pain Drain\libraries\lvgl\src\misc/lv_tlsf.c ****             tlsf_insist(block != &control->block_null && "block should not be null");
 2176              		.loc 1 865 0 is_stmt 0 discriminator 1
 2177 005c 0029     		cmp	r1, #0
 2178 005e 00D1     		bne	.L138
 865:..\..\..\arduinoLCD\test\Pain Drain\libraries\lvgl\src\misc/lv_tlsf.c ****             tlsf_insist(block != &control->block_null && "block should not be null");
 2179              		.loc 1 865 0 discriminator 2
 2180 0060 013C     		subs	r4, r4, #1
 2181              	.LVL285:
 2182              	.L138:
 866:..\..\..\arduinoLCD\test\Pain Drain\libraries\lvgl\src\misc/lv_tlsf.c **** 
 2183              		.loc 1 866 0 is_stmt 1
 2184 0062 BA46     		mov	r10, r7
 2185 0064 BD42     		cmp	r5, r7
 2186 0066 00D1     		bne	.L139
 2187              	.LVL286:
 2188              	.L140:
 2189 0068 FEE7     		b	.L140
 2190              	.L139:
 866:..\..\..\arduinoLCD\test\Pain Drain\libraries\lvgl\src\misc/lv_tlsf.c **** 
 2191              		.loc 1 866 0 is_stmt 0 discriminator 1
 2192 006a BD42     		cmp	r5, r7
 2193 006c 42D1     		bne	.L142
 866:..\..\..\arduinoLCD\test\Pain Drain\libraries\lvgl\src\misc/lv_tlsf.c **** 
 2194              		.loc 1 866 0 discriminator 2
 2195 006e 013C     		subs	r4, r4, #1
 2196              	.LVL287:
 2197 0070 40E0     		b	.L142
 2198              	.LVL288:
 2199              	.L162:
 2200              	.LBB10:
 870:..\..\..\arduinoLCD\test\Pain Drain\libraries\lvgl\src\misc/lv_tlsf.c ****                 tlsf_insist(!block_is_prev_free(block) && "blocks should have coalesced");
 2201              		.loc 1 870 0 is_stmt 1
 2202 0072 2800     		movs	r0, r5
 2203 0074 FFF7FEFF 		bl	block_is_free
 2204              	.LVL289:
 2205 0078 0028     		cmp	r0, #0
 2206 007a 00D1     		bne	.L143
 2207              	.L144:
 2208 007c FEE7     		b	.L144
 2209              	.L143:
 870:..\..\..\arduinoLCD\test\Pain Drain\libraries\lvgl\src\misc/lv_tlsf.c ****                 tlsf_insist(!block_is_prev_free(block) && "blocks should have coalesced");
 2210              		.loc 1 870 0 is_stmt 0 discriminator 2
 2211 007e 0028     		cmp	r0, #0
 2212 0080 00D1     		bne	.L145
 870:..\..\..\arduinoLCD\test\Pain Drain\libraries\lvgl\src\misc/lv_tlsf.c ****                 tlsf_insist(!block_is_prev_free(block) && "blocks should have coalesced");
 2213              		.loc 1 870 0 discriminator 5
 2214 0082 013C     		subs	r4, r4, #1
 2215              	.LVL290:
 2216              	.L145:
 871:..\..\..\arduinoLCD\test\Pain Drain\libraries\lvgl\src\misc/lv_tlsf.c ****                 tlsf_insist(!block_is_free(block_next(block)) && "blocks should have coalesced");
ARM GAS  C:\Users\haske\AppData\Local\Temp\ccswauRt.s 			page 58


 2217              		.loc 1 871 0 is_stmt 1
 2218 0084 2800     		movs	r0, r5
 2219 0086 FFF7FEFF 		bl	block_is_prev_free
 2220              	.LVL291:
 2221 008a 0028     		cmp	r0, #0
 2222 008c 00D0     		beq	.L146
 2223              	.L147:
 2224 008e FEE7     		b	.L147
 2225              	.L146:
 871:..\..\..\arduinoLCD\test\Pain Drain\libraries\lvgl\src\misc/lv_tlsf.c ****                 tlsf_insist(!block_is_free(block_next(block)) && "blocks should have coalesced");
 2226              		.loc 1 871 0 is_stmt 0 discriminator 1
 2227 0090 0028     		cmp	r0, #0
 2228 0092 00D0     		beq	.L148
 871:..\..\..\arduinoLCD\test\Pain Drain\libraries\lvgl\src\misc/lv_tlsf.c ****                 tlsf_insist(!block_is_free(block_next(block)) && "blocks should have coalesced");
 2229              		.loc 1 871 0 discriminator 2
 2230 0094 013C     		subs	r4, r4, #1
 2231              	.LVL292:
 2232              	.L148:
 872:..\..\..\arduinoLCD\test\Pain Drain\libraries\lvgl\src\misc/lv_tlsf.c ****                 tlsf_insist(block_is_prev_free(block_next(block)) && "block should be free");
 2233              		.loc 1 872 0 is_stmt 1
 2234 0096 2800     		movs	r0, r5
 2235 0098 FFF7FEFF 		bl	block_next
 2236              	.LVL293:
 2237 009c 0190     		str	r0, [sp, #4]
 2238 009e FFF7FEFF 		bl	block_is_free
 2239              	.LVL294:
 2240 00a2 0028     		cmp	r0, #0
 2241 00a4 00D0     		beq	.L149
 2242              	.L150:
 2243 00a6 FEE7     		b	.L150
 2244              	.L149:
 872:..\..\..\arduinoLCD\test\Pain Drain\libraries\lvgl\src\misc/lv_tlsf.c ****                 tlsf_insist(block_is_prev_free(block_next(block)) && "block should be free");
 2245              		.loc 1 872 0 is_stmt 0 discriminator 1
 2246 00a8 0028     		cmp	r0, #0
 2247 00aa 00D0     		beq	.L151
 872:..\..\..\arduinoLCD\test\Pain Drain\libraries\lvgl\src\misc/lv_tlsf.c ****                 tlsf_insist(block_is_prev_free(block_next(block)) && "block should be free");
 2248              		.loc 1 872 0 discriminator 2
 2249 00ac 013C     		subs	r4, r4, #1
 2250              	.LVL295:
 2251              	.L151:
 873:..\..\..\arduinoLCD\test\Pain Drain\libraries\lvgl\src\misc/lv_tlsf.c ****                 tlsf_insist(block_size(block) >= block_size_min && "block not minimum size");
 2252              		.loc 1 873 0 is_stmt 1
 2253 00ae 0198     		ldr	r0, [sp, #4]
 2254 00b0 FFF7FEFF 		bl	block_is_prev_free
 2255              	.LVL296:
 2256 00b4 0028     		cmp	r0, #0
 2257 00b6 00D1     		bne	.L152
 2258              	.L153:
 2259 00b8 FEE7     		b	.L153
 2260              	.L152:
 873:..\..\..\arduinoLCD\test\Pain Drain\libraries\lvgl\src\misc/lv_tlsf.c ****                 tlsf_insist(block_size(block) >= block_size_min && "block not minimum size");
 2261              		.loc 1 873 0 is_stmt 0 discriminator 2
 2262 00ba 0028     		cmp	r0, #0
 2263 00bc 00D1     		bne	.L154
 873:..\..\..\arduinoLCD\test\Pain Drain\libraries\lvgl\src\misc/lv_tlsf.c ****                 tlsf_insist(block_size(block) >= block_size_min && "block not minimum size");
 2264              		.loc 1 873 0 discriminator 5
 2265 00be 013C     		subs	r4, r4, #1
ARM GAS  C:\Users\haske\AppData\Local\Temp\ccswauRt.s 			page 59


 2266              	.LVL297:
 2267              	.L154:
 874:..\..\..\arduinoLCD\test\Pain Drain\libraries\lvgl\src\misc/lv_tlsf.c **** 
 2268              		.loc 1 874 0 is_stmt 1
 2269 00c0 2800     		movs	r0, r5
 2270 00c2 FFF7FEFF 		bl	block_size
 2271              	.LVL298:
 2272 00c6 0B28     		cmp	r0, #11
 2273 00c8 00D8     		bhi	.L155
 2274              	.L156:
 2275 00ca FEE7     		b	.L156
 2276              	.L155:
 874:..\..\..\arduinoLCD\test\Pain Drain\libraries\lvgl\src\misc/lv_tlsf.c **** 
 2277              		.loc 1 874 0 is_stmt 0 discriminator 2
 2278 00cc 0B28     		cmp	r0, #11
 2279 00ce 00D8     		bhi	.L157
 874:..\..\..\arduinoLCD\test\Pain Drain\libraries\lvgl\src\misc/lv_tlsf.c **** 
 2280              		.loc 1 874 0 discriminator 5
 2281 00d0 013C     		subs	r4, r4, #1
 2282              	.LVL299:
 2283              	.L157:
 876:..\..\..\arduinoLCD\test\Pain Drain\libraries\lvgl\src\misc/lv_tlsf.c ****                 tlsf_insist(fli == i && sli == j && "block size indexed in wrong list");
 2284              		.loc 1 876 0 is_stmt 1
 2285 00d2 03AA     		add	r2, sp, #12
 2286 00d4 02A9     		add	r1, sp, #8
 2287 00d6 FFF7FEFF 		bl	mapping_insert
 2288              	.LVL300:
 877:..\..\..\arduinoLCD\test\Pain Drain\libraries\lvgl\src\misc/lv_tlsf.c ****                 block = block->next_free;
 2289              		.loc 1 877 0
 2290 00da 029A     		ldr	r2, [sp, #8]
 2291 00dc 9642     		cmp	r6, r2
 2292 00de 02D1     		bne	.L158
 877:..\..\..\arduinoLCD\test\Pain Drain\libraries\lvgl\src\misc/lv_tlsf.c ****                 block = block->next_free;
 2293              		.loc 1 877 0 is_stmt 0 discriminator 1
 2294 00e0 039B     		ldr	r3, [sp, #12]
 2295 00e2 9945     		cmp	r9, r3
 2296 00e4 00D0     		beq	.L159
 2297              	.L158:
 2298 00e6 FEE7     		b	.L158
 2299              	.L159:
 877:..\..\..\arduinoLCD\test\Pain Drain\libraries\lvgl\src\misc/lv_tlsf.c ****                 block = block->next_free;
 2300              		.loc 1 877 0 discriminator 2
 2301 00e8 9642     		cmp	r6, r2
 2302 00ea 01D1     		bne	.L160
 877:..\..\..\arduinoLCD\test\Pain Drain\libraries\lvgl\src\misc/lv_tlsf.c ****                 block = block->next_free;
 2303              		.loc 1 877 0 discriminator 4
 2304 00ec 9945     		cmp	r9, r3
 2305 00ee 00D0     		beq	.L161
 2306              	.L160:
 877:..\..\..\arduinoLCD\test\Pain Drain\libraries\lvgl\src\misc/lv_tlsf.c ****                 block = block->next_free;
 2307              		.loc 1 877 0 discriminator 5
 2308 00f0 013C     		subs	r4, r4, #1
 2309              	.LVL301:
 2310              	.L161:
 878:..\..\..\arduinoLCD\test\Pain Drain\libraries\lvgl\src\misc/lv_tlsf.c ****             }
 2311              		.loc 1 878 0 is_stmt 1
 2312 00f2 AD68     		ldr	r5, [r5, #8]
ARM GAS  C:\Users\haske\AppData\Local\Temp\ccswauRt.s 			page 60


 2313              	.LVL302:
 2314              	.L142:
 2315              	.LBE10:
 868:..\..\..\arduinoLCD\test\Pain Drain\libraries\lvgl\src\misc/lv_tlsf.c ****                 int fli, sli;
 2316              		.loc 1 868 0
 2317 00f4 5545     		cmp	r5, r10
 2318 00f6 BCD1     		bne	.L162
 2319              	.L135:
 2320              	.LBE9:
 848:..\..\..\arduinoLCD\test\Pain Drain\libraries\lvgl\src\misc/lv_tlsf.c ****             const int fl_map = control->fl_bitmap & (1U << i);
 2321              		.loc 1 848 0 discriminator 2
 2322 00f8 0123     		movs	r3, #1
 2323 00fa 9C46     		mov	ip, r3
 2324 00fc E144     		add	r9, r9, ip
 2325              	.LVL303:
 2326 00fe 01E0     		b	.L164
 2327              	.LVL304:
 2328              	.L165:
 2329 0100 0023     		movs	r3, #0
 2330 0102 9946     		mov	r9, r3
 2331              	.L164:
 2332              	.LVL305:
 848:..\..\..\arduinoLCD\test\Pain Drain\libraries\lvgl\src\misc/lv_tlsf.c ****             const int fl_map = control->fl_bitmap & (1U << i);
 2333              		.loc 1 848 0 is_stmt 0 discriminator 1
 2334 0104 4B46     		mov	r3, r9
 2335 0106 1F2B     		cmp	r3, #31
 2336 0108 83DD     		ble	.L163
 847:..\..\..\arduinoLCD\test\Pain Drain\libraries\lvgl\src\misc/lv_tlsf.c ****         for(j = 0; j < SL_INDEX_COUNT; ++j) {
 2337              		.loc 1 847 0 is_stmt 1 discriminator 2
 2338 010a 0136     		adds	r6, r6, #1
 2339              	.LVL306:
 2340              	.L127:
 847:..\..\..\arduinoLCD\test\Pain Drain\libraries\lvgl\src\misc/lv_tlsf.c ****         for(j = 0; j < SL_INDEX_COUNT; ++j) {
 2341              		.loc 1 847 0 is_stmt 0 discriminator 1
 2342 010c 092E     		cmp	r6, #9
 2343 010e F7DD     		ble	.L165
 884:..\..\..\arduinoLCD\test\Pain Drain\libraries\lvgl\src\misc/lv_tlsf.c **** 
 2344              		.loc 1 884 0 is_stmt 1
 2345 0110 2000     		movs	r0, r4
 2346 0112 05B0     		add	sp, sp, #20
 2347              		@ sp needed
 2348              	.LVL307:
 2349              	.LVL308:
 2350              	.LVL309:
 2351 0114 0CBC     		pop	{r2, r3}
 2352 0116 9146     		mov	r9, r2
 2353 0118 9A46     		mov	r10, r3
 2354 011a F0BD     		pop	{r4, r5, r6, r7, pc}
 2355              		.cfi_endproc
 2356              	.LFE43:
 2357              		.size	lv_tlsf_check, .-lv_tlsf_check
 2358              		.section	.text.lv_tlsf_walk_pool,"ax",%progbits
 2359              		.align	2
 2360              		.global	lv_tlsf_walk_pool
 2361              		.code	16
 2362              		.thumb_func
 2363              		.type	lv_tlsf_walk_pool, %function
ARM GAS  C:\Users\haske\AppData\Local\Temp\ccswauRt.s 			page 61


 2364              	lv_tlsf_walk_pool:
 2365              	.LFB45:
 893:..\..\..\arduinoLCD\test\Pain Drain\libraries\lvgl\src\misc/lv_tlsf.c **** 
 894:..\..\..\arduinoLCD\test\Pain Drain\libraries\lvgl\src\misc/lv_tlsf.c **** void lv_tlsf_walk_pool(lv_pool_t pool, lv_tlsf_walker walker, void * user)
 895:..\..\..\arduinoLCD\test\Pain Drain\libraries\lvgl\src\misc/lv_tlsf.c **** {
 2366              		.loc 1 895 0
 2367              		.cfi_startproc
 2368              		@ args = 0, pretend = 0, frame = 8
 2369              		@ frame_needed = 0, uses_anonymous_args = 0
 2370              	.LVL310:
 2371 0000 F0B5     		push	{r4, r5, r6, r7, lr}
 2372              		.cfi_def_cfa_offset 20
 2373              		.cfi_offset 4, -20
 2374              		.cfi_offset 5, -16
 2375              		.cfi_offset 6, -12
 2376              		.cfi_offset 7, -8
 2377              		.cfi_offset 14, -4
 2378 0002 83B0     		sub	sp, sp, #12
 2379              		.cfi_def_cfa_offset 32
 2380 0004 0F1E     		subs	r7, r1, #0
 2381 0006 0192     		str	r2, [sp, #4]
 896:..\..\..\arduinoLCD\test\Pain Drain\libraries\lvgl\src\misc/lv_tlsf.c ****     lv_tlsf_walker pool_walker = walker ? walker : default_walker;
 2382              		.loc 1 896 0
 2383 0008 00D1     		bne	.L167
 2384 000a 124F     		ldr	r7, .L171
 2385              	.L167:
 2386              	.LVL311:
 897:..\..\..\arduinoLCD\test\Pain Drain\libraries\lvgl\src\misc/lv_tlsf.c ****     block_header_t * block =
 2387              		.loc 1 897 0 discriminator 4
 2388 000c 0421     		movs	r1, #4
 2389              	.LVL312:
 2390 000e 4942     		rsbs	r1, r1, #0
 2391 0010 FFF7FEFF 		bl	offset_to_block
 2392              	.LVL313:
 2393 0014 0400     		movs	r4, r0
 2394              	.LVL314:
 898:..\..\..\arduinoLCD\test\Pain Drain\libraries\lvgl\src\misc/lv_tlsf.c ****         offset_to_block(pool, -(int)block_header_overhead);
 899:..\..\..\arduinoLCD\test\Pain Drain\libraries\lvgl\src\misc/lv_tlsf.c **** 
 900:..\..\..\arduinoLCD\test\Pain Drain\libraries\lvgl\src\misc/lv_tlsf.c ****     while(block && !block_is_last(block)) {
 2395              		.loc 1 900 0 discriminator 4
 2396 0016 14E0     		b	.L168
 2397              	.LVL315:
 2398              	.L170:
 901:..\..\..\arduinoLCD\test\Pain Drain\libraries\lvgl\src\misc/lv_tlsf.c ****         pool_walker(
 2399              		.loc 1 901 0
 2400 0018 2000     		movs	r0, r4
 2401 001a FFF7FEFF 		bl	block_to_ptr
 2402              	.LVL316:
 2403 001e 0500     		movs	r5, r0
 2404 0020 2000     		movs	r0, r4
 2405 0022 FFF7FEFF 		bl	block_size
 2406              	.LVL317:
 2407 0026 0600     		movs	r6, r0
 902:..\..\..\arduinoLCD\test\Pain Drain\libraries\lvgl\src\misc/lv_tlsf.c ****             block_to_ptr(block),
 903:..\..\..\arduinoLCD\test\Pain Drain\libraries\lvgl\src\misc/lv_tlsf.c ****             block_size(block),
 904:..\..\..\arduinoLCD\test\Pain Drain\libraries\lvgl\src\misc/lv_tlsf.c ****             !block_is_free(block),
 2408              		.loc 1 904 0
ARM GAS  C:\Users\haske\AppData\Local\Temp\ccswauRt.s 			page 62


 2409 0028 2000     		movs	r0, r4
 2410 002a FFF7FEFF 		bl	block_is_free
 2411              	.LVL318:
 901:..\..\..\arduinoLCD\test\Pain Drain\libraries\lvgl\src\misc/lv_tlsf.c ****         pool_walker(
 2412              		.loc 1 901 0
 2413 002e 4242     		rsbs	r2, r0, #0
 2414 0030 4241     		adcs	r2, r2, r0
 2415 0032 019B     		ldr	r3, [sp, #4]
 2416 0034 3100     		movs	r1, r6
 2417 0036 2800     		movs	r0, r5
 2418 0038 B847     		blx	r7
 2419              	.LVL319:
 905:..\..\..\arduinoLCD\test\Pain Drain\libraries\lvgl\src\misc/lv_tlsf.c ****             user);
 906:..\..\..\arduinoLCD\test\Pain Drain\libraries\lvgl\src\misc/lv_tlsf.c ****         block = block_next(block);
 2420              		.loc 1 906 0
 2421 003a 2000     		movs	r0, r4
 2422 003c FFF7FEFF 		bl	block_next
 2423              	.LVL320:
 2424 0040 0400     		movs	r4, r0
 2425              	.LVL321:
 2426              	.L168:
 900:..\..\..\arduinoLCD\test\Pain Drain\libraries\lvgl\src\misc/lv_tlsf.c ****         pool_walker(
 2427              		.loc 1 900 0
 2428 0042 002C     		cmp	r4, #0
 2429 0044 04D0     		beq	.L166
 900:..\..\..\arduinoLCD\test\Pain Drain\libraries\lvgl\src\misc/lv_tlsf.c ****         pool_walker(
 2430              		.loc 1 900 0 is_stmt 0 discriminator 1
 2431 0046 2000     		movs	r0, r4
 2432 0048 FFF7FEFF 		bl	block_is_last
 2433              	.LVL322:
 2434 004c 0028     		cmp	r0, #0
 2435 004e E3D0     		beq	.L170
 2436              	.L166:
 907:..\..\..\arduinoLCD\test\Pain Drain\libraries\lvgl\src\misc/lv_tlsf.c ****     }
 908:..\..\..\arduinoLCD\test\Pain Drain\libraries\lvgl\src\misc/lv_tlsf.c **** }
 2437              		.loc 1 908 0 is_stmt 1
 2438 0050 03B0     		add	sp, sp, #12
 2439              		@ sp needed
 2440              	.LVL323:
 2441              	.LVL324:
 2442 0052 F0BD     		pop	{r4, r5, r6, r7, pc}
 2443              	.L172:
 2444              		.align	2
 2445              	.L171:
 2446 0054 00000000 		.word	default_walker
 2447              		.cfi_endproc
 2448              	.LFE45:
 2449              		.size	lv_tlsf_walk_pool, .-lv_tlsf_walk_pool
 2450              		.section	.text.lv_tlsf_block_size,"ax",%progbits
 2451              		.align	2
 2452              		.global	lv_tlsf_block_size
 2453              		.code	16
 2454              		.thumb_func
 2455              		.type	lv_tlsf_block_size, %function
 2456              	lv_tlsf_block_size:
 2457              	.LFB46:
 909:..\..\..\arduinoLCD\test\Pain Drain\libraries\lvgl\src\misc/lv_tlsf.c **** 
ARM GAS  C:\Users\haske\AppData\Local\Temp\ccswauRt.s 			page 63


 910:..\..\..\arduinoLCD\test\Pain Drain\libraries\lvgl\src\misc/lv_tlsf.c **** size_t lv_tlsf_block_size(void * ptr)
 911:..\..\..\arduinoLCD\test\Pain Drain\libraries\lvgl\src\misc/lv_tlsf.c **** {
 2458              		.loc 1 911 0
 2459              		.cfi_startproc
 2460              		@ args = 0, pretend = 0, frame = 0
 2461              		@ frame_needed = 0, uses_anonymous_args = 0
 2462              	.LVL325:
 2463 0000 10B5     		push	{r4, lr}
 2464              		.cfi_def_cfa_offset 8
 2465              		.cfi_offset 4, -8
 2466              		.cfi_offset 14, -4
 2467              	.LVL326:
 912:..\..\..\arduinoLCD\test\Pain Drain\libraries\lvgl\src\misc/lv_tlsf.c ****     size_t size = 0;
 913:..\..\..\arduinoLCD\test\Pain Drain\libraries\lvgl\src\misc/lv_tlsf.c ****     if(ptr) {
 2468              		.loc 1 913 0
 2469 0002 0028     		cmp	r0, #0
 2470 0004 04D0     		beq	.L175
 2471              	.LBB11:
 914:..\..\..\arduinoLCD\test\Pain Drain\libraries\lvgl\src\misc/lv_tlsf.c ****         const block_header_t * block = block_from_ptr(ptr);
 2472              		.loc 1 914 0
 2473 0006 FFF7FEFF 		bl	block_from_ptr
 2474              	.LVL327:
 915:..\..\..\arduinoLCD\test\Pain Drain\libraries\lvgl\src\misc/lv_tlsf.c ****         size = block_size(block);
 2475              		.loc 1 915 0
 2476 000a FFF7FEFF 		bl	block_size
 2477              	.LVL328:
 2478 000e 00E0     		b	.L174
 2479              	.LVL329:
 2480              	.L175:
 2481              	.LBE11:
 912:..\..\..\arduinoLCD\test\Pain Drain\libraries\lvgl\src\misc/lv_tlsf.c ****     size_t size = 0;
 2482              		.loc 1 912 0
 2483 0010 0020     		movs	r0, #0
 2484              	.LVL330:
 2485              	.L174:
 916:..\..\..\arduinoLCD\test\Pain Drain\libraries\lvgl\src\misc/lv_tlsf.c ****     }
 917:..\..\..\arduinoLCD\test\Pain Drain\libraries\lvgl\src\misc/lv_tlsf.c ****     return size;
 918:..\..\..\arduinoLCD\test\Pain Drain\libraries\lvgl\src\misc/lv_tlsf.c **** }
 2486              		.loc 1 918 0
 2487              		@ sp needed
 2488 0012 10BD     		pop	{r4, pc}
 2489              		.cfi_endproc
 2490              	.LFE46:
 2491              		.size	lv_tlsf_block_size, .-lv_tlsf_block_size
 2492              		.section	.text.lv_tlsf_check_pool,"ax",%progbits
 2493              		.align	2
 2494              		.global	lv_tlsf_check_pool
 2495              		.code	16
 2496              		.thumb_func
 2497              		.type	lv_tlsf_check_pool, %function
 2498              	lv_tlsf_check_pool:
 2499              	.LFB47:
 919:..\..\..\arduinoLCD\test\Pain Drain\libraries\lvgl\src\misc/lv_tlsf.c **** 
 920:..\..\..\arduinoLCD\test\Pain Drain\libraries\lvgl\src\misc/lv_tlsf.c **** int lv_tlsf_check_pool(lv_pool_t pool)
 921:..\..\..\arduinoLCD\test\Pain Drain\libraries\lvgl\src\misc/lv_tlsf.c **** {
 2500              		.loc 1 921 0
 2501              		.cfi_startproc
ARM GAS  C:\Users\haske\AppData\Local\Temp\ccswauRt.s 			page 64


 2502              		@ args = 0, pretend = 0, frame = 8
 2503              		@ frame_needed = 0, uses_anonymous_args = 0
 2504              	.LVL331:
 2505 0000 00B5     		push	{lr}
 2506              		.cfi_def_cfa_offset 4
 2507              		.cfi_offset 14, -4
 2508 0002 83B0     		sub	sp, sp, #12
 2509              		.cfi_def_cfa_offset 16
 922:..\..\..\arduinoLCD\test\Pain Drain\libraries\lvgl\src\misc/lv_tlsf.c ****     /* Check that the blocks are physically correct. */
 923:..\..\..\arduinoLCD\test\Pain Drain\libraries\lvgl\src\misc/lv_tlsf.c ****     integrity_t integ = { 0, 0 };
 2510              		.loc 1 923 0
 2511 0004 0023     		movs	r3, #0
 2512 0006 0093     		str	r3, [sp]
 2513 0008 0193     		str	r3, [sp, #4]
 924:..\..\..\arduinoLCD\test\Pain Drain\libraries\lvgl\src\misc/lv_tlsf.c ****     lv_tlsf_walk_pool(pool, integrity_walker, &integ);
 2514              		.loc 1 924 0
 2515 000a 6A46     		mov	r2, sp
 2516 000c 0249     		ldr	r1, .L177
 2517 000e FFF7FEFF 		bl	lv_tlsf_walk_pool
 2518              	.LVL332:
 925:..\..\..\arduinoLCD\test\Pain Drain\libraries\lvgl\src\misc/lv_tlsf.c **** 
 926:..\..\..\arduinoLCD\test\Pain Drain\libraries\lvgl\src\misc/lv_tlsf.c ****     return integ.status;
 2519              		.loc 1 926 0
 2520 0012 0198     		ldr	r0, [sp, #4]
 927:..\..\..\arduinoLCD\test\Pain Drain\libraries\lvgl\src\misc/lv_tlsf.c **** }
 2521              		.loc 1 927 0
 2522 0014 03B0     		add	sp, sp, #12
 2523              		@ sp needed
 2524 0016 00BD     		pop	{pc}
 2525              	.L178:
 2526              		.align	2
 2527              	.L177:
 2528 0018 00000000 		.word	integrity_walker
 2529              		.cfi_endproc
 2530              	.LFE47:
 2531              		.size	lv_tlsf_check_pool, .-lv_tlsf_check_pool
 2532              		.section	.text.lv_tlsf_size,"ax",%progbits
 2533              		.align	2
 2534              		.global	lv_tlsf_size
 2535              		.code	16
 2536              		.thumb_func
 2537              		.type	lv_tlsf_size, %function
 2538              	lv_tlsf_size:
 2539              	.LFB48:
 928:..\..\..\arduinoLCD\test\Pain Drain\libraries\lvgl\src\misc/lv_tlsf.c **** 
 929:..\..\..\arduinoLCD\test\Pain Drain\libraries\lvgl\src\misc/lv_tlsf.c **** /*
 930:..\..\..\arduinoLCD\test\Pain Drain\libraries\lvgl\src\misc/lv_tlsf.c **** ** Size of the TLSF structures in a given memory block passed to
 931:..\..\..\arduinoLCD\test\Pain Drain\libraries\lvgl\src\misc/lv_tlsf.c **** ** lv_tlsf_create, equal to the size of a control_t
 932:..\..\..\arduinoLCD\test\Pain Drain\libraries\lvgl\src\misc/lv_tlsf.c **** */
 933:..\..\..\arduinoLCD\test\Pain Drain\libraries\lvgl\src\misc/lv_tlsf.c **** size_t lv_tlsf_size(void)
 934:..\..\..\arduinoLCD\test\Pain Drain\libraries\lvgl\src\misc/lv_tlsf.c **** {
 2540              		.loc 1 934 0
 2541              		.cfi_startproc
 2542              		@ args = 0, pretend = 0, frame = 0
 2543              		@ frame_needed = 0, uses_anonymous_args = 0
 2544              		@ link register save eliminated.
 935:..\..\..\arduinoLCD\test\Pain Drain\libraries\lvgl\src\misc/lv_tlsf.c ****     return sizeof(control_t);
ARM GAS  C:\Users\haske\AppData\Local\Temp\ccswauRt.s 			page 65


 936:..\..\..\arduinoLCD\test\Pain Drain\libraries\lvgl\src\misc/lv_tlsf.c **** }
 2545              		.loc 1 936 0
 2546 0000 0048     		ldr	r0, .L180
 2547              		@ sp needed
 2548 0002 7047     		bx	lr
 2549              	.L181:
 2550              		.align	2
 2551              	.L180:
 2552 0004 3C050000 		.word	1340
 2553              		.cfi_endproc
 2554              	.LFE48:
 2555              		.size	lv_tlsf_size, .-lv_tlsf_size
 2556              		.section	.text.lv_tlsf_align_size,"ax",%progbits
 2557              		.align	2
 2558              		.global	lv_tlsf_align_size
 2559              		.code	16
 2560              		.thumb_func
 2561              		.type	lv_tlsf_align_size, %function
 2562              	lv_tlsf_align_size:
 2563              	.LFB49:
 937:..\..\..\arduinoLCD\test\Pain Drain\libraries\lvgl\src\misc/lv_tlsf.c **** 
 938:..\..\..\arduinoLCD\test\Pain Drain\libraries\lvgl\src\misc/lv_tlsf.c **** size_t lv_tlsf_align_size(void)
 939:..\..\..\arduinoLCD\test\Pain Drain\libraries\lvgl\src\misc/lv_tlsf.c **** {
 2564              		.loc 1 939 0
 2565              		.cfi_startproc
 2566              		@ args = 0, pretend = 0, frame = 0
 2567              		@ frame_needed = 0, uses_anonymous_args = 0
 2568              		@ link register save eliminated.
 940:..\..\..\arduinoLCD\test\Pain Drain\libraries\lvgl\src\misc/lv_tlsf.c ****     return ALIGN_SIZE;
 941:..\..\..\arduinoLCD\test\Pain Drain\libraries\lvgl\src\misc/lv_tlsf.c **** }
 2569              		.loc 1 941 0
 2570 0000 0420     		movs	r0, #4
 2571              		@ sp needed
 2572 0002 7047     		bx	lr
 2573              		.cfi_endproc
 2574              	.LFE49:
 2575              		.size	lv_tlsf_align_size, .-lv_tlsf_align_size
 2576              		.section	.text.lv_tlsf_block_size_min,"ax",%progbits
 2577              		.align	2
 2578              		.global	lv_tlsf_block_size_min
 2579              		.code	16
 2580              		.thumb_func
 2581              		.type	lv_tlsf_block_size_min, %function
 2582              	lv_tlsf_block_size_min:
 2583              	.LFB50:
 942:..\..\..\arduinoLCD\test\Pain Drain\libraries\lvgl\src\misc/lv_tlsf.c **** 
 943:..\..\..\arduinoLCD\test\Pain Drain\libraries\lvgl\src\misc/lv_tlsf.c **** size_t lv_tlsf_block_size_min(void)
 944:..\..\..\arduinoLCD\test\Pain Drain\libraries\lvgl\src\misc/lv_tlsf.c **** {
 2584              		.loc 1 944 0
 2585              		.cfi_startproc
 2586              		@ args = 0, pretend = 0, frame = 0
 2587              		@ frame_needed = 0, uses_anonymous_args = 0
 2588              		@ link register save eliminated.
 945:..\..\..\arduinoLCD\test\Pain Drain\libraries\lvgl\src\misc/lv_tlsf.c ****     return block_size_min;
 946:..\..\..\arduinoLCD\test\Pain Drain\libraries\lvgl\src\misc/lv_tlsf.c **** }
 2589              		.loc 1 946 0
 2590 0000 0C20     		movs	r0, #12
ARM GAS  C:\Users\haske\AppData\Local\Temp\ccswauRt.s 			page 66


 2591              		@ sp needed
 2592 0002 7047     		bx	lr
 2593              		.cfi_endproc
 2594              	.LFE50:
 2595              		.size	lv_tlsf_block_size_min, .-lv_tlsf_block_size_min
 2596              		.section	.text.lv_tlsf_block_size_max,"ax",%progbits
 2597              		.align	2
 2598              		.global	lv_tlsf_block_size_max
 2599              		.code	16
 2600              		.thumb_func
 2601              		.type	lv_tlsf_block_size_max, %function
 2602              	lv_tlsf_block_size_max:
 2603              	.LFB51:
 947:..\..\..\arduinoLCD\test\Pain Drain\libraries\lvgl\src\misc/lv_tlsf.c **** 
 948:..\..\..\arduinoLCD\test\Pain Drain\libraries\lvgl\src\misc/lv_tlsf.c **** size_t lv_tlsf_block_size_max(void)
 949:..\..\..\arduinoLCD\test\Pain Drain\libraries\lvgl\src\misc/lv_tlsf.c **** {
 2604              		.loc 1 949 0
 2605              		.cfi_startproc
 2606              		@ args = 0, pretend = 0, frame = 0
 2607              		@ frame_needed = 0, uses_anonymous_args = 0
 2608              		@ link register save eliminated.
 950:..\..\..\arduinoLCD\test\Pain Drain\libraries\lvgl\src\misc/lv_tlsf.c ****     return block_size_max;
 951:..\..\..\arduinoLCD\test\Pain Drain\libraries\lvgl\src\misc/lv_tlsf.c **** }
 2609              		.loc 1 951 0
 2610 0000 8020     		movs	r0, #128
 2611 0002 4002     		lsls	r0, r0, #9
 2612              		@ sp needed
 2613 0004 7047     		bx	lr
 2614              		.cfi_endproc
 2615              	.LFE51:
 2616              		.size	lv_tlsf_block_size_max, .-lv_tlsf_block_size_max
 2617 0006 C046     		.section	.text.lv_tlsf_pool_overhead,"ax",%progbits
 2618              		.align	2
 2619              		.global	lv_tlsf_pool_overhead
 2620              		.code	16
 2621              		.thumb_func
 2622              		.type	lv_tlsf_pool_overhead, %function
 2623              	lv_tlsf_pool_overhead:
 2624              	.LFB52:
 952:..\..\..\arduinoLCD\test\Pain Drain\libraries\lvgl\src\misc/lv_tlsf.c **** 
 953:..\..\..\arduinoLCD\test\Pain Drain\libraries\lvgl\src\misc/lv_tlsf.c **** /*
 954:..\..\..\arduinoLCD\test\Pain Drain\libraries\lvgl\src\misc/lv_tlsf.c **** ** Overhead of the TLSF structures in a given memory block passed to
 955:..\..\..\arduinoLCD\test\Pain Drain\libraries\lvgl\src\misc/lv_tlsf.c **** ** lv_tlsf_add_pool, equal to the overhead of a free block and the
 956:..\..\..\arduinoLCD\test\Pain Drain\libraries\lvgl\src\misc/lv_tlsf.c **** ** sentinel block.
 957:..\..\..\arduinoLCD\test\Pain Drain\libraries\lvgl\src\misc/lv_tlsf.c **** */
 958:..\..\..\arduinoLCD\test\Pain Drain\libraries\lvgl\src\misc/lv_tlsf.c **** size_t lv_tlsf_pool_overhead(void)
 959:..\..\..\arduinoLCD\test\Pain Drain\libraries\lvgl\src\misc/lv_tlsf.c **** {
 2625              		.loc 1 959 0
 2626              		.cfi_startproc
 2627              		@ args = 0, pretend = 0, frame = 0
 2628              		@ frame_needed = 0, uses_anonymous_args = 0
 2629              		@ link register save eliminated.
 960:..\..\..\arduinoLCD\test\Pain Drain\libraries\lvgl\src\misc/lv_tlsf.c ****     return 2 * block_header_overhead;
 961:..\..\..\arduinoLCD\test\Pain Drain\libraries\lvgl\src\misc/lv_tlsf.c **** }
 2630              		.loc 1 961 0
 2631 0000 0820     		movs	r0, #8
 2632              		@ sp needed
ARM GAS  C:\Users\haske\AppData\Local\Temp\ccswauRt.s 			page 67


 2633 0002 7047     		bx	lr
 2634              		.cfi_endproc
 2635              	.LFE52:
 2636              		.size	lv_tlsf_pool_overhead, .-lv_tlsf_pool_overhead
 2637              		.section	.text.lv_tlsf_alloc_overhead,"ax",%progbits
 2638              		.align	2
 2639              		.global	lv_tlsf_alloc_overhead
 2640              		.code	16
 2641              		.thumb_func
 2642              		.type	lv_tlsf_alloc_overhead, %function
 2643              	lv_tlsf_alloc_overhead:
 2644              	.LFB53:
 962:..\..\..\arduinoLCD\test\Pain Drain\libraries\lvgl\src\misc/lv_tlsf.c **** 
 963:..\..\..\arduinoLCD\test\Pain Drain\libraries\lvgl\src\misc/lv_tlsf.c **** size_t lv_tlsf_alloc_overhead(void)
 964:..\..\..\arduinoLCD\test\Pain Drain\libraries\lvgl\src\misc/lv_tlsf.c **** {
 2645              		.loc 1 964 0
 2646              		.cfi_startproc
 2647              		@ args = 0, pretend = 0, frame = 0
 2648              		@ frame_needed = 0, uses_anonymous_args = 0
 2649              		@ link register save eliminated.
 965:..\..\..\arduinoLCD\test\Pain Drain\libraries\lvgl\src\misc/lv_tlsf.c ****     return block_header_overhead;
 966:..\..\..\arduinoLCD\test\Pain Drain\libraries\lvgl\src\misc/lv_tlsf.c **** }
 2650              		.loc 1 966 0
 2651 0000 0420     		movs	r0, #4
 2652              		@ sp needed
 2653 0002 7047     		bx	lr
 2654              		.cfi_endproc
 2655              	.LFE53:
 2656              		.size	lv_tlsf_alloc_overhead, .-lv_tlsf_alloc_overhead
 2657              		.section	.text.lv_tlsf_add_pool,"ax",%progbits
 2658              		.align	2
 2659              		.global	lv_tlsf_add_pool
 2660              		.code	16
 2661              		.thumb_func
 2662              		.type	lv_tlsf_add_pool, %function
 2663              	lv_tlsf_add_pool:
 2664              	.LFB54:
 967:..\..\..\arduinoLCD\test\Pain Drain\libraries\lvgl\src\misc/lv_tlsf.c **** 
 968:..\..\..\arduinoLCD\test\Pain Drain\libraries\lvgl\src\misc/lv_tlsf.c **** lv_pool_t lv_tlsf_add_pool(lv_tlsf_t tlsf, void * mem, size_t bytes)
 969:..\..\..\arduinoLCD\test\Pain Drain\libraries\lvgl\src\misc/lv_tlsf.c **** {
 2665              		.loc 1 969 0
 2666              		.cfi_startproc
 2667              		@ args = 0, pretend = 0, frame = 0
 2668              		@ frame_needed = 0, uses_anonymous_args = 0
 2669              	.LVL333:
 2670 0000 F8B5     		push	{r3, r4, r5, r6, r7, lr}
 2671              		.cfi_def_cfa_offset 24
 2672              		.cfi_offset 3, -24
 2673              		.cfi_offset 4, -20
 2674              		.cfi_offset 5, -16
 2675              		.cfi_offset 6, -12
 2676              		.cfi_offset 7, -8
 2677              		.cfi_offset 14, -4
 2678 0002 0600     		movs	r6, r0
 2679 0004 0C00     		movs	r4, r1
 2680 0006 1500     		movs	r5, r2
 970:..\..\..\arduinoLCD\test\Pain Drain\libraries\lvgl\src\misc/lv_tlsf.c ****     block_header_t * block;
ARM GAS  C:\Users\haske\AppData\Local\Temp\ccswauRt.s 			page 68


 971:..\..\..\arduinoLCD\test\Pain Drain\libraries\lvgl\src\misc/lv_tlsf.c ****     block_header_t * next;
 972:..\..\..\arduinoLCD\test\Pain Drain\libraries\lvgl\src\misc/lv_tlsf.c **** 
 973:..\..\..\arduinoLCD\test\Pain Drain\libraries\lvgl\src\misc/lv_tlsf.c ****     const size_t pool_overhead = lv_tlsf_pool_overhead();
 2681              		.loc 1 973 0
 2682 0008 FFF7FEFF 		bl	lv_tlsf_pool_overhead
 2683              	.LVL334:
 974:..\..\..\arduinoLCD\test\Pain Drain\libraries\lvgl\src\misc/lv_tlsf.c ****     const size_t pool_bytes = align_down(bytes - pool_overhead, ALIGN_SIZE);
 2684              		.loc 1 974 0
 2685 000c 281A     		subs	r0, r5, r0
 2686              	.LVL335:
 2687 000e 0421     		movs	r1, #4
 2688 0010 FFF7FEFF 		bl	align_down
 2689              	.LVL336:
 2690 0014 0700     		movs	r7, r0
 2691              	.LVL337:
 975:..\..\..\arduinoLCD\test\Pain Drain\libraries\lvgl\src\misc/lv_tlsf.c **** 
 976:..\..\..\arduinoLCD\test\Pain Drain\libraries\lvgl\src\misc/lv_tlsf.c ****     if(((ptrdiff_t)mem % ALIGN_SIZE) != 0) {
 2692              		.loc 1 976 0
 2693 0016 A307     		lsls	r3, r4, #30
 2694 0018 26D1     		bne	.L189
 977:..\..\..\arduinoLCD\test\Pain Drain\libraries\lvgl\src\misc/lv_tlsf.c ****         printf("lv_tlsf_add_pool: Memory must be aligned by %u bytes.\n",
 978:..\..\..\arduinoLCD\test\Pain Drain\libraries\lvgl\src\misc/lv_tlsf.c ****                (unsigned int)ALIGN_SIZE);
 979:..\..\..\arduinoLCD\test\Pain Drain\libraries\lvgl\src\misc/lv_tlsf.c ****         return 0;
 980:..\..\..\arduinoLCD\test\Pain Drain\libraries\lvgl\src\misc/lv_tlsf.c ****     }
 981:..\..\..\arduinoLCD\test\Pain Drain\libraries\lvgl\src\misc/lv_tlsf.c **** 
 982:..\..\..\arduinoLCD\test\Pain Drain\libraries\lvgl\src\misc/lv_tlsf.c ****     if(pool_bytes < block_size_min || pool_bytes > block_size_max) {
 2695              		.loc 1 982 0
 2696 001a 154A     		ldr	r2, .L191
 2697 001c 0300     		movs	r3, r0
 2698 001e 0C3B     		subs	r3, r3, #12
 2699 0020 9342     		cmp	r3, r2
 2700 0022 23D8     		bhi	.L190
 983:..\..\..\arduinoLCD\test\Pain Drain\libraries\lvgl\src\misc/lv_tlsf.c **** #if defined (TLSF_64BIT)
 984:..\..\..\arduinoLCD\test\Pain Drain\libraries\lvgl\src\misc/lv_tlsf.c ****         printf("lv_tlsf_add_pool: Memory size must be between 0x%x and 0x%x00 bytes.\n",
 985:..\..\..\arduinoLCD\test\Pain Drain\libraries\lvgl\src\misc/lv_tlsf.c ****                (unsigned int)(pool_overhead + block_size_min),
 986:..\..\..\arduinoLCD\test\Pain Drain\libraries\lvgl\src\misc/lv_tlsf.c ****                (unsigned int)((pool_overhead + block_size_max) / 256));
 987:..\..\..\arduinoLCD\test\Pain Drain\libraries\lvgl\src\misc/lv_tlsf.c **** #else
 988:..\..\..\arduinoLCD\test\Pain Drain\libraries\lvgl\src\misc/lv_tlsf.c ****         printf("lv_tlsf_add_pool: Memory size must be between %u and %u bytes.\n",
 989:..\..\..\arduinoLCD\test\Pain Drain\libraries\lvgl\src\misc/lv_tlsf.c ****                (unsigned int)(pool_overhead + block_size_min),
 990:..\..\..\arduinoLCD\test\Pain Drain\libraries\lvgl\src\misc/lv_tlsf.c ****                (unsigned int)(pool_overhead + block_size_max));
 991:..\..\..\arduinoLCD\test\Pain Drain\libraries\lvgl\src\misc/lv_tlsf.c **** #endif
 992:..\..\..\arduinoLCD\test\Pain Drain\libraries\lvgl\src\misc/lv_tlsf.c ****         return 0;
 993:..\..\..\arduinoLCD\test\Pain Drain\libraries\lvgl\src\misc/lv_tlsf.c ****     }
 994:..\..\..\arduinoLCD\test\Pain Drain\libraries\lvgl\src\misc/lv_tlsf.c **** 
 995:..\..\..\arduinoLCD\test\Pain Drain\libraries\lvgl\src\misc/lv_tlsf.c ****     /*
 996:..\..\..\arduinoLCD\test\Pain Drain\libraries\lvgl\src\misc/lv_tlsf.c ****     ** Create the main free block. Offset the start of the block slightly
 997:..\..\..\arduinoLCD\test\Pain Drain\libraries\lvgl\src\misc/lv_tlsf.c ****     ** so that the prev_phys_block field falls outside of the pool -
 998:..\..\..\arduinoLCD\test\Pain Drain\libraries\lvgl\src\misc/lv_tlsf.c ****     ** it will never be used.
 999:..\..\..\arduinoLCD\test\Pain Drain\libraries\lvgl\src\misc/lv_tlsf.c ****     */
1000:..\..\..\arduinoLCD\test\Pain Drain\libraries\lvgl\src\misc/lv_tlsf.c ****     block = offset_to_block(mem, -(tlsfptr_t)block_header_overhead);
 2701              		.loc 1 1000 0
 2702 0024 0421     		movs	r1, #4
 2703 0026 4942     		rsbs	r1, r1, #0
 2704 0028 2000     		movs	r0, r4
 2705              	.LVL338:
 2706 002a FFF7FEFF 		bl	offset_to_block
 2707              	.LVL339:
ARM GAS  C:\Users\haske\AppData\Local\Temp\ccswauRt.s 			page 69


 2708 002e 0500     		movs	r5, r0
 2709              	.LVL340:
1001:..\..\..\arduinoLCD\test\Pain Drain\libraries\lvgl\src\misc/lv_tlsf.c ****     block_set_size(block, pool_bytes);
 2710              		.loc 1 1001 0
 2711 0030 3900     		movs	r1, r7
 2712 0032 FFF7FEFF 		bl	block_set_size
 2713              	.LVL341:
1002:..\..\..\arduinoLCD\test\Pain Drain\libraries\lvgl\src\misc/lv_tlsf.c ****     block_set_free(block);
 2714              		.loc 1 1002 0
 2715 0036 2800     		movs	r0, r5
 2716 0038 FFF7FEFF 		bl	block_set_free
 2717              	.LVL342:
1003:..\..\..\arduinoLCD\test\Pain Drain\libraries\lvgl\src\misc/lv_tlsf.c ****     block_set_prev_used(block);
 2718              		.loc 1 1003 0
 2719 003c 2800     		movs	r0, r5
 2720 003e FFF7FEFF 		bl	block_set_prev_used
 2721              	.LVL343:
1004:..\..\..\arduinoLCD\test\Pain Drain\libraries\lvgl\src\misc/lv_tlsf.c ****     block_insert(tlsf_cast(control_t *, tlsf), block);
 2722              		.loc 1 1004 0
 2723 0042 2900     		movs	r1, r5
 2724 0044 3000     		movs	r0, r6
 2725 0046 FFF7FEFF 		bl	block_insert
 2726              	.LVL344:
1005:..\..\..\arduinoLCD\test\Pain Drain\libraries\lvgl\src\misc/lv_tlsf.c **** 
1006:..\..\..\arduinoLCD\test\Pain Drain\libraries\lvgl\src\misc/lv_tlsf.c ****     /* Split the block to create a zero-size sentinel block. */
1007:..\..\..\arduinoLCD\test\Pain Drain\libraries\lvgl\src\misc/lv_tlsf.c ****     next = block_link_next(block);
 2727              		.loc 1 1007 0
 2728 004a 2800     		movs	r0, r5
 2729 004c FFF7FEFF 		bl	block_link_next
 2730              	.LVL345:
 2731 0050 0500     		movs	r5, r0
 2732              	.LVL346:
1008:..\..\..\arduinoLCD\test\Pain Drain\libraries\lvgl\src\misc/lv_tlsf.c ****     block_set_size(next, 0);
 2733              		.loc 1 1008 0
 2734 0052 0021     		movs	r1, #0
 2735 0054 FFF7FEFF 		bl	block_set_size
 2736              	.LVL347:
1009:..\..\..\arduinoLCD\test\Pain Drain\libraries\lvgl\src\misc/lv_tlsf.c ****     block_set_used(next);
 2737              		.loc 1 1009 0
 2738 0058 2800     		movs	r0, r5
 2739 005a FFF7FEFF 		bl	block_set_used
 2740              	.LVL348:
1010:..\..\..\arduinoLCD\test\Pain Drain\libraries\lvgl\src\misc/lv_tlsf.c ****     block_set_prev_free(next);
 2741              		.loc 1 1010 0
 2742 005e 2800     		movs	r0, r5
 2743 0060 FFF7FEFF 		bl	block_set_prev_free
 2744              	.LVL349:
1011:..\..\..\arduinoLCD\test\Pain Drain\libraries\lvgl\src\misc/lv_tlsf.c **** 
1012:..\..\..\arduinoLCD\test\Pain Drain\libraries\lvgl\src\misc/lv_tlsf.c ****     return mem;
 2745              		.loc 1 1012 0
 2746 0064 2000     		movs	r0, r4
 2747 0066 02E0     		b	.L188
 2748              	.LVL350:
 2749              	.L189:
 979:..\..\..\arduinoLCD\test\Pain Drain\libraries\lvgl\src\misc/lv_tlsf.c ****     }
 2750              		.loc 1 979 0
 2751 0068 0020     		movs	r0, #0
ARM GAS  C:\Users\haske\AppData\Local\Temp\ccswauRt.s 			page 70


 2752              	.LVL351:
 2753 006a 00E0     		b	.L188
 2754              	.LVL352:
 2755              	.L190:
 992:..\..\..\arduinoLCD\test\Pain Drain\libraries\lvgl\src\misc/lv_tlsf.c ****     }
 2756              		.loc 1 992 0
 2757 006c 0020     		movs	r0, #0
 2758              	.LVL353:
 2759              	.L188:
1013:..\..\..\arduinoLCD\test\Pain Drain\libraries\lvgl\src\misc/lv_tlsf.c **** }
 2760              		.loc 1 1013 0
 2761              		@ sp needed
 2762              	.LVL354:
 2763              	.LVL355:
 2764              	.LVL356:
 2765 006e F8BD     		pop	{r3, r4, r5, r6, r7, pc}
 2766              	.L192:
 2767              		.align	2
 2768              	.L191:
 2769 0070 F4FF0000 		.word	65524
 2770              		.cfi_endproc
 2771              	.LFE54:
 2772              		.size	lv_tlsf_add_pool, .-lv_tlsf_add_pool
 2773              		.section	.text.lv_tlsf_remove_pool,"ax",%progbits
 2774              		.align	2
 2775              		.global	lv_tlsf_remove_pool
 2776              		.code	16
 2777              		.thumb_func
 2778              		.type	lv_tlsf_remove_pool, %function
 2779              	lv_tlsf_remove_pool:
 2780              	.LFB55:
1014:..\..\..\arduinoLCD\test\Pain Drain\libraries\lvgl\src\misc/lv_tlsf.c **** 
1015:..\..\..\arduinoLCD\test\Pain Drain\libraries\lvgl\src\misc/lv_tlsf.c **** void lv_tlsf_remove_pool(lv_tlsf_t tlsf, lv_pool_t pool)
1016:..\..\..\arduinoLCD\test\Pain Drain\libraries\lvgl\src\misc/lv_tlsf.c **** {
 2781              		.loc 1 1016 0
 2782              		.cfi_startproc
 2783              		@ args = 0, pretend = 0, frame = 8
 2784              		@ frame_needed = 0, uses_anonymous_args = 0
 2785              	.LVL357:
 2786 0000 70B5     		push	{r4, r5, r6, lr}
 2787              		.cfi_def_cfa_offset 16
 2788              		.cfi_offset 4, -16
 2789              		.cfi_offset 5, -12
 2790              		.cfi_offset 6, -8
 2791              		.cfi_offset 14, -4
 2792 0002 82B0     		sub	sp, sp, #8
 2793              		.cfi_def_cfa_offset 24
 2794 0004 0600     		movs	r6, r0
 2795 0006 0800     		movs	r0, r1
 2796              	.LVL358:
1017:..\..\..\arduinoLCD\test\Pain Drain\libraries\lvgl\src\misc/lv_tlsf.c ****     control_t * control = tlsf_cast(control_t *, tlsf);
1018:..\..\..\arduinoLCD\test\Pain Drain\libraries\lvgl\src\misc/lv_tlsf.c ****     block_header_t * block = offset_to_block(pool, -(int)block_header_overhead);
 2797              		.loc 1 1018 0
 2798 0008 0421     		movs	r1, #4
 2799              	.LVL359:
 2800 000a 4942     		rsbs	r1, r1, #0
 2801 000c FFF7FEFF 		bl	offset_to_block
ARM GAS  C:\Users\haske\AppData\Local\Temp\ccswauRt.s 			page 71


 2802              	.LVL360:
 2803 0010 0400     		movs	r4, r0
 2804              	.LVL361:
1019:..\..\..\arduinoLCD\test\Pain Drain\libraries\lvgl\src\misc/lv_tlsf.c **** 
1020:..\..\..\arduinoLCD\test\Pain Drain\libraries\lvgl\src\misc/lv_tlsf.c ****     int fl = 0, sl = 0;
 2805              		.loc 1 1020 0
 2806 0012 0023     		movs	r3, #0
 2807 0014 0193     		str	r3, [sp, #4]
 2808 0016 0093     		str	r3, [sp]
1021:..\..\..\arduinoLCD\test\Pain Drain\libraries\lvgl\src\misc/lv_tlsf.c **** 
1022:..\..\..\arduinoLCD\test\Pain Drain\libraries\lvgl\src\misc/lv_tlsf.c ****     tlsf_assert(block_is_free(block) && "block should be free");
 2809              		.loc 1 1022 0
 2810 0018 FFF7FEFF 		bl	block_is_free
 2811              	.LVL362:
 2812 001c 0028     		cmp	r0, #0
 2813 001e 00D1     		bne	.L194
 2814              	.L195:
 2815 0020 FEE7     		b	.L195
 2816              	.L194:
1023:..\..\..\arduinoLCD\test\Pain Drain\libraries\lvgl\src\misc/lv_tlsf.c ****     tlsf_assert(!block_is_free(block_next(block)) && "next block should not be free");
 2817              		.loc 1 1023 0
 2818 0022 2000     		movs	r0, r4
 2819 0024 FFF7FEFF 		bl	block_next
 2820              	.LVL363:
 2821 0028 0500     		movs	r5, r0
 2822 002a FFF7FEFF 		bl	block_is_free
 2823              	.LVL364:
 2824 002e 0028     		cmp	r0, #0
 2825 0030 00D0     		beq	.L196
 2826              	.L197:
 2827 0032 FEE7     		b	.L197
 2828              	.L196:
1024:..\..\..\arduinoLCD\test\Pain Drain\libraries\lvgl\src\misc/lv_tlsf.c ****     tlsf_assert(block_size(block_next(block)) == 0 && "next block size should be zero");
 2829              		.loc 1 1024 0
 2830 0034 2800     		movs	r0, r5
 2831 0036 FFF7FEFF 		bl	block_size
 2832              	.LVL365:
 2833 003a 0028     		cmp	r0, #0
 2834 003c 00D0     		beq	.L198
 2835              	.L199:
 2836 003e FEE7     		b	.L199
 2837              	.L198:
1025:..\..\..\arduinoLCD\test\Pain Drain\libraries\lvgl\src\misc/lv_tlsf.c **** 
1026:..\..\..\arduinoLCD\test\Pain Drain\libraries\lvgl\src\misc/lv_tlsf.c ****     mapping_insert(block_size(block), &fl, &sl);
 2838              		.loc 1 1026 0
 2839 0040 2000     		movs	r0, r4
 2840 0042 FFF7FEFF 		bl	block_size
 2841              	.LVL366:
 2842 0046 6A46     		mov	r2, sp
 2843 0048 01A9     		add	r1, sp, #4
 2844 004a FFF7FEFF 		bl	mapping_insert
 2845              	.LVL367:
1027:..\..\..\arduinoLCD\test\Pain Drain\libraries\lvgl\src\misc/lv_tlsf.c ****     remove_free_block(control, block, fl, sl);
 2846              		.loc 1 1027 0
 2847 004e 009B     		ldr	r3, [sp]
 2848 0050 019A     		ldr	r2, [sp, #4]
 2849 0052 2100     		movs	r1, r4
ARM GAS  C:\Users\haske\AppData\Local\Temp\ccswauRt.s 			page 72


 2850 0054 3000     		movs	r0, r6
 2851 0056 FFF7FEFF 		bl	remove_free_block
 2852              	.LVL368:
1028:..\..\..\arduinoLCD\test\Pain Drain\libraries\lvgl\src\misc/lv_tlsf.c **** }
 2853              		.loc 1 1028 0
 2854 005a 02B0     		add	sp, sp, #8
 2855              		@ sp needed
 2856              	.LVL369:
 2857              	.LVL370:
 2858 005c 70BD     		pop	{r4, r5, r6, pc}
 2859              		.cfi_endproc
 2860              	.LFE55:
 2861              		.size	lv_tlsf_remove_pool, .-lv_tlsf_remove_pool
 2862 005e C046     		.section	.text.lv_tlsf_create,"ax",%progbits
 2863              		.align	2
 2864              		.global	lv_tlsf_create
 2865              		.code	16
 2866              		.thumb_func
 2867              		.type	lv_tlsf_create, %function
 2868              	lv_tlsf_create:
 2869              	.LFB56:
1029:..\..\..\arduinoLCD\test\Pain Drain\libraries\lvgl\src\misc/lv_tlsf.c **** 
1030:..\..\..\arduinoLCD\test\Pain Drain\libraries\lvgl\src\misc/lv_tlsf.c **** /*
1031:..\..\..\arduinoLCD\test\Pain Drain\libraries\lvgl\src\misc/lv_tlsf.c **** ** TLSF main interface.
1032:..\..\..\arduinoLCD\test\Pain Drain\libraries\lvgl\src\misc/lv_tlsf.c **** */
1033:..\..\..\arduinoLCD\test\Pain Drain\libraries\lvgl\src\misc/lv_tlsf.c **** 
1034:..\..\..\arduinoLCD\test\Pain Drain\libraries\lvgl\src\misc/lv_tlsf.c **** #if _DEBUG
1035:..\..\..\arduinoLCD\test\Pain Drain\libraries\lvgl\src\misc/lv_tlsf.c **** int test_ffs_fls()
1036:..\..\..\arduinoLCD\test\Pain Drain\libraries\lvgl\src\misc/lv_tlsf.c **** {
1037:..\..\..\arduinoLCD\test\Pain Drain\libraries\lvgl\src\misc/lv_tlsf.c ****     /* Verify ffs/fls work properly. */
1038:..\..\..\arduinoLCD\test\Pain Drain\libraries\lvgl\src\misc/lv_tlsf.c ****     int rv = 0;
1039:..\..\..\arduinoLCD\test\Pain Drain\libraries\lvgl\src\misc/lv_tlsf.c ****     rv += (tlsf_ffs(0) == -1) ? 0 : 0x1;
1040:..\..\..\arduinoLCD\test\Pain Drain\libraries\lvgl\src\misc/lv_tlsf.c ****     rv += (tlsf_fls(0) == -1) ? 0 : 0x2;
1041:..\..\..\arduinoLCD\test\Pain Drain\libraries\lvgl\src\misc/lv_tlsf.c ****     rv += (tlsf_ffs(1) == 0) ? 0 : 0x4;
1042:..\..\..\arduinoLCD\test\Pain Drain\libraries\lvgl\src\misc/lv_tlsf.c ****     rv += (tlsf_fls(1) == 0) ? 0 : 0x8;
1043:..\..\..\arduinoLCD\test\Pain Drain\libraries\lvgl\src\misc/lv_tlsf.c ****     rv += (tlsf_ffs(0x80000000) == 31) ? 0 : 0x10;
1044:..\..\..\arduinoLCD\test\Pain Drain\libraries\lvgl\src\misc/lv_tlsf.c ****     rv += (tlsf_ffs(0x80008000) == 15) ? 0 : 0x20;
1045:..\..\..\arduinoLCD\test\Pain Drain\libraries\lvgl\src\misc/lv_tlsf.c ****     rv += (tlsf_fls(0x80000008) == 31) ? 0 : 0x40;
1046:..\..\..\arduinoLCD\test\Pain Drain\libraries\lvgl\src\misc/lv_tlsf.c ****     rv += (tlsf_fls(0x7FFFFFFF) == 30) ? 0 : 0x80;
1047:..\..\..\arduinoLCD\test\Pain Drain\libraries\lvgl\src\misc/lv_tlsf.c **** 
1048:..\..\..\arduinoLCD\test\Pain Drain\libraries\lvgl\src\misc/lv_tlsf.c **** #if defined (TLSF_64BIT)
1049:..\..\..\arduinoLCD\test\Pain Drain\libraries\lvgl\src\misc/lv_tlsf.c ****     rv += (tlsf_fls_sizet(0x80000000) == 31) ? 0 : 0x100;
1050:..\..\..\arduinoLCD\test\Pain Drain\libraries\lvgl\src\misc/lv_tlsf.c ****     rv += (tlsf_fls_sizet(0x100000000) == 32) ? 0 : 0x200;
1051:..\..\..\arduinoLCD\test\Pain Drain\libraries\lvgl\src\misc/lv_tlsf.c ****     rv += (tlsf_fls_sizet(0xffffffffffffffff) == 63) ? 0 : 0x400;
1052:..\..\..\arduinoLCD\test\Pain Drain\libraries\lvgl\src\misc/lv_tlsf.c **** #endif
1053:..\..\..\arduinoLCD\test\Pain Drain\libraries\lvgl\src\misc/lv_tlsf.c **** 
1054:..\..\..\arduinoLCD\test\Pain Drain\libraries\lvgl\src\misc/lv_tlsf.c ****     if(rv) {
1055:..\..\..\arduinoLCD\test\Pain Drain\libraries\lvgl\src\misc/lv_tlsf.c ****         printf("test_ffs_fls: %x ffs/fls tests failed.\n", rv);
1056:..\..\..\arduinoLCD\test\Pain Drain\libraries\lvgl\src\misc/lv_tlsf.c ****     }
1057:..\..\..\arduinoLCD\test\Pain Drain\libraries\lvgl\src\misc/lv_tlsf.c ****     return rv;
1058:..\..\..\arduinoLCD\test\Pain Drain\libraries\lvgl\src\misc/lv_tlsf.c **** }
1059:..\..\..\arduinoLCD\test\Pain Drain\libraries\lvgl\src\misc/lv_tlsf.c **** #endif
1060:..\..\..\arduinoLCD\test\Pain Drain\libraries\lvgl\src\misc/lv_tlsf.c **** 
1061:..\..\..\arduinoLCD\test\Pain Drain\libraries\lvgl\src\misc/lv_tlsf.c **** lv_tlsf_t lv_tlsf_create(void * mem)
1062:..\..\..\arduinoLCD\test\Pain Drain\libraries\lvgl\src\misc/lv_tlsf.c **** {
 2870              		.loc 1 1062 0
 2871              		.cfi_startproc
ARM GAS  C:\Users\haske\AppData\Local\Temp\ccswauRt.s 			page 73


 2872              		@ args = 0, pretend = 0, frame = 0
 2873              		@ frame_needed = 0, uses_anonymous_args = 0
 2874              	.LVL371:
 2875 0000 10B5     		push	{r4, lr}
 2876              		.cfi_def_cfa_offset 8
 2877              		.cfi_offset 4, -8
 2878              		.cfi_offset 14, -4
 2879 0002 0400     		movs	r4, r0
1063:..\..\..\arduinoLCD\test\Pain Drain\libraries\lvgl\src\misc/lv_tlsf.c **** #if _DEBUG
1064:..\..\..\arduinoLCD\test\Pain Drain\libraries\lvgl\src\misc/lv_tlsf.c ****     if(test_ffs_fls()) {
1065:..\..\..\arduinoLCD\test\Pain Drain\libraries\lvgl\src\misc/lv_tlsf.c ****         return 0;
1066:..\..\..\arduinoLCD\test\Pain Drain\libraries\lvgl\src\misc/lv_tlsf.c ****     }
1067:..\..\..\arduinoLCD\test\Pain Drain\libraries\lvgl\src\misc/lv_tlsf.c **** #endif
1068:..\..\..\arduinoLCD\test\Pain Drain\libraries\lvgl\src\misc/lv_tlsf.c **** 
1069:..\..\..\arduinoLCD\test\Pain Drain\libraries\lvgl\src\misc/lv_tlsf.c ****     if(((tlsfptr_t)mem % ALIGN_SIZE) != 0) {
 2880              		.loc 1 1069 0
 2881 0004 8307     		lsls	r3, r0, #30
 2882 0006 03D1     		bne	.L202
1070:..\..\..\arduinoLCD\test\Pain Drain\libraries\lvgl\src\misc/lv_tlsf.c ****         printf("lv_tlsf_create: Memory must be aligned to %u bytes.\n",
1071:..\..\..\arduinoLCD\test\Pain Drain\libraries\lvgl\src\misc/lv_tlsf.c ****                (unsigned int)ALIGN_SIZE);
1072:..\..\..\arduinoLCD\test\Pain Drain\libraries\lvgl\src\misc/lv_tlsf.c ****         return 0;
1073:..\..\..\arduinoLCD\test\Pain Drain\libraries\lvgl\src\misc/lv_tlsf.c ****     }
1074:..\..\..\arduinoLCD\test\Pain Drain\libraries\lvgl\src\misc/lv_tlsf.c **** 
1075:..\..\..\arduinoLCD\test\Pain Drain\libraries\lvgl\src\misc/lv_tlsf.c ****     control_constructor(tlsf_cast(control_t *, mem));
 2883              		.loc 1 1075 0
 2884 0008 FFF7FEFF 		bl	control_constructor
 2885              	.LVL372:
1076:..\..\..\arduinoLCD\test\Pain Drain\libraries\lvgl\src\misc/lv_tlsf.c **** 
1077:..\..\..\arduinoLCD\test\Pain Drain\libraries\lvgl\src\misc/lv_tlsf.c ****     return tlsf_cast(lv_tlsf_t, mem);
 2886              		.loc 1 1077 0
 2887 000c 2000     		movs	r0, r4
 2888 000e 00E0     		b	.L201
 2889              	.L202:
1072:..\..\..\arduinoLCD\test\Pain Drain\libraries\lvgl\src\misc/lv_tlsf.c ****     }
 2890              		.loc 1 1072 0
 2891 0010 0020     		movs	r0, #0
 2892              	.L201:
1078:..\..\..\arduinoLCD\test\Pain Drain\libraries\lvgl\src\misc/lv_tlsf.c **** }
 2893              		.loc 1 1078 0
 2894              		@ sp needed
 2895              	.LVL373:
 2896 0012 10BD     		pop	{r4, pc}
 2897              		.cfi_endproc
 2898              	.LFE56:
 2899              		.size	lv_tlsf_create, .-lv_tlsf_create
 2900              		.section	.text.lv_tlsf_create_with_pool,"ax",%progbits
 2901              		.align	2
 2902              		.global	lv_tlsf_create_with_pool
 2903              		.code	16
 2904              		.thumb_func
 2905              		.type	lv_tlsf_create_with_pool, %function
 2906              	lv_tlsf_create_with_pool:
 2907              	.LFB57:
1079:..\..\..\arduinoLCD\test\Pain Drain\libraries\lvgl\src\misc/lv_tlsf.c **** 
1080:..\..\..\arduinoLCD\test\Pain Drain\libraries\lvgl\src\misc/lv_tlsf.c **** lv_tlsf_t lv_tlsf_create_with_pool(void * mem, size_t bytes)
1081:..\..\..\arduinoLCD\test\Pain Drain\libraries\lvgl\src\misc/lv_tlsf.c **** {
 2908              		.loc 1 1081 0
ARM GAS  C:\Users\haske\AppData\Local\Temp\ccswauRt.s 			page 74


 2909              		.cfi_startproc
 2910              		@ args = 0, pretend = 0, frame = 0
 2911              		@ frame_needed = 0, uses_anonymous_args = 0
 2912              	.LVL374:
 2913 0000 70B5     		push	{r4, r5, r6, lr}
 2914              		.cfi_def_cfa_offset 16
 2915              		.cfi_offset 4, -16
 2916              		.cfi_offset 5, -12
 2917              		.cfi_offset 6, -8
 2918              		.cfi_offset 14, -4
 2919 0002 0600     		movs	r6, r0
 2920 0004 0C00     		movs	r4, r1
1082:..\..\..\arduinoLCD\test\Pain Drain\libraries\lvgl\src\misc/lv_tlsf.c ****     lv_tlsf_t tlsf = lv_tlsf_create(mem);
 2921              		.loc 1 1082 0
 2922 0006 FFF7FEFF 		bl	lv_tlsf_create
 2923              	.LVL375:
 2924 000a 0500     		movs	r5, r0
 2925              	.LVL376:
1083:..\..\..\arduinoLCD\test\Pain Drain\libraries\lvgl\src\misc/lv_tlsf.c ****     lv_tlsf_add_pool(tlsf, (char *)mem + lv_tlsf_size(), bytes - lv_tlsf_size());
 2926              		.loc 1 1083 0
 2927 000c FFF7FEFF 		bl	lv_tlsf_size
 2928              	.LVL377:
 2929 0010 221A     		subs	r2, r4, r0
 2930 0012 3118     		adds	r1, r6, r0
 2931 0014 2800     		movs	r0, r5
 2932 0016 FFF7FEFF 		bl	lv_tlsf_add_pool
 2933              	.LVL378:
1084:..\..\..\arduinoLCD\test\Pain Drain\libraries\lvgl\src\misc/lv_tlsf.c ****     return tlsf;
1085:..\..\..\arduinoLCD\test\Pain Drain\libraries\lvgl\src\misc/lv_tlsf.c **** }
 2934              		.loc 1 1085 0
 2935 001a 2800     		movs	r0, r5
 2936              		@ sp needed
 2937              	.LVL379:
 2938              	.LVL380:
 2939              	.LVL381:
 2940 001c 70BD     		pop	{r4, r5, r6, pc}
 2941              		.cfi_endproc
 2942              	.LFE57:
 2943              		.size	lv_tlsf_create_with_pool, .-lv_tlsf_create_with_pool
 2944 001e C046     		.section	.text.lv_tlsf_destroy,"ax",%progbits
 2945              		.align	2
 2946              		.global	lv_tlsf_destroy
 2947              		.code	16
 2948              		.thumb_func
 2949              		.type	lv_tlsf_destroy, %function
 2950              	lv_tlsf_destroy:
 2951              	.LFB58:
1086:..\..\..\arduinoLCD\test\Pain Drain\libraries\lvgl\src\misc/lv_tlsf.c **** 
1087:..\..\..\arduinoLCD\test\Pain Drain\libraries\lvgl\src\misc/lv_tlsf.c **** void lv_tlsf_destroy(lv_tlsf_t tlsf)
1088:..\..\..\arduinoLCD\test\Pain Drain\libraries\lvgl\src\misc/lv_tlsf.c **** {
 2952              		.loc 1 1088 0
 2953              		.cfi_startproc
 2954              		@ args = 0, pretend = 0, frame = 0
 2955              		@ frame_needed = 0, uses_anonymous_args = 0
 2956              		@ link register save eliminated.
 2957              	.LVL382:
1089:..\..\..\arduinoLCD\test\Pain Drain\libraries\lvgl\src\misc/lv_tlsf.c ****     /* Nothing to do. */
ARM GAS  C:\Users\haske\AppData\Local\Temp\ccswauRt.s 			page 75


1090:..\..\..\arduinoLCD\test\Pain Drain\libraries\lvgl\src\misc/lv_tlsf.c ****     LV_UNUSED(tlsf);
1091:..\..\..\arduinoLCD\test\Pain Drain\libraries\lvgl\src\misc/lv_tlsf.c **** }
 2958              		.loc 1 1091 0
 2959              		@ sp needed
 2960 0000 7047     		bx	lr
 2961              		.cfi_endproc
 2962              	.LFE58:
 2963              		.size	lv_tlsf_destroy, .-lv_tlsf_destroy
 2964 0002 C046     		.section	.text.lv_tlsf_get_pool,"ax",%progbits
 2965              		.align	2
 2966              		.global	lv_tlsf_get_pool
 2967              		.code	16
 2968              		.thumb_func
 2969              		.type	lv_tlsf_get_pool, %function
 2970              	lv_tlsf_get_pool:
 2971              	.LFB59:
1092:..\..\..\arduinoLCD\test\Pain Drain\libraries\lvgl\src\misc/lv_tlsf.c **** 
1093:..\..\..\arduinoLCD\test\Pain Drain\libraries\lvgl\src\misc/lv_tlsf.c **** lv_pool_t lv_tlsf_get_pool(lv_tlsf_t tlsf)
1094:..\..\..\arduinoLCD\test\Pain Drain\libraries\lvgl\src\misc/lv_tlsf.c **** {
 2972              		.loc 1 1094 0
 2973              		.cfi_startproc
 2974              		@ args = 0, pretend = 0, frame = 0
 2975              		@ frame_needed = 0, uses_anonymous_args = 0
 2976              	.LVL383:
 2977 0000 10B5     		push	{r4, lr}
 2978              		.cfi_def_cfa_offset 8
 2979              		.cfi_offset 4, -8
 2980              		.cfi_offset 14, -4
 2981 0002 0400     		movs	r4, r0
1095:..\..\..\arduinoLCD\test\Pain Drain\libraries\lvgl\src\misc/lv_tlsf.c ****     return tlsf_cast(lv_pool_t, (char *)tlsf + lv_tlsf_size());
 2982              		.loc 1 1095 0
 2983 0004 FFF7FEFF 		bl	lv_tlsf_size
 2984              	.LVL384:
 2985 0008 2018     		adds	r0, r4, r0
1096:..\..\..\arduinoLCD\test\Pain Drain\libraries\lvgl\src\misc/lv_tlsf.c **** }
 2986              		.loc 1 1096 0
 2987              		@ sp needed
 2988              	.LVL385:
 2989 000a 10BD     		pop	{r4, pc}
 2990              		.cfi_endproc
 2991              	.LFE59:
 2992              		.size	lv_tlsf_get_pool, .-lv_tlsf_get_pool
 2993              		.section	.text.lv_tlsf_malloc,"ax",%progbits
 2994              		.align	2
 2995              		.global	lv_tlsf_malloc
 2996              		.code	16
 2997              		.thumb_func
 2998              		.type	lv_tlsf_malloc, %function
 2999              	lv_tlsf_malloc:
 3000              	.LFB60:
1097:..\..\..\arduinoLCD\test\Pain Drain\libraries\lvgl\src\misc/lv_tlsf.c **** 
1098:..\..\..\arduinoLCD\test\Pain Drain\libraries\lvgl\src\misc/lv_tlsf.c **** void * lv_tlsf_malloc(lv_tlsf_t tlsf, size_t size)
1099:..\..\..\arduinoLCD\test\Pain Drain\libraries\lvgl\src\misc/lv_tlsf.c **** {
 3001              		.loc 1 1099 0
 3002              		.cfi_startproc
 3003              		@ args = 0, pretend = 0, frame = 0
 3004              		@ frame_needed = 0, uses_anonymous_args = 0
ARM GAS  C:\Users\haske\AppData\Local\Temp\ccswauRt.s 			page 76


 3005              	.LVL386:
 3006 0000 70B5     		push	{r4, r5, r6, lr}
 3007              		.cfi_def_cfa_offset 16
 3008              		.cfi_offset 4, -16
 3009              		.cfi_offset 5, -12
 3010              		.cfi_offset 6, -8
 3011              		.cfi_offset 14, -4
 3012 0002 0400     		movs	r4, r0
 3013 0004 0800     		movs	r0, r1
 3014              	.LVL387:
1100:..\..\..\arduinoLCD\test\Pain Drain\libraries\lvgl\src\misc/lv_tlsf.c ****     control_t * control = tlsf_cast(control_t *, tlsf);
1101:..\..\..\arduinoLCD\test\Pain Drain\libraries\lvgl\src\misc/lv_tlsf.c ****     const size_t adjust = adjust_request_size(size, ALIGN_SIZE);
 3015              		.loc 1 1101 0
 3016 0006 0421     		movs	r1, #4
 3017              	.LVL388:
 3018 0008 FFF7FEFF 		bl	adjust_request_size
 3019              	.LVL389:
 3020 000c 0500     		movs	r5, r0
 3021              	.LVL390:
1102:..\..\..\arduinoLCD\test\Pain Drain\libraries\lvgl\src\misc/lv_tlsf.c ****     block_header_t * block = block_locate_free(control, adjust);
 3022              		.loc 1 1102 0
 3023 000e 0100     		movs	r1, r0
 3024 0010 2000     		movs	r0, r4
 3025              	.LVL391:
 3026 0012 FFF7FEFF 		bl	block_locate_free
 3027              	.LVL392:
 3028 0016 0100     		movs	r1, r0
 3029              	.LVL393:
1103:..\..\..\arduinoLCD\test\Pain Drain\libraries\lvgl\src\misc/lv_tlsf.c ****     return block_prepare_used(control, block, adjust);
 3030              		.loc 1 1103 0
 3031 0018 2A00     		movs	r2, r5
 3032 001a 2000     		movs	r0, r4
 3033              	.LVL394:
 3034 001c FFF7FEFF 		bl	block_prepare_used
 3035              	.LVL395:
1104:..\..\..\arduinoLCD\test\Pain Drain\libraries\lvgl\src\misc/lv_tlsf.c **** }
 3036              		.loc 1 1104 0
 3037              		@ sp needed
 3038              	.LVL396:
 3039              	.LVL397:
 3040 0020 70BD     		pop	{r4, r5, r6, pc}
 3041              		.cfi_endproc
 3042              	.LFE60:
 3043              		.size	lv_tlsf_malloc, .-lv_tlsf_malloc
 3044 0022 C046     		.section	.text.lv_tlsf_memalign,"ax",%progbits
 3045              		.align	2
 3046              		.global	lv_tlsf_memalign
 3047              		.code	16
 3048              		.thumb_func
 3049              		.type	lv_tlsf_memalign, %function
 3050              	lv_tlsf_memalign:
 3051              	.LFB61:
1105:..\..\..\arduinoLCD\test\Pain Drain\libraries\lvgl\src\misc/lv_tlsf.c **** 
1106:..\..\..\arduinoLCD\test\Pain Drain\libraries\lvgl\src\misc/lv_tlsf.c **** void * lv_tlsf_memalign(lv_tlsf_t tlsf, size_t align, size_t size)
1107:..\..\..\arduinoLCD\test\Pain Drain\libraries\lvgl\src\misc/lv_tlsf.c **** {
 3052              		.loc 1 1107 0
 3053              		.cfi_startproc
ARM GAS  C:\Users\haske\AppData\Local\Temp\ccswauRt.s 			page 77


 3054              		@ args = 0, pretend = 0, frame = 8
 3055              		@ frame_needed = 0, uses_anonymous_args = 0
 3056              	.LVL398:
 3057 0000 F0B5     		push	{r4, r5, r6, r7, lr}
 3058              		.cfi_def_cfa_offset 20
 3059              		.cfi_offset 4, -20
 3060              		.cfi_offset 5, -16
 3061              		.cfi_offset 6, -12
 3062              		.cfi_offset 7, -8
 3063              		.cfi_offset 14, -4
 3064 0002 83B0     		sub	sp, sp, #12
 3065              		.cfi_def_cfa_offset 32
 3066 0004 0190     		str	r0, [sp, #4]
 3067 0006 0C00     		movs	r4, r1
 3068              	.LVL399:
1108:..\..\..\arduinoLCD\test\Pain Drain\libraries\lvgl\src\misc/lv_tlsf.c ****     control_t * control = tlsf_cast(control_t *, tlsf);
1109:..\..\..\arduinoLCD\test\Pain Drain\libraries\lvgl\src\misc/lv_tlsf.c ****     const size_t adjust = adjust_request_size(size, ALIGN_SIZE);
 3069              		.loc 1 1109 0
 3070 0008 0421     		movs	r1, #4
 3071              	.LVL400:
 3072 000a 1000     		movs	r0, r2
 3073              	.LVL401:
 3074 000c FFF7FEFF 		bl	adjust_request_size
 3075              	.LVL402:
 3076 0010 0600     		movs	r6, r0
 3077              	.LVL403:
1110:..\..\..\arduinoLCD\test\Pain Drain\libraries\lvgl\src\misc/lv_tlsf.c **** 
1111:..\..\..\arduinoLCD\test\Pain Drain\libraries\lvgl\src\misc/lv_tlsf.c ****     /*
1112:..\..\..\arduinoLCD\test\Pain Drain\libraries\lvgl\src\misc/lv_tlsf.c ****     ** We must allocate an additional minimum block size bytes so that if
1113:..\..\..\arduinoLCD\test\Pain Drain\libraries\lvgl\src\misc/lv_tlsf.c ****     ** our free block will leave an alignment gap which is smaller, we can
1114:..\..\..\arduinoLCD\test\Pain Drain\libraries\lvgl\src\misc/lv_tlsf.c ****     ** trim a leading free block and release it back to the pool. We must
1115:..\..\..\arduinoLCD\test\Pain Drain\libraries\lvgl\src\misc/lv_tlsf.c ****     ** do this because the previous physical block is in use, therefore
1116:..\..\..\arduinoLCD\test\Pain Drain\libraries\lvgl\src\misc/lv_tlsf.c ****     ** the prev_phys_block field is not valid, and we can't simply adjust
1117:..\..\..\arduinoLCD\test\Pain Drain\libraries\lvgl\src\misc/lv_tlsf.c ****     ** the size of that block.
1118:..\..\..\arduinoLCD\test\Pain Drain\libraries\lvgl\src\misc/lv_tlsf.c ****     */
1119:..\..\..\arduinoLCD\test\Pain Drain\libraries\lvgl\src\misc/lv_tlsf.c ****     const size_t gap_minimum = sizeof(block_header_t);
1120:..\..\..\arduinoLCD\test\Pain Drain\libraries\lvgl\src\misc/lv_tlsf.c ****     const size_t size_with_gap = adjust_request_size(adjust + align + gap_minimum, align);
 3078              		.loc 1 1120 0
 3079 0012 0019     		adds	r0, r0, r4
 3080              	.LVL404:
 3081 0014 1030     		adds	r0, r0, #16
 3082 0016 2100     		movs	r1, r4
 3083 0018 FFF7FEFF 		bl	adjust_request_size
 3084              	.LVL405:
1121:..\..\..\arduinoLCD\test\Pain Drain\libraries\lvgl\src\misc/lv_tlsf.c **** 
1122:..\..\..\arduinoLCD\test\Pain Drain\libraries\lvgl\src\misc/lv_tlsf.c ****     /*
1123:..\..\..\arduinoLCD\test\Pain Drain\libraries\lvgl\src\misc/lv_tlsf.c ****     ** If alignment is less than or equals base alignment, we're done.
1124:..\..\..\arduinoLCD\test\Pain Drain\libraries\lvgl\src\misc/lv_tlsf.c ****     ** If we requested 0 bytes, return null, as lv_tlsf_malloc(0) does.
1125:..\..\..\arduinoLCD\test\Pain Drain\libraries\lvgl\src\misc/lv_tlsf.c ****     */
1126:..\..\..\arduinoLCD\test\Pain Drain\libraries\lvgl\src\misc/lv_tlsf.c ****     const size_t aligned_size = (adjust && align > ALIGN_SIZE) ? size_with_gap : adjust;
 3085              		.loc 1 1126 0
 3086 001c 002E     		cmp	r6, #0
 3087 001e 03D0     		beq	.L214
 3088              		.loc 1 1126 0 is_stmt 0 discriminator 1
 3089 0020 042C     		cmp	r4, #4
 3090 0022 03D8     		bhi	.L215
 3091              		.loc 1 1126 0
ARM GAS  C:\Users\haske\AppData\Local\Temp\ccswauRt.s 			page 78


 3092 0024 3100     		movs	r1, r6
 3093 0026 02E0     		b	.L208
 3094              	.L214:
 3095 0028 3100     		movs	r1, r6
 3096 002a 00E0     		b	.L208
 3097              	.L215:
 3098 002c 0100     		movs	r1, r0
 3099              	.L208:
 3100              	.LVL406:
1127:..\..\..\arduinoLCD\test\Pain Drain\libraries\lvgl\src\misc/lv_tlsf.c **** 
1128:..\..\..\arduinoLCD\test\Pain Drain\libraries\lvgl\src\misc/lv_tlsf.c ****     block_header_t * block = block_locate_free(control, aligned_size);
 3101              		.loc 1 1128 0 is_stmt 1 discriminator 6
 3102 002e 0198     		ldr	r0, [sp, #4]
 3103              	.LVL407:
 3104 0030 FFF7FEFF 		bl	block_locate_free
 3105              	.LVL408:
 3106 0034 051E     		subs	r5, r0, #0
 3107              	.LVL409:
1129:..\..\..\arduinoLCD\test\Pain Drain\libraries\lvgl\src\misc/lv_tlsf.c **** 
1130:..\..\..\arduinoLCD\test\Pain Drain\libraries\lvgl\src\misc/lv_tlsf.c ****     /* This can't be a static assert. */
1131:..\..\..\arduinoLCD\test\Pain Drain\libraries\lvgl\src\misc/lv_tlsf.c ****     tlsf_assert(sizeof(block_header_t) == block_size_min + block_header_overhead);
1132:..\..\..\arduinoLCD\test\Pain Drain\libraries\lvgl\src\misc/lv_tlsf.c **** 
1133:..\..\..\arduinoLCD\test\Pain Drain\libraries\lvgl\src\misc/lv_tlsf.c ****     if(block) {
 3108              		.loc 1 1133 0 discriminator 6
 3109 0036 1ED0     		beq	.L209
 3110              	.LBB12:
1134:..\..\..\arduinoLCD\test\Pain Drain\libraries\lvgl\src\misc/lv_tlsf.c ****         void * ptr = block_to_ptr(block);
 3111              		.loc 1 1134 0
 3112 0038 FFF7FEFF 		bl	block_to_ptr
 3113              	.LVL410:
 3114 003c 0700     		movs	r7, r0
 3115              	.LVL411:
1135:..\..\..\arduinoLCD\test\Pain Drain\libraries\lvgl\src\misc/lv_tlsf.c ****         void * aligned = align_ptr(ptr, align);
 3116              		.loc 1 1135 0
 3117 003e 2100     		movs	r1, r4
 3118 0040 FFF7FEFF 		bl	align_ptr
 3119              	.LVL412:
1136:..\..\..\arduinoLCD\test\Pain Drain\libraries\lvgl\src\misc/lv_tlsf.c ****         size_t gap = tlsf_cast(size_t,
 3120              		.loc 1 1136 0
 3121 0044 C21B     		subs	r2, r0, r7
 3122              	.LVL413:
1137:..\..\..\arduinoLCD\test\Pain Drain\libraries\lvgl\src\misc/lv_tlsf.c ****                                tlsf_cast(tlsfptr_t, aligned) - tlsf_cast(tlsfptr_t, ptr));
1138:..\..\..\arduinoLCD\test\Pain Drain\libraries\lvgl\src\misc/lv_tlsf.c **** 
1139:..\..\..\arduinoLCD\test\Pain Drain\libraries\lvgl\src\misc/lv_tlsf.c ****         /* If gap size is too small, offset to next aligned boundary. */
1140:..\..\..\arduinoLCD\test\Pain Drain\libraries\lvgl\src\misc/lv_tlsf.c ****         if(gap && gap < gap_minimum) {
 3123              		.loc 1 1140 0
 3124 0046 531E     		subs	r3, r2, #1
 3125 0048 0E2B     		cmp	r3, #14
 3126 004a 0AD8     		bhi	.L210
 3127              	.LBB13:
1141:..\..\..\arduinoLCD\test\Pain Drain\libraries\lvgl\src\misc/lv_tlsf.c ****             const size_t gap_remain = gap_minimum - gap;
 3128              		.loc 1 1141 0
 3129 004c 1021     		movs	r1, #16
 3130 004e 8A1A     		subs	r2, r1, r2
 3131              	.LVL414:
1142:..\..\..\arduinoLCD\test\Pain Drain\libraries\lvgl\src\misc/lv_tlsf.c ****             const size_t offset = tlsf_max(gap_remain, align);
 3132              		.loc 1 1142 0
ARM GAS  C:\Users\haske\AppData\Local\Temp\ccswauRt.s 			page 79


 3133 0050 2300     		movs	r3, r4
 3134              	.LVL415:
 3135 0052 9442     		cmp	r4, r2
 3136 0054 00D2     		bcs	.L211
 3137              	.LVL416:
 3138 0056 1300     		movs	r3, r2
 3139              	.LVL417:
 3140              	.L211:
1143:..\..\..\arduinoLCD\test\Pain Drain\libraries\lvgl\src\misc/lv_tlsf.c ****             const void * next_aligned = tlsf_cast(void *,
 3141              		.loc 1 1143 0
 3142 0058 C018     		adds	r0, r0, r3
 3143              	.LVL418:
1144:..\..\..\arduinoLCD\test\Pain Drain\libraries\lvgl\src\misc/lv_tlsf.c ****                                                   tlsf_cast(tlsfptr_t, aligned) + offset);
1145:..\..\..\arduinoLCD\test\Pain Drain\libraries\lvgl\src\misc/lv_tlsf.c **** 
1146:..\..\..\arduinoLCD\test\Pain Drain\libraries\lvgl\src\misc/lv_tlsf.c ****             aligned = align_ptr(next_aligned, align);
 3144              		.loc 1 1146 0
 3145 005a 2100     		movs	r1, r4
 3146 005c FFF7FEFF 		bl	align_ptr
 3147              	.LVL419:
1147:..\..\..\arduinoLCD\test\Pain Drain\libraries\lvgl\src\misc/lv_tlsf.c ****             gap = tlsf_cast(size_t,
 3148              		.loc 1 1147 0
 3149 0060 C21B     		subs	r2, r0, r7
 3150              	.LVL420:
 3151              	.L210:
 3152              	.LBE13:
1148:..\..\..\arduinoLCD\test\Pain Drain\libraries\lvgl\src\misc/lv_tlsf.c ****                             tlsf_cast(tlsfptr_t, aligned) - tlsf_cast(tlsfptr_t, ptr));
1149:..\..\..\arduinoLCD\test\Pain Drain\libraries\lvgl\src\misc/lv_tlsf.c ****         }
1150:..\..\..\arduinoLCD\test\Pain Drain\libraries\lvgl\src\misc/lv_tlsf.c **** 
1151:..\..\..\arduinoLCD\test\Pain Drain\libraries\lvgl\src\misc/lv_tlsf.c ****         if(gap) {
 3153              		.loc 1 1151 0
 3154 0062 002A     		cmp	r2, #0
 3155 0064 07D0     		beq	.L209
1152:..\..\..\arduinoLCD\test\Pain Drain\libraries\lvgl\src\misc/lv_tlsf.c ****             tlsf_assert(gap >= gap_minimum && "gap size too small");
 3156              		.loc 1 1152 0
 3157 0066 0F2A     		cmp	r2, #15
 3158 0068 00D8     		bhi	.L212
 3159              	.L213:
 3160 006a FEE7     		b	.L213
 3161              	.L212:
1153:..\..\..\arduinoLCD\test\Pain Drain\libraries\lvgl\src\misc/lv_tlsf.c ****             block = block_trim_free_leading(control, block, gap);
 3162              		.loc 1 1153 0
 3163 006c 2900     		movs	r1, r5
 3164 006e 0198     		ldr	r0, [sp, #4]
 3165              	.LVL421:
 3166 0070 FFF7FEFF 		bl	block_trim_free_leading
 3167              	.LVL422:
 3168 0074 0500     		movs	r5, r0
 3169              	.LVL423:
 3170              	.L209:
 3171              	.LBE12:
1154:..\..\..\arduinoLCD\test\Pain Drain\libraries\lvgl\src\misc/lv_tlsf.c ****         }
1155:..\..\..\arduinoLCD\test\Pain Drain\libraries\lvgl\src\misc/lv_tlsf.c ****     }
1156:..\..\..\arduinoLCD\test\Pain Drain\libraries\lvgl\src\misc/lv_tlsf.c **** 
1157:..\..\..\arduinoLCD\test\Pain Drain\libraries\lvgl\src\misc/lv_tlsf.c ****     return block_prepare_used(control, block, adjust);
 3172              		.loc 1 1157 0
 3173 0076 3200     		movs	r2, r6
 3174 0078 2900     		movs	r1, r5
ARM GAS  C:\Users\haske\AppData\Local\Temp\ccswauRt.s 			page 80


 3175 007a 0198     		ldr	r0, [sp, #4]
 3176 007c FFF7FEFF 		bl	block_prepare_used
 3177              	.LVL424:
1158:..\..\..\arduinoLCD\test\Pain Drain\libraries\lvgl\src\misc/lv_tlsf.c **** }
 3178              		.loc 1 1158 0
 3179 0080 03B0     		add	sp, sp, #12
 3180              		@ sp needed
 3181              	.LVL425:
 3182              	.LVL426:
 3183              	.LVL427:
 3184 0082 F0BD     		pop	{r4, r5, r6, r7, pc}
 3185              		.cfi_endproc
 3186              	.LFE61:
 3187              		.size	lv_tlsf_memalign, .-lv_tlsf_memalign
 3188              		.section	.text.lv_tlsf_free,"ax",%progbits
 3189              		.align	2
 3190              		.global	lv_tlsf_free
 3191              		.code	16
 3192              		.thumb_func
 3193              		.type	lv_tlsf_free, %function
 3194              	lv_tlsf_free:
 3195              	.LFB62:
1159:..\..\..\arduinoLCD\test\Pain Drain\libraries\lvgl\src\misc/lv_tlsf.c **** 
1160:..\..\..\arduinoLCD\test\Pain Drain\libraries\lvgl\src\misc/lv_tlsf.c **** size_t lv_tlsf_free(lv_tlsf_t tlsf, const void * ptr)
1161:..\..\..\arduinoLCD\test\Pain Drain\libraries\lvgl\src\misc/lv_tlsf.c **** {
 3196              		.loc 1 1161 0
 3197              		.cfi_startproc
 3198              		@ args = 0, pretend = 0, frame = 0
 3199              		@ frame_needed = 0, uses_anonymous_args = 0
 3200              	.LVL428:
 3201 0000 70B5     		push	{r4, r5, r6, lr}
 3202              		.cfi_def_cfa_offset 16
 3203              		.cfi_offset 4, -16
 3204              		.cfi_offset 5, -12
 3205              		.cfi_offset 6, -8
 3206              		.cfi_offset 14, -4
 3207 0002 0500     		movs	r5, r0
 3208              	.LVL429:
1162:..\..\..\arduinoLCD\test\Pain Drain\libraries\lvgl\src\misc/lv_tlsf.c ****     size_t size = 0;
1163:..\..\..\arduinoLCD\test\Pain Drain\libraries\lvgl\src\misc/lv_tlsf.c ****     /* Don't attempt to free a NULL pointer. */
1164:..\..\..\arduinoLCD\test\Pain Drain\libraries\lvgl\src\misc/lv_tlsf.c ****     if(ptr) {
 3209              		.loc 1 1164 0
 3210 0004 0029     		cmp	r1, #0
 3211 0006 19D0     		beq	.L220
 3212              	.LVL430:
 3213              	.LBB14:
1165:..\..\..\arduinoLCD\test\Pain Drain\libraries\lvgl\src\misc/lv_tlsf.c ****         control_t * control = tlsf_cast(control_t *, tlsf);
1166:..\..\..\arduinoLCD\test\Pain Drain\libraries\lvgl\src\misc/lv_tlsf.c ****         block_header_t * block = block_from_ptr(ptr);
 3214              		.loc 1 1166 0
 3215 0008 0800     		movs	r0, r1
 3216              	.LVL431:
 3217 000a FFF7FEFF 		bl	block_from_ptr
 3218              	.LVL432:
 3219 000e 0400     		movs	r4, r0
 3220              	.LVL433:
1167:..\..\..\arduinoLCD\test\Pain Drain\libraries\lvgl\src\misc/lv_tlsf.c ****         tlsf_assert(!block_is_free(block) && "block already marked as free");
 3221              		.loc 1 1167 0
ARM GAS  C:\Users\haske\AppData\Local\Temp\ccswauRt.s 			page 81


 3222 0010 FFF7FEFF 		bl	block_is_free
 3223              	.LVL434:
 3224 0014 0028     		cmp	r0, #0
 3225 0016 00D0     		beq	.L218
 3226              	.L219:
 3227 0018 FEE7     		b	.L219
 3228              	.L218:
1168:..\..\..\arduinoLCD\test\Pain Drain\libraries\lvgl\src\misc/lv_tlsf.c ****         size = block->size;
 3229              		.loc 1 1168 0
 3230 001a 6668     		ldr	r6, [r4, #4]
 3231              	.LVL435:
1169:..\..\..\arduinoLCD\test\Pain Drain\libraries\lvgl\src\misc/lv_tlsf.c ****         block_mark_as_free(block);
 3232              		.loc 1 1169 0
 3233 001c 2000     		movs	r0, r4
 3234 001e FFF7FEFF 		bl	block_mark_as_free
 3235              	.LVL436:
1170:..\..\..\arduinoLCD\test\Pain Drain\libraries\lvgl\src\misc/lv_tlsf.c ****         block = block_merge_prev(control, block);
 3236              		.loc 1 1170 0
 3237 0022 2100     		movs	r1, r4
 3238 0024 2800     		movs	r0, r5
 3239 0026 FFF7FEFF 		bl	block_merge_prev
 3240              	.LVL437:
 3241 002a 0100     		movs	r1, r0
 3242              	.LVL438:
1171:..\..\..\arduinoLCD\test\Pain Drain\libraries\lvgl\src\misc/lv_tlsf.c ****         block = block_merge_next(control, block);
 3243              		.loc 1 1171 0
 3244 002c 2800     		movs	r0, r5
 3245              	.LVL439:
 3246 002e FFF7FEFF 		bl	block_merge_next
 3247              	.LVL440:
 3248 0032 0100     		movs	r1, r0
 3249              	.LVL441:
1172:..\..\..\arduinoLCD\test\Pain Drain\libraries\lvgl\src\misc/lv_tlsf.c ****         block_insert(control, block);
 3250              		.loc 1 1172 0
 3251 0034 2800     		movs	r0, r5
 3252              	.LVL442:
 3253 0036 FFF7FEFF 		bl	block_insert
 3254              	.LVL443:
 3255 003a 00E0     		b	.L217
 3256              	.LVL444:
 3257              	.L220:
 3258              	.LBE14:
1162:..\..\..\arduinoLCD\test\Pain Drain\libraries\lvgl\src\misc/lv_tlsf.c ****     /* Don't attempt to free a NULL pointer. */
 3259              		.loc 1 1162 0
 3260 003c 0026     		movs	r6, #0
 3261              	.LVL445:
 3262              	.L217:
1173:..\..\..\arduinoLCD\test\Pain Drain\libraries\lvgl\src\misc/lv_tlsf.c ****     }
1174:..\..\..\arduinoLCD\test\Pain Drain\libraries\lvgl\src\misc/lv_tlsf.c **** 
1175:..\..\..\arduinoLCD\test\Pain Drain\libraries\lvgl\src\misc/lv_tlsf.c ****     return size;
1176:..\..\..\arduinoLCD\test\Pain Drain\libraries\lvgl\src\misc/lv_tlsf.c **** }
 3263              		.loc 1 1176 0
 3264 003e 3000     		movs	r0, r6
 3265              		@ sp needed
 3266              	.LVL446:
 3267              	.LVL447:
 3268 0040 70BD     		pop	{r4, r5, r6, pc}
ARM GAS  C:\Users\haske\AppData\Local\Temp\ccswauRt.s 			page 82


 3269              		.cfi_endproc
 3270              	.LFE62:
 3271              		.size	lv_tlsf_free, .-lv_tlsf_free
 3272 0042 C046     		.section	.text.lv_tlsf_realloc,"ax",%progbits
 3273              		.align	2
 3274              		.global	lv_tlsf_realloc
 3275              		.code	16
 3276              		.thumb_func
 3277              		.type	lv_tlsf_realloc, %function
 3278              	lv_tlsf_realloc:
 3279              	.LFB63:
1177:..\..\..\arduinoLCD\test\Pain Drain\libraries\lvgl\src\misc/lv_tlsf.c **** 
1178:..\..\..\arduinoLCD\test\Pain Drain\libraries\lvgl\src\misc/lv_tlsf.c **** /*
1179:..\..\..\arduinoLCD\test\Pain Drain\libraries\lvgl\src\misc/lv_tlsf.c **** ** The TLSF block information provides us with enough information to
1180:..\..\..\arduinoLCD\test\Pain Drain\libraries\lvgl\src\misc/lv_tlsf.c **** ** provide a reasonably intelligent implementation of realloc, growing or
1181:..\..\..\arduinoLCD\test\Pain Drain\libraries\lvgl\src\misc/lv_tlsf.c **** ** shrinking the currently allocated block as required.
1182:..\..\..\arduinoLCD\test\Pain Drain\libraries\lvgl\src\misc/lv_tlsf.c **** **
1183:..\..\..\arduinoLCD\test\Pain Drain\libraries\lvgl\src\misc/lv_tlsf.c **** ** This routine handles the somewhat esoteric edge cases of realloc:
1184:..\..\..\arduinoLCD\test\Pain Drain\libraries\lvgl\src\misc/lv_tlsf.c **** ** - a non-zero size with a null pointer will behave like malloc
1185:..\..\..\arduinoLCD\test\Pain Drain\libraries\lvgl\src\misc/lv_tlsf.c **** ** - a zero size with a non-null pointer will behave like free
1186:..\..\..\arduinoLCD\test\Pain Drain\libraries\lvgl\src\misc/lv_tlsf.c **** ** - a request that cannot be satisfied will leave the original buffer
1187:..\..\..\arduinoLCD\test\Pain Drain\libraries\lvgl\src\misc/lv_tlsf.c **** **   untouched
1188:..\..\..\arduinoLCD\test\Pain Drain\libraries\lvgl\src\misc/lv_tlsf.c **** ** - an extended buffer size will leave the newly-allocated area with
1189:..\..\..\arduinoLCD\test\Pain Drain\libraries\lvgl\src\misc/lv_tlsf.c **** **   contents undefined
1190:..\..\..\arduinoLCD\test\Pain Drain\libraries\lvgl\src\misc/lv_tlsf.c **** */
1191:..\..\..\arduinoLCD\test\Pain Drain\libraries\lvgl\src\misc/lv_tlsf.c **** void * lv_tlsf_realloc(lv_tlsf_t tlsf, void * ptr, size_t size)
1192:..\..\..\arduinoLCD\test\Pain Drain\libraries\lvgl\src\misc/lv_tlsf.c **** {
 3280              		.loc 1 1192 0
 3281              		.cfi_startproc
 3282              		@ args = 0, pretend = 0, frame = 16
 3283              		@ frame_needed = 0, uses_anonymous_args = 0
 3284              	.LVL448:
 3285 0000 F0B5     		push	{r4, r5, r6, r7, lr}
 3286              		.cfi_def_cfa_offset 20
 3287              		.cfi_offset 4, -20
 3288              		.cfi_offset 5, -16
 3289              		.cfi_offset 6, -12
 3290              		.cfi_offset 7, -8
 3291              		.cfi_offset 14, -4
 3292 0002 5746     		mov	r7, r10
 3293 0004 80B4     		push	{r7}
 3294              		.cfi_def_cfa_offset 24
 3295              		.cfi_offset 10, -24
 3296 0006 84B0     		sub	sp, sp, #16
 3297              		.cfi_def_cfa_offset 40
 3298 0008 0190     		str	r0, [sp, #4]
 3299 000a 0D00     		movs	r5, r1
 3300 000c 1400     		movs	r4, r2
 3301              	.LVL449:
1193:..\..\..\arduinoLCD\test\Pain Drain\libraries\lvgl\src\misc/lv_tlsf.c ****     control_t * control = tlsf_cast(control_t *, tlsf);
1194:..\..\..\arduinoLCD\test\Pain Drain\libraries\lvgl\src\misc/lv_tlsf.c ****     void * p = 0;
1195:..\..\..\arduinoLCD\test\Pain Drain\libraries\lvgl\src\misc/lv_tlsf.c **** 
1196:..\..\..\arduinoLCD\test\Pain Drain\libraries\lvgl\src\misc/lv_tlsf.c ****     /* Zero-size requests are treated as free. */
1197:..\..\..\arduinoLCD\test\Pain Drain\libraries\lvgl\src\misc/lv_tlsf.c ****     if(ptr && size == 0) {
 3302              		.loc 1 1197 0
 3303 000e 0029     		cmp	r1, #0
 3304 0010 05D0     		beq	.L222
ARM GAS  C:\Users\haske\AppData\Local\Temp\ccswauRt.s 			page 83


 3305              		.loc 1 1197 0 is_stmt 0 discriminator 1
 3306 0012 002A     		cmp	r2, #0
 3307 0014 03D1     		bne	.L222
1198:..\..\..\arduinoLCD\test\Pain Drain\libraries\lvgl\src\misc/lv_tlsf.c ****         lv_tlsf_free(tlsf, ptr);
 3308              		.loc 1 1198 0 is_stmt 1
 3309 0016 FFF7FEFF 		bl	lv_tlsf_free
 3310              	.LVL450:
1194:..\..\..\arduinoLCD\test\Pain Drain\libraries\lvgl\src\misc/lv_tlsf.c **** 
 3311              		.loc 1 1194 0
 3312 001a 0020     		movs	r0, #0
 3313              		.loc 1 1198 0
 3314 001c 57E0     		b	.L223
 3315              	.LVL451:
 3316              	.L222:
1199:..\..\..\arduinoLCD\test\Pain Drain\libraries\lvgl\src\misc/lv_tlsf.c ****     }
1200:..\..\..\arduinoLCD\test\Pain Drain\libraries\lvgl\src\misc/lv_tlsf.c ****     /* Requests with NULL pointers are treated as malloc. */
1201:..\..\..\arduinoLCD\test\Pain Drain\libraries\lvgl\src\misc/lv_tlsf.c ****     else if(!ptr) {
 3317              		.loc 1 1201 0
 3318 001e 002D     		cmp	r5, #0
 3319 0020 04D1     		bne	.L224
1202:..\..\..\arduinoLCD\test\Pain Drain\libraries\lvgl\src\misc/lv_tlsf.c ****         p = lv_tlsf_malloc(tlsf, size);
 3320              		.loc 1 1202 0
 3321 0022 2100     		movs	r1, r4
 3322              	.LVL452:
 3323 0024 0198     		ldr	r0, [sp, #4]
 3324              	.LVL453:
 3325 0026 FFF7FEFF 		bl	lv_tlsf_malloc
 3326              	.LVL454:
 3327 002a 50E0     		b	.L223
 3328              	.LVL455:
 3329              	.L224:
 3330              	.LBB15:
1203:..\..\..\arduinoLCD\test\Pain Drain\libraries\lvgl\src\misc/lv_tlsf.c ****     }
1204:..\..\..\arduinoLCD\test\Pain Drain\libraries\lvgl\src\misc/lv_tlsf.c ****     else {
1205:..\..\..\arduinoLCD\test\Pain Drain\libraries\lvgl\src\misc/lv_tlsf.c ****         block_header_t * block = block_from_ptr(ptr);
 3331              		.loc 1 1205 0
 3332 002c 2800     		movs	r0, r5
 3333              	.LVL456:
 3334 002e FFF7FEFF 		bl	block_from_ptr
 3335              	.LVL457:
 3336 0032 0600     		movs	r6, r0
 3337 0034 0290     		str	r0, [sp, #8]
 3338              	.LVL458:
1206:..\..\..\arduinoLCD\test\Pain Drain\libraries\lvgl\src\misc/lv_tlsf.c ****         block_header_t * next = block_next(block);
 3339              		.loc 1 1206 0
 3340 0036 FFF7FEFF 		bl	block_next
 3341              	.LVL459:
 3342 003a 0390     		str	r0, [sp, #12]
 3343              	.LVL460:
1207:..\..\..\arduinoLCD\test\Pain Drain\libraries\lvgl\src\misc/lv_tlsf.c **** 
1208:..\..\..\arduinoLCD\test\Pain Drain\libraries\lvgl\src\misc/lv_tlsf.c ****         const size_t cursize = block_size(block);
 3344              		.loc 1 1208 0
 3345 003c 3000     		movs	r0, r6
 3346              	.LVL461:
 3347 003e FFF7FEFF 		bl	block_size
 3348              	.LVL462:
 3349 0042 0700     		movs	r7, r0
ARM GAS  C:\Users\haske\AppData\Local\Temp\ccswauRt.s 			page 84


 3350              	.LVL463:
1209:..\..\..\arduinoLCD\test\Pain Drain\libraries\lvgl\src\misc/lv_tlsf.c ****         const size_t combined = cursize + block_size(next) + block_header_overhead;
 3351              		.loc 1 1209 0
 3352 0044 0398     		ldr	r0, [sp, #12]
 3353              	.LVL464:
 3354 0046 FFF7FEFF 		bl	block_size
 3355              	.LVL465:
 3356 004a 3818     		adds	r0, r7, r0
 3357 004c 031D     		adds	r3, r0, #4
 3358 004e 9A46     		mov	r10, r3
 3359              	.LVL466:
1210:..\..\..\arduinoLCD\test\Pain Drain\libraries\lvgl\src\misc/lv_tlsf.c ****         const size_t adjust = adjust_request_size(size, ALIGN_SIZE);
 3360              		.loc 1 1210 0
 3361 0050 0421     		movs	r1, #4
 3362 0052 2000     		movs	r0, r4
 3363 0054 FFF7FEFF 		bl	adjust_request_size
 3364              	.LVL467:
 3365 0058 0600     		movs	r6, r0
 3366              	.LVL468:
1211:..\..\..\arduinoLCD\test\Pain Drain\libraries\lvgl\src\misc/lv_tlsf.c ****         if(size > cursize && adjust == 0) {
 3367              		.loc 1 1211 0
 3368 005a BC42     		cmp	r4, r7
 3369 005c 01D9     		bls	.L225
 3370              		.loc 1 1211 0 is_stmt 0 discriminator 1
 3371 005e 0028     		cmp	r0, #0
 3372 0060 33D0     		beq	.L232
 3373              	.L225:
1212:..\..\..\arduinoLCD\test\Pain Drain\libraries\lvgl\src\misc/lv_tlsf.c ****             /* The request is probably too large, fail */
1213:..\..\..\arduinoLCD\test\Pain Drain\libraries\lvgl\src\misc/lv_tlsf.c ****             return NULL;
1214:..\..\..\arduinoLCD\test\Pain Drain\libraries\lvgl\src\misc/lv_tlsf.c ****         }
1215:..\..\..\arduinoLCD\test\Pain Drain\libraries\lvgl\src\misc/lv_tlsf.c **** 
1216:..\..\..\arduinoLCD\test\Pain Drain\libraries\lvgl\src\misc/lv_tlsf.c ****         tlsf_assert(!block_is_free(block) && "block already marked as free");
 3374              		.loc 1 1216 0 is_stmt 1
 3375 0062 0298     		ldr	r0, [sp, #8]
 3376              	.LVL469:
 3377 0064 FFF7FEFF 		bl	block_is_free
 3378              	.LVL470:
 3379 0068 0028     		cmp	r0, #0
 3380 006a 00D0     		beq	.L226
 3381              	.L227:
 3382 006c FEE7     		b	.L227
 3383              	.L226:
1217:..\..\..\arduinoLCD\test\Pain Drain\libraries\lvgl\src\misc/lv_tlsf.c **** 
1218:..\..\..\arduinoLCD\test\Pain Drain\libraries\lvgl\src\misc/lv_tlsf.c ****         /*
1219:..\..\..\arduinoLCD\test\Pain Drain\libraries\lvgl\src\misc/lv_tlsf.c ****         ** If the next block is used, or when combined with the current
1220:..\..\..\arduinoLCD\test\Pain Drain\libraries\lvgl\src\misc/lv_tlsf.c ****         ** block, does not offer enough space, we must reallocate and copy.
1221:..\..\..\arduinoLCD\test\Pain Drain\libraries\lvgl\src\misc/lv_tlsf.c ****         */
1222:..\..\..\arduinoLCD\test\Pain Drain\libraries\lvgl\src\misc/lv_tlsf.c ****         if(adjust > cursize && (!block_is_free(next) || adjust > combined)) {
 3384              		.loc 1 1222 0
 3385 006e B742     		cmp	r7, r6
 3386 0070 1AD2     		bcs	.L228
 3387              		.loc 1 1222 0 is_stmt 0 discriminator 1
 3388 0072 0398     		ldr	r0, [sp, #12]
 3389 0074 FFF7FEFF 		bl	block_is_free
 3390              	.LVL471:
 3391 0078 0028     		cmp	r0, #0
 3392 007a 01D0     		beq	.L229
ARM GAS  C:\Users\haske\AppData\Local\Temp\ccswauRt.s 			page 85


 3393              		.loc 1 1222 0 discriminator 2
 3394 007c B245     		cmp	r10, r6
 3395 007e 13D2     		bcs	.L228
 3396              	.L229:
1223:..\..\..\arduinoLCD\test\Pain Drain\libraries\lvgl\src\misc/lv_tlsf.c ****             p = lv_tlsf_malloc(tlsf, size);
 3397              		.loc 1 1223 0 is_stmt 1
 3398 0080 2100     		movs	r1, r4
 3399 0082 0198     		ldr	r0, [sp, #4]
 3400 0084 FFF7FEFF 		bl	lv_tlsf_malloc
 3401              	.LVL472:
 3402 0088 061E     		subs	r6, r0, #0
 3403              	.LVL473:
1224:..\..\..\arduinoLCD\test\Pain Drain\libraries\lvgl\src\misc/lv_tlsf.c ****             if(p) {
 3404              		.loc 1 1224 0
 3405 008a 20D0     		beq	.L233
 3406              	.LBB16:
1225:..\..\..\arduinoLCD\test\Pain Drain\libraries\lvgl\src\misc/lv_tlsf.c ****                 const size_t minsize = tlsf_min(cursize, size);
 3407              		.loc 1 1225 0
 3408 008c 2200     		movs	r2, r4
 3409 008e BC42     		cmp	r4, r7
 3410 0090 00D9     		bls	.L230
 3411              	.LVL474:
 3412 0092 3A00     		movs	r2, r7
 3413              	.LVL475:
 3414              	.L230:
1226:..\..\..\arduinoLCD\test\Pain Drain\libraries\lvgl\src\misc/lv_tlsf.c ****                 lv_memcpy(p, ptr, minsize);
 3415              		.loc 1 1226 0
 3416 0094 2900     		movs	r1, r5
 3417 0096 3000     		movs	r0, r6
 3418              	.LVL476:
 3419 0098 FFF7FEFF 		bl	lv_memcpy
 3420              	.LVL477:
1227:..\..\..\arduinoLCD\test\Pain Drain\libraries\lvgl\src\misc/lv_tlsf.c ****                 lv_tlsf_free(tlsf, ptr);
 3421              		.loc 1 1227 0
 3422 009c 2900     		movs	r1, r5
 3423 009e 0198     		ldr	r0, [sp, #4]
 3424 00a0 FFF7FEFF 		bl	lv_tlsf_free
 3425              	.LVL478:
 3426              	.LBE16:
1223:..\..\..\arduinoLCD\test\Pain Drain\libraries\lvgl\src\misc/lv_tlsf.c ****             if(p) {
 3427              		.loc 1 1223 0
 3428 00a4 3000     		movs	r0, r6
 3429 00a6 12E0     		b	.L223
 3430              	.LVL479:
 3431              	.L228:
1228:..\..\..\arduinoLCD\test\Pain Drain\libraries\lvgl\src\misc/lv_tlsf.c ****             }
1229:..\..\..\arduinoLCD\test\Pain Drain\libraries\lvgl\src\misc/lv_tlsf.c ****         }
1230:..\..\..\arduinoLCD\test\Pain Drain\libraries\lvgl\src\misc/lv_tlsf.c ****         else {
1231:..\..\..\arduinoLCD\test\Pain Drain\libraries\lvgl\src\misc/lv_tlsf.c ****             /* Do we need to expand to the next block? */
1232:..\..\..\arduinoLCD\test\Pain Drain\libraries\lvgl\src\misc/lv_tlsf.c ****             if(adjust > cursize) {
 3432              		.loc 1 1232 0
 3433 00a8 B742     		cmp	r7, r6
 3434 00aa 07D2     		bcs	.L231
1233:..\..\..\arduinoLCD\test\Pain Drain\libraries\lvgl\src\misc/lv_tlsf.c ****                 block_merge_next(control, block);
 3435              		.loc 1 1233 0
 3436 00ac 029C     		ldr	r4, [sp, #8]
 3437              	.LVL480:
ARM GAS  C:\Users\haske\AppData\Local\Temp\ccswauRt.s 			page 86


 3438 00ae 2100     		movs	r1, r4
 3439 00b0 0198     		ldr	r0, [sp, #4]
 3440 00b2 FFF7FEFF 		bl	block_merge_next
 3441              	.LVL481:
1234:..\..\..\arduinoLCD\test\Pain Drain\libraries\lvgl\src\misc/lv_tlsf.c ****                 block_mark_as_used(block);
 3442              		.loc 1 1234 0
 3443 00b6 2000     		movs	r0, r4
 3444 00b8 FFF7FEFF 		bl	block_mark_as_used
 3445              	.LVL482:
 3446              	.L231:
1235:..\..\..\arduinoLCD\test\Pain Drain\libraries\lvgl\src\misc/lv_tlsf.c ****             }
1236:..\..\..\arduinoLCD\test\Pain Drain\libraries\lvgl\src\misc/lv_tlsf.c **** 
1237:..\..\..\arduinoLCD\test\Pain Drain\libraries\lvgl\src\misc/lv_tlsf.c ****             /* Trim the resulting block and return the original pointer. */
1238:..\..\..\arduinoLCD\test\Pain Drain\libraries\lvgl\src\misc/lv_tlsf.c ****             block_trim_used(control, block, adjust);
 3447              		.loc 1 1238 0
 3448 00bc 3200     		movs	r2, r6
 3449 00be 0299     		ldr	r1, [sp, #8]
 3450 00c0 0198     		ldr	r0, [sp, #4]
 3451 00c2 FFF7FEFF 		bl	block_trim_used
 3452              	.LVL483:
1239:..\..\..\arduinoLCD\test\Pain Drain\libraries\lvgl\src\misc/lv_tlsf.c ****             p = ptr;
 3453              		.loc 1 1239 0
 3454 00c6 2800     		movs	r0, r5
 3455 00c8 01E0     		b	.L223
 3456              	.LVL484:
 3457              	.L232:
1213:..\..\..\arduinoLCD\test\Pain Drain\libraries\lvgl\src\misc/lv_tlsf.c ****         }
 3458              		.loc 1 1213 0
 3459 00ca 0020     		movs	r0, #0
 3460              	.LVL485:
 3461 00cc FFE7     		b	.L223
 3462              	.LVL486:
 3463              	.L233:
 3464              	.L223:
 3465              	.LBE15:
1240:..\..\..\arduinoLCD\test\Pain Drain\libraries\lvgl\src\misc/lv_tlsf.c ****         }
1241:..\..\..\arduinoLCD\test\Pain Drain\libraries\lvgl\src\misc/lv_tlsf.c ****     }
1242:..\..\..\arduinoLCD\test\Pain Drain\libraries\lvgl\src\misc/lv_tlsf.c **** 
1243:..\..\..\arduinoLCD\test\Pain Drain\libraries\lvgl\src\misc/lv_tlsf.c ****     return p;
1244:..\..\..\arduinoLCD\test\Pain Drain\libraries\lvgl\src\misc/lv_tlsf.c **** }
 3466              		.loc 1 1244 0
 3467 00ce 04B0     		add	sp, sp, #16
 3468              		@ sp needed
 3469              	.LVL487:
 3470 00d0 04BC     		pop	{r2}
 3471 00d2 9246     		mov	r10, r2
 3472 00d4 F0BD     		pop	{r4, r5, r6, r7, pc}
 3473              		.cfi_endproc
 3474              	.LFE63:
 3475              		.size	lv_tlsf_realloc, .-lv_tlsf_realloc
 3476 00d6 C046     		.text
 3477              	.Letext0:
 3478              		.file 2 "c:\\program files (x86)\\cypress\\psoc creator\\4.4\\psoc creator\\import\\gnu\\arm\\5.4.
 3479              		.file 3 "..\\..\\..\\arduinoLCD\\test\\Pain Drain\\libraries\\lvgl\\src\\misc\\lv_tlsf.h"
 3480              		.file 4 "..\\..\\..\\arduinoLCD\\test\\Pain Drain\\libraries\\lvgl\\src\\misc\\lv_mem.h"
 3481              		.section	.debug_info,"",%progbits
 3482              	.Ldebug_info0:
ARM GAS  C:\Users\haske\AppData\Local\Temp\ccswauRt.s 			page 87


 3483 0000 10220000 		.4byte	0x2210
 3484 0004 0400     		.2byte	0x4
 3485 0006 00000000 		.4byte	.Ldebug_abbrev0
 3486 000a 04       		.byte	0x4
 3487 000b 01       		.uleb128 0x1
 3488 000c 72010000 		.4byte	.LASF149
 3489 0010 0C       		.byte	0xc
 3490 0011 AD020000 		.4byte	.LASF150
 3491 0015 B7040000 		.4byte	.LASF151
 3492 0019 18000000 		.4byte	.Ldebug_ranges0+0x18
 3493 001d 00000000 		.4byte	0
 3494 0021 00000000 		.4byte	.Ldebug_line0
 3495 0025 02       		.uleb128 0x2
 3496 0026 01       		.byte	0x1
 3497 0027 06       		.byte	0x6
 3498 0028 E6070000 		.4byte	.LASF0
 3499 002c 02       		.uleb128 0x2
 3500 002d 01       		.byte	0x1
 3501 002e 08       		.byte	0x8
 3502 002f 2F070000 		.4byte	.LASF1
 3503 0033 02       		.uleb128 0x2
 3504 0034 02       		.byte	0x2
 3505 0035 05       		.byte	0x5
 3506 0036 F8050000 		.4byte	.LASF2
 3507 003a 02       		.uleb128 0x2
 3508 003b 02       		.byte	0x2
 3509 003c 07       		.byte	0x7
 3510 003d 00080000 		.4byte	.LASF3
 3511 0041 02       		.uleb128 0x2
 3512 0042 04       		.byte	0x4
 3513 0043 05       		.byte	0x5
 3514 0044 13060000 		.4byte	.LASF4
 3515 0048 02       		.uleb128 0x2
 3516 0049 04       		.byte	0x4
 3517 004a 07       		.byte	0x7
 3518 004b F9060000 		.4byte	.LASF5
 3519 004f 02       		.uleb128 0x2
 3520 0050 08       		.byte	0x8
 3521 0051 05       		.byte	0x5
 3522 0052 7B040000 		.4byte	.LASF6
 3523 0056 02       		.uleb128 0x2
 3524 0057 08       		.byte	0x8
 3525 0058 07       		.byte	0x7
 3526 0059 3D020000 		.4byte	.LASF7
 3527 005d 03       		.uleb128 0x3
 3528 005e 04       		.byte	0x4
 3529 005f 05       		.byte	0x5
 3530 0060 696E7400 		.ascii	"int\000"
 3531 0064 02       		.uleb128 0x2
 3532 0065 04       		.byte	0x4
 3533 0066 07       		.byte	0x7
 3534 0067 44000000 		.4byte	.LASF8
 3535 006b 04       		.uleb128 0x4
 3536 006c 14040000 		.4byte	.LASF9
 3537 0070 02       		.byte	0x2
 3538 0071 95       		.byte	0x95
 3539 0072 5D000000 		.4byte	0x5d
ARM GAS  C:\Users\haske\AppData\Local\Temp\ccswauRt.s 			page 88


 3540 0076 04       		.uleb128 0x4
 3541 0077 46030000 		.4byte	.LASF10
 3542 007b 02       		.byte	0x2
 3543 007c D8       		.byte	0xd8
 3544 007d 64000000 		.4byte	0x64
 3545 0081 02       		.uleb128 0x2
 3546 0082 08       		.byte	0x8
 3547 0083 04       		.byte	0x4
 3548 0084 B9050000 		.4byte	.LASF11
 3549 0088 04       		.uleb128 0x4
 3550 0089 1B050000 		.4byte	.LASF12
 3551 008d 03       		.byte	0x3
 3552 008e 34       		.byte	0x34
 3553 008f 93000000 		.4byte	0x93
 3554 0093 05       		.uleb128 0x5
 3555 0094 04       		.byte	0x4
 3556 0095 04       		.uleb128 0x4
 3557 0096 9D000000 		.4byte	.LASF13
 3558 009a 03       		.byte	0x3
 3559 009b 35       		.byte	0x35
 3560 009c 93000000 		.4byte	0x93
 3561 00a0 04       		.uleb128 0x4
 3562 00a1 80020000 		.4byte	.LASF14
 3563 00a5 03       		.byte	0x3
 3564 00a6 53       		.byte	0x53
 3565 00a7 AB000000 		.4byte	0xab
 3566 00ab 06       		.uleb128 0x6
 3567 00ac 04       		.byte	0x4
 3568 00ad B1000000 		.4byte	0xb1
 3569 00b1 07       		.uleb128 0x7
 3570 00b2 CB000000 		.4byte	0xcb
 3571 00b6 08       		.uleb128 0x8
 3572 00b7 93000000 		.4byte	0x93
 3573 00bb 08       		.uleb128 0x8
 3574 00bc 76000000 		.4byte	0x76
 3575 00c0 08       		.uleb128 0x8
 3576 00c1 5D000000 		.4byte	0x5d
 3577 00c5 08       		.uleb128 0x8
 3578 00c6 93000000 		.4byte	0x93
 3579 00ca 00       		.byte	0
 3580 00cb 02       		.uleb128 0x2
 3581 00cc 04       		.byte	0x4
 3582 00cd 07       		.byte	0x7
 3583 00ce F0060000 		.4byte	.LASF15
 3584 00d2 02       		.uleb128 0x2
 3585 00d3 01       		.byte	0x1
 3586 00d4 08       		.byte	0x8
 3587 00d5 EF030000 		.4byte	.LASF16
 3588 00d9 09       		.uleb128 0x9
 3589 00da 8E060000 		.4byte	.LASF17
 3590 00de 01       		.byte	0x1
 3591 00df 2C000000 		.4byte	0x2c
 3592 00e3 01       		.byte	0x1
 3593 00e4 DE       		.byte	0xde
 3594 00e5 F0000000 		.4byte	0xf0
 3595 00e9 0A       		.uleb128 0xa
 3596 00ea 35050000 		.4byte	.LASF19
ARM GAS  C:\Users\haske\AppData\Local\Temp\ccswauRt.s 			page 89


 3597 00ee 05       		.byte	0x5
 3598 00ef 00       		.byte	0
 3599 00f0 09       		.uleb128 0x9
 3600 00f1 86030000 		.4byte	.LASF18
 3601 00f5 01       		.byte	0x1
 3602 00f6 2C000000 		.4byte	0x2c
 3603 00fa 01       		.byte	0x1
 3604 00fb E7       		.byte	0xe7
 3605 00fc 2B010000 		.4byte	0x12b
 3606 0100 0A       		.uleb128 0xa
 3607 0101 3D070000 		.4byte	.LASF20
 3608 0105 02       		.byte	0x2
 3609 0106 0A       		.uleb128 0xa
 3610 0107 2A050000 		.4byte	.LASF21
 3611 010b 04       		.byte	0x4
 3612 010c 0A       		.uleb128 0xa
 3613 010d 04010000 		.4byte	.LASF22
 3614 0111 10       		.byte	0x10
 3615 0112 0A       		.uleb128 0xa
 3616 0113 00000000 		.4byte	.LASF23
 3617 0117 20       		.byte	0x20
 3618 0118 0A       		.uleb128 0xa
 3619 0119 8F020000 		.4byte	.LASF24
 3620 011d 07       		.byte	0x7
 3621 011e 0A       		.uleb128 0xa
 3622 011f DC000000 		.4byte	.LASF25
 3623 0123 0A       		.byte	0xa
 3624 0124 0A       		.uleb128 0xa
 3625 0125 35030000 		.4byte	.LASF26
 3626 0129 80       		.byte	0x80
 3627 012a 00       		.byte	0
 3628 012b 0B       		.uleb128 0xb
 3629 012c 63010000 		.4byte	.LASF31
 3630 0130 10       		.byte	0x10
 3631 0131 01       		.byte	0x1
 3632 0132 4101     		.2byte	0x141
 3633 0134 6D010000 		.4byte	0x16d
 3634 0138 0C       		.uleb128 0xc
 3635 0139 2C000000 		.4byte	.LASF27
 3636 013d 01       		.byte	0x1
 3637 013e 4301     		.2byte	0x143
 3638 0140 6D010000 		.4byte	0x16d
 3639 0144 00       		.byte	0
 3640 0145 0C       		.uleb128 0xc
 3641 0146 25050000 		.4byte	.LASF28
 3642 014a 01       		.byte	0x1
 3643 014b 4601     		.2byte	0x146
 3644 014d 76000000 		.4byte	0x76
 3645 0151 04       		.byte	0x4
 3646 0152 0C       		.uleb128 0xc
 3647 0153 A7000000 		.4byte	.LASF29
 3648 0157 01       		.byte	0x1
 3649 0158 4901     		.2byte	0x149
 3650 015a 6D010000 		.4byte	0x16d
 3651 015e 08       		.byte	0x8
 3652 015f 0C       		.uleb128 0xc
 3653 0160 22000000 		.4byte	.LASF30
ARM GAS  C:\Users\haske\AppData\Local\Temp\ccswauRt.s 			page 90


 3654 0164 01       		.byte	0x1
 3655 0165 4A01     		.2byte	0x14a
 3656 0167 6D010000 		.4byte	0x16d
 3657 016b 0C       		.byte	0xc
 3658 016c 00       		.byte	0
 3659 016d 06       		.uleb128 0x6
 3660 016e 04       		.byte	0x4
 3661 016f 2B010000 		.4byte	0x12b
 3662 0173 0D       		.uleb128 0xd
 3663 0174 63010000 		.4byte	.LASF31
 3664 0178 01       		.byte	0x1
 3665 0179 4B01     		.2byte	0x14b
 3666 017b 2B010000 		.4byte	0x12b
 3667 017f 0E       		.uleb128 0xe
 3668 0180 0B070000 		.4byte	.LASF32
 3669 0184 3C05     		.2byte	0x53c
 3670 0186 01       		.byte	0x1
 3671 0187 6B01     		.2byte	0x16b
 3672 0189 C2010000 		.4byte	0x1c2
 3673 018d 0C       		.uleb128 0xc
 3674 018e 22060000 		.4byte	.LASF33
 3675 0192 01       		.byte	0x1
 3676 0193 6D01     		.2byte	0x16d
 3677 0195 73010000 		.4byte	0x173
 3678 0199 00       		.byte	0
 3679 019a 0C       		.uleb128 0xc
 3680 019b 78070000 		.4byte	.LASF34
 3681 019f 01       		.byte	0x1
 3682 01a0 7001     		.2byte	0x170
 3683 01a2 64000000 		.4byte	0x64
 3684 01a6 10       		.byte	0x10
 3685 01a7 0C       		.uleb128 0xc
 3686 01a8 49050000 		.4byte	.LASF35
 3687 01ac 01       		.byte	0x1
 3688 01ad 7101     		.2byte	0x171
 3689 01af C2010000 		.4byte	0x1c2
 3690 01b3 14       		.byte	0x14
 3691 01b4 0C       		.uleb128 0xc
 3692 01b5 65050000 		.4byte	.LASF36
 3693 01b9 01       		.byte	0x1
 3694 01ba 7401     		.2byte	0x174
 3695 01bc D2010000 		.4byte	0x1d2
 3696 01c0 3C       		.byte	0x3c
 3697 01c1 00       		.byte	0
 3698 01c2 0F       		.uleb128 0xf
 3699 01c3 64000000 		.4byte	0x64
 3700 01c7 D2010000 		.4byte	0x1d2
 3701 01cb 10       		.uleb128 0x10
 3702 01cc CB000000 		.4byte	0xcb
 3703 01d0 09       		.byte	0x9
 3704 01d1 00       		.byte	0
 3705 01d2 0F       		.uleb128 0xf
 3706 01d3 E8010000 		.4byte	0x1e8
 3707 01d7 E8010000 		.4byte	0x1e8
 3708 01db 10       		.uleb128 0x10
 3709 01dc CB000000 		.4byte	0xcb
 3710 01e0 09       		.byte	0x9
ARM GAS  C:\Users\haske\AppData\Local\Temp\ccswauRt.s 			page 91


 3711 01e1 10       		.uleb128 0x10
 3712 01e2 CB000000 		.4byte	0xcb
 3713 01e6 1F       		.byte	0x1f
 3714 01e7 00       		.byte	0
 3715 01e8 06       		.uleb128 0x6
 3716 01e9 04       		.byte	0x4
 3717 01ea 73010000 		.4byte	0x173
 3718 01ee 0D       		.uleb128 0xd
 3719 01ef 0B070000 		.4byte	.LASF32
 3720 01f3 01       		.byte	0x1
 3721 01f4 7501     		.2byte	0x175
 3722 01f6 7F010000 		.4byte	0x17f
 3723 01fa 0D       		.uleb128 0xd
 3724 01fb 25070000 		.4byte	.LASF37
 3725 01ff 01       		.byte	0x1
 3726 0200 7801     		.2byte	0x178
 3727 0202 6B000000 		.4byte	0x6b
 3728 0206 0B       		.uleb128 0xb
 3729 0207 5D070000 		.4byte	.LASF38
 3730 020b 08       		.byte	0x8
 3731 020c 01       		.byte	0x1
 3732 020d 2F03     		.2byte	0x32f
 3733 020f 2E020000 		.4byte	0x22e
 3734 0213 0C       		.uleb128 0xc
 3735 0214 3C010000 		.4byte	.LASF39
 3736 0218 01       		.byte	0x1
 3737 0219 3003     		.2byte	0x330
 3738 021b 5D000000 		.4byte	0x5d
 3739 021f 00       		.byte	0
 3740 0220 0C       		.uleb128 0xc
 3741 0221 39040000 		.4byte	.LASF40
 3742 0225 01       		.byte	0x1
 3743 0226 3103     		.2byte	0x331
 3744 0228 5D000000 		.4byte	0x5d
 3745 022c 04       		.byte	0x4
 3746 022d 00       		.byte	0
 3747 022e 0D       		.uleb128 0xd
 3748 022f 5D070000 		.4byte	.LASF38
 3749 0233 01       		.byte	0x1
 3750 0234 3203     		.2byte	0x332
 3751 0236 06020000 		.4byte	0x206
 3752 023a 11       		.uleb128 0x11
 3753 023b 73060000 		.4byte	.LASF42
 3754 023f 01       		.byte	0x1
 3755 0240 7E01     		.2byte	0x17e
 3756 0242 76000000 		.4byte	0x76
 3757 0246 00000000 		.4byte	.LFB3
 3758 024a 08000000 		.4byte	.LFE3-.LFB3
 3759 024e 01       		.uleb128 0x1
 3760 024f 9C       		.byte	0x9c
 3761 0250 65020000 		.4byte	0x265
 3762 0254 12       		.uleb128 0x12
 3763 0255 88060000 		.4byte	.LASF41
 3764 0259 01       		.byte	0x1
 3765 025a 7E01     		.2byte	0x17e
 3766 025c 65020000 		.4byte	0x265
 3767 0260 00000000 		.4byte	.LLST0
ARM GAS  C:\Users\haske\AppData\Local\Temp\ccswauRt.s 			page 92


 3768 0264 00       		.byte	0
 3769 0265 06       		.uleb128 0x6
 3770 0266 04       		.byte	0x4
 3771 0267 6B020000 		.4byte	0x26b
 3772 026b 13       		.uleb128 0x13
 3773 026c 73010000 		.4byte	0x173
 3774 0270 14       		.uleb128 0x14
 3775 0271 D6050000 		.4byte	.LASF45
 3776 0275 01       		.byte	0x1
 3777 0276 8301     		.2byte	0x183
 3778 0278 00000000 		.4byte	.LFB4
 3779 027c 0C000000 		.4byte	.LFE4-.LFB4
 3780 0280 01       		.uleb128 0x1
 3781 0281 9C       		.byte	0x9c
 3782 0282 B5020000 		.4byte	0x2b5
 3783 0286 15       		.uleb128 0x15
 3784 0287 88060000 		.4byte	.LASF41
 3785 028b 01       		.byte	0x1
 3786 028c 8301     		.2byte	0x183
 3787 028e E8010000 		.4byte	0x1e8
 3788 0292 01       		.uleb128 0x1
 3789 0293 50       		.byte	0x50
 3790 0294 12       		.uleb128 0x12
 3791 0295 25050000 		.4byte	.LASF28
 3792 0299 01       		.byte	0x1
 3793 029a 8301     		.2byte	0x183
 3794 029c 76000000 		.4byte	0x76
 3795 02a0 21000000 		.4byte	.LLST1
 3796 02a4 16       		.uleb128 0x16
 3797 02a5 B6080000 		.4byte	.LASF56
 3798 02a9 01       		.byte	0x1
 3799 02aa 8501     		.2byte	0x185
 3800 02ac B5020000 		.4byte	0x2b5
 3801 02b0 42000000 		.4byte	.LLST2
 3802 02b4 00       		.byte	0
 3803 02b5 13       		.uleb128 0x13
 3804 02b6 76000000 		.4byte	0x76
 3805 02ba 11       		.uleb128 0x11
 3806 02bb 89050000 		.4byte	.LASF43
 3807 02bf 01       		.byte	0x1
 3808 02c0 8901     		.2byte	0x189
 3809 02c2 5D000000 		.4byte	0x5d
 3810 02c6 00000000 		.4byte	.LFB5
 3811 02ca 0E000000 		.4byte	.LFE5-.LFB5
 3812 02ce 01       		.uleb128 0x1
 3813 02cf 9C       		.byte	0x9c
 3814 02d0 F6020000 		.4byte	0x2f6
 3815 02d4 12       		.uleb128 0x12
 3816 02d5 88060000 		.4byte	.LASF41
 3817 02d9 01       		.byte	0x1
 3818 02da 8901     		.2byte	0x189
 3819 02dc 65020000 		.4byte	0x265
 3820 02e0 61000000 		.4byte	.LLST3
 3821 02e4 17       		.uleb128 0x17
 3822 02e5 06000000 		.4byte	.LVL6
 3823 02e9 3A020000 		.4byte	0x23a
 3824 02ed 18       		.uleb128 0x18
ARM GAS  C:\Users\haske\AppData\Local\Temp\ccswauRt.s 			page 93


 3825 02ee 01       		.uleb128 0x1
 3826 02ef 50       		.byte	0x50
 3827 02f0 03       		.uleb128 0x3
 3828 02f1 F3       		.byte	0xf3
 3829 02f2 01       		.uleb128 0x1
 3830 02f3 50       		.byte	0x50
 3831 02f4 00       		.byte	0
 3832 02f5 00       		.byte	0
 3833 02f6 11       		.uleb128 0x11
 3834 02f7 89080000 		.4byte	.LASF44
 3835 02fb 01       		.byte	0x1
 3836 02fc 8E01     		.2byte	0x18e
 3837 02fe 5D000000 		.4byte	0x5d
 3838 0302 00000000 		.4byte	.LFB6
 3839 0306 08000000 		.4byte	.LFE6-.LFB6
 3840 030a 01       		.uleb128 0x1
 3841 030b 9C       		.byte	0x9c
 3842 030c 21030000 		.4byte	0x321
 3843 0310 12       		.uleb128 0x12
 3844 0311 88060000 		.4byte	.LASF41
 3845 0315 01       		.byte	0x1
 3846 0316 8E01     		.2byte	0x18e
 3847 0318 65020000 		.4byte	0x265
 3848 031c 82000000 		.4byte	.LLST4
 3849 0320 00       		.byte	0
 3850 0321 14       		.uleb128 0x14
 3851 0322 54030000 		.4byte	.LASF46
 3852 0326 01       		.byte	0x1
 3853 0327 9301     		.2byte	0x193
 3854 0329 00000000 		.4byte	.LFB7
 3855 032d 0A000000 		.4byte	.LFE7-.LFB7
 3856 0331 01       		.uleb128 0x1
 3857 0332 9C       		.byte	0x9c
 3858 0333 46030000 		.4byte	0x346
 3859 0337 15       		.uleb128 0x15
 3860 0338 88060000 		.4byte	.LASF41
 3861 033c 01       		.byte	0x1
 3862 033d 9301     		.2byte	0x193
 3863 033f E8010000 		.4byte	0x1e8
 3864 0343 01       		.uleb128 0x1
 3865 0344 50       		.byte	0x50
 3866 0345 00       		.byte	0
 3867 0346 14       		.uleb128 0x14
 3868 0347 E0030000 		.4byte	.LASF47
 3869 034b 01       		.byte	0x1
 3870 034c 9801     		.2byte	0x198
 3871 034e 00000000 		.4byte	.LFB8
 3872 0352 0A000000 		.4byte	.LFE8-.LFB8
 3873 0356 01       		.uleb128 0x1
 3874 0357 9C       		.byte	0x9c
 3875 0358 6B030000 		.4byte	0x36b
 3876 035c 15       		.uleb128 0x15
 3877 035d 88060000 		.4byte	.LASF41
 3878 0361 01       		.byte	0x1
 3879 0362 9801     		.2byte	0x198
 3880 0364 E8010000 		.4byte	0x1e8
 3881 0368 01       		.uleb128 0x1
ARM GAS  C:\Users\haske\AppData\Local\Temp\ccswauRt.s 			page 94


 3882 0369 50       		.byte	0x50
 3883 036a 00       		.byte	0
 3884 036b 11       		.uleb128 0x11
 3885 036c 82070000 		.4byte	.LASF48
 3886 0370 01       		.byte	0x1
 3887 0371 9D01     		.2byte	0x19d
 3888 0373 5D000000 		.4byte	0x5d
 3889 0377 00000000 		.4byte	.LFB9
 3890 037b 08000000 		.4byte	.LFE9-.LFB9
 3891 037f 01       		.uleb128 0x1
 3892 0380 9C       		.byte	0x9c
 3893 0381 96030000 		.4byte	0x396
 3894 0385 12       		.uleb128 0x12
 3895 0386 88060000 		.4byte	.LASF41
 3896 038a 01       		.byte	0x1
 3897 038b 9D01     		.2byte	0x19d
 3898 038d 65020000 		.4byte	0x265
 3899 0391 A3000000 		.4byte	.LLST5
 3900 0395 00       		.byte	0
 3901 0396 14       		.uleb128 0x14
 3902 0397 A2070000 		.4byte	.LASF49
 3903 039b 01       		.byte	0x1
 3904 039c A201     		.2byte	0x1a2
 3905 039e 00000000 		.4byte	.LFB10
 3906 03a2 0A000000 		.4byte	.LFE10-.LFB10
 3907 03a6 01       		.uleb128 0x1
 3908 03a7 9C       		.byte	0x9c
 3909 03a8 BB030000 		.4byte	0x3bb
 3910 03ac 15       		.uleb128 0x15
 3911 03ad 88060000 		.4byte	.LASF41
 3912 03b1 01       		.byte	0x1
 3913 03b2 A201     		.2byte	0x1a2
 3914 03b4 E8010000 		.4byte	0x1e8
 3915 03b8 01       		.uleb128 0x1
 3916 03b9 50       		.byte	0x50
 3917 03ba 00       		.byte	0
 3918 03bb 14       		.uleb128 0x14
 3919 03bc 13080000 		.4byte	.LASF50
 3920 03c0 01       		.byte	0x1
 3921 03c1 A701     		.2byte	0x1a7
 3922 03c3 00000000 		.4byte	.LFB11
 3923 03c7 0A000000 		.4byte	.LFE11-.LFB11
 3924 03cb 01       		.uleb128 0x1
 3925 03cc 9C       		.byte	0x9c
 3926 03cd E0030000 		.4byte	0x3e0
 3927 03d1 15       		.uleb128 0x15
 3928 03d2 88060000 		.4byte	.LASF41
 3929 03d6 01       		.byte	0x1
 3930 03d7 A701     		.2byte	0x1a7
 3931 03d9 E8010000 		.4byte	0x1e8
 3932 03dd 01       		.uleb128 0x1
 3933 03de 50       		.byte	0x50
 3934 03df 00       		.byte	0
 3935 03e0 11       		.uleb128 0x11
 3936 03e1 11010000 		.4byte	.LASF51
 3937 03e5 01       		.byte	0x1
 3938 03e6 AC01     		.2byte	0x1ac
ARM GAS  C:\Users\haske\AppData\Local\Temp\ccswauRt.s 			page 95


 3939 03e8 E8010000 		.4byte	0x1e8
 3940 03ec 00000000 		.4byte	.LFB12
 3941 03f0 04000000 		.4byte	.LFE12-.LFB12
 3942 03f4 01       		.uleb128 0x1
 3943 03f5 9C       		.byte	0x9c
 3944 03f6 0B040000 		.4byte	0x40b
 3945 03fa 19       		.uleb128 0x19
 3946 03fb 70747200 		.ascii	"ptr\000"
 3947 03ff 01       		.byte	0x1
 3948 0400 AC01     		.2byte	0x1ac
 3949 0402 0B040000 		.4byte	0x40b
 3950 0406 C4000000 		.4byte	.LLST6
 3951 040a 00       		.byte	0
 3952 040b 06       		.uleb128 0x6
 3953 040c 04       		.byte	0x4
 3954 040d 11040000 		.4byte	0x411
 3955 0411 1A       		.uleb128 0x1a
 3956 0412 11       		.uleb128 0x11
 3957 0413 27080000 		.4byte	.LASF52
 3958 0417 01       		.byte	0x1
 3959 0418 B201     		.2byte	0x1b2
 3960 041a 93000000 		.4byte	0x93
 3961 041e 00000000 		.4byte	.LFB13
 3962 0422 04000000 		.4byte	.LFE13-.LFB13
 3963 0426 01       		.uleb128 0x1
 3964 0427 9C       		.byte	0x9c
 3965 0428 3D040000 		.4byte	0x43d
 3966 042c 12       		.uleb128 0x12
 3967 042d 88060000 		.4byte	.LASF41
 3968 0431 01       		.byte	0x1
 3969 0432 B201     		.2byte	0x1b2
 3970 0434 65020000 		.4byte	0x265
 3971 0438 E4000000 		.4byte	.LLST7
 3972 043c 00       		.byte	0
 3973 043d 11       		.uleb128 0x11
 3974 043e A6080000 		.4byte	.LASF53
 3975 0442 01       		.byte	0x1
 3976 0443 B901     		.2byte	0x1b9
 3977 0445 E8010000 		.4byte	0x1e8
 3978 0449 00000000 		.4byte	.LFB14
 3979 044d 04000000 		.4byte	.LFE14-.LFB14
 3980 0451 01       		.uleb128 0x1
 3981 0452 9C       		.byte	0x9c
 3982 0453 76040000 		.4byte	0x476
 3983 0457 19       		.uleb128 0x19
 3984 0458 70747200 		.ascii	"ptr\000"
 3985 045c 01       		.byte	0x1
 3986 045d B901     		.2byte	0x1b9
 3987 045f 0B040000 		.4byte	0x40b
 3988 0463 04010000 		.4byte	.LLST8
 3989 0467 15       		.uleb128 0x15
 3990 0468 25050000 		.4byte	.LASF28
 3991 046c 01       		.byte	0x1
 3992 046d B901     		.2byte	0x1b9
 3993 046f 76000000 		.4byte	0x76
 3994 0473 01       		.uleb128 0x1
 3995 0474 51       		.byte	0x51
ARM GAS  C:\Users\haske\AppData\Local\Temp\ccswauRt.s 			page 96


 3996 0475 00       		.byte	0
 3997 0476 11       		.uleb128 0x11
 3998 0477 20010000 		.4byte	.LASF54
 3999 047b 01       		.byte	0x1
 4000 047c BF01     		.2byte	0x1bf
 4001 047e E8010000 		.4byte	0x1e8
 4002 0482 00000000 		.4byte	.LFB15
 4003 0486 12000000 		.4byte	.LFE15-.LFB15
 4004 048a 01       		.uleb128 0x1
 4005 048b 9C       		.byte	0x9c
 4006 048c B1040000 		.4byte	0x4b1
 4007 0490 12       		.uleb128 0x12
 4008 0491 88060000 		.4byte	.LASF41
 4009 0495 01       		.byte	0x1
 4010 0496 BF01     		.2byte	0x1bf
 4011 0498 65020000 		.4byte	0x265
 4012 049c 25010000 		.4byte	.LLST9
 4013 04a0 17       		.uleb128 0x17
 4014 04a1 08000000 		.4byte	.LVL22
 4015 04a5 6B030000 		.4byte	0x36b
 4016 04a9 18       		.uleb128 0x18
 4017 04aa 01       		.uleb128 0x1
 4018 04ab 50       		.byte	0x50
 4019 04ac 02       		.uleb128 0x2
 4020 04ad 74       		.byte	0x74
 4021 04ae 00       		.sleb128 0
 4022 04af 00       		.byte	0
 4023 04b0 00       		.byte	0
 4024 04b1 11       		.uleb128 0x11
 4025 04b2 71050000 		.4byte	.LASF55
 4026 04b6 01       		.byte	0x1
 4027 04b7 C601     		.2byte	0x1c6
 4028 04b9 E8010000 		.4byte	0x1e8
 4029 04bd 00000000 		.4byte	.LFB16
 4030 04c1 2A000000 		.4byte	.LFE16-.LFB16
 4031 04c5 01       		.uleb128 0x1
 4032 04c6 9C       		.byte	0x9c
 4033 04c7 38050000 		.4byte	0x538
 4034 04cb 12       		.uleb128 0x12
 4035 04cc 88060000 		.4byte	.LASF41
 4036 04d0 01       		.byte	0x1
 4037 04d1 C601     		.2byte	0x1c6
 4038 04d3 65020000 		.4byte	0x265
 4039 04d7 51010000 		.4byte	.LLST10
 4040 04db 16       		.uleb128 0x16
 4041 04dc 51000000 		.4byte	.LASF57
 4042 04e0 01       		.byte	0x1
 4043 04e1 C801     		.2byte	0x1c8
 4044 04e3 E8010000 		.4byte	0x1e8
 4045 04e7 7D010000 		.4byte	.LLST11
 4046 04eb 1B       		.uleb128 0x1b
 4047 04ec 08000000 		.4byte	.LVL25
 4048 04f0 12040000 		.4byte	0x412
 4049 04f4 FF040000 		.4byte	0x4ff
 4050 04f8 18       		.uleb128 0x18
 4051 04f9 01       		.uleb128 0x1
 4052 04fa 50       		.byte	0x50
ARM GAS  C:\Users\haske\AppData\Local\Temp\ccswauRt.s 			page 97


 4053 04fb 02       		.uleb128 0x2
 4054 04fc 74       		.byte	0x74
 4055 04fd 00       		.sleb128 0
 4056 04fe 00       		.byte	0
 4057 04ff 1B       		.uleb128 0x1b
 4058 0500 10000000 		.4byte	.LVL26
 4059 0504 3A020000 		.4byte	0x23a
 4060 0508 13050000 		.4byte	0x513
 4061 050c 18       		.uleb128 0x18
 4062 050d 01       		.uleb128 0x1
 4063 050e 50       		.byte	0x50
 4064 050f 02       		.uleb128 0x2
 4065 0510 74       		.byte	0x74
 4066 0511 00       		.sleb128 0
 4067 0512 00       		.byte	0
 4068 0513 1B       		.uleb128 0x1b
 4069 0514 18000000 		.4byte	.LVL27
 4070 0518 3D040000 		.4byte	0x43d
 4071 051c 27050000 		.4byte	0x527
 4072 0520 18       		.uleb128 0x18
 4073 0521 01       		.uleb128 0x1
 4074 0522 50       		.byte	0x50
 4075 0523 02       		.uleb128 0x2
 4076 0524 75       		.byte	0x75
 4077 0525 00       		.sleb128 0
 4078 0526 00       		.byte	0
 4079 0527 17       		.uleb128 0x17
 4080 0528 20000000 		.4byte	.LVL30
 4081 052c BA020000 		.4byte	0x2ba
 4082 0530 18       		.uleb128 0x18
 4083 0531 01       		.uleb128 0x1
 4084 0532 50       		.byte	0x50
 4085 0533 02       		.uleb128 0x2
 4086 0534 74       		.byte	0x74
 4087 0535 00       		.sleb128 0
 4088 0536 00       		.byte	0
 4089 0537 00       		.byte	0
 4090 0538 11       		.uleb128 0x11
 4091 0539 89040000 		.4byte	.LASF58
 4092 053d 01       		.byte	0x1
 4093 053e CF01     		.2byte	0x1cf
 4094 0540 E8010000 		.4byte	0x1e8
 4095 0544 00000000 		.4byte	.LFB17
 4096 0548 0C000000 		.4byte	.LFE17-.LFB17
 4097 054c 01       		.uleb128 0x1
 4098 054d 9C       		.byte	0x9c
 4099 054e 81050000 		.4byte	0x581
 4100 0552 12       		.uleb128 0x12
 4101 0553 88060000 		.4byte	.LASF41
 4102 0557 01       		.byte	0x1
 4103 0558 CF01     		.2byte	0x1cf
 4104 055a E8010000 		.4byte	0x1e8
 4105 055e A6010000 		.4byte	.LLST12
 4106 0562 1C       		.uleb128 0x1c
 4107 0563 51000000 		.4byte	.LASF57
 4108 0567 01       		.byte	0x1
 4109 0568 D101     		.2byte	0x1d1
ARM GAS  C:\Users\haske\AppData\Local\Temp\ccswauRt.s 			page 98


 4110 056a E8010000 		.4byte	0x1e8
 4111 056e 01       		.uleb128 0x1
 4112 056f 50       		.byte	0x50
 4113 0570 17       		.uleb128 0x17
 4114 0571 08000000 		.4byte	.LVL34
 4115 0575 B1040000 		.4byte	0x4b1
 4116 0579 18       		.uleb128 0x18
 4117 057a 01       		.uleb128 0x1
 4118 057b 50       		.byte	0x50
 4119 057c 02       		.uleb128 0x2
 4120 057d 74       		.byte	0x74
 4121 057e 00       		.sleb128 0
 4122 057f 00       		.byte	0
 4123 0580 00       		.byte	0
 4124 0581 14       		.uleb128 0x14
 4125 0582 40040000 		.4byte	.LASF59
 4126 0586 01       		.byte	0x1
 4127 0587 D601     		.2byte	0x1d6
 4128 0589 00000000 		.4byte	.LFB18
 4129 058d 14000000 		.4byte	.LFE18-.LFB18
 4130 0591 01       		.uleb128 0x1
 4131 0592 9C       		.byte	0x9c
 4132 0593 E5050000 		.4byte	0x5e5
 4133 0597 12       		.uleb128 0x12
 4134 0598 88060000 		.4byte	.LASF41
 4135 059c 01       		.byte	0x1
 4136 059d D601     		.2byte	0x1d6
 4137 059f E8010000 		.4byte	0x1e8
 4138 05a3 D0010000 		.4byte	.LLST13
 4139 05a7 16       		.uleb128 0x16
 4140 05a8 51000000 		.4byte	.LASF57
 4141 05ac 01       		.byte	0x1
 4142 05ad D901     		.2byte	0x1d9
 4143 05af E8010000 		.4byte	0x1e8
 4144 05b3 FC010000 		.4byte	.LLST14
 4145 05b7 1B       		.uleb128 0x1b
 4146 05b8 08000000 		.4byte	.LVL37
 4147 05bc 38050000 		.4byte	0x538
 4148 05c0 CB050000 		.4byte	0x5cb
 4149 05c4 18       		.uleb128 0x18
 4150 05c5 01       		.uleb128 0x1
 4151 05c6 50       		.byte	0x50
 4152 05c7 02       		.uleb128 0x2
 4153 05c8 74       		.byte	0x74
 4154 05c9 00       		.sleb128 0
 4155 05ca 00       		.byte	0
 4156 05cb 1D       		.uleb128 0x1d
 4157 05cc 0C000000 		.4byte	.LVL38
 4158 05d0 96030000 		.4byte	0x396
 4159 05d4 17       		.uleb128 0x17
 4160 05d5 12000000 		.4byte	.LVL39
 4161 05d9 21030000 		.4byte	0x321
 4162 05dd 18       		.uleb128 0x18
 4163 05de 01       		.uleb128 0x1
 4164 05df 50       		.byte	0x50
 4165 05e0 02       		.uleb128 0x2
 4166 05e1 74       		.byte	0x74
ARM GAS  C:\Users\haske\AppData\Local\Temp\ccswauRt.s 			page 99


 4167 05e2 00       		.sleb128 0
 4168 05e3 00       		.byte	0
 4169 05e4 00       		.byte	0
 4170 05e5 14       		.uleb128 0x14
 4171 05e6 F0040000 		.4byte	.LASF60
 4172 05ea 01       		.byte	0x1
 4173 05eb DE01     		.2byte	0x1de
 4174 05ed 00000000 		.4byte	.LFB19
 4175 05f1 14000000 		.4byte	.LFE19-.LFB19
 4176 05f5 01       		.uleb128 0x1
 4177 05f6 9C       		.byte	0x9c
 4178 05f7 49060000 		.4byte	0x649
 4179 05fb 12       		.uleb128 0x12
 4180 05fc 88060000 		.4byte	.LASF41
 4181 0600 01       		.byte	0x1
 4182 0601 DE01     		.2byte	0x1de
 4183 0603 E8010000 		.4byte	0x1e8
 4184 0607 0F020000 		.4byte	.LLST15
 4185 060b 16       		.uleb128 0x16
 4186 060c 51000000 		.4byte	.LASF57
 4187 0610 01       		.byte	0x1
 4188 0611 E001     		.2byte	0x1e0
 4189 0613 E8010000 		.4byte	0x1e8
 4190 0617 3B020000 		.4byte	.LLST16
 4191 061b 1B       		.uleb128 0x1b
 4192 061c 08000000 		.4byte	.LVL42
 4193 0620 B1040000 		.4byte	0x4b1
 4194 0624 2F060000 		.4byte	0x62f
 4195 0628 18       		.uleb128 0x18
 4196 0629 01       		.uleb128 0x1
 4197 062a 50       		.byte	0x50
 4198 062b 02       		.uleb128 0x2
 4199 062c 74       		.byte	0x74
 4200 062d 00       		.sleb128 0
 4201 062e 00       		.byte	0
 4202 062f 1D       		.uleb128 0x1d
 4203 0630 0C000000 		.4byte	.LVL43
 4204 0634 BB030000 		.4byte	0x3bb
 4205 0638 17       		.uleb128 0x17
 4206 0639 12000000 		.4byte	.LVL44
 4207 063d 46030000 		.4byte	0x346
 4208 0641 18       		.uleb128 0x18
 4209 0642 01       		.uleb128 0x1
 4210 0643 50       		.byte	0x50
 4211 0644 02       		.uleb128 0x2
 4212 0645 74       		.byte	0x74
 4213 0646 00       		.sleb128 0
 4214 0647 00       		.byte	0
 4215 0648 00       		.byte	0
 4216 0649 11       		.uleb128 0x11
 4217 064a 53040000 		.4byte	.LASF61
 4218 064e 01       		.byte	0x1
 4219 064f E501     		.2byte	0x1e5
 4220 0651 76000000 		.4byte	0x76
 4221 0655 00000000 		.4byte	.LFB20
 4222 0659 12000000 		.4byte	.LFE20-.LFB20
 4223 065d 01       		.uleb128 0x1
ARM GAS  C:\Users\haske\AppData\Local\Temp\ccswauRt.s 			page 100


 4224 065e 9C       		.byte	0x9c
 4225 065f 80060000 		.4byte	0x680
 4226 0663 19       		.uleb128 0x19
 4227 0664 7800     		.ascii	"x\000"
 4228 0666 01       		.byte	0x1
 4229 0667 E501     		.2byte	0x1e5
 4230 0669 76000000 		.4byte	0x76
 4231 066d 4E020000 		.4byte	.LLST17
 4232 0671 15       		.uleb128 0x15
 4233 0672 97080000 		.4byte	.LASF62
 4234 0676 01       		.byte	0x1
 4235 0677 E501     		.2byte	0x1e5
 4236 0679 76000000 		.4byte	0x76
 4237 067d 01       		.uleb128 0x1
 4238 067e 51       		.byte	0x51
 4239 067f 00       		.byte	0
 4240 0680 11       		.uleb128 0x11
 4241 0681 7E080000 		.4byte	.LASF63
 4242 0685 01       		.byte	0x1
 4243 0686 EB01     		.2byte	0x1eb
 4244 0688 76000000 		.4byte	0x76
 4245 068c 00000000 		.4byte	.LFB21
 4246 0690 0E000000 		.4byte	.LFE21-.LFB21
 4247 0694 01       		.uleb128 0x1
 4248 0695 9C       		.byte	0x9c
 4249 0696 B9060000 		.4byte	0x6b9
 4250 069a 19       		.uleb128 0x19
 4251 069b 7800     		.ascii	"x\000"
 4252 069d 01       		.byte	0x1
 4253 069e EB01     		.2byte	0x1eb
 4254 06a0 76000000 		.4byte	0x76
 4255 06a4 6F020000 		.4byte	.LLST18
 4256 06a8 12       		.uleb128 0x12
 4257 06a9 97080000 		.4byte	.LASF62
 4258 06ad 01       		.byte	0x1
 4259 06ae EB01     		.2byte	0x1eb
 4260 06b0 76000000 		.4byte	0x76
 4261 06b4 90020000 		.4byte	.LLST19
 4262 06b8 00       		.byte	0
 4263 06b9 11       		.uleb128 0x11
 4264 06ba C5050000 		.4byte	.LASF64
 4265 06be 01       		.byte	0x1
 4266 06bf F101     		.2byte	0x1f1
 4267 06c1 93000000 		.4byte	0x93
 4268 06c5 00000000 		.4byte	.LFB22
 4269 06c9 12000000 		.4byte	.LFE22-.LFB22
 4270 06cd 01       		.uleb128 0x1
 4271 06ce 9C       		.byte	0x9c
 4272 06cf 00070000 		.4byte	0x700
 4273 06d3 19       		.uleb128 0x19
 4274 06d4 70747200 		.ascii	"ptr\000"
 4275 06d8 01       		.byte	0x1
 4276 06d9 F101     		.2byte	0x1f1
 4277 06db 0B040000 		.4byte	0x40b
 4278 06df B1020000 		.4byte	.LLST20
 4279 06e3 15       		.uleb128 0x15
 4280 06e4 97080000 		.4byte	.LASF62
ARM GAS  C:\Users\haske\AppData\Local\Temp\ccswauRt.s 			page 101


 4281 06e8 01       		.byte	0x1
 4282 06e9 F101     		.2byte	0x1f1
 4283 06eb 76000000 		.4byte	0x76
 4284 06ef 01       		.uleb128 0x1
 4285 06f0 51       		.byte	0x51
 4286 06f1 1C       		.uleb128 0x1c
 4287 06f2 95000000 		.4byte	.LASF65
 4288 06f6 01       		.byte	0x1
 4289 06f7 F301     		.2byte	0x1f3
 4290 06f9 00070000 		.4byte	0x700
 4291 06fd 01       		.uleb128 0x1
 4292 06fe 50       		.byte	0x50
 4293 06ff 00       		.byte	0
 4294 0700 13       		.uleb128 0x13
 4295 0701 FA010000 		.4byte	0x1fa
 4296 0705 11       		.uleb128 0x11
 4297 0706 56000000 		.4byte	.LASF66
 4298 070a 01       		.byte	0x1
 4299 070b FD01     		.2byte	0x1fd
 4300 070d 76000000 		.4byte	0x76
 4301 0711 00000000 		.4byte	.LFB23
 4302 0715 24000000 		.4byte	.LFE23-.LFB23
 4303 0719 01       		.uleb128 0x1
 4304 071a 9C       		.byte	0x9c
 4305 071b 82070000 		.4byte	0x782
 4306 071f 12       		.uleb128 0x12
 4307 0720 25050000 		.4byte	.LASF28
 4308 0724 01       		.byte	0x1
 4309 0725 FD01     		.2byte	0x1fd
 4310 0727 76000000 		.4byte	0x76
 4311 072b D2020000 		.4byte	.LLST21
 4312 072f 12       		.uleb128 0x12
 4313 0730 97080000 		.4byte	.LASF62
 4314 0734 01       		.byte	0x1
 4315 0735 FD01     		.2byte	0x1fd
 4316 0737 76000000 		.4byte	0x76
 4317 073b 0C030000 		.4byte	.LLST22
 4318 073f 16       		.uleb128 0x16
 4319 0740 CF050000 		.4byte	.LASF67
 4320 0744 01       		.byte	0x1
 4321 0745 FF01     		.2byte	0x1ff
 4322 0747 76000000 		.4byte	0x76
 4323 074b 46030000 		.4byte	.LLST23
 4324 074f 1E       		.uleb128 0x1e
 4325 0750 06000000 		.4byte	.LBB2
 4326 0754 12000000 		.4byte	.LBE2-.LBB2
 4327 0758 16       		.uleb128 0x16
 4328 0759 95000000 		.4byte	.LASF65
 4329 075d 01       		.byte	0x1
 4330 075e 0102     		.2byte	0x201
 4331 0760 B5020000 		.4byte	0x2b5
 4332 0764 65030000 		.4byte	.LLST24
 4333 0768 17       		.uleb128 0x17
 4334 0769 0A000000 		.4byte	.LVL56
 4335 076d 49060000 		.4byte	0x649
 4336 0771 18       		.uleb128 0x18
 4337 0772 01       		.uleb128 0x1
ARM GAS  C:\Users\haske\AppData\Local\Temp\ccswauRt.s 			page 102


 4338 0773 50       		.byte	0x50
 4339 0774 03       		.uleb128 0x3
 4340 0775 F3       		.byte	0xf3
 4341 0776 01       		.uleb128 0x1
 4342 0777 50       		.byte	0x50
 4343 0778 18       		.uleb128 0x18
 4344 0779 01       		.uleb128 0x1
 4345 077a 51       		.byte	0x51
 4346 077b 03       		.uleb128 0x3
 4347 077c F3       		.byte	0xf3
 4348 077d 01       		.uleb128 0x1
 4349 077e 51       		.byte	0x51
 4350 077f 00       		.byte	0
 4351 0780 00       		.byte	0
 4352 0781 00       		.byte	0
 4353 0782 14       		.uleb128 0x14
 4354 0783 69040000 		.4byte	.LASF68
 4355 0787 01       		.byte	0x1
 4356 0788 4A02     		.2byte	0x24a
 4357 078a 00000000 		.4byte	.LFB27
 4358 078e 54000000 		.4byte	.LFE27-.LFB27
 4359 0792 01       		.uleb128 0x1
 4360 0793 9C       		.byte	0x9c
 4361 0794 F5070000 		.4byte	0x7f5
 4362 0798 15       		.uleb128 0x15
 4363 0799 3C000000 		.4byte	.LASF69
 4364 079d 01       		.byte	0x1
 4365 079e 4A02     		.2byte	0x24a
 4366 07a0 F5070000 		.4byte	0x7f5
 4367 07a4 01       		.uleb128 0x1
 4368 07a5 50       		.byte	0x50
 4369 07a6 12       		.uleb128 0x12
 4370 07a7 88060000 		.4byte	.LASF41
 4371 07ab 01       		.byte	0x1
 4372 07ac 4A02     		.2byte	0x24a
 4373 07ae E8010000 		.4byte	0x1e8
 4374 07b2 83030000 		.4byte	.LLST25
 4375 07b6 19       		.uleb128 0x19
 4376 07b7 666C00   		.ascii	"fl\000"
 4377 07ba 01       		.byte	0x1
 4378 07bb 4A02     		.2byte	0x24a
 4379 07bd 5D000000 		.4byte	0x5d
 4380 07c1 A4030000 		.4byte	.LLST26
 4381 07c5 19       		.uleb128 0x19
 4382 07c6 736C00   		.ascii	"sl\000"
 4383 07c9 01       		.byte	0x1
 4384 07ca 4A02     		.2byte	0x24a
 4385 07cc 5D000000 		.4byte	0x5d
 4386 07d0 C5030000 		.4byte	.LLST27
 4387 07d4 16       		.uleb128 0x16
 4388 07d5 B1000000 		.4byte	.LASF70
 4389 07d9 01       		.byte	0x1
 4390 07da 4C02     		.2byte	0x24c
 4391 07dc E8010000 		.4byte	0x1e8
 4392 07e0 E6030000 		.4byte	.LLST28
 4393 07e4 16       		.uleb128 0x16
 4394 07e5 51000000 		.4byte	.LASF57
ARM GAS  C:\Users\haske\AppData\Local\Temp\ccswauRt.s 			page 103


 4395 07e9 01       		.byte	0x1
 4396 07ea 4D02     		.2byte	0x24d
 4397 07ec E8010000 		.4byte	0x1e8
 4398 07f0 F9030000 		.4byte	.LLST29
 4399 07f4 00       		.byte	0
 4400 07f5 06       		.uleb128 0x6
 4401 07f6 04       		.byte	0x4
 4402 07f7 EE010000 		.4byte	0x1ee
 4403 07fb 14       		.uleb128 0x14
 4404 07fc F4030000 		.4byte	.LASF71
 4405 0800 01       		.byte	0x1
 4406 0801 6402     		.2byte	0x264
 4407 0803 00000000 		.4byte	.LFB28
 4408 0807 6C000000 		.4byte	.LFE28-.LFB28
 4409 080b 01       		.uleb128 0x1
 4410 080c 9C       		.byte	0x9c
 4411 080d 8A080000 		.4byte	0x88a
 4412 0811 12       		.uleb128 0x12
 4413 0812 3C000000 		.4byte	.LASF69
 4414 0816 01       		.byte	0x1
 4415 0817 6402     		.2byte	0x264
 4416 0819 F5070000 		.4byte	0x7f5
 4417 081d 0C040000 		.4byte	.LLST30
 4418 0821 12       		.uleb128 0x12
 4419 0822 88060000 		.4byte	.LASF41
 4420 0826 01       		.byte	0x1
 4421 0827 6402     		.2byte	0x264
 4422 0829 E8010000 		.4byte	0x1e8
 4423 082d 38040000 		.4byte	.LLST31
 4424 0831 19       		.uleb128 0x19
 4425 0832 666C00   		.ascii	"fl\000"
 4426 0835 01       		.byte	0x1
 4427 0836 6402     		.2byte	0x264
 4428 0838 5D000000 		.4byte	0x5d
 4429 083c 64040000 		.4byte	.LLST32
 4430 0840 19       		.uleb128 0x19
 4431 0841 736C00   		.ascii	"sl\000"
 4432 0844 01       		.byte	0x1
 4433 0845 6402     		.2byte	0x264
 4434 0847 5D000000 		.4byte	0x5d
 4435 084b 90040000 		.4byte	.LLST33
 4436 084f 16       		.uleb128 0x16
 4437 0850 59080000 		.4byte	.LASF72
 4438 0854 01       		.byte	0x1
 4439 0855 6602     		.2byte	0x266
 4440 0857 E8010000 		.4byte	0x1e8
 4441 085b BC040000 		.4byte	.LLST34
 4442 085f 1B       		.uleb128 0x1b
 4443 0860 30000000 		.4byte	.LVL74
 4444 0864 12040000 		.4byte	0x412
 4445 0868 73080000 		.4byte	0x873
 4446 086c 18       		.uleb128 0x18
 4447 086d 01       		.uleb128 0x1
 4448 086e 50       		.byte	0x50
 4449 086f 02       		.uleb128 0x2
 4450 0870 76       		.byte	0x76
 4451 0871 00       		.sleb128 0
ARM GAS  C:\Users\haske\AppData\Local\Temp\ccswauRt.s 			page 104


 4452 0872 00       		.byte	0
 4453 0873 17       		.uleb128 0x17
 4454 0874 38000000 		.4byte	.LVL75
 4455 0878 B9060000 		.4byte	0x6b9
 4456 087c 18       		.uleb128 0x18
 4457 087d 01       		.uleb128 0x1
 4458 087e 50       		.byte	0x50
 4459 087f 03       		.uleb128 0x3
 4460 0880 91       		.byte	0x91
 4461 0881 64       		.sleb128 -28
 4462 0882 06       		.byte	0x6
 4463 0883 18       		.uleb128 0x18
 4464 0884 01       		.uleb128 0x1
 4465 0885 51       		.byte	0x51
 4466 0886 01       		.uleb128 0x1
 4467 0887 34       		.byte	0x34
 4468 0888 00       		.byte	0
 4469 0889 00       		.byte	0
 4470 088a 11       		.uleb128 0x11
 4471 088b AD060000 		.4byte	.LASF73
 4472 088f 01       		.byte	0x1
 4473 0890 8802     		.2byte	0x288
 4474 0892 5D000000 		.4byte	0x5d
 4475 0896 00000000 		.4byte	.LFB31
 4476 089a 14000000 		.4byte	.LFE31-.LFB31
 4477 089e 01       		.uleb128 0x1
 4478 089f 9C       		.byte	0x9c
 4479 08a0 D6080000 		.4byte	0x8d6
 4480 08a4 12       		.uleb128 0x12
 4481 08a5 88060000 		.4byte	.LASF41
 4482 08a9 01       		.byte	0x1
 4483 08aa 8802     		.2byte	0x288
 4484 08ac E8010000 		.4byte	0x1e8
 4485 08b0 CF040000 		.4byte	.LLST35
 4486 08b4 12       		.uleb128 0x12
 4487 08b5 25050000 		.4byte	.LASF28
 4488 08b9 01       		.byte	0x1
 4489 08ba 8802     		.2byte	0x288
 4490 08bc 76000000 		.4byte	0x76
 4491 08c0 F0040000 		.4byte	.LLST36
 4492 08c4 17       		.uleb128 0x17
 4493 08c5 08000000 		.4byte	.LVL81
 4494 08c9 3A020000 		.4byte	0x23a
 4495 08cd 18       		.uleb128 0x18
 4496 08ce 01       		.uleb128 0x1
 4497 08cf 50       		.byte	0x50
 4498 08d0 03       		.uleb128 0x3
 4499 08d1 F3       		.byte	0xf3
 4500 08d2 01       		.uleb128 0x1
 4501 08d3 50       		.byte	0x50
 4502 08d4 00       		.byte	0
 4503 08d5 00       		.byte	0
 4504 08d6 11       		.uleb128 0x11
 4505 08d7 CE060000 		.4byte	.LASF74
 4506 08db 01       		.byte	0x1
 4507 08dc 8E02     		.2byte	0x28e
 4508 08de E8010000 		.4byte	0x1e8
ARM GAS  C:\Users\haske\AppData\Local\Temp\ccswauRt.s 			page 105


 4509 08e2 00000000 		.4byte	.LFB32
 4510 08e6 66000000 		.4byte	.LFE32-.LFB32
 4511 08ea 01       		.uleb128 0x1
 4512 08eb 9C       		.byte	0x9c
 4513 08ec F9090000 		.4byte	0x9f9
 4514 08f0 12       		.uleb128 0x12
 4515 08f1 88060000 		.4byte	.LASF41
 4516 08f5 01       		.byte	0x1
 4517 08f6 8E02     		.2byte	0x28e
 4518 08f8 E8010000 		.4byte	0x1e8
 4519 08fc 29050000 		.4byte	.LLST37
 4520 0900 12       		.uleb128 0x12
 4521 0901 25050000 		.4byte	.LASF28
 4522 0905 01       		.byte	0x1
 4523 0906 8E02     		.2byte	0x28e
 4524 0908 76000000 		.4byte	0x76
 4525 090c 48050000 		.4byte	.LLST38
 4526 0910 16       		.uleb128 0x16
 4527 0911 7E060000 		.4byte	.LASF75
 4528 0915 01       		.byte	0x1
 4529 0916 9102     		.2byte	0x291
 4530 0918 E8010000 		.4byte	0x1e8
 4531 091c 74050000 		.4byte	.LLST39
 4532 0920 16       		.uleb128 0x16
 4533 0921 3E060000 		.4byte	.LASF76
 4534 0925 01       		.byte	0x1
 4535 0926 9402     		.2byte	0x294
 4536 0928 B5020000 		.4byte	0x2b5
 4537 092c 9F050000 		.4byte	.LLST40
 4538 0930 1B       		.uleb128 0x1b
 4539 0931 0C000000 		.4byte	.LVL85
 4540 0935 12040000 		.4byte	0x412
 4541 0939 45090000 		.4byte	0x945
 4542 093d 18       		.uleb128 0x18
 4543 093e 01       		.uleb128 0x1
 4544 093f 50       		.byte	0x50
 4545 0940 03       		.uleb128 0x3
 4546 0941 91       		.byte	0x91
 4547 0942 64       		.sleb128 -28
 4548 0943 06       		.byte	0x6
 4549 0944 00       		.byte	0
 4550 0945 1B       		.uleb128 0x1b
 4551 0946 12000000 		.4byte	.LVL86
 4552 094a 3D040000 		.4byte	0x43d
 4553 094e 59090000 		.4byte	0x959
 4554 0952 18       		.uleb128 0x18
 4555 0953 01       		.uleb128 0x1
 4556 0954 51       		.byte	0x51
 4557 0955 02       		.uleb128 0x2
 4558 0956 75       		.byte	0x75
 4559 0957 7C       		.sleb128 -4
 4560 0958 00       		.byte	0
 4561 0959 1B       		.uleb128 0x1b
 4562 095a 1A000000 		.4byte	.LVL89
 4563 095e 3A020000 		.4byte	0x23a
 4564 0962 6E090000 		.4byte	0x96e
 4565 0966 18       		.uleb128 0x18
ARM GAS  C:\Users\haske\AppData\Local\Temp\ccswauRt.s 			page 106


 4566 0967 01       		.uleb128 0x1
 4567 0968 50       		.byte	0x50
 4568 0969 03       		.uleb128 0x3
 4569 096a 91       		.byte	0x91
 4570 096b 64       		.sleb128 -28
 4571 096c 06       		.byte	0x6
 4572 096d 00       		.byte	0
 4573 096e 1B       		.uleb128 0x1b
 4574 096f 26000000 		.4byte	.LVL91
 4575 0973 12040000 		.4byte	0x412
 4576 0977 83090000 		.4byte	0x983
 4577 097b 18       		.uleb128 0x18
 4578 097c 01       		.uleb128 0x1
 4579 097d 50       		.byte	0x50
 4580 097e 03       		.uleb128 0x3
 4581 097f 7D       		.byte	0x7d
 4582 0980 00       		.sleb128 0
 4583 0981 06       		.byte	0x6
 4584 0982 00       		.byte	0
 4585 0983 1B       		.uleb128 0x1b
 4586 0984 2E000000 		.4byte	.LVL92
 4587 0988 B9060000 		.4byte	0x6b9
 4588 098c 9C090000 		.4byte	0x99c
 4589 0990 18       		.uleb128 0x18
 4590 0991 01       		.uleb128 0x1
 4591 0992 50       		.byte	0x50
 4592 0993 02       		.uleb128 0x2
 4593 0994 77       		.byte	0x77
 4594 0995 00       		.sleb128 0
 4595 0996 18       		.uleb128 0x18
 4596 0997 01       		.uleb128 0x1
 4597 0998 51       		.byte	0x51
 4598 0999 01       		.uleb128 0x1
 4599 099a 34       		.byte	0x34
 4600 099b 00       		.byte	0
 4601 099c 1B       		.uleb128 0x1b
 4602 099d 46000000 		.4byte	.LVL93
 4603 09a1 70020000 		.4byte	0x270
 4604 09a5 B7090000 		.4byte	0x9b7
 4605 09a9 18       		.uleb128 0x18
 4606 09aa 01       		.uleb128 0x1
 4607 09ab 50       		.byte	0x50
 4608 09ac 03       		.uleb128 0x3
 4609 09ad 7D       		.byte	0x7d
 4610 09ae 00       		.sleb128 0
 4611 09af 06       		.byte	0x6
 4612 09b0 18       		.uleb128 0x18
 4613 09b1 01       		.uleb128 0x1
 4614 09b2 51       		.byte	0x51
 4615 09b3 02       		.uleb128 0x2
 4616 09b4 76       		.byte	0x76
 4617 09b5 00       		.sleb128 0
 4618 09b6 00       		.byte	0
 4619 09b7 1B       		.uleb128 0x1b
 4620 09b8 4C000000 		.4byte	.LVL94
 4621 09bc 3A020000 		.4byte	0x23a
 4622 09c0 CC090000 		.4byte	0x9cc
ARM GAS  C:\Users\haske\AppData\Local\Temp\ccswauRt.s 			page 107


 4623 09c4 18       		.uleb128 0x18
 4624 09c5 01       		.uleb128 0x1
 4625 09c6 50       		.byte	0x50
 4626 09c7 03       		.uleb128 0x3
 4627 09c8 7D       		.byte	0x7d
 4628 09c9 00       		.sleb128 0
 4629 09ca 06       		.byte	0x6
 4630 09cb 00       		.byte	0
 4631 09cc 1B       		.uleb128 0x1b
 4632 09cd 5A000000 		.4byte	.LVL95
 4633 09d1 70020000 		.4byte	0x270
 4634 09d5 E7090000 		.4byte	0x9e7
 4635 09d9 18       		.uleb128 0x18
 4636 09da 01       		.uleb128 0x1
 4637 09db 50       		.byte	0x50
 4638 09dc 03       		.uleb128 0x3
 4639 09dd 91       		.byte	0x91
 4640 09de 64       		.sleb128 -28
 4641 09df 06       		.byte	0x6
 4642 09e0 18       		.uleb128 0x18
 4643 09e1 01       		.uleb128 0x1
 4644 09e2 51       		.byte	0x51
 4645 09e3 02       		.uleb128 0x2
 4646 09e4 75       		.byte	0x75
 4647 09e5 00       		.sleb128 0
 4648 09e6 00       		.byte	0
 4649 09e7 17       		.uleb128 0x17
 4650 09e8 60000000 		.4byte	.LVL96
 4651 09ec 81050000 		.4byte	0x581
 4652 09f0 18       		.uleb128 0x18
 4653 09f1 01       		.uleb128 0x1
 4654 09f2 50       		.byte	0x50
 4655 09f3 03       		.uleb128 0x3
 4656 09f4 7D       		.byte	0x7d
 4657 09f5 00       		.sleb128 0
 4658 09f6 06       		.byte	0x6
 4659 09f7 00       		.byte	0
 4660 09f8 00       		.byte	0
 4661 09f9 11       		.uleb128 0x11
 4662 09fa 71080000 		.4byte	.LASF77
 4663 09fe 01       		.byte	0x1
 4664 09ff A402     		.2byte	0x2a4
 4665 0a01 E8010000 		.4byte	0x1e8
 4666 0a05 00000000 		.4byte	.LFB33
 4667 0a09 2A000000 		.4byte	.LFE33-.LFB33
 4668 0a0d 01       		.uleb128 0x1
 4669 0a0e 9C       		.byte	0x9c
 4670 0a0f 6C0A0000 		.4byte	0xa6c
 4671 0a13 12       		.uleb128 0x12
 4672 0a14 B1000000 		.4byte	.LASF70
 4673 0a18 01       		.byte	0x1
 4674 0a19 A402     		.2byte	0x2a4
 4675 0a1b E8010000 		.4byte	0x1e8
 4676 0a1f B2050000 		.4byte	.LLST41
 4677 0a23 12       		.uleb128 0x12
 4678 0a24 88060000 		.4byte	.LASF41
 4679 0a28 01       		.byte	0x1
ARM GAS  C:\Users\haske\AppData\Local\Temp\ccswauRt.s 			page 108


 4680 0a29 A402     		.2byte	0x2a4
 4681 0a2b E8010000 		.4byte	0x1e8
 4682 0a2f DB050000 		.4byte	.LLST42
 4683 0a33 1B       		.uleb128 0x1b
 4684 0a34 0A000000 		.4byte	.LVL101
 4685 0a38 BA020000 		.4byte	0x2ba
 4686 0a3c 470A0000 		.4byte	0xa47
 4687 0a40 18       		.uleb128 0x18
 4688 0a41 01       		.uleb128 0x1
 4689 0a42 50       		.byte	0x50
 4690 0a43 02       		.uleb128 0x2
 4691 0a44 74       		.byte	0x74
 4692 0a45 00       		.sleb128 0
 4693 0a46 00       		.byte	0
 4694 0a47 1B       		.uleb128 0x1b
 4695 0a48 16000000 		.4byte	.LVL102
 4696 0a4c 3A020000 		.4byte	0x23a
 4697 0a50 5B0A0000 		.4byte	0xa5b
 4698 0a54 18       		.uleb128 0x18
 4699 0a55 01       		.uleb128 0x1
 4700 0a56 50       		.byte	0x50
 4701 0a57 02       		.uleb128 0x2
 4702 0a58 75       		.byte	0x75
 4703 0a59 00       		.sleb128 0
 4704 0a5a 00       		.byte	0
 4705 0a5b 17       		.uleb128 0x17
 4706 0a5c 26000000 		.4byte	.LVL103
 4707 0a60 38050000 		.4byte	0x538
 4708 0a64 18       		.uleb128 0x18
 4709 0a65 01       		.uleb128 0x1
 4710 0a66 50       		.byte	0x50
 4711 0a67 02       		.uleb128 0x2
 4712 0a68 74       		.byte	0x74
 4713 0a69 00       		.sleb128 0
 4714 0a6a 00       		.byte	0
 4715 0a6b 00       		.byte	0
 4716 0a6c 14       		.uleb128 0x14
 4717 0a6d BD030000 		.4byte	.LASF78
 4718 0a71 01       		.byte	0x1
 4719 0a72 1B03     		.2byte	0x31b
 4720 0a74 00000000 		.4byte	.LFB41
 4721 0a78 36000000 		.4byte	.LFE41-.LFB41
 4722 0a7c 01       		.uleb128 0x1
 4723 0a7d 9C       		.byte	0x9c
 4724 0a7e AD0A0000 		.4byte	0xaad
 4725 0a82 15       		.uleb128 0x15
 4726 0a83 3C000000 		.4byte	.LASF69
 4727 0a87 01       		.byte	0x1
 4728 0a88 1B03     		.2byte	0x31b
 4729 0a8a F5070000 		.4byte	0x7f5
 4730 0a8e 01       		.uleb128 0x1
 4731 0a8f 50       		.byte	0x50
 4732 0a90 1F       		.uleb128 0x1f
 4733 0a91 6900     		.ascii	"i\000"
 4734 0a93 01       		.byte	0x1
 4735 0a94 1D03     		.2byte	0x31d
 4736 0a96 5D000000 		.4byte	0x5d
ARM GAS  C:\Users\haske\AppData\Local\Temp\ccswauRt.s 			page 109


 4737 0a9a 07060000 		.4byte	.LLST43
 4738 0a9e 1F       		.uleb128 0x1f
 4739 0a9f 6A00     		.ascii	"j\000"
 4740 0aa1 01       		.byte	0x1
 4741 0aa2 1D03     		.2byte	0x31d
 4742 0aa4 5D000000 		.4byte	0x5d
 4743 0aa8 26060000 		.4byte	.LLST44
 4744 0aac 00       		.byte	0
 4745 0aad 14       		.uleb128 0x14
 4746 0aae 2D060000 		.4byte	.LASF79
 4747 0ab2 01       		.byte	0x1
 4748 0ab3 3603     		.2byte	0x336
 4749 0ab5 00000000 		.4byte	.LFB42
 4750 0ab9 5E000000 		.4byte	.LFE42-.LFB42
 4751 0abd 01       		.uleb128 0x1
 4752 0abe 9C       		.byte	0x9c
 4753 0abf B00B0000 		.4byte	0xbb0
 4754 0ac3 19       		.uleb128 0x19
 4755 0ac4 70747200 		.ascii	"ptr\000"
 4756 0ac8 01       		.byte	0x1
 4757 0ac9 3603     		.2byte	0x336
 4758 0acb 93000000 		.4byte	0x93
 4759 0acf 45060000 		.4byte	.LLST45
 4760 0ad3 12       		.uleb128 0x12
 4761 0ad4 25050000 		.4byte	.LASF28
 4762 0ad8 01       		.byte	0x1
 4763 0ad9 3603     		.2byte	0x336
 4764 0adb 76000000 		.4byte	0x76
 4765 0adf 66060000 		.4byte	.LLST46
 4766 0ae3 12       		.uleb128 0x12
 4767 0ae4 15030000 		.4byte	.LASF80
 4768 0ae8 01       		.byte	0x1
 4769 0ae9 3603     		.2byte	0x336
 4770 0aeb 5D000000 		.4byte	0x5d
 4771 0aef 92060000 		.4byte	.LLST47
 4772 0af3 12       		.uleb128 0x12
 4773 0af4 30030000 		.4byte	.LASF81
 4774 0af8 01       		.byte	0x1
 4775 0af9 3603     		.2byte	0x336
 4776 0afb 93000000 		.4byte	0x93
 4777 0aff B3060000 		.4byte	.LLST48
 4778 0b03 16       		.uleb128 0x16
 4779 0b04 88060000 		.4byte	.LASF41
 4780 0b08 01       		.byte	0x1
 4781 0b09 3803     		.2byte	0x338
 4782 0b0b E8010000 		.4byte	0x1e8
 4783 0b0f DF060000 		.4byte	.LLST49
 4784 0b13 16       		.uleb128 0x16
 4785 0b14 BC070000 		.4byte	.LASF82
 4786 0b18 01       		.byte	0x1
 4787 0b19 3903     		.2byte	0x339
 4788 0b1b B00B0000 		.4byte	0xbb0
 4789 0b1f 09070000 		.4byte	.LLST50
 4790 0b23 16       		.uleb128 0x16
 4791 0b24 2B010000 		.4byte	.LASF83
 4792 0b28 01       		.byte	0x1
 4793 0b29 3A03     		.2byte	0x33a
ARM GAS  C:\Users\haske\AppData\Local\Temp\ccswauRt.s 			page 110


 4794 0b2b B60B0000 		.4byte	0xbb6
 4795 0b2f 2A070000 		.4byte	.LLST51
 4796 0b33 16       		.uleb128 0x16
 4797 0b34 F8000000 		.4byte	.LASF84
 4798 0b38 01       		.byte	0x1
 4799 0b39 3B03     		.2byte	0x33b
 4800 0b3b B60B0000 		.4byte	0xbb6
 4801 0b3f 3D070000 		.4byte	.LLST52
 4802 0b43 1C       		.uleb128 0x1c
 4803 0b44 97050000 		.4byte	.LASF85
 4804 0b48 01       		.byte	0x1
 4805 0b49 3C03     		.2byte	0x33c
 4806 0b4b B5020000 		.4byte	0x2b5
 4807 0b4f 01       		.uleb128 0x1
 4808 0b50 50       		.byte	0x50
 4809 0b51 16       		.uleb128 0x16
 4810 0b52 39040000 		.4byte	.LASF40
 4811 0b56 01       		.byte	0x1
 4812 0b57 3E03     		.2byte	0x33e
 4813 0b59 5D000000 		.4byte	0x5d
 4814 0b5d 69070000 		.4byte	.LLST53
 4815 0b61 1B       		.uleb128 0x1b
 4816 0b62 0C000000 		.4byte	.LVL114
 4817 0b66 E0030000 		.4byte	0x3e0
 4818 0b6a 760B0000 		.4byte	0xb76
 4819 0b6e 18       		.uleb128 0x18
 4820 0b6f 01       		.uleb128 0x1
 4821 0b70 50       		.byte	0x50
 4822 0b71 03       		.uleb128 0x3
 4823 0b72 F3       		.byte	0xf3
 4824 0b73 01       		.uleb128 0x1
 4825 0b74 50       		.byte	0x50
 4826 0b75 00       		.byte	0
 4827 0b76 1B       		.uleb128 0x1b
 4828 0b77 12000000 		.4byte	.LVL116
 4829 0b7b 6B030000 		.4byte	0x36b
 4830 0b7f 8A0B0000 		.4byte	0xb8a
 4831 0b83 18       		.uleb128 0x18
 4832 0b84 01       		.uleb128 0x1
 4833 0b85 50       		.byte	0x50
 4834 0b86 02       		.uleb128 0x2
 4835 0b87 75       		.byte	0x75
 4836 0b88 00       		.sleb128 0
 4837 0b89 00       		.byte	0
 4838 0b8a 1B       		.uleb128 0x1b
 4839 0b8b 22000000 		.4byte	.LVL118
 4840 0b8f F6020000 		.4byte	0x2f6
 4841 0b93 9E0B0000 		.4byte	0xb9e
 4842 0b97 18       		.uleb128 0x18
 4843 0b98 01       		.uleb128 0x1
 4844 0b99 50       		.byte	0x50
 4845 0b9a 02       		.uleb128 0x2
 4846 0b9b 75       		.byte	0x75
 4847 0b9c 00       		.sleb128 0
 4848 0b9d 00       		.byte	0
 4849 0b9e 17       		.uleb128 0x17
 4850 0b9f 30000000 		.4byte	.LVL120
ARM GAS  C:\Users\haske\AppData\Local\Temp\ccswauRt.s 			page 111


 4851 0ba3 3A020000 		.4byte	0x23a
 4852 0ba7 18       		.uleb128 0x18
 4853 0ba8 01       		.uleb128 0x1
 4854 0ba9 50       		.byte	0x50
 4855 0baa 03       		.uleb128 0x3
 4856 0bab 91       		.byte	0x91
 4857 0bac 64       		.sleb128 -28
 4858 0bad 06       		.byte	0x6
 4859 0bae 00       		.byte	0
 4860 0baf 00       		.byte	0
 4861 0bb0 06       		.uleb128 0x6
 4862 0bb1 04       		.byte	0x4
 4863 0bb2 2E020000 		.4byte	0x22e
 4864 0bb6 13       		.uleb128 0x13
 4865 0bb7 5D000000 		.4byte	0x5d
 4866 0bbb 14       		.uleb128 0x14
 4867 0bbc BE080000 		.4byte	.LASF86
 4868 0bc0 01       		.byte	0x1
 4869 0bc1 7803     		.2byte	0x378
 4870 0bc3 00000000 		.4byte	.LFB44
 4871 0bc7 02000000 		.4byte	.LFE44-.LFB44
 4872 0bcb 01       		.uleb128 0x1
 4873 0bcc 9C       		.byte	0x9c
 4874 0bcd 0A0C0000 		.4byte	0xc0a
 4875 0bd1 20       		.uleb128 0x20
 4876 0bd2 70747200 		.ascii	"ptr\000"
 4877 0bd6 01       		.byte	0x1
 4878 0bd7 7803     		.2byte	0x378
 4879 0bd9 93000000 		.4byte	0x93
 4880 0bdd 01       		.uleb128 0x1
 4881 0bde 50       		.byte	0x50
 4882 0bdf 15       		.uleb128 0x15
 4883 0be0 25050000 		.4byte	.LASF28
 4884 0be4 01       		.byte	0x1
 4885 0be5 7803     		.2byte	0x378
 4886 0be7 76000000 		.4byte	0x76
 4887 0beb 01       		.uleb128 0x1
 4888 0bec 51       		.byte	0x51
 4889 0bed 15       		.uleb128 0x15
 4890 0bee 15030000 		.4byte	.LASF80
 4891 0bf2 01       		.byte	0x1
 4892 0bf3 7803     		.2byte	0x378
 4893 0bf5 5D000000 		.4byte	0x5d
 4894 0bf9 01       		.uleb128 0x1
 4895 0bfa 52       		.byte	0x52
 4896 0bfb 15       		.uleb128 0x15
 4897 0bfc 30030000 		.4byte	.LASF81
 4898 0c00 01       		.byte	0x1
 4899 0c01 7803     		.2byte	0x378
 4900 0c03 93000000 		.4byte	0x93
 4901 0c07 01       		.uleb128 0x1
 4902 0c08 53       		.byte	0x53
 4903 0c09 00       		.byte	0
 4904 0c0a 21       		.uleb128 0x21
 4905 0c0b 72030000 		.4byte	.LASF87
 4906 0c0f 01       		.byte	0x1
 4907 0c10 65       		.byte	0x65
ARM GAS  C:\Users\haske\AppData\Local\Temp\ccswauRt.s 			page 112


 4908 0c11 5D000000 		.4byte	0x5d
 4909 0c15 00000000 		.4byte	.LFB2
 4910 0c19 16000000 		.4byte	.LFE2-.LFB2
 4911 0c1d 01       		.uleb128 0x1
 4912 0c1e 9C       		.byte	0x9c
 4913 0c1f 420C0000 		.4byte	0xc42
 4914 0c23 22       		.uleb128 0x22
 4915 0c24 6E060000 		.4byte	.LASF88
 4916 0c28 01       		.byte	0x1
 4917 0c29 65       		.byte	0x65
 4918 0c2a 64000000 		.4byte	0x64
 4919 0c2e 88070000 		.4byte	.LLST54
 4920 0c32 23       		.uleb128 0x23
 4921 0c33 62697400 		.ascii	"bit\000"
 4922 0c37 01       		.byte	0x1
 4923 0c38 67       		.byte	0x67
 4924 0c39 B60B0000 		.4byte	0xbb6
 4925 0c3d C2070000 		.4byte	.LLST55
 4926 0c41 00       		.byte	0
 4927 0c42 14       		.uleb128 0x14
 4928 0c43 93030000 		.4byte	.LASF89
 4929 0c47 01       		.byte	0x1
 4930 0c48 1002     		.2byte	0x210
 4931 0c4a 00000000 		.4byte	.LFB24
 4932 0c4e 2E000000 		.4byte	.LFE24-.LFB24
 4933 0c52 01       		.uleb128 0x1
 4934 0c53 9C       		.byte	0x9c
 4935 0c54 B00C0000 		.4byte	0xcb0
 4936 0c58 12       		.uleb128 0x12
 4937 0c59 25050000 		.4byte	.LASF28
 4938 0c5d 01       		.byte	0x1
 4939 0c5e 1002     		.2byte	0x210
 4940 0c60 76000000 		.4byte	0x76
 4941 0c64 E2070000 		.4byte	.LLST56
 4942 0c68 19       		.uleb128 0x19
 4943 0c69 666C6900 		.ascii	"fli\000"
 4944 0c6d 01       		.byte	0x1
 4945 0c6e 1002     		.2byte	0x210
 4946 0c70 B00C0000 		.4byte	0xcb0
 4947 0c74 27080000 		.4byte	.LLST57
 4948 0c78 19       		.uleb128 0x19
 4949 0c79 736C6900 		.ascii	"sli\000"
 4950 0c7d 01       		.byte	0x1
 4951 0c7e 1002     		.2byte	0x210
 4952 0c80 B00C0000 		.4byte	0xcb0
 4953 0c84 53080000 		.4byte	.LLST58
 4954 0c88 1F       		.uleb128 0x1f
 4955 0c89 666C00   		.ascii	"fl\000"
 4956 0c8c 01       		.byte	0x1
 4957 0c8d 1202     		.2byte	0x212
 4958 0c8f 5D000000 		.4byte	0x5d
 4959 0c93 95080000 		.4byte	.LLST59
 4960 0c97 1F       		.uleb128 0x1f
 4961 0c98 736C00   		.ascii	"sl\000"
 4962 0c9b 01       		.byte	0x1
 4963 0c9c 1202     		.2byte	0x212
 4964 0c9e 5D000000 		.4byte	0x5d
ARM GAS  C:\Users\haske\AppData\Local\Temp\ccswauRt.s 			page 113


 4965 0ca2 B4080000 		.4byte	.LLST60
 4966 0ca6 1D       		.uleb128 0x1d
 4967 0ca7 1E000000 		.4byte	.LVL140
 4968 0cab 0A0C0000 		.4byte	0xc0a
 4969 0caf 00       		.byte	0
 4970 0cb0 06       		.uleb128 0x6
 4971 0cb1 04       		.byte	0x4
 4972 0cb2 5D000000 		.4byte	0x5d
 4973 0cb6 14       		.uleb128 0x14
 4974 0cb7 7C050000 		.4byte	.LASF90
 4975 0cbb 01       		.byte	0x1
 4976 0cbc 8102     		.2byte	0x281
 4977 0cbe 00000000 		.4byte	.LFB30
 4978 0cc2 26000000 		.4byte	.LFE30-.LFB30
 4979 0cc6 01       		.uleb128 0x1
 4980 0cc7 9C       		.byte	0x9c
 4981 0cc8 4D0D0000 		.4byte	0xd4d
 4982 0ccc 12       		.uleb128 0x12
 4983 0ccd 3C000000 		.4byte	.LASF69
 4984 0cd1 01       		.byte	0x1
 4985 0cd2 8102     		.2byte	0x281
 4986 0cd4 F5070000 		.4byte	0x7f5
 4987 0cd8 EB080000 		.4byte	.LLST61
 4988 0cdc 12       		.uleb128 0x12
 4989 0cdd 88060000 		.4byte	.LASF41
 4990 0ce1 01       		.byte	0x1
 4991 0ce2 8102     		.2byte	0x281
 4992 0ce4 E8010000 		.4byte	0x1e8
 4993 0ce8 17090000 		.4byte	.LLST62
 4994 0cec 24       		.uleb128 0x24
 4995 0ced 666C00   		.ascii	"fl\000"
 4996 0cf0 01       		.byte	0x1
 4997 0cf1 8302     		.2byte	0x283
 4998 0cf3 5D000000 		.4byte	0x5d
 4999 0cf7 02       		.uleb128 0x2
 5000 0cf8 91       		.byte	0x91
 5001 0cf9 6C       		.sleb128 -20
 5002 0cfa 24       		.uleb128 0x24
 5003 0cfb 736C00   		.ascii	"sl\000"
 5004 0cfe 01       		.byte	0x1
 5005 0cff 8302     		.2byte	0x283
 5006 0d01 5D000000 		.4byte	0x5d
 5007 0d05 02       		.uleb128 0x2
 5008 0d06 91       		.byte	0x91
 5009 0d07 68       		.sleb128 -24
 5010 0d08 1B       		.uleb128 0x1b
 5011 0d09 0E000000 		.4byte	.LVL149
 5012 0d0d 3A020000 		.4byte	0x23a
 5013 0d11 1C0D0000 		.4byte	0xd1c
 5014 0d15 18       		.uleb128 0x18
 5015 0d16 01       		.uleb128 0x1
 5016 0d17 50       		.byte	0x50
 5017 0d18 02       		.uleb128 0x2
 5018 0d19 74       		.byte	0x74
 5019 0d1a 00       		.sleb128 0
 5020 0d1b 00       		.byte	0
 5021 0d1c 1B       		.uleb128 0x1b
ARM GAS  C:\Users\haske\AppData\Local\Temp\ccswauRt.s 			page 114


 5022 0d1d 16000000 		.4byte	.LVL150
 5023 0d21 420C0000 		.4byte	0xc42
 5024 0d25 360D0000 		.4byte	0xd36
 5025 0d29 18       		.uleb128 0x18
 5026 0d2a 01       		.uleb128 0x1
 5027 0d2b 51       		.byte	0x51
 5028 0d2c 02       		.uleb128 0x2
 5029 0d2d 91       		.byte	0x91
 5030 0d2e 6C       		.sleb128 -20
 5031 0d2f 18       		.uleb128 0x18
 5032 0d30 01       		.uleb128 0x1
 5033 0d31 52       		.byte	0x52
 5034 0d32 02       		.uleb128 0x2
 5035 0d33 7D       		.byte	0x7d
 5036 0d34 00       		.sleb128 0
 5037 0d35 00       		.byte	0
 5038 0d36 17       		.uleb128 0x17
 5039 0d37 22000000 		.4byte	.LVL151
 5040 0d3b FB070000 		.4byte	0x7fb
 5041 0d3f 18       		.uleb128 0x18
 5042 0d40 01       		.uleb128 0x1
 5043 0d41 50       		.byte	0x50
 5044 0d42 02       		.uleb128 0x2
 5045 0d43 75       		.byte	0x75
 5046 0d44 00       		.sleb128 0
 5047 0d45 18       		.uleb128 0x18
 5048 0d46 01       		.uleb128 0x1
 5049 0d47 51       		.byte	0x51
 5050 0d48 02       		.uleb128 0x2
 5051 0d49 74       		.byte	0x74
 5052 0d4a 00       		.sleb128 0
 5053 0d4b 00       		.byte	0
 5054 0d4c 00       		.byte	0
 5055 0d4d 14       		.uleb128 0x14
 5056 0d4e 15070000 		.4byte	.LASF91
 5057 0d52 01       		.byte	0x1
 5058 0d53 CB02     		.2byte	0x2cb
 5059 0d55 00000000 		.4byte	.LFB36
 5060 0d59 40000000 		.4byte	.LFE36-.LFB36
 5061 0d5d 01       		.uleb128 0x1
 5062 0d5e 9C       		.byte	0x9c
 5063 0d5f 340E0000 		.4byte	0xe34
 5064 0d63 12       		.uleb128 0x12
 5065 0d64 3C000000 		.4byte	.LASF69
 5066 0d68 01       		.byte	0x1
 5067 0d69 CB02     		.2byte	0x2cb
 5068 0d6b F5070000 		.4byte	0x7f5
 5069 0d6f 43090000 		.4byte	.LLST63
 5070 0d73 12       		.uleb128 0x12
 5071 0d74 88060000 		.4byte	.LASF41
 5072 0d78 01       		.byte	0x1
 5073 0d79 CB02     		.2byte	0x2cb
 5074 0d7b E8010000 		.4byte	0x1e8
 5075 0d7f 6F090000 		.4byte	.LLST64
 5076 0d83 12       		.uleb128 0x12
 5077 0d84 25050000 		.4byte	.LASF28
 5078 0d88 01       		.byte	0x1
ARM GAS  C:\Users\haske\AppData\Local\Temp\ccswauRt.s 			page 115


 5079 0d89 CB02     		.2byte	0x2cb
 5080 0d8b 76000000 		.4byte	0x76
 5081 0d8f 9B090000 		.4byte	.LLST65
 5082 0d93 25       		.uleb128 0x25
 5083 0d94 20000000 		.4byte	.LBB3
 5084 0d98 1E000000 		.4byte	.LBE3-.LBB3
 5085 0d9c 090E0000 		.4byte	0xe09
 5086 0da0 16       		.uleb128 0x16
 5087 0da1 6A000000 		.4byte	.LASF92
 5088 0da5 01       		.byte	0x1
 5089 0da6 CF02     		.2byte	0x2cf
 5090 0da8 E8010000 		.4byte	0x1e8
 5091 0dac C7090000 		.4byte	.LLST66
 5092 0db0 1B       		.uleb128 0x1b
 5093 0db1 28000000 		.4byte	.LVL158
 5094 0db5 D6080000 		.4byte	0x8d6
 5095 0db9 CA0D0000 		.4byte	0xdca
 5096 0dbd 18       		.uleb128 0x18
 5097 0dbe 01       		.uleb128 0x1
 5098 0dbf 50       		.byte	0x50
 5099 0dc0 02       		.uleb128 0x2
 5100 0dc1 74       		.byte	0x74
 5101 0dc2 00       		.sleb128 0
 5102 0dc3 18       		.uleb128 0x18
 5103 0dc4 01       		.uleb128 0x1
 5104 0dc5 51       		.byte	0x51
 5105 0dc6 02       		.uleb128 0x2
 5106 0dc7 75       		.byte	0x75
 5107 0dc8 00       		.sleb128 0
 5108 0dc9 00       		.byte	0
 5109 0dca 1B       		.uleb128 0x1b
 5110 0dcb 30000000 		.4byte	.LVL161
 5111 0dcf 38050000 		.4byte	0x538
 5112 0dd3 DE0D0000 		.4byte	0xdde
 5113 0dd7 18       		.uleb128 0x18
 5114 0dd8 01       		.uleb128 0x1
 5115 0dd9 50       		.byte	0x50
 5116 0dda 02       		.uleb128 0x2
 5117 0ddb 74       		.byte	0x74
 5118 0ddc 00       		.sleb128 0
 5119 0ddd 00       		.byte	0
 5120 0dde 1B       		.uleb128 0x1b
 5121 0ddf 36000000 		.4byte	.LVL162
 5122 0de3 96030000 		.4byte	0x396
 5123 0de7 F20D0000 		.4byte	0xdf2
 5124 0deb 18       		.uleb128 0x18
 5125 0dec 01       		.uleb128 0x1
 5126 0ded 50       		.byte	0x50
 5127 0dee 02       		.uleb128 0x2
 5128 0def 75       		.byte	0x75
 5129 0df0 00       		.sleb128 0
 5130 0df1 00       		.byte	0
 5131 0df2 17       		.uleb128 0x17
 5132 0df3 3E000000 		.4byte	.LVL163
 5133 0df7 B60C0000 		.4byte	0xcb6
 5134 0dfb 18       		.uleb128 0x18
 5135 0dfc 01       		.uleb128 0x1
ARM GAS  C:\Users\haske\AppData\Local\Temp\ccswauRt.s 			page 116


 5136 0dfd 50       		.byte	0x50
 5137 0dfe 02       		.uleb128 0x2
 5138 0dff 76       		.byte	0x76
 5139 0e00 00       		.sleb128 0
 5140 0e01 18       		.uleb128 0x18
 5141 0e02 01       		.uleb128 0x1
 5142 0e03 51       		.byte	0x51
 5143 0e04 02       		.uleb128 0x2
 5144 0e05 75       		.byte	0x75
 5145 0e06 00       		.sleb128 0
 5146 0e07 00       		.byte	0
 5147 0e08 00       		.byte	0
 5148 0e09 1B       		.uleb128 0x1b
 5149 0e0a 0E000000 		.4byte	.LVL156
 5150 0e0e F6020000 		.4byte	0x2f6
 5151 0e12 1D0E0000 		.4byte	0xe1d
 5152 0e16 18       		.uleb128 0x18
 5153 0e17 01       		.uleb128 0x1
 5154 0e18 50       		.byte	0x50
 5155 0e19 02       		.uleb128 0x2
 5156 0e1a 74       		.byte	0x74
 5157 0e1b 00       		.sleb128 0
 5158 0e1c 00       		.byte	0
 5159 0e1d 17       		.uleb128 0x17
 5160 0e1e 1C000000 		.4byte	.LVL157
 5161 0e22 8A080000 		.4byte	0x88a
 5162 0e26 18       		.uleb128 0x18
 5163 0e27 01       		.uleb128 0x1
 5164 0e28 50       		.byte	0x50
 5165 0e29 02       		.uleb128 0x2
 5166 0e2a 74       		.byte	0x74
 5167 0e2b 00       		.sleb128 0
 5168 0e2c 18       		.uleb128 0x18
 5169 0e2d 01       		.uleb128 0x1
 5170 0e2e 51       		.byte	0x51
 5171 0e2f 02       		.uleb128 0x2
 5172 0e30 75       		.byte	0x75
 5173 0e31 00       		.sleb128 0
 5174 0e32 00       		.byte	0
 5175 0e33 00       		.byte	0
 5176 0e34 11       		.uleb128 0x11
 5177 0e35 E5050000 		.4byte	.LASF93
 5178 0e39 01       		.byte	0x1
 5179 0e3a 0E03     		.2byte	0x30e
 5180 0e3c 93000000 		.4byte	0x93
 5181 0e40 00000000 		.4byte	.LFB40
 5182 0e44 22000000 		.4byte	.LFE40-.LFB40
 5183 0e48 01       		.uleb128 0x1
 5184 0e49 9C       		.byte	0x9c
 5185 0e4a BA0E0000 		.4byte	0xeba
 5186 0e4e 12       		.uleb128 0x12
 5187 0e4f 3C000000 		.4byte	.LASF69
 5188 0e53 01       		.byte	0x1
 5189 0e54 0E03     		.2byte	0x30e
 5190 0e56 F5070000 		.4byte	0x7f5
 5191 0e5a E5090000 		.4byte	.LLST67
 5192 0e5e 12       		.uleb128 0x12
ARM GAS  C:\Users\haske\AppData\Local\Temp\ccswauRt.s 			page 117


 5193 0e5f 88060000 		.4byte	.LASF41
 5194 0e63 01       		.byte	0x1
 5195 0e64 0E03     		.2byte	0x30e
 5196 0e66 E8010000 		.4byte	0x1e8
 5197 0e6a 1F0A0000 		.4byte	.LLST68
 5198 0e6e 12       		.uleb128 0x12
 5199 0e6f 25050000 		.4byte	.LASF28
 5200 0e73 01       		.byte	0x1
 5201 0e74 0E03     		.2byte	0x30e
 5202 0e76 76000000 		.4byte	0x76
 5203 0e7a 610A0000 		.4byte	.LLST69
 5204 0e7e 1F       		.uleb128 0x1f
 5205 0e7f 7000     		.ascii	"p\000"
 5206 0e81 01       		.byte	0x1
 5207 0e82 1003     		.2byte	0x310
 5208 0e84 93000000 		.4byte	0x93
 5209 0e88 9B0A0000 		.4byte	.LLST70
 5210 0e8c 1D       		.uleb128 0x1d
 5211 0e8d 10000000 		.4byte	.LVL168
 5212 0e91 4D0D0000 		.4byte	0xd4d
 5213 0e95 1B       		.uleb128 0x1b
 5214 0e96 16000000 		.4byte	.LVL169
 5215 0e9a E5050000 		.4byte	0x5e5
 5216 0e9e A90E0000 		.4byte	0xea9
 5217 0ea2 18       		.uleb128 0x18
 5218 0ea3 01       		.uleb128 0x1
 5219 0ea4 50       		.byte	0x50
 5220 0ea5 02       		.uleb128 0x2
 5221 0ea6 74       		.byte	0x74
 5222 0ea7 00       		.sleb128 0
 5223 0ea8 00       		.byte	0
 5224 0ea9 17       		.uleb128 0x17
 5225 0eaa 1C000000 		.4byte	.LVL170
 5226 0eae 12040000 		.4byte	0x412
 5227 0eb2 18       		.uleb128 0x18
 5228 0eb3 01       		.uleb128 0x1
 5229 0eb4 50       		.byte	0x50
 5230 0eb5 02       		.uleb128 0x2
 5231 0eb6 74       		.byte	0x74
 5232 0eb7 00       		.sleb128 0
 5233 0eb8 00       		.byte	0
 5234 0eb9 00       		.byte	0
 5235 0eba 11       		.uleb128 0x11
 5236 0ebb 34080000 		.4byte	.LASF94
 5237 0ebf 01       		.byte	0x1
 5238 0ec0 E402     		.2byte	0x2e4
 5239 0ec2 E8010000 		.4byte	0x1e8
 5240 0ec6 00000000 		.4byte	.LFB38
 5241 0eca 36000000 		.4byte	.LFE38-.LFB38
 5242 0ece 01       		.uleb128 0x1
 5243 0ecf 9C       		.byte	0x9c
 5244 0ed0 870F0000 		.4byte	0xf87
 5245 0ed4 12       		.uleb128 0x12
 5246 0ed5 3C000000 		.4byte	.LASF69
 5247 0ed9 01       		.byte	0x1
 5248 0eda E402     		.2byte	0x2e4
 5249 0edc F5070000 		.4byte	0x7f5
ARM GAS  C:\Users\haske\AppData\Local\Temp\ccswauRt.s 			page 118


 5250 0ee0 D10A0000 		.4byte	.LLST71
 5251 0ee4 12       		.uleb128 0x12
 5252 0ee5 88060000 		.4byte	.LASF41
 5253 0ee9 01       		.byte	0x1
 5254 0eea E402     		.2byte	0x2e4
 5255 0eec E8010000 		.4byte	0x1e8
 5256 0ef0 FD0A0000 		.4byte	.LLST72
 5257 0ef4 12       		.uleb128 0x12
 5258 0ef5 25050000 		.4byte	.LASF28
 5259 0ef9 01       		.byte	0x1
 5260 0efa E402     		.2byte	0x2e4
 5261 0efc 76000000 		.4byte	0x76
 5262 0f00 290B0000 		.4byte	.LLST73
 5263 0f04 16       		.uleb128 0x16
 5264 0f05 6A000000 		.4byte	.LASF92
 5265 0f09 01       		.byte	0x1
 5266 0f0a E602     		.2byte	0x2e6
 5267 0f0c E8010000 		.4byte	0x1e8
 5268 0f10 550B0000 		.4byte	.LLST74
 5269 0f14 1B       		.uleb128 0x1b
 5270 0f15 10000000 		.4byte	.LVL178
 5271 0f19 8A080000 		.4byte	0x88a
 5272 0f1d 2E0F0000 		.4byte	0xf2e
 5273 0f21 18       		.uleb128 0x18
 5274 0f22 01       		.uleb128 0x1
 5275 0f23 50       		.byte	0x50
 5276 0f24 02       		.uleb128 0x2
 5277 0f25 74       		.byte	0x74
 5278 0f26 00       		.sleb128 0
 5279 0f27 18       		.uleb128 0x18
 5280 0f28 01       		.uleb128 0x1
 5281 0f29 51       		.byte	0x51
 5282 0f2a 02       		.uleb128 0x2
 5283 0f2b 75       		.byte	0x75
 5284 0f2c 00       		.sleb128 0
 5285 0f2d 00       		.byte	0
 5286 0f2e 1B       		.uleb128 0x1b
 5287 0f2f 1C000000 		.4byte	.LVL179
 5288 0f33 D6080000 		.4byte	0x8d6
 5289 0f37 480F0000 		.4byte	0xf48
 5290 0f3b 18       		.uleb128 0x18
 5291 0f3c 01       		.uleb128 0x1
 5292 0f3d 50       		.byte	0x50
 5293 0f3e 02       		.uleb128 0x2
 5294 0f3f 74       		.byte	0x74
 5295 0f40 00       		.sleb128 0
 5296 0f41 18       		.uleb128 0x18
 5297 0f42 01       		.uleb128 0x1
 5298 0f43 51       		.byte	0x51
 5299 0f44 02       		.uleb128 0x2
 5300 0f45 75       		.byte	0x75
 5301 0f46 7C       		.sleb128 -4
 5302 0f47 00       		.byte	0
 5303 0f48 1B       		.uleb128 0x1b
 5304 0f49 22000000 		.4byte	.LVL181
 5305 0f4d 96030000 		.4byte	0x396
 5306 0f51 5C0F0000 		.4byte	0xf5c
ARM GAS  C:\Users\haske\AppData\Local\Temp\ccswauRt.s 			page 119


 5307 0f55 18       		.uleb128 0x18
 5308 0f56 01       		.uleb128 0x1
 5309 0f57 50       		.byte	0x50
 5310 0f58 02       		.uleb128 0x2
 5311 0f59 75       		.byte	0x75
 5312 0f5a 00       		.sleb128 0
 5313 0f5b 00       		.byte	0
 5314 0f5c 1B       		.uleb128 0x1b
 5315 0f5d 28000000 		.4byte	.LVL182
 5316 0f61 38050000 		.4byte	0x538
 5317 0f65 700F0000 		.4byte	0xf70
 5318 0f69 18       		.uleb128 0x18
 5319 0f6a 01       		.uleb128 0x1
 5320 0f6b 50       		.byte	0x50
 5321 0f6c 02       		.uleb128 0x2
 5322 0f6d 74       		.byte	0x74
 5323 0f6e 00       		.sleb128 0
 5324 0f6f 00       		.byte	0
 5325 0f70 17       		.uleb128 0x17
 5326 0f71 30000000 		.4byte	.LVL183
 5327 0f75 B60C0000 		.4byte	0xcb6
 5328 0f79 18       		.uleb128 0x18
 5329 0f7a 01       		.uleb128 0x1
 5330 0f7b 50       		.byte	0x50
 5331 0f7c 02       		.uleb128 0x2
 5332 0f7d 76       		.byte	0x76
 5333 0f7e 00       		.sleb128 0
 5334 0f7f 18       		.uleb128 0x18
 5335 0f80 01       		.uleb128 0x1
 5336 0f81 51       		.byte	0x51
 5337 0f82 02       		.uleb128 0x2
 5338 0f83 74       		.byte	0x74
 5339 0f84 00       		.sleb128 0
 5340 0f85 00       		.byte	0
 5341 0f86 00       		.byte	0
 5342 0f87 14       		.uleb128 0x14
 5343 0f88 4C080000 		.4byte	.LASF95
 5344 0f8c 01       		.byte	0x1
 5345 0f8d 7902     		.2byte	0x279
 5346 0f8f 00000000 		.4byte	.LFB29
 5347 0f93 26000000 		.4byte	.LFE29-.LFB29
 5348 0f97 01       		.uleb128 0x1
 5349 0f98 9C       		.byte	0x9c
 5350 0f99 1E100000 		.4byte	0x101e
 5351 0f9d 12       		.uleb128 0x12
 5352 0f9e 3C000000 		.4byte	.LASF69
 5353 0fa2 01       		.byte	0x1
 5354 0fa3 7902     		.2byte	0x279
 5355 0fa5 F5070000 		.4byte	0x7f5
 5356 0fa9 9F0B0000 		.4byte	.LLST75
 5357 0fad 12       		.uleb128 0x12
 5358 0fae 88060000 		.4byte	.LASF41
 5359 0fb2 01       		.byte	0x1
 5360 0fb3 7902     		.2byte	0x279
 5361 0fb5 E8010000 		.4byte	0x1e8
 5362 0fb9 CB0B0000 		.4byte	.LLST76
 5363 0fbd 24       		.uleb128 0x24
ARM GAS  C:\Users\haske\AppData\Local\Temp\ccswauRt.s 			page 120


 5364 0fbe 666C00   		.ascii	"fl\000"
 5365 0fc1 01       		.byte	0x1
 5366 0fc2 7B02     		.2byte	0x27b
 5367 0fc4 5D000000 		.4byte	0x5d
 5368 0fc8 02       		.uleb128 0x2
 5369 0fc9 91       		.byte	0x91
 5370 0fca 6C       		.sleb128 -20
 5371 0fcb 24       		.uleb128 0x24
 5372 0fcc 736C00   		.ascii	"sl\000"
 5373 0fcf 01       		.byte	0x1
 5374 0fd0 7B02     		.2byte	0x27b
 5375 0fd2 5D000000 		.4byte	0x5d
 5376 0fd6 02       		.uleb128 0x2
 5377 0fd7 91       		.byte	0x91
 5378 0fd8 68       		.sleb128 -24
 5379 0fd9 1B       		.uleb128 0x1b
 5380 0fda 0E000000 		.4byte	.LVL189
 5381 0fde 3A020000 		.4byte	0x23a
 5382 0fe2 ED0F0000 		.4byte	0xfed
 5383 0fe6 18       		.uleb128 0x18
 5384 0fe7 01       		.uleb128 0x1
 5385 0fe8 50       		.byte	0x50
 5386 0fe9 02       		.uleb128 0x2
 5387 0fea 74       		.byte	0x74
 5388 0feb 00       		.sleb128 0
 5389 0fec 00       		.byte	0
 5390 0fed 1B       		.uleb128 0x1b
 5391 0fee 16000000 		.4byte	.LVL190
 5392 0ff2 420C0000 		.4byte	0xc42
 5393 0ff6 07100000 		.4byte	0x1007
 5394 0ffa 18       		.uleb128 0x18
 5395 0ffb 01       		.uleb128 0x1
 5396 0ffc 51       		.byte	0x51
 5397 0ffd 02       		.uleb128 0x2
 5398 0ffe 91       		.byte	0x91
 5399 0fff 6C       		.sleb128 -20
 5400 1000 18       		.uleb128 0x18
 5401 1001 01       		.uleb128 0x1
 5402 1002 52       		.byte	0x52
 5403 1003 02       		.uleb128 0x2
 5404 1004 7D       		.byte	0x7d
 5405 1005 00       		.sleb128 0
 5406 1006 00       		.byte	0
 5407 1007 17       		.uleb128 0x17
 5408 1008 22000000 		.4byte	.LVL191
 5409 100c 82070000 		.4byte	0x782
 5410 1010 18       		.uleb128 0x18
 5411 1011 01       		.uleb128 0x1
 5412 1012 50       		.byte	0x50
 5413 1013 02       		.uleb128 0x2
 5414 1014 75       		.byte	0x75
 5415 1015 00       		.sleb128 0
 5416 1016 18       		.uleb128 0x18
 5417 1017 01       		.uleb128 0x1
 5418 1018 51       		.byte	0x51
 5419 1019 02       		.uleb128 0x2
 5420 101a 74       		.byte	0x74
ARM GAS  C:\Users\haske\AppData\Local\Temp\ccswauRt.s 			page 121


 5421 101b 00       		.sleb128 0
 5422 101c 00       		.byte	0
 5423 101d 00       		.byte	0
 5424 101e 11       		.uleb128 0x11
 5425 101f F3020000 		.4byte	.LASF96
 5426 1023 01       		.byte	0x1
 5427 1024 AE02     		.2byte	0x2ae
 5428 1026 E8010000 		.4byte	0x1e8
 5429 102a 00000000 		.4byte	.LFB34
 5430 102e 3C000000 		.4byte	.LFE34-.LFB34
 5431 1032 01       		.uleb128 0x1
 5432 1033 9C       		.byte	0x9c
 5433 1034 D4100000 		.4byte	0x10d4
 5434 1038 12       		.uleb128 0x12
 5435 1039 3C000000 		.4byte	.LASF69
 5436 103d 01       		.byte	0x1
 5437 103e AE02     		.2byte	0x2ae
 5438 1040 F5070000 		.4byte	0x7f5
 5439 1044 F70B0000 		.4byte	.LLST77
 5440 1048 12       		.uleb128 0x12
 5441 1049 88060000 		.4byte	.LASF41
 5442 104d 01       		.byte	0x1
 5443 104e AE02     		.2byte	0x2ae
 5444 1050 E8010000 		.4byte	0x1e8
 5445 1054 230C0000 		.4byte	.LLST78
 5446 1058 25       		.uleb128 0x25
 5447 1059 10000000 		.4byte	.LBB4
 5448 105d 28000000 		.4byte	.LBE4-.LBB4
 5449 1061 C3100000 		.4byte	0x10c3
 5450 1065 16       		.uleb128 0x16
 5451 1066 B1000000 		.4byte	.LASF70
 5452 106a 01       		.byte	0x1
 5453 106b B102     		.2byte	0x2b1
 5454 106d E8010000 		.4byte	0x1e8
 5455 1071 4C0C0000 		.4byte	.LLST79
 5456 1075 1B       		.uleb128 0x1b
 5457 1076 16000000 		.4byte	.LVL197
 5458 107a 76040000 		.4byte	0x476
 5459 107e 89100000 		.4byte	0x1089
 5460 1082 18       		.uleb128 0x18
 5461 1083 01       		.uleb128 0x1
 5462 1084 50       		.byte	0x50
 5463 1085 02       		.uleb128 0x2
 5464 1086 74       		.byte	0x74
 5465 1087 00       		.sleb128 0
 5466 1088 00       		.byte	0
 5467 1089 1D       		.uleb128 0x1d
 5468 108a 20000000 		.4byte	.LVL199
 5469 108e F6020000 		.4byte	0x2f6
 5470 1092 1B       		.uleb128 0x1b
 5471 1093 2E000000 		.4byte	.LVL200
 5472 1097 870F0000 		.4byte	0xf87
 5473 109b AC100000 		.4byte	0x10ac
 5474 109f 18       		.uleb128 0x18
 5475 10a0 01       		.uleb128 0x1
 5476 10a1 50       		.byte	0x50
 5477 10a2 02       		.uleb128 0x2
ARM GAS  C:\Users\haske\AppData\Local\Temp\ccswauRt.s 			page 122


 5478 10a3 76       		.byte	0x76
 5479 10a4 00       		.sleb128 0
 5480 10a5 18       		.uleb128 0x18
 5481 10a6 01       		.uleb128 0x1
 5482 10a7 51       		.byte	0x51
 5483 10a8 02       		.uleb128 0x2
 5484 10a9 75       		.byte	0x75
 5485 10aa 00       		.sleb128 0
 5486 10ab 00       		.byte	0
 5487 10ac 17       		.uleb128 0x17
 5488 10ad 36000000 		.4byte	.LVL201
 5489 10b1 F9090000 		.4byte	0x9f9
 5490 10b5 18       		.uleb128 0x18
 5491 10b6 01       		.uleb128 0x1
 5492 10b7 50       		.byte	0x50
 5493 10b8 02       		.uleb128 0x2
 5494 10b9 75       		.byte	0x75
 5495 10ba 00       		.sleb128 0
 5496 10bb 18       		.uleb128 0x18
 5497 10bc 01       		.uleb128 0x1
 5498 10bd 51       		.byte	0x51
 5499 10be 02       		.uleb128 0x2
 5500 10bf 74       		.byte	0x74
 5501 10c0 00       		.sleb128 0
 5502 10c1 00       		.byte	0
 5503 10c2 00       		.byte	0
 5504 10c3 17       		.uleb128 0x17
 5505 10c4 0C000000 		.4byte	.LVL196
 5506 10c8 6B030000 		.4byte	0x36b
 5507 10cc 18       		.uleb128 0x18
 5508 10cd 01       		.uleb128 0x1
 5509 10ce 50       		.byte	0x50
 5510 10cf 02       		.uleb128 0x2
 5511 10d0 74       		.byte	0x74
 5512 10d1 00       		.sleb128 0
 5513 10d2 00       		.byte	0
 5514 10d3 00       		.byte	0
 5515 10d4 11       		.uleb128 0x11
 5516 10d5 52010000 		.4byte	.LASF97
 5517 10d9 01       		.byte	0x1
 5518 10da BC02     		.2byte	0x2bc
 5519 10dc E8010000 		.4byte	0x1e8
 5520 10e0 00000000 		.4byte	.LFB35
 5521 10e4 3C000000 		.4byte	.LFE35-.LFB35
 5522 10e8 01       		.uleb128 0x1
 5523 10e9 9C       		.byte	0x9c
 5524 10ea 80110000 		.4byte	0x1180
 5525 10ee 12       		.uleb128 0x12
 5526 10ef 3C000000 		.4byte	.LASF69
 5527 10f3 01       		.byte	0x1
 5528 10f4 BC02     		.2byte	0x2bc
 5529 10f6 F5070000 		.4byte	0x7f5
 5530 10fa 6A0C0000 		.4byte	.LLST80
 5531 10fe 12       		.uleb128 0x12
 5532 10ff 88060000 		.4byte	.LASF41
 5533 1103 01       		.byte	0x1
 5534 1104 BC02     		.2byte	0x2bc
ARM GAS  C:\Users\haske\AppData\Local\Temp\ccswauRt.s 			page 123


 5535 1106 E8010000 		.4byte	0x1e8
 5536 110a 960C0000 		.4byte	.LLST81
 5537 110e 16       		.uleb128 0x16
 5538 110f 51000000 		.4byte	.LASF57
 5539 1113 01       		.byte	0x1
 5540 1114 BE02     		.2byte	0x2be
 5541 1116 E8010000 		.4byte	0x1e8
 5542 111a BF0C0000 		.4byte	.LLST82
 5543 111e 1B       		.uleb128 0x1b
 5544 111f 0C000000 		.4byte	.LVL207
 5545 1123 B1040000 		.4byte	0x4b1
 5546 1127 32110000 		.4byte	0x1132
 5547 112b 18       		.uleb128 0x18
 5548 112c 01       		.uleb128 0x1
 5549 112d 50       		.byte	0x50
 5550 112e 02       		.uleb128 0x2
 5551 112f 74       		.byte	0x74
 5552 1130 00       		.sleb128 0
 5553 1131 00       		.byte	0
 5554 1132 1D       		.uleb128 0x1d
 5555 1133 16000000 		.4byte	.LVL209
 5556 1137 F6020000 		.4byte	0x2f6
 5557 113b 1B       		.uleb128 0x1b
 5558 113c 20000000 		.4byte	.LVL210
 5559 1140 BA020000 		.4byte	0x2ba
 5560 1144 4F110000 		.4byte	0x114f
 5561 1148 18       		.uleb128 0x18
 5562 1149 01       		.uleb128 0x1
 5563 114a 50       		.byte	0x50
 5564 114b 02       		.uleb128 0x2
 5565 114c 74       		.byte	0x74
 5566 114d 00       		.sleb128 0
 5567 114e 00       		.byte	0
 5568 114f 1B       		.uleb128 0x1b
 5569 1150 2E000000 		.4byte	.LVL211
 5570 1154 870F0000 		.4byte	0xf87
 5571 1158 69110000 		.4byte	0x1169
 5572 115c 18       		.uleb128 0x18
 5573 115d 01       		.uleb128 0x1
 5574 115e 50       		.byte	0x50
 5575 115f 02       		.uleb128 0x2
 5576 1160 76       		.byte	0x76
 5577 1161 00       		.sleb128 0
 5578 1162 18       		.uleb128 0x18
 5579 1163 01       		.uleb128 0x1
 5580 1164 51       		.byte	0x51
 5581 1165 02       		.uleb128 0x2
 5582 1166 75       		.byte	0x75
 5583 1167 00       		.sleb128 0
 5584 1168 00       		.byte	0
 5585 1169 17       		.uleb128 0x17
 5586 116a 36000000 		.4byte	.LVL212
 5587 116e F9090000 		.4byte	0x9f9
 5588 1172 18       		.uleb128 0x18
 5589 1173 01       		.uleb128 0x1
 5590 1174 50       		.byte	0x50
 5591 1175 02       		.uleb128 0x2
ARM GAS  C:\Users\haske\AppData\Local\Temp\ccswauRt.s 			page 124


 5592 1176 74       		.byte	0x74
 5593 1177 00       		.sleb128 0
 5594 1178 18       		.uleb128 0x18
 5595 1179 01       		.uleb128 0x1
 5596 117a 51       		.byte	0x51
 5597 117b 02       		.uleb128 0x2
 5598 117c 75       		.byte	0x75
 5599 117d 00       		.sleb128 0
 5600 117e 00       		.byte	0
 5601 117f 00       		.byte	0
 5602 1180 14       		.uleb128 0x14
 5603 1181 4D070000 		.4byte	.LASF98
 5604 1185 01       		.byte	0x1
 5605 1186 D702     		.2byte	0x2d7
 5606 1188 00000000 		.4byte	.LFB37
 5607 118c 40000000 		.4byte	.LFE37-.LFB37
 5608 1190 01       		.uleb128 0x1
 5609 1191 9C       		.byte	0x9c
 5610 1192 67120000 		.4byte	0x1267
 5611 1196 12       		.uleb128 0x12
 5612 1197 3C000000 		.4byte	.LASF69
 5613 119b 01       		.byte	0x1
 5614 119c D702     		.2byte	0x2d7
 5615 119e F5070000 		.4byte	0x7f5
 5616 11a2 DD0C0000 		.4byte	.LLST83
 5617 11a6 12       		.uleb128 0x12
 5618 11a7 88060000 		.4byte	.LASF41
 5619 11ab 01       		.byte	0x1
 5620 11ac D702     		.2byte	0x2d7
 5621 11ae E8010000 		.4byte	0x1e8
 5622 11b2 090D0000 		.4byte	.LLST84
 5623 11b6 12       		.uleb128 0x12
 5624 11b7 25050000 		.4byte	.LASF28
 5625 11bb 01       		.byte	0x1
 5626 11bc D702     		.2byte	0x2d7
 5627 11be 76000000 		.4byte	0x76
 5628 11c2 350D0000 		.4byte	.LLST85
 5629 11c6 25       		.uleb128 0x25
 5630 11c7 20000000 		.4byte	.LBB5
 5631 11cb 1E000000 		.4byte	.LBE5-.LBB5
 5632 11cf 3C120000 		.4byte	0x123c
 5633 11d3 16       		.uleb128 0x16
 5634 11d4 6A000000 		.4byte	.LASF92
 5635 11d8 01       		.byte	0x1
 5636 11d9 DC02     		.2byte	0x2dc
 5637 11db E8010000 		.4byte	0x1e8
 5638 11df 610D0000 		.4byte	.LLST86
 5639 11e3 1B       		.uleb128 0x1b
 5640 11e4 28000000 		.4byte	.LVL221
 5641 11e8 D6080000 		.4byte	0x8d6
 5642 11ec FD110000 		.4byte	0x11fd
 5643 11f0 18       		.uleb128 0x18
 5644 11f1 01       		.uleb128 0x1
 5645 11f2 50       		.byte	0x50
 5646 11f3 02       		.uleb128 0x2
 5647 11f4 74       		.byte	0x74
 5648 11f5 00       		.sleb128 0
ARM GAS  C:\Users\haske\AppData\Local\Temp\ccswauRt.s 			page 125


 5649 11f6 18       		.uleb128 0x18
 5650 11f7 01       		.uleb128 0x1
 5651 11f8 51       		.byte	0x51
 5652 11f9 02       		.uleb128 0x2
 5653 11fa 76       		.byte	0x76
 5654 11fb 00       		.sleb128 0
 5655 11fc 00       		.byte	0
 5656 11fd 1B       		.uleb128 0x1b
 5657 11fe 2E000000 		.4byte	.LVL223
 5658 1202 BB030000 		.4byte	0x3bb
 5659 1206 11120000 		.4byte	0x1211
 5660 120a 18       		.uleb128 0x18
 5661 120b 01       		.uleb128 0x1
 5662 120c 50       		.byte	0x50
 5663 120d 02       		.uleb128 0x2
 5664 120e 74       		.byte	0x74
 5665 120f 00       		.sleb128 0
 5666 1210 00       		.byte	0
 5667 1211 1B       		.uleb128 0x1b
 5668 1212 36000000 		.4byte	.LVL224
 5669 1216 D4100000 		.4byte	0x10d4
 5670 121a 2B120000 		.4byte	0x122b
 5671 121e 18       		.uleb128 0x18
 5672 121f 01       		.uleb128 0x1
 5673 1220 50       		.byte	0x50
 5674 1221 02       		.uleb128 0x2
 5675 1222 75       		.byte	0x75
 5676 1223 00       		.sleb128 0
 5677 1224 18       		.uleb128 0x18
 5678 1225 01       		.uleb128 0x1
 5679 1226 51       		.byte	0x51
 5680 1227 02       		.uleb128 0x2
 5681 1228 74       		.byte	0x74
 5682 1229 00       		.sleb128 0
 5683 122a 00       		.byte	0
 5684 122b 17       		.uleb128 0x17
 5685 122c 3E000000 		.4byte	.LVL227
 5686 1230 B60C0000 		.4byte	0xcb6
 5687 1234 18       		.uleb128 0x18
 5688 1235 01       		.uleb128 0x1
 5689 1236 50       		.byte	0x50
 5690 1237 02       		.uleb128 0x2
 5691 1238 75       		.byte	0x75
 5692 1239 00       		.sleb128 0
 5693 123a 00       		.byte	0
 5694 123b 00       		.byte	0
 5695 123c 1B       		.uleb128 0x1b
 5696 123d 0E000000 		.4byte	.LVL219
 5697 1241 F6020000 		.4byte	0x2f6
 5698 1245 50120000 		.4byte	0x1250
 5699 1249 18       		.uleb128 0x18
 5700 124a 01       		.uleb128 0x1
 5701 124b 50       		.byte	0x50
 5702 124c 02       		.uleb128 0x2
 5703 124d 74       		.byte	0x74
 5704 124e 00       		.sleb128 0
 5705 124f 00       		.byte	0
ARM GAS  C:\Users\haske\AppData\Local\Temp\ccswauRt.s 			page 126


 5706 1250 17       		.uleb128 0x17
 5707 1251 1C000000 		.4byte	.LVL220
 5708 1255 8A080000 		.4byte	0x88a
 5709 1259 18       		.uleb128 0x18
 5710 125a 01       		.uleb128 0x1
 5711 125b 50       		.byte	0x50
 5712 125c 02       		.uleb128 0x2
 5713 125d 74       		.byte	0x74
 5714 125e 00       		.sleb128 0
 5715 125f 18       		.uleb128 0x18
 5716 1260 01       		.uleb128 0x1
 5717 1261 51       		.byte	0x51
 5718 1262 02       		.uleb128 0x2
 5719 1263 76       		.byte	0x76
 5720 1264 00       		.sleb128 0
 5721 1265 00       		.byte	0
 5722 1266 00       		.byte	0
 5723 1267 14       		.uleb128 0x14
 5724 1268 63030000 		.4byte	.LASF99
 5725 126c 01       		.byte	0x1
 5726 126d 2202     		.2byte	0x222
 5727 126f 00000000 		.4byte	.LFB25
 5728 1273 26000000 		.4byte	.LFE25-.LFB25
 5729 1277 01       		.uleb128 0x1
 5730 1278 9C       		.byte	0x9c
 5731 1279 F8120000 		.4byte	0x12f8
 5732 127d 12       		.uleb128 0x12
 5733 127e 25050000 		.4byte	.LASF28
 5734 1282 01       		.byte	0x1
 5735 1283 2202     		.2byte	0x222
 5736 1285 76000000 		.4byte	0x76
 5737 1289 950D0000 		.4byte	.LLST87
 5738 128d 19       		.uleb128 0x19
 5739 128e 666C6900 		.ascii	"fli\000"
 5740 1292 01       		.byte	0x1
 5741 1293 2202     		.2byte	0x222
 5742 1295 B00C0000 		.4byte	0xcb0
 5743 1299 B30D0000 		.4byte	.LLST88
 5744 129d 19       		.uleb128 0x19
 5745 129e 736C6900 		.ascii	"sli\000"
 5746 12a2 01       		.byte	0x1
 5747 12a3 2202     		.2byte	0x222
 5748 12a5 B00C0000 		.4byte	0xcb0
 5749 12a9 DF0D0000 		.4byte	.LLST89
 5750 12ad 25       		.uleb128 0x25
 5751 12ae 0C000000 		.4byte	.LBB6
 5752 12b2 0E000000 		.4byte	.LBE6-.LBB6
 5753 12b6 DB120000 		.4byte	0x12db
 5754 12ba 16       		.uleb128 0x16
 5755 12bb B6070000 		.4byte	.LASF100
 5756 12bf 01       		.byte	0x1
 5757 12c0 2502     		.2byte	0x225
 5758 12c2 B5020000 		.4byte	0x2b5
 5759 12c6 0B0E0000 		.4byte	.LLST90
 5760 12ca 17       		.uleb128 0x17
 5761 12cb 10000000 		.4byte	.LVL231
 5762 12cf 0A0C0000 		.4byte	0xc0a
ARM GAS  C:\Users\haske\AppData\Local\Temp\ccswauRt.s 			page 127


 5763 12d3 18       		.uleb128 0x18
 5764 12d4 01       		.uleb128 0x1
 5765 12d5 50       		.byte	0x50
 5766 12d6 02       		.uleb128 0x2
 5767 12d7 74       		.byte	0x74
 5768 12d8 00       		.sleb128 0
 5769 12d9 00       		.byte	0
 5770 12da 00       		.byte	0
 5771 12db 17       		.uleb128 0x17
 5772 12dc 24000000 		.4byte	.LVL234
 5773 12e0 420C0000 		.4byte	0xc42
 5774 12e4 18       		.uleb128 0x18
 5775 12e5 01       		.uleb128 0x1
 5776 12e6 50       		.byte	0x50
 5777 12e7 02       		.uleb128 0x2
 5778 12e8 74       		.byte	0x74
 5779 12e9 00       		.sleb128 0
 5780 12ea 18       		.uleb128 0x18
 5781 12eb 01       		.uleb128 0x1
 5782 12ec 51       		.byte	0x51
 5783 12ed 02       		.uleb128 0x2
 5784 12ee 75       		.byte	0x75
 5785 12ef 00       		.sleb128 0
 5786 12f0 18       		.uleb128 0x18
 5787 12f1 01       		.uleb128 0x1
 5788 12f2 52       		.byte	0x52
 5789 12f3 02       		.uleb128 0x2
 5790 12f4 76       		.byte	0x76
 5791 12f5 00       		.sleb128 0
 5792 12f6 00       		.byte	0
 5793 12f7 00       		.byte	0
 5794 12f8 21       		.uleb128 0x21
 5795 12f9 9D080000 		.4byte	.LASF101
 5796 12fd 01       		.byte	0x1
 5797 12fe 5E       		.byte	0x5e
 5798 12ff 5D000000 		.4byte	0x5d
 5799 1303 00000000 		.4byte	.LFB1
 5800 1307 0A000000 		.4byte	.LFE1-.LFB1
 5801 130b 01       		.uleb128 0x1
 5802 130c 9C       		.byte	0x9c
 5803 130d 21130000 		.4byte	0x1321
 5804 1311 22       		.uleb128 0x22
 5805 1312 6E060000 		.4byte	.LASF88
 5806 1316 01       		.byte	0x1
 5807 1317 5E       		.byte	0x5e
 5808 1318 64000000 		.4byte	0x64
 5809 131c 1E0E0000 		.4byte	.LLST91
 5810 1320 00       		.byte	0
 5811 1321 11       		.uleb128 0x11
 5812 1322 1A030000 		.4byte	.LASF102
 5813 1326 01       		.byte	0x1
 5814 1327 2B02     		.2byte	0x22b
 5815 1329 E8010000 		.4byte	0x1e8
 5816 132d 00000000 		.4byte	.LFB26
 5817 1331 58000000 		.4byte	.LFE26-.LFB26
 5818 1335 01       		.uleb128 0x1
 5819 1336 9C       		.byte	0x9c
ARM GAS  C:\Users\haske\AppData\Local\Temp\ccswauRt.s 			page 128


 5820 1337 C6130000 		.4byte	0x13c6
 5821 133b 12       		.uleb128 0x12
 5822 133c 3C000000 		.4byte	.LASF69
 5823 1340 01       		.byte	0x1
 5824 1341 2B02     		.2byte	0x22b
 5825 1343 F5070000 		.4byte	0x7f5
 5826 1347 3F0E0000 		.4byte	.LLST92
 5827 134b 19       		.uleb128 0x19
 5828 134c 666C6900 		.ascii	"fli\000"
 5829 1350 01       		.byte	0x1
 5830 1351 2B02     		.2byte	0x22b
 5831 1353 B00C0000 		.4byte	0xcb0
 5832 1357 6B0E0000 		.4byte	.LLST93
 5833 135b 19       		.uleb128 0x19
 5834 135c 736C6900 		.ascii	"sli\000"
 5835 1360 01       		.byte	0x1
 5836 1361 2B02     		.2byte	0x22b
 5837 1363 B00C0000 		.4byte	0xcb0
 5838 1367 AD0E0000 		.4byte	.LLST94
 5839 136b 1F       		.uleb128 0x1f
 5840 136c 666C00   		.ascii	"fl\000"
 5841 136f 01       		.byte	0x1
 5842 1370 2D02     		.2byte	0x22d
 5843 1372 5D000000 		.4byte	0x5d
 5844 1376 D90E0000 		.4byte	.LLST95
 5845 137a 1F       		.uleb128 0x1f
 5846 137b 736C00   		.ascii	"sl\000"
 5847 137e 01       		.byte	0x1
 5848 137f 2E02     		.2byte	0x22e
 5849 1381 5D000000 		.4byte	0x5d
 5850 1385 270F0000 		.4byte	.LLST96
 5851 1389 16       		.uleb128 0x16
 5852 138a E3080000 		.4byte	.LASF103
 5853 138e 01       		.byte	0x1
 5854 138f 3402     		.2byte	0x234
 5855 1391 64000000 		.4byte	0x64
 5856 1395 680F0000 		.4byte	.LLST97
 5857 1399 26       		.uleb128 0x26
 5858 139a 00000000 		.4byte	.Ldebug_ranges0+0
 5859 139e BC130000 		.4byte	0x13bc
 5860 13a2 16       		.uleb128 0x16
 5861 13a3 83000000 		.4byte	.LASF104
 5862 13a7 01       		.byte	0x1
 5863 13a8 3702     		.2byte	0x237
 5864 13aa C6130000 		.4byte	0x13c6
 5865 13ae E20F0000 		.4byte	.LLST98
 5866 13b2 1D       		.uleb128 0x1d
 5867 13b3 2E000000 		.4byte	.LVL250
 5868 13b7 F8120000 		.4byte	0x12f8
 5869 13bb 00       		.byte	0
 5870 13bc 1D       		.uleb128 0x1d
 5871 13bd 44000000 		.4byte	.LVL253
 5872 13c1 F8120000 		.4byte	0x12f8
 5873 13c5 00       		.byte	0
 5874 13c6 13       		.uleb128 0x13
 5875 13c7 64000000 		.4byte	0x64
 5876 13cb 11       		.uleb128 0x11
ARM GAS  C:\Users\haske\AppData\Local\Temp\ccswauRt.s 			page 129


 5877 13cc A7050000 		.4byte	.LASF105
 5878 13d0 01       		.byte	0x1
 5879 13d1 F302     		.2byte	0x2f3
 5880 13d3 E8010000 		.4byte	0x1e8
 5881 13d7 00000000 		.4byte	.LFB39
 5882 13db 58000000 		.4byte	.LFE39-.LFB39
 5883 13df 01       		.uleb128 0x1
 5884 13e0 9C       		.byte	0x9c
 5885 13e1 9C140000 		.4byte	0x149c
 5886 13e5 12       		.uleb128 0x12
 5887 13e6 3C000000 		.4byte	.LASF69
 5888 13ea 01       		.byte	0x1
 5889 13eb F302     		.2byte	0x2f3
 5890 13ed F5070000 		.4byte	0x7f5
 5891 13f1 00100000 		.4byte	.LLST99
 5892 13f5 12       		.uleb128 0x12
 5893 13f6 25050000 		.4byte	.LASF28
 5894 13fa 01       		.byte	0x1
 5895 13fb F302     		.2byte	0x2f3
 5896 13fd 76000000 		.4byte	0x76
 5897 1401 42100000 		.4byte	.LLST100
 5898 1405 24       		.uleb128 0x24
 5899 1406 666C00   		.ascii	"fl\000"
 5900 1409 01       		.byte	0x1
 5901 140a F502     		.2byte	0x2f5
 5902 140c 5D000000 		.4byte	0x5d
 5903 1410 02       		.uleb128 0x2
 5904 1411 91       		.byte	0x91
 5905 1412 6C       		.sleb128 -20
 5906 1413 24       		.uleb128 0x24
 5907 1414 736C00   		.ascii	"sl\000"
 5908 1417 01       		.byte	0x1
 5909 1418 F502     		.2byte	0x2f5
 5910 141a 5D000000 		.4byte	0x5d
 5911 141e 02       		.uleb128 0x2
 5912 141f 91       		.byte	0x91
 5913 1420 68       		.sleb128 -24
 5914 1421 16       		.uleb128 0x16
 5915 1422 88060000 		.4byte	.LASF41
 5916 1426 01       		.byte	0x1
 5917 1427 F602     		.2byte	0x2f6
 5918 1429 E8010000 		.4byte	0x1e8
 5919 142d 84100000 		.4byte	.LLST101
 5920 1431 1B       		.uleb128 0x1b
 5921 1432 1C000000 		.4byte	.LVL264
 5922 1436 67120000 		.4byte	0x1267
 5923 143a 51140000 		.4byte	0x1451
 5924 143e 18       		.uleb128 0x18
 5925 143f 01       		.uleb128 0x1
 5926 1440 50       		.byte	0x50
 5927 1441 02       		.uleb128 0x2
 5928 1442 75       		.byte	0x75
 5929 1443 00       		.sleb128 0
 5930 1444 18       		.uleb128 0x18
 5931 1445 01       		.uleb128 0x1
 5932 1446 51       		.byte	0x51
 5933 1447 02       		.uleb128 0x2
ARM GAS  C:\Users\haske\AppData\Local\Temp\ccswauRt.s 			page 130


 5934 1448 91       		.byte	0x91
 5935 1449 6C       		.sleb128 -20
 5936 144a 18       		.uleb128 0x18
 5937 144b 01       		.uleb128 0x1
 5938 144c 52       		.byte	0x52
 5939 144d 02       		.uleb128 0x2
 5940 144e 7D       		.byte	0x7d
 5941 144f 00       		.sleb128 0
 5942 1450 00       		.byte	0
 5943 1451 1B       		.uleb128 0x1b
 5944 1452 2C000000 		.4byte	.LVL265
 5945 1456 21130000 		.4byte	0x1321
 5946 145a 71140000 		.4byte	0x1471
 5947 145e 18       		.uleb128 0x18
 5948 145f 01       		.uleb128 0x1
 5949 1460 50       		.byte	0x50
 5950 1461 02       		.uleb128 0x2
 5951 1462 76       		.byte	0x76
 5952 1463 00       		.sleb128 0
 5953 1464 18       		.uleb128 0x18
 5954 1465 01       		.uleb128 0x1
 5955 1466 51       		.byte	0x51
 5956 1467 02       		.uleb128 0x2
 5957 1468 91       		.byte	0x91
 5958 1469 6C       		.sleb128 -20
 5959 146a 18       		.uleb128 0x18
 5960 146b 01       		.uleb128 0x1
 5961 146c 52       		.byte	0x52
 5962 146d 02       		.uleb128 0x2
 5963 146e 7D       		.byte	0x7d
 5964 146f 00       		.sleb128 0
 5965 1470 00       		.byte	0
 5966 1471 1B       		.uleb128 0x1b
 5967 1472 40000000 		.4byte	.LVL270
 5968 1476 3A020000 		.4byte	0x23a
 5969 147a 85140000 		.4byte	0x1485
 5970 147e 18       		.uleb128 0x18
 5971 147f 01       		.uleb128 0x1
 5972 1480 50       		.byte	0x50
 5973 1481 02       		.uleb128 0x2
 5974 1482 74       		.byte	0x74
 5975 1483 00       		.sleb128 0
 5976 1484 00       		.byte	0
 5977 1485 17       		.uleb128 0x17
 5978 1486 52000000 		.4byte	.LVL271
 5979 148a 82070000 		.4byte	0x782
 5980 148e 18       		.uleb128 0x18
 5981 148f 01       		.uleb128 0x1
 5982 1490 50       		.byte	0x50
 5983 1491 02       		.uleb128 0x2
 5984 1492 76       		.byte	0x76
 5985 1493 00       		.sleb128 0
 5986 1494 18       		.uleb128 0x18
 5987 1495 01       		.uleb128 0x1
 5988 1496 51       		.byte	0x51
 5989 1497 02       		.uleb128 0x2
 5990 1498 74       		.byte	0x74
ARM GAS  C:\Users\haske\AppData\Local\Temp\ccswauRt.s 			page 131


 5991 1499 00       		.sleb128 0
 5992 149a 00       		.byte	0
 5993 149b 00       		.byte	0
 5994 149c 27       		.uleb128 0x27
 5995 149d 06040000 		.4byte	.LASF111
 5996 14a1 01       		.byte	0x1
 5997 14a2 4703     		.2byte	0x347
 5998 14a4 5D000000 		.4byte	0x5d
 5999 14a8 00000000 		.4byte	.LFB43
 6000 14ac 1C010000 		.4byte	.LFE43-.LFB43
 6001 14b0 01       		.uleb128 0x1
 6002 14b1 9C       		.byte	0x9c
 6003 14b2 05160000 		.4byte	0x1605
 6004 14b6 12       		.uleb128 0x12
 6005 14b7 9D070000 		.4byte	.LASF106
 6006 14bb 01       		.byte	0x1
 6007 14bc 4703     		.2byte	0x347
 6008 14be 88000000 		.4byte	0x88
 6009 14c2 C5100000 		.4byte	.LLST102
 6010 14c6 1F       		.uleb128 0x1f
 6011 14c7 6900     		.ascii	"i\000"
 6012 14c9 01       		.byte	0x1
 6013 14ca 4903     		.2byte	0x349
 6014 14cc 5D000000 		.4byte	0x5d
 6015 14d0 F1100000 		.4byte	.LLST103
 6016 14d4 1F       		.uleb128 0x1f
 6017 14d5 6A00     		.ascii	"j\000"
 6018 14d7 01       		.byte	0x1
 6019 14d8 4903     		.2byte	0x349
 6020 14da 5D000000 		.4byte	0x5d
 6021 14de 10110000 		.4byte	.LLST104
 6022 14e2 16       		.uleb128 0x16
 6023 14e3 3C000000 		.4byte	.LASF69
 6024 14e7 01       		.byte	0x1
 6025 14e8 4B03     		.2byte	0x34b
 6026 14ea F5070000 		.4byte	0x7f5
 6027 14ee 39110000 		.4byte	.LLST105
 6028 14f2 16       		.uleb128 0x16
 6029 14f3 39040000 		.4byte	.LASF40
 6030 14f7 01       		.byte	0x1
 6031 14f8 4C03     		.2byte	0x34c
 6032 14fa 5D000000 		.4byte	0x5d
 6033 14fe 65110000 		.4byte	.LLST106
 6034 1502 1E       		.uleb128 0x1e
 6035 1503 12000000 		.4byte	.LBB9
 6036 1507 E6000000 		.4byte	.LBE9-.LBB9
 6037 150b 16       		.uleb128 0x16
 6038 150c 83000000 		.4byte	.LASF104
 6039 1510 01       		.byte	0x1
 6040 1511 5103     		.2byte	0x351
 6041 1513 B60B0000 		.4byte	0xbb6
 6042 1517 8F110000 		.4byte	.LLST107
 6043 151b 16       		.uleb128 0x16
 6044 151c 99040000 		.4byte	.LASF107
 6045 1520 01       		.byte	0x1
 6046 1521 5203     		.2byte	0x352
 6047 1523 B60B0000 		.4byte	0xbb6
ARM GAS  C:\Users\haske\AppData\Local\Temp\ccswauRt.s 			page 132


 6048 1527 B8110000 		.4byte	.LLST108
 6049 152b 16       		.uleb128 0x16
 6050 152c E3080000 		.4byte	.LASF103
 6051 1530 01       		.byte	0x1
 6052 1531 5303     		.2byte	0x353
 6053 1533 B60B0000 		.4byte	0xbb6
 6054 1537 CB110000 		.4byte	.LLST109
 6055 153b 16       		.uleb128 0x16
 6056 153c 88060000 		.4byte	.LASF41
 6057 1540 01       		.byte	0x1
 6058 1541 5403     		.2byte	0x354
 6059 1543 65020000 		.4byte	0x265
 6060 1547 DE110000 		.4byte	.LLST110
 6061 154b 1E       		.uleb128 0x1e
 6062 154c 72000000 		.4byte	.LBB10
 6063 1550 82000000 		.4byte	.LBE10-.LBB10
 6064 1554 24       		.uleb128 0x24
 6065 1555 666C6900 		.ascii	"fli\000"
 6066 1559 01       		.byte	0x1
 6067 155a 6503     		.2byte	0x365
 6068 155c 5D000000 		.4byte	0x5d
 6069 1560 02       		.uleb128 0x2
 6070 1561 91       		.byte	0x91
 6071 1562 58       		.sleb128 -40
 6072 1563 24       		.uleb128 0x24
 6073 1564 736C6900 		.ascii	"sli\000"
 6074 1568 01       		.byte	0x1
 6075 1569 6503     		.2byte	0x365
 6076 156b 5D000000 		.4byte	0x5d
 6077 156f 02       		.uleb128 0x2
 6078 1570 91       		.byte	0x91
 6079 1571 5C       		.sleb128 -36
 6080 1572 1B       		.uleb128 0x1b
 6081 1573 78000000 		.4byte	.LVL289
 6082 1577 F6020000 		.4byte	0x2f6
 6083 157b 86150000 		.4byte	0x1586
 6084 157f 18       		.uleb128 0x18
 6085 1580 01       		.uleb128 0x1
 6086 1581 50       		.byte	0x50
 6087 1582 02       		.uleb128 0x2
 6088 1583 75       		.byte	0x75
 6089 1584 00       		.sleb128 0
 6090 1585 00       		.byte	0
 6091 1586 1B       		.uleb128 0x1b
 6092 1587 8A000000 		.4byte	.LVL291
 6093 158b 6B030000 		.4byte	0x36b
 6094 158f 9A150000 		.4byte	0x159a
 6095 1593 18       		.uleb128 0x18
 6096 1594 01       		.uleb128 0x1
 6097 1595 50       		.byte	0x50
 6098 1596 02       		.uleb128 0x2
 6099 1597 75       		.byte	0x75
 6100 1598 00       		.sleb128 0
 6101 1599 00       		.byte	0
 6102 159a 1B       		.uleb128 0x1b
 6103 159b 9C000000 		.4byte	.LVL293
 6104 159f B1040000 		.4byte	0x4b1
ARM GAS  C:\Users\haske\AppData\Local\Temp\ccswauRt.s 			page 133


 6105 15a3 AE150000 		.4byte	0x15ae
 6106 15a7 18       		.uleb128 0x18
 6107 15a8 01       		.uleb128 0x1
 6108 15a9 50       		.byte	0x50
 6109 15aa 02       		.uleb128 0x2
 6110 15ab 75       		.byte	0x75
 6111 15ac 00       		.sleb128 0
 6112 15ad 00       		.byte	0
 6113 15ae 1B       		.uleb128 0x1b
 6114 15af A2000000 		.4byte	.LVL294
 6115 15b3 F6020000 		.4byte	0x2f6
 6116 15b7 C3150000 		.4byte	0x15c3
 6117 15bb 18       		.uleb128 0x18
 6118 15bc 01       		.uleb128 0x1
 6119 15bd 50       		.byte	0x50
 6120 15be 03       		.uleb128 0x3
 6121 15bf 91       		.byte	0x91
 6122 15c0 54       		.sleb128 -44
 6123 15c1 06       		.byte	0x6
 6124 15c2 00       		.byte	0
 6125 15c3 1B       		.uleb128 0x1b
 6126 15c4 B4000000 		.4byte	.LVL296
 6127 15c8 6B030000 		.4byte	0x36b
 6128 15cc D8150000 		.4byte	0x15d8
 6129 15d0 18       		.uleb128 0x18
 6130 15d1 01       		.uleb128 0x1
 6131 15d2 50       		.byte	0x50
 6132 15d3 03       		.uleb128 0x3
 6133 15d4 91       		.byte	0x91
 6134 15d5 54       		.sleb128 -44
 6135 15d6 06       		.byte	0x6
 6136 15d7 00       		.byte	0
 6137 15d8 1B       		.uleb128 0x1b
 6138 15d9 C6000000 		.4byte	.LVL298
 6139 15dd 3A020000 		.4byte	0x23a
 6140 15e1 EC150000 		.4byte	0x15ec
 6141 15e5 18       		.uleb128 0x18
 6142 15e6 01       		.uleb128 0x1
 6143 15e7 50       		.byte	0x50
 6144 15e8 02       		.uleb128 0x2
 6145 15e9 75       		.byte	0x75
 6146 15ea 00       		.sleb128 0
 6147 15eb 00       		.byte	0
 6148 15ec 17       		.uleb128 0x17
 6149 15ed DA000000 		.4byte	.LVL300
 6150 15f1 420C0000 		.4byte	0xc42
 6151 15f5 18       		.uleb128 0x18
 6152 15f6 01       		.uleb128 0x1
 6153 15f7 51       		.byte	0x51
 6154 15f8 02       		.uleb128 0x2
 6155 15f9 91       		.byte	0x91
 6156 15fa 58       		.sleb128 -40
 6157 15fb 18       		.uleb128 0x18
 6158 15fc 01       		.uleb128 0x1
 6159 15fd 52       		.byte	0x52
 6160 15fe 02       		.uleb128 0x2
 6161 15ff 91       		.byte	0x91
ARM GAS  C:\Users\haske\AppData\Local\Temp\ccswauRt.s 			page 134


 6162 1600 5C       		.sleb128 -36
 6163 1601 00       		.byte	0
 6164 1602 00       		.byte	0
 6165 1603 00       		.byte	0
 6166 1604 00       		.byte	0
 6167 1605 28       		.uleb128 0x28
 6168 1606 53050000 		.4byte	.LASF124
 6169 160a 01       		.byte	0x1
 6170 160b 7E03     		.2byte	0x37e
 6171 160d 00000000 		.4byte	.LFB45
 6172 1611 58000000 		.4byte	.LFE45-.LFB45
 6173 1615 01       		.uleb128 0x1
 6174 1616 9C       		.byte	0x9c
 6175 1617 FD160000 		.4byte	0x16fd
 6176 161b 12       		.uleb128 0x12
 6177 161c 6C050000 		.4byte	.LASF108
 6178 1620 01       		.byte	0x1
 6179 1621 7E03     		.2byte	0x37e
 6180 1623 95000000 		.4byte	0x95
 6181 1627 F1110000 		.4byte	.LLST111
 6182 162b 12       		.uleb128 0x12
 6183 162c 6B020000 		.4byte	.LASF109
 6184 1630 01       		.byte	0x1
 6185 1631 7E03     		.2byte	0x37e
 6186 1633 A0000000 		.4byte	0xa0
 6187 1637 12120000 		.4byte	.LLST112
 6188 163b 12       		.uleb128 0x12
 6189 163c 30030000 		.4byte	.LASF81
 6190 1640 01       		.byte	0x1
 6191 1641 7E03     		.2byte	0x37e
 6192 1643 93000000 		.4byte	0x93
 6193 1647 33120000 		.4byte	.LLST113
 6194 164b 16       		.uleb128 0x16
 6195 164c 0F050000 		.4byte	.LASF110
 6196 1650 01       		.byte	0x1
 6197 1651 8003     		.2byte	0x380
 6198 1653 A0000000 		.4byte	0xa0
 6199 1657 52120000 		.4byte	.LLST114
 6200 165b 16       		.uleb128 0x16
 6201 165c 88060000 		.4byte	.LASF41
 6202 1660 01       		.byte	0x1
 6203 1661 8103     		.2byte	0x381
 6204 1663 E8010000 		.4byte	0x1e8
 6205 1667 65120000 		.4byte	.LLST115
 6206 166b 1B       		.uleb128 0x1b
 6207 166c 14000000 		.4byte	.LVL313
 6208 1670 3D040000 		.4byte	0x43d
 6209 1674 7F160000 		.4byte	0x167f
 6210 1678 18       		.uleb128 0x18
 6211 1679 01       		.uleb128 0x1
 6212 167a 51       		.byte	0x51
 6213 167b 02       		.uleb128 0x2
 6214 167c 09       		.byte	0x9
 6215 167d FC       		.byte	0xfc
 6216 167e 00       		.byte	0
 6217 167f 1B       		.uleb128 0x1b
 6218 1680 1E000000 		.4byte	.LVL316
ARM GAS  C:\Users\haske\AppData\Local\Temp\ccswauRt.s 			page 135


 6219 1684 12040000 		.4byte	0x412
 6220 1688 93160000 		.4byte	0x1693
 6221 168c 18       		.uleb128 0x18
 6222 168d 01       		.uleb128 0x1
 6223 168e 50       		.byte	0x50
 6224 168f 02       		.uleb128 0x2
 6225 1690 74       		.byte	0x74
 6226 1691 00       		.sleb128 0
 6227 1692 00       		.byte	0
 6228 1693 1B       		.uleb128 0x1b
 6229 1694 26000000 		.4byte	.LVL317
 6230 1698 3A020000 		.4byte	0x23a
 6231 169c A7160000 		.4byte	0x16a7
 6232 16a0 18       		.uleb128 0x18
 6233 16a1 01       		.uleb128 0x1
 6234 16a2 50       		.byte	0x50
 6235 16a3 02       		.uleb128 0x2
 6236 16a4 74       		.byte	0x74
 6237 16a5 00       		.sleb128 0
 6238 16a6 00       		.byte	0
 6239 16a7 1B       		.uleb128 0x1b
 6240 16a8 2E000000 		.4byte	.LVL318
 6241 16ac F6020000 		.4byte	0x2f6
 6242 16b0 BB160000 		.4byte	0x16bb
 6243 16b4 18       		.uleb128 0x18
 6244 16b5 01       		.uleb128 0x1
 6245 16b6 50       		.byte	0x50
 6246 16b7 02       		.uleb128 0x2
 6247 16b8 74       		.byte	0x74
 6248 16b9 00       		.sleb128 0
 6249 16ba 00       		.byte	0
 6250 16bb 29       		.uleb128 0x29
 6251 16bc 3A000000 		.4byte	.LVL319
 6252 16c0 D8160000 		.4byte	0x16d8
 6253 16c4 18       		.uleb128 0x18
 6254 16c5 01       		.uleb128 0x1
 6255 16c6 50       		.byte	0x50
 6256 16c7 02       		.uleb128 0x2
 6257 16c8 75       		.byte	0x75
 6258 16c9 00       		.sleb128 0
 6259 16ca 18       		.uleb128 0x18
 6260 16cb 01       		.uleb128 0x1
 6261 16cc 51       		.byte	0x51
 6262 16cd 02       		.uleb128 0x2
 6263 16ce 76       		.byte	0x76
 6264 16cf 00       		.sleb128 0
 6265 16d0 18       		.uleb128 0x18
 6266 16d1 01       		.uleb128 0x1
 6267 16d2 53       		.byte	0x53
 6268 16d3 03       		.uleb128 0x3
 6269 16d4 91       		.byte	0x91
 6270 16d5 64       		.sleb128 -28
 6271 16d6 06       		.byte	0x6
 6272 16d7 00       		.byte	0
 6273 16d8 1B       		.uleb128 0x1b
 6274 16d9 40000000 		.4byte	.LVL320
 6275 16dd B1040000 		.4byte	0x4b1
ARM GAS  C:\Users\haske\AppData\Local\Temp\ccswauRt.s 			page 136


 6276 16e1 EC160000 		.4byte	0x16ec
 6277 16e5 18       		.uleb128 0x18
 6278 16e6 01       		.uleb128 0x1
 6279 16e7 50       		.byte	0x50
 6280 16e8 02       		.uleb128 0x2
 6281 16e9 74       		.byte	0x74
 6282 16ea 00       		.sleb128 0
 6283 16eb 00       		.byte	0
 6284 16ec 17       		.uleb128 0x17
 6285 16ed 4C000000 		.4byte	.LVL322
 6286 16f1 BA020000 		.4byte	0x2ba
 6287 16f5 18       		.uleb128 0x18
 6288 16f6 01       		.uleb128 0x1
 6289 16f7 50       		.byte	0x50
 6290 16f8 02       		.uleb128 0x2
 6291 16f9 74       		.byte	0x74
 6292 16fa 00       		.sleb128 0
 6293 16fb 00       		.byte	0
 6294 16fc 00       		.byte	0
 6295 16fd 27       		.uleb128 0x27
 6296 16fe 9A060000 		.4byte	.LASF112
 6297 1702 01       		.byte	0x1
 6298 1703 8E03     		.2byte	0x38e
 6299 1705 76000000 		.4byte	0x76
 6300 1709 00000000 		.4byte	.LFB46
 6301 170d 14000000 		.4byte	.LFE46-.LFB46
 6302 1711 01       		.uleb128 0x1
 6303 1712 9C       		.byte	0x9c
 6304 1713 70170000 		.4byte	0x1770
 6305 1717 19       		.uleb128 0x19
 6306 1718 70747200 		.ascii	"ptr\000"
 6307 171c 01       		.byte	0x1
 6308 171d 8E03     		.2byte	0x38e
 6309 171f 93000000 		.4byte	0x93
 6310 1723 99120000 		.4byte	.LLST116
 6311 1727 16       		.uleb128 0x16
 6312 1728 25050000 		.4byte	.LASF28
 6313 172c 01       		.byte	0x1
 6314 172d 9003     		.2byte	0x390
 6315 172f 76000000 		.4byte	0x76
 6316 1733 D3120000 		.4byte	.LLST117
 6317 1737 1E       		.uleb128 0x1e
 6318 1738 06000000 		.4byte	.LBB11
 6319 173c 0A000000 		.4byte	.LBE11-.LBB11
 6320 1740 16       		.uleb128 0x16
 6321 1741 88060000 		.4byte	.LASF41
 6322 1745 01       		.byte	0x1
 6323 1746 9203     		.2byte	0x392
 6324 1748 65020000 		.4byte	0x265
 6325 174c 09130000 		.4byte	.LLST118
 6326 1750 1B       		.uleb128 0x1b
 6327 1751 0A000000 		.4byte	.LVL327
 6328 1755 E0030000 		.4byte	0x3e0
 6329 1759 65170000 		.4byte	0x1765
 6330 175d 18       		.uleb128 0x18
 6331 175e 01       		.uleb128 0x1
 6332 175f 50       		.byte	0x50
ARM GAS  C:\Users\haske\AppData\Local\Temp\ccswauRt.s 			page 137


 6333 1760 03       		.uleb128 0x3
 6334 1761 F3       		.byte	0xf3
 6335 1762 01       		.uleb128 0x1
 6336 1763 50       		.byte	0x50
 6337 1764 00       		.byte	0
 6338 1765 1D       		.uleb128 0x1d
 6339 1766 0E000000 		.4byte	.LVL328
 6340 176a 3A020000 		.4byte	0x23a
 6341 176e 00       		.byte	0
 6342 176f 00       		.byte	0
 6343 1770 27       		.uleb128 0x27
 6344 1771 04020000 		.4byte	.LASF113
 6345 1775 01       		.byte	0x1
 6346 1776 9803     		.2byte	0x398
 6347 1778 5D000000 		.4byte	0x5d
 6348 177c 00000000 		.4byte	.LFB47
 6349 1780 1C000000 		.4byte	.LFE47-.LFB47
 6350 1784 01       		.uleb128 0x1
 6351 1785 9C       		.byte	0x9c
 6352 1786 CA170000 		.4byte	0x17ca
 6353 178a 12       		.uleb128 0x12
 6354 178b 6C050000 		.4byte	.LASF108
 6355 178f 01       		.byte	0x1
 6356 1790 9803     		.2byte	0x398
 6357 1792 95000000 		.4byte	0x95
 6358 1796 1C130000 		.4byte	.LLST119
 6359 179a 1C       		.uleb128 0x1c
 6360 179b BC070000 		.4byte	.LASF82
 6361 179f 01       		.byte	0x1
 6362 17a0 9B03     		.2byte	0x39b
 6363 17a2 2E020000 		.4byte	0x22e
 6364 17a6 02       		.uleb128 0x2
 6365 17a7 91       		.byte	0x91
 6366 17a8 70       		.sleb128 -16
 6367 17a9 17       		.uleb128 0x17
 6368 17aa 12000000 		.4byte	.LVL332
 6369 17ae 05160000 		.4byte	0x1605
 6370 17b2 18       		.uleb128 0x18
 6371 17b3 01       		.uleb128 0x1
 6372 17b4 50       		.byte	0x50
 6373 17b5 03       		.uleb128 0x3
 6374 17b6 F3       		.byte	0xf3
 6375 17b7 01       		.uleb128 0x1
 6376 17b8 50       		.byte	0x50
 6377 17b9 18       		.uleb128 0x18
 6378 17ba 01       		.uleb128 0x1
 6379 17bb 51       		.byte	0x51
 6380 17bc 05       		.uleb128 0x5
 6381 17bd 03       		.byte	0x3
 6382 17be 00000000 		.4byte	integrity_walker
 6383 17c2 18       		.uleb128 0x18
 6384 17c3 01       		.uleb128 0x1
 6385 17c4 52       		.byte	0x52
 6386 17c5 02       		.uleb128 0x2
 6387 17c6 7D       		.byte	0x7d
 6388 17c7 00       		.sleb128 0
 6389 17c8 00       		.byte	0
ARM GAS  C:\Users\haske\AppData\Local\Temp\ccswauRt.s 			page 138


 6390 17c9 00       		.byte	0
 6391 17ca 2A       		.uleb128 0x2a
 6392 17cb 5C040000 		.4byte	.LASF114
 6393 17cf 01       		.byte	0x1
 6394 17d0 A503     		.2byte	0x3a5
 6395 17d2 76000000 		.4byte	0x76
 6396 17d6 00000000 		.4byte	.LFB48
 6397 17da 08000000 		.4byte	.LFE48-.LFB48
 6398 17de 01       		.uleb128 0x1
 6399 17df 9C       		.byte	0x9c
 6400 17e0 2A       		.uleb128 0x2a
 6401 17e1 26040000 		.4byte	.LASF115
 6402 17e5 01       		.byte	0x1
 6403 17e6 AA03     		.2byte	0x3aa
 6404 17e8 76000000 		.4byte	0x76
 6405 17ec 00000000 		.4byte	.LFB49
 6406 17f0 04000000 		.4byte	.LFE49-.LFB49
 6407 17f4 01       		.uleb128 0x1
 6408 17f5 9C       		.byte	0x9c
 6409 17f6 2A       		.uleb128 0x2a
 6410 17f7 17020000 		.4byte	.LASF116
 6411 17fb 01       		.byte	0x1
 6412 17fc AF03     		.2byte	0x3af
 6413 17fe 76000000 		.4byte	0x76
 6414 1802 00000000 		.4byte	.LFB50
 6415 1806 04000000 		.4byte	.LFE50-.LFB50
 6416 180a 01       		.uleb128 0x1
 6417 180b 9C       		.byte	0x9c
 6418 180c 2A       		.uleb128 0x2a
 6419 180d 57060000 		.4byte	.LASF117
 6420 1811 01       		.byte	0x1
 6421 1812 B403     		.2byte	0x3b4
 6422 1814 76000000 		.4byte	0x76
 6423 1818 00000000 		.4byte	.LFB51
 6424 181c 06000000 		.4byte	.LFE51-.LFB51
 6425 1820 01       		.uleb128 0x1
 6426 1821 9C       		.byte	0x9c
 6427 1822 2A       		.uleb128 0x2a
 6428 1823 CD080000 		.4byte	.LASF118
 6429 1827 01       		.byte	0x1
 6430 1828 BE03     		.2byte	0x3be
 6431 182a 76000000 		.4byte	0x76
 6432 182e 00000000 		.4byte	.LFB52
 6433 1832 04000000 		.4byte	.LFE52-.LFB52
 6434 1836 01       		.uleb128 0x1
 6435 1837 9C       		.byte	0x9c
 6436 1838 2A       		.uleb128 0x2a
 6437 1839 54020000 		.4byte	.LASF119
 6438 183d 01       		.byte	0x1
 6439 183e C303     		.2byte	0x3c3
 6440 1840 76000000 		.4byte	0x76
 6441 1844 00000000 		.4byte	.LFB53
 6442 1848 04000000 		.4byte	.LFE53-.LFB53
 6443 184c 01       		.uleb128 0x1
 6444 184d 9C       		.byte	0x9c
 6445 184e 27       		.uleb128 0x27
 6446 184f 04030000 		.4byte	.LASF120
ARM GAS  C:\Users\haske\AppData\Local\Temp\ccswauRt.s 			page 139


 6447 1853 01       		.byte	0x1
 6448 1854 C803     		.2byte	0x3c8
 6449 1856 95000000 		.4byte	0x95
 6450 185a 00000000 		.4byte	.LFB54
 6451 185e 74000000 		.4byte	.LFE54-.LFB54
 6452 1862 01       		.uleb128 0x1
 6453 1863 9C       		.byte	0x9c
 6454 1864 BC190000 		.4byte	0x19bc
 6455 1868 12       		.uleb128 0x12
 6456 1869 9D070000 		.4byte	.LASF106
 6457 186d 01       		.byte	0x1
 6458 186e C803     		.2byte	0x3c8
 6459 1870 88000000 		.4byte	0x88
 6460 1874 3D130000 		.4byte	.LLST120
 6461 1878 19       		.uleb128 0x19
 6462 1879 6D656D00 		.ascii	"mem\000"
 6463 187d 01       		.byte	0x1
 6464 187e C803     		.2byte	0x3c8
 6465 1880 93000000 		.4byte	0x93
 6466 1884 69130000 		.4byte	.LLST121
 6467 1888 12       		.uleb128 0x12
 6468 1889 1C060000 		.4byte	.LASF121
 6469 188d 01       		.byte	0x1
 6470 188e C803     		.2byte	0x3c8
 6471 1890 76000000 		.4byte	0x76
 6472 1894 95130000 		.4byte	.LLST122
 6473 1898 16       		.uleb128 0x16
 6474 1899 88060000 		.4byte	.LASF41
 6475 189d 01       		.byte	0x1
 6476 189e CA03     		.2byte	0x3ca
 6477 18a0 E8010000 		.4byte	0x1e8
 6478 18a4 DA130000 		.4byte	.LLST123
 6479 18a8 16       		.uleb128 0x16
 6480 18a9 51000000 		.4byte	.LASF57
 6481 18ad 01       		.byte	0x1
 6482 18ae CB03     		.2byte	0x3cb
 6483 18b0 E8010000 		.4byte	0x1e8
 6484 18b4 F8130000 		.4byte	.LLST124
 6485 18b8 16       		.uleb128 0x16
 6486 18b9 72020000 		.4byte	.LASF122
 6487 18bd 01       		.byte	0x1
 6488 18be CD03     		.2byte	0x3cd
 6489 18c0 B5020000 		.4byte	0x2b5
 6490 18c4 16140000 		.4byte	.LLST125
 6491 18c8 16       		.uleb128 0x16
 6492 18c9 8A000000 		.4byte	.LASF123
 6493 18cd 01       		.byte	0x1
 6494 18ce CE03     		.2byte	0x3ce
 6495 18d0 B5020000 		.4byte	0x2b5
 6496 18d4 29140000 		.4byte	.LLST126
 6497 18d8 1D       		.uleb128 0x1d
 6498 18d9 0C000000 		.4byte	.LVL334
 6499 18dd 22180000 		.4byte	0x1822
 6500 18e1 1B       		.uleb128 0x1b
 6501 18e2 14000000 		.4byte	.LVL336
 6502 18e6 80060000 		.4byte	0x680
 6503 18ea F4180000 		.4byte	0x18f4
ARM GAS  C:\Users\haske\AppData\Local\Temp\ccswauRt.s 			page 140


 6504 18ee 18       		.uleb128 0x18
 6505 18ef 01       		.uleb128 0x1
 6506 18f0 51       		.byte	0x51
 6507 18f1 01       		.uleb128 0x1
 6508 18f2 34       		.byte	0x34
 6509 18f3 00       		.byte	0
 6510 18f4 1B       		.uleb128 0x1b
 6511 18f5 2E000000 		.4byte	.LVL339
 6512 18f9 3D040000 		.4byte	0x43d
 6513 18fd 0E190000 		.4byte	0x190e
 6514 1901 18       		.uleb128 0x18
 6515 1902 01       		.uleb128 0x1
 6516 1903 50       		.byte	0x50
 6517 1904 02       		.uleb128 0x2
 6518 1905 74       		.byte	0x74
 6519 1906 00       		.sleb128 0
 6520 1907 18       		.uleb128 0x18
 6521 1908 01       		.uleb128 0x1
 6522 1909 51       		.byte	0x51
 6523 190a 02       		.uleb128 0x2
 6524 190b 09       		.byte	0x9
 6525 190c FC       		.byte	0xfc
 6526 190d 00       		.byte	0
 6527 190e 1B       		.uleb128 0x1b
 6528 190f 36000000 		.4byte	.LVL341
 6529 1913 70020000 		.4byte	0x270
 6530 1917 28190000 		.4byte	0x1928
 6531 191b 18       		.uleb128 0x18
 6532 191c 01       		.uleb128 0x1
 6533 191d 50       		.byte	0x50
 6534 191e 02       		.uleb128 0x2
 6535 191f 75       		.byte	0x75
 6536 1920 00       		.sleb128 0
 6537 1921 18       		.uleb128 0x18
 6538 1922 01       		.uleb128 0x1
 6539 1923 51       		.byte	0x51
 6540 1924 02       		.uleb128 0x2
 6541 1925 77       		.byte	0x77
 6542 1926 00       		.sleb128 0
 6543 1927 00       		.byte	0
 6544 1928 1B       		.uleb128 0x1b
 6545 1929 3C000000 		.4byte	.LVL342
 6546 192d 21030000 		.4byte	0x321
 6547 1931 3C190000 		.4byte	0x193c
 6548 1935 18       		.uleb128 0x18
 6549 1936 01       		.uleb128 0x1
 6550 1937 50       		.byte	0x50
 6551 1938 02       		.uleb128 0x2
 6552 1939 75       		.byte	0x75
 6553 193a 00       		.sleb128 0
 6554 193b 00       		.byte	0
 6555 193c 1B       		.uleb128 0x1b
 6556 193d 42000000 		.4byte	.LVL343
 6557 1941 BB030000 		.4byte	0x3bb
 6558 1945 50190000 		.4byte	0x1950
 6559 1949 18       		.uleb128 0x18
 6560 194a 01       		.uleb128 0x1
ARM GAS  C:\Users\haske\AppData\Local\Temp\ccswauRt.s 			page 141


 6561 194b 50       		.byte	0x50
 6562 194c 02       		.uleb128 0x2
 6563 194d 75       		.byte	0x75
 6564 194e 00       		.sleb128 0
 6565 194f 00       		.byte	0
 6566 1950 1B       		.uleb128 0x1b
 6567 1951 4A000000 		.4byte	.LVL344
 6568 1955 B60C0000 		.4byte	0xcb6
 6569 1959 6A190000 		.4byte	0x196a
 6570 195d 18       		.uleb128 0x18
 6571 195e 01       		.uleb128 0x1
 6572 195f 50       		.byte	0x50
 6573 1960 02       		.uleb128 0x2
 6574 1961 76       		.byte	0x76
 6575 1962 00       		.sleb128 0
 6576 1963 18       		.uleb128 0x18
 6577 1964 01       		.uleb128 0x1
 6578 1965 51       		.byte	0x51
 6579 1966 02       		.uleb128 0x2
 6580 1967 75       		.byte	0x75
 6581 1968 00       		.sleb128 0
 6582 1969 00       		.byte	0
 6583 196a 1B       		.uleb128 0x1b
 6584 196b 50000000 		.4byte	.LVL345
 6585 196f 38050000 		.4byte	0x538
 6586 1973 7E190000 		.4byte	0x197e
 6587 1977 18       		.uleb128 0x18
 6588 1978 01       		.uleb128 0x1
 6589 1979 50       		.byte	0x50
 6590 197a 02       		.uleb128 0x2
 6591 197b 75       		.byte	0x75
 6592 197c 00       		.sleb128 0
 6593 197d 00       		.byte	0
 6594 197e 1B       		.uleb128 0x1b
 6595 197f 58000000 		.4byte	.LVL347
 6596 1983 70020000 		.4byte	0x270
 6597 1987 97190000 		.4byte	0x1997
 6598 198b 18       		.uleb128 0x18
 6599 198c 01       		.uleb128 0x1
 6600 198d 50       		.byte	0x50
 6601 198e 02       		.uleb128 0x2
 6602 198f 75       		.byte	0x75
 6603 1990 00       		.sleb128 0
 6604 1991 18       		.uleb128 0x18
 6605 1992 01       		.uleb128 0x1
 6606 1993 51       		.byte	0x51
 6607 1994 01       		.uleb128 0x1
 6608 1995 30       		.byte	0x30
 6609 1996 00       		.byte	0
 6610 1997 1B       		.uleb128 0x1b
 6611 1998 5E000000 		.4byte	.LVL348
 6612 199c 46030000 		.4byte	0x346
 6613 19a0 AB190000 		.4byte	0x19ab
 6614 19a4 18       		.uleb128 0x18
 6615 19a5 01       		.uleb128 0x1
 6616 19a6 50       		.byte	0x50
 6617 19a7 02       		.uleb128 0x2
ARM GAS  C:\Users\haske\AppData\Local\Temp\ccswauRt.s 			page 142


 6618 19a8 75       		.byte	0x75
 6619 19a9 00       		.sleb128 0
 6620 19aa 00       		.byte	0
 6621 19ab 17       		.uleb128 0x17
 6622 19ac 64000000 		.4byte	.LVL349
 6623 19b0 96030000 		.4byte	0x396
 6624 19b4 18       		.uleb128 0x18
 6625 19b5 01       		.uleb128 0x1
 6626 19b6 50       		.byte	0x50
 6627 19b7 02       		.uleb128 0x2
 6628 19b8 75       		.byte	0x75
 6629 19b9 00       		.sleb128 0
 6630 19ba 00       		.byte	0
 6631 19bb 00       		.byte	0
 6632 19bc 28       		.uleb128 0x28
 6633 19bd D2070000 		.4byte	.LASF125
 6634 19c1 01       		.byte	0x1
 6635 19c2 F703     		.2byte	0x3f7
 6636 19c4 00000000 		.4byte	.LFB55
 6637 19c8 5E000000 		.4byte	.LFE55-.LFB55
 6638 19cc 01       		.uleb128 0x1
 6639 19cd 9C       		.byte	0x9c
 6640 19ce DE1A0000 		.4byte	0x1ade
 6641 19d2 12       		.uleb128 0x12
 6642 19d3 9D070000 		.4byte	.LASF106
 6643 19d7 01       		.byte	0x1
 6644 19d8 F703     		.2byte	0x3f7
 6645 19da 88000000 		.4byte	0x88
 6646 19de 73140000 		.4byte	.LLST127
 6647 19e2 12       		.uleb128 0x12
 6648 19e3 6C050000 		.4byte	.LASF108
 6649 19e7 01       		.byte	0x1
 6650 19e8 F703     		.2byte	0x3f7
 6651 19ea 95000000 		.4byte	0x95
 6652 19ee 9F140000 		.4byte	.LLST128
 6653 19f2 16       		.uleb128 0x16
 6654 19f3 3C000000 		.4byte	.LASF69
 6655 19f7 01       		.byte	0x1
 6656 19f8 F903     		.2byte	0x3f9
 6657 19fa F5070000 		.4byte	0x7f5
 6658 19fe CB140000 		.4byte	.LLST129
 6659 1a02 16       		.uleb128 0x16
 6660 1a03 88060000 		.4byte	.LASF41
 6661 1a07 01       		.byte	0x1
 6662 1a08 FA03     		.2byte	0x3fa
 6663 1a0a E8010000 		.4byte	0x1e8
 6664 1a0e EC140000 		.4byte	.LLST130
 6665 1a12 24       		.uleb128 0x24
 6666 1a13 666C00   		.ascii	"fl\000"
 6667 1a16 01       		.byte	0x1
 6668 1a17 FC03     		.2byte	0x3fc
 6669 1a19 5D000000 		.4byte	0x5d
 6670 1a1d 02       		.uleb128 0x2
 6671 1a1e 91       		.byte	0x91
 6672 1a1f 6C       		.sleb128 -20
 6673 1a20 24       		.uleb128 0x24
 6674 1a21 736C00   		.ascii	"sl\000"
ARM GAS  C:\Users\haske\AppData\Local\Temp\ccswauRt.s 			page 143


 6675 1a24 01       		.byte	0x1
 6676 1a25 FC03     		.2byte	0x3fc
 6677 1a27 5D000000 		.4byte	0x5d
 6678 1a2b 02       		.uleb128 0x2
 6679 1a2c 91       		.byte	0x91
 6680 1a2d 68       		.sleb128 -24
 6681 1a2e 1B       		.uleb128 0x1b
 6682 1a2f 10000000 		.4byte	.LVL360
 6683 1a33 3D040000 		.4byte	0x43d
 6684 1a37 491A0000 		.4byte	0x1a49
 6685 1a3b 18       		.uleb128 0x18
 6686 1a3c 01       		.uleb128 0x1
 6687 1a3d 50       		.byte	0x50
 6688 1a3e 03       		.uleb128 0x3
 6689 1a3f F3       		.byte	0xf3
 6690 1a40 01       		.uleb128 0x1
 6691 1a41 51       		.byte	0x51
 6692 1a42 18       		.uleb128 0x18
 6693 1a43 01       		.uleb128 0x1
 6694 1a44 51       		.byte	0x51
 6695 1a45 02       		.uleb128 0x2
 6696 1a46 09       		.byte	0x9
 6697 1a47 FC       		.byte	0xfc
 6698 1a48 00       		.byte	0
 6699 1a49 1B       		.uleb128 0x1b
 6700 1a4a 1C000000 		.4byte	.LVL362
 6701 1a4e F6020000 		.4byte	0x2f6
 6702 1a52 5D1A0000 		.4byte	0x1a5d
 6703 1a56 18       		.uleb128 0x18
 6704 1a57 01       		.uleb128 0x1
 6705 1a58 50       		.byte	0x50
 6706 1a59 02       		.uleb128 0x2
 6707 1a5a 74       		.byte	0x74
 6708 1a5b 00       		.sleb128 0
 6709 1a5c 00       		.byte	0
 6710 1a5d 1B       		.uleb128 0x1b
 6711 1a5e 28000000 		.4byte	.LVL363
 6712 1a62 B1040000 		.4byte	0x4b1
 6713 1a66 711A0000 		.4byte	0x1a71
 6714 1a6a 18       		.uleb128 0x18
 6715 1a6b 01       		.uleb128 0x1
 6716 1a6c 50       		.byte	0x50
 6717 1a6d 02       		.uleb128 0x2
 6718 1a6e 74       		.byte	0x74
 6719 1a6f 00       		.sleb128 0
 6720 1a70 00       		.byte	0
 6721 1a71 1B       		.uleb128 0x1b
 6722 1a72 2E000000 		.4byte	.LVL364
 6723 1a76 F6020000 		.4byte	0x2f6
 6724 1a7a 851A0000 		.4byte	0x1a85
 6725 1a7e 18       		.uleb128 0x18
 6726 1a7f 01       		.uleb128 0x1
 6727 1a80 50       		.byte	0x50
 6728 1a81 02       		.uleb128 0x2
 6729 1a82 75       		.byte	0x75
 6730 1a83 00       		.sleb128 0
 6731 1a84 00       		.byte	0
ARM GAS  C:\Users\haske\AppData\Local\Temp\ccswauRt.s 			page 144


 6732 1a85 1B       		.uleb128 0x1b
 6733 1a86 3A000000 		.4byte	.LVL365
 6734 1a8a 3A020000 		.4byte	0x23a
 6735 1a8e 991A0000 		.4byte	0x1a99
 6736 1a92 18       		.uleb128 0x18
 6737 1a93 01       		.uleb128 0x1
 6738 1a94 50       		.byte	0x50
 6739 1a95 02       		.uleb128 0x2
 6740 1a96 75       		.byte	0x75
 6741 1a97 00       		.sleb128 0
 6742 1a98 00       		.byte	0
 6743 1a99 1B       		.uleb128 0x1b
 6744 1a9a 46000000 		.4byte	.LVL366
 6745 1a9e 3A020000 		.4byte	0x23a
 6746 1aa2 AD1A0000 		.4byte	0x1aad
 6747 1aa6 18       		.uleb128 0x18
 6748 1aa7 01       		.uleb128 0x1
 6749 1aa8 50       		.byte	0x50
 6750 1aa9 02       		.uleb128 0x2
 6751 1aaa 74       		.byte	0x74
 6752 1aab 00       		.sleb128 0
 6753 1aac 00       		.byte	0
 6754 1aad 1B       		.uleb128 0x1b
 6755 1aae 4E000000 		.4byte	.LVL367
 6756 1ab2 420C0000 		.4byte	0xc42
 6757 1ab6 C71A0000 		.4byte	0x1ac7
 6758 1aba 18       		.uleb128 0x18
 6759 1abb 01       		.uleb128 0x1
 6760 1abc 51       		.byte	0x51
 6761 1abd 02       		.uleb128 0x2
 6762 1abe 91       		.byte	0x91
 6763 1abf 6C       		.sleb128 -20
 6764 1ac0 18       		.uleb128 0x18
 6765 1ac1 01       		.uleb128 0x1
 6766 1ac2 52       		.byte	0x52
 6767 1ac3 02       		.uleb128 0x2
 6768 1ac4 7D       		.byte	0x7d
 6769 1ac5 00       		.sleb128 0
 6770 1ac6 00       		.byte	0
 6771 1ac7 17       		.uleb128 0x17
 6772 1ac8 5A000000 		.4byte	.LVL368
 6773 1acc 82070000 		.4byte	0x782
 6774 1ad0 18       		.uleb128 0x18
 6775 1ad1 01       		.uleb128 0x1
 6776 1ad2 50       		.byte	0x50
 6777 1ad3 02       		.uleb128 0x2
 6778 1ad4 76       		.byte	0x76
 6779 1ad5 00       		.sleb128 0
 6780 1ad6 18       		.uleb128 0x18
 6781 1ad7 01       		.uleb128 0x1
 6782 1ad8 51       		.byte	0x51
 6783 1ad9 02       		.uleb128 0x2
 6784 1ada 74       		.byte	0x74
 6785 1adb 00       		.sleb128 0
 6786 1adc 00       		.byte	0
 6787 1add 00       		.byte	0
 6788 1ade 27       		.uleb128 0x27
ARM GAS  C:\Users\haske\AppData\Local\Temp\ccswauRt.s 			page 145


 6789 1adf 9E020000 		.4byte	.LASF126
 6790 1ae3 01       		.byte	0x1
 6791 1ae4 2504     		.2byte	0x425
 6792 1ae6 88000000 		.4byte	0x88
 6793 1aea 00000000 		.4byte	.LFB56
 6794 1aee 14000000 		.4byte	.LFE56-.LFB56
 6795 1af2 01       		.uleb128 0x1
 6796 1af3 9C       		.byte	0x9c
 6797 1af4 191B0000 		.4byte	0x1b19
 6798 1af8 19       		.uleb128 0x19
 6799 1af9 6D656D00 		.ascii	"mem\000"
 6800 1afd 01       		.byte	0x1
 6801 1afe 2504     		.2byte	0x425
 6802 1b00 93000000 		.4byte	0x93
 6803 1b04 0A150000 		.4byte	.LLST131
 6804 1b08 17       		.uleb128 0x17
 6805 1b09 0C000000 		.4byte	.LVL372
 6806 1b0d 6C0A0000 		.4byte	0xa6c
 6807 1b11 18       		.uleb128 0x18
 6808 1b12 01       		.uleb128 0x1
 6809 1b13 50       		.byte	0x50
 6810 1b14 02       		.uleb128 0x2
 6811 1b15 74       		.byte	0x74
 6812 1b16 00       		.sleb128 0
 6813 1b17 00       		.byte	0
 6814 1b18 00       		.byte	0
 6815 1b19 27       		.uleb128 0x27
 6816 1b1a B6000000 		.4byte	.LASF127
 6817 1b1e 01       		.byte	0x1
 6818 1b1f 3804     		.2byte	0x438
 6819 1b21 88000000 		.4byte	0x88
 6820 1b25 00000000 		.4byte	.LFB57
 6821 1b29 1E000000 		.4byte	.LFE57-.LFB57
 6822 1b2d 01       		.uleb128 0x1
 6823 1b2e 9C       		.byte	0x9c
 6824 1b2f 911B0000 		.4byte	0x1b91
 6825 1b33 19       		.uleb128 0x19
 6826 1b34 6D656D00 		.ascii	"mem\000"
 6827 1b38 01       		.byte	0x1
 6828 1b39 3804     		.2byte	0x438
 6829 1b3b 93000000 		.4byte	0x93
 6830 1b3f 36150000 		.4byte	.LLST132
 6831 1b43 12       		.uleb128 0x12
 6832 1b44 1C060000 		.4byte	.LASF121
 6833 1b48 01       		.byte	0x1
 6834 1b49 3804     		.2byte	0x438
 6835 1b4b 76000000 		.4byte	0x76
 6836 1b4f 62150000 		.4byte	.LLST133
 6837 1b53 16       		.uleb128 0x16
 6838 1b54 9D070000 		.4byte	.LASF106
 6839 1b58 01       		.byte	0x1
 6840 1b59 3A04     		.2byte	0x43a
 6841 1b5b 88000000 		.4byte	0x88
 6842 1b5f 8E150000 		.4byte	.LLST134
 6843 1b63 1B       		.uleb128 0x1b
 6844 1b64 0A000000 		.4byte	.LVL375
 6845 1b68 DE1A0000 		.4byte	0x1ade
ARM GAS  C:\Users\haske\AppData\Local\Temp\ccswauRt.s 			page 146


 6846 1b6c 771B0000 		.4byte	0x1b77
 6847 1b70 18       		.uleb128 0x18
 6848 1b71 01       		.uleb128 0x1
 6849 1b72 50       		.byte	0x50
 6850 1b73 02       		.uleb128 0x2
 6851 1b74 76       		.byte	0x76
 6852 1b75 00       		.sleb128 0
 6853 1b76 00       		.byte	0
 6854 1b77 1D       		.uleb128 0x1d
 6855 1b78 10000000 		.4byte	.LVL377
 6856 1b7c CA170000 		.4byte	0x17ca
 6857 1b80 17       		.uleb128 0x17
 6858 1b81 1A000000 		.4byte	.LVL378
 6859 1b85 4E180000 		.4byte	0x184e
 6860 1b89 18       		.uleb128 0x18
 6861 1b8a 01       		.uleb128 0x1
 6862 1b8b 50       		.byte	0x50
 6863 1b8c 02       		.uleb128 0x2
 6864 1b8d 75       		.byte	0x75
 6865 1b8e 00       		.sleb128 0
 6866 1b8f 00       		.byte	0
 6867 1b90 00       		.byte	0
 6868 1b91 28       		.uleb128 0x28
 6869 1b92 C2070000 		.4byte	.LASF128
 6870 1b96 01       		.byte	0x1
 6871 1b97 3F04     		.2byte	0x43f
 6872 1b99 00000000 		.4byte	.LFB58
 6873 1b9d 02000000 		.4byte	.LFE58-.LFB58
 6874 1ba1 01       		.uleb128 0x1
 6875 1ba2 9C       		.byte	0x9c
 6876 1ba3 B61B0000 		.4byte	0x1bb6
 6877 1ba7 15       		.uleb128 0x15
 6878 1ba8 9D070000 		.4byte	.LASF106
 6879 1bac 01       		.byte	0x1
 6880 1bad 3F04     		.2byte	0x43f
 6881 1baf 88000000 		.4byte	0x88
 6882 1bb3 01       		.uleb128 0x1
 6883 1bb4 50       		.byte	0x50
 6884 1bb5 00       		.byte	0
 6885 1bb6 27       		.uleb128 0x27
 6886 1bb7 02060000 		.4byte	.LASF129
 6887 1bbb 01       		.byte	0x1
 6888 1bbc 4504     		.2byte	0x445
 6889 1bbe 95000000 		.4byte	0x95
 6890 1bc2 00000000 		.4byte	.LFB59
 6891 1bc6 0C000000 		.4byte	.LFE59-.LFB59
 6892 1bca 01       		.uleb128 0x1
 6893 1bcb 9C       		.byte	0x9c
 6894 1bcc EA1B0000 		.4byte	0x1bea
 6895 1bd0 12       		.uleb128 0x12
 6896 1bd1 9D070000 		.4byte	.LASF106
 6897 1bd5 01       		.byte	0x1
 6898 1bd6 4504     		.2byte	0x445
 6899 1bd8 88000000 		.4byte	0x88
 6900 1bdc B7150000 		.4byte	.LLST135
 6901 1be0 1D       		.uleb128 0x1d
 6902 1be1 08000000 		.4byte	.LVL384
ARM GAS  C:\Users\haske\AppData\Local\Temp\ccswauRt.s 			page 147


 6903 1be5 CA170000 		.4byte	0x17ca
 6904 1be9 00       		.byte	0
 6905 1bea 27       		.uleb128 0x27
 6906 1beb 2E020000 		.4byte	.LASF130
 6907 1bef 01       		.byte	0x1
 6908 1bf0 4A04     		.2byte	0x44a
 6909 1bf2 93000000 		.4byte	0x93
 6910 1bf6 00000000 		.4byte	.LFB60
 6911 1bfa 22000000 		.4byte	.LFE60-.LFB60
 6912 1bfe 01       		.uleb128 0x1
 6913 1bff 9C       		.byte	0x9c
 6914 1c00 9F1C0000 		.4byte	0x1c9f
 6915 1c04 12       		.uleb128 0x12
 6916 1c05 9D070000 		.4byte	.LASF106
 6917 1c09 01       		.byte	0x1
 6918 1c0a 4A04     		.2byte	0x44a
 6919 1c0c 88000000 		.4byte	0x88
 6920 1c10 E3150000 		.4byte	.LLST136
 6921 1c14 12       		.uleb128 0x12
 6922 1c15 25050000 		.4byte	.LASF28
 6923 1c19 01       		.byte	0x1
 6924 1c1a 4A04     		.2byte	0x44a
 6925 1c1c 76000000 		.4byte	0x76
 6926 1c20 0F160000 		.4byte	.LLST137
 6927 1c24 16       		.uleb128 0x16
 6928 1c25 3C000000 		.4byte	.LASF69
 6929 1c29 01       		.byte	0x1
 6930 1c2a 4C04     		.2byte	0x44c
 6931 1c2c F5070000 		.4byte	0x7f5
 6932 1c30 3B160000 		.4byte	.LLST138
 6933 1c34 16       		.uleb128 0x16
 6934 1c35 CF050000 		.4byte	.LASF67
 6935 1c39 01       		.byte	0x1
 6936 1c3a 4D04     		.2byte	0x44d
 6937 1c3c B5020000 		.4byte	0x2b5
 6938 1c40 5C160000 		.4byte	.LLST139
 6939 1c44 16       		.uleb128 0x16
 6940 1c45 88060000 		.4byte	.LASF41
 6941 1c49 01       		.byte	0x1
 6942 1c4a 4E04     		.2byte	0x44e
 6943 1c4c E8010000 		.4byte	0x1e8
 6944 1c50 85160000 		.4byte	.LLST140
 6945 1c54 1B       		.uleb128 0x1b
 6946 1c55 0C000000 		.4byte	.LVL389
 6947 1c59 05070000 		.4byte	0x705
 6948 1c5d 6E1C0000 		.4byte	0x1c6e
 6949 1c61 18       		.uleb128 0x18
 6950 1c62 01       		.uleb128 0x1
 6951 1c63 50       		.byte	0x50
 6952 1c64 03       		.uleb128 0x3
 6953 1c65 F3       		.byte	0xf3
 6954 1c66 01       		.uleb128 0x1
 6955 1c67 51       		.byte	0x51
 6956 1c68 18       		.uleb128 0x18
 6957 1c69 01       		.uleb128 0x1
 6958 1c6a 51       		.byte	0x51
 6959 1c6b 01       		.uleb128 0x1
ARM GAS  C:\Users\haske\AppData\Local\Temp\ccswauRt.s 			page 148


 6960 1c6c 34       		.byte	0x34
 6961 1c6d 00       		.byte	0
 6962 1c6e 1B       		.uleb128 0x1b
 6963 1c6f 16000000 		.4byte	.LVL392
 6964 1c73 CB130000 		.4byte	0x13cb
 6965 1c77 881C0000 		.4byte	0x1c88
 6966 1c7b 18       		.uleb128 0x18
 6967 1c7c 01       		.uleb128 0x1
 6968 1c7d 50       		.byte	0x50
 6969 1c7e 02       		.uleb128 0x2
 6970 1c7f 74       		.byte	0x74
 6971 1c80 00       		.sleb128 0
 6972 1c81 18       		.uleb128 0x18
 6973 1c82 01       		.uleb128 0x1
 6974 1c83 51       		.byte	0x51
 6975 1c84 02       		.uleb128 0x2
 6976 1c85 75       		.byte	0x75
 6977 1c86 00       		.sleb128 0
 6978 1c87 00       		.byte	0
 6979 1c88 17       		.uleb128 0x17
 6980 1c89 20000000 		.4byte	.LVL395
 6981 1c8d 340E0000 		.4byte	0xe34
 6982 1c91 18       		.uleb128 0x18
 6983 1c92 01       		.uleb128 0x1
 6984 1c93 50       		.byte	0x50
 6985 1c94 02       		.uleb128 0x2
 6986 1c95 74       		.byte	0x74
 6987 1c96 00       		.sleb128 0
 6988 1c97 18       		.uleb128 0x18
 6989 1c98 01       		.uleb128 0x1
 6990 1c99 52       		.byte	0x52
 6991 1c9a 02       		.uleb128 0x2
 6992 1c9b 75       		.byte	0x75
 6993 1c9c 00       		.sleb128 0
 6994 1c9d 00       		.byte	0
 6995 1c9e 00       		.byte	0
 6996 1c9f 27       		.uleb128 0x27
 6997 1ca0 BD060000 		.4byte	.LASF131
 6998 1ca4 01       		.byte	0x1
 6999 1ca5 5204     		.2byte	0x452
 7000 1ca7 93000000 		.4byte	0x93
 7001 1cab 00000000 		.4byte	.LFB61
 7002 1caf 84000000 		.4byte	.LFE61-.LFB61
 7003 1cb3 01       		.uleb128 0x1
 7004 1cb4 9C       		.byte	0x9c
 7005 1cb5 831E0000 		.4byte	0x1e83
 7006 1cb9 12       		.uleb128 0x12
 7007 1cba 9D070000 		.4byte	.LASF106
 7008 1cbe 01       		.byte	0x1
 7009 1cbf 5204     		.2byte	0x452
 7010 1cc1 88000000 		.4byte	0x88
 7011 1cc5 A3160000 		.4byte	.LLST141
 7012 1cc9 12       		.uleb128 0x12
 7013 1cca 97080000 		.4byte	.LASF62
 7014 1cce 01       		.byte	0x1
 7015 1ccf 5204     		.2byte	0x452
 7016 1cd1 76000000 		.4byte	0x76
ARM GAS  C:\Users\haske\AppData\Local\Temp\ccswauRt.s 			page 149


 7017 1cd5 C2160000 		.4byte	.LLST142
 7018 1cd9 12       		.uleb128 0x12
 7019 1cda 25050000 		.4byte	.LASF28
 7020 1cde 01       		.byte	0x1
 7021 1cdf 5204     		.2byte	0x452
 7022 1ce1 76000000 		.4byte	0x76
 7023 1ce5 04170000 		.4byte	.LLST143
 7024 1ce9 16       		.uleb128 0x16
 7025 1cea 3C000000 		.4byte	.LASF69
 7026 1cee 01       		.byte	0x1
 7027 1cef 5404     		.2byte	0x454
 7028 1cf1 F5070000 		.4byte	0x7f5
 7029 1cf5 25170000 		.4byte	.LLST144
 7030 1cf9 16       		.uleb128 0x16
 7031 1cfa CF050000 		.4byte	.LASF67
 7032 1cfe 01       		.byte	0x1
 7033 1cff 5504     		.2byte	0x455
 7034 1d01 B5020000 		.4byte	0x2b5
 7035 1d05 44170000 		.4byte	.LLST145
 7036 1d09 2B       		.uleb128 0x2b
 7037 1d0a 03050000 		.4byte	.LASF132
 7038 1d0e 01       		.byte	0x1
 7039 1d0f 5F04     		.2byte	0x45f
 7040 1d11 B5020000 		.4byte	0x2b5
 7041 1d15 10       		.byte	0x10
 7042 1d16 16       		.uleb128 0x16
 7043 1d17 F2070000 		.4byte	.LASF133
 7044 1d1b 01       		.byte	0x1
 7045 1d1c 6004     		.2byte	0x460
 7046 1d1e B5020000 		.4byte	0x2b5
 7047 1d22 62170000 		.4byte	.LLST146
 7048 1d26 16       		.uleb128 0x16
 7049 1d27 4A060000 		.4byte	.LASF134
 7050 1d2b 01       		.byte	0x1
 7051 1d2c 6604     		.2byte	0x466
 7052 1d2e B5020000 		.4byte	0x2b5
 7053 1d32 75170000 		.4byte	.LLST147
 7054 1d36 16       		.uleb128 0x16
 7055 1d37 88060000 		.4byte	.LASF41
 7056 1d3b 01       		.byte	0x1
 7057 1d3c 6804     		.2byte	0x468
 7058 1d3e E8010000 		.4byte	0x1e8
 7059 1d42 88170000 		.4byte	.LLST148
 7060 1d46 25       		.uleb128 0x25
 7061 1d47 38000000 		.4byte	.LBB12
 7062 1d4b 3E000000 		.4byte	.LBE12-.LBB12
 7063 1d4f 171E0000 		.4byte	0x1e17
 7064 1d53 1F       		.uleb128 0x1f
 7065 1d54 70747200 		.ascii	"ptr\000"
 7066 1d58 01       		.byte	0x1
 7067 1d59 6E04     		.2byte	0x46e
 7068 1d5b 93000000 		.4byte	0x93
 7069 1d5f A6170000 		.4byte	.LLST149
 7070 1d63 16       		.uleb128 0x16
 7071 1d64 95000000 		.4byte	.LASF65
 7072 1d68 01       		.byte	0x1
 7073 1d69 6F04     		.2byte	0x46f
ARM GAS  C:\Users\haske\AppData\Local\Temp\ccswauRt.s 			page 150


 7074 1d6b 93000000 		.4byte	0x93
 7075 1d6f C4170000 		.4byte	.LLST150
 7076 1d73 1F       		.uleb128 0x1f
 7077 1d74 67617000 		.ascii	"gap\000"
 7078 1d78 01       		.byte	0x1
 7079 1d79 7004     		.2byte	0x470
 7080 1d7b 76000000 		.4byte	0x76
 7081 1d7f E2170000 		.4byte	.LLST151
 7082 1d83 25       		.uleb128 0x25
 7083 1d84 4C000000 		.4byte	.LBB13
 7084 1d88 16000000 		.4byte	.LBE13-.LBB13
 7085 1d8c D11D0000 		.4byte	0x1dd1
 7086 1d90 16       		.uleb128 0x16
 7087 1d91 7B030000 		.4byte	.LASF135
 7088 1d95 01       		.byte	0x1
 7089 1d96 7504     		.2byte	0x475
 7090 1d98 B5020000 		.4byte	0x2b5
 7091 1d9c 1D180000 		.4byte	.LLST152
 7092 1da0 16       		.uleb128 0x16
 7093 1da1 4D030000 		.4byte	.LASF136
 7094 1da5 01       		.byte	0x1
 7095 1da6 7604     		.2byte	0x476
 7096 1da8 B5020000 		.4byte	0x2b5
 7097 1dac 30180000 		.4byte	.LLST153
 7098 1db0 16       		.uleb128 0x16
 7099 1db1 CF000000 		.4byte	.LASF137
 7100 1db5 01       		.byte	0x1
 7101 1db6 7704     		.2byte	0x477
 7102 1db8 0B040000 		.4byte	0x40b
 7103 1dbc 43180000 		.4byte	.LLST154
 7104 1dc0 17       		.uleb128 0x17
 7105 1dc1 60000000 		.4byte	.LVL419
 7106 1dc5 B9060000 		.4byte	0x6b9
 7107 1dc9 18       		.uleb128 0x18
 7108 1dca 01       		.uleb128 0x1
 7109 1dcb 51       		.byte	0x51
 7110 1dcc 02       		.uleb128 0x2
 7111 1dcd 74       		.byte	0x74
 7112 1dce 00       		.sleb128 0
 7113 1dcf 00       		.byte	0
 7114 1dd0 00       		.byte	0
 7115 1dd1 1B       		.uleb128 0x1b
 7116 1dd2 3C000000 		.4byte	.LVL410
 7117 1dd6 12040000 		.4byte	0x412
 7118 1dda E51D0000 		.4byte	0x1de5
 7119 1dde 18       		.uleb128 0x18
 7120 1ddf 01       		.uleb128 0x1
 7121 1de0 50       		.byte	0x50
 7122 1de1 02       		.uleb128 0x2
 7123 1de2 75       		.byte	0x75
 7124 1de3 00       		.sleb128 0
 7125 1de4 00       		.byte	0
 7126 1de5 1B       		.uleb128 0x1b
 7127 1de6 44000000 		.4byte	.LVL412
 7128 1dea B9060000 		.4byte	0x6b9
 7129 1dee FF1D0000 		.4byte	0x1dff
 7130 1df2 18       		.uleb128 0x18
ARM GAS  C:\Users\haske\AppData\Local\Temp\ccswauRt.s 			page 151


 7131 1df3 01       		.uleb128 0x1
 7132 1df4 50       		.byte	0x50
 7133 1df5 02       		.uleb128 0x2
 7134 1df6 77       		.byte	0x77
 7135 1df7 00       		.sleb128 0
 7136 1df8 18       		.uleb128 0x18
 7137 1df9 01       		.uleb128 0x1
 7138 1dfa 51       		.byte	0x51
 7139 1dfb 02       		.uleb128 0x2
 7140 1dfc 74       		.byte	0x74
 7141 1dfd 00       		.sleb128 0
 7142 1dfe 00       		.byte	0
 7143 1dff 17       		.uleb128 0x17
 7144 1e00 74000000 		.4byte	.LVL422
 7145 1e04 BA0E0000 		.4byte	0xeba
 7146 1e08 18       		.uleb128 0x18
 7147 1e09 01       		.uleb128 0x1
 7148 1e0a 50       		.byte	0x50
 7149 1e0b 03       		.uleb128 0x3
 7150 1e0c 91       		.byte	0x91
 7151 1e0d 64       		.sleb128 -28
 7152 1e0e 06       		.byte	0x6
 7153 1e0f 18       		.uleb128 0x18
 7154 1e10 01       		.uleb128 0x1
 7155 1e11 51       		.byte	0x51
 7156 1e12 02       		.uleb128 0x2
 7157 1e13 75       		.byte	0x75
 7158 1e14 00       		.sleb128 0
 7159 1e15 00       		.byte	0
 7160 1e16 00       		.byte	0
 7161 1e17 1B       		.uleb128 0x1b
 7162 1e18 10000000 		.4byte	.LVL402
 7163 1e1c 05070000 		.4byte	0x705
 7164 1e20 311E0000 		.4byte	0x1e31
 7165 1e24 18       		.uleb128 0x18
 7166 1e25 01       		.uleb128 0x1
 7167 1e26 50       		.byte	0x50
 7168 1e27 03       		.uleb128 0x3
 7169 1e28 F3       		.byte	0xf3
 7170 1e29 01       		.uleb128 0x1
 7171 1e2a 52       		.byte	0x52
 7172 1e2b 18       		.uleb128 0x18
 7173 1e2c 01       		.uleb128 0x1
 7174 1e2d 51       		.byte	0x51
 7175 1e2e 01       		.uleb128 0x1
 7176 1e2f 34       		.byte	0x34
 7177 1e30 00       		.byte	0
 7178 1e31 1B       		.uleb128 0x1b
 7179 1e32 1C000000 		.4byte	.LVL405
 7180 1e36 05070000 		.4byte	0x705
 7181 1e3a 501E0000 		.4byte	0x1e50
 7182 1e3e 18       		.uleb128 0x18
 7183 1e3f 01       		.uleb128 0x1
 7184 1e40 50       		.byte	0x50
 7185 1e41 07       		.uleb128 0x7
 7186 1e42 74       		.byte	0x74
 7187 1e43 00       		.sleb128 0
ARM GAS  C:\Users\haske\AppData\Local\Temp\ccswauRt.s 			page 152


 7188 1e44 76       		.byte	0x76
 7189 1e45 00       		.sleb128 0
 7190 1e46 22       		.byte	0x22
 7191 1e47 23       		.byte	0x23
 7192 1e48 10       		.uleb128 0x10
 7193 1e49 18       		.uleb128 0x18
 7194 1e4a 01       		.uleb128 0x1
 7195 1e4b 51       		.byte	0x51
 7196 1e4c 02       		.uleb128 0x2
 7197 1e4d 74       		.byte	0x74
 7198 1e4e 00       		.sleb128 0
 7199 1e4f 00       		.byte	0
 7200 1e50 1B       		.uleb128 0x1b
 7201 1e51 34000000 		.4byte	.LVL408
 7202 1e55 CB130000 		.4byte	0x13cb
 7203 1e59 651E0000 		.4byte	0x1e65
 7204 1e5d 18       		.uleb128 0x18
 7205 1e5e 01       		.uleb128 0x1
 7206 1e5f 50       		.byte	0x50
 7207 1e60 03       		.uleb128 0x3
 7208 1e61 91       		.byte	0x91
 7209 1e62 64       		.sleb128 -28
 7210 1e63 06       		.byte	0x6
 7211 1e64 00       		.byte	0
 7212 1e65 17       		.uleb128 0x17
 7213 1e66 80000000 		.4byte	.LVL424
 7214 1e6a 340E0000 		.4byte	0xe34
 7215 1e6e 18       		.uleb128 0x18
 7216 1e6f 01       		.uleb128 0x1
 7217 1e70 50       		.byte	0x50
 7218 1e71 03       		.uleb128 0x3
 7219 1e72 91       		.byte	0x91
 7220 1e73 64       		.sleb128 -28
 7221 1e74 06       		.byte	0x6
 7222 1e75 18       		.uleb128 0x18
 7223 1e76 01       		.uleb128 0x1
 7224 1e77 51       		.byte	0x51
 7225 1e78 02       		.uleb128 0x2
 7226 1e79 75       		.byte	0x75
 7227 1e7a 00       		.sleb128 0
 7228 1e7b 18       		.uleb128 0x18
 7229 1e7c 01       		.uleb128 0x1
 7230 1e7d 52       		.byte	0x52
 7231 1e7e 02       		.uleb128 0x2
 7232 1e7f 76       		.byte	0x76
 7233 1e80 00       		.sleb128 0
 7234 1e81 00       		.byte	0
 7235 1e82 00       		.byte	0
 7236 1e83 27       		.uleb128 0x27
 7237 1e84 EB000000 		.4byte	.LASF138
 7238 1e88 01       		.byte	0x1
 7239 1e89 8804     		.2byte	0x488
 7240 1e8b 76000000 		.4byte	0x76
 7241 1e8f 00000000 		.4byte	.LFB62
 7242 1e93 42000000 		.4byte	.LFE62-.LFB62
 7243 1e97 01       		.uleb128 0x1
 7244 1e98 9C       		.byte	0x9c
ARM GAS  C:\Users\haske\AppData\Local\Temp\ccswauRt.s 			page 153


 7245 1e99 731F0000 		.4byte	0x1f73
 7246 1e9d 12       		.uleb128 0x12
 7247 1e9e 9D070000 		.4byte	.LASF106
 7248 1ea2 01       		.byte	0x1
 7249 1ea3 8804     		.2byte	0x488
 7250 1ea5 88000000 		.4byte	0x88
 7251 1ea9 56180000 		.4byte	.LLST155
 7252 1ead 19       		.uleb128 0x19
 7253 1eae 70747200 		.ascii	"ptr\000"
 7254 1eb2 01       		.byte	0x1
 7255 1eb3 8804     		.2byte	0x488
 7256 1eb5 0B040000 		.4byte	0x40b
 7257 1eb9 98180000 		.4byte	.LLST156
 7258 1ebd 16       		.uleb128 0x16
 7259 1ebe 25050000 		.4byte	.LASF28
 7260 1ec2 01       		.byte	0x1
 7261 1ec3 8A04     		.2byte	0x48a
 7262 1ec5 76000000 		.4byte	0x76
 7263 1ec9 D2180000 		.4byte	.LLST157
 7264 1ecd 1E       		.uleb128 0x1e
 7265 1ece 08000000 		.4byte	.LBB14
 7266 1ed2 34000000 		.4byte	.LBE14-.LBB14
 7267 1ed6 16       		.uleb128 0x16
 7268 1ed7 3C000000 		.4byte	.LASF69
 7269 1edb 01       		.byte	0x1
 7270 1edc 8D04     		.2byte	0x48d
 7271 1ede F5070000 		.4byte	0x7f5
 7272 1ee2 13190000 		.4byte	.LLST158
 7273 1ee6 16       		.uleb128 0x16
 7274 1ee7 88060000 		.4byte	.LASF41
 7275 1eeb 01       		.byte	0x1
 7276 1eec 8E04     		.2byte	0x48e
 7277 1eee E8010000 		.4byte	0x1e8
 7278 1ef2 31190000 		.4byte	.LLST159
 7279 1ef6 1B       		.uleb128 0x1b
 7280 1ef7 0E000000 		.4byte	.LVL432
 7281 1efb E0030000 		.4byte	0x3e0
 7282 1eff 0B1F0000 		.4byte	0x1f0b
 7283 1f03 18       		.uleb128 0x18
 7284 1f04 01       		.uleb128 0x1
 7285 1f05 50       		.byte	0x50
 7286 1f06 03       		.uleb128 0x3
 7287 1f07 F3       		.byte	0xf3
 7288 1f08 01       		.uleb128 0x1
 7289 1f09 51       		.byte	0x51
 7290 1f0a 00       		.byte	0
 7291 1f0b 1B       		.uleb128 0x1b
 7292 1f0c 14000000 		.4byte	.LVL434
 7293 1f10 F6020000 		.4byte	0x2f6
 7294 1f14 1F1F0000 		.4byte	0x1f1f
 7295 1f18 18       		.uleb128 0x18
 7296 1f19 01       		.uleb128 0x1
 7297 1f1a 50       		.byte	0x50
 7298 1f1b 02       		.uleb128 0x2
 7299 1f1c 74       		.byte	0x74
 7300 1f1d 00       		.sleb128 0
 7301 1f1e 00       		.byte	0
ARM GAS  C:\Users\haske\AppData\Local\Temp\ccswauRt.s 			page 154


 7302 1f1f 1B       		.uleb128 0x1b
 7303 1f20 22000000 		.4byte	.LVL436
 7304 1f24 81050000 		.4byte	0x581
 7305 1f28 331F0000 		.4byte	0x1f33
 7306 1f2c 18       		.uleb128 0x18
 7307 1f2d 01       		.uleb128 0x1
 7308 1f2e 50       		.byte	0x50
 7309 1f2f 02       		.uleb128 0x2
 7310 1f30 74       		.byte	0x74
 7311 1f31 00       		.sleb128 0
 7312 1f32 00       		.byte	0
 7313 1f33 1B       		.uleb128 0x1b
 7314 1f34 2A000000 		.4byte	.LVL437
 7315 1f38 1E100000 		.4byte	0x101e
 7316 1f3c 4D1F0000 		.4byte	0x1f4d
 7317 1f40 18       		.uleb128 0x18
 7318 1f41 01       		.uleb128 0x1
 7319 1f42 50       		.byte	0x50
 7320 1f43 02       		.uleb128 0x2
 7321 1f44 75       		.byte	0x75
 7322 1f45 00       		.sleb128 0
 7323 1f46 18       		.uleb128 0x18
 7324 1f47 01       		.uleb128 0x1
 7325 1f48 51       		.byte	0x51
 7326 1f49 02       		.uleb128 0x2
 7327 1f4a 74       		.byte	0x74
 7328 1f4b 00       		.sleb128 0
 7329 1f4c 00       		.byte	0
 7330 1f4d 1B       		.uleb128 0x1b
 7331 1f4e 32000000 		.4byte	.LVL440
 7332 1f52 D4100000 		.4byte	0x10d4
 7333 1f56 611F0000 		.4byte	0x1f61
 7334 1f5a 18       		.uleb128 0x18
 7335 1f5b 01       		.uleb128 0x1
 7336 1f5c 50       		.byte	0x50
 7337 1f5d 02       		.uleb128 0x2
 7338 1f5e 75       		.byte	0x75
 7339 1f5f 00       		.sleb128 0
 7340 1f60 00       		.byte	0
 7341 1f61 17       		.uleb128 0x17
 7342 1f62 3A000000 		.4byte	.LVL443
 7343 1f66 B60C0000 		.4byte	0xcb6
 7344 1f6a 18       		.uleb128 0x18
 7345 1f6b 01       		.uleb128 0x1
 7346 1f6c 50       		.byte	0x50
 7347 1f6d 02       		.uleb128 0x2
 7348 1f6e 75       		.byte	0x75
 7349 1f6f 00       		.sleb128 0
 7350 1f70 00       		.byte	0
 7351 1f71 00       		.byte	0
 7352 1f72 00       		.byte	0
 7353 1f73 27       		.uleb128 0x27
 7354 1f74 61080000 		.4byte	.LASF139
 7355 1f78 01       		.byte	0x1
 7356 1f79 A704     		.2byte	0x4a7
 7357 1f7b 93000000 		.4byte	0x93
 7358 1f7f 00000000 		.4byte	.LFB63
ARM GAS  C:\Users\haske\AppData\Local\Temp\ccswauRt.s 			page 155


 7359 1f83 D6000000 		.4byte	.LFE63-.LFB63
 7360 1f87 01       		.uleb128 0x1
 7361 1f88 9C       		.byte	0x9c
 7362 1f89 B7210000 		.4byte	0x21b7
 7363 1f8d 12       		.uleb128 0x12
 7364 1f8e 9D070000 		.4byte	.LASF106
 7365 1f92 01       		.byte	0x1
 7366 1f93 A704     		.2byte	0x4a7
 7367 1f95 88000000 		.4byte	0x88
 7368 1f99 7B190000 		.4byte	.LLST160
 7369 1f9d 19       		.uleb128 0x19
 7370 1f9e 70747200 		.ascii	"ptr\000"
 7371 1fa2 01       		.byte	0x1
 7372 1fa3 A704     		.2byte	0x4a7
 7373 1fa5 93000000 		.4byte	0x93
 7374 1fa9 C8190000 		.4byte	.LLST161
 7375 1fad 12       		.uleb128 0x12
 7376 1fae 25050000 		.4byte	.LASF28
 7377 1fb2 01       		.byte	0x1
 7378 1fb3 A704     		.2byte	0x4a7
 7379 1fb5 76000000 		.4byte	0x76
 7380 1fb9 201A0000 		.4byte	.LLST162
 7381 1fbd 16       		.uleb128 0x16
 7382 1fbe 3C000000 		.4byte	.LASF69
 7383 1fc2 01       		.byte	0x1
 7384 1fc3 A904     		.2byte	0x4a9
 7385 1fc5 F5070000 		.4byte	0x7f5
 7386 1fc9 A71A0000 		.4byte	.LLST163
 7387 1fcd 1F       		.uleb128 0x1f
 7388 1fce 7000     		.ascii	"p\000"
 7389 1fd0 01       		.byte	0x1
 7390 1fd1 AA04     		.2byte	0x4aa
 7391 1fd3 93000000 		.4byte	0x93
 7392 1fd7 F41A0000 		.4byte	.LLST164
 7393 1fdb 25       		.uleb128 0x25
 7394 1fdc 2C000000 		.4byte	.LBB15
 7395 1fe0 A2000000 		.4byte	.LBE15-.LBB15
 7396 1fe4 84210000 		.4byte	0x2184
 7397 1fe8 16       		.uleb128 0x16
 7398 1fe9 88060000 		.4byte	.LASF41
 7399 1fed 01       		.byte	0x1
 7400 1fee B504     		.2byte	0x4b5
 7401 1ff0 E8010000 		.4byte	0x1e8
 7402 1ff4 4D1B0000 		.4byte	.LLST165
 7403 1ff8 16       		.uleb128 0x16
 7404 1ff9 51000000 		.4byte	.LASF57
 7405 1ffd 01       		.byte	0x1
 7406 1ffe B604     		.2byte	0x4b6
 7407 2000 E8010000 		.4byte	0x1e8
 7408 2004 771B0000 		.4byte	.LLST166
 7409 2008 16       		.uleb128 0x16
 7410 2009 95070000 		.4byte	.LASF140
 7411 200d 01       		.byte	0x1
 7412 200e B804     		.2byte	0x4b8
 7413 2010 B5020000 		.4byte	0x2b5
 7414 2014 961B0000 		.4byte	.LLST167
 7415 2018 16       		.uleb128 0x16
ARM GAS  C:\Users\haske\AppData\Local\Temp\ccswauRt.s 			page 156


 7416 2019 7A000000 		.4byte	.LASF141
 7417 201d 01       		.byte	0x1
 7418 201e B904     		.2byte	0x4b9
 7419 2020 B5020000 		.4byte	0x2b5
 7420 2024 B41B0000 		.4byte	.LLST168
 7421 2028 16       		.uleb128 0x16
 7422 2029 CF050000 		.4byte	.LASF67
 7423 202d 01       		.byte	0x1
 7424 202e BA04     		.2byte	0x4ba
 7425 2030 B5020000 		.4byte	0x2b5
 7426 2034 D21B0000 		.4byte	.LLST169
 7427 2038 25       		.uleb128 0x25
 7428 2039 8C000000 		.4byte	.LBB16
 7429 203d 18000000 		.4byte	.LBE16-.LBB16
 7430 2041 87200000 		.4byte	0x2087
 7431 2045 16       		.uleb128 0x16
 7432 2046 1E040000 		.4byte	.LASF142
 7433 204a 01       		.byte	0x1
 7434 204b C904     		.2byte	0x4c9
 7435 204d B5020000 		.4byte	0x2b5
 7436 2051 111C0000 		.4byte	.LLST170
 7437 2055 1B       		.uleb128 0x1b
 7438 2056 9C000000 		.4byte	.LVL477
 7439 205a 08220000 		.4byte	0x2208
 7440 205e 6F200000 		.4byte	0x206f
 7441 2062 18       		.uleb128 0x18
 7442 2063 01       		.uleb128 0x1
 7443 2064 50       		.byte	0x50
 7444 2065 02       		.uleb128 0x2
 7445 2066 76       		.byte	0x76
 7446 2067 00       		.sleb128 0
 7447 2068 18       		.uleb128 0x18
 7448 2069 01       		.uleb128 0x1
 7449 206a 51       		.byte	0x51
 7450 206b 02       		.uleb128 0x2
 7451 206c 75       		.byte	0x75
 7452 206d 00       		.sleb128 0
 7453 206e 00       		.byte	0
 7454 206f 17       		.uleb128 0x17
 7455 2070 A4000000 		.4byte	.LVL478
 7456 2074 831E0000 		.4byte	0x1e83
 7457 2078 18       		.uleb128 0x18
 7458 2079 01       		.uleb128 0x1
 7459 207a 50       		.byte	0x50
 7460 207b 03       		.uleb128 0x3
 7461 207c 91       		.byte	0x91
 7462 207d 5C       		.sleb128 -36
 7463 207e 06       		.byte	0x6
 7464 207f 18       		.uleb128 0x18
 7465 2080 01       		.uleb128 0x1
 7466 2081 51       		.byte	0x51
 7467 2082 02       		.uleb128 0x2
 7468 2083 75       		.byte	0x75
 7469 2084 00       		.sleb128 0
 7470 2085 00       		.byte	0
 7471 2086 00       		.byte	0
 7472 2087 1B       		.uleb128 0x1b
ARM GAS  C:\Users\haske\AppData\Local\Temp\ccswauRt.s 			page 157


 7473 2088 32000000 		.4byte	.LVL457
 7474 208c E0030000 		.4byte	0x3e0
 7475 2090 9B200000 		.4byte	0x209b
 7476 2094 18       		.uleb128 0x18
 7477 2095 01       		.uleb128 0x1
 7478 2096 50       		.byte	0x50
 7479 2097 02       		.uleb128 0x2
 7480 2098 75       		.byte	0x75
 7481 2099 00       		.sleb128 0
 7482 209a 00       		.byte	0
 7483 209b 1B       		.uleb128 0x1b
 7484 209c 3A000000 		.4byte	.LVL459
 7485 20a0 B1040000 		.4byte	0x4b1
 7486 20a4 AF200000 		.4byte	0x20af
 7487 20a8 18       		.uleb128 0x18
 7488 20a9 01       		.uleb128 0x1
 7489 20aa 50       		.byte	0x50
 7490 20ab 02       		.uleb128 0x2
 7491 20ac 76       		.byte	0x76
 7492 20ad 00       		.sleb128 0
 7493 20ae 00       		.byte	0
 7494 20af 1B       		.uleb128 0x1b
 7495 20b0 42000000 		.4byte	.LVL462
 7496 20b4 3A020000 		.4byte	0x23a
 7497 20b8 C3200000 		.4byte	0x20c3
 7498 20bc 18       		.uleb128 0x18
 7499 20bd 01       		.uleb128 0x1
 7500 20be 50       		.byte	0x50
 7501 20bf 02       		.uleb128 0x2
 7502 20c0 76       		.byte	0x76
 7503 20c1 00       		.sleb128 0
 7504 20c2 00       		.byte	0
 7505 20c3 1B       		.uleb128 0x1b
 7506 20c4 4A000000 		.4byte	.LVL465
 7507 20c8 3A020000 		.4byte	0x23a
 7508 20cc D8200000 		.4byte	0x20d8
 7509 20d0 18       		.uleb128 0x18
 7510 20d1 01       		.uleb128 0x1
 7511 20d2 50       		.byte	0x50
 7512 20d3 03       		.uleb128 0x3
 7513 20d4 91       		.byte	0x91
 7514 20d5 64       		.sleb128 -28
 7515 20d6 06       		.byte	0x6
 7516 20d7 00       		.byte	0
 7517 20d8 1B       		.uleb128 0x1b
 7518 20d9 58000000 		.4byte	.LVL467
 7519 20dd 05070000 		.4byte	0x705
 7520 20e1 F1200000 		.4byte	0x20f1
 7521 20e5 18       		.uleb128 0x18
 7522 20e6 01       		.uleb128 0x1
 7523 20e7 50       		.byte	0x50
 7524 20e8 02       		.uleb128 0x2
 7525 20e9 74       		.byte	0x74
 7526 20ea 00       		.sleb128 0
 7527 20eb 18       		.uleb128 0x18
 7528 20ec 01       		.uleb128 0x1
 7529 20ed 51       		.byte	0x51
ARM GAS  C:\Users\haske\AppData\Local\Temp\ccswauRt.s 			page 158


 7530 20ee 01       		.uleb128 0x1
 7531 20ef 34       		.byte	0x34
 7532 20f0 00       		.byte	0
 7533 20f1 1B       		.uleb128 0x1b
 7534 20f2 68000000 		.4byte	.LVL470
 7535 20f6 F6020000 		.4byte	0x2f6
 7536 20fa 06210000 		.4byte	0x2106
 7537 20fe 18       		.uleb128 0x18
 7538 20ff 01       		.uleb128 0x1
 7539 2100 50       		.byte	0x50
 7540 2101 03       		.uleb128 0x3
 7541 2102 91       		.byte	0x91
 7542 2103 60       		.sleb128 -32
 7543 2104 06       		.byte	0x6
 7544 2105 00       		.byte	0
 7545 2106 1B       		.uleb128 0x1b
 7546 2107 78000000 		.4byte	.LVL471
 7547 210b F6020000 		.4byte	0x2f6
 7548 210f 1B210000 		.4byte	0x211b
 7549 2113 18       		.uleb128 0x18
 7550 2114 01       		.uleb128 0x1
 7551 2115 50       		.byte	0x50
 7552 2116 03       		.uleb128 0x3
 7553 2117 91       		.byte	0x91
 7554 2118 64       		.sleb128 -28
 7555 2119 06       		.byte	0x6
 7556 211a 00       		.byte	0
 7557 211b 1B       		.uleb128 0x1b
 7558 211c 88000000 		.4byte	.LVL472
 7559 2120 EA1B0000 		.4byte	0x1bea
 7560 2124 36210000 		.4byte	0x2136
 7561 2128 18       		.uleb128 0x18
 7562 2129 01       		.uleb128 0x1
 7563 212a 50       		.byte	0x50
 7564 212b 03       		.uleb128 0x3
 7565 212c 91       		.byte	0x91
 7566 212d 5C       		.sleb128 -36
 7567 212e 06       		.byte	0x6
 7568 212f 18       		.uleb128 0x18
 7569 2130 01       		.uleb128 0x1
 7570 2131 51       		.byte	0x51
 7571 2132 02       		.uleb128 0x2
 7572 2133 74       		.byte	0x74
 7573 2134 00       		.sleb128 0
 7574 2135 00       		.byte	0
 7575 2136 1B       		.uleb128 0x1b
 7576 2137 B6000000 		.4byte	.LVL481
 7577 213b D4100000 		.4byte	0x10d4
 7578 213f 51210000 		.4byte	0x2151
 7579 2143 18       		.uleb128 0x18
 7580 2144 01       		.uleb128 0x1
 7581 2145 50       		.byte	0x50
 7582 2146 03       		.uleb128 0x3
 7583 2147 91       		.byte	0x91
 7584 2148 5C       		.sleb128 -36
 7585 2149 06       		.byte	0x6
 7586 214a 18       		.uleb128 0x18
ARM GAS  C:\Users\haske\AppData\Local\Temp\ccswauRt.s 			page 159


 7587 214b 01       		.uleb128 0x1
 7588 214c 51       		.byte	0x51
 7589 214d 02       		.uleb128 0x2
 7590 214e 74       		.byte	0x74
 7591 214f 00       		.sleb128 0
 7592 2150 00       		.byte	0
 7593 2151 1B       		.uleb128 0x1b
 7594 2152 BC000000 		.4byte	.LVL482
 7595 2156 E5050000 		.4byte	0x5e5
 7596 215a 65210000 		.4byte	0x2165
 7597 215e 18       		.uleb128 0x18
 7598 215f 01       		.uleb128 0x1
 7599 2160 50       		.byte	0x50
 7600 2161 02       		.uleb128 0x2
 7601 2162 74       		.byte	0x74
 7602 2163 00       		.sleb128 0
 7603 2164 00       		.byte	0
 7604 2165 17       		.uleb128 0x17
 7605 2166 C6000000 		.4byte	.LVL483
 7606 216a 80110000 		.4byte	0x1180
 7607 216e 18       		.uleb128 0x18
 7608 216f 01       		.uleb128 0x1
 7609 2170 50       		.byte	0x50
 7610 2171 03       		.uleb128 0x3
 7611 2172 91       		.byte	0x91
 7612 2173 5C       		.sleb128 -36
 7613 2174 06       		.byte	0x6
 7614 2175 18       		.uleb128 0x18
 7615 2176 01       		.uleb128 0x1
 7616 2177 51       		.byte	0x51
 7617 2178 03       		.uleb128 0x3
 7618 2179 91       		.byte	0x91
 7619 217a 60       		.sleb128 -32
 7620 217b 06       		.byte	0x6
 7621 217c 18       		.uleb128 0x18
 7622 217d 01       		.uleb128 0x1
 7623 217e 52       		.byte	0x52
 7624 217f 02       		.uleb128 0x2
 7625 2180 76       		.byte	0x76
 7626 2181 00       		.sleb128 0
 7627 2182 00       		.byte	0
 7628 2183 00       		.byte	0
 7629 2184 1B       		.uleb128 0x1b
 7630 2185 1A000000 		.4byte	.LVL450
 7631 2189 831E0000 		.4byte	0x1e83
 7632 218d 9F210000 		.4byte	0x219f
 7633 2191 18       		.uleb128 0x18
 7634 2192 01       		.uleb128 0x1
 7635 2193 50       		.byte	0x50
 7636 2194 03       		.uleb128 0x3
 7637 2195 91       		.byte	0x91
 7638 2196 5C       		.sleb128 -36
 7639 2197 06       		.byte	0x6
 7640 2198 18       		.uleb128 0x18
 7641 2199 01       		.uleb128 0x1
 7642 219a 51       		.byte	0x51
 7643 219b 02       		.uleb128 0x2
ARM GAS  C:\Users\haske\AppData\Local\Temp\ccswauRt.s 			page 160


 7644 219c 75       		.byte	0x75
 7645 219d 00       		.sleb128 0
 7646 219e 00       		.byte	0
 7647 219f 17       		.uleb128 0x17
 7648 21a0 2A000000 		.4byte	.LVL454
 7649 21a4 EA1B0000 		.4byte	0x1bea
 7650 21a8 18       		.uleb128 0x18
 7651 21a9 01       		.uleb128 0x1
 7652 21aa 50       		.byte	0x50
 7653 21ab 03       		.uleb128 0x3
 7654 21ac 91       		.byte	0x91
 7655 21ad 5C       		.sleb128 -36
 7656 21ae 06       		.byte	0x6
 7657 21af 18       		.uleb128 0x18
 7658 21b0 01       		.uleb128 0x1
 7659 21b1 51       		.byte	0x51
 7660 21b2 02       		.uleb128 0x2
 7661 21b3 74       		.byte	0x74
 7662 21b4 00       		.sleb128 0
 7663 21b5 00       		.byte	0
 7664 21b6 00       		.byte	0
 7665 21b7 2B       		.uleb128 0x2b
 7666 21b8 DA060000 		.4byte	.LASF143
 7667 21bc 01       		.byte	0x1
 7668 21bd 5301     		.2byte	0x153
 7669 21bf B5020000 		.4byte	0x2b5
 7670 21c3 01       		.byte	0x1
 7671 21c4 2B       		.uleb128 0x2b
 7672 21c5 A2030000 		.4byte	.LASF144
 7673 21c9 01       		.byte	0x1
 7674 21ca 5401     		.2byte	0x154
 7675 21cc B5020000 		.4byte	0x2b5
 7676 21d0 02       		.byte	0x2
 7677 21d1 2B       		.uleb128 0x2b
 7678 21d2 A1040000 		.4byte	.LASF145
 7679 21d6 01       		.byte	0x1
 7680 21d7 5A01     		.2byte	0x15a
 7681 21d9 B5020000 		.4byte	0x2b5
 7682 21dd 04       		.byte	0x4
 7683 21de 2B       		.uleb128 0x2b
 7684 21df 0F000000 		.4byte	.LASF146
 7685 21e3 01       		.byte	0x1
 7686 21e4 5D01     		.2byte	0x15d
 7687 21e6 B5020000 		.4byte	0x2b5
 7688 21ea 08       		.byte	0x8
 7689 21eb 2B       		.uleb128 0x2b
 7690 21ec D1030000 		.4byte	.LASF147
 7691 21f0 01       		.byte	0x1
 7692 21f1 6501     		.2byte	0x165
 7693 21f3 B5020000 		.4byte	0x2b5
 7694 21f7 0C       		.byte	0xc
 7695 21f8 2C       		.uleb128 0x2c
 7696 21f9 69070000 		.4byte	.LASF148
 7697 21fd 01       		.byte	0x1
 7698 21fe 6701     		.2byte	0x167
 7699 2200 B5020000 		.4byte	0x2b5
 7700 2204 00000100 		.4byte	0x10000
ARM GAS  C:\Users\haske\AppData\Local\Temp\ccswauRt.s 			page 161


 7701 2208 2D       		.uleb128 0x2d
 7702 2209 48010000 		.4byte	.LASF152
 7703 220d 48010000 		.4byte	.LASF152
 7704 2211 04       		.byte	0x4
 7705 2212 BA       		.byte	0xba
 7706 2213 00       		.byte	0
 7707              		.section	.debug_abbrev,"",%progbits
 7708              	.Ldebug_abbrev0:
 7709 0000 01       		.uleb128 0x1
 7710 0001 11       		.uleb128 0x11
 7711 0002 01       		.byte	0x1
 7712 0003 25       		.uleb128 0x25
 7713 0004 0E       		.uleb128 0xe
 7714 0005 13       		.uleb128 0x13
 7715 0006 0B       		.uleb128 0xb
 7716 0007 03       		.uleb128 0x3
 7717 0008 0E       		.uleb128 0xe
 7718 0009 1B       		.uleb128 0x1b
 7719 000a 0E       		.uleb128 0xe
 7720 000b 55       		.uleb128 0x55
 7721 000c 17       		.uleb128 0x17
 7722 000d 11       		.uleb128 0x11
 7723 000e 01       		.uleb128 0x1
 7724 000f 10       		.uleb128 0x10
 7725 0010 17       		.uleb128 0x17
 7726 0011 00       		.byte	0
 7727 0012 00       		.byte	0
 7728 0013 02       		.uleb128 0x2
 7729 0014 24       		.uleb128 0x24
 7730 0015 00       		.byte	0
 7731 0016 0B       		.uleb128 0xb
 7732 0017 0B       		.uleb128 0xb
 7733 0018 3E       		.uleb128 0x3e
 7734 0019 0B       		.uleb128 0xb
 7735 001a 03       		.uleb128 0x3
 7736 001b 0E       		.uleb128 0xe
 7737 001c 00       		.byte	0
 7738 001d 00       		.byte	0
 7739 001e 03       		.uleb128 0x3
 7740 001f 24       		.uleb128 0x24
 7741 0020 00       		.byte	0
 7742 0021 0B       		.uleb128 0xb
 7743 0022 0B       		.uleb128 0xb
 7744 0023 3E       		.uleb128 0x3e
 7745 0024 0B       		.uleb128 0xb
 7746 0025 03       		.uleb128 0x3
 7747 0026 08       		.uleb128 0x8
 7748 0027 00       		.byte	0
 7749 0028 00       		.byte	0
 7750 0029 04       		.uleb128 0x4
 7751 002a 16       		.uleb128 0x16
 7752 002b 00       		.byte	0
 7753 002c 03       		.uleb128 0x3
 7754 002d 0E       		.uleb128 0xe
 7755 002e 3A       		.uleb128 0x3a
 7756 002f 0B       		.uleb128 0xb
 7757 0030 3B       		.uleb128 0x3b
ARM GAS  C:\Users\haske\AppData\Local\Temp\ccswauRt.s 			page 162


 7758 0031 0B       		.uleb128 0xb
 7759 0032 49       		.uleb128 0x49
 7760 0033 13       		.uleb128 0x13
 7761 0034 00       		.byte	0
 7762 0035 00       		.byte	0
 7763 0036 05       		.uleb128 0x5
 7764 0037 0F       		.uleb128 0xf
 7765 0038 00       		.byte	0
 7766 0039 0B       		.uleb128 0xb
 7767 003a 0B       		.uleb128 0xb
 7768 003b 00       		.byte	0
 7769 003c 00       		.byte	0
 7770 003d 06       		.uleb128 0x6
 7771 003e 0F       		.uleb128 0xf
 7772 003f 00       		.byte	0
 7773 0040 0B       		.uleb128 0xb
 7774 0041 0B       		.uleb128 0xb
 7775 0042 49       		.uleb128 0x49
 7776 0043 13       		.uleb128 0x13
 7777 0044 00       		.byte	0
 7778 0045 00       		.byte	0
 7779 0046 07       		.uleb128 0x7
 7780 0047 15       		.uleb128 0x15
 7781 0048 01       		.byte	0x1
 7782 0049 27       		.uleb128 0x27
 7783 004a 19       		.uleb128 0x19
 7784 004b 01       		.uleb128 0x1
 7785 004c 13       		.uleb128 0x13
 7786 004d 00       		.byte	0
 7787 004e 00       		.byte	0
 7788 004f 08       		.uleb128 0x8
 7789 0050 05       		.uleb128 0x5
 7790 0051 00       		.byte	0
 7791 0052 49       		.uleb128 0x49
 7792 0053 13       		.uleb128 0x13
 7793 0054 00       		.byte	0
 7794 0055 00       		.byte	0
 7795 0056 09       		.uleb128 0x9
 7796 0057 04       		.uleb128 0x4
 7797 0058 01       		.byte	0x1
 7798 0059 03       		.uleb128 0x3
 7799 005a 0E       		.uleb128 0xe
 7800 005b 0B       		.uleb128 0xb
 7801 005c 0B       		.uleb128 0xb
 7802 005d 49       		.uleb128 0x49
 7803 005e 13       		.uleb128 0x13
 7804 005f 3A       		.uleb128 0x3a
 7805 0060 0B       		.uleb128 0xb
 7806 0061 3B       		.uleb128 0x3b
 7807 0062 0B       		.uleb128 0xb
 7808 0063 01       		.uleb128 0x1
 7809 0064 13       		.uleb128 0x13
 7810 0065 00       		.byte	0
 7811 0066 00       		.byte	0
 7812 0067 0A       		.uleb128 0xa
 7813 0068 28       		.uleb128 0x28
 7814 0069 00       		.byte	0
ARM GAS  C:\Users\haske\AppData\Local\Temp\ccswauRt.s 			page 163


 7815 006a 03       		.uleb128 0x3
 7816 006b 0E       		.uleb128 0xe
 7817 006c 1C       		.uleb128 0x1c
 7818 006d 0B       		.uleb128 0xb
 7819 006e 00       		.byte	0
 7820 006f 00       		.byte	0
 7821 0070 0B       		.uleb128 0xb
 7822 0071 13       		.uleb128 0x13
 7823 0072 01       		.byte	0x1
 7824 0073 03       		.uleb128 0x3
 7825 0074 0E       		.uleb128 0xe
 7826 0075 0B       		.uleb128 0xb
 7827 0076 0B       		.uleb128 0xb
 7828 0077 3A       		.uleb128 0x3a
 7829 0078 0B       		.uleb128 0xb
 7830 0079 3B       		.uleb128 0x3b
 7831 007a 05       		.uleb128 0x5
 7832 007b 01       		.uleb128 0x1
 7833 007c 13       		.uleb128 0x13
 7834 007d 00       		.byte	0
 7835 007e 00       		.byte	0
 7836 007f 0C       		.uleb128 0xc
 7837 0080 0D       		.uleb128 0xd
 7838 0081 00       		.byte	0
 7839 0082 03       		.uleb128 0x3
 7840 0083 0E       		.uleb128 0xe
 7841 0084 3A       		.uleb128 0x3a
 7842 0085 0B       		.uleb128 0xb
 7843 0086 3B       		.uleb128 0x3b
 7844 0087 05       		.uleb128 0x5
 7845 0088 49       		.uleb128 0x49
 7846 0089 13       		.uleb128 0x13
 7847 008a 38       		.uleb128 0x38
 7848 008b 0B       		.uleb128 0xb
 7849 008c 00       		.byte	0
 7850 008d 00       		.byte	0
 7851 008e 0D       		.uleb128 0xd
 7852 008f 16       		.uleb128 0x16
 7853 0090 00       		.byte	0
 7854 0091 03       		.uleb128 0x3
 7855 0092 0E       		.uleb128 0xe
 7856 0093 3A       		.uleb128 0x3a
 7857 0094 0B       		.uleb128 0xb
 7858 0095 3B       		.uleb128 0x3b
 7859 0096 05       		.uleb128 0x5
 7860 0097 49       		.uleb128 0x49
 7861 0098 13       		.uleb128 0x13
 7862 0099 00       		.byte	0
 7863 009a 00       		.byte	0
 7864 009b 0E       		.uleb128 0xe
 7865 009c 13       		.uleb128 0x13
 7866 009d 01       		.byte	0x1
 7867 009e 03       		.uleb128 0x3
 7868 009f 0E       		.uleb128 0xe
 7869 00a0 0B       		.uleb128 0xb
 7870 00a1 05       		.uleb128 0x5
 7871 00a2 3A       		.uleb128 0x3a
ARM GAS  C:\Users\haske\AppData\Local\Temp\ccswauRt.s 			page 164


 7872 00a3 0B       		.uleb128 0xb
 7873 00a4 3B       		.uleb128 0x3b
 7874 00a5 05       		.uleb128 0x5
 7875 00a6 01       		.uleb128 0x1
 7876 00a7 13       		.uleb128 0x13
 7877 00a8 00       		.byte	0
 7878 00a9 00       		.byte	0
 7879 00aa 0F       		.uleb128 0xf
 7880 00ab 01       		.uleb128 0x1
 7881 00ac 01       		.byte	0x1
 7882 00ad 49       		.uleb128 0x49
 7883 00ae 13       		.uleb128 0x13
 7884 00af 01       		.uleb128 0x1
 7885 00b0 13       		.uleb128 0x13
 7886 00b1 00       		.byte	0
 7887 00b2 00       		.byte	0
 7888 00b3 10       		.uleb128 0x10
 7889 00b4 21       		.uleb128 0x21
 7890 00b5 00       		.byte	0
 7891 00b6 49       		.uleb128 0x49
 7892 00b7 13       		.uleb128 0x13
 7893 00b8 2F       		.uleb128 0x2f
 7894 00b9 0B       		.uleb128 0xb
 7895 00ba 00       		.byte	0
 7896 00bb 00       		.byte	0
 7897 00bc 11       		.uleb128 0x11
 7898 00bd 2E       		.uleb128 0x2e
 7899 00be 01       		.byte	0x1
 7900 00bf 03       		.uleb128 0x3
 7901 00c0 0E       		.uleb128 0xe
 7902 00c1 3A       		.uleb128 0x3a
 7903 00c2 0B       		.uleb128 0xb
 7904 00c3 3B       		.uleb128 0x3b
 7905 00c4 05       		.uleb128 0x5
 7906 00c5 27       		.uleb128 0x27
 7907 00c6 19       		.uleb128 0x19
 7908 00c7 49       		.uleb128 0x49
 7909 00c8 13       		.uleb128 0x13
 7910 00c9 11       		.uleb128 0x11
 7911 00ca 01       		.uleb128 0x1
 7912 00cb 12       		.uleb128 0x12
 7913 00cc 06       		.uleb128 0x6
 7914 00cd 40       		.uleb128 0x40
 7915 00ce 18       		.uleb128 0x18
 7916 00cf 9742     		.uleb128 0x2117
 7917 00d1 19       		.uleb128 0x19
 7918 00d2 01       		.uleb128 0x1
 7919 00d3 13       		.uleb128 0x13
 7920 00d4 00       		.byte	0
 7921 00d5 00       		.byte	0
 7922 00d6 12       		.uleb128 0x12
 7923 00d7 05       		.uleb128 0x5
 7924 00d8 00       		.byte	0
 7925 00d9 03       		.uleb128 0x3
 7926 00da 0E       		.uleb128 0xe
 7927 00db 3A       		.uleb128 0x3a
 7928 00dc 0B       		.uleb128 0xb
ARM GAS  C:\Users\haske\AppData\Local\Temp\ccswauRt.s 			page 165


 7929 00dd 3B       		.uleb128 0x3b
 7930 00de 05       		.uleb128 0x5
 7931 00df 49       		.uleb128 0x49
 7932 00e0 13       		.uleb128 0x13
 7933 00e1 02       		.uleb128 0x2
 7934 00e2 17       		.uleb128 0x17
 7935 00e3 00       		.byte	0
 7936 00e4 00       		.byte	0
 7937 00e5 13       		.uleb128 0x13
 7938 00e6 26       		.uleb128 0x26
 7939 00e7 00       		.byte	0
 7940 00e8 49       		.uleb128 0x49
 7941 00e9 13       		.uleb128 0x13
 7942 00ea 00       		.byte	0
 7943 00eb 00       		.byte	0
 7944 00ec 14       		.uleb128 0x14
 7945 00ed 2E       		.uleb128 0x2e
 7946 00ee 01       		.byte	0x1
 7947 00ef 03       		.uleb128 0x3
 7948 00f0 0E       		.uleb128 0xe
 7949 00f1 3A       		.uleb128 0x3a
 7950 00f2 0B       		.uleb128 0xb
 7951 00f3 3B       		.uleb128 0x3b
 7952 00f4 05       		.uleb128 0x5
 7953 00f5 27       		.uleb128 0x27
 7954 00f6 19       		.uleb128 0x19
 7955 00f7 11       		.uleb128 0x11
 7956 00f8 01       		.uleb128 0x1
 7957 00f9 12       		.uleb128 0x12
 7958 00fa 06       		.uleb128 0x6
 7959 00fb 40       		.uleb128 0x40
 7960 00fc 18       		.uleb128 0x18
 7961 00fd 9742     		.uleb128 0x2117
 7962 00ff 19       		.uleb128 0x19
 7963 0100 01       		.uleb128 0x1
 7964 0101 13       		.uleb128 0x13
 7965 0102 00       		.byte	0
 7966 0103 00       		.byte	0
 7967 0104 15       		.uleb128 0x15
 7968 0105 05       		.uleb128 0x5
 7969 0106 00       		.byte	0
 7970 0107 03       		.uleb128 0x3
 7971 0108 0E       		.uleb128 0xe
 7972 0109 3A       		.uleb128 0x3a
 7973 010a 0B       		.uleb128 0xb
 7974 010b 3B       		.uleb128 0x3b
 7975 010c 05       		.uleb128 0x5
 7976 010d 49       		.uleb128 0x49
 7977 010e 13       		.uleb128 0x13
 7978 010f 02       		.uleb128 0x2
 7979 0110 18       		.uleb128 0x18
 7980 0111 00       		.byte	0
 7981 0112 00       		.byte	0
 7982 0113 16       		.uleb128 0x16
 7983 0114 34       		.uleb128 0x34
 7984 0115 00       		.byte	0
 7985 0116 03       		.uleb128 0x3
ARM GAS  C:\Users\haske\AppData\Local\Temp\ccswauRt.s 			page 166


 7986 0117 0E       		.uleb128 0xe
 7987 0118 3A       		.uleb128 0x3a
 7988 0119 0B       		.uleb128 0xb
 7989 011a 3B       		.uleb128 0x3b
 7990 011b 05       		.uleb128 0x5
 7991 011c 49       		.uleb128 0x49
 7992 011d 13       		.uleb128 0x13
 7993 011e 02       		.uleb128 0x2
 7994 011f 17       		.uleb128 0x17
 7995 0120 00       		.byte	0
 7996 0121 00       		.byte	0
 7997 0122 17       		.uleb128 0x17
 7998 0123 898201   		.uleb128 0x4109
 7999 0126 01       		.byte	0x1
 8000 0127 11       		.uleb128 0x11
 8001 0128 01       		.uleb128 0x1
 8002 0129 31       		.uleb128 0x31
 8003 012a 13       		.uleb128 0x13
 8004 012b 00       		.byte	0
 8005 012c 00       		.byte	0
 8006 012d 18       		.uleb128 0x18
 8007 012e 8A8201   		.uleb128 0x410a
 8008 0131 00       		.byte	0
 8009 0132 02       		.uleb128 0x2
 8010 0133 18       		.uleb128 0x18
 8011 0134 9142     		.uleb128 0x2111
 8012 0136 18       		.uleb128 0x18
 8013 0137 00       		.byte	0
 8014 0138 00       		.byte	0
 8015 0139 19       		.uleb128 0x19
 8016 013a 05       		.uleb128 0x5
 8017 013b 00       		.byte	0
 8018 013c 03       		.uleb128 0x3
 8019 013d 08       		.uleb128 0x8
 8020 013e 3A       		.uleb128 0x3a
 8021 013f 0B       		.uleb128 0xb
 8022 0140 3B       		.uleb128 0x3b
 8023 0141 05       		.uleb128 0x5
 8024 0142 49       		.uleb128 0x49
 8025 0143 13       		.uleb128 0x13
 8026 0144 02       		.uleb128 0x2
 8027 0145 17       		.uleb128 0x17
 8028 0146 00       		.byte	0
 8029 0147 00       		.byte	0
 8030 0148 1A       		.uleb128 0x1a
 8031 0149 26       		.uleb128 0x26
 8032 014a 00       		.byte	0
 8033 014b 00       		.byte	0
 8034 014c 00       		.byte	0
 8035 014d 1B       		.uleb128 0x1b
 8036 014e 898201   		.uleb128 0x4109
 8037 0151 01       		.byte	0x1
 8038 0152 11       		.uleb128 0x11
 8039 0153 01       		.uleb128 0x1
 8040 0154 31       		.uleb128 0x31
 8041 0155 13       		.uleb128 0x13
 8042 0156 01       		.uleb128 0x1
ARM GAS  C:\Users\haske\AppData\Local\Temp\ccswauRt.s 			page 167


 8043 0157 13       		.uleb128 0x13
 8044 0158 00       		.byte	0
 8045 0159 00       		.byte	0
 8046 015a 1C       		.uleb128 0x1c
 8047 015b 34       		.uleb128 0x34
 8048 015c 00       		.byte	0
 8049 015d 03       		.uleb128 0x3
 8050 015e 0E       		.uleb128 0xe
 8051 015f 3A       		.uleb128 0x3a
 8052 0160 0B       		.uleb128 0xb
 8053 0161 3B       		.uleb128 0x3b
 8054 0162 05       		.uleb128 0x5
 8055 0163 49       		.uleb128 0x49
 8056 0164 13       		.uleb128 0x13
 8057 0165 02       		.uleb128 0x2
 8058 0166 18       		.uleb128 0x18
 8059 0167 00       		.byte	0
 8060 0168 00       		.byte	0
 8061 0169 1D       		.uleb128 0x1d
 8062 016a 898201   		.uleb128 0x4109
 8063 016d 00       		.byte	0
 8064 016e 11       		.uleb128 0x11
 8065 016f 01       		.uleb128 0x1
 8066 0170 31       		.uleb128 0x31
 8067 0171 13       		.uleb128 0x13
 8068 0172 00       		.byte	0
 8069 0173 00       		.byte	0
 8070 0174 1E       		.uleb128 0x1e
 8071 0175 0B       		.uleb128 0xb
 8072 0176 01       		.byte	0x1
 8073 0177 11       		.uleb128 0x11
 8074 0178 01       		.uleb128 0x1
 8075 0179 12       		.uleb128 0x12
 8076 017a 06       		.uleb128 0x6
 8077 017b 00       		.byte	0
 8078 017c 00       		.byte	0
 8079 017d 1F       		.uleb128 0x1f
 8080 017e 34       		.uleb128 0x34
 8081 017f 00       		.byte	0
 8082 0180 03       		.uleb128 0x3
 8083 0181 08       		.uleb128 0x8
 8084 0182 3A       		.uleb128 0x3a
 8085 0183 0B       		.uleb128 0xb
 8086 0184 3B       		.uleb128 0x3b
 8087 0185 05       		.uleb128 0x5
 8088 0186 49       		.uleb128 0x49
 8089 0187 13       		.uleb128 0x13
 8090 0188 02       		.uleb128 0x2
 8091 0189 17       		.uleb128 0x17
 8092 018a 00       		.byte	0
 8093 018b 00       		.byte	0
 8094 018c 20       		.uleb128 0x20
 8095 018d 05       		.uleb128 0x5
 8096 018e 00       		.byte	0
 8097 018f 03       		.uleb128 0x3
 8098 0190 08       		.uleb128 0x8
 8099 0191 3A       		.uleb128 0x3a
ARM GAS  C:\Users\haske\AppData\Local\Temp\ccswauRt.s 			page 168


 8100 0192 0B       		.uleb128 0xb
 8101 0193 3B       		.uleb128 0x3b
 8102 0194 05       		.uleb128 0x5
 8103 0195 49       		.uleb128 0x49
 8104 0196 13       		.uleb128 0x13
 8105 0197 02       		.uleb128 0x2
 8106 0198 18       		.uleb128 0x18
 8107 0199 00       		.byte	0
 8108 019a 00       		.byte	0
 8109 019b 21       		.uleb128 0x21
 8110 019c 2E       		.uleb128 0x2e
 8111 019d 01       		.byte	0x1
 8112 019e 03       		.uleb128 0x3
 8113 019f 0E       		.uleb128 0xe
 8114 01a0 3A       		.uleb128 0x3a
 8115 01a1 0B       		.uleb128 0xb
 8116 01a2 3B       		.uleb128 0x3b
 8117 01a3 0B       		.uleb128 0xb
 8118 01a4 27       		.uleb128 0x27
 8119 01a5 19       		.uleb128 0x19
 8120 01a6 49       		.uleb128 0x49
 8121 01a7 13       		.uleb128 0x13
 8122 01a8 11       		.uleb128 0x11
 8123 01a9 01       		.uleb128 0x1
 8124 01aa 12       		.uleb128 0x12
 8125 01ab 06       		.uleb128 0x6
 8126 01ac 40       		.uleb128 0x40
 8127 01ad 18       		.uleb128 0x18
 8128 01ae 9642     		.uleb128 0x2116
 8129 01b0 19       		.uleb128 0x19
 8130 01b1 01       		.uleb128 0x1
 8131 01b2 13       		.uleb128 0x13
 8132 01b3 00       		.byte	0
 8133 01b4 00       		.byte	0
 8134 01b5 22       		.uleb128 0x22
 8135 01b6 05       		.uleb128 0x5
 8136 01b7 00       		.byte	0
 8137 01b8 03       		.uleb128 0x3
 8138 01b9 0E       		.uleb128 0xe
 8139 01ba 3A       		.uleb128 0x3a
 8140 01bb 0B       		.uleb128 0xb
 8141 01bc 3B       		.uleb128 0x3b
 8142 01bd 0B       		.uleb128 0xb
 8143 01be 49       		.uleb128 0x49
 8144 01bf 13       		.uleb128 0x13
 8145 01c0 02       		.uleb128 0x2
 8146 01c1 17       		.uleb128 0x17
 8147 01c2 00       		.byte	0
 8148 01c3 00       		.byte	0
 8149 01c4 23       		.uleb128 0x23
 8150 01c5 34       		.uleb128 0x34
 8151 01c6 00       		.byte	0
 8152 01c7 03       		.uleb128 0x3
 8153 01c8 08       		.uleb128 0x8
 8154 01c9 3A       		.uleb128 0x3a
 8155 01ca 0B       		.uleb128 0xb
 8156 01cb 3B       		.uleb128 0x3b
ARM GAS  C:\Users\haske\AppData\Local\Temp\ccswauRt.s 			page 169


 8157 01cc 0B       		.uleb128 0xb
 8158 01cd 49       		.uleb128 0x49
 8159 01ce 13       		.uleb128 0x13
 8160 01cf 02       		.uleb128 0x2
 8161 01d0 17       		.uleb128 0x17
 8162 01d1 00       		.byte	0
 8163 01d2 00       		.byte	0
 8164 01d3 24       		.uleb128 0x24
 8165 01d4 34       		.uleb128 0x34
 8166 01d5 00       		.byte	0
 8167 01d6 03       		.uleb128 0x3
 8168 01d7 08       		.uleb128 0x8
 8169 01d8 3A       		.uleb128 0x3a
 8170 01d9 0B       		.uleb128 0xb
 8171 01da 3B       		.uleb128 0x3b
 8172 01db 05       		.uleb128 0x5
 8173 01dc 49       		.uleb128 0x49
 8174 01dd 13       		.uleb128 0x13
 8175 01de 02       		.uleb128 0x2
 8176 01df 18       		.uleb128 0x18
 8177 01e0 00       		.byte	0
 8178 01e1 00       		.byte	0
 8179 01e2 25       		.uleb128 0x25
 8180 01e3 0B       		.uleb128 0xb
 8181 01e4 01       		.byte	0x1
 8182 01e5 11       		.uleb128 0x11
 8183 01e6 01       		.uleb128 0x1
 8184 01e7 12       		.uleb128 0x12
 8185 01e8 06       		.uleb128 0x6
 8186 01e9 01       		.uleb128 0x1
 8187 01ea 13       		.uleb128 0x13
 8188 01eb 00       		.byte	0
 8189 01ec 00       		.byte	0
 8190 01ed 26       		.uleb128 0x26
 8191 01ee 0B       		.uleb128 0xb
 8192 01ef 01       		.byte	0x1
 8193 01f0 55       		.uleb128 0x55
 8194 01f1 17       		.uleb128 0x17
 8195 01f2 01       		.uleb128 0x1
 8196 01f3 13       		.uleb128 0x13
 8197 01f4 00       		.byte	0
 8198 01f5 00       		.byte	0
 8199 01f6 27       		.uleb128 0x27
 8200 01f7 2E       		.uleb128 0x2e
 8201 01f8 01       		.byte	0x1
 8202 01f9 3F       		.uleb128 0x3f
 8203 01fa 19       		.uleb128 0x19
 8204 01fb 03       		.uleb128 0x3
 8205 01fc 0E       		.uleb128 0xe
 8206 01fd 3A       		.uleb128 0x3a
 8207 01fe 0B       		.uleb128 0xb
 8208 01ff 3B       		.uleb128 0x3b
 8209 0200 05       		.uleb128 0x5
 8210 0201 27       		.uleb128 0x27
 8211 0202 19       		.uleb128 0x19
 8212 0203 49       		.uleb128 0x49
 8213 0204 13       		.uleb128 0x13
ARM GAS  C:\Users\haske\AppData\Local\Temp\ccswauRt.s 			page 170


 8214 0205 11       		.uleb128 0x11
 8215 0206 01       		.uleb128 0x1
 8216 0207 12       		.uleb128 0x12
 8217 0208 06       		.uleb128 0x6
 8218 0209 40       		.uleb128 0x40
 8219 020a 18       		.uleb128 0x18
 8220 020b 9742     		.uleb128 0x2117
 8221 020d 19       		.uleb128 0x19
 8222 020e 01       		.uleb128 0x1
 8223 020f 13       		.uleb128 0x13
 8224 0210 00       		.byte	0
 8225 0211 00       		.byte	0
 8226 0212 28       		.uleb128 0x28
 8227 0213 2E       		.uleb128 0x2e
 8228 0214 01       		.byte	0x1
 8229 0215 3F       		.uleb128 0x3f
 8230 0216 19       		.uleb128 0x19
 8231 0217 03       		.uleb128 0x3
 8232 0218 0E       		.uleb128 0xe
 8233 0219 3A       		.uleb128 0x3a
 8234 021a 0B       		.uleb128 0xb
 8235 021b 3B       		.uleb128 0x3b
 8236 021c 05       		.uleb128 0x5
 8237 021d 27       		.uleb128 0x27
 8238 021e 19       		.uleb128 0x19
 8239 021f 11       		.uleb128 0x11
 8240 0220 01       		.uleb128 0x1
 8241 0221 12       		.uleb128 0x12
 8242 0222 06       		.uleb128 0x6
 8243 0223 40       		.uleb128 0x40
 8244 0224 18       		.uleb128 0x18
 8245 0225 9742     		.uleb128 0x2117
 8246 0227 19       		.uleb128 0x19
 8247 0228 01       		.uleb128 0x1
 8248 0229 13       		.uleb128 0x13
 8249 022a 00       		.byte	0
 8250 022b 00       		.byte	0
 8251 022c 29       		.uleb128 0x29
 8252 022d 898201   		.uleb128 0x4109
 8253 0230 01       		.byte	0x1
 8254 0231 11       		.uleb128 0x11
 8255 0232 01       		.uleb128 0x1
 8256 0233 01       		.uleb128 0x1
 8257 0234 13       		.uleb128 0x13
 8258 0235 00       		.byte	0
 8259 0236 00       		.byte	0
 8260 0237 2A       		.uleb128 0x2a
 8261 0238 2E       		.uleb128 0x2e
 8262 0239 00       		.byte	0
 8263 023a 3F       		.uleb128 0x3f
 8264 023b 19       		.uleb128 0x19
 8265 023c 03       		.uleb128 0x3
 8266 023d 0E       		.uleb128 0xe
 8267 023e 3A       		.uleb128 0x3a
 8268 023f 0B       		.uleb128 0xb
 8269 0240 3B       		.uleb128 0x3b
 8270 0241 05       		.uleb128 0x5
ARM GAS  C:\Users\haske\AppData\Local\Temp\ccswauRt.s 			page 171


 8271 0242 27       		.uleb128 0x27
 8272 0243 19       		.uleb128 0x19
 8273 0244 49       		.uleb128 0x49
 8274 0245 13       		.uleb128 0x13
 8275 0246 11       		.uleb128 0x11
 8276 0247 01       		.uleb128 0x1
 8277 0248 12       		.uleb128 0x12
 8278 0249 06       		.uleb128 0x6
 8279 024a 40       		.uleb128 0x40
 8280 024b 18       		.uleb128 0x18
 8281 024c 9742     		.uleb128 0x2117
 8282 024e 19       		.uleb128 0x19
 8283 024f 00       		.byte	0
 8284 0250 00       		.byte	0
 8285 0251 2B       		.uleb128 0x2b
 8286 0252 34       		.uleb128 0x34
 8287 0253 00       		.byte	0
 8288 0254 03       		.uleb128 0x3
 8289 0255 0E       		.uleb128 0xe
 8290 0256 3A       		.uleb128 0x3a
 8291 0257 0B       		.uleb128 0xb
 8292 0258 3B       		.uleb128 0x3b
 8293 0259 05       		.uleb128 0x5
 8294 025a 49       		.uleb128 0x49
 8295 025b 13       		.uleb128 0x13
 8296 025c 1C       		.uleb128 0x1c
 8297 025d 0B       		.uleb128 0xb
 8298 025e 00       		.byte	0
 8299 025f 00       		.byte	0
 8300 0260 2C       		.uleb128 0x2c
 8301 0261 34       		.uleb128 0x34
 8302 0262 00       		.byte	0
 8303 0263 03       		.uleb128 0x3
 8304 0264 0E       		.uleb128 0xe
 8305 0265 3A       		.uleb128 0x3a
 8306 0266 0B       		.uleb128 0xb
 8307 0267 3B       		.uleb128 0x3b
 8308 0268 05       		.uleb128 0x5
 8309 0269 49       		.uleb128 0x49
 8310 026a 13       		.uleb128 0x13
 8311 026b 1C       		.uleb128 0x1c
 8312 026c 06       		.uleb128 0x6
 8313 026d 00       		.byte	0
 8314 026e 00       		.byte	0
 8315 026f 2D       		.uleb128 0x2d
 8316 0270 2E       		.uleb128 0x2e
 8317 0271 00       		.byte	0
 8318 0272 3F       		.uleb128 0x3f
 8319 0273 19       		.uleb128 0x19
 8320 0274 3C       		.uleb128 0x3c
 8321 0275 19       		.uleb128 0x19
 8322 0276 6E       		.uleb128 0x6e
 8323 0277 0E       		.uleb128 0xe
 8324 0278 03       		.uleb128 0x3
 8325 0279 0E       		.uleb128 0xe
 8326 027a 3A       		.uleb128 0x3a
 8327 027b 0B       		.uleb128 0xb
ARM GAS  C:\Users\haske\AppData\Local\Temp\ccswauRt.s 			page 172


 8328 027c 3B       		.uleb128 0x3b
 8329 027d 0B       		.uleb128 0xb
 8330 027e 00       		.byte	0
 8331 027f 00       		.byte	0
 8332 0280 00       		.byte	0
 8333              		.section	.debug_loc,"",%progbits
 8334              	.Ldebug_loc0:
 8335              	.LLST0:
 8336 0000 00000000 		.4byte	.LVL0
 8337 0004 02000000 		.4byte	.LVL1
 8338 0008 0100     		.2byte	0x1
 8339 000a 50       		.byte	0x50
 8340 000b 02000000 		.4byte	.LVL1
 8341 000f 08000000 		.4byte	.LFE3
 8342 0013 0400     		.2byte	0x4
 8343 0015 F3       		.byte	0xf3
 8344 0016 01       		.uleb128 0x1
 8345 0017 50       		.byte	0x50
 8346 0018 9F       		.byte	0x9f
 8347 0019 00000000 		.4byte	0
 8348 001d 00000000 		.4byte	0
 8349              	.LLST1:
 8350 0021 00000000 		.4byte	.LVL2
 8351 0025 08000000 		.4byte	.LVL3
 8352 0029 0100     		.2byte	0x1
 8353 002b 51       		.byte	0x51
 8354 002c 08000000 		.4byte	.LVL3
 8355 0030 0C000000 		.4byte	.LFE4
 8356 0034 0400     		.2byte	0x4
 8357 0036 F3       		.byte	0xf3
 8358 0037 01       		.uleb128 0x1
 8359 0038 51       		.byte	0x51
 8360 0039 9F       		.byte	0x9f
 8361 003a 00000000 		.4byte	0
 8362 003e 00000000 		.4byte	0
 8363              	.LLST2:
 8364 0042 00000000 		.4byte	.LVL2
 8365 0046 0A000000 		.4byte	.LVL4
 8366 004a 0200     		.2byte	0x2
 8367 004c 70       		.byte	0x70
 8368 004d 04       		.sleb128 4
 8369 004e 0A000000 		.4byte	.LVL4
 8370 0052 0C000000 		.4byte	.LFE4
 8371 0056 0100     		.2byte	0x1
 8372 0058 52       		.byte	0x52
 8373 0059 00000000 		.4byte	0
 8374 005d 00000000 		.4byte	0
 8375              	.LLST3:
 8376 0061 00000000 		.4byte	.LVL5
 8377 0065 05000000 		.4byte	.LVL6-1
 8378 0069 0100     		.2byte	0x1
 8379 006b 50       		.byte	0x50
 8380 006c 05000000 		.4byte	.LVL6-1
 8381 0070 0E000000 		.4byte	.LFE5
 8382 0074 0400     		.2byte	0x4
 8383 0076 F3       		.byte	0xf3
 8384 0077 01       		.uleb128 0x1
ARM GAS  C:\Users\haske\AppData\Local\Temp\ccswauRt.s 			page 173


 8385 0078 50       		.byte	0x50
 8386 0079 9F       		.byte	0x9f
 8387 007a 00000000 		.4byte	0
 8388 007e 00000000 		.4byte	0
 8389              	.LLST4:
 8390 0082 00000000 		.4byte	.LVL7
 8391 0086 04000000 		.4byte	.LVL8
 8392 008a 0100     		.2byte	0x1
 8393 008c 50       		.byte	0x50
 8394 008d 04000000 		.4byte	.LVL8
 8395 0091 08000000 		.4byte	.LFE6
 8396 0095 0400     		.2byte	0x4
 8397 0097 F3       		.byte	0xf3
 8398 0098 01       		.uleb128 0x1
 8399 0099 50       		.byte	0x50
 8400 009a 9F       		.byte	0x9f
 8401 009b 00000000 		.4byte	0
 8402 009f 00000000 		.4byte	0
 8403              	.LLST5:
 8404 00a3 00000000 		.4byte	.LVL11
 8405 00a7 04000000 		.4byte	.LVL12
 8406 00ab 0100     		.2byte	0x1
 8407 00ad 50       		.byte	0x50
 8408 00ae 04000000 		.4byte	.LVL12
 8409 00b2 08000000 		.4byte	.LFE9
 8410 00b6 0400     		.2byte	0x4
 8411 00b8 F3       		.byte	0xf3
 8412 00b9 01       		.uleb128 0x1
 8413 00ba 50       		.byte	0x50
 8414 00bb 9F       		.byte	0x9f
 8415 00bc 00000000 		.4byte	0
 8416 00c0 00000000 		.4byte	0
 8417              	.LLST6:
 8418 00c4 00000000 		.4byte	.LVL15
 8419 00c8 02000000 		.4byte	.LVL16
 8420 00cc 0100     		.2byte	0x1
 8421 00ce 50       		.byte	0x50
 8422 00cf 02000000 		.4byte	.LVL16
 8423 00d3 04000000 		.4byte	.LFE12
 8424 00d7 0300     		.2byte	0x3
 8425 00d9 70       		.byte	0x70
 8426 00da 08       		.sleb128 8
 8427 00db 9F       		.byte	0x9f
 8428 00dc 00000000 		.4byte	0
 8429 00e0 00000000 		.4byte	0
 8430              	.LLST7:
 8431 00e4 00000000 		.4byte	.LVL17
 8432 00e8 02000000 		.4byte	.LVL18
 8433 00ec 0100     		.2byte	0x1
 8434 00ee 50       		.byte	0x50
 8435 00ef 02000000 		.4byte	.LVL18
 8436 00f3 04000000 		.4byte	.LFE13
 8437 00f7 0300     		.2byte	0x3
 8438 00f9 70       		.byte	0x70
 8439 00fa 78       		.sleb128 -8
 8440 00fb 9F       		.byte	0x9f
 8441 00fc 00000000 		.4byte	0
ARM GAS  C:\Users\haske\AppData\Local\Temp\ccswauRt.s 			page 174


 8442 0100 00000000 		.4byte	0
 8443              	.LLST8:
 8444 0104 00000000 		.4byte	.LVL19
 8445 0108 02000000 		.4byte	.LVL20
 8446 010c 0100     		.2byte	0x1
 8447 010e 50       		.byte	0x50
 8448 010f 02000000 		.4byte	.LVL20
 8449 0113 04000000 		.4byte	.LFE14
 8450 0117 0400     		.2byte	0x4
 8451 0119 F3       		.byte	0xf3
 8452 011a 01       		.uleb128 0x1
 8453 011b 50       		.byte	0x50
 8454 011c 9F       		.byte	0x9f
 8455 011d 00000000 		.4byte	0
 8456 0121 00000000 		.4byte	0
 8457              	.LLST9:
 8458 0125 00000000 		.4byte	.LVL21
 8459 0129 07000000 		.4byte	.LVL22-1
 8460 012d 0100     		.2byte	0x1
 8461 012f 50       		.byte	0x50
 8462 0130 07000000 		.4byte	.LVL22-1
 8463 0134 10000000 		.4byte	.LVL23
 8464 0138 0100     		.2byte	0x1
 8465 013a 54       		.byte	0x54
 8466 013b 10000000 		.4byte	.LVL23
 8467 013f 12000000 		.4byte	.LFE15
 8468 0143 0400     		.2byte	0x4
 8469 0145 F3       		.byte	0xf3
 8470 0146 01       		.uleb128 0x1
 8471 0147 50       		.byte	0x50
 8472 0148 9F       		.byte	0x9f
 8473 0149 00000000 		.4byte	0
 8474 014d 00000000 		.4byte	0
 8475              	.LLST10:
 8476 0151 00000000 		.4byte	.LVL24
 8477 0155 07000000 		.4byte	.LVL25-1
 8478 0159 0100     		.2byte	0x1
 8479 015b 50       		.byte	0x50
 8480 015c 07000000 		.4byte	.LVL25-1
 8481 0160 28000000 		.4byte	.LVL31
 8482 0164 0100     		.2byte	0x1
 8483 0166 54       		.byte	0x54
 8484 0167 28000000 		.4byte	.LVL31
 8485 016b 2A000000 		.4byte	.LFE16
 8486 016f 0400     		.2byte	0x4
 8487 0171 F3       		.byte	0xf3
 8488 0172 01       		.uleb128 0x1
 8489 0173 50       		.byte	0x50
 8490 0174 9F       		.byte	0x9f
 8491 0175 00000000 		.4byte	0
 8492 0179 00000000 		.4byte	0
 8493              	.LLST11:
 8494 017d 1A000000 		.4byte	.LVL28
 8495 0181 1C000000 		.4byte	.LVL29
 8496 0185 0100     		.2byte	0x1
 8497 0187 50       		.byte	0x50
 8498 0188 1C000000 		.4byte	.LVL29
ARM GAS  C:\Users\haske\AppData\Local\Temp\ccswauRt.s 			page 175


 8499 018c 28000000 		.4byte	.LVL32
 8500 0190 0100     		.2byte	0x1
 8501 0192 55       		.byte	0x55
 8502 0193 28000000 		.4byte	.LVL32
 8503 0197 2A000000 		.4byte	.LFE16
 8504 019b 0100     		.2byte	0x1
 8505 019d 50       		.byte	0x50
 8506 019e 00000000 		.4byte	0
 8507 01a2 00000000 		.4byte	0
 8508              	.LLST12:
 8509 01a6 00000000 		.4byte	.LVL33
 8510 01aa 07000000 		.4byte	.LVL34-1
 8511 01ae 0100     		.2byte	0x1
 8512 01b0 50       		.byte	0x50
 8513 01b1 07000000 		.4byte	.LVL34-1
 8514 01b5 0A000000 		.4byte	.LVL35
 8515 01b9 0100     		.2byte	0x1
 8516 01bb 54       		.byte	0x54
 8517 01bc 0A000000 		.4byte	.LVL35
 8518 01c0 0C000000 		.4byte	.LFE17
 8519 01c4 0200     		.2byte	0x2
 8520 01c6 70       		.byte	0x70
 8521 01c7 00       		.sleb128 0
 8522 01c8 00000000 		.4byte	0
 8523 01cc 00000000 		.4byte	0
 8524              	.LLST13:
 8525 01d0 00000000 		.4byte	.LVL36
 8526 01d4 07000000 		.4byte	.LVL37-1
 8527 01d8 0100     		.2byte	0x1
 8528 01da 50       		.byte	0x50
 8529 01db 07000000 		.4byte	.LVL37-1
 8530 01df 12000000 		.4byte	.LVL40
 8531 01e3 0100     		.2byte	0x1
 8532 01e5 54       		.byte	0x54
 8533 01e6 12000000 		.4byte	.LVL40
 8534 01ea 14000000 		.4byte	.LFE18
 8535 01ee 0400     		.2byte	0x4
 8536 01f0 F3       		.byte	0xf3
 8537 01f1 01       		.uleb128 0x1
 8538 01f2 50       		.byte	0x50
 8539 01f3 9F       		.byte	0x9f
 8540 01f4 00000000 		.4byte	0
 8541 01f8 00000000 		.4byte	0
 8542              	.LLST14:
 8543 01fc 08000000 		.4byte	.LVL37
 8544 0200 0B000000 		.4byte	.LVL38-1
 8545 0204 0100     		.2byte	0x1
 8546 0206 50       		.byte	0x50
 8547 0207 00000000 		.4byte	0
 8548 020b 00000000 		.4byte	0
 8549              	.LLST15:
 8550 020f 00000000 		.4byte	.LVL41
 8551 0213 07000000 		.4byte	.LVL42-1
 8552 0217 0100     		.2byte	0x1
 8553 0219 50       		.byte	0x50
 8554 021a 07000000 		.4byte	.LVL42-1
 8555 021e 12000000 		.4byte	.LVL45
ARM GAS  C:\Users\haske\AppData\Local\Temp\ccswauRt.s 			page 176


 8556 0222 0100     		.2byte	0x1
 8557 0224 54       		.byte	0x54
 8558 0225 12000000 		.4byte	.LVL45
 8559 0229 14000000 		.4byte	.LFE19
 8560 022d 0400     		.2byte	0x4
 8561 022f F3       		.byte	0xf3
 8562 0230 01       		.uleb128 0x1
 8563 0231 50       		.byte	0x50
 8564 0232 9F       		.byte	0x9f
 8565 0233 00000000 		.4byte	0
 8566 0237 00000000 		.4byte	0
 8567              	.LLST16:
 8568 023b 08000000 		.4byte	.LVL42
 8569 023f 0B000000 		.4byte	.LVL43-1
 8570 0243 0100     		.2byte	0x1
 8571 0245 50       		.byte	0x50
 8572 0246 00000000 		.4byte	0
 8573 024a 00000000 		.4byte	0
 8574              	.LLST17:
 8575 024e 00000000 		.4byte	.LVL46
 8576 0252 0A000000 		.4byte	.LVL47
 8577 0256 0100     		.2byte	0x1
 8578 0258 50       		.byte	0x50
 8579 0259 0A000000 		.4byte	.LVL47
 8580 025d 12000000 		.4byte	.LFE20
 8581 0261 0400     		.2byte	0x4
 8582 0263 F3       		.byte	0xf3
 8583 0264 01       		.uleb128 0x1
 8584 0265 50       		.byte	0x50
 8585 0266 9F       		.byte	0x9f
 8586 0267 00000000 		.4byte	0
 8587 026b 00000000 		.4byte	0
 8588              	.LLST18:
 8589 026f 00000000 		.4byte	.LVL48
 8590 0273 0C000000 		.4byte	.LVL50
 8591 0277 0100     		.2byte	0x1
 8592 0279 50       		.byte	0x50
 8593 027a 0C000000 		.4byte	.LVL50
 8594 027e 0E000000 		.4byte	.LFE21
 8595 0282 0400     		.2byte	0x4
 8596 0284 F3       		.byte	0xf3
 8597 0285 01       		.uleb128 0x1
 8598 0286 50       		.byte	0x50
 8599 0287 9F       		.byte	0x9f
 8600 0288 00000000 		.4byte	0
 8601 028c 00000000 		.4byte	0
 8602              	.LLST19:
 8603 0290 00000000 		.4byte	.LVL48
 8604 0294 0A000000 		.4byte	.LVL49
 8605 0298 0100     		.2byte	0x1
 8606 029a 51       		.byte	0x51
 8607 029b 0A000000 		.4byte	.LVL49
 8608 029f 0E000000 		.4byte	.LFE21
 8609 02a3 0400     		.2byte	0x4
 8610 02a5 71       		.byte	0x71
 8611 02a6 00       		.sleb128 0
 8612 02a7 1F       		.byte	0x1f
ARM GAS  C:\Users\haske\AppData\Local\Temp\ccswauRt.s 			page 177


 8613 02a8 9F       		.byte	0x9f
 8614 02a9 00000000 		.4byte	0
 8615 02ad 00000000 		.4byte	0
 8616              	.LLST20:
 8617 02b1 00000000 		.4byte	.LVL51
 8618 02b5 02000000 		.4byte	.LVL52
 8619 02b9 0100     		.2byte	0x1
 8620 02bb 50       		.byte	0x50
 8621 02bc 02000000 		.4byte	.LVL52
 8622 02c0 12000000 		.4byte	.LFE22
 8623 02c4 0400     		.2byte	0x4
 8624 02c6 F3       		.byte	0xf3
 8625 02c7 01       		.uleb128 0x1
 8626 02c8 50       		.byte	0x50
 8627 02c9 9F       		.byte	0x9f
 8628 02ca 00000000 		.4byte	0
 8629 02ce 00000000 		.4byte	0
 8630              	.LLST21:
 8631 02d2 00000000 		.4byte	.LVL54
 8632 02d6 09000000 		.4byte	.LVL56-1
 8633 02da 0100     		.2byte	0x1
 8634 02dc 50       		.byte	0x50
 8635 02dd 09000000 		.4byte	.LVL56-1
 8636 02e1 18000000 		.4byte	.LVL58
 8637 02e5 0400     		.2byte	0x4
 8638 02e7 F3       		.byte	0xf3
 8639 02e8 01       		.uleb128 0x1
 8640 02e9 50       		.byte	0x50
 8641 02ea 9F       		.byte	0x9f
 8642 02eb 18000000 		.4byte	.LVL58
 8643 02ef 1A000000 		.4byte	.LVL59
 8644 02f3 0100     		.2byte	0x1
 8645 02f5 50       		.byte	0x50
 8646 02f6 1A000000 		.4byte	.LVL59
 8647 02fa 24000000 		.4byte	.LFE23
 8648 02fe 0400     		.2byte	0x4
 8649 0300 F3       		.byte	0xf3
 8650 0301 01       		.uleb128 0x1
 8651 0302 50       		.byte	0x50
 8652 0303 9F       		.byte	0x9f
 8653 0304 00000000 		.4byte	0
 8654 0308 00000000 		.4byte	0
 8655              	.LLST22:
 8656 030c 00000000 		.4byte	.LVL54
 8657 0310 09000000 		.4byte	.LVL56-1
 8658 0314 0100     		.2byte	0x1
 8659 0316 51       		.byte	0x51
 8660 0317 09000000 		.4byte	.LVL56-1
 8661 031b 18000000 		.4byte	.LVL58
 8662 031f 0400     		.2byte	0x4
 8663 0321 F3       		.byte	0xf3
 8664 0322 01       		.uleb128 0x1
 8665 0323 51       		.byte	0x51
 8666 0324 9F       		.byte	0x9f
 8667 0325 18000000 		.4byte	.LVL58
 8668 0329 1C000000 		.4byte	.LVL60
 8669 032d 0100     		.2byte	0x1
ARM GAS  C:\Users\haske\AppData\Local\Temp\ccswauRt.s 			page 178


 8670 032f 51       		.byte	0x51
 8671 0330 1C000000 		.4byte	.LVL60
 8672 0334 24000000 		.4byte	.LFE23
 8673 0338 0400     		.2byte	0x4
 8674 033a F3       		.byte	0xf3
 8675 033b 01       		.uleb128 0x1
 8676 033c 51       		.byte	0x51
 8677 033d 9F       		.byte	0x9f
 8678 033e 00000000 		.4byte	0
 8679 0342 00000000 		.4byte	0
 8680              	.LLST23:
 8681 0346 02000000 		.4byte	.LVL55
 8682 034a 1E000000 		.4byte	.LVL61
 8683 034e 0200     		.2byte	0x2
 8684 0350 30       		.byte	0x30
 8685 0351 9F       		.byte	0x9f
 8686 0352 1E000000 		.4byte	.LVL61
 8687 0356 24000000 		.4byte	.LFE23
 8688 035a 0100     		.2byte	0x1
 8689 035c 50       		.byte	0x50
 8690 035d 00000000 		.4byte	0
 8691 0361 00000000 		.4byte	0
 8692              	.LLST24:
 8693 0365 0A000000 		.4byte	.LVL56
 8694 0369 16000000 		.4byte	.LVL57
 8695 036d 0100     		.2byte	0x1
 8696 036f 50       		.byte	0x50
 8697 0370 1C000000 		.4byte	.LVL60
 8698 0374 1E000000 		.4byte	.LVL61
 8699 0378 0100     		.2byte	0x1
 8700 037a 50       		.byte	0x50
 8701 037b 00000000 		.4byte	0
 8702 037f 00000000 		.4byte	0
 8703              	.LLST25:
 8704 0383 00000000 		.4byte	.LVL62
 8705 0387 28000000 		.4byte	.LVL66
 8706 038b 0100     		.2byte	0x1
 8707 038d 51       		.byte	0x51
 8708 038e 28000000 		.4byte	.LVL66
 8709 0392 54000000 		.4byte	.LFE27
 8710 0396 0400     		.2byte	0x4
 8711 0398 F3       		.byte	0xf3
 8712 0399 01       		.uleb128 0x1
 8713 039a 51       		.byte	0x51
 8714 039b 9F       		.byte	0x9f
 8715 039c 00000000 		.4byte	0
 8716 03a0 00000000 		.4byte	0
 8717              	.LLST26:
 8718 03a4 00000000 		.4byte	.LVL62
 8719 03a8 4E000000 		.4byte	.LVL68
 8720 03ac 0100     		.2byte	0x1
 8721 03ae 52       		.byte	0x52
 8722 03af 4E000000 		.4byte	.LVL68
 8723 03b3 54000000 		.4byte	.LFE27
 8724 03b7 0400     		.2byte	0x4
 8725 03b9 F3       		.byte	0xf3
 8726 03ba 01       		.uleb128 0x1
ARM GAS  C:\Users\haske\AppData\Local\Temp\ccswauRt.s 			page 179


 8727 03bb 52       		.byte	0x52
 8728 03bc 9F       		.byte	0x9f
 8729 03bd 00000000 		.4byte	0
 8730 03c1 00000000 		.4byte	0
 8731              	.LLST27:
 8732 03c5 00000000 		.4byte	.LVL62
 8733 03c9 3C000000 		.4byte	.LVL67
 8734 03cd 0100     		.2byte	0x1
 8735 03cf 53       		.byte	0x53
 8736 03d0 3C000000 		.4byte	.LVL67
 8737 03d4 54000000 		.4byte	.LFE27
 8738 03d8 0400     		.2byte	0x4
 8739 03da F3       		.byte	0xf3
 8740 03db 01       		.uleb128 0x1
 8741 03dc 53       		.byte	0x53
 8742 03dd 9F       		.byte	0x9f
 8743 03de 00000000 		.4byte	0
 8744 03e2 00000000 		.4byte	0
 8745              	.LLST28:
 8746 03e6 04000000 		.4byte	.LVL63
 8747 03ea 18000000 		.4byte	.LVL65
 8748 03ee 0100     		.2byte	0x1
 8749 03f0 54       		.byte	0x54
 8750 03f1 00000000 		.4byte	0
 8751 03f5 00000000 		.4byte	0
 8752              	.LLST29:
 8753 03f9 06000000 		.4byte	.LVL64
 8754 03fd 52000000 		.4byte	.LVL69
 8755 0401 0100     		.2byte	0x1
 8756 0403 55       		.byte	0x55
 8757 0404 00000000 		.4byte	0
 8758 0408 00000000 		.4byte	0
 8759              	.LLST30:
 8760 040c 00000000 		.4byte	.LVL70
 8761 0410 2C000000 		.4byte	.LVL73
 8762 0414 0100     		.2byte	0x1
 8763 0416 50       		.byte	0x50
 8764 0417 2C000000 		.4byte	.LVL73
 8765 041b 6A000000 		.4byte	.LVL77
 8766 041f 0100     		.2byte	0x1
 8767 0421 55       		.byte	0x55
 8768 0422 6A000000 		.4byte	.LVL77
 8769 0426 6C000000 		.4byte	.LFE28
 8770 042a 0400     		.2byte	0x4
 8771 042c F3       		.byte	0xf3
 8772 042d 01       		.uleb128 0x1
 8773 042e 50       		.byte	0x50
 8774 042f 9F       		.byte	0x9f
 8775 0430 00000000 		.4byte	0
 8776 0434 00000000 		.4byte	0
 8777              	.LLST31:
 8778 0438 00000000 		.4byte	.LVL70
 8779 043c 2F000000 		.4byte	.LVL74-1
 8780 0440 0100     		.2byte	0x1
 8781 0442 51       		.byte	0x51
 8782 0443 2F000000 		.4byte	.LVL74-1
 8783 0447 6A000000 		.4byte	.LVL78
ARM GAS  C:\Users\haske\AppData\Local\Temp\ccswauRt.s 			page 180


 8784 044b 0100     		.2byte	0x1
 8785 044d 56       		.byte	0x56
 8786 044e 6A000000 		.4byte	.LVL78
 8787 0452 6C000000 		.4byte	.LFE28
 8788 0456 0400     		.2byte	0x4
 8789 0458 F3       		.byte	0xf3
 8790 0459 01       		.uleb128 0x1
 8791 045a 51       		.byte	0x51
 8792 045b 9F       		.byte	0x9f
 8793 045c 00000000 		.4byte	0
 8794 0460 00000000 		.4byte	0
 8795              	.LLST32:
 8796 0464 00000000 		.4byte	.LVL70
 8797 0468 2F000000 		.4byte	.LVL74-1
 8798 046c 0100     		.2byte	0x1
 8799 046e 52       		.byte	0x52
 8800 046f 2F000000 		.4byte	.LVL74-1
 8801 0473 6A000000 		.4byte	.LVL76
 8802 0477 0100     		.2byte	0x1
 8803 0479 54       		.byte	0x54
 8804 047a 6A000000 		.4byte	.LVL76
 8805 047e 6C000000 		.4byte	.LFE28
 8806 0482 0400     		.2byte	0x4
 8807 0484 F3       		.byte	0xf3
 8808 0485 01       		.uleb128 0x1
 8809 0486 52       		.byte	0x52
 8810 0487 9F       		.byte	0x9f
 8811 0488 00000000 		.4byte	0
 8812 048c 00000000 		.4byte	0
 8813              	.LLST33:
 8814 0490 00000000 		.4byte	.LVL70
 8815 0494 0E000000 		.4byte	.LVL71
 8816 0498 0100     		.2byte	0x1
 8817 049a 53       		.byte	0x53
 8818 049b 0E000000 		.4byte	.LVL71
 8819 049f 6A000000 		.4byte	.LVL79
 8820 04a3 0100     		.2byte	0x1
 8821 04a5 57       		.byte	0x57
 8822 04a6 6A000000 		.4byte	.LVL79
 8823 04aa 6C000000 		.4byte	.LFE28
 8824 04ae 0400     		.2byte	0x4
 8825 04b0 F3       		.byte	0xf3
 8826 04b1 01       		.uleb128 0x1
 8827 04b2 53       		.byte	0x53
 8828 04b3 9F       		.byte	0x9f
 8829 04b4 00000000 		.4byte	0
 8830 04b8 00000000 		.4byte	0
 8831              	.LLST34:
 8832 04bc 18000000 		.4byte	.LVL72
 8833 04c0 2F000000 		.4byte	.LVL74-1
 8834 04c4 0100     		.2byte	0x1
 8835 04c6 53       		.byte	0x53
 8836 04c7 00000000 		.4byte	0
 8837 04cb 00000000 		.4byte	0
 8838              	.LLST35:
 8839 04cf 00000000 		.4byte	.LVL80
 8840 04d3 07000000 		.4byte	.LVL81-1
ARM GAS  C:\Users\haske\AppData\Local\Temp\ccswauRt.s 			page 181


 8841 04d7 0100     		.2byte	0x1
 8842 04d9 50       		.byte	0x50
 8843 04da 07000000 		.4byte	.LVL81-1
 8844 04de 14000000 		.4byte	.LFE31
 8845 04e2 0400     		.2byte	0x4
 8846 04e4 F3       		.byte	0xf3
 8847 04e5 01       		.uleb128 0x1
 8848 04e6 50       		.byte	0x50
 8849 04e7 9F       		.byte	0x9f
 8850 04e8 00000000 		.4byte	0
 8851 04ec 00000000 		.4byte	0
 8852              	.LLST36:
 8853 04f0 00000000 		.4byte	.LVL80
 8854 04f4 07000000 		.4byte	.LVL81-1
 8855 04f8 0100     		.2byte	0x1
 8856 04fa 51       		.byte	0x51
 8857 04fb 07000000 		.4byte	.LVL81-1
 8858 04ff 0A000000 		.4byte	.LVL82
 8859 0503 0100     		.2byte	0x1
 8860 0505 54       		.byte	0x54
 8861 0506 0A000000 		.4byte	.LVL82
 8862 050a 12000000 		.4byte	.LVL83
 8863 050e 0300     		.2byte	0x3
 8864 0510 74       		.byte	0x74
 8865 0511 70       		.sleb128 -16
 8866 0512 9F       		.byte	0x9f
 8867 0513 12000000 		.4byte	.LVL83
 8868 0517 14000000 		.4byte	.LFE31
 8869 051b 0400     		.2byte	0x4
 8870 051d F3       		.byte	0xf3
 8871 051e 01       		.uleb128 0x1
 8872 051f 51       		.byte	0x51
 8873 0520 9F       		.byte	0x9f
 8874 0521 00000000 		.4byte	0
 8875 0525 00000000 		.4byte	0
 8876              	.LLST37:
 8877 0529 00000000 		.4byte	.LVL84
 8878 052d 0B000000 		.4byte	.LVL85-1
 8879 0531 0100     		.2byte	0x1
 8880 0533 50       		.byte	0x50
 8881 0534 0B000000 		.4byte	.LVL85-1
 8882 0538 66000000 		.4byte	.LFE32
 8883 053c 0200     		.2byte	0x2
 8884 053e 91       		.byte	0x91
 8885 053f 64       		.sleb128 -28
 8886 0540 00000000 		.4byte	0
 8887 0544 00000000 		.4byte	0
 8888              	.LLST38:
 8889 0548 00000000 		.4byte	.LVL84
 8890 054c 0B000000 		.4byte	.LVL85-1
 8891 0550 0100     		.2byte	0x1
 8892 0552 51       		.byte	0x51
 8893 0553 0B000000 		.4byte	.LVL85-1
 8894 0557 64000000 		.4byte	.LVL98
 8895 055b 0100     		.2byte	0x1
 8896 055d 55       		.byte	0x55
 8897 055e 64000000 		.4byte	.LVL98
ARM GAS  C:\Users\haske\AppData\Local\Temp\ccswauRt.s 			page 182


 8898 0562 66000000 		.4byte	.LFE32
 8899 0566 0400     		.2byte	0x4
 8900 0568 F3       		.byte	0xf3
 8901 0569 01       		.uleb128 0x1
 8902 056a 51       		.byte	0x51
 8903 056b 9F       		.byte	0x9f
 8904 056c 00000000 		.4byte	0
 8905 0570 00000000 		.4byte	0
 8906              	.LLST39:
 8907 0574 14000000 		.4byte	.LVL87
 8908 0578 16000000 		.4byte	.LVL88
 8909 057c 0100     		.2byte	0x1
 8910 057e 50       		.byte	0x50
 8911 057f 16000000 		.4byte	.LVL88
 8912 0583 64000000 		.4byte	.LVL97
 8913 0587 0200     		.2byte	0x2
 8914 0589 7D       		.byte	0x7d
 8915 058a 00       		.sleb128 0
 8916 058b 64000000 		.4byte	.LVL97
 8917 058f 66000000 		.4byte	.LFE32
 8918 0593 0200     		.2byte	0x2
 8919 0595 91       		.byte	0x91
 8920 0596 60       		.sleb128 -32
 8921 0597 00000000 		.4byte	0
 8922 059b 00000000 		.4byte	0
 8923              	.LLST40:
 8924 059f 20000000 		.4byte	.LVL90
 8925 05a3 64000000 		.4byte	.LVL99
 8926 05a7 0100     		.2byte	0x1
 8927 05a9 56       		.byte	0x56
 8928 05aa 00000000 		.4byte	0
 8929 05ae 00000000 		.4byte	0
 8930              	.LLST41:
 8931 05b2 00000000 		.4byte	.LVL100
 8932 05b6 09000000 		.4byte	.LVL101-1
 8933 05ba 0100     		.2byte	0x1
 8934 05bc 50       		.byte	0x50
 8935 05bd 09000000 		.4byte	.LVL101-1
 8936 05c1 28000000 		.4byte	.LVL104
 8937 05c5 0100     		.2byte	0x1
 8938 05c7 54       		.byte	0x54
 8939 05c8 28000000 		.4byte	.LVL104
 8940 05cc 2A000000 		.4byte	.LFE33
 8941 05d0 0100     		.2byte	0x1
 8942 05d2 50       		.byte	0x50
 8943 05d3 00000000 		.4byte	0
 8944 05d7 00000000 		.4byte	0
 8945              	.LLST42:
 8946 05db 00000000 		.4byte	.LVL100
 8947 05df 09000000 		.4byte	.LVL101-1
 8948 05e3 0100     		.2byte	0x1
 8949 05e5 51       		.byte	0x51
 8950 05e6 09000000 		.4byte	.LVL101-1
 8951 05ea 28000000 		.4byte	.LVL105
 8952 05ee 0100     		.2byte	0x1
 8953 05f0 55       		.byte	0x55
 8954 05f1 28000000 		.4byte	.LVL105
ARM GAS  C:\Users\haske\AppData\Local\Temp\ccswauRt.s 			page 183


 8955 05f5 2A000000 		.4byte	.LFE33
 8956 05f9 0400     		.2byte	0x4
 8957 05fb F3       		.byte	0xf3
 8958 05fc 01       		.uleb128 0x1
 8959 05fd 51       		.byte	0x51
 8960 05fe 9F       		.byte	0x9f
 8961 05ff 00000000 		.4byte	0
 8962 0603 00000000 		.4byte	0
 8963              	.LLST43:
 8964 0607 0C000000 		.4byte	.LVL107
 8965 060b 10000000 		.4byte	.LVL108
 8966 060f 0200     		.2byte	0x2
 8967 0611 30       		.byte	0x30
 8968 0612 9F       		.byte	0x9f
 8969 0613 10000000 		.4byte	.LVL108
 8970 0617 36000000 		.4byte	.LFE41
 8971 061b 0100     		.2byte	0x1
 8972 061d 51       		.byte	0x51
 8973 061e 00000000 		.4byte	0
 8974 0622 00000000 		.4byte	0
 8975              	.LLST44:
 8976 0626 1A000000 		.4byte	.LVL109
 8977 062a 1C000000 		.4byte	.LVL110
 8978 062e 0200     		.2byte	0x2
 8979 0630 30       		.byte	0x30
 8980 0631 9F       		.byte	0x9f
 8981 0632 1C000000 		.4byte	.LVL110
 8982 0636 30000000 		.4byte	.LVL112
 8983 063a 0100     		.2byte	0x1
 8984 063c 52       		.byte	0x52
 8985 063d 00000000 		.4byte	0
 8986 0641 00000000 		.4byte	0
 8987              	.LLST45:
 8988 0645 00000000 		.4byte	.LVL113
 8989 0649 0B000000 		.4byte	.LVL114-1
 8990 064d 0100     		.2byte	0x1
 8991 064f 50       		.byte	0x50
 8992 0650 0B000000 		.4byte	.LVL114-1
 8993 0654 5E000000 		.4byte	.LFE42
 8994 0658 0400     		.2byte	0x4
 8995 065a F3       		.byte	0xf3
 8996 065b 01       		.uleb128 0x1
 8997 065c 50       		.byte	0x50
 8998 065d 9F       		.byte	0x9f
 8999 065e 00000000 		.4byte	0
 9000 0662 00000000 		.4byte	0
 9001              	.LLST46:
 9002 0666 00000000 		.4byte	.LVL113
 9003 066a 0B000000 		.4byte	.LVL114-1
 9004 066e 0100     		.2byte	0x1
 9005 0670 51       		.byte	0x51
 9006 0671 0B000000 		.4byte	.LVL114-1
 9007 0675 5C000000 		.4byte	.LVL126
 9008 0679 0100     		.2byte	0x1
 9009 067b 56       		.byte	0x56
 9010 067c 5C000000 		.4byte	.LVL126
 9011 0680 5E000000 		.4byte	.LFE42
ARM GAS  C:\Users\haske\AppData\Local\Temp\ccswauRt.s 			page 184


 9012 0684 0400     		.2byte	0x4
 9013 0686 F3       		.byte	0xf3
 9014 0687 01       		.uleb128 0x1
 9015 0688 51       		.byte	0x51
 9016 0689 9F       		.byte	0x9f
 9017 068a 00000000 		.4byte	0
 9018 068e 00000000 		.4byte	0
 9019              	.LLST47:
 9020 0692 00000000 		.4byte	.LVL113
 9021 0696 0B000000 		.4byte	.LVL114-1
 9022 069a 0100     		.2byte	0x1
 9023 069c 52       		.byte	0x52
 9024 069d 0B000000 		.4byte	.LVL114-1
 9025 06a1 5E000000 		.4byte	.LFE42
 9026 06a5 0400     		.2byte	0x4
 9027 06a7 F3       		.byte	0xf3
 9028 06a8 01       		.uleb128 0x1
 9029 06a9 52       		.byte	0x52
 9030 06aa 9F       		.byte	0x9f
 9031 06ab 00000000 		.4byte	0
 9032 06af 00000000 		.4byte	0
 9033              	.LLST48:
 9034 06b3 00000000 		.4byte	.LVL113
 9035 06b7 0B000000 		.4byte	.LVL114-1
 9036 06bb 0100     		.2byte	0x1
 9037 06bd 53       		.byte	0x53
 9038 06be 0B000000 		.4byte	.LVL114-1
 9039 06c2 5C000000 		.4byte	.LVL127
 9040 06c6 0100     		.2byte	0x1
 9041 06c8 57       		.byte	0x57
 9042 06c9 5C000000 		.4byte	.LVL127
 9043 06cd 5E000000 		.4byte	.LFE42
 9044 06d1 0400     		.2byte	0x4
 9045 06d3 F3       		.byte	0xf3
 9046 06d4 01       		.uleb128 0x1
 9047 06d5 53       		.byte	0x53
 9048 06d6 9F       		.byte	0x9f
 9049 06d7 00000000 		.4byte	0
 9050 06db 00000000 		.4byte	0
 9051              	.LLST49:
 9052 06df 0E000000 		.4byte	.LVL115
 9053 06e3 11000000 		.4byte	.LVL116-1
 9054 06e7 0100     		.2byte	0x1
 9055 06e9 50       		.byte	0x50
 9056 06ea 11000000 		.4byte	.LVL116-1
 9057 06ee 2A000000 		.4byte	.LVL119
 9058 06f2 0100     		.2byte	0x1
 9059 06f4 55       		.byte	0x55
 9060 06f5 2A000000 		.4byte	.LVL119
 9061 06f9 5E000000 		.4byte	.LFE42
 9062 06fd 0200     		.2byte	0x2
 9063 06ff 91       		.byte	0x91
 9064 0700 64       		.sleb128 -28
 9065 0701 00000000 		.4byte	0
 9066 0705 00000000 		.4byte	0
 9067              	.LLST50:
 9068 0709 0E000000 		.4byte	.LVL115
ARM GAS  C:\Users\haske\AppData\Local\Temp\ccswauRt.s 			page 185


 9069 070d 5C000000 		.4byte	.LVL127
 9070 0711 0100     		.2byte	0x1
 9071 0713 57       		.byte	0x57
 9072 0714 5C000000 		.4byte	.LVL127
 9073 0718 5E000000 		.4byte	.LFE42
 9074 071c 0400     		.2byte	0x4
 9075 071e F3       		.byte	0xf3
 9076 071f 01       		.uleb128 0x1
 9077 0720 53       		.byte	0x53
 9078 0721 9F       		.byte	0x9f
 9079 0722 00000000 		.4byte	0
 9080 0726 00000000 		.4byte	0
 9081              	.LLST51:
 9082 072a 1A000000 		.4byte	.LVL117
 9083 072e 5C000000 		.4byte	.LVL124
 9084 0732 0100     		.2byte	0x1
 9085 0734 54       		.byte	0x54
 9086 0735 00000000 		.4byte	0
 9087 0739 00000000 		.4byte	0
 9088              	.LLST52:
 9089 073d 2A000000 		.4byte	.LVL119
 9090 0741 5C000000 		.4byte	.LVL125
 9091 0745 0100     		.2byte	0x1
 9092 0747 55       		.byte	0x55
 9093 0748 5C000000 		.4byte	.LVL125
 9094 074c 5C000000 		.4byte	.LVL127
 9095 0750 0200     		.2byte	0x2
 9096 0752 77       		.byte	0x77
 9097 0753 00       		.sleb128 0
 9098 0754 5C000000 		.4byte	.LVL127
 9099 0758 5E000000 		.4byte	.LFE42
 9100 075c 0300     		.2byte	0x3
 9101 075e F3       		.byte	0xf3
 9102 075f 01       		.uleb128 0x1
 9103 0760 53       		.byte	0x53
 9104 0761 00000000 		.4byte	0
 9105 0765 00000000 		.4byte	0
 9106              	.LLST53:
 9107 0769 30000000 		.4byte	.LVL120
 9108 076d 44000000 		.4byte	.LVL121
 9109 0771 0200     		.2byte	0x2
 9110 0773 30       		.byte	0x30
 9111 0774 9F       		.byte	0x9f
 9112 0775 44000000 		.4byte	.LVL121
 9113 0779 58000000 		.4byte	.LVL123
 9114 077d 0100     		.2byte	0x1
 9115 077f 53       		.byte	0x53
 9116 0780 00000000 		.4byte	0
 9117 0784 00000000 		.4byte	0
 9118              	.LLST54:
 9119 0788 00000000 		.4byte	.LVL129
 9120 078c 09000000 		.4byte	.LVL130-1
 9121 0790 0100     		.2byte	0x1
 9122 0792 50       		.byte	0x50
 9123 0793 09000000 		.4byte	.LVL130-1
 9124 0797 10000000 		.4byte	.LVL131
 9125 079b 0400     		.2byte	0x4
ARM GAS  C:\Users\haske\AppData\Local\Temp\ccswauRt.s 			page 186


 9126 079d F3       		.byte	0xf3
 9127 079e 01       		.uleb128 0x1
 9128 079f 50       		.byte	0x50
 9129 07a0 9F       		.byte	0x9f
 9130 07a1 10000000 		.4byte	.LVL131
 9131 07a5 12000000 		.4byte	.LVL132
 9132 07a9 0100     		.2byte	0x1
 9133 07ab 50       		.byte	0x50
 9134 07ac 12000000 		.4byte	.LVL132
 9135 07b0 16000000 		.4byte	.LFE2
 9136 07b4 0400     		.2byte	0x4
 9137 07b6 F3       		.byte	0xf3
 9138 07b7 01       		.uleb128 0x1
 9139 07b8 50       		.byte	0x50
 9140 07b9 9F       		.byte	0x9f
 9141 07ba 00000000 		.4byte	0
 9142 07be 00000000 		.4byte	0
 9143              	.LLST55:
 9144 07c2 12000000 		.4byte	.LVL132
 9145 07c6 14000000 		.4byte	.LVL133
 9146 07ca 0100     		.2byte	0x1
 9147 07cc 50       		.byte	0x50
 9148 07cd 14000000 		.4byte	.LVL133
 9149 07d1 16000000 		.4byte	.LFE2
 9150 07d5 0300     		.2byte	0x3
 9151 07d7 70       		.byte	0x70
 9152 07d8 01       		.sleb128 1
 9153 07d9 9F       		.byte	0x9f
 9154 07da 00000000 		.4byte	0
 9155 07de 00000000 		.4byte	0
 9156              	.LLST56:
 9157 07e2 00000000 		.4byte	.LVL134
 9158 07e6 18000000 		.4byte	.LVL138
 9159 07ea 0100     		.2byte	0x1
 9160 07ec 50       		.byte	0x50
 9161 07ed 18000000 		.4byte	.LVL138
 9162 07f1 1A000000 		.4byte	.LVL139
 9163 07f5 0400     		.2byte	0x4
 9164 07f7 F3       		.byte	0xf3
 9165 07f8 01       		.uleb128 0x1
 9166 07f9 50       		.byte	0x50
 9167 07fa 9F       		.byte	0x9f
 9168 07fb 1A000000 		.4byte	.LVL139
 9169 07ff 1D000000 		.4byte	.LVL140-1
 9170 0803 0100     		.2byte	0x1
 9171 0805 50       		.byte	0x50
 9172 0806 1D000000 		.4byte	.LVL140-1
 9173 080a 22000000 		.4byte	.LVL141
 9174 080e 0100     		.2byte	0x1
 9175 0810 54       		.byte	0x54
 9176 0811 22000000 		.4byte	.LVL141
 9177 0815 2E000000 		.4byte	.LFE24
 9178 0819 0400     		.2byte	0x4
 9179 081b F3       		.byte	0xf3
 9180 081c 01       		.uleb128 0x1
 9181 081d 50       		.byte	0x50
 9182 081e 9F       		.byte	0x9f
ARM GAS  C:\Users\haske\AppData\Local\Temp\ccswauRt.s 			page 187


 9183 081f 00000000 		.4byte	0
 9184 0823 00000000 		.4byte	0
 9185              	.LLST57:
 9186 0827 00000000 		.4byte	.LVL134
 9187 082b 1D000000 		.4byte	.LVL140-1
 9188 082f 0100     		.2byte	0x1
 9189 0831 51       		.byte	0x51
 9190 0832 1D000000 		.4byte	.LVL140-1
 9191 0836 2C000000 		.4byte	.LVL146
 9192 083a 0100     		.2byte	0x1
 9193 083c 56       		.byte	0x56
 9194 083d 2C000000 		.4byte	.LVL146
 9195 0841 2E000000 		.4byte	.LFE24
 9196 0845 0400     		.2byte	0x4
 9197 0847 F3       		.byte	0xf3
 9198 0848 01       		.uleb128 0x1
 9199 0849 51       		.byte	0x51
 9200 084a 9F       		.byte	0x9f
 9201 084b 00000000 		.4byte	0
 9202 084f 00000000 		.4byte	0
 9203              	.LLST58:
 9204 0853 00000000 		.4byte	.LVL134
 9205 0857 10000000 		.4byte	.LVL136
 9206 085b 0100     		.2byte	0x1
 9207 085d 52       		.byte	0x52
 9208 085e 10000000 		.4byte	.LVL136
 9209 0862 1A000000 		.4byte	.LVL139
 9210 0866 0100     		.2byte	0x1
 9211 0868 55       		.byte	0x55
 9212 0869 1A000000 		.4byte	.LVL139
 9213 086d 1D000000 		.4byte	.LVL140-1
 9214 0871 0100     		.2byte	0x1
 9215 0873 52       		.byte	0x52
 9216 0874 1D000000 		.4byte	.LVL140-1
 9217 0878 2C000000 		.4byte	.LVL145
 9218 087c 0100     		.2byte	0x1
 9219 087e 55       		.byte	0x55
 9220 087f 2C000000 		.4byte	.LVL145
 9221 0883 2E000000 		.4byte	.LFE24
 9222 0887 0400     		.2byte	0x4
 9223 0889 F3       		.byte	0xf3
 9224 088a 01       		.uleb128 0x1
 9225 088b 52       		.byte	0x52
 9226 088c 9F       		.byte	0x9f
 9227 088d 00000000 		.4byte	0
 9228 0891 00000000 		.4byte	0
 9229              	.LLST59:
 9230 0895 0C000000 		.4byte	.LVL135
 9231 0899 1A000000 		.4byte	.LVL139
 9232 089d 0200     		.2byte	0x2
 9233 089f 30       		.byte	0x30
 9234 08a0 9F       		.byte	0x9f
 9235 08a1 1E000000 		.4byte	.LVL140
 9236 08a5 2E000000 		.4byte	.LFE24
 9237 08a9 0100     		.2byte	0x1
 9238 08ab 50       		.byte	0x50
 9239 08ac 00000000 		.4byte	0
ARM GAS  C:\Users\haske\AppData\Local\Temp\ccswauRt.s 			page 188


 9240 08b0 00000000 		.4byte	0
 9241              	.LLST60:
 9242 08b4 16000000 		.4byte	.LVL137
 9243 08b8 1A000000 		.4byte	.LVL139
 9244 08bc 0100     		.2byte	0x1
 9245 08be 54       		.byte	0x54
 9246 08bf 26000000 		.4byte	.LVL142
 9247 08c3 2C000000 		.4byte	.LVL144
 9248 08c7 0100     		.2byte	0x1
 9249 08c9 54       		.byte	0x54
 9250 08ca 2C000000 		.4byte	.LVL144
 9251 08ce 2C000000 		.4byte	.LVL145
 9252 08d2 0200     		.2byte	0x2
 9253 08d4 75       		.byte	0x75
 9254 08d5 00       		.sleb128 0
 9255 08d6 2C000000 		.4byte	.LVL145
 9256 08da 2E000000 		.4byte	.LFE24
 9257 08de 0300     		.2byte	0x3
 9258 08e0 F3       		.byte	0xf3
 9259 08e1 01       		.uleb128 0x1
 9260 08e2 52       		.byte	0x52
 9261 08e3 00000000 		.4byte	0
 9262 08e7 00000000 		.4byte	0
 9263              	.LLST61:
 9264 08eb 00000000 		.4byte	.LVL147
 9265 08ef 0A000000 		.4byte	.LVL148
 9266 08f3 0100     		.2byte	0x1
 9267 08f5 50       		.byte	0x50
 9268 08f6 0A000000 		.4byte	.LVL148
 9269 08fa 24000000 		.4byte	.LVL153
 9270 08fe 0100     		.2byte	0x1
 9271 0900 55       		.byte	0x55
 9272 0901 24000000 		.4byte	.LVL153
 9273 0905 26000000 		.4byte	.LFE30
 9274 0909 0400     		.2byte	0x4
 9275 090b F3       		.byte	0xf3
 9276 090c 01       		.uleb128 0x1
 9277 090d 50       		.byte	0x50
 9278 090e 9F       		.byte	0x9f
 9279 090f 00000000 		.4byte	0
 9280 0913 00000000 		.4byte	0
 9281              	.LLST62:
 9282 0917 00000000 		.4byte	.LVL147
 9283 091b 0D000000 		.4byte	.LVL149-1
 9284 091f 0100     		.2byte	0x1
 9285 0921 51       		.byte	0x51
 9286 0922 0D000000 		.4byte	.LVL149-1
 9287 0926 24000000 		.4byte	.LVL152
 9288 092a 0100     		.2byte	0x1
 9289 092c 54       		.byte	0x54
 9290 092d 24000000 		.4byte	.LVL152
 9291 0931 26000000 		.4byte	.LFE30
 9292 0935 0400     		.2byte	0x4
 9293 0937 F3       		.byte	0xf3
 9294 0938 01       		.uleb128 0x1
 9295 0939 51       		.byte	0x51
 9296 093a 9F       		.byte	0x9f
ARM GAS  C:\Users\haske\AppData\Local\Temp\ccswauRt.s 			page 189


 9297 093b 00000000 		.4byte	0
 9298 093f 00000000 		.4byte	0
 9299              	.LLST63:
 9300 0943 00000000 		.4byte	.LVL154
 9301 0947 0A000000 		.4byte	.LVL155
 9302 094b 0100     		.2byte	0x1
 9303 094d 50       		.byte	0x50
 9304 094e 0A000000 		.4byte	.LVL155
 9305 0952 3E000000 		.4byte	.LVL165
 9306 0956 0100     		.2byte	0x1
 9307 0958 56       		.byte	0x56
 9308 0959 3E000000 		.4byte	.LVL165
 9309 095d 40000000 		.4byte	.LFE36
 9310 0961 0400     		.2byte	0x4
 9311 0963 F3       		.byte	0xf3
 9312 0964 01       		.uleb128 0x1
 9313 0965 50       		.byte	0x50
 9314 0966 9F       		.byte	0x9f
 9315 0967 00000000 		.4byte	0
 9316 096b 00000000 		.4byte	0
 9317              	.LLST64:
 9318 096f 00000000 		.4byte	.LVL154
 9319 0973 0D000000 		.4byte	.LVL156-1
 9320 0977 0100     		.2byte	0x1
 9321 0979 51       		.byte	0x51
 9322 097a 0D000000 		.4byte	.LVL156-1
 9323 097e 3E000000 		.4byte	.LVL164
 9324 0982 0100     		.2byte	0x1
 9325 0984 54       		.byte	0x54
 9326 0985 3E000000 		.4byte	.LVL164
 9327 0989 40000000 		.4byte	.LFE36
 9328 098d 0400     		.2byte	0x4
 9329 098f F3       		.byte	0xf3
 9330 0990 01       		.uleb128 0x1
 9331 0991 51       		.byte	0x51
 9332 0992 9F       		.byte	0x9f
 9333 0993 00000000 		.4byte	0
 9334 0997 00000000 		.4byte	0
 9335              	.LLST65:
 9336 099b 00000000 		.4byte	.LVL154
 9337 099f 0D000000 		.4byte	.LVL156-1
 9338 09a3 0100     		.2byte	0x1
 9339 09a5 52       		.byte	0x52
 9340 09a6 0D000000 		.4byte	.LVL156-1
 9341 09aa 2A000000 		.4byte	.LVL159
 9342 09ae 0100     		.2byte	0x1
 9343 09b0 55       		.byte	0x55
 9344 09b1 2A000000 		.4byte	.LVL159
 9345 09b5 40000000 		.4byte	.LFE36
 9346 09b9 0400     		.2byte	0x4
 9347 09bb F3       		.byte	0xf3
 9348 09bc 01       		.uleb128 0x1
 9349 09bd 52       		.byte	0x52
 9350 09be 9F       		.byte	0x9f
 9351 09bf 00000000 		.4byte	0
 9352 09c3 00000000 		.4byte	0
 9353              	.LLST66:
ARM GAS  C:\Users\haske\AppData\Local\Temp\ccswauRt.s 			page 190


 9354 09c7 2A000000 		.4byte	.LVL159
 9355 09cb 2C000000 		.4byte	.LVL160
 9356 09cf 0100     		.2byte	0x1
 9357 09d1 50       		.byte	0x50
 9358 09d2 2C000000 		.4byte	.LVL160
 9359 09d6 3E000000 		.4byte	.LVL163
 9360 09da 0100     		.2byte	0x1
 9361 09dc 55       		.byte	0x55
 9362 09dd 00000000 		.4byte	0
 9363 09e1 00000000 		.4byte	0
 9364              	.LLST67:
 9365 09e5 00000000 		.4byte	.LVL166
 9366 09e9 0F000000 		.4byte	.LVL168-1
 9367 09ed 0100     		.2byte	0x1
 9368 09ef 50       		.byte	0x50
 9369 09f0 0F000000 		.4byte	.LVL168-1
 9370 09f4 1E000000 		.4byte	.LVL171
 9371 09f8 0400     		.2byte	0x4
 9372 09fa F3       		.byte	0xf3
 9373 09fb 01       		.uleb128 0x1
 9374 09fc 50       		.byte	0x50
 9375 09fd 9F       		.byte	0x9f
 9376 09fe 1E000000 		.4byte	.LVL171
 9377 0a02 20000000 		.4byte	.LVL172
 9378 0a06 0100     		.2byte	0x1
 9379 0a08 50       		.byte	0x50
 9380 0a09 20000000 		.4byte	.LVL172
 9381 0a0d 22000000 		.4byte	.LFE40
 9382 0a11 0400     		.2byte	0x4
 9383 0a13 F3       		.byte	0xf3
 9384 0a14 01       		.uleb128 0x1
 9385 0a15 50       		.byte	0x50
 9386 0a16 9F       		.byte	0x9f
 9387 0a17 00000000 		.4byte	0
 9388 0a1b 00000000 		.4byte	0
 9389              	.LLST68:
 9390 0a1f 00000000 		.4byte	.LVL166
 9391 0a23 0F000000 		.4byte	.LVL168-1
 9392 0a27 0100     		.2byte	0x1
 9393 0a29 51       		.byte	0x51
 9394 0a2a 0F000000 		.4byte	.LVL168-1
 9395 0a2e 1E000000 		.4byte	.LVL171
 9396 0a32 0100     		.2byte	0x1
 9397 0a34 54       		.byte	0x54
 9398 0a35 1E000000 		.4byte	.LVL171
 9399 0a39 20000000 		.4byte	.LVL172
 9400 0a3d 0100     		.2byte	0x1
 9401 0a3f 51       		.byte	0x51
 9402 0a40 20000000 		.4byte	.LVL172
 9403 0a44 20000000 		.4byte	.LVL173
 9404 0a48 0100     		.2byte	0x1
 9405 0a4a 54       		.byte	0x54
 9406 0a4b 20000000 		.4byte	.LVL173
 9407 0a4f 22000000 		.4byte	.LFE40
 9408 0a53 0400     		.2byte	0x4
 9409 0a55 F3       		.byte	0xf3
 9410 0a56 01       		.uleb128 0x1
ARM GAS  C:\Users\haske\AppData\Local\Temp\ccswauRt.s 			page 191


 9411 0a57 51       		.byte	0x51
 9412 0a58 9F       		.byte	0x9f
 9413 0a59 00000000 		.4byte	0
 9414 0a5d 00000000 		.4byte	0
 9415              	.LLST69:
 9416 0a61 00000000 		.4byte	.LVL166
 9417 0a65 0F000000 		.4byte	.LVL168-1
 9418 0a69 0100     		.2byte	0x1
 9419 0a6b 52       		.byte	0x52
 9420 0a6c 0F000000 		.4byte	.LVL168-1
 9421 0a70 1E000000 		.4byte	.LVL171
 9422 0a74 0400     		.2byte	0x4
 9423 0a76 F3       		.byte	0xf3
 9424 0a77 01       		.uleb128 0x1
 9425 0a78 52       		.byte	0x52
 9426 0a79 9F       		.byte	0x9f
 9427 0a7a 1E000000 		.4byte	.LVL171
 9428 0a7e 20000000 		.4byte	.LVL172
 9429 0a82 0100     		.2byte	0x1
 9430 0a84 52       		.byte	0x52
 9431 0a85 20000000 		.4byte	.LVL172
 9432 0a89 22000000 		.4byte	.LFE40
 9433 0a8d 0400     		.2byte	0x4
 9434 0a8f F3       		.byte	0xf3
 9435 0a90 01       		.uleb128 0x1
 9436 0a91 52       		.byte	0x52
 9437 0a92 9F       		.byte	0x9f
 9438 0a93 00000000 		.4byte	0
 9439 0a97 00000000 		.4byte	0
 9440              	.LLST70:
 9441 0a9b 04000000 		.4byte	.LVL167
 9442 0a9f 1C000000 		.4byte	.LVL170
 9443 0aa3 0200     		.2byte	0x2
 9444 0aa5 30       		.byte	0x30
 9445 0aa6 9F       		.byte	0x9f
 9446 0aa7 1C000000 		.4byte	.LVL170
 9447 0aab 1E000000 		.4byte	.LVL171
 9448 0aaf 0100     		.2byte	0x1
 9449 0ab1 50       		.byte	0x50
 9450 0ab2 1E000000 		.4byte	.LVL171
 9451 0ab6 20000000 		.4byte	.LVL172
 9452 0aba 0200     		.2byte	0x2
 9453 0abc 30       		.byte	0x30
 9454 0abd 9F       		.byte	0x9f
 9455 0abe 20000000 		.4byte	.LVL172
 9456 0ac2 22000000 		.4byte	.LFE40
 9457 0ac6 0100     		.2byte	0x1
 9458 0ac8 50       		.byte	0x50
 9459 0ac9 00000000 		.4byte	0
 9460 0acd 00000000 		.4byte	0
 9461              	.LLST71:
 9462 0ad1 00000000 		.4byte	.LVL174
 9463 0ad5 0C000000 		.4byte	.LVL177
 9464 0ad9 0100     		.2byte	0x1
 9465 0adb 50       		.byte	0x50
 9466 0adc 0C000000 		.4byte	.LVL177
 9467 0ae0 34000000 		.4byte	.LVL186
ARM GAS  C:\Users\haske\AppData\Local\Temp\ccswauRt.s 			page 192


 9468 0ae4 0100     		.2byte	0x1
 9469 0ae6 56       		.byte	0x56
 9470 0ae7 34000000 		.4byte	.LVL186
 9471 0aeb 36000000 		.4byte	.LFE38
 9472 0aef 0400     		.2byte	0x4
 9473 0af1 F3       		.byte	0xf3
 9474 0af2 01       		.uleb128 0x1
 9475 0af3 50       		.byte	0x50
 9476 0af4 9F       		.byte	0x9f
 9477 0af5 00000000 		.4byte	0
 9478 0af9 00000000 		.4byte	0
 9479              	.LLST72:
 9480 0afd 00000000 		.4byte	.LVL174
 9481 0b01 0A000000 		.4byte	.LVL176
 9482 0b05 0100     		.2byte	0x1
 9483 0b07 51       		.byte	0x51
 9484 0b08 0A000000 		.4byte	.LVL176
 9485 0b0c 32000000 		.4byte	.LVL184
 9486 0b10 0100     		.2byte	0x1
 9487 0b12 54       		.byte	0x54
 9488 0b13 32000000 		.4byte	.LVL184
 9489 0b17 36000000 		.4byte	.LFE38
 9490 0b1b 0400     		.2byte	0x4
 9491 0b1d F3       		.byte	0xf3
 9492 0b1e 01       		.uleb128 0x1
 9493 0b1f 51       		.byte	0x51
 9494 0b20 9F       		.byte	0x9f
 9495 0b21 00000000 		.4byte	0
 9496 0b25 00000000 		.4byte	0
 9497              	.LLST73:
 9498 0b29 00000000 		.4byte	.LVL174
 9499 0b2d 0F000000 		.4byte	.LVL178-1
 9500 0b31 0100     		.2byte	0x1
 9501 0b33 52       		.byte	0x52
 9502 0b34 0F000000 		.4byte	.LVL178-1
 9503 0b38 1E000000 		.4byte	.LVL180
 9504 0b3c 0100     		.2byte	0x1
 9505 0b3e 55       		.byte	0x55
 9506 0b3f 1E000000 		.4byte	.LVL180
 9507 0b43 36000000 		.4byte	.LFE38
 9508 0b47 0400     		.2byte	0x4
 9509 0b49 F3       		.byte	0xf3
 9510 0b4a 01       		.uleb128 0x1
 9511 0b4b 52       		.byte	0x52
 9512 0b4c 9F       		.byte	0x9f
 9513 0b4d 00000000 		.4byte	0
 9514 0b51 00000000 		.4byte	0
 9515              	.LLST74:
 9516 0b55 08000000 		.4byte	.LVL175
 9517 0b59 0A000000 		.4byte	.LVL176
 9518 0b5d 0100     		.2byte	0x1
 9519 0b5f 51       		.byte	0x51
 9520 0b60 0A000000 		.4byte	.LVL176
 9521 0b64 1E000000 		.4byte	.LVL180
 9522 0b68 0100     		.2byte	0x1
 9523 0b6a 54       		.byte	0x54
 9524 0b6b 1E000000 		.4byte	.LVL180
ARM GAS  C:\Users\haske\AppData\Local\Temp\ccswauRt.s 			page 193


 9525 0b6f 21000000 		.4byte	.LVL181-1
 9526 0b73 0100     		.2byte	0x1
 9527 0b75 50       		.byte	0x50
 9528 0b76 21000000 		.4byte	.LVL181-1
 9529 0b7a 32000000 		.4byte	.LVL184
 9530 0b7e 0100     		.2byte	0x1
 9531 0b80 55       		.byte	0x55
 9532 0b81 32000000 		.4byte	.LVL184
 9533 0b85 34000000 		.4byte	.LVL185
 9534 0b89 0100     		.2byte	0x1
 9535 0b8b 54       		.byte	0x54
 9536 0b8c 34000000 		.4byte	.LVL185
 9537 0b90 36000000 		.4byte	.LFE38
 9538 0b94 0100     		.2byte	0x1
 9539 0b96 50       		.byte	0x50
 9540 0b97 00000000 		.4byte	0
 9541 0b9b 00000000 		.4byte	0
 9542              	.LLST75:
 9543 0b9f 00000000 		.4byte	.LVL187
 9544 0ba3 0A000000 		.4byte	.LVL188
 9545 0ba7 0100     		.2byte	0x1
 9546 0ba9 50       		.byte	0x50
 9547 0baa 0A000000 		.4byte	.LVL188
 9548 0bae 24000000 		.4byte	.LVL193
 9549 0bb2 0100     		.2byte	0x1
 9550 0bb4 55       		.byte	0x55
 9551 0bb5 24000000 		.4byte	.LVL193
 9552 0bb9 26000000 		.4byte	.LFE29
 9553 0bbd 0400     		.2byte	0x4
 9554 0bbf F3       		.byte	0xf3
 9555 0bc0 01       		.uleb128 0x1
 9556 0bc1 50       		.byte	0x50
 9557 0bc2 9F       		.byte	0x9f
 9558 0bc3 00000000 		.4byte	0
 9559 0bc7 00000000 		.4byte	0
 9560              	.LLST76:
 9561 0bcb 00000000 		.4byte	.LVL187
 9562 0bcf 0D000000 		.4byte	.LVL189-1
 9563 0bd3 0100     		.2byte	0x1
 9564 0bd5 51       		.byte	0x51
 9565 0bd6 0D000000 		.4byte	.LVL189-1
 9566 0bda 24000000 		.4byte	.LVL192
 9567 0bde 0100     		.2byte	0x1
 9568 0be0 54       		.byte	0x54
 9569 0be1 24000000 		.4byte	.LVL192
 9570 0be5 26000000 		.4byte	.LFE29
 9571 0be9 0400     		.2byte	0x4
 9572 0beb F3       		.byte	0xf3
 9573 0bec 01       		.uleb128 0x1
 9574 0bed 51       		.byte	0x51
 9575 0bee 9F       		.byte	0x9f
 9576 0bef 00000000 		.4byte	0
 9577 0bf3 00000000 		.4byte	0
 9578              	.LLST77:
 9579 0bf7 00000000 		.4byte	.LVL194
 9580 0bfb 08000000 		.4byte	.LVL195
 9581 0bff 0100     		.2byte	0x1
ARM GAS  C:\Users\haske\AppData\Local\Temp\ccswauRt.s 			page 194


 9582 0c01 50       		.byte	0x50
 9583 0c02 08000000 		.4byte	.LVL195
 9584 0c06 3A000000 		.4byte	.LVL204
 9585 0c0a 0100     		.2byte	0x1
 9586 0c0c 56       		.byte	0x56
 9587 0c0d 3A000000 		.4byte	.LVL204
 9588 0c11 3C000000 		.4byte	.LFE34
 9589 0c15 0400     		.2byte	0x4
 9590 0c17 F3       		.byte	0xf3
 9591 0c18 01       		.uleb128 0x1
 9592 0c19 50       		.byte	0x50
 9593 0c1a 9F       		.byte	0x9f
 9594 0c1b 00000000 		.4byte	0
 9595 0c1f 00000000 		.4byte	0
 9596              	.LLST78:
 9597 0c23 00000000 		.4byte	.LVL194
 9598 0c27 0B000000 		.4byte	.LVL196-1
 9599 0c2b 0100     		.2byte	0x1
 9600 0c2d 51       		.byte	0x51
 9601 0c2e 0B000000 		.4byte	.LVL196-1
 9602 0c32 3A000000 		.4byte	.LVL203
 9603 0c36 0100     		.2byte	0x1
 9604 0c38 54       		.byte	0x54
 9605 0c39 3A000000 		.4byte	.LVL203
 9606 0c3d 3C000000 		.4byte	.LFE34
 9607 0c41 0100     		.2byte	0x1
 9608 0c43 50       		.byte	0x50
 9609 0c44 00000000 		.4byte	0
 9610 0c48 00000000 		.4byte	0
 9611              	.LLST79:
 9612 0c4c 18000000 		.4byte	.LVL198
 9613 0c50 1F000000 		.4byte	.LVL199-1
 9614 0c54 0100     		.2byte	0x1
 9615 0c56 50       		.byte	0x50
 9616 0c57 1F000000 		.4byte	.LVL199-1
 9617 0c5b 38000000 		.4byte	.LVL202
 9618 0c5f 0100     		.2byte	0x1
 9619 0c61 55       		.byte	0x55
 9620 0c62 00000000 		.4byte	0
 9621 0c66 00000000 		.4byte	0
 9622              	.LLST80:
 9623 0c6a 00000000 		.4byte	.LVL205
 9624 0c6e 08000000 		.4byte	.LVL206
 9625 0c72 0100     		.2byte	0x1
 9626 0c74 50       		.byte	0x50
 9627 0c75 08000000 		.4byte	.LVL206
 9628 0c79 3A000000 		.4byte	.LVL216
 9629 0c7d 0100     		.2byte	0x1
 9630 0c7f 56       		.byte	0x56
 9631 0c80 3A000000 		.4byte	.LVL216
 9632 0c84 3C000000 		.4byte	.LFE35
 9633 0c88 0400     		.2byte	0x4
 9634 0c8a F3       		.byte	0xf3
 9635 0c8b 01       		.uleb128 0x1
 9636 0c8c 50       		.byte	0x50
 9637 0c8d 9F       		.byte	0x9f
 9638 0c8e 00000000 		.4byte	0
ARM GAS  C:\Users\haske\AppData\Local\Temp\ccswauRt.s 			page 195


 9639 0c92 00000000 		.4byte	0
 9640              	.LLST81:
 9641 0c96 00000000 		.4byte	.LVL205
 9642 0c9a 0B000000 		.4byte	.LVL207-1
 9643 0c9e 0100     		.2byte	0x1
 9644 0ca0 51       		.byte	0x51
 9645 0ca1 0B000000 		.4byte	.LVL207-1
 9646 0ca5 3A000000 		.4byte	.LVL214
 9647 0ca9 0100     		.2byte	0x1
 9648 0cab 54       		.byte	0x54
 9649 0cac 3A000000 		.4byte	.LVL214
 9650 0cb0 3C000000 		.4byte	.LFE35
 9651 0cb4 0100     		.2byte	0x1
 9652 0cb6 50       		.byte	0x50
 9653 0cb7 00000000 		.4byte	0
 9654 0cbb 00000000 		.4byte	0
 9655              	.LLST82:
 9656 0cbf 0E000000 		.4byte	.LVL208
 9657 0cc3 15000000 		.4byte	.LVL209-1
 9658 0cc7 0100     		.2byte	0x1
 9659 0cc9 50       		.byte	0x50
 9660 0cca 15000000 		.4byte	.LVL209-1
 9661 0cce 3A000000 		.4byte	.LVL215
 9662 0cd2 0100     		.2byte	0x1
 9663 0cd4 55       		.byte	0x55
 9664 0cd5 00000000 		.4byte	0
 9665 0cd9 00000000 		.4byte	0
 9666              	.LLST83:
 9667 0cdd 00000000 		.4byte	.LVL217
 9668 0ce1 0A000000 		.4byte	.LVL218
 9669 0ce5 0100     		.2byte	0x1
 9670 0ce7 50       		.byte	0x50
 9671 0ce8 0A000000 		.4byte	.LVL218
 9672 0cec 3E000000 		.4byte	.LVL228
 9673 0cf0 0100     		.2byte	0x1
 9674 0cf2 55       		.byte	0x55
 9675 0cf3 3E000000 		.4byte	.LVL228
 9676 0cf7 40000000 		.4byte	.LFE37
 9677 0cfb 0400     		.2byte	0x4
 9678 0cfd F3       		.byte	0xf3
 9679 0cfe 01       		.uleb128 0x1
 9680 0cff 50       		.byte	0x50
 9681 0d00 9F       		.byte	0x9f
 9682 0d01 00000000 		.4byte	0
 9683 0d05 00000000 		.4byte	0
 9684              	.LLST84:
 9685 0d09 00000000 		.4byte	.LVL217
 9686 0d0d 0D000000 		.4byte	.LVL219-1
 9687 0d11 0100     		.2byte	0x1
 9688 0d13 51       		.byte	0x51
 9689 0d14 0D000000 		.4byte	.LVL219-1
 9690 0d18 2A000000 		.4byte	.LVL222
 9691 0d1c 0100     		.2byte	0x1
 9692 0d1e 54       		.byte	0x54
 9693 0d1f 2A000000 		.4byte	.LVL222
 9694 0d23 40000000 		.4byte	.LFE37
 9695 0d27 0400     		.2byte	0x4
ARM GAS  C:\Users\haske\AppData\Local\Temp\ccswauRt.s 			page 196


 9696 0d29 F3       		.byte	0xf3
 9697 0d2a 01       		.uleb128 0x1
 9698 0d2b 51       		.byte	0x51
 9699 0d2c 9F       		.byte	0x9f
 9700 0d2d 00000000 		.4byte	0
 9701 0d31 00000000 		.4byte	0
 9702              	.LLST85:
 9703 0d35 00000000 		.4byte	.LVL217
 9704 0d39 0D000000 		.4byte	.LVL219-1
 9705 0d3d 0100     		.2byte	0x1
 9706 0d3f 52       		.byte	0x52
 9707 0d40 0D000000 		.4byte	.LVL219-1
 9708 0d44 3E000000 		.4byte	.LVL229
 9709 0d48 0100     		.2byte	0x1
 9710 0d4a 56       		.byte	0x56
 9711 0d4b 3E000000 		.4byte	.LVL229
 9712 0d4f 40000000 		.4byte	.LFE37
 9713 0d53 0400     		.2byte	0x4
 9714 0d55 F3       		.byte	0xf3
 9715 0d56 01       		.uleb128 0x1
 9716 0d57 52       		.byte	0x52
 9717 0d58 9F       		.byte	0x9f
 9718 0d59 00000000 		.4byte	0
 9719 0d5d 00000000 		.4byte	0
 9720              	.LLST86:
 9721 0d61 2A000000 		.4byte	.LVL222
 9722 0d65 2D000000 		.4byte	.LVL223-1
 9723 0d69 0100     		.2byte	0x1
 9724 0d6b 50       		.byte	0x50
 9725 0d6c 2D000000 		.4byte	.LVL223-1
 9726 0d70 38000000 		.4byte	.LVL225
 9727 0d74 0100     		.2byte	0x1
 9728 0d76 54       		.byte	0x54
 9729 0d77 38000000 		.4byte	.LVL225
 9730 0d7b 3A000000 		.4byte	.LVL226
 9731 0d7f 0100     		.2byte	0x1
 9732 0d81 50       		.byte	0x50
 9733 0d82 3A000000 		.4byte	.LVL226
 9734 0d86 3D000000 		.4byte	.LVL227-1
 9735 0d8a 0100     		.2byte	0x1
 9736 0d8c 51       		.byte	0x51
 9737 0d8d 00000000 		.4byte	0
 9738 0d91 00000000 		.4byte	0
 9739              	.LLST87:
 9740 0d95 00000000 		.4byte	.LVL230
 9741 0d99 0F000000 		.4byte	.LVL231-1
 9742 0d9d 0100     		.2byte	0x1
 9743 0d9f 50       		.byte	0x50
 9744 0da0 0F000000 		.4byte	.LVL231-1
 9745 0da4 24000000 		.4byte	.LVL235
 9746 0da8 0100     		.2byte	0x1
 9747 0daa 54       		.byte	0x54
 9748 0dab 00000000 		.4byte	0
 9749 0daf 00000000 		.4byte	0
 9750              	.LLST88:
 9751 0db3 00000000 		.4byte	.LVL230
 9752 0db7 0F000000 		.4byte	.LVL231-1
ARM GAS  C:\Users\haske\AppData\Local\Temp\ccswauRt.s 			page 197


 9753 0dbb 0100     		.2byte	0x1
 9754 0dbd 51       		.byte	0x51
 9755 0dbe 0F000000 		.4byte	.LVL231-1
 9756 0dc2 24000000 		.4byte	.LVL236
 9757 0dc6 0100     		.2byte	0x1
 9758 0dc8 55       		.byte	0x55
 9759 0dc9 24000000 		.4byte	.LVL236
 9760 0dcd 26000000 		.4byte	.LFE25
 9761 0dd1 0400     		.2byte	0x4
 9762 0dd3 F3       		.byte	0xf3
 9763 0dd4 01       		.uleb128 0x1
 9764 0dd5 51       		.byte	0x51
 9765 0dd6 9F       		.byte	0x9f
 9766 0dd7 00000000 		.4byte	0
 9767 0ddb 00000000 		.4byte	0
 9768              	.LLST89:
 9769 0ddf 00000000 		.4byte	.LVL230
 9770 0de3 0F000000 		.4byte	.LVL231-1
 9771 0de7 0100     		.2byte	0x1
 9772 0de9 52       		.byte	0x52
 9773 0dea 0F000000 		.4byte	.LVL231-1
 9774 0dee 24000000 		.4byte	.LVL237
 9775 0df2 0100     		.2byte	0x1
 9776 0df4 56       		.byte	0x56
 9777 0df5 24000000 		.4byte	.LVL237
 9778 0df9 26000000 		.4byte	.LFE25
 9779 0dfd 0400     		.2byte	0x4
 9780 0dff F3       		.byte	0xf3
 9781 0e00 01       		.uleb128 0x1
 9782 0e01 52       		.byte	0x52
 9783 0e02 9F       		.byte	0x9f
 9784 0e03 00000000 		.4byte	0
 9785 0e07 00000000 		.4byte	0
 9786              	.LLST90:
 9787 0e0b 18000000 		.4byte	.LVL232
 9788 0e0f 1A000000 		.4byte	.LVL233
 9789 0e13 0100     		.2byte	0x1
 9790 0e15 53       		.byte	0x53
 9791 0e16 00000000 		.4byte	0
 9792 0e1a 00000000 		.4byte	0
 9793              	.LLST91:
 9794 0e1e 00000000 		.4byte	.LVL238
 9795 0e22 05000000 		.4byte	.LVL239-1
 9796 0e26 0100     		.2byte	0x1
 9797 0e28 50       		.byte	0x50
 9798 0e29 05000000 		.4byte	.LVL239-1
 9799 0e2d 0A000000 		.4byte	.LFE1
 9800 0e31 0400     		.2byte	0x4
 9801 0e33 F3       		.byte	0xf3
 9802 0e34 01       		.uleb128 0x1
 9803 0e35 50       		.byte	0x50
 9804 0e36 9F       		.byte	0x9f
 9805 0e37 00000000 		.4byte	0
 9806 0e3b 00000000 		.4byte	0
 9807              	.LLST92:
 9808 0e3f 00000000 		.4byte	.LVL240
 9809 0e43 14000000 		.4byte	.LVL242
ARM GAS  C:\Users\haske\AppData\Local\Temp\ccswauRt.s 			page 198


 9810 0e47 0100     		.2byte	0x1
 9811 0e49 50       		.byte	0x50
 9812 0e4a 14000000 		.4byte	.LVL242
 9813 0e4e 56000000 		.4byte	.LVL257
 9814 0e52 0100     		.2byte	0x1
 9815 0e54 55       		.byte	0x55
 9816 0e55 56000000 		.4byte	.LVL257
 9817 0e59 58000000 		.4byte	.LFE26
 9818 0e5d 0400     		.2byte	0x4
 9819 0e5f F3       		.byte	0xf3
 9820 0e60 01       		.uleb128 0x1
 9821 0e61 50       		.byte	0x50
 9822 0e62 9F       		.byte	0x9f
 9823 0e63 00000000 		.4byte	0
 9824 0e67 00000000 		.4byte	0
 9825              	.LLST93:
 9826 0e6b 00000000 		.4byte	.LVL240
 9827 0e6f 2D000000 		.4byte	.LVL250-1
 9828 0e73 0100     		.2byte	0x1
 9829 0e75 51       		.byte	0x51
 9830 0e76 2D000000 		.4byte	.LVL250-1
 9831 0e7a 54000000 		.4byte	.LVL255
 9832 0e7e 0100     		.2byte	0x1
 9833 0e80 57       		.byte	0x57
 9834 0e81 54000000 		.4byte	.LVL255
 9835 0e85 56000000 		.4byte	.LVL256
 9836 0e89 0100     		.2byte	0x1
 9837 0e8b 51       		.byte	0x51
 9838 0e8c 56000000 		.4byte	.LVL256
 9839 0e90 56000000 		.4byte	.LVL259
 9840 0e94 0100     		.2byte	0x1
 9841 0e96 57       		.byte	0x57
 9842 0e97 56000000 		.4byte	.LVL259
 9843 0e9b 58000000 		.4byte	.LFE26
 9844 0e9f 0400     		.2byte	0x4
 9845 0ea1 F3       		.byte	0xf3
 9846 0ea2 01       		.uleb128 0x1
 9847 0ea3 51       		.byte	0x51
 9848 0ea4 9F       		.byte	0x9f
 9849 0ea5 00000000 		.4byte	0
 9850 0ea9 00000000 		.4byte	0
 9851              	.LLST94:
 9852 0ead 00000000 		.4byte	.LVL240
 9853 0eb1 18000000 		.4byte	.LVL243
 9854 0eb5 0100     		.2byte	0x1
 9855 0eb7 52       		.byte	0x52
 9856 0eb8 18000000 		.4byte	.LVL243
 9857 0ebc 56000000 		.4byte	.LVL258
 9858 0ec0 0100     		.2byte	0x1
 9859 0ec2 56       		.byte	0x56
 9860 0ec3 56000000 		.4byte	.LVL258
 9861 0ec7 58000000 		.4byte	.LFE26
 9862 0ecb 0400     		.2byte	0x4
 9863 0ecd F3       		.byte	0xf3
 9864 0ece 01       		.uleb128 0x1
 9865 0ecf 52       		.byte	0x52
 9866 0ed0 9F       		.byte	0x9f
ARM GAS  C:\Users\haske\AppData\Local\Temp\ccswauRt.s 			page 199


 9867 0ed1 00000000 		.4byte	0
 9868 0ed5 00000000 		.4byte	0
 9869              	.LLST95:
 9870 0ed9 0A000000 		.4byte	.LVL241
 9871 0edd 20000000 		.4byte	.LVL245
 9872 0ee1 0100     		.2byte	0x1
 9873 0ee3 54       		.byte	0x54
 9874 0ee4 20000000 		.4byte	.LVL245
 9875 0ee8 2D000000 		.4byte	.LVL250-1
 9876 0eec 0200     		.2byte	0x2
 9877 0eee 71       		.byte	0x71
 9878 0eef 00       		.sleb128 0
 9879 0ef0 2D000000 		.4byte	.LVL250-1
 9880 0ef4 30000000 		.4byte	.LVL251
 9881 0ef8 0300     		.2byte	0x3
 9882 0efa 74       		.byte	0x74
 9883 0efb 7F       		.sleb128 -1
 9884 0efc 9F       		.byte	0x9f
 9885 0efd 30000000 		.4byte	.LVL251
 9886 0f01 3A000000 		.4byte	.LVL252
 9887 0f05 0100     		.2byte	0x1
 9888 0f07 50       		.byte	0x50
 9889 0f08 3A000000 		.4byte	.LVL252
 9890 0f0c 54000000 		.4byte	.LVL255
 9891 0f10 0100     		.2byte	0x1
 9892 0f12 54       		.byte	0x54
 9893 0f13 54000000 		.4byte	.LVL255
 9894 0f17 56000000 		.4byte	.LVL256
 9895 0f1b 0200     		.2byte	0x2
 9896 0f1d 71       		.byte	0x71
 9897 0f1e 00       		.sleb128 0
 9898 0f1f 00000000 		.4byte	0
 9899 0f23 00000000 		.4byte	0
 9900              	.LLST96:
 9901 0f27 0A000000 		.4byte	.LVL241
 9902 0f2b 18000000 		.4byte	.LVL243
 9903 0f2f 0200     		.2byte	0x2
 9904 0f31 72       		.byte	0x72
 9905 0f32 00       		.sleb128 0
 9906 0f33 18000000 		.4byte	.LVL243
 9907 0f37 2D000000 		.4byte	.LVL250-1
 9908 0f3b 0100     		.2byte	0x1
 9909 0f3d 52       		.byte	0x52
 9910 0f3e 44000000 		.4byte	.LVL253
 9911 0f42 52000000 		.4byte	.LVL254
 9912 0f46 0100     		.2byte	0x1
 9913 0f48 50       		.byte	0x50
 9914 0f49 52000000 		.4byte	.LVL254
 9915 0f4d 54000000 		.4byte	.LVL255
 9916 0f51 0200     		.2byte	0x2
 9917 0f53 76       		.byte	0x76
 9918 0f54 00       		.sleb128 0
 9919 0f55 54000000 		.4byte	.LVL255
 9920 0f59 56000000 		.4byte	.LVL256
 9921 0f5d 0100     		.2byte	0x1
 9922 0f5f 52       		.byte	0x52
 9923 0f60 00000000 		.4byte	0
ARM GAS  C:\Users\haske\AppData\Local\Temp\ccswauRt.s 			page 200


 9924 0f64 00000000 		.4byte	0
 9925              	.LLST97:
 9926 0f68 1C000000 		.4byte	.LVL244
 9927 0f6c 22000000 		.4byte	.LVL246
 9928 0f70 0100     		.2byte	0x1
 9929 0f72 50       		.byte	0x50
 9930 0f73 22000000 		.4byte	.LVL246
 9931 0f77 24000000 		.4byte	.LVL247
 9932 0f7b 0300     		.2byte	0x3
 9933 0f7d 70       		.byte	0x70
 9934 0f7e 01       		.sleb128 1
 9935 0f7f 9F       		.byte	0x9f
 9936 0f80 24000000 		.4byte	.LVL247
 9937 0f84 26000000 		.4byte	.LVL248
 9938 0f88 0900     		.2byte	0x9
 9939 0f8a 09       		.byte	0x9
 9940 0f8b FF       		.byte	0xff
 9941 0f8c 72       		.byte	0x72
 9942 0f8d 00       		.sleb128 0
 9943 0f8e 24       		.byte	0x24
 9944 0f8f 73       		.byte	0x73
 9945 0f90 00       		.sleb128 0
 9946 0f91 1A       		.byte	0x1a
 9947 0f92 9F       		.byte	0x9f
 9948 0f93 26000000 		.4byte	.LVL248
 9949 0f97 2D000000 		.4byte	.LVL250-1
 9950 0f9b 1400     		.2byte	0x14
 9951 0f9d 09       		.byte	0x9
 9952 0f9e FF       		.byte	0xff
 9953 0f9f 72       		.byte	0x72
 9954 0fa0 00       		.sleb128 0
 9955 0fa1 24       		.byte	0x24
 9956 0fa2 71       		.byte	0x71
 9957 0fa3 00       		.sleb128 0
 9958 0fa4 06       		.byte	0x6
 9959 0fa5 23       		.byte	0x23
 9960 0fa6 04       		.uleb128 0x4
 9961 0fa7 32       		.byte	0x32
 9962 0fa8 24       		.byte	0x24
 9963 0fa9 75       		.byte	0x75
 9964 0faa 00       		.sleb128 0
 9965 0fab 22       		.byte	0x22
 9966 0fac 23       		.byte	0x23
 9967 0fad 04       		.uleb128 0x4
 9968 0fae 06       		.byte	0x6
 9969 0faf 1A       		.byte	0x1a
 9970 0fb0 9F       		.byte	0x9f
 9971 0fb1 3A000000 		.4byte	.LVL252
 9972 0fb5 43000000 		.4byte	.LVL253-1
 9973 0fb9 0100     		.2byte	0x1
 9974 0fbb 50       		.byte	0x50
 9975 0fbc 54000000 		.4byte	.LVL255
 9976 0fc0 56000000 		.4byte	.LVL256
 9977 0fc4 1400     		.2byte	0x14
 9978 0fc6 09       		.byte	0x9
 9979 0fc7 FF       		.byte	0xff
 9980 0fc8 72       		.byte	0x72
ARM GAS  C:\Users\haske\AppData\Local\Temp\ccswauRt.s 			page 201


 9981 0fc9 00       		.sleb128 0
 9982 0fca 24       		.byte	0x24
 9983 0fcb 71       		.byte	0x71
 9984 0fcc 00       		.sleb128 0
 9985 0fcd 06       		.byte	0x6
 9986 0fce 23       		.byte	0x23
 9987 0fcf 04       		.uleb128 0x4
 9988 0fd0 32       		.byte	0x32
 9989 0fd1 24       		.byte	0x24
 9990 0fd2 75       		.byte	0x75
 9991 0fd3 00       		.sleb128 0
 9992 0fd4 22       		.byte	0x22
 9993 0fd5 23       		.byte	0x23
 9994 0fd6 04       		.uleb128 0x4
 9995 0fd7 06       		.byte	0x6
 9996 0fd8 1A       		.byte	0x1a
 9997 0fd9 9F       		.byte	0x9f
 9998 0fda 00000000 		.4byte	0
 9999 0fde 00000000 		.4byte	0
 10000              	.LLST98:
 10001 0fe2 28000000 		.4byte	.LVL249
 10002 0fe6 2D000000 		.4byte	.LVL250-1
 10003 0fea 0100     		.2byte	0x1
 10004 0fec 50       		.byte	0x50
 10005 0fed 54000000 		.4byte	.LVL255
 10006 0ff1 56000000 		.4byte	.LVL256
 10007 0ff5 0100     		.2byte	0x1
 10008 0ff7 50       		.byte	0x50
 10009 0ff8 00000000 		.4byte	0
 10010 0ffc 00000000 		.4byte	0
 10011              	.LLST99:
 10012 1000 00000000 		.4byte	.LVL260
 10013 1004 18000000 		.4byte	.LVL263
 10014 1008 0100     		.2byte	0x1
 10015 100a 50       		.byte	0x50
 10016 100b 18000000 		.4byte	.LVL263
 10017 100f 30000000 		.4byte	.LVL267
 10018 1013 0100     		.2byte	0x1
 10019 1015 56       		.byte	0x56
 10020 1016 30000000 		.4byte	.LVL267
 10021 101a 34000000 		.4byte	.LVL268
 10022 101e 0100     		.2byte	0x1
 10023 1020 50       		.byte	0x50
 10024 1021 34000000 		.4byte	.LVL268
 10025 1025 56000000 		.4byte	.LVL274
 10026 1029 0100     		.2byte	0x1
 10027 102b 56       		.byte	0x56
 10028 102c 56000000 		.4byte	.LVL274
 10029 1030 58000000 		.4byte	.LFE39
 10030 1034 0400     		.2byte	0x4
 10031 1036 F3       		.byte	0xf3
 10032 1037 01       		.uleb128 0x1
 10033 1038 50       		.byte	0x50
 10034 1039 9F       		.byte	0x9f
 10035 103a 00000000 		.4byte	0
 10036 103e 00000000 		.4byte	0
 10037              	.LLST100:
ARM GAS  C:\Users\haske\AppData\Local\Temp\ccswauRt.s 			page 202


 10038 1042 00000000 		.4byte	.LVL260
 10039 1046 16000000 		.4byte	.LVL262
 10040 104a 0100     		.2byte	0x1
 10041 104c 51       		.byte	0x51
 10042 104d 16000000 		.4byte	.LVL262
 10043 1051 30000000 		.4byte	.LVL267
 10044 1055 0100     		.2byte	0x1
 10045 1057 55       		.byte	0x55
 10046 1058 30000000 		.4byte	.LVL267
 10047 105c 34000000 		.4byte	.LVL268
 10048 1060 0100     		.2byte	0x1
 10049 1062 51       		.byte	0x51
 10050 1063 34000000 		.4byte	.LVL268
 10051 1067 56000000 		.4byte	.LVL273
 10052 106b 0100     		.2byte	0x1
 10053 106d 55       		.byte	0x55
 10054 106e 56000000 		.4byte	.LVL273
 10055 1072 58000000 		.4byte	.LFE39
 10056 1076 0400     		.2byte	0x4
 10057 1078 F3       		.byte	0xf3
 10058 1079 01       		.uleb128 0x1
 10059 107a 51       		.byte	0x51
 10060 107b 9F       		.byte	0x9f
 10061 107c 00000000 		.4byte	0
 10062 1080 00000000 		.4byte	0
 10063              	.LLST101:
 10064 1084 0E000000 		.4byte	.LVL261
 10065 1088 2E000000 		.4byte	.LVL266
 10066 108c 0200     		.2byte	0x2
 10067 108e 30       		.byte	0x30
 10068 108f 9F       		.byte	0x9f
 10069 1090 2E000000 		.4byte	.LVL266
 10070 1094 30000000 		.4byte	.LVL267
 10071 1098 0100     		.2byte	0x1
 10072 109a 50       		.byte	0x50
 10073 109b 30000000 		.4byte	.LVL267
 10074 109f 36000000 		.4byte	.LVL269
 10075 10a3 0200     		.2byte	0x2
 10076 10a5 30       		.byte	0x30
 10077 10a6 9F       		.byte	0x9f
 10078 10a7 36000000 		.4byte	.LVL269
 10079 10ab 56000000 		.4byte	.LVL272
 10080 10af 0100     		.2byte	0x1
 10081 10b1 54       		.byte	0x54
 10082 10b2 56000000 		.4byte	.LVL272
 10083 10b6 58000000 		.4byte	.LFE39
 10084 10ba 0100     		.2byte	0x1
 10085 10bc 50       		.byte	0x50
 10086 10bd 00000000 		.4byte	0
 10087 10c1 00000000 		.4byte	0
 10088              	.LLST102:
 10089 10c5 00000000 		.4byte	.LVL275
 10090 10c9 12000000 		.4byte	.LVL277
 10091 10cd 0100     		.2byte	0x1
 10092 10cf 50       		.byte	0x50
 10093 10d0 12000000 		.4byte	.LVL277
 10094 10d4 14010000 		.4byte	.LVL309
ARM GAS  C:\Users\haske\AppData\Local\Temp\ccswauRt.s 			page 203


 10095 10d8 0100     		.2byte	0x1
 10096 10da 57       		.byte	0x57
 10097 10db 14010000 		.4byte	.LVL309
 10098 10df 1C010000 		.4byte	.LFE43
 10099 10e3 0400     		.2byte	0x4
 10100 10e5 F3       		.byte	0xf3
 10101 10e6 01       		.uleb128 0x1
 10102 10e7 50       		.byte	0x50
 10103 10e8 9F       		.byte	0x9f
 10104 10e9 00000000 		.4byte	0
 10105 10ed 00000000 		.4byte	0
 10106              	.LLST103:
 10107 10f1 0C000000 		.4byte	.LVL276
 10108 10f5 12000000 		.4byte	.LVL277
 10109 10f9 0200     		.2byte	0x2
 10110 10fb 30       		.byte	0x30
 10111 10fc 9F       		.byte	0x9f
 10112 10fd 12000000 		.4byte	.LVL277
 10113 1101 14010000 		.4byte	.LVL308
 10114 1105 0100     		.2byte	0x1
 10115 1107 56       		.byte	0x56
 10116 1108 00000000 		.4byte	0
 10117 110c 00000000 		.4byte	0
 10118              	.LLST104:
 10119 1110 12000000 		.4byte	.LVL277
 10120 1114 1A000000 		.4byte	.LVL279
 10121 1118 0100     		.2byte	0x1
 10122 111a 53       		.byte	0x53
 10123 111b 1A000000 		.4byte	.LVL279
 10124 111f 00010000 		.4byte	.LVL304
 10125 1123 0100     		.2byte	0x1
 10126 1125 59       		.byte	0x59
 10127 1126 04010000 		.4byte	.LVL305
 10128 112a 0C010000 		.4byte	.LVL306
 10129 112e 0100     		.2byte	0x1
 10130 1130 59       		.byte	0x59
 10131 1131 00000000 		.4byte	0
 10132 1135 00000000 		.4byte	0
 10133              	.LLST105:
 10134 1139 0C000000 		.4byte	.LVL276
 10135 113d 12000000 		.4byte	.LVL277
 10136 1141 0100     		.2byte	0x1
 10137 1143 50       		.byte	0x50
 10138 1144 12000000 		.4byte	.LVL277
 10139 1148 14010000 		.4byte	.LVL309
 10140 114c 0100     		.2byte	0x1
 10141 114e 57       		.byte	0x57
 10142 114f 14010000 		.4byte	.LVL309
 10143 1153 1C010000 		.4byte	.LFE43
 10144 1157 0400     		.2byte	0x4
 10145 1159 F3       		.byte	0xf3
 10146 115a 01       		.uleb128 0x1
 10147 115b 50       		.byte	0x50
 10148 115c 9F       		.byte	0x9f
 10149 115d 00000000 		.4byte	0
 10150 1161 00000000 		.4byte	0
 10151              	.LLST106:
ARM GAS  C:\Users\haske\AppData\Local\Temp\ccswauRt.s 			page 204


 10152 1165 0C000000 		.4byte	.LVL276
 10153 1169 12000000 		.4byte	.LVL277
 10154 116d 0200     		.2byte	0x2
 10155 116f 30       		.byte	0x30
 10156 1170 9F       		.byte	0x9f
 10157 1171 12000000 		.4byte	.LVL277
 10158 1175 14010000 		.4byte	.LVL307
 10159 1179 0100     		.2byte	0x1
 10160 117b 54       		.byte	0x54
 10161 117c 14010000 		.4byte	.LVL307
 10162 1180 1C010000 		.4byte	.LFE43
 10163 1184 0100     		.2byte	0x1
 10164 1186 50       		.byte	0x50
 10165 1187 00000000 		.4byte	0
 10166 118b 00000000 		.4byte	0
 10167              	.LLST107:
 10168 118f 18000000 		.4byte	.LVL278
 10169 1193 68000000 		.4byte	.LVL286
 10170 1197 0700     		.2byte	0x7
 10171 1199 70       		.byte	0x70
 10172 119a 00       		.sleb128 0
 10173 119b 77       		.byte	0x77
 10174 119c 10       		.sleb128 16
 10175 119d 06       		.byte	0x6
 10176 119e 1A       		.byte	0x1a
 10177 119f 9F       		.byte	0x9f
 10178 11a0 68000000 		.4byte	.LVL286
 10179 11a4 72000000 		.4byte	.LVL288
 10180 11a8 0600     		.2byte	0x6
 10181 11aa 70       		.byte	0x70
 10182 11ab 00       		.sleb128 0
 10183 11ac 73       		.byte	0x73
 10184 11ad 00       		.sleb128 0
 10185 11ae 1A       		.byte	0x1a
 10186 11af 9F       		.byte	0x9f
 10187 11b0 00000000 		.4byte	0
 10188 11b4 00000000 		.4byte	0
 10189              	.LLST108:
 10190 11b8 20000000 		.4byte	.LVL280
 10191 11bc 72000000 		.4byte	.LVL288
 10192 11c0 0100     		.2byte	0x1
 10193 11c2 51       		.byte	0x51
 10194 11c3 00000000 		.4byte	0
 10195 11c7 00000000 		.4byte	0
 10196              	.LLST109:
 10197 11cb 26000000 		.4byte	.LVL281
 10198 11cf 72000000 		.4byte	.LVL288
 10199 11d3 0100     		.2byte	0x1
 10200 11d5 52       		.byte	0x52
 10201 11d6 00000000 		.4byte	0
 10202 11da 00000000 		.4byte	0
 10203              	.LLST110:
 10204 11de 32000000 		.4byte	.LVL282
 10205 11e2 00010000 		.4byte	.LVL304
 10206 11e6 0100     		.2byte	0x1
 10207 11e8 55       		.byte	0x55
 10208 11e9 00000000 		.4byte	0
ARM GAS  C:\Users\haske\AppData\Local\Temp\ccswauRt.s 			page 205


 10209 11ed 00000000 		.4byte	0
 10210              	.LLST111:
 10211 11f1 00000000 		.4byte	.LVL310
 10212 11f5 13000000 		.4byte	.LVL313-1
 10213 11f9 0100     		.2byte	0x1
 10214 11fb 50       		.byte	0x50
 10215 11fc 13000000 		.4byte	.LVL313-1
 10216 1200 58000000 		.4byte	.LFE45
 10217 1204 0400     		.2byte	0x4
 10218 1206 F3       		.byte	0xf3
 10219 1207 01       		.uleb128 0x1
 10220 1208 50       		.byte	0x50
 10221 1209 9F       		.byte	0x9f
 10222 120a 00000000 		.4byte	0
 10223 120e 00000000 		.4byte	0
 10224              	.LLST112:
 10225 1212 00000000 		.4byte	.LVL310
 10226 1216 0E000000 		.4byte	.LVL312
 10227 121a 0100     		.2byte	0x1
 10228 121c 51       		.byte	0x51
 10229 121d 0E000000 		.4byte	.LVL312
 10230 1221 58000000 		.4byte	.LFE45
 10231 1225 0400     		.2byte	0x4
 10232 1227 F3       		.byte	0xf3
 10233 1228 01       		.uleb128 0x1
 10234 1229 51       		.byte	0x51
 10235 122a 9F       		.byte	0x9f
 10236 122b 00000000 		.4byte	0
 10237 122f 00000000 		.4byte	0
 10238              	.LLST113:
 10239 1233 00000000 		.4byte	.LVL310
 10240 1237 13000000 		.4byte	.LVL313-1
 10241 123b 0100     		.2byte	0x1
 10242 123d 52       		.byte	0x52
 10243 123e 13000000 		.4byte	.LVL313-1
 10244 1242 58000000 		.4byte	.LFE45
 10245 1246 0200     		.2byte	0x2
 10246 1248 91       		.byte	0x91
 10247 1249 64       		.sleb128 -28
 10248 124a 00000000 		.4byte	0
 10249 124e 00000000 		.4byte	0
 10250              	.LLST114:
 10251 1252 0C000000 		.4byte	.LVL311
 10252 1256 52000000 		.4byte	.LVL324
 10253 125a 0100     		.2byte	0x1
 10254 125c 57       		.byte	0x57
 10255 125d 00000000 		.4byte	0
 10256 1261 00000000 		.4byte	0
 10257              	.LLST115:
 10258 1265 16000000 		.4byte	.LVL314
 10259 1269 18000000 		.4byte	.LVL315
 10260 126d 0100     		.2byte	0x1
 10261 126f 50       		.byte	0x50
 10262 1270 18000000 		.4byte	.LVL315
 10263 1274 42000000 		.4byte	.LVL321
 10264 1278 0100     		.2byte	0x1
 10265 127a 54       		.byte	0x54
ARM GAS  C:\Users\haske\AppData\Local\Temp\ccswauRt.s 			page 206


 10266 127b 42000000 		.4byte	.LVL321
 10267 127f 4B000000 		.4byte	.LVL322-1
 10268 1283 0100     		.2byte	0x1
 10269 1285 50       		.byte	0x50
 10270 1286 4B000000 		.4byte	.LVL322-1
 10271 128a 52000000 		.4byte	.LVL323
 10272 128e 0100     		.2byte	0x1
 10273 1290 54       		.byte	0x54
 10274 1291 00000000 		.4byte	0
 10275 1295 00000000 		.4byte	0
 10276              	.LLST116:
 10277 1299 00000000 		.4byte	.LVL325
 10278 129d 09000000 		.4byte	.LVL327-1
 10279 12a1 0100     		.2byte	0x1
 10280 12a3 50       		.byte	0x50
 10281 12a4 09000000 		.4byte	.LVL327-1
 10282 12a8 10000000 		.4byte	.LVL329
 10283 12ac 0400     		.2byte	0x4
 10284 12ae F3       		.byte	0xf3
 10285 12af 01       		.uleb128 0x1
 10286 12b0 50       		.byte	0x50
 10287 12b1 9F       		.byte	0x9f
 10288 12b2 10000000 		.4byte	.LVL329
 10289 12b6 12000000 		.4byte	.LVL330
 10290 12ba 0100     		.2byte	0x1
 10291 12bc 50       		.byte	0x50
 10292 12bd 12000000 		.4byte	.LVL330
 10293 12c1 14000000 		.4byte	.LFE46
 10294 12c5 0400     		.2byte	0x4
 10295 12c7 F3       		.byte	0xf3
 10296 12c8 01       		.uleb128 0x1
 10297 12c9 50       		.byte	0x50
 10298 12ca 9F       		.byte	0x9f
 10299 12cb 00000000 		.4byte	0
 10300 12cf 00000000 		.4byte	0
 10301              	.LLST117:
 10302 12d3 02000000 		.4byte	.LVL326
 10303 12d7 0E000000 		.4byte	.LVL328
 10304 12db 0200     		.2byte	0x2
 10305 12dd 30       		.byte	0x30
 10306 12de 9F       		.byte	0x9f
 10307 12df 0E000000 		.4byte	.LVL328
 10308 12e3 10000000 		.4byte	.LVL329
 10309 12e7 0100     		.2byte	0x1
 10310 12e9 50       		.byte	0x50
 10311 12ea 10000000 		.4byte	.LVL329
 10312 12ee 12000000 		.4byte	.LVL330
 10313 12f2 0200     		.2byte	0x2
 10314 12f4 30       		.byte	0x30
 10315 12f5 9F       		.byte	0x9f
 10316 12f6 12000000 		.4byte	.LVL330
 10317 12fa 14000000 		.4byte	.LFE46
 10318 12fe 0100     		.2byte	0x1
 10319 1300 50       		.byte	0x50
 10320 1301 00000000 		.4byte	0
 10321 1305 00000000 		.4byte	0
 10322              	.LLST118:
ARM GAS  C:\Users\haske\AppData\Local\Temp\ccswauRt.s 			page 207


 10323 1309 0A000000 		.4byte	.LVL327
 10324 130d 0D000000 		.4byte	.LVL328-1
 10325 1311 0100     		.2byte	0x1
 10326 1313 50       		.byte	0x50
 10327 1314 00000000 		.4byte	0
 10328 1318 00000000 		.4byte	0
 10329              	.LLST119:
 10330 131c 00000000 		.4byte	.LVL331
 10331 1320 11000000 		.4byte	.LVL332-1
 10332 1324 0100     		.2byte	0x1
 10333 1326 50       		.byte	0x50
 10334 1327 11000000 		.4byte	.LVL332-1
 10335 132b 1C000000 		.4byte	.LFE47
 10336 132f 0400     		.2byte	0x4
 10337 1331 F3       		.byte	0xf3
 10338 1332 01       		.uleb128 0x1
 10339 1333 50       		.byte	0x50
 10340 1334 9F       		.byte	0x9f
 10341 1335 00000000 		.4byte	0
 10342 1339 00000000 		.4byte	0
 10343              	.LLST120:
 10344 133d 00000000 		.4byte	.LVL333
 10345 1341 0B000000 		.4byte	.LVL334-1
 10346 1345 0100     		.2byte	0x1
 10347 1347 50       		.byte	0x50
 10348 1348 0B000000 		.4byte	.LVL334-1
 10349 134c 6E000000 		.4byte	.LVL355
 10350 1350 0100     		.2byte	0x1
 10351 1352 56       		.byte	0x56
 10352 1353 6E000000 		.4byte	.LVL355
 10353 1357 74000000 		.4byte	.LFE54
 10354 135b 0400     		.2byte	0x4
 10355 135d F3       		.byte	0xf3
 10356 135e 01       		.uleb128 0x1
 10357 135f 50       		.byte	0x50
 10358 1360 9F       		.byte	0x9f
 10359 1361 00000000 		.4byte	0
 10360 1365 00000000 		.4byte	0
 10361              	.LLST121:
 10362 1369 00000000 		.4byte	.LVL333
 10363 136d 0B000000 		.4byte	.LVL334-1
 10364 1371 0100     		.2byte	0x1
 10365 1373 51       		.byte	0x51
 10366 1374 0B000000 		.4byte	.LVL334-1
 10367 1378 6E000000 		.4byte	.LVL354
 10368 137c 0100     		.2byte	0x1
 10369 137e 54       		.byte	0x54
 10370 137f 6E000000 		.4byte	.LVL354
 10371 1383 74000000 		.4byte	.LFE54
 10372 1387 0400     		.2byte	0x4
 10373 1389 F3       		.byte	0xf3
 10374 138a 01       		.uleb128 0x1
 10375 138b 51       		.byte	0x51
 10376 138c 9F       		.byte	0x9f
 10377 138d 00000000 		.4byte	0
 10378 1391 00000000 		.4byte	0
 10379              	.LLST122:
ARM GAS  C:\Users\haske\AppData\Local\Temp\ccswauRt.s 			page 208


 10380 1395 00000000 		.4byte	.LVL333
 10381 1399 0B000000 		.4byte	.LVL334-1
 10382 139d 0100     		.2byte	0x1
 10383 139f 52       		.byte	0x52
 10384 13a0 0B000000 		.4byte	.LVL334-1
 10385 13a4 30000000 		.4byte	.LVL340
 10386 13a8 0100     		.2byte	0x1
 10387 13aa 55       		.byte	0x55
 10388 13ab 30000000 		.4byte	.LVL340
 10389 13af 68000000 		.4byte	.LVL350
 10390 13b3 0400     		.2byte	0x4
 10391 13b5 F3       		.byte	0xf3
 10392 13b6 01       		.uleb128 0x1
 10393 13b7 52       		.byte	0x52
 10394 13b8 9F       		.byte	0x9f
 10395 13b9 68000000 		.4byte	.LVL350
 10396 13bd 6E000000 		.4byte	.LVL353
 10397 13c1 0100     		.2byte	0x1
 10398 13c3 55       		.byte	0x55
 10399 13c4 6E000000 		.4byte	.LVL353
 10400 13c8 74000000 		.4byte	.LFE54
 10401 13cc 0400     		.2byte	0x4
 10402 13ce F3       		.byte	0xf3
 10403 13cf 01       		.uleb128 0x1
 10404 13d0 52       		.byte	0x52
 10405 13d1 9F       		.byte	0x9f
 10406 13d2 00000000 		.4byte	0
 10407 13d6 00000000 		.4byte	0
 10408              	.LLST123:
 10409 13da 30000000 		.4byte	.LVL340
 10410 13de 35000000 		.4byte	.LVL341-1
 10411 13e2 0100     		.2byte	0x1
 10412 13e4 50       		.byte	0x50
 10413 13e5 35000000 		.4byte	.LVL341-1
 10414 13e9 52000000 		.4byte	.LVL346
 10415 13ed 0100     		.2byte	0x1
 10416 13ef 55       		.byte	0x55
 10417 13f0 00000000 		.4byte	0
 10418 13f4 00000000 		.4byte	0
 10419              	.LLST124:
 10420 13f8 52000000 		.4byte	.LVL346
 10421 13fc 57000000 		.4byte	.LVL347-1
 10422 1400 0100     		.2byte	0x1
 10423 1402 50       		.byte	0x50
 10424 1403 57000000 		.4byte	.LVL347-1
 10425 1407 68000000 		.4byte	.LVL350
 10426 140b 0100     		.2byte	0x1
 10427 140d 55       		.byte	0x55
 10428 140e 00000000 		.4byte	0
 10429 1412 00000000 		.4byte	0
 10430              	.LLST125:
 10431 1416 0C000000 		.4byte	.LVL334
 10432 141a 0E000000 		.4byte	.LVL335
 10433 141e 0100     		.2byte	0x1
 10434 1420 50       		.byte	0x50
 10435 1421 00000000 		.4byte	0
 10436 1425 00000000 		.4byte	0
ARM GAS  C:\Users\haske\AppData\Local\Temp\ccswauRt.s 			page 209


 10437              	.LLST126:
 10438 1429 16000000 		.4byte	.LVL337
 10439 142d 2A000000 		.4byte	.LVL338
 10440 1431 0100     		.2byte	0x1
 10441 1433 50       		.byte	0x50
 10442 1434 2A000000 		.4byte	.LVL338
 10443 1438 68000000 		.4byte	.LVL350
 10444 143c 0100     		.2byte	0x1
 10445 143e 57       		.byte	0x57
 10446 143f 68000000 		.4byte	.LVL350
 10447 1443 6A000000 		.4byte	.LVL351
 10448 1447 0100     		.2byte	0x1
 10449 1449 50       		.byte	0x50
 10450 144a 6A000000 		.4byte	.LVL351
 10451 144e 6C000000 		.4byte	.LVL352
 10452 1452 0100     		.2byte	0x1
 10453 1454 57       		.byte	0x57
 10454 1455 6C000000 		.4byte	.LVL352
 10455 1459 6E000000 		.4byte	.LVL353
 10456 145d 0100     		.2byte	0x1
 10457 145f 50       		.byte	0x50
 10458 1460 6E000000 		.4byte	.LVL353
 10459 1464 6E000000 		.4byte	.LVL356
 10460 1468 0100     		.2byte	0x1
 10461 146a 57       		.byte	0x57
 10462 146b 00000000 		.4byte	0
 10463 146f 00000000 		.4byte	0
 10464              	.LLST127:
 10465 1473 00000000 		.4byte	.LVL357
 10466 1477 08000000 		.4byte	.LVL358
 10467 147b 0100     		.2byte	0x1
 10468 147d 50       		.byte	0x50
 10469 147e 08000000 		.4byte	.LVL358
 10470 1482 5C000000 		.4byte	.LVL370
 10471 1486 0100     		.2byte	0x1
 10472 1488 56       		.byte	0x56
 10473 1489 5C000000 		.4byte	.LVL370
 10474 148d 5E000000 		.4byte	.LFE55
 10475 1491 0400     		.2byte	0x4
 10476 1493 F3       		.byte	0xf3
 10477 1494 01       		.uleb128 0x1
 10478 1495 50       		.byte	0x50
 10479 1496 9F       		.byte	0x9f
 10480 1497 00000000 		.4byte	0
 10481 149b 00000000 		.4byte	0
 10482              	.LLST128:
 10483 149f 00000000 		.4byte	.LVL357
 10484 14a3 0A000000 		.4byte	.LVL359
 10485 14a7 0100     		.2byte	0x1
 10486 14a9 51       		.byte	0x51
 10487 14aa 0A000000 		.4byte	.LVL359
 10488 14ae 0F000000 		.4byte	.LVL360-1
 10489 14b2 0100     		.2byte	0x1
 10490 14b4 50       		.byte	0x50
 10491 14b5 0F000000 		.4byte	.LVL360-1
 10492 14b9 5E000000 		.4byte	.LFE55
 10493 14bd 0400     		.2byte	0x4
ARM GAS  C:\Users\haske\AppData\Local\Temp\ccswauRt.s 			page 210


 10494 14bf F3       		.byte	0xf3
 10495 14c0 01       		.uleb128 0x1
 10496 14c1 51       		.byte	0x51
 10497 14c2 9F       		.byte	0x9f
 10498 14c3 00000000 		.4byte	0
 10499 14c7 00000000 		.4byte	0
 10500              	.LLST129:
 10501 14cb 08000000 		.4byte	.LVL358
 10502 14cf 5C000000 		.4byte	.LVL370
 10503 14d3 0100     		.2byte	0x1
 10504 14d5 56       		.byte	0x56
 10505 14d6 5C000000 		.4byte	.LVL370
 10506 14da 5E000000 		.4byte	.LFE55
 10507 14de 0400     		.2byte	0x4
 10508 14e0 F3       		.byte	0xf3
 10509 14e1 01       		.uleb128 0x1
 10510 14e2 50       		.byte	0x50
 10511 14e3 9F       		.byte	0x9f
 10512 14e4 00000000 		.4byte	0
 10513 14e8 00000000 		.4byte	0
 10514              	.LLST130:
 10515 14ec 12000000 		.4byte	.LVL361
 10516 14f0 1B000000 		.4byte	.LVL362-1
 10517 14f4 0100     		.2byte	0x1
 10518 14f6 50       		.byte	0x50
 10519 14f7 1B000000 		.4byte	.LVL362-1
 10520 14fb 5C000000 		.4byte	.LVL369
 10521 14ff 0100     		.2byte	0x1
 10522 1501 54       		.byte	0x54
 10523 1502 00000000 		.4byte	0
 10524 1506 00000000 		.4byte	0
 10525              	.LLST131:
 10526 150a 00000000 		.4byte	.LVL371
 10527 150e 0B000000 		.4byte	.LVL372-1
 10528 1512 0100     		.2byte	0x1
 10529 1514 50       		.byte	0x50
 10530 1515 0B000000 		.4byte	.LVL372-1
 10531 1519 12000000 		.4byte	.LVL373
 10532 151d 0100     		.2byte	0x1
 10533 151f 54       		.byte	0x54
 10534 1520 12000000 		.4byte	.LVL373
 10535 1524 14000000 		.4byte	.LFE56
 10536 1528 0400     		.2byte	0x4
 10537 152a F3       		.byte	0xf3
 10538 152b 01       		.uleb128 0x1
 10539 152c 50       		.byte	0x50
 10540 152d 9F       		.byte	0x9f
 10541 152e 00000000 		.4byte	0
 10542 1532 00000000 		.4byte	0
 10543              	.LLST132:
 10544 1536 00000000 		.4byte	.LVL374
 10545 153a 09000000 		.4byte	.LVL375-1
 10546 153e 0100     		.2byte	0x1
 10547 1540 50       		.byte	0x50
 10548 1541 09000000 		.4byte	.LVL375-1
 10549 1545 1C000000 		.4byte	.LVL381
 10550 1549 0100     		.2byte	0x1
ARM GAS  C:\Users\haske\AppData\Local\Temp\ccswauRt.s 			page 211


 10551 154b 56       		.byte	0x56
 10552 154c 1C000000 		.4byte	.LVL381
 10553 1550 1E000000 		.4byte	.LFE57
 10554 1554 0400     		.2byte	0x4
 10555 1556 F3       		.byte	0xf3
 10556 1557 01       		.uleb128 0x1
 10557 1558 50       		.byte	0x50
 10558 1559 9F       		.byte	0x9f
 10559 155a 00000000 		.4byte	0
 10560 155e 00000000 		.4byte	0
 10561              	.LLST133:
 10562 1562 00000000 		.4byte	.LVL374
 10563 1566 09000000 		.4byte	.LVL375-1
 10564 156a 0100     		.2byte	0x1
 10565 156c 51       		.byte	0x51
 10566 156d 09000000 		.4byte	.LVL375-1
 10567 1571 1C000000 		.4byte	.LVL379
 10568 1575 0100     		.2byte	0x1
 10569 1577 54       		.byte	0x54
 10570 1578 1C000000 		.4byte	.LVL379
 10571 157c 1E000000 		.4byte	.LFE57
 10572 1580 0400     		.2byte	0x4
 10573 1582 F3       		.byte	0xf3
 10574 1583 01       		.uleb128 0x1
 10575 1584 51       		.byte	0x51
 10576 1585 9F       		.byte	0x9f
 10577 1586 00000000 		.4byte	0
 10578 158a 00000000 		.4byte	0
 10579              	.LLST134:
 10580 158e 0C000000 		.4byte	.LVL376
 10581 1592 0F000000 		.4byte	.LVL377-1
 10582 1596 0100     		.2byte	0x1
 10583 1598 50       		.byte	0x50
 10584 1599 0F000000 		.4byte	.LVL377-1
 10585 159d 1C000000 		.4byte	.LVL380
 10586 15a1 0100     		.2byte	0x1
 10587 15a3 55       		.byte	0x55
 10588 15a4 1C000000 		.4byte	.LVL380
 10589 15a8 1E000000 		.4byte	.LFE57
 10590 15ac 0100     		.2byte	0x1
 10591 15ae 50       		.byte	0x50
 10592 15af 00000000 		.4byte	0
 10593 15b3 00000000 		.4byte	0
 10594              	.LLST135:
 10595 15b7 00000000 		.4byte	.LVL383
 10596 15bb 07000000 		.4byte	.LVL384-1
 10597 15bf 0100     		.2byte	0x1
 10598 15c1 50       		.byte	0x50
 10599 15c2 07000000 		.4byte	.LVL384-1
 10600 15c6 0A000000 		.4byte	.LVL385
 10601 15ca 0100     		.2byte	0x1
 10602 15cc 54       		.byte	0x54
 10603 15cd 0A000000 		.4byte	.LVL385
 10604 15d1 0C000000 		.4byte	.LFE59
 10605 15d5 0400     		.2byte	0x4
 10606 15d7 F3       		.byte	0xf3
 10607 15d8 01       		.uleb128 0x1
ARM GAS  C:\Users\haske\AppData\Local\Temp\ccswauRt.s 			page 212


 10608 15d9 50       		.byte	0x50
 10609 15da 9F       		.byte	0x9f
 10610 15db 00000000 		.4byte	0
 10611 15df 00000000 		.4byte	0
 10612              	.LLST136:
 10613 15e3 00000000 		.4byte	.LVL386
 10614 15e7 06000000 		.4byte	.LVL387
 10615 15eb 0100     		.2byte	0x1
 10616 15ed 50       		.byte	0x50
 10617 15ee 06000000 		.4byte	.LVL387
 10618 15f2 20000000 		.4byte	.LVL396
 10619 15f6 0100     		.2byte	0x1
 10620 15f8 54       		.byte	0x54
 10621 15f9 20000000 		.4byte	.LVL396
 10622 15fd 22000000 		.4byte	.LFE60
 10623 1601 0400     		.2byte	0x4
 10624 1603 F3       		.byte	0xf3
 10625 1604 01       		.uleb128 0x1
 10626 1605 50       		.byte	0x50
 10627 1606 9F       		.byte	0x9f
 10628 1607 00000000 		.4byte	0
 10629 160b 00000000 		.4byte	0
 10630              	.LLST137:
 10631 160f 00000000 		.4byte	.LVL386
 10632 1613 08000000 		.4byte	.LVL388
 10633 1617 0100     		.2byte	0x1
 10634 1619 51       		.byte	0x51
 10635 161a 08000000 		.4byte	.LVL388
 10636 161e 0B000000 		.4byte	.LVL389-1
 10637 1622 0100     		.2byte	0x1
 10638 1624 50       		.byte	0x50
 10639 1625 0B000000 		.4byte	.LVL389-1
 10640 1629 22000000 		.4byte	.LFE60
 10641 162d 0400     		.2byte	0x4
 10642 162f F3       		.byte	0xf3
 10643 1630 01       		.uleb128 0x1
 10644 1631 51       		.byte	0x51
 10645 1632 9F       		.byte	0x9f
 10646 1633 00000000 		.4byte	0
 10647 1637 00000000 		.4byte	0
 10648              	.LLST138:
 10649 163b 06000000 		.4byte	.LVL387
 10650 163f 20000000 		.4byte	.LVL396
 10651 1643 0100     		.2byte	0x1
 10652 1645 54       		.byte	0x54
 10653 1646 20000000 		.4byte	.LVL396
 10654 164a 22000000 		.4byte	.LFE60
 10655 164e 0400     		.2byte	0x4
 10656 1650 F3       		.byte	0xf3
 10657 1651 01       		.uleb128 0x1
 10658 1652 50       		.byte	0x50
 10659 1653 9F       		.byte	0x9f
 10660 1654 00000000 		.4byte	0
 10661 1658 00000000 		.4byte	0
 10662              	.LLST139:
 10663 165c 0E000000 		.4byte	.LVL390
 10664 1660 12000000 		.4byte	.LVL391
ARM GAS  C:\Users\haske\AppData\Local\Temp\ccswauRt.s 			page 213


 10665 1664 0100     		.2byte	0x1
 10666 1666 50       		.byte	0x50
 10667 1667 12000000 		.4byte	.LVL391
 10668 166b 15000000 		.4byte	.LVL392-1
 10669 166f 0100     		.2byte	0x1
 10670 1671 51       		.byte	0x51
 10671 1672 15000000 		.4byte	.LVL392-1
 10672 1676 20000000 		.4byte	.LVL397
 10673 167a 0100     		.2byte	0x1
 10674 167c 55       		.byte	0x55
 10675 167d 00000000 		.4byte	0
 10676 1681 00000000 		.4byte	0
 10677              	.LLST140:
 10678 1685 18000000 		.4byte	.LVL393
 10679 1689 1C000000 		.4byte	.LVL394
 10680 168d 0100     		.2byte	0x1
 10681 168f 50       		.byte	0x50
 10682 1690 1C000000 		.4byte	.LVL394
 10683 1694 1F000000 		.4byte	.LVL395-1
 10684 1698 0100     		.2byte	0x1
 10685 169a 51       		.byte	0x51
 10686 169b 00000000 		.4byte	0
 10687 169f 00000000 		.4byte	0
 10688              	.LLST141:
 10689 16a3 00000000 		.4byte	.LVL398
 10690 16a7 0C000000 		.4byte	.LVL401
 10691 16ab 0100     		.2byte	0x1
 10692 16ad 50       		.byte	0x50
 10693 16ae 0C000000 		.4byte	.LVL401
 10694 16b2 84000000 		.4byte	.LFE61
 10695 16b6 0200     		.2byte	0x2
 10696 16b8 91       		.byte	0x91
 10697 16b9 64       		.sleb128 -28
 10698 16ba 00000000 		.4byte	0
 10699 16be 00000000 		.4byte	0
 10700              	.LLST142:
 10701 16c2 00000000 		.4byte	.LVL398
 10702 16c6 0A000000 		.4byte	.LVL400
 10703 16ca 0100     		.2byte	0x1
 10704 16cc 51       		.byte	0x51
 10705 16cd 0A000000 		.4byte	.LVL400
 10706 16d1 56000000 		.4byte	.LVL416
 10707 16d5 0100     		.2byte	0x1
 10708 16d7 54       		.byte	0x54
 10709 16d8 56000000 		.4byte	.LVL416
 10710 16dc 58000000 		.4byte	.LVL417
 10711 16e0 0100     		.2byte	0x1
 10712 16e2 53       		.byte	0x53
 10713 16e3 58000000 		.4byte	.LVL417
 10714 16e7 82000000 		.4byte	.LVL425
 10715 16eb 0100     		.2byte	0x1
 10716 16ed 54       		.byte	0x54
 10717 16ee 82000000 		.4byte	.LVL425
 10718 16f2 84000000 		.4byte	.LFE61
 10719 16f6 0400     		.2byte	0x4
 10720 16f8 F3       		.byte	0xf3
 10721 16f9 01       		.uleb128 0x1
ARM GAS  C:\Users\haske\AppData\Local\Temp\ccswauRt.s 			page 214


 10722 16fa 51       		.byte	0x51
 10723 16fb 9F       		.byte	0x9f
 10724 16fc 00000000 		.4byte	0
 10725 1700 00000000 		.4byte	0
 10726              	.LLST143:
 10727 1704 00000000 		.4byte	.LVL398
 10728 1708 0F000000 		.4byte	.LVL402-1
 10729 170c 0100     		.2byte	0x1
 10730 170e 52       		.byte	0x52
 10731 170f 0F000000 		.4byte	.LVL402-1
 10732 1713 84000000 		.4byte	.LFE61
 10733 1717 0400     		.2byte	0x4
 10734 1719 F3       		.byte	0xf3
 10735 171a 01       		.uleb128 0x1
 10736 171b 52       		.byte	0x52
 10737 171c 9F       		.byte	0x9f
 10738 171d 00000000 		.4byte	0
 10739 1721 00000000 		.4byte	0
 10740              	.LLST144:
 10741 1725 08000000 		.4byte	.LVL399
 10742 1729 0C000000 		.4byte	.LVL401
 10743 172d 0100     		.2byte	0x1
 10744 172f 50       		.byte	0x50
 10745 1730 0C000000 		.4byte	.LVL401
 10746 1734 84000000 		.4byte	.LFE61
 10747 1738 0200     		.2byte	0x2
 10748 173a 91       		.byte	0x91
 10749 173b 64       		.sleb128 -28
 10750 173c 00000000 		.4byte	0
 10751 1740 00000000 		.4byte	0
 10752              	.LLST145:
 10753 1744 12000000 		.4byte	.LVL403
 10754 1748 14000000 		.4byte	.LVL404
 10755 174c 0100     		.2byte	0x1
 10756 174e 50       		.byte	0x50
 10757 174f 14000000 		.4byte	.LVL404
 10758 1753 82000000 		.4byte	.LVL427
 10759 1757 0100     		.2byte	0x1
 10760 1759 56       		.byte	0x56
 10761 175a 00000000 		.4byte	0
 10762 175e 00000000 		.4byte	0
 10763              	.LLST146:
 10764 1762 1C000000 		.4byte	.LVL405
 10765 1766 30000000 		.4byte	.LVL407
 10766 176a 0100     		.2byte	0x1
 10767 176c 50       		.byte	0x50
 10768 176d 00000000 		.4byte	0
 10769 1771 00000000 		.4byte	0
 10770              	.LLST147:
 10771 1775 2E000000 		.4byte	.LVL406
 10772 1779 33000000 		.4byte	.LVL408-1
 10773 177d 0100     		.2byte	0x1
 10774 177f 51       		.byte	0x51
 10775 1780 00000000 		.4byte	0
 10776 1784 00000000 		.4byte	0
 10777              	.LLST148:
 10778 1788 36000000 		.4byte	.LVL409
ARM GAS  C:\Users\haske\AppData\Local\Temp\ccswauRt.s 			page 215


 10779 178c 3B000000 		.4byte	.LVL410-1
 10780 1790 0100     		.2byte	0x1
 10781 1792 50       		.byte	0x50
 10782 1793 3B000000 		.4byte	.LVL410-1
 10783 1797 82000000 		.4byte	.LVL426
 10784 179b 0100     		.2byte	0x1
 10785 179d 55       		.byte	0x55
 10786 179e 00000000 		.4byte	0
 10787 17a2 00000000 		.4byte	0
 10788              	.LLST149:
 10789 17a6 3E000000 		.4byte	.LVL411
 10790 17aa 43000000 		.4byte	.LVL412-1
 10791 17ae 0100     		.2byte	0x1
 10792 17b0 50       		.byte	0x50
 10793 17b1 43000000 		.4byte	.LVL412-1
 10794 17b5 76000000 		.4byte	.LVL423
 10795 17b9 0100     		.2byte	0x1
 10796 17bb 57       		.byte	0x57
 10797 17bc 00000000 		.4byte	0
 10798 17c0 00000000 		.4byte	0
 10799              	.LLST150:
 10800 17c4 44000000 		.4byte	.LVL412
 10801 17c8 5A000000 		.4byte	.LVL418
 10802 17cc 0100     		.2byte	0x1
 10803 17ce 50       		.byte	0x50
 10804 17cf 60000000 		.4byte	.LVL419
 10805 17d3 70000000 		.4byte	.LVL421
 10806 17d7 0100     		.2byte	0x1
 10807 17d9 50       		.byte	0x50
 10808 17da 00000000 		.4byte	0
 10809 17de 00000000 		.4byte	0
 10810              	.LLST151:
 10811 17e2 46000000 		.4byte	.LVL413
 10812 17e6 50000000 		.4byte	.LVL414
 10813 17ea 0100     		.2byte	0x1
 10814 17ec 52       		.byte	0x52
 10815 17ed 50000000 		.4byte	.LVL414
 10816 17f1 52000000 		.4byte	.LVL415
 10817 17f5 0300     		.2byte	0x3
 10818 17f7 73       		.byte	0x73
 10819 17f8 01       		.sleb128 1
 10820 17f9 9F       		.byte	0x9f
 10821 17fa 52000000 		.4byte	.LVL415
 10822 17fe 5A000000 		.4byte	.LVL418
 10823 1802 0600     		.2byte	0x6
 10824 1804 70       		.byte	0x70
 10825 1805 00       		.sleb128 0
 10826 1806 77       		.byte	0x77
 10827 1807 00       		.sleb128 0
 10828 1808 1C       		.byte	0x1c
 10829 1809 9F       		.byte	0x9f
 10830 180a 62000000 		.4byte	.LVL420
 10831 180e 73000000 		.4byte	.LVL422-1
 10832 1812 0100     		.2byte	0x1
 10833 1814 52       		.byte	0x52
 10834 1815 00000000 		.4byte	0
 10835 1819 00000000 		.4byte	0
ARM GAS  C:\Users\haske\AppData\Local\Temp\ccswauRt.s 			page 216


 10836              	.LLST152:
 10837 181d 50000000 		.4byte	.LVL414
 10838 1821 5F000000 		.4byte	.LVL419-1
 10839 1825 0100     		.2byte	0x1
 10840 1827 52       		.byte	0x52
 10841 1828 00000000 		.4byte	0
 10842 182c 00000000 		.4byte	0
 10843              	.LLST153:
 10844 1830 58000000 		.4byte	.LVL417
 10845 1834 5F000000 		.4byte	.LVL419-1
 10846 1838 0100     		.2byte	0x1
 10847 183a 53       		.byte	0x53
 10848 183b 00000000 		.4byte	0
 10849 183f 00000000 		.4byte	0
 10850              	.LLST154:
 10851 1843 5A000000 		.4byte	.LVL418
 10852 1847 5F000000 		.4byte	.LVL419-1
 10853 184b 0100     		.2byte	0x1
 10854 184d 50       		.byte	0x50
 10855 184e 00000000 		.4byte	0
 10856 1852 00000000 		.4byte	0
 10857              	.LLST155:
 10858 1856 00000000 		.4byte	.LVL428
 10859 185a 0A000000 		.4byte	.LVL431
 10860 185e 0100     		.2byte	0x1
 10861 1860 50       		.byte	0x50
 10862 1861 0A000000 		.4byte	.LVL431
 10863 1865 3C000000 		.4byte	.LVL444
 10864 1869 0100     		.2byte	0x1
 10865 186b 55       		.byte	0x55
 10866 186c 3C000000 		.4byte	.LVL444
 10867 1870 3E000000 		.4byte	.LVL445
 10868 1874 0100     		.2byte	0x1
 10869 1876 50       		.byte	0x50
 10870 1877 3E000000 		.4byte	.LVL445
 10871 187b 40000000 		.4byte	.LVL446
 10872 187f 0100     		.2byte	0x1
 10873 1881 55       		.byte	0x55
 10874 1882 40000000 		.4byte	.LVL446
 10875 1886 42000000 		.4byte	.LFE62
 10876 188a 0400     		.2byte	0x4
 10877 188c F3       		.byte	0xf3
 10878 188d 01       		.uleb128 0x1
 10879 188e 50       		.byte	0x50
 10880 188f 9F       		.byte	0x9f
 10881 1890 00000000 		.4byte	0
 10882 1894 00000000 		.4byte	0
 10883              	.LLST156:
 10884 1898 00000000 		.4byte	.LVL428
 10885 189c 0D000000 		.4byte	.LVL432-1
 10886 18a0 0100     		.2byte	0x1
 10887 18a2 51       		.byte	0x51
 10888 18a3 0D000000 		.4byte	.LVL432-1
 10889 18a7 3C000000 		.4byte	.LVL444
 10890 18ab 0400     		.2byte	0x4
 10891 18ad F3       		.byte	0xf3
 10892 18ae 01       		.uleb128 0x1
ARM GAS  C:\Users\haske\AppData\Local\Temp\ccswauRt.s 			page 217


 10893 18af 51       		.byte	0x51
 10894 18b0 9F       		.byte	0x9f
 10895 18b1 3C000000 		.4byte	.LVL444
 10896 18b5 3E000000 		.4byte	.LVL445
 10897 18b9 0100     		.2byte	0x1
 10898 18bb 51       		.byte	0x51
 10899 18bc 3E000000 		.4byte	.LVL445
 10900 18c0 42000000 		.4byte	.LFE62
 10901 18c4 0400     		.2byte	0x4
 10902 18c6 F3       		.byte	0xf3
 10903 18c7 01       		.uleb128 0x1
 10904 18c8 51       		.byte	0x51
 10905 18c9 9F       		.byte	0x9f
 10906 18ca 00000000 		.4byte	0
 10907 18ce 00000000 		.4byte	0
 10908              	.LLST157:
 10909 18d2 04000000 		.4byte	.LVL429
 10910 18d6 1C000000 		.4byte	.LVL435
 10911 18da 0200     		.2byte	0x2
 10912 18dc 30       		.byte	0x30
 10913 18dd 9F       		.byte	0x9f
 10914 18de 1C000000 		.4byte	.LVL435
 10915 18e2 3C000000 		.4byte	.LVL444
 10916 18e6 0100     		.2byte	0x1
 10917 18e8 56       		.byte	0x56
 10918 18e9 3C000000 		.4byte	.LVL444
 10919 18ed 3E000000 		.4byte	.LVL445
 10920 18f1 0200     		.2byte	0x2
 10921 18f3 30       		.byte	0x30
 10922 18f4 9F       		.byte	0x9f
 10923 18f5 3E000000 		.4byte	.LVL445
 10924 18f9 40000000 		.4byte	.LVL447
 10925 18fd 0100     		.2byte	0x1
 10926 18ff 56       		.byte	0x56
 10927 1900 40000000 		.4byte	.LVL447
 10928 1904 42000000 		.4byte	.LFE62
 10929 1908 0100     		.2byte	0x1
 10930 190a 50       		.byte	0x50
 10931 190b 00000000 		.4byte	0
 10932 190f 00000000 		.4byte	0
 10933              	.LLST158:
 10934 1913 08000000 		.4byte	.LVL430
 10935 1917 0A000000 		.4byte	.LVL431
 10936 191b 0100     		.2byte	0x1
 10937 191d 50       		.byte	0x50
 10938 191e 0A000000 		.4byte	.LVL431
 10939 1922 3C000000 		.4byte	.LVL444
 10940 1926 0100     		.2byte	0x1
 10941 1928 55       		.byte	0x55
 10942 1929 00000000 		.4byte	0
 10943 192d 00000000 		.4byte	0
 10944              	.LLST159:
 10945 1931 10000000 		.4byte	.LVL433
 10946 1935 13000000 		.4byte	.LVL434-1
 10947 1939 0100     		.2byte	0x1
 10948 193b 50       		.byte	0x50
 10949 193c 13000000 		.4byte	.LVL434-1
ARM GAS  C:\Users\haske\AppData\Local\Temp\ccswauRt.s 			page 218


 10950 1940 2C000000 		.4byte	.LVL438
 10951 1944 0100     		.2byte	0x1
 10952 1946 54       		.byte	0x54
 10953 1947 2C000000 		.4byte	.LVL438
 10954 194b 2E000000 		.4byte	.LVL439
 10955 194f 0100     		.2byte	0x1
 10956 1951 50       		.byte	0x50
 10957 1952 2E000000 		.4byte	.LVL439
 10958 1956 31000000 		.4byte	.LVL440-1
 10959 195a 0100     		.2byte	0x1
 10960 195c 51       		.byte	0x51
 10961 195d 34000000 		.4byte	.LVL441
 10962 1961 36000000 		.4byte	.LVL442
 10963 1965 0100     		.2byte	0x1
 10964 1967 50       		.byte	0x50
 10965 1968 36000000 		.4byte	.LVL442
 10966 196c 39000000 		.4byte	.LVL443-1
 10967 1970 0100     		.2byte	0x1
 10968 1972 51       		.byte	0x51
 10969 1973 00000000 		.4byte	0
 10970 1977 00000000 		.4byte	0
 10971              	.LLST160:
 10972 197b 00000000 		.4byte	.LVL448
 10973 197f 19000000 		.4byte	.LVL450-1
 10974 1983 0100     		.2byte	0x1
 10975 1985 50       		.byte	0x50
 10976 1986 19000000 		.4byte	.LVL450-1
 10977 198a 1E000000 		.4byte	.LVL451
 10978 198e 0200     		.2byte	0x2
 10979 1990 91       		.byte	0x91
 10980 1991 5C       		.sleb128 -36
 10981 1992 1E000000 		.4byte	.LVL451
 10982 1996 26000000 		.4byte	.LVL453
 10983 199a 0100     		.2byte	0x1
 10984 199c 50       		.byte	0x50
 10985 199d 26000000 		.4byte	.LVL453
 10986 19a1 2C000000 		.4byte	.LVL455
 10987 19a5 0200     		.2byte	0x2
 10988 19a7 91       		.byte	0x91
 10989 19a8 5C       		.sleb128 -36
 10990 19a9 2C000000 		.4byte	.LVL455
 10991 19ad 2E000000 		.4byte	.LVL456
 10992 19b1 0100     		.2byte	0x1
 10993 19b3 50       		.byte	0x50
 10994 19b4 2E000000 		.4byte	.LVL456
 10995 19b8 D6000000 		.4byte	.LFE63
 10996 19bc 0200     		.2byte	0x2
 10997 19be 91       		.byte	0x91
 10998 19bf 5C       		.sleb128 -36
 10999 19c0 00000000 		.4byte	0
 11000 19c4 00000000 		.4byte	0
 11001              	.LLST161:
 11002 19c8 00000000 		.4byte	.LVL448
 11003 19cc 19000000 		.4byte	.LVL450-1
 11004 19d0 0100     		.2byte	0x1
 11005 19d2 51       		.byte	0x51
 11006 19d3 19000000 		.4byte	.LVL450-1
ARM GAS  C:\Users\haske\AppData\Local\Temp\ccswauRt.s 			page 219


 11007 19d7 1E000000 		.4byte	.LVL451
 11008 19db 0100     		.2byte	0x1
 11009 19dd 55       		.byte	0x55
 11010 19de 1E000000 		.4byte	.LVL451
 11011 19e2 24000000 		.4byte	.LVL452
 11012 19e6 0100     		.2byte	0x1
 11013 19e8 51       		.byte	0x51
 11014 19e9 24000000 		.4byte	.LVL452
 11015 19ed 2C000000 		.4byte	.LVL455
 11016 19f1 0100     		.2byte	0x1
 11017 19f3 55       		.byte	0x55
 11018 19f4 2C000000 		.4byte	.LVL455
 11019 19f8 31000000 		.4byte	.LVL457-1
 11020 19fc 0100     		.2byte	0x1
 11021 19fe 51       		.byte	0x51
 11022 19ff 31000000 		.4byte	.LVL457-1
 11023 1a03 D0000000 		.4byte	.LVL487
 11024 1a07 0100     		.2byte	0x1
 11025 1a09 55       		.byte	0x55
 11026 1a0a D0000000 		.4byte	.LVL487
 11027 1a0e D6000000 		.4byte	.LFE63
 11028 1a12 0400     		.2byte	0x4
 11029 1a14 F3       		.byte	0xf3
 11030 1a15 01       		.uleb128 0x1
 11031 1a16 51       		.byte	0x51
 11032 1a17 9F       		.byte	0x9f
 11033 1a18 00000000 		.4byte	0
 11034 1a1c 00000000 		.4byte	0
 11035              	.LLST162:
 11036 1a20 00000000 		.4byte	.LVL448
 11037 1a24 19000000 		.4byte	.LVL450-1
 11038 1a28 0100     		.2byte	0x1
 11039 1a2a 52       		.byte	0x52
 11040 1a2b 19000000 		.4byte	.LVL450-1
 11041 1a2f 1E000000 		.4byte	.LVL451
 11042 1a33 0100     		.2byte	0x1
 11043 1a35 54       		.byte	0x54
 11044 1a36 1E000000 		.4byte	.LVL451
 11045 1a3a 29000000 		.4byte	.LVL454-1
 11046 1a3e 0100     		.2byte	0x1
 11047 1a40 52       		.byte	0x52
 11048 1a41 29000000 		.4byte	.LVL454-1
 11049 1a45 2C000000 		.4byte	.LVL455
 11050 1a49 0100     		.2byte	0x1
 11051 1a4b 54       		.byte	0x54
 11052 1a4c 2C000000 		.4byte	.LVL455
 11053 1a50 31000000 		.4byte	.LVL457-1
 11054 1a54 0100     		.2byte	0x1
 11055 1a56 52       		.byte	0x52
 11056 1a57 31000000 		.4byte	.LVL457-1
 11057 1a5b 92000000 		.4byte	.LVL474
 11058 1a5f 0100     		.2byte	0x1
 11059 1a61 54       		.byte	0x54
 11060 1a62 92000000 		.4byte	.LVL474
 11061 1a66 94000000 		.4byte	.LVL475
 11062 1a6a 0100     		.2byte	0x1
 11063 1a6c 52       		.byte	0x52
ARM GAS  C:\Users\haske\AppData\Local\Temp\ccswauRt.s 			page 220


 11064 1a6d 94000000 		.4byte	.LVL475
 11065 1a71 AE000000 		.4byte	.LVL480
 11066 1a75 0100     		.2byte	0x1
 11067 1a77 54       		.byte	0x54
 11068 1a78 AE000000 		.4byte	.LVL480
 11069 1a7c CA000000 		.4byte	.LVL484
 11070 1a80 0400     		.2byte	0x4
 11071 1a82 F3       		.byte	0xf3
 11072 1a83 01       		.uleb128 0x1
 11073 1a84 52       		.byte	0x52
 11074 1a85 9F       		.byte	0x9f
 11075 1a86 CA000000 		.4byte	.LVL484
 11076 1a8a CE000000 		.4byte	.LVL486
 11077 1a8e 0100     		.2byte	0x1
 11078 1a90 54       		.byte	0x54
 11079 1a91 CE000000 		.4byte	.LVL486
 11080 1a95 D6000000 		.4byte	.LFE63
 11081 1a99 0400     		.2byte	0x4
 11082 1a9b F3       		.byte	0xf3
 11083 1a9c 01       		.uleb128 0x1
 11084 1a9d 52       		.byte	0x52
 11085 1a9e 9F       		.byte	0x9f
 11086 1a9f 00000000 		.4byte	0
 11087 1aa3 00000000 		.4byte	0
 11088              	.LLST163:
 11089 1aa7 0E000000 		.4byte	.LVL449
 11090 1aab 19000000 		.4byte	.LVL450-1
 11091 1aaf 0100     		.2byte	0x1
 11092 1ab1 50       		.byte	0x50
 11093 1ab2 19000000 		.4byte	.LVL450-1
 11094 1ab6 1E000000 		.4byte	.LVL451
 11095 1aba 0200     		.2byte	0x2
 11096 1abc 91       		.byte	0x91
 11097 1abd 5C       		.sleb128 -36
 11098 1abe 1E000000 		.4byte	.LVL451
 11099 1ac2 26000000 		.4byte	.LVL453
 11100 1ac6 0100     		.2byte	0x1
 11101 1ac8 50       		.byte	0x50
 11102 1ac9 26000000 		.4byte	.LVL453
 11103 1acd 2C000000 		.4byte	.LVL455
 11104 1ad1 0200     		.2byte	0x2
 11105 1ad3 91       		.byte	0x91
 11106 1ad4 5C       		.sleb128 -36
 11107 1ad5 2C000000 		.4byte	.LVL455
 11108 1ad9 2E000000 		.4byte	.LVL456
 11109 1add 0100     		.2byte	0x1
 11110 1adf 50       		.byte	0x50
 11111 1ae0 2E000000 		.4byte	.LVL456
 11112 1ae4 D6000000 		.4byte	.LFE63
 11113 1ae8 0200     		.2byte	0x2
 11114 1aea 91       		.byte	0x91
 11115 1aeb 5C       		.sleb128 -36
 11116 1aec 00000000 		.4byte	0
 11117 1af0 00000000 		.4byte	0
 11118              	.LLST164:
 11119 1af4 0E000000 		.4byte	.LVL449
 11120 1af8 2A000000 		.4byte	.LVL454
ARM GAS  C:\Users\haske\AppData\Local\Temp\ccswauRt.s 			page 221


 11121 1afc 0200     		.2byte	0x2
 11122 1afe 30       		.byte	0x30
 11123 1aff 9F       		.byte	0x9f
 11124 1b00 2C000000 		.4byte	.LVL455
 11125 1b04 8A000000 		.4byte	.LVL473
 11126 1b08 0200     		.2byte	0x2
 11127 1b0a 30       		.byte	0x30
 11128 1b0b 9F       		.byte	0x9f
 11129 1b0c 8A000000 		.4byte	.LVL473
 11130 1b10 98000000 		.4byte	.LVL476
 11131 1b14 0100     		.2byte	0x1
 11132 1b16 50       		.byte	0x50
 11133 1b17 98000000 		.4byte	.LVL476
 11134 1b1b A8000000 		.4byte	.LVL479
 11135 1b1f 0100     		.2byte	0x1
 11136 1b21 56       		.byte	0x56
 11137 1b22 A8000000 		.4byte	.LVL479
 11138 1b26 C6000000 		.4byte	.LVL483
 11139 1b2a 0200     		.2byte	0x2
 11140 1b2c 30       		.byte	0x30
 11141 1b2d 9F       		.byte	0x9f
 11142 1b2e C6000000 		.4byte	.LVL483
 11143 1b32 CA000000 		.4byte	.LVL484
 11144 1b36 0100     		.2byte	0x1
 11145 1b38 55       		.byte	0x55
 11146 1b39 CA000000 		.4byte	.LVL484
 11147 1b3d CE000000 		.4byte	.LVL486
 11148 1b41 0200     		.2byte	0x2
 11149 1b43 30       		.byte	0x30
 11150 1b44 9F       		.byte	0x9f
 11151 1b45 00000000 		.4byte	0
 11152 1b49 00000000 		.4byte	0
 11153              	.LLST165:
 11154 1b4d 36000000 		.4byte	.LVL458
 11155 1b51 39000000 		.4byte	.LVL459-1
 11156 1b55 0100     		.2byte	0x1
 11157 1b57 50       		.byte	0x50
 11158 1b58 39000000 		.4byte	.LVL459-1
 11159 1b5c 5A000000 		.4byte	.LVL468
 11160 1b60 0100     		.2byte	0x1
 11161 1b62 56       		.byte	0x56
 11162 1b63 5A000000 		.4byte	.LVL468
 11163 1b67 CE000000 		.4byte	.LVL486
 11164 1b6b 0200     		.2byte	0x2
 11165 1b6d 91       		.byte	0x91
 11166 1b6e 60       		.sleb128 -32
 11167 1b6f 00000000 		.4byte	0
 11168 1b73 00000000 		.4byte	0
 11169              	.LLST166:
 11170 1b77 3C000000 		.4byte	.LVL460
 11171 1b7b 3E000000 		.4byte	.LVL461
 11172 1b7f 0100     		.2byte	0x1
 11173 1b81 50       		.byte	0x50
 11174 1b82 3E000000 		.4byte	.LVL461
 11175 1b86 CE000000 		.4byte	.LVL486
 11176 1b8a 0200     		.2byte	0x2
 11177 1b8c 91       		.byte	0x91
ARM GAS  C:\Users\haske\AppData\Local\Temp\ccswauRt.s 			page 222


 11178 1b8d 64       		.sleb128 -28
 11179 1b8e 00000000 		.4byte	0
 11180 1b92 00000000 		.4byte	0
 11181              	.LLST167:
 11182 1b96 44000000 		.4byte	.LVL463
 11183 1b9a 46000000 		.4byte	.LVL464
 11184 1b9e 0100     		.2byte	0x1
 11185 1ba0 50       		.byte	0x50
 11186 1ba1 46000000 		.4byte	.LVL464
 11187 1ba5 CE000000 		.4byte	.LVL486
 11188 1ba9 0100     		.2byte	0x1
 11189 1bab 57       		.byte	0x57
 11190 1bac 00000000 		.4byte	0
 11191 1bb0 00000000 		.4byte	0
 11192              	.LLST168:
 11193 1bb4 50000000 		.4byte	.LVL466
 11194 1bb8 57000000 		.4byte	.LVL467-1
 11195 1bbc 0100     		.2byte	0x1
 11196 1bbe 53       		.byte	0x53
 11197 1bbf 57000000 		.4byte	.LVL467-1
 11198 1bc3 CE000000 		.4byte	.LVL486
 11199 1bc7 0100     		.2byte	0x1
 11200 1bc9 5A       		.byte	0x5a
 11201 1bca 00000000 		.4byte	0
 11202 1bce 00000000 		.4byte	0
 11203              	.LLST169:
 11204 1bd2 5A000000 		.4byte	.LVL468
 11205 1bd6 64000000 		.4byte	.LVL469
 11206 1bda 0100     		.2byte	0x1
 11207 1bdc 50       		.byte	0x50
 11208 1bdd 64000000 		.4byte	.LVL469
 11209 1be1 8A000000 		.4byte	.LVL473
 11210 1be5 0100     		.2byte	0x1
 11211 1be7 56       		.byte	0x56
 11212 1be8 A8000000 		.4byte	.LVL479
 11213 1bec CA000000 		.4byte	.LVL484
 11214 1bf0 0100     		.2byte	0x1
 11215 1bf2 56       		.byte	0x56
 11216 1bf3 CA000000 		.4byte	.LVL484
 11217 1bf7 CC000000 		.4byte	.LVL485
 11218 1bfb 0100     		.2byte	0x1
 11219 1bfd 50       		.byte	0x50
 11220 1bfe CC000000 		.4byte	.LVL485
 11221 1c02 CE000000 		.4byte	.LVL486
 11222 1c06 0100     		.2byte	0x1
 11223 1c08 56       		.byte	0x56
 11224 1c09 00000000 		.4byte	0
 11225 1c0d 00000000 		.4byte	0
 11226              	.LLST170:
 11227 1c11 94000000 		.4byte	.LVL475
 11228 1c15 9B000000 		.4byte	.LVL477-1
 11229 1c19 0100     		.2byte	0x1
 11230 1c1b 52       		.byte	0x52
 11231 1c1c 00000000 		.4byte	0
 11232 1c20 00000000 		.4byte	0
 11233              		.section	.debug_aranges,"",%progbits
 11234 0000 0C020000 		.4byte	0x20c
ARM GAS  C:\Users\haske\AppData\Local\Temp\ccswauRt.s 			page 223


 11235 0004 0200     		.2byte	0x2
 11236 0006 00000000 		.4byte	.Ldebug_info0
 11237 000a 04       		.byte	0x4
 11238 000b 00       		.byte	0
 11239 000c 0000     		.2byte	0
 11240 000e 0000     		.2byte	0
 11241 0010 00000000 		.4byte	.LFB3
 11242 0014 08000000 		.4byte	.LFE3-.LFB3
 11243 0018 00000000 		.4byte	.LFB4
 11244 001c 0C000000 		.4byte	.LFE4-.LFB4
 11245 0020 00000000 		.4byte	.LFB5
 11246 0024 0E000000 		.4byte	.LFE5-.LFB5
 11247 0028 00000000 		.4byte	.LFB6
 11248 002c 08000000 		.4byte	.LFE6-.LFB6
 11249 0030 00000000 		.4byte	.LFB7
 11250 0034 0A000000 		.4byte	.LFE7-.LFB7
 11251 0038 00000000 		.4byte	.LFB8
 11252 003c 0A000000 		.4byte	.LFE8-.LFB8
 11253 0040 00000000 		.4byte	.LFB9
 11254 0044 08000000 		.4byte	.LFE9-.LFB9
 11255 0048 00000000 		.4byte	.LFB10
 11256 004c 0A000000 		.4byte	.LFE10-.LFB10
 11257 0050 00000000 		.4byte	.LFB11
 11258 0054 0A000000 		.4byte	.LFE11-.LFB11
 11259 0058 00000000 		.4byte	.LFB12
 11260 005c 04000000 		.4byte	.LFE12-.LFB12
 11261 0060 00000000 		.4byte	.LFB13
 11262 0064 04000000 		.4byte	.LFE13-.LFB13
 11263 0068 00000000 		.4byte	.LFB14
 11264 006c 04000000 		.4byte	.LFE14-.LFB14
 11265 0070 00000000 		.4byte	.LFB15
 11266 0074 12000000 		.4byte	.LFE15-.LFB15
 11267 0078 00000000 		.4byte	.LFB16
 11268 007c 2A000000 		.4byte	.LFE16-.LFB16
 11269 0080 00000000 		.4byte	.LFB17
 11270 0084 0C000000 		.4byte	.LFE17-.LFB17
 11271 0088 00000000 		.4byte	.LFB18
 11272 008c 14000000 		.4byte	.LFE18-.LFB18
 11273 0090 00000000 		.4byte	.LFB19
 11274 0094 14000000 		.4byte	.LFE19-.LFB19
 11275 0098 00000000 		.4byte	.LFB20
 11276 009c 12000000 		.4byte	.LFE20-.LFB20
 11277 00a0 00000000 		.4byte	.LFB21
 11278 00a4 0E000000 		.4byte	.LFE21-.LFB21
 11279 00a8 00000000 		.4byte	.LFB22
 11280 00ac 12000000 		.4byte	.LFE22-.LFB22
 11281 00b0 00000000 		.4byte	.LFB23
 11282 00b4 24000000 		.4byte	.LFE23-.LFB23
 11283 00b8 00000000 		.4byte	.LFB27
 11284 00bc 54000000 		.4byte	.LFE27-.LFB27
 11285 00c0 00000000 		.4byte	.LFB28
 11286 00c4 6C000000 		.4byte	.LFE28-.LFB28
 11287 00c8 00000000 		.4byte	.LFB31
 11288 00cc 14000000 		.4byte	.LFE31-.LFB31
 11289 00d0 00000000 		.4byte	.LFB32
 11290 00d4 66000000 		.4byte	.LFE32-.LFB32
 11291 00d8 00000000 		.4byte	.LFB33
ARM GAS  C:\Users\haske\AppData\Local\Temp\ccswauRt.s 			page 224


 11292 00dc 2A000000 		.4byte	.LFE33-.LFB33
 11293 00e0 00000000 		.4byte	.LFB41
 11294 00e4 36000000 		.4byte	.LFE41-.LFB41
 11295 00e8 00000000 		.4byte	.LFB42
 11296 00ec 5E000000 		.4byte	.LFE42-.LFB42
 11297 00f0 00000000 		.4byte	.LFB44
 11298 00f4 02000000 		.4byte	.LFE44-.LFB44
 11299 00f8 00000000 		.4byte	.LFB2
 11300 00fc 16000000 		.4byte	.LFE2-.LFB2
 11301 0100 00000000 		.4byte	.LFB24
 11302 0104 2E000000 		.4byte	.LFE24-.LFB24
 11303 0108 00000000 		.4byte	.LFB30
 11304 010c 26000000 		.4byte	.LFE30-.LFB30
 11305 0110 00000000 		.4byte	.LFB36
 11306 0114 40000000 		.4byte	.LFE36-.LFB36
 11307 0118 00000000 		.4byte	.LFB40
 11308 011c 22000000 		.4byte	.LFE40-.LFB40
 11309 0120 00000000 		.4byte	.LFB38
 11310 0124 36000000 		.4byte	.LFE38-.LFB38
 11311 0128 00000000 		.4byte	.LFB29
 11312 012c 26000000 		.4byte	.LFE29-.LFB29
 11313 0130 00000000 		.4byte	.LFB34
 11314 0134 3C000000 		.4byte	.LFE34-.LFB34
 11315 0138 00000000 		.4byte	.LFB35
 11316 013c 3C000000 		.4byte	.LFE35-.LFB35
 11317 0140 00000000 		.4byte	.LFB37
 11318 0144 40000000 		.4byte	.LFE37-.LFB37
 11319 0148 00000000 		.4byte	.LFB25
 11320 014c 26000000 		.4byte	.LFE25-.LFB25
 11321 0150 00000000 		.4byte	.LFB1
 11322 0154 0A000000 		.4byte	.LFE1-.LFB1
 11323 0158 00000000 		.4byte	.LFB26
 11324 015c 58000000 		.4byte	.LFE26-.LFB26
 11325 0160 00000000 		.4byte	.LFB39
 11326 0164 58000000 		.4byte	.LFE39-.LFB39
 11327 0168 00000000 		.4byte	.LFB43
 11328 016c 1C010000 		.4byte	.LFE43-.LFB43
 11329 0170 00000000 		.4byte	.LFB45
 11330 0174 58000000 		.4byte	.LFE45-.LFB45
 11331 0178 00000000 		.4byte	.LFB46
 11332 017c 14000000 		.4byte	.LFE46-.LFB46
 11333 0180 00000000 		.4byte	.LFB47
 11334 0184 1C000000 		.4byte	.LFE47-.LFB47
 11335 0188 00000000 		.4byte	.LFB48
 11336 018c 08000000 		.4byte	.LFE48-.LFB48
 11337 0190 00000000 		.4byte	.LFB49
 11338 0194 04000000 		.4byte	.LFE49-.LFB49
 11339 0198 00000000 		.4byte	.LFB50
 11340 019c 04000000 		.4byte	.LFE50-.LFB50
 11341 01a0 00000000 		.4byte	.LFB51
 11342 01a4 06000000 		.4byte	.LFE51-.LFB51
 11343 01a8 00000000 		.4byte	.LFB52
 11344 01ac 04000000 		.4byte	.LFE52-.LFB52
 11345 01b0 00000000 		.4byte	.LFB53
 11346 01b4 04000000 		.4byte	.LFE53-.LFB53
 11347 01b8 00000000 		.4byte	.LFB54
 11348 01bc 74000000 		.4byte	.LFE54-.LFB54
ARM GAS  C:\Users\haske\AppData\Local\Temp\ccswauRt.s 			page 225


 11349 01c0 00000000 		.4byte	.LFB55
 11350 01c4 5E000000 		.4byte	.LFE55-.LFB55
 11351 01c8 00000000 		.4byte	.LFB56
 11352 01cc 14000000 		.4byte	.LFE56-.LFB56
 11353 01d0 00000000 		.4byte	.LFB57
 11354 01d4 1E000000 		.4byte	.LFE57-.LFB57
 11355 01d8 00000000 		.4byte	.LFB58
 11356 01dc 02000000 		.4byte	.LFE58-.LFB58
 11357 01e0 00000000 		.4byte	.LFB59
 11358 01e4 0C000000 		.4byte	.LFE59-.LFB59
 11359 01e8 00000000 		.4byte	.LFB60
 11360 01ec 22000000 		.4byte	.LFE60-.LFB60
 11361 01f0 00000000 		.4byte	.LFB61
 11362 01f4 84000000 		.4byte	.LFE61-.LFB61
 11363 01f8 00000000 		.4byte	.LFB62
 11364 01fc 42000000 		.4byte	.LFE62-.LFB62
 11365 0200 00000000 		.4byte	.LFB63
 11366 0204 D6000000 		.4byte	.LFE63-.LFB63
 11367 0208 00000000 		.4byte	0
 11368 020c 00000000 		.4byte	0
 11369              		.section	.debug_ranges,"",%progbits
 11370              	.Ldebug_ranges0:
 11371 0000 1E000000 		.4byte	.LBB7
 11372 0004 3A000000 		.4byte	.LBE7
 11373 0008 54000000 		.4byte	.LBB8
 11374 000c 56000000 		.4byte	.LBE8
 11375 0010 00000000 		.4byte	0
 11376 0014 00000000 		.4byte	0
 11377 0018 00000000 		.4byte	.LFB3
 11378 001c 08000000 		.4byte	.LFE3
 11379 0020 00000000 		.4byte	.LFB4
 11380 0024 0C000000 		.4byte	.LFE4
 11381 0028 00000000 		.4byte	.LFB5
 11382 002c 0E000000 		.4byte	.LFE5
 11383 0030 00000000 		.4byte	.LFB6
 11384 0034 08000000 		.4byte	.LFE6
 11385 0038 00000000 		.4byte	.LFB7
 11386 003c 0A000000 		.4byte	.LFE7
 11387 0040 00000000 		.4byte	.LFB8
 11388 0044 0A000000 		.4byte	.LFE8
 11389 0048 00000000 		.4byte	.LFB9
 11390 004c 08000000 		.4byte	.LFE9
 11391 0050 00000000 		.4byte	.LFB10
 11392 0054 0A000000 		.4byte	.LFE10
 11393 0058 00000000 		.4byte	.LFB11
 11394 005c 0A000000 		.4byte	.LFE11
 11395 0060 00000000 		.4byte	.LFB12
 11396 0064 04000000 		.4byte	.LFE12
 11397 0068 00000000 		.4byte	.LFB13
 11398 006c 04000000 		.4byte	.LFE13
 11399 0070 00000000 		.4byte	.LFB14
 11400 0074 04000000 		.4byte	.LFE14
 11401 0078 00000000 		.4byte	.LFB15
 11402 007c 12000000 		.4byte	.LFE15
 11403 0080 00000000 		.4byte	.LFB16
 11404 0084 2A000000 		.4byte	.LFE16
 11405 0088 00000000 		.4byte	.LFB17
ARM GAS  C:\Users\haske\AppData\Local\Temp\ccswauRt.s 			page 226


 11406 008c 0C000000 		.4byte	.LFE17
 11407 0090 00000000 		.4byte	.LFB18
 11408 0094 14000000 		.4byte	.LFE18
 11409 0098 00000000 		.4byte	.LFB19
 11410 009c 14000000 		.4byte	.LFE19
 11411 00a0 00000000 		.4byte	.LFB20
 11412 00a4 12000000 		.4byte	.LFE20
 11413 00a8 00000000 		.4byte	.LFB21
 11414 00ac 0E000000 		.4byte	.LFE21
 11415 00b0 00000000 		.4byte	.LFB22
 11416 00b4 12000000 		.4byte	.LFE22
 11417 00b8 00000000 		.4byte	.LFB23
 11418 00bc 24000000 		.4byte	.LFE23
 11419 00c0 00000000 		.4byte	.LFB27
 11420 00c4 54000000 		.4byte	.LFE27
 11421 00c8 00000000 		.4byte	.LFB28
 11422 00cc 6C000000 		.4byte	.LFE28
 11423 00d0 00000000 		.4byte	.LFB31
 11424 00d4 14000000 		.4byte	.LFE31
 11425 00d8 00000000 		.4byte	.LFB32
 11426 00dc 66000000 		.4byte	.LFE32
 11427 00e0 00000000 		.4byte	.LFB33
 11428 00e4 2A000000 		.4byte	.LFE33
 11429 00e8 00000000 		.4byte	.LFB41
 11430 00ec 36000000 		.4byte	.LFE41
 11431 00f0 00000000 		.4byte	.LFB42
 11432 00f4 5E000000 		.4byte	.LFE42
 11433 00f8 00000000 		.4byte	.LFB44
 11434 00fc 02000000 		.4byte	.LFE44
 11435 0100 00000000 		.4byte	.LFB2
 11436 0104 16000000 		.4byte	.LFE2
 11437 0108 00000000 		.4byte	.LFB24
 11438 010c 2E000000 		.4byte	.LFE24
 11439 0110 00000000 		.4byte	.LFB30
 11440 0114 26000000 		.4byte	.LFE30
 11441 0118 00000000 		.4byte	.LFB36
 11442 011c 40000000 		.4byte	.LFE36
 11443 0120 00000000 		.4byte	.LFB40
 11444 0124 22000000 		.4byte	.LFE40
 11445 0128 00000000 		.4byte	.LFB38
 11446 012c 36000000 		.4byte	.LFE38
 11447 0130 00000000 		.4byte	.LFB29
 11448 0134 26000000 		.4byte	.LFE29
 11449 0138 00000000 		.4byte	.LFB34
 11450 013c 3C000000 		.4byte	.LFE34
 11451 0140 00000000 		.4byte	.LFB35
 11452 0144 3C000000 		.4byte	.LFE35
 11453 0148 00000000 		.4byte	.LFB37
 11454 014c 40000000 		.4byte	.LFE37
 11455 0150 00000000 		.4byte	.LFB25
 11456 0154 26000000 		.4byte	.LFE25
 11457 0158 00000000 		.4byte	.LFB1
 11458 015c 0A000000 		.4byte	.LFE1
 11459 0160 00000000 		.4byte	.LFB26
 11460 0164 58000000 		.4byte	.LFE26
 11461 0168 00000000 		.4byte	.LFB39
 11462 016c 58000000 		.4byte	.LFE39
ARM GAS  C:\Users\haske\AppData\Local\Temp\ccswauRt.s 			page 227


 11463 0170 00000000 		.4byte	.LFB43
 11464 0174 1C010000 		.4byte	.LFE43
 11465 0178 00000000 		.4byte	.LFB45
 11466 017c 58000000 		.4byte	.LFE45
 11467 0180 00000000 		.4byte	.LFB46
 11468 0184 14000000 		.4byte	.LFE46
 11469 0188 00000000 		.4byte	.LFB47
 11470 018c 1C000000 		.4byte	.LFE47
 11471 0190 00000000 		.4byte	.LFB48
 11472 0194 08000000 		.4byte	.LFE48
 11473 0198 00000000 		.4byte	.LFB49
 11474 019c 04000000 		.4byte	.LFE49
 11475 01a0 00000000 		.4byte	.LFB50
 11476 01a4 04000000 		.4byte	.LFE50
 11477 01a8 00000000 		.4byte	.LFB51
 11478 01ac 06000000 		.4byte	.LFE51
 11479 01b0 00000000 		.4byte	.LFB52
 11480 01b4 04000000 		.4byte	.LFE52
 11481 01b8 00000000 		.4byte	.LFB53
 11482 01bc 04000000 		.4byte	.LFE53
 11483 01c0 00000000 		.4byte	.LFB54
 11484 01c4 74000000 		.4byte	.LFE54
 11485 01c8 00000000 		.4byte	.LFB55
 11486 01cc 5E000000 		.4byte	.LFE55
 11487 01d0 00000000 		.4byte	.LFB56
 11488 01d4 14000000 		.4byte	.LFE56
 11489 01d8 00000000 		.4byte	.LFB57
 11490 01dc 1E000000 		.4byte	.LFE57
 11491 01e0 00000000 		.4byte	.LFB58
 11492 01e4 02000000 		.4byte	.LFE58
 11493 01e8 00000000 		.4byte	.LFB59
 11494 01ec 0C000000 		.4byte	.LFE59
 11495 01f0 00000000 		.4byte	.LFB60
 11496 01f4 22000000 		.4byte	.LFE60
 11497 01f8 00000000 		.4byte	.LFB61
 11498 01fc 84000000 		.4byte	.LFE61
 11499 0200 00000000 		.4byte	.LFB62
 11500 0204 42000000 		.4byte	.LFE62
 11501 0208 00000000 		.4byte	.LFB63
 11502 020c D6000000 		.4byte	.LFE63
 11503 0210 00000000 		.4byte	0
 11504 0214 00000000 		.4byte	0
 11505              		.section	.debug_line,"",%progbits
 11506              	.Ldebug_line0:
 11507 0000 8B070000 		.section	.debug_str,"MS",%progbits,1
 11507      0200F700 
 11507      00000201 
 11507      FB0E0D00 
 11507      01010101 
 11508              	.LASF23:
 11509 0000 534C5F49 		.ascii	"SL_INDEX_COUNT\000"
 11509      4E444558 
 11509      5F434F55 
 11509      4E5400
 11510              	.LASF146:
 11511 000f 626C6F63 		.ascii	"block_start_offset\000"
 11511      6B5F7374 
ARM GAS  C:\Users\haske\AppData\Local\Temp\ccswauRt.s 			page 228


 11511      6172745F 
 11511      6F666673 
 11511      657400
 11512              	.LASF30:
 11513 0022 70726576 		.ascii	"prev_free\000"
 11513      5F667265 
 11513      6500
 11514              	.LASF27:
 11515 002c 70726576 		.ascii	"prev_phys_block\000"
 11515      5F706879 
 11515      735F626C 
 11515      6F636B00 
 11516              	.LASF69:
 11517 003c 636F6E74 		.ascii	"control\000"
 11517      726F6C00 
 11518              	.LASF8:
 11519 0044 756E7369 		.ascii	"unsigned int\000"
 11519      676E6564 
 11519      20696E74 
 11519      00
 11520              	.LASF57:
 11521 0051 6E657874 		.ascii	"next\000"
 11521      00
 11522              	.LASF66:
 11523 0056 61646A75 		.ascii	"adjust_request_size\000"
 11523      73745F72 
 11523      65717565 
 11523      73745F73 
 11523      697A6500 
 11524              	.LASF92:
 11525 006a 72656D61 		.ascii	"remaining_block\000"
 11525      696E696E 
 11525      675F626C 
 11525      6F636B00 
 11526              	.LASF141:
 11527 007a 636F6D62 		.ascii	"combined\000"
 11527      696E6564 
 11527      00
 11528              	.LASF104:
 11529 0083 666C5F6D 		.ascii	"fl_map\000"
 11529      617000
 11530              	.LASF123:
 11531 008a 706F6F6C 		.ascii	"pool_bytes\000"
 11531      5F627974 
 11531      657300
 11532              	.LASF65:
 11533 0095 616C6967 		.ascii	"aligned\000"
 11533      6E656400 
 11534              	.LASF13:
 11535 009d 6C765F70 		.ascii	"lv_pool_t\000"
 11535      6F6F6C5F 
 11535      7400
 11536              	.LASF29:
 11537 00a7 6E657874 		.ascii	"next_free\000"
 11537      5F667265 
 11537      6500
 11538              	.LASF70:
ARM GAS  C:\Users\haske\AppData\Local\Temp\ccswauRt.s 			page 229


 11539 00b1 70726576 		.ascii	"prev\000"
 11539      00
 11540              	.LASF127:
 11541 00b6 6C765F74 		.ascii	"lv_tlsf_create_with_pool\000"
 11541      6C73665F 
 11541      63726561 
 11541      74655F77 
 11541      6974685F 
 11542              	.LASF137:
 11543 00cf 6E657874 		.ascii	"next_aligned\000"
 11543      5F616C69 
 11543      676E6564 
 11543      00
 11544              	.LASF25:
 11545 00dc 464C5F49 		.ascii	"FL_INDEX_COUNT\000"
 11545      4E444558 
 11545      5F434F55 
 11545      4E5400
 11546              	.LASF138:
 11547 00eb 6C765F74 		.ascii	"lv_tlsf_free\000"
 11547      6C73665F 
 11547      66726565 
 11547      00
 11548              	.LASF84:
 11549 00f8 74686973 		.ascii	"this_status\000"
 11549      5F737461 
 11549      74757300 
 11550              	.LASF22:
 11551 0104 464C5F49 		.ascii	"FL_INDEX_MAX\000"
 11551      4E444558 
 11551      5F4D4158 
 11551      00
 11552              	.LASF51:
 11553 0111 626C6F63 		.ascii	"block_from_ptr\000"
 11553      6B5F6672 
 11553      6F6D5F70 
 11553      747200
 11554              	.LASF54:
 11555 0120 626C6F63 		.ascii	"block_prev\000"
 11555      6B5F7072 
 11555      657600
 11556              	.LASF83:
 11557 012b 74686973 		.ascii	"this_prev_status\000"
 11557      5F707265 
 11557      765F7374 
 11557      61747573 
 11557      00
 11558              	.LASF39:
 11559 013c 70726576 		.ascii	"prev_status\000"
 11559      5F737461 
 11559      74757300 
 11560              	.LASF152:
 11561 0148 6C765F6D 		.ascii	"lv_memcpy\000"
 11561      656D6370 
 11561      7900
 11562              	.LASF97:
 11563 0152 626C6F63 		.ascii	"block_merge_next\000"
ARM GAS  C:\Users\haske\AppData\Local\Temp\ccswauRt.s 			page 230


 11563      6B5F6D65 
 11563      7267655F 
 11563      6E657874 
 11563      00
 11564              	.LASF31:
 11565 0163 626C6F63 		.ascii	"block_header_t\000"
 11565      6B5F6865 
 11565      61646572 
 11565      5F7400
 11566              	.LASF149:
 11567 0172 474E5520 		.ascii	"GNU C11 5.4.1 20160609 (release) [ARM/embedded-5-br"
 11567      43313120 
 11567      352E342E 
 11567      31203230 
 11567      31363036 
 11568 01a5 616E6368 		.ascii	"anch revision 237715] -mcpu=cortex-m0plus -mthumb -"
 11568      20726576 
 11568      6973696F 
 11568      6E203233 
 11568      37373135 
 11569 01d8 67202D4F 		.ascii	"g -Og -ffunction-sections -ffat-lto-objects\000"
 11569      67202D66 
 11569      66756E63 
 11569      74696F6E 
 11569      2D736563 
 11570              	.LASF113:
 11571 0204 6C765F74 		.ascii	"lv_tlsf_check_pool\000"
 11571      6C73665F 
 11571      63686563 
 11571      6B5F706F 
 11571      6F6C00
 11572              	.LASF116:
 11573 0217 6C765F74 		.ascii	"lv_tlsf_block_size_min\000"
 11573      6C73665F 
 11573      626C6F63 
 11573      6B5F7369 
 11573      7A655F6D 
 11574              	.LASF130:
 11575 022e 6C765F74 		.ascii	"lv_tlsf_malloc\000"
 11575      6C73665F 
 11575      6D616C6C 
 11575      6F6300
 11576              	.LASF7:
 11577 023d 6C6F6E67 		.ascii	"long long unsigned int\000"
 11577      206C6F6E 
 11577      6720756E 
 11577      7369676E 
 11577      65642069 
 11578              	.LASF119:
 11579 0254 6C765F74 		.ascii	"lv_tlsf_alloc_overhead\000"
 11579      6C73665F 
 11579      616C6C6F 
 11579      635F6F76 
 11579      65726865 
 11580              	.LASF109:
 11581 026b 77616C6B 		.ascii	"walker\000"
 11581      657200
ARM GAS  C:\Users\haske\AppData\Local\Temp\ccswauRt.s 			page 231


 11582              	.LASF122:
 11583 0272 706F6F6C 		.ascii	"pool_overhead\000"
 11583      5F6F7665 
 11583      72686561 
 11583      6400
 11584              	.LASF14:
 11585 0280 6C765F74 		.ascii	"lv_tlsf_walker\000"
 11585      6C73665F 
 11585      77616C6B 
 11585      657200
 11586              	.LASF24:
 11587 028f 464C5F49 		.ascii	"FL_INDEX_SHIFT\000"
 11587      4E444558 
 11587      5F534849 
 11587      465400
 11588              	.LASF126:
 11589 029e 6C765F74 		.ascii	"lv_tlsf_create\000"
 11589      6C73665F 
 11589      63726561 
 11589      746500
 11590              	.LASF150:
 11591 02ad 2E2E5C2E 		.ascii	"..\\..\\..\\arduinoLCD\\test\\Pain Drain\\libraries"
 11591      2E5C2E2E 
 11591      5C617264 
 11591      75696E6F 
 11591      4C43445C 
 11592 02da 5C6C7667 		.ascii	"\\lvgl\\src\\misc\\lv_tlsf.c\000"
 11592      6C5C7372 
 11592      635C6D69 
 11592      73635C6C 
 11592      765F746C 
 11593              	.LASF96:
 11594 02f3 626C6F63 		.ascii	"block_merge_prev\000"
 11594      6B5F6D65 
 11594      7267655F 
 11594      70726576 
 11594      00
 11595              	.LASF120:
 11596 0304 6C765F74 		.ascii	"lv_tlsf_add_pool\000"
 11596      6C73665F 
 11596      6164645F 
 11596      706F6F6C 
 11596      00
 11597              	.LASF80:
 11598 0315 75736564 		.ascii	"used\000"
 11598      00
 11599              	.LASF102:
 11600 031a 73656172 		.ascii	"search_suitable_block\000"
 11600      63685F73 
 11600      75697461 
 11600      626C655F 
 11600      626C6F63 
 11601              	.LASF81:
 11602 0330 75736572 		.ascii	"user\000"
 11602      00
 11603              	.LASF26:
 11604 0335 534D414C 		.ascii	"SMALL_BLOCK_SIZE\000"
ARM GAS  C:\Users\haske\AppData\Local\Temp\ccswauRt.s 			page 232


 11604      4C5F424C 
 11604      4F434B5F 
 11604      53495A45 
 11604      00
 11605              	.LASF10:
 11606 0346 73697A65 		.ascii	"size_t\000"
 11606      5F7400
 11607              	.LASF136:
 11608 034d 6F666673 		.ascii	"offset\000"
 11608      657400
 11609              	.LASF46:
 11610 0354 626C6F63 		.ascii	"block_set_free\000"
 11610      6B5F7365 
 11610      745F6672 
 11610      656500
 11611              	.LASF99:
 11612 0363 6D617070 		.ascii	"mapping_search\000"
 11612      696E675F 
 11612      73656172 
 11612      636800
 11613              	.LASF87:
 11614 0372 746C7366 		.ascii	"tlsf_fls\000"
 11614      5F666C73 
 11614      00
 11615              	.LASF135:
 11616 037b 6761705F 		.ascii	"gap_remain\000"
 11616      72656D61 
 11616      696E00
 11617              	.LASF18:
 11618 0386 746C7366 		.ascii	"tlsf_private\000"
 11618      5F707269 
 11618      76617465 
 11618      00
 11619              	.LASF89:
 11620 0393 6D617070 		.ascii	"mapping_insert\000"
 11620      696E675F 
 11620      696E7365 
 11620      727400
 11621              	.LASF144:
 11622 03a2 626C6F63 		.ascii	"block_header_prev_free_bit\000"
 11622      6B5F6865 
 11622      61646572 
 11622      5F707265 
 11622      765F6672 
 11623              	.LASF78:
 11624 03bd 636F6E74 		.ascii	"control_constructor\000"
 11624      726F6C5F 
 11624      636F6E73 
 11624      74727563 
 11624      746F7200 
 11625              	.LASF147:
 11626 03d1 626C6F63 		.ascii	"block_size_min\000"
 11626      6B5F7369 
 11626      7A655F6D 
 11626      696E00
 11627              	.LASF47:
 11628 03e0 626C6F63 		.ascii	"block_set_used\000"
ARM GAS  C:\Users\haske\AppData\Local\Temp\ccswauRt.s 			page 233


 11628      6B5F7365 
 11628      745F7573 
 11628      656400
 11629              	.LASF16:
 11630 03ef 63686172 		.ascii	"char\000"
 11630      00
 11631              	.LASF71:
 11632 03f4 696E7365 		.ascii	"insert_free_block\000"
 11632      72745F66 
 11632      7265655F 
 11632      626C6F63 
 11632      6B00
 11633              	.LASF111:
 11634 0406 6C765F74 		.ascii	"lv_tlsf_check\000"
 11634      6C73665F 
 11634      63686563 
 11634      6B00
 11635              	.LASF9:
 11636 0414 70747264 		.ascii	"ptrdiff_t\000"
 11636      6966665F 
 11636      7400
 11637              	.LASF142:
 11638 041e 6D696E73 		.ascii	"minsize\000"
 11638      697A6500 
 11639              	.LASF115:
 11640 0426 6C765F74 		.ascii	"lv_tlsf_align_size\000"
 11640      6C73665F 
 11640      616C6967 
 11640      6E5F7369 
 11640      7A6500
 11641              	.LASF40:
 11642 0439 73746174 		.ascii	"status\000"
 11642      757300
 11643              	.LASF59:
 11644 0440 626C6F63 		.ascii	"block_mark_as_free\000"
 11644      6B5F6D61 
 11644      726B5F61 
 11644      735F6672 
 11644      656500
 11645              	.LASF61:
 11646 0453 616C6967 		.ascii	"align_up\000"
 11646      6E5F7570 
 11646      00
 11647              	.LASF114:
 11648 045c 6C765F74 		.ascii	"lv_tlsf_size\000"
 11648      6C73665F 
 11648      73697A65 
 11648      00
 11649              	.LASF68:
 11650 0469 72656D6F 		.ascii	"remove_free_block\000"
 11650      76655F66 
 11650      7265655F 
 11650      626C6F63 
 11650      6B00
 11651              	.LASF6:
 11652 047b 6C6F6E67 		.ascii	"long long int\000"
 11652      206C6F6E 
ARM GAS  C:\Users\haske\AppData\Local\Temp\ccswauRt.s 			page 234


 11652      6720696E 
 11652      7400
 11653              	.LASF58:
 11654 0489 626C6F63 		.ascii	"block_link_next\000"
 11654      6B5F6C69 
 11654      6E6B5F6E 
 11654      65787400 
 11655              	.LASF107:
 11656 0499 736C5F6C 		.ascii	"sl_list\000"
 11656      69737400 
 11657              	.LASF145:
 11658 04a1 626C6F63 		.ascii	"block_header_overhead\000"
 11658      6B5F6865 
 11658      61646572 
 11658      5F6F7665 
 11658      72686561 
 11659              	.LASF151:
 11660 04b7 433A5C50 		.ascii	"C:\\Projects\\PainDrain\\firmware\\PainDrain\\PainD"
 11660      726F6A65 
 11660      6374735C 
 11660      5061696E 
 11660      44726169 
 11661 04e5 7261696E 		.ascii	"rain.cydsn\000"
 11661      2E637964 
 11661      736E00
 11662              	.LASF60:
 11663 04f0 626C6F63 		.ascii	"block_mark_as_used\000"
 11663      6B5F6D61 
 11663      726B5F61 
 11663      735F7573 
 11663      656400
 11664              	.LASF132:
 11665 0503 6761705F 		.ascii	"gap_minimum\000"
 11665      6D696E69 
 11665      6D756D00 
 11666              	.LASF110:
 11667 050f 706F6F6C 		.ascii	"pool_walker\000"
 11667      5F77616C 
 11667      6B657200 
 11668              	.LASF12:
 11669 051b 6C765F74 		.ascii	"lv_tlsf_t\000"
 11669      6C73665F 
 11669      7400
 11670              	.LASF28:
 11671 0525 73697A65 		.ascii	"size\000"
 11671      00
 11672              	.LASF21:
 11673 052a 414C4947 		.ascii	"ALIGN_SIZE\000"
 11673      4E5F5349 
 11673      5A4500
 11674              	.LASF19:
 11675 0535 534C5F49 		.ascii	"SL_INDEX_COUNT_LOG2\000"
 11675      4E444558 
 11675      5F434F55 
 11675      4E545F4C 
 11675      4F473200 
 11676              	.LASF35:
ARM GAS  C:\Users\haske\AppData\Local\Temp\ccswauRt.s 			page 235


 11677 0549 736C5F62 		.ascii	"sl_bitmap\000"
 11677      69746D61 
 11677      7000
 11678              	.LASF124:
 11679 0553 6C765F74 		.ascii	"lv_tlsf_walk_pool\000"
 11679      6C73665F 
 11679      77616C6B 
 11679      5F706F6F 
 11679      6C00
 11680              	.LASF36:
 11681 0565 626C6F63 		.ascii	"blocks\000"
 11681      6B7300
 11682              	.LASF108:
 11683 056c 706F6F6C 		.ascii	"pool\000"
 11683      00
 11684              	.LASF55:
 11685 0571 626C6F63 		.ascii	"block_next\000"
 11685      6B5F6E65 
 11685      787400
 11686              	.LASF90:
 11687 057c 626C6F63 		.ascii	"block_insert\000"
 11687      6B5F696E 
 11687      73657274 
 11687      00
 11688              	.LASF43:
 11689 0589 626C6F63 		.ascii	"block_is_last\000"
 11689      6B5F6973 
 11689      5F6C6173 
 11689      7400
 11690              	.LASF85:
 11691 0597 74686973 		.ascii	"this_block_size\000"
 11691      5F626C6F 
 11691      636B5F73 
 11691      697A6500 
 11692              	.LASF105:
 11693 05a7 626C6F63 		.ascii	"block_locate_free\000"
 11693      6B5F6C6F 
 11693      63617465 
 11693      5F667265 
 11693      6500
 11694              	.LASF11:
 11695 05b9 6C6F6E67 		.ascii	"long double\000"
 11695      20646F75 
 11695      626C6500 
 11696              	.LASF64:
 11697 05c5 616C6967 		.ascii	"align_ptr\000"
 11697      6E5F7074 
 11697      7200
 11698              	.LASF67:
 11699 05cf 61646A75 		.ascii	"adjust\000"
 11699      737400
 11700              	.LASF45:
 11701 05d6 626C6F63 		.ascii	"block_set_size\000"
 11701      6B5F7365 
 11701      745F7369 
 11701      7A6500
 11702              	.LASF93:
ARM GAS  C:\Users\haske\AppData\Local\Temp\ccswauRt.s 			page 236


 11703 05e5 626C6F63 		.ascii	"block_prepare_used\000"
 11703      6B5F7072 
 11703      65706172 
 11703      655F7573 
 11703      656400
 11704              	.LASF2:
 11705 05f8 73686F72 		.ascii	"short int\000"
 11705      7420696E 
 11705      7400
 11706              	.LASF129:
 11707 0602 6C765F74 		.ascii	"lv_tlsf_get_pool\000"
 11707      6C73665F 
 11707      6765745F 
 11707      706F6F6C 
 11707      00
 11708              	.LASF4:
 11709 0613 6C6F6E67 		.ascii	"long int\000"
 11709      20696E74 
 11709      00
 11710              	.LASF121:
 11711 061c 62797465 		.ascii	"bytes\000"
 11711      7300
 11712              	.LASF33:
 11713 0622 626C6F63 		.ascii	"block_null\000"
 11713      6B5F6E75 
 11713      6C6C00
 11714              	.LASF79:
 11715 062d 696E7465 		.ascii	"integrity_walker\000"
 11715      67726974 
 11715      795F7761 
 11715      6C6B6572 
 11715      00
 11716              	.LASF76:
 11717 063e 72656D61 		.ascii	"remain_size\000"
 11717      696E5F73 
 11717      697A6500 
 11718              	.LASF134:
 11719 064a 616C6967 		.ascii	"aligned_size\000"
 11719      6E65645F 
 11719      73697A65 
 11719      00
 11720              	.LASF117:
 11721 0657 6C765F74 		.ascii	"lv_tlsf_block_size_max\000"
 11721      6C73665F 
 11721      626C6F63 
 11721      6B5F7369 
 11721      7A655F6D 
 11722              	.LASF88:
 11723 066e 776F7264 		.ascii	"word\000"
 11723      00
 11724              	.LASF42:
 11725 0673 626C6F63 		.ascii	"block_size\000"
 11725      6B5F7369 
 11725      7A6500
 11726              	.LASF75:
 11727 067e 72656D61 		.ascii	"remaining\000"
 11727      696E696E 
ARM GAS  C:\Users\haske\AppData\Local\Temp\ccswauRt.s 			page 237


 11727      6700
 11728              	.LASF41:
 11729 0688 626C6F63 		.ascii	"block\000"
 11729      6B00
 11730              	.LASF17:
 11731 068e 746C7366 		.ascii	"tlsf_public\000"
 11731      5F707562 
 11731      6C696300 
 11732              	.LASF112:
 11733 069a 6C765F74 		.ascii	"lv_tlsf_block_size\000"
 11733      6C73665F 
 11733      626C6F63 
 11733      6B5F7369 
 11733      7A6500
 11734              	.LASF73:
 11735 06ad 626C6F63 		.ascii	"block_can_split\000"
 11735      6B5F6361 
 11735      6E5F7370 
 11735      6C697400 
 11736              	.LASF131:
 11737 06bd 6C765F74 		.ascii	"lv_tlsf_memalign\000"
 11737      6C73665F 
 11737      6D656D61 
 11737      6C69676E 
 11737      00
 11738              	.LASF74:
 11739 06ce 626C6F63 		.ascii	"block_split\000"
 11739      6B5F7370 
 11739      6C697400 
 11740              	.LASF143:
 11741 06da 626C6F63 		.ascii	"block_header_free_bit\000"
 11741      6B5F6865 
 11741      61646572 
 11741      5F667265 
 11741      655F6269 
 11742              	.LASF15:
 11743 06f0 73697A65 		.ascii	"sizetype\000"
 11743      74797065 
 11743      00
 11744              	.LASF5:
 11745 06f9 6C6F6E67 		.ascii	"long unsigned int\000"
 11745      20756E73 
 11745      69676E65 
 11745      6420696E 
 11745      7400
 11746              	.LASF32:
 11747 070b 636F6E74 		.ascii	"control_t\000"
 11747      726F6C5F 
 11747      7400
 11748              	.LASF91:
 11749 0715 626C6F63 		.ascii	"block_trim_free\000"
 11749      6B5F7472 
 11749      696D5F66 
 11749      72656500 
 11750              	.LASF37:
 11751 0725 746C7366 		.ascii	"tlsfptr_t\000"
 11751      7074725F 
ARM GAS  C:\Users\haske\AppData\Local\Temp\ccswauRt.s 			page 238


 11751      7400
 11752              	.LASF1:
 11753 072f 756E7369 		.ascii	"unsigned char\000"
 11753      676E6564 
 11753      20636861 
 11753      7200
 11754              	.LASF20:
 11755 073d 414C4947 		.ascii	"ALIGN_SIZE_LOG2\000"
 11755      4E5F5349 
 11755      5A455F4C 
 11755      4F473200 
 11756              	.LASF98:
 11757 074d 626C6F63 		.ascii	"block_trim_used\000"
 11757      6B5F7472 
 11757      696D5F75 
 11757      73656400 
 11758              	.LASF38:
 11759 075d 696E7465 		.ascii	"integrity_t\000"
 11759      67726974 
 11759      795F7400 
 11760              	.LASF148:
 11761 0769 626C6F63 		.ascii	"block_size_max\000"
 11761      6B5F7369 
 11761      7A655F6D 
 11761      617800
 11762              	.LASF34:
 11763 0778 666C5F62 		.ascii	"fl_bitmap\000"
 11763      69746D61 
 11763      7000
 11764              	.LASF48:
 11765 0782 626C6F63 		.ascii	"block_is_prev_free\000"
 11765      6B5F6973 
 11765      5F707265 
 11765      765F6672 
 11765      656500
 11766              	.LASF140:
 11767 0795 63757273 		.ascii	"cursize\000"
 11767      697A6500 
 11768              	.LASF106:
 11769 079d 746C7366 		.ascii	"tlsf\000"
 11769      00
 11770              	.LASF49:
 11771 07a2 626C6F63 		.ascii	"block_set_prev_free\000"
 11771      6B5F7365 
 11771      745F7072 
 11771      65765F66 
 11771      72656500 
 11772              	.LASF100:
 11773 07b6 726F756E 		.ascii	"round\000"
 11773      6400
 11774              	.LASF82:
 11775 07bc 696E7465 		.ascii	"integ\000"
 11775      6700
 11776              	.LASF128:
 11777 07c2 6C765F74 		.ascii	"lv_tlsf_destroy\000"
 11777      6C73665F 
 11777      64657374 
ARM GAS  C:\Users\haske\AppData\Local\Temp\ccswauRt.s 			page 239


 11777      726F7900 
 11778              	.LASF125:
 11779 07d2 6C765F74 		.ascii	"lv_tlsf_remove_pool\000"
 11779      6C73665F 
 11779      72656D6F 
 11779      76655F70 
 11779      6F6F6C00 
 11780              	.LASF0:
 11781 07e6 7369676E 		.ascii	"signed char\000"
 11781      65642063 
 11781      68617200 
 11782              	.LASF133:
 11783 07f2 73697A65 		.ascii	"size_with_gap\000"
 11783      5F776974 
 11783      685F6761 
 11783      7000
 11784              	.LASF3:
 11785 0800 73686F72 		.ascii	"short unsigned int\000"
 11785      7420756E 
 11785      7369676E 
 11785      65642069 
 11785      6E7400
 11786              	.LASF50:
 11787 0813 626C6F63 		.ascii	"block_set_prev_used\000"
 11787      6B5F7365 
 11787      745F7072 
 11787      65765F75 
 11787      73656400 
 11788              	.LASF52:
 11789 0827 626C6F63 		.ascii	"block_to_ptr\000"
 11789      6B5F746F 
 11789      5F707472 
 11789      00
 11790              	.LASF94:
 11791 0834 626C6F63 		.ascii	"block_trim_free_leading\000"
 11791      6B5F7472 
 11791      696D5F66 
 11791      7265655F 
 11791      6C656164 
 11792              	.LASF95:
 11793 084c 626C6F63 		.ascii	"block_remove\000"
 11793      6B5F7265 
 11793      6D6F7665 
 11793      00
 11794              	.LASF72:
 11795 0859 63757272 		.ascii	"current\000"
 11795      656E7400 
 11796              	.LASF139:
 11797 0861 6C765F74 		.ascii	"lv_tlsf_realloc\000"
 11797      6C73665F 
 11797      7265616C 
 11797      6C6F6300 
 11798              	.LASF77:
 11799 0871 626C6F63 		.ascii	"block_absorb\000"
 11799      6B5F6162 
 11799      736F7262 
 11799      00
ARM GAS  C:\Users\haske\AppData\Local\Temp\ccswauRt.s 			page 240


 11800              	.LASF63:
 11801 087e 616C6967 		.ascii	"align_down\000"
 11801      6E5F646F 
 11801      776E00
 11802              	.LASF44:
 11803 0889 626C6F63 		.ascii	"block_is_free\000"
 11803      6B5F6973 
 11803      5F667265 
 11803      6500
 11804              	.LASF62:
 11805 0897 616C6967 		.ascii	"align\000"
 11805      6E00
 11806              	.LASF101:
 11807 089d 746C7366 		.ascii	"tlsf_ffs\000"
 11807      5F666673 
 11807      00
 11808              	.LASF53:
 11809 08a6 6F666673 		.ascii	"offset_to_block\000"
 11809      65745F74 
 11809      6F5F626C 
 11809      6F636B00 
 11810              	.LASF56:
 11811 08b6 6F6C6473 		.ascii	"oldsize\000"
 11811      697A6500 
 11812              	.LASF86:
 11813 08be 64656661 		.ascii	"default_walker\000"
 11813      756C745F 
 11813      77616C6B 
 11813      657200
 11814              	.LASF118:
 11815 08cd 6C765F74 		.ascii	"lv_tlsf_pool_overhead\000"
 11815      6C73665F 
 11815      706F6F6C 
 11815      5F6F7665 
 11815      72686561 
 11816              	.LASF103:
 11817 08e3 736C5F6D 		.ascii	"sl_map\000"
 11817      617000
 11818              		.ident	"GCC: (GNU Tools for ARM Embedded Processors) 5.4.1 20160609 (release) [ARM/embedded-5-bran
