ARM GAS  C:\Users\haske\AppData\Local\Temp\ccg6iOQH.s 			page 1


   1              		.syntax unified
   2              		.cpu cortex-m0plus
   3              		.fpu softvfp
   4              		.eabi_attribute 20, 1
   5              		.eabi_attribute 21, 1
   6              		.eabi_attribute 23, 3
   7              		.eabi_attribute 24, 1
   8              		.eabi_attribute 25, 1
   9              		.eabi_attribute 26, 1
  10              		.eabi_attribute 30, 1
  11              		.eabi_attribute 34, 0
  12              		.eabi_attribute 18, 4
  13              		.thumb
  14              		.syntax unified
  15              		.file	"lv_txt.c"
  16              		.text
  17              	.Ltext0:
  18              		.cfi_sections	.debug_frame
  19              		.section	.text.lv_txt_utf8_size,"ax",%progbits
  20              		.align	2
  21              		.code	16
  22              		.thumb_func
  23              		.type	lv_txt_utf8_size, %function
  24              	lv_txt_utf8_size:
  25              	.LFB64:
  26              		.file 1 "..\\..\\..\\arduinoLCD\\test\\Pain Drain\\libraries\\lvgl\\src\\misc\\lv_txt.c"
   1:..\..\..\arduinoLCD\test\Pain Drain\libraries\lvgl\src\misc/lv_txt.c **** /**
   2:..\..\..\arduinoLCD\test\Pain Drain\libraries\lvgl\src\misc/lv_txt.c ****  * @file lv_txt.c
   3:..\..\..\arduinoLCD\test\Pain Drain\libraries\lvgl\src\misc/lv_txt.c ****  *
   4:..\..\..\arduinoLCD\test\Pain Drain\libraries\lvgl\src\misc/lv_txt.c ****  */
   5:..\..\..\arduinoLCD\test\Pain Drain\libraries\lvgl\src\misc/lv_txt.c **** 
   6:..\..\..\arduinoLCD\test\Pain Drain\libraries\lvgl\src\misc/lv_txt.c **** /*********************
   7:..\..\..\arduinoLCD\test\Pain Drain\libraries\lvgl\src\misc/lv_txt.c ****  *      INCLUDES
   8:..\..\..\arduinoLCD\test\Pain Drain\libraries\lvgl\src\misc/lv_txt.c ****  *********************/
   9:..\..\..\arduinoLCD\test\Pain Drain\libraries\lvgl\src\misc/lv_txt.c **** #include <stdarg.h>
  10:..\..\..\arduinoLCD\test\Pain Drain\libraries\lvgl\src\misc/lv_txt.c **** #include "lv_txt.h"
  11:..\..\..\arduinoLCD\test\Pain Drain\libraries\lvgl\src\misc/lv_txt.c **** #include "lv_txt_ap.h"
  12:..\..\..\arduinoLCD\test\Pain Drain\libraries\lvgl\src\misc/lv_txt.c **** #include "lv_math.h"
  13:..\..\..\arduinoLCD\test\Pain Drain\libraries\lvgl\src\misc/lv_txt.c **** #include "lv_log.h"
  14:..\..\..\arduinoLCD\test\Pain Drain\libraries\lvgl\src\misc/lv_txt.c **** #include "lv_mem.h"
  15:..\..\..\arduinoLCD\test\Pain Drain\libraries\lvgl\src\misc/lv_txt.c **** #include "lv_assert.h"
  16:..\..\..\arduinoLCD\test\Pain Drain\libraries\lvgl\src\misc/lv_txt.c **** 
  17:..\..\..\arduinoLCD\test\Pain Drain\libraries\lvgl\src\misc/lv_txt.c **** /*********************
  18:..\..\..\arduinoLCD\test\Pain Drain\libraries\lvgl\src\misc/lv_txt.c ****  *      DEFINES
  19:..\..\..\arduinoLCD\test\Pain Drain\libraries\lvgl\src\misc/lv_txt.c ****  *********************/
  20:..\..\..\arduinoLCD\test\Pain Drain\libraries\lvgl\src\misc/lv_txt.c **** #define NO_BREAK_FOUND UINT32_MAX
  21:..\..\..\arduinoLCD\test\Pain Drain\libraries\lvgl\src\misc/lv_txt.c **** 
  22:..\..\..\arduinoLCD\test\Pain Drain\libraries\lvgl\src\misc/lv_txt.c **** /**********************
  23:..\..\..\arduinoLCD\test\Pain Drain\libraries\lvgl\src\misc/lv_txt.c ****  *      TYPEDEFS
  24:..\..\..\arduinoLCD\test\Pain Drain\libraries\lvgl\src\misc/lv_txt.c ****  **********************/
  25:..\..\..\arduinoLCD\test\Pain Drain\libraries\lvgl\src\misc/lv_txt.c **** 
  26:..\..\..\arduinoLCD\test\Pain Drain\libraries\lvgl\src\misc/lv_txt.c **** /**********************
  27:..\..\..\arduinoLCD\test\Pain Drain\libraries\lvgl\src\misc/lv_txt.c ****  *  STATIC PROTOTYPES
  28:..\..\..\arduinoLCD\test\Pain Drain\libraries\lvgl\src\misc/lv_txt.c ****  **********************/
  29:..\..\..\arduinoLCD\test\Pain Drain\libraries\lvgl\src\misc/lv_txt.c **** 
  30:..\..\..\arduinoLCD\test\Pain Drain\libraries\lvgl\src\misc/lv_txt.c **** #if LV_TXT_ENC == LV_TXT_ENC_UTF8
  31:..\..\..\arduinoLCD\test\Pain Drain\libraries\lvgl\src\misc/lv_txt.c ****     static uint8_t lv_txt_utf8_size(const char * str);
ARM GAS  C:\Users\haske\AppData\Local\Temp\ccg6iOQH.s 			page 2


  32:..\..\..\arduinoLCD\test\Pain Drain\libraries\lvgl\src\misc/lv_txt.c ****     static uint32_t lv_txt_unicode_to_utf8(uint32_t letter_uni);
  33:..\..\..\arduinoLCD\test\Pain Drain\libraries\lvgl\src\misc/lv_txt.c ****     static uint32_t lv_txt_utf8_conv_wc(uint32_t c);
  34:..\..\..\arduinoLCD\test\Pain Drain\libraries\lvgl\src\misc/lv_txt.c ****     static uint32_t lv_txt_utf8_next(const char * txt, uint32_t * i);
  35:..\..\..\arduinoLCD\test\Pain Drain\libraries\lvgl\src\misc/lv_txt.c ****     static uint32_t lv_txt_utf8_prev(const char * txt, uint32_t * i_start);
  36:..\..\..\arduinoLCD\test\Pain Drain\libraries\lvgl\src\misc/lv_txt.c ****     static uint32_t lv_txt_utf8_get_byte_id(const char * txt, uint32_t utf8_id);
  37:..\..\..\arduinoLCD\test\Pain Drain\libraries\lvgl\src\misc/lv_txt.c ****     static uint32_t lv_txt_utf8_get_char_id(const char * txt, uint32_t byte_id);
  38:..\..\..\arduinoLCD\test\Pain Drain\libraries\lvgl\src\misc/lv_txt.c ****     static uint32_t lv_txt_utf8_get_length(const char * txt);
  39:..\..\..\arduinoLCD\test\Pain Drain\libraries\lvgl\src\misc/lv_txt.c **** #elif LV_TXT_ENC == LV_TXT_ENC_ASCII
  40:..\..\..\arduinoLCD\test\Pain Drain\libraries\lvgl\src\misc/lv_txt.c ****     static uint8_t lv_txt_iso8859_1_size(const char * str);
  41:..\..\..\arduinoLCD\test\Pain Drain\libraries\lvgl\src\misc/lv_txt.c ****     static uint32_t lv_txt_unicode_to_iso8859_1(uint32_t letter_uni);
  42:..\..\..\arduinoLCD\test\Pain Drain\libraries\lvgl\src\misc/lv_txt.c ****     static uint32_t lv_txt_iso8859_1_conv_wc(uint32_t c);
  43:..\..\..\arduinoLCD\test\Pain Drain\libraries\lvgl\src\misc/lv_txt.c ****     static uint32_t lv_txt_iso8859_1_next(const char * txt, uint32_t * i);
  44:..\..\..\arduinoLCD\test\Pain Drain\libraries\lvgl\src\misc/lv_txt.c ****     static uint32_t lv_txt_iso8859_1_prev(const char * txt, uint32_t * i_start);
  45:..\..\..\arduinoLCD\test\Pain Drain\libraries\lvgl\src\misc/lv_txt.c ****     static uint32_t lv_txt_iso8859_1_get_byte_id(const char * txt, uint32_t utf8_id);
  46:..\..\..\arduinoLCD\test\Pain Drain\libraries\lvgl\src\misc/lv_txt.c ****     static uint32_t lv_txt_iso8859_1_get_char_id(const char * txt, uint32_t byte_id);
  47:..\..\..\arduinoLCD\test\Pain Drain\libraries\lvgl\src\misc/lv_txt.c ****     static uint32_t lv_txt_iso8859_1_get_length(const char * txt);
  48:..\..\..\arduinoLCD\test\Pain Drain\libraries\lvgl\src\misc/lv_txt.c **** #endif
  49:..\..\..\arduinoLCD\test\Pain Drain\libraries\lvgl\src\misc/lv_txt.c **** /**********************
  50:..\..\..\arduinoLCD\test\Pain Drain\libraries\lvgl\src\misc/lv_txt.c ****  *  STATIC VARIABLES
  51:..\..\..\arduinoLCD\test\Pain Drain\libraries\lvgl\src\misc/lv_txt.c ****  **********************/
  52:..\..\..\arduinoLCD\test\Pain Drain\libraries\lvgl\src\misc/lv_txt.c **** 
  53:..\..\..\arduinoLCD\test\Pain Drain\libraries\lvgl\src\misc/lv_txt.c **** /**********************
  54:..\..\..\arduinoLCD\test\Pain Drain\libraries\lvgl\src\misc/lv_txt.c ****  *  GLOBAL VARIABLES
  55:..\..\..\arduinoLCD\test\Pain Drain\libraries\lvgl\src\misc/lv_txt.c ****  **********************/
  56:..\..\..\arduinoLCD\test\Pain Drain\libraries\lvgl\src\misc/lv_txt.c **** #if LV_TXT_ENC == LV_TXT_ENC_UTF8
  57:..\..\..\arduinoLCD\test\Pain Drain\libraries\lvgl\src\misc/lv_txt.c ****     uint8_t (*_lv_txt_encoded_size)(const char *)                   = lv_txt_utf8_size;
  58:..\..\..\arduinoLCD\test\Pain Drain\libraries\lvgl\src\misc/lv_txt.c ****     uint32_t (*_lv_txt_unicode_to_encoded)(uint32_t)                = lv_txt_unicode_to_utf8;
  59:..\..\..\arduinoLCD\test\Pain Drain\libraries\lvgl\src\misc/lv_txt.c ****     uint32_t (*_lv_txt_encoded_conv_wc)(uint32_t)                   = lv_txt_utf8_conv_wc;
  60:..\..\..\arduinoLCD\test\Pain Drain\libraries\lvgl\src\misc/lv_txt.c ****     uint32_t (*_lv_txt_encoded_next)(const char *, uint32_t *)      = lv_txt_utf8_next;
  61:..\..\..\arduinoLCD\test\Pain Drain\libraries\lvgl\src\misc/lv_txt.c ****     uint32_t (*_lv_txt_encoded_prev)(const char *, uint32_t *)      = lv_txt_utf8_prev;
  62:..\..\..\arduinoLCD\test\Pain Drain\libraries\lvgl\src\misc/lv_txt.c ****     uint32_t (*_lv_txt_encoded_get_byte_id)(const char *, uint32_t) = lv_txt_utf8_get_byte_id;
  63:..\..\..\arduinoLCD\test\Pain Drain\libraries\lvgl\src\misc/lv_txt.c ****     uint32_t (*_lv_txt_encoded_get_char_id)(const char *, uint32_t) = lv_txt_utf8_get_char_id;
  64:..\..\..\arduinoLCD\test\Pain Drain\libraries\lvgl\src\misc/lv_txt.c ****     uint32_t (*_lv_txt_get_encoded_length)(const char *)            = lv_txt_utf8_get_length;
  65:..\..\..\arduinoLCD\test\Pain Drain\libraries\lvgl\src\misc/lv_txt.c **** #elif LV_TXT_ENC == LV_TXT_ENC_ASCII
  66:..\..\..\arduinoLCD\test\Pain Drain\libraries\lvgl\src\misc/lv_txt.c ****     uint8_t (*_lv_txt_encoded_size)(const char *)                   = lv_txt_iso8859_1_size;
  67:..\..\..\arduinoLCD\test\Pain Drain\libraries\lvgl\src\misc/lv_txt.c ****     uint32_t (*_lv_txt_unicode_to_encoded)(uint32_t)                = lv_txt_unicode_to_iso8859_1;
  68:..\..\..\arduinoLCD\test\Pain Drain\libraries\lvgl\src\misc/lv_txt.c ****     uint32_t (*_lv_txt_encoded_conv_wc)(uint32_t)                   = lv_txt_iso8859_1_conv_wc;
  69:..\..\..\arduinoLCD\test\Pain Drain\libraries\lvgl\src\misc/lv_txt.c ****     uint32_t (*_lv_txt_encoded_next)(const char *, uint32_t *)      = lv_txt_iso8859_1_next;
  70:..\..\..\arduinoLCD\test\Pain Drain\libraries\lvgl\src\misc/lv_txt.c ****     uint32_t (*_lv_txt_encoded_prev)(const char *, uint32_t *)      = lv_txt_iso8859_1_prev;
  71:..\..\..\arduinoLCD\test\Pain Drain\libraries\lvgl\src\misc/lv_txt.c ****     uint32_t (*_lv_txt_encoded_get_byte_id)(const char *, uint32_t) = lv_txt_iso8859_1_get_byte_id;
  72:..\..\..\arduinoLCD\test\Pain Drain\libraries\lvgl\src\misc/lv_txt.c ****     uint32_t (*_lv_txt_encoded_get_char_id)(const char *, uint32_t)     = lv_txt_iso8859_1_get_char
  73:..\..\..\arduinoLCD\test\Pain Drain\libraries\lvgl\src\misc/lv_txt.c ****     uint32_t (*_lv_txt_get_encoded_length)(const char *)            = lv_txt_iso8859_1_get_length;
  74:..\..\..\arduinoLCD\test\Pain Drain\libraries\lvgl\src\misc/lv_txt.c **** 
  75:..\..\..\arduinoLCD\test\Pain Drain\libraries\lvgl\src\misc/lv_txt.c **** #endif
  76:..\..\..\arduinoLCD\test\Pain Drain\libraries\lvgl\src\misc/lv_txt.c **** 
  77:..\..\..\arduinoLCD\test\Pain Drain\libraries\lvgl\src\misc/lv_txt.c **** /**********************
  78:..\..\..\arduinoLCD\test\Pain Drain\libraries\lvgl\src\misc/lv_txt.c ****  *      MACROS
  79:..\..\..\arduinoLCD\test\Pain Drain\libraries\lvgl\src\misc/lv_txt.c ****  **********************/
  80:..\..\..\arduinoLCD\test\Pain Drain\libraries\lvgl\src\misc/lv_txt.c **** 
  81:..\..\..\arduinoLCD\test\Pain Drain\libraries\lvgl\src\misc/lv_txt.c **** #define LV_IS_ASCII(value)              ((value & 0x80U) == 0x00U)
  82:..\..\..\arduinoLCD\test\Pain Drain\libraries\lvgl\src\misc/lv_txt.c **** #define LV_IS_2BYTES_UTF8_CODE(value)   ((value & 0xE0U) == 0xC0U)
  83:..\..\..\arduinoLCD\test\Pain Drain\libraries\lvgl\src\misc/lv_txt.c **** #define LV_IS_3BYTES_UTF8_CODE(value)   ((value & 0xF0U) == 0xE0U)
  84:..\..\..\arduinoLCD\test\Pain Drain\libraries\lvgl\src\misc/lv_txt.c **** #define LV_IS_4BYTES_UTF8_CODE(value)   ((value & 0xF8U) == 0xF0U)
  85:..\..\..\arduinoLCD\test\Pain Drain\libraries\lvgl\src\misc/lv_txt.c **** #define LV_IS_INVALID_UTF8_CODE(value)  ((value & 0xC0U) != 0x80U)
  86:..\..\..\arduinoLCD\test\Pain Drain\libraries\lvgl\src\misc/lv_txt.c **** 
  87:..\..\..\arduinoLCD\test\Pain Drain\libraries\lvgl\src\misc/lv_txt.c **** /**********************
  88:..\..\..\arduinoLCD\test\Pain Drain\libraries\lvgl\src\misc/lv_txt.c ****  *   GLOBAL FUNCTIONS
ARM GAS  C:\Users\haske\AppData\Local\Temp\ccg6iOQH.s 			page 3


  89:..\..\..\arduinoLCD\test\Pain Drain\libraries\lvgl\src\misc/lv_txt.c ****  **********************/
  90:..\..\..\arduinoLCD\test\Pain Drain\libraries\lvgl\src\misc/lv_txt.c **** 
  91:..\..\..\arduinoLCD\test\Pain Drain\libraries\lvgl\src\misc/lv_txt.c **** void lv_txt_get_size(lv_point_t * size_res, const char * text, const lv_font_t * font, lv_coord_t l
  92:..\..\..\arduinoLCD\test\Pain Drain\libraries\lvgl\src\misc/lv_txt.c ****                      lv_coord_t line_space, lv_coord_t max_width, lv_text_flag_t flag)
  93:..\..\..\arduinoLCD\test\Pain Drain\libraries\lvgl\src\misc/lv_txt.c **** {
  94:..\..\..\arduinoLCD\test\Pain Drain\libraries\lvgl\src\misc/lv_txt.c ****     size_res->x = 0;
  95:..\..\..\arduinoLCD\test\Pain Drain\libraries\lvgl\src\misc/lv_txt.c ****     size_res->y = 0;
  96:..\..\..\arduinoLCD\test\Pain Drain\libraries\lvgl\src\misc/lv_txt.c **** 
  97:..\..\..\arduinoLCD\test\Pain Drain\libraries\lvgl\src\misc/lv_txt.c ****     if(text == NULL) return;
  98:..\..\..\arduinoLCD\test\Pain Drain\libraries\lvgl\src\misc/lv_txt.c ****     if(font == NULL) return;
  99:..\..\..\arduinoLCD\test\Pain Drain\libraries\lvgl\src\misc/lv_txt.c **** 
 100:..\..\..\arduinoLCD\test\Pain Drain\libraries\lvgl\src\misc/lv_txt.c ****     if(flag & LV_TEXT_FLAG_EXPAND) max_width = LV_COORD_MAX;
 101:..\..\..\arduinoLCD\test\Pain Drain\libraries\lvgl\src\misc/lv_txt.c **** 
 102:..\..\..\arduinoLCD\test\Pain Drain\libraries\lvgl\src\misc/lv_txt.c ****     uint32_t line_start     = 0;
 103:..\..\..\arduinoLCD\test\Pain Drain\libraries\lvgl\src\misc/lv_txt.c ****     uint32_t new_line_start = 0;
 104:..\..\..\arduinoLCD\test\Pain Drain\libraries\lvgl\src\misc/lv_txt.c ****     uint16_t letter_height = lv_font_get_line_height(font);
 105:..\..\..\arduinoLCD\test\Pain Drain\libraries\lvgl\src\misc/lv_txt.c **** 
 106:..\..\..\arduinoLCD\test\Pain Drain\libraries\lvgl\src\misc/lv_txt.c ****     /*Calc. the height and longest line*/
 107:..\..\..\arduinoLCD\test\Pain Drain\libraries\lvgl\src\misc/lv_txt.c ****     while(text[line_start] != '\0') {
 108:..\..\..\arduinoLCD\test\Pain Drain\libraries\lvgl\src\misc/lv_txt.c ****         new_line_start += _lv_txt_get_next_line(&text[line_start], font, letter_space, max_width, N
 109:..\..\..\arduinoLCD\test\Pain Drain\libraries\lvgl\src\misc/lv_txt.c **** 
 110:..\..\..\arduinoLCD\test\Pain Drain\libraries\lvgl\src\misc/lv_txt.c ****         if((unsigned long)size_res->y + (unsigned long)letter_height + (unsigned long)line_space > 
 111:..\..\..\arduinoLCD\test\Pain Drain\libraries\lvgl\src\misc/lv_txt.c ****             LV_LOG_WARN("lv_txt_get_size: integer overflow while calculating text height");
 112:..\..\..\arduinoLCD\test\Pain Drain\libraries\lvgl\src\misc/lv_txt.c ****             return;
 113:..\..\..\arduinoLCD\test\Pain Drain\libraries\lvgl\src\misc/lv_txt.c ****         }
 114:..\..\..\arduinoLCD\test\Pain Drain\libraries\lvgl\src\misc/lv_txt.c ****         else {
 115:..\..\..\arduinoLCD\test\Pain Drain\libraries\lvgl\src\misc/lv_txt.c ****             size_res->y += letter_height;
 116:..\..\..\arduinoLCD\test\Pain Drain\libraries\lvgl\src\misc/lv_txt.c ****             size_res->y += line_space;
 117:..\..\..\arduinoLCD\test\Pain Drain\libraries\lvgl\src\misc/lv_txt.c ****         }
 118:..\..\..\arduinoLCD\test\Pain Drain\libraries\lvgl\src\misc/lv_txt.c **** 
 119:..\..\..\arduinoLCD\test\Pain Drain\libraries\lvgl\src\misc/lv_txt.c ****         /*Calculate the longest line*/
 120:..\..\..\arduinoLCD\test\Pain Drain\libraries\lvgl\src\misc/lv_txt.c ****         lv_coord_t act_line_length = lv_txt_get_width(&text[line_start], new_line_start - line_star
 121:..\..\..\arduinoLCD\test\Pain Drain\libraries\lvgl\src\misc/lv_txt.c ****                                                       flag);
 122:..\..\..\arduinoLCD\test\Pain Drain\libraries\lvgl\src\misc/lv_txt.c **** 
 123:..\..\..\arduinoLCD\test\Pain Drain\libraries\lvgl\src\misc/lv_txt.c ****         size_res->x = LV_MAX(act_line_length, size_res->x);
 124:..\..\..\arduinoLCD\test\Pain Drain\libraries\lvgl\src\misc/lv_txt.c ****         line_start  = new_line_start;
 125:..\..\..\arduinoLCD\test\Pain Drain\libraries\lvgl\src\misc/lv_txt.c ****     }
 126:..\..\..\arduinoLCD\test\Pain Drain\libraries\lvgl\src\misc/lv_txt.c **** 
 127:..\..\..\arduinoLCD\test\Pain Drain\libraries\lvgl\src\misc/lv_txt.c ****     /*Make the text one line taller if the last character is '\n' or '\r'*/
 128:..\..\..\arduinoLCD\test\Pain Drain\libraries\lvgl\src\misc/lv_txt.c ****     if((line_start != 0) && (text[line_start - 1] == '\n' || text[line_start - 1] == '\r')) {
 129:..\..\..\arduinoLCD\test\Pain Drain\libraries\lvgl\src\misc/lv_txt.c ****         size_res->y += letter_height + line_space;
 130:..\..\..\arduinoLCD\test\Pain Drain\libraries\lvgl\src\misc/lv_txt.c ****     }
 131:..\..\..\arduinoLCD\test\Pain Drain\libraries\lvgl\src\misc/lv_txt.c **** 
 132:..\..\..\arduinoLCD\test\Pain Drain\libraries\lvgl\src\misc/lv_txt.c ****     /*Correction with the last line space or set the height manually if the text is empty*/
 133:..\..\..\arduinoLCD\test\Pain Drain\libraries\lvgl\src\misc/lv_txt.c ****     if(size_res->y == 0)
 134:..\..\..\arduinoLCD\test\Pain Drain\libraries\lvgl\src\misc/lv_txt.c ****         size_res->y = letter_height;
 135:..\..\..\arduinoLCD\test\Pain Drain\libraries\lvgl\src\misc/lv_txt.c ****     else
 136:..\..\..\arduinoLCD\test\Pain Drain\libraries\lvgl\src\misc/lv_txt.c ****         size_res->y -= line_space;
 137:..\..\..\arduinoLCD\test\Pain Drain\libraries\lvgl\src\misc/lv_txt.c **** }
 138:..\..\..\arduinoLCD\test\Pain Drain\libraries\lvgl\src\misc/lv_txt.c **** 
 139:..\..\..\arduinoLCD\test\Pain Drain\libraries\lvgl\src\misc/lv_txt.c **** /**
 140:..\..\..\arduinoLCD\test\Pain Drain\libraries\lvgl\src\misc/lv_txt.c ****  * Get the next word of text. A word is delimited by break characters.
 141:..\..\..\arduinoLCD\test\Pain Drain\libraries\lvgl\src\misc/lv_txt.c ****  *
 142:..\..\..\arduinoLCD\test\Pain Drain\libraries\lvgl\src\misc/lv_txt.c ****  * If the word cannot fit in the max_width space, obey LV_TXT_LINE_BREAK_LONG_* rules.
 143:..\..\..\arduinoLCD\test\Pain Drain\libraries\lvgl\src\misc/lv_txt.c ****  *
 144:..\..\..\arduinoLCD\test\Pain Drain\libraries\lvgl\src\misc/lv_txt.c ****  * If the next word cannot fit anything, return 0.
 145:..\..\..\arduinoLCD\test\Pain Drain\libraries\lvgl\src\misc/lv_txt.c ****  *
ARM GAS  C:\Users\haske\AppData\Local\Temp\ccg6iOQH.s 			page 4


 146:..\..\..\arduinoLCD\test\Pain Drain\libraries\lvgl\src\misc/lv_txt.c ****  * If the first character is a break character, returns the next index.
 147:..\..\..\arduinoLCD\test\Pain Drain\libraries\lvgl\src\misc/lv_txt.c ****  *
 148:..\..\..\arduinoLCD\test\Pain Drain\libraries\lvgl\src\misc/lv_txt.c ****  * Example calls from lv_txt_get_next_line() assuming sufficient max_width and
 149:..\..\..\arduinoLCD\test\Pain Drain\libraries\lvgl\src\misc/lv_txt.c ****  * txt = "Test text\n"
 150:..\..\..\arduinoLCD\test\Pain Drain\libraries\lvgl\src\misc/lv_txt.c ****  *        0123456789
 151:..\..\..\arduinoLCD\test\Pain Drain\libraries\lvgl\src\misc/lv_txt.c ****  *
 152:..\..\..\arduinoLCD\test\Pain Drain\libraries\lvgl\src\misc/lv_txt.c ****  * Calls would be as follows:
 153:..\..\..\arduinoLCD\test\Pain Drain\libraries\lvgl\src\misc/lv_txt.c ****  *     1. Return i=4, pointing at breakchar ' ', for the string "Test"
 154:..\..\..\arduinoLCD\test\Pain Drain\libraries\lvgl\src\misc/lv_txt.c ****  *     2. Return i=5, since i=4 was a breakchar.
 155:..\..\..\arduinoLCD\test\Pain Drain\libraries\lvgl\src\misc/lv_txt.c ****  *     3. Return i=9, pointing at breakchar '\n'
 156:..\..\..\arduinoLCD\test\Pain Drain\libraries\lvgl\src\misc/lv_txt.c ****  *     4. Parenting lv_txt_get_next_line() would detect subsequent '\0'
 157:..\..\..\arduinoLCD\test\Pain Drain\libraries\lvgl\src\misc/lv_txt.c ****  *
 158:..\..\..\arduinoLCD\test\Pain Drain\libraries\lvgl\src\misc/lv_txt.c ****  * TODO: Returned word_w_ptr may overestimate the returned word's width when
 159:..\..\..\arduinoLCD\test\Pain Drain\libraries\lvgl\src\misc/lv_txt.c ****  * max_width is reached. In current usage, this has no impact.
 160:..\..\..\arduinoLCD\test\Pain Drain\libraries\lvgl\src\misc/lv_txt.c ****  *
 161:..\..\..\arduinoLCD\test\Pain Drain\libraries\lvgl\src\misc/lv_txt.c ****  * @param txt a '\0' terminated string
 162:..\..\..\arduinoLCD\test\Pain Drain\libraries\lvgl\src\misc/lv_txt.c ****  * @param font pointer to a font
 163:..\..\..\arduinoLCD\test\Pain Drain\libraries\lvgl\src\misc/lv_txt.c ****  * @param letter_space letter space
 164:..\..\..\arduinoLCD\test\Pain Drain\libraries\lvgl\src\misc/lv_txt.c ****  * @param max_width max width of the text (break the lines to fit this size). Set COORD_MAX to avoi
 165:..\..\..\arduinoLCD\test\Pain Drain\libraries\lvgl\src\misc/lv_txt.c ****  * @param flags settings for the text from 'txt_flag_type' enum
 166:..\..\..\arduinoLCD\test\Pain Drain\libraries\lvgl\src\misc/lv_txt.c ****  * @param[out] word_w_ptr width (in pixels) of the parsed word. May be NULL.
 167:..\..\..\arduinoLCD\test\Pain Drain\libraries\lvgl\src\misc/lv_txt.c ****  * @param cmd_state pointer to a txt_cmd_state_t variable which stores the current state of command
 168:..\..\..\arduinoLCD\test\Pain Drain\libraries\lvgl\src\misc/lv_txt.c ****  * @param force Force return the fraction of the word that can fit in the provided space.
 169:..\..\..\arduinoLCD\test\Pain Drain\libraries\lvgl\src\misc/lv_txt.c ****  * @return the index of the first char of the next word (in byte index not letter index. With UTF-8
 170:..\..\..\arduinoLCD\test\Pain Drain\libraries\lvgl\src\misc/lv_txt.c ****  */
 171:..\..\..\arduinoLCD\test\Pain Drain\libraries\lvgl\src\misc/lv_txt.c **** static uint32_t lv_txt_get_next_word(const char * txt, const lv_font_t * font,
 172:..\..\..\arduinoLCD\test\Pain Drain\libraries\lvgl\src\misc/lv_txt.c ****                                      lv_coord_t letter_space, lv_coord_t max_width,
 173:..\..\..\arduinoLCD\test\Pain Drain\libraries\lvgl\src\misc/lv_txt.c ****                                      lv_text_flag_t flag, uint32_t * word_w_ptr, lv_text_cmd_state_
 174:..\..\..\arduinoLCD\test\Pain Drain\libraries\lvgl\src\misc/lv_txt.c **** {
 175:..\..\..\arduinoLCD\test\Pain Drain\libraries\lvgl\src\misc/lv_txt.c ****     if(txt == NULL || txt[0] == '\0') return 0;
 176:..\..\..\arduinoLCD\test\Pain Drain\libraries\lvgl\src\misc/lv_txt.c ****     if(font == NULL) return 0;
 177:..\..\..\arduinoLCD\test\Pain Drain\libraries\lvgl\src\misc/lv_txt.c **** 
 178:..\..\..\arduinoLCD\test\Pain Drain\libraries\lvgl\src\misc/lv_txt.c ****     if(flag & LV_TEXT_FLAG_EXPAND) max_width = LV_COORD_MAX;
 179:..\..\..\arduinoLCD\test\Pain Drain\libraries\lvgl\src\misc/lv_txt.c **** 
 180:..\..\..\arduinoLCD\test\Pain Drain\libraries\lvgl\src\misc/lv_txt.c ****     uint32_t i = 0, i_next = 0, i_next_next = 0;  /*Iterating index into txt*/
 181:..\..\..\arduinoLCD\test\Pain Drain\libraries\lvgl\src\misc/lv_txt.c ****     uint32_t letter = 0;      /*Letter at i*/
 182:..\..\..\arduinoLCD\test\Pain Drain\libraries\lvgl\src\misc/lv_txt.c ****     uint32_t letter_next = 0; /*Letter at i_next*/
 183:..\..\..\arduinoLCD\test\Pain Drain\libraries\lvgl\src\misc/lv_txt.c ****     lv_coord_t letter_w;
 184:..\..\..\arduinoLCD\test\Pain Drain\libraries\lvgl\src\misc/lv_txt.c ****     lv_coord_t cur_w = 0;  /*Pixel Width of transversed string*/
 185:..\..\..\arduinoLCD\test\Pain Drain\libraries\lvgl\src\misc/lv_txt.c ****     uint32_t word_len = 0;   /*Number of characters in the transversed word*/
 186:..\..\..\arduinoLCD\test\Pain Drain\libraries\lvgl\src\misc/lv_txt.c ****     uint32_t break_index = NO_BREAK_FOUND; /*only used for "long" words*/
 187:..\..\..\arduinoLCD\test\Pain Drain\libraries\lvgl\src\misc/lv_txt.c ****     uint32_t break_letter_count = 0; /*Number of characters up to the long word break point*/
 188:..\..\..\arduinoLCD\test\Pain Drain\libraries\lvgl\src\misc/lv_txt.c **** 
 189:..\..\..\arduinoLCD\test\Pain Drain\libraries\lvgl\src\misc/lv_txt.c ****     letter = _lv_txt_encoded_next(txt, &i_next);
 190:..\..\..\arduinoLCD\test\Pain Drain\libraries\lvgl\src\misc/lv_txt.c ****     i_next_next = i_next;
 191:..\..\..\arduinoLCD\test\Pain Drain\libraries\lvgl\src\misc/lv_txt.c **** 
 192:..\..\..\arduinoLCD\test\Pain Drain\libraries\lvgl\src\misc/lv_txt.c ****     /*Obtain the full word, regardless if it fits or not in max_width*/
 193:..\..\..\arduinoLCD\test\Pain Drain\libraries\lvgl\src\misc/lv_txt.c ****     while(txt[i] != '\0') {
 194:..\..\..\arduinoLCD\test\Pain Drain\libraries\lvgl\src\misc/lv_txt.c ****         letter_next = _lv_txt_encoded_next(txt, &i_next_next);
 195:..\..\..\arduinoLCD\test\Pain Drain\libraries\lvgl\src\misc/lv_txt.c ****         word_len++;
 196:..\..\..\arduinoLCD\test\Pain Drain\libraries\lvgl\src\misc/lv_txt.c **** 
 197:..\..\..\arduinoLCD\test\Pain Drain\libraries\lvgl\src\misc/lv_txt.c ****         /*Handle the recolor command*/
 198:..\..\..\arduinoLCD\test\Pain Drain\libraries\lvgl\src\misc/lv_txt.c ****         if((flag & LV_TEXT_FLAG_RECOLOR) != 0) {
 199:..\..\..\arduinoLCD\test\Pain Drain\libraries\lvgl\src\misc/lv_txt.c ****             if(_lv_txt_is_cmd(cmd_state, letter) != false) {
 200:..\..\..\arduinoLCD\test\Pain Drain\libraries\lvgl\src\misc/lv_txt.c ****                 i = i_next;
 201:..\..\..\arduinoLCD\test\Pain Drain\libraries\lvgl\src\misc/lv_txt.c ****                 i_next = i_next_next;
 202:..\..\..\arduinoLCD\test\Pain Drain\libraries\lvgl\src\misc/lv_txt.c ****                 letter = letter_next;
ARM GAS  C:\Users\haske\AppData\Local\Temp\ccg6iOQH.s 			page 5


 203:..\..\..\arduinoLCD\test\Pain Drain\libraries\lvgl\src\misc/lv_txt.c ****                 continue;   /*Skip the letter if it is part of a command*/
 204:..\..\..\arduinoLCD\test\Pain Drain\libraries\lvgl\src\misc/lv_txt.c ****             }
 205:..\..\..\arduinoLCD\test\Pain Drain\libraries\lvgl\src\misc/lv_txt.c ****         }
 206:..\..\..\arduinoLCD\test\Pain Drain\libraries\lvgl\src\misc/lv_txt.c **** 
 207:..\..\..\arduinoLCD\test\Pain Drain\libraries\lvgl\src\misc/lv_txt.c ****         letter_w = lv_font_get_glyph_width(font, letter, letter_next);
 208:..\..\..\arduinoLCD\test\Pain Drain\libraries\lvgl\src\misc/lv_txt.c ****         cur_w += letter_w;
 209:..\..\..\arduinoLCD\test\Pain Drain\libraries\lvgl\src\misc/lv_txt.c **** 
 210:..\..\..\arduinoLCD\test\Pain Drain\libraries\lvgl\src\misc/lv_txt.c ****         if(letter_w > 0) {
 211:..\..\..\arduinoLCD\test\Pain Drain\libraries\lvgl\src\misc/lv_txt.c ****             cur_w += letter_space;
 212:..\..\..\arduinoLCD\test\Pain Drain\libraries\lvgl\src\misc/lv_txt.c ****         }
 213:..\..\..\arduinoLCD\test\Pain Drain\libraries\lvgl\src\misc/lv_txt.c **** 
 214:..\..\..\arduinoLCD\test\Pain Drain\libraries\lvgl\src\misc/lv_txt.c ****         /*Test if this character fits within max_width*/
 215:..\..\..\arduinoLCD\test\Pain Drain\libraries\lvgl\src\misc/lv_txt.c ****         if(break_index == NO_BREAK_FOUND && (cur_w - letter_space) > max_width) {
 216:..\..\..\arduinoLCD\test\Pain Drain\libraries\lvgl\src\misc/lv_txt.c ****             break_index = i;
 217:..\..\..\arduinoLCD\test\Pain Drain\libraries\lvgl\src\misc/lv_txt.c ****             break_letter_count = word_len - 1;
 218:..\..\..\arduinoLCD\test\Pain Drain\libraries\lvgl\src\misc/lv_txt.c ****             /*break_index is now pointing at the character that doesn't fit*/
 219:..\..\..\arduinoLCD\test\Pain Drain\libraries\lvgl\src\misc/lv_txt.c ****         }
 220:..\..\..\arduinoLCD\test\Pain Drain\libraries\lvgl\src\misc/lv_txt.c **** 
 221:..\..\..\arduinoLCD\test\Pain Drain\libraries\lvgl\src\misc/lv_txt.c ****         /*Check for new line chars and breakchars*/
 222:..\..\..\arduinoLCD\test\Pain Drain\libraries\lvgl\src\misc/lv_txt.c ****         if(letter == '\n' || letter == '\r' || _lv_txt_is_break_char(letter)) {
 223:..\..\..\arduinoLCD\test\Pain Drain\libraries\lvgl\src\misc/lv_txt.c ****             /*Update the output width on the first character if it fits.
 224:..\..\..\arduinoLCD\test\Pain Drain\libraries\lvgl\src\misc/lv_txt.c ****              *Must do this here in case first letter is a break character.*/
 225:..\..\..\arduinoLCD\test\Pain Drain\libraries\lvgl\src\misc/lv_txt.c ****             if(i == 0 && break_index == NO_BREAK_FOUND && word_w_ptr != NULL) *word_w_ptr = cur_w;
 226:..\..\..\arduinoLCD\test\Pain Drain\libraries\lvgl\src\misc/lv_txt.c ****             word_len--;
 227:..\..\..\arduinoLCD\test\Pain Drain\libraries\lvgl\src\misc/lv_txt.c ****             break;
 228:..\..\..\arduinoLCD\test\Pain Drain\libraries\lvgl\src\misc/lv_txt.c ****         }
 229:..\..\..\arduinoLCD\test\Pain Drain\libraries\lvgl\src\misc/lv_txt.c **** 
 230:..\..\..\arduinoLCD\test\Pain Drain\libraries\lvgl\src\misc/lv_txt.c ****         /*Update the output width*/
 231:..\..\..\arduinoLCD\test\Pain Drain\libraries\lvgl\src\misc/lv_txt.c ****         if(word_w_ptr != NULL && break_index == NO_BREAK_FOUND) *word_w_ptr = cur_w;
 232:..\..\..\arduinoLCD\test\Pain Drain\libraries\lvgl\src\misc/lv_txt.c **** 
 233:..\..\..\arduinoLCD\test\Pain Drain\libraries\lvgl\src\misc/lv_txt.c ****         i = i_next;
 234:..\..\..\arduinoLCD\test\Pain Drain\libraries\lvgl\src\misc/lv_txt.c ****         i_next = i_next_next;
 235:..\..\..\arduinoLCD\test\Pain Drain\libraries\lvgl\src\misc/lv_txt.c ****         letter = letter_next;
 236:..\..\..\arduinoLCD\test\Pain Drain\libraries\lvgl\src\misc/lv_txt.c ****     }
 237:..\..\..\arduinoLCD\test\Pain Drain\libraries\lvgl\src\misc/lv_txt.c **** 
 238:..\..\..\arduinoLCD\test\Pain Drain\libraries\lvgl\src\misc/lv_txt.c ****     /*Entire Word fits in the provided space*/
 239:..\..\..\arduinoLCD\test\Pain Drain\libraries\lvgl\src\misc/lv_txt.c ****     if(break_index == NO_BREAK_FOUND) {
 240:..\..\..\arduinoLCD\test\Pain Drain\libraries\lvgl\src\misc/lv_txt.c ****         if(word_len == 0 || (letter == '\r' && letter_next == '\n')) i = i_next;
 241:..\..\..\arduinoLCD\test\Pain Drain\libraries\lvgl\src\misc/lv_txt.c ****         return i;
 242:..\..\..\arduinoLCD\test\Pain Drain\libraries\lvgl\src\misc/lv_txt.c ****     }
 243:..\..\..\arduinoLCD\test\Pain Drain\libraries\lvgl\src\misc/lv_txt.c **** 
 244:..\..\..\arduinoLCD\test\Pain Drain\libraries\lvgl\src\misc/lv_txt.c **** #if LV_TXT_LINE_BREAK_LONG_LEN > 0
 245:..\..\..\arduinoLCD\test\Pain Drain\libraries\lvgl\src\misc/lv_txt.c ****     /*Word doesn't fit in provided space, but isn't "long"*/
 246:..\..\..\arduinoLCD\test\Pain Drain\libraries\lvgl\src\misc/lv_txt.c ****     if(word_len < LV_TXT_LINE_BREAK_LONG_LEN) {
 247:..\..\..\arduinoLCD\test\Pain Drain\libraries\lvgl\src\misc/lv_txt.c ****         if(force) return break_index;
 248:..\..\..\arduinoLCD\test\Pain Drain\libraries\lvgl\src\misc/lv_txt.c ****         if(word_w_ptr != NULL) *word_w_ptr = 0; /*Return no word*/
 249:..\..\..\arduinoLCD\test\Pain Drain\libraries\lvgl\src\misc/lv_txt.c ****         return 0;
 250:..\..\..\arduinoLCD\test\Pain Drain\libraries\lvgl\src\misc/lv_txt.c ****     }
 251:..\..\..\arduinoLCD\test\Pain Drain\libraries\lvgl\src\misc/lv_txt.c **** 
 252:..\..\..\arduinoLCD\test\Pain Drain\libraries\lvgl\src\misc/lv_txt.c ****     /*Word is "long," but insufficient amounts can fit in provided space*/
 253:..\..\..\arduinoLCD\test\Pain Drain\libraries\lvgl\src\misc/lv_txt.c ****     if(break_letter_count < LV_TXT_LINE_BREAK_LONG_PRE_MIN_LEN) {
 254:..\..\..\arduinoLCD\test\Pain Drain\libraries\lvgl\src\misc/lv_txt.c ****         if(force) return break_index;
 255:..\..\..\arduinoLCD\test\Pain Drain\libraries\lvgl\src\misc/lv_txt.c ****         if(word_w_ptr != NULL) *word_w_ptr = 0;
 256:..\..\..\arduinoLCD\test\Pain Drain\libraries\lvgl\src\misc/lv_txt.c ****         return 0;
 257:..\..\..\arduinoLCD\test\Pain Drain\libraries\lvgl\src\misc/lv_txt.c ****     }
 258:..\..\..\arduinoLCD\test\Pain Drain\libraries\lvgl\src\misc/lv_txt.c **** 
 259:..\..\..\arduinoLCD\test\Pain Drain\libraries\lvgl\src\misc/lv_txt.c ****     /*Word is a "long", but letters may need to be better distributed*/
ARM GAS  C:\Users\haske\AppData\Local\Temp\ccg6iOQH.s 			page 6


 260:..\..\..\arduinoLCD\test\Pain Drain\libraries\lvgl\src\misc/lv_txt.c ****     {
 261:..\..\..\arduinoLCD\test\Pain Drain\libraries\lvgl\src\misc/lv_txt.c ****         i = break_index;
 262:..\..\..\arduinoLCD\test\Pain Drain\libraries\lvgl\src\misc/lv_txt.c ****         int32_t n_move = LV_TXT_LINE_BREAK_LONG_POST_MIN_LEN - (word_len - break_letter_count);
 263:..\..\..\arduinoLCD\test\Pain Drain\libraries\lvgl\src\misc/lv_txt.c ****         /*Move pointer "i" backwards*/
 264:..\..\..\arduinoLCD\test\Pain Drain\libraries\lvgl\src\misc/lv_txt.c ****         for(; n_move > 0; n_move--) {
 265:..\..\..\arduinoLCD\test\Pain Drain\libraries\lvgl\src\misc/lv_txt.c ****             _lv_txt_encoded_prev(txt, &i);
 266:..\..\..\arduinoLCD\test\Pain Drain\libraries\lvgl\src\misc/lv_txt.c ****             // TODO: it would be appropriate to update the returned word width here
 267:..\..\..\arduinoLCD\test\Pain Drain\libraries\lvgl\src\misc/lv_txt.c ****             // However, in current usage, this doesn't impact anything.
 268:..\..\..\arduinoLCD\test\Pain Drain\libraries\lvgl\src\misc/lv_txt.c ****         }
 269:..\..\..\arduinoLCD\test\Pain Drain\libraries\lvgl\src\misc/lv_txt.c ****     }
 270:..\..\..\arduinoLCD\test\Pain Drain\libraries\lvgl\src\misc/lv_txt.c ****     return i;
 271:..\..\..\arduinoLCD\test\Pain Drain\libraries\lvgl\src\misc/lv_txt.c **** #else
 272:..\..\..\arduinoLCD\test\Pain Drain\libraries\lvgl\src\misc/lv_txt.c ****     if(force) return break_index;
 273:..\..\..\arduinoLCD\test\Pain Drain\libraries\lvgl\src\misc/lv_txt.c ****     if(word_w_ptr != NULL) *word_w_ptr = 0; /*Return no word*/
 274:..\..\..\arduinoLCD\test\Pain Drain\libraries\lvgl\src\misc/lv_txt.c ****     (void) break_letter_count;
 275:..\..\..\arduinoLCD\test\Pain Drain\libraries\lvgl\src\misc/lv_txt.c ****     return 0;
 276:..\..\..\arduinoLCD\test\Pain Drain\libraries\lvgl\src\misc/lv_txt.c **** #endif
 277:..\..\..\arduinoLCD\test\Pain Drain\libraries\lvgl\src\misc/lv_txt.c **** }
 278:..\..\..\arduinoLCD\test\Pain Drain\libraries\lvgl\src\misc/lv_txt.c **** 
 279:..\..\..\arduinoLCD\test\Pain Drain\libraries\lvgl\src\misc/lv_txt.c **** uint32_t _lv_txt_get_next_line(const char * txt, const lv_font_t * font,
 280:..\..\..\arduinoLCD\test\Pain Drain\libraries\lvgl\src\misc/lv_txt.c ****                                lv_coord_t letter_space, lv_coord_t max_width,
 281:..\..\..\arduinoLCD\test\Pain Drain\libraries\lvgl\src\misc/lv_txt.c ****                                lv_coord_t * used_width, lv_text_flag_t flag)
 282:..\..\..\arduinoLCD\test\Pain Drain\libraries\lvgl\src\misc/lv_txt.c **** {
 283:..\..\..\arduinoLCD\test\Pain Drain\libraries\lvgl\src\misc/lv_txt.c ****     if(used_width) *used_width = 0;
 284:..\..\..\arduinoLCD\test\Pain Drain\libraries\lvgl\src\misc/lv_txt.c **** 
 285:..\..\..\arduinoLCD\test\Pain Drain\libraries\lvgl\src\misc/lv_txt.c ****     if(txt == NULL) return 0;
 286:..\..\..\arduinoLCD\test\Pain Drain\libraries\lvgl\src\misc/lv_txt.c ****     if(txt[0] == '\0') return 0;
 287:..\..\..\arduinoLCD\test\Pain Drain\libraries\lvgl\src\misc/lv_txt.c ****     if(font == NULL) return 0;
 288:..\..\..\arduinoLCD\test\Pain Drain\libraries\lvgl\src\misc/lv_txt.c **** 
 289:..\..\..\arduinoLCD\test\Pain Drain\libraries\lvgl\src\misc/lv_txt.c ****     lv_coord_t line_w = 0;
 290:..\..\..\arduinoLCD\test\Pain Drain\libraries\lvgl\src\misc/lv_txt.c **** 
 291:..\..\..\arduinoLCD\test\Pain Drain\libraries\lvgl\src\misc/lv_txt.c ****     /*If max_width doesn't mater simply find the new line character
 292:..\..\..\arduinoLCD\test\Pain Drain\libraries\lvgl\src\misc/lv_txt.c ****      *without thinking about word wrapping*/
 293:..\..\..\arduinoLCD\test\Pain Drain\libraries\lvgl\src\misc/lv_txt.c ****     if((flag & LV_TEXT_FLAG_EXPAND) || (flag & LV_TEXT_FLAG_FIT)) {
 294:..\..\..\arduinoLCD\test\Pain Drain\libraries\lvgl\src\misc/lv_txt.c ****         uint32_t i;
 295:..\..\..\arduinoLCD\test\Pain Drain\libraries\lvgl\src\misc/lv_txt.c ****         for(i = 0; txt[i] != '\n' && txt[i] != '\r' && txt[i] != '\0'; i++) {
 296:..\..\..\arduinoLCD\test\Pain Drain\libraries\lvgl\src\misc/lv_txt.c ****             /*Just find the new line chars or string ends by incrementing `i`*/
 297:..\..\..\arduinoLCD\test\Pain Drain\libraries\lvgl\src\misc/lv_txt.c ****         }
 298:..\..\..\arduinoLCD\test\Pain Drain\libraries\lvgl\src\misc/lv_txt.c ****         if(txt[i] != '\0') i++;    /*To go beyond `\n`*/
 299:..\..\..\arduinoLCD\test\Pain Drain\libraries\lvgl\src\misc/lv_txt.c ****         if(used_width) *used_width = -1;
 300:..\..\..\arduinoLCD\test\Pain Drain\libraries\lvgl\src\misc/lv_txt.c ****         return i;
 301:..\..\..\arduinoLCD\test\Pain Drain\libraries\lvgl\src\misc/lv_txt.c ****     }
 302:..\..\..\arduinoLCD\test\Pain Drain\libraries\lvgl\src\misc/lv_txt.c **** 
 303:..\..\..\arduinoLCD\test\Pain Drain\libraries\lvgl\src\misc/lv_txt.c ****     if(flag & LV_TEXT_FLAG_EXPAND) max_width = LV_COORD_MAX;
 304:..\..\..\arduinoLCD\test\Pain Drain\libraries\lvgl\src\misc/lv_txt.c ****     lv_text_cmd_state_t cmd_state = LV_TEXT_CMD_STATE_WAIT;
 305:..\..\..\arduinoLCD\test\Pain Drain\libraries\lvgl\src\misc/lv_txt.c ****     uint32_t i = 0;                                        /*Iterating index into txt*/
 306:..\..\..\arduinoLCD\test\Pain Drain\libraries\lvgl\src\misc/lv_txt.c **** 
 307:..\..\..\arduinoLCD\test\Pain Drain\libraries\lvgl\src\misc/lv_txt.c ****     while(txt[i] != '\0' && max_width > 0) {
 308:..\..\..\arduinoLCD\test\Pain Drain\libraries\lvgl\src\misc/lv_txt.c ****         uint32_t word_w = 0;
 309:..\..\..\arduinoLCD\test\Pain Drain\libraries\lvgl\src\misc/lv_txt.c ****         uint32_t advance = lv_txt_get_next_word(&txt[i], font, letter_space, max_width, flag, &word
 310:..\..\..\arduinoLCD\test\Pain Drain\libraries\lvgl\src\misc/lv_txt.c ****         max_width -= word_w;
 311:..\..\..\arduinoLCD\test\Pain Drain\libraries\lvgl\src\misc/lv_txt.c ****         line_w += word_w;
 312:..\..\..\arduinoLCD\test\Pain Drain\libraries\lvgl\src\misc/lv_txt.c **** 
 313:..\..\..\arduinoLCD\test\Pain Drain\libraries\lvgl\src\misc/lv_txt.c ****         if(advance == 0) {
 314:..\..\..\arduinoLCD\test\Pain Drain\libraries\lvgl\src\misc/lv_txt.c ****             break;
 315:..\..\..\arduinoLCD\test\Pain Drain\libraries\lvgl\src\misc/lv_txt.c ****         }
 316:..\..\..\arduinoLCD\test\Pain Drain\libraries\lvgl\src\misc/lv_txt.c **** 
ARM GAS  C:\Users\haske\AppData\Local\Temp\ccg6iOQH.s 			page 7


 317:..\..\..\arduinoLCD\test\Pain Drain\libraries\lvgl\src\misc/lv_txt.c ****         i += advance;
 318:..\..\..\arduinoLCD\test\Pain Drain\libraries\lvgl\src\misc/lv_txt.c **** 
 319:..\..\..\arduinoLCD\test\Pain Drain\libraries\lvgl\src\misc/lv_txt.c ****         if(txt[0] == '\n' || txt[0] == '\r') break;
 320:..\..\..\arduinoLCD\test\Pain Drain\libraries\lvgl\src\misc/lv_txt.c **** 
 321:..\..\..\arduinoLCD\test\Pain Drain\libraries\lvgl\src\misc/lv_txt.c ****         if(txt[i] == '\n' || txt[i] == '\r') {
 322:..\..\..\arduinoLCD\test\Pain Drain\libraries\lvgl\src\misc/lv_txt.c ****             i++;  /*Include the following newline in the current line*/
 323:..\..\..\arduinoLCD\test\Pain Drain\libraries\lvgl\src\misc/lv_txt.c ****             break;
 324:..\..\..\arduinoLCD\test\Pain Drain\libraries\lvgl\src\misc/lv_txt.c ****         }
 325:..\..\..\arduinoLCD\test\Pain Drain\libraries\lvgl\src\misc/lv_txt.c **** 
 326:..\..\..\arduinoLCD\test\Pain Drain\libraries\lvgl\src\misc/lv_txt.c ****     }
 327:..\..\..\arduinoLCD\test\Pain Drain\libraries\lvgl\src\misc/lv_txt.c **** 
 328:..\..\..\arduinoLCD\test\Pain Drain\libraries\lvgl\src\misc/lv_txt.c ****     /*Always step at least one to avoid infinite loops*/
 329:..\..\..\arduinoLCD\test\Pain Drain\libraries\lvgl\src\misc/lv_txt.c ****     if(i == 0) {
 330:..\..\..\arduinoLCD\test\Pain Drain\libraries\lvgl\src\misc/lv_txt.c ****         uint32_t letter = _lv_txt_encoded_next(txt, &i);
 331:..\..\..\arduinoLCD\test\Pain Drain\libraries\lvgl\src\misc/lv_txt.c ****         if(used_width != NULL) {
 332:..\..\..\arduinoLCD\test\Pain Drain\libraries\lvgl\src\misc/lv_txt.c ****             line_w = lv_font_get_glyph_width(font, letter, '\0');
 333:..\..\..\arduinoLCD\test\Pain Drain\libraries\lvgl\src\misc/lv_txt.c ****         }
 334:..\..\..\arduinoLCD\test\Pain Drain\libraries\lvgl\src\misc/lv_txt.c ****     }
 335:..\..\..\arduinoLCD\test\Pain Drain\libraries\lvgl\src\misc/lv_txt.c **** 
 336:..\..\..\arduinoLCD\test\Pain Drain\libraries\lvgl\src\misc/lv_txt.c ****     if(used_width != NULL) {
 337:..\..\..\arduinoLCD\test\Pain Drain\libraries\lvgl\src\misc/lv_txt.c ****         *used_width = line_w;
 338:..\..\..\arduinoLCD\test\Pain Drain\libraries\lvgl\src\misc/lv_txt.c ****     }
 339:..\..\..\arduinoLCD\test\Pain Drain\libraries\lvgl\src\misc/lv_txt.c **** 
 340:..\..\..\arduinoLCD\test\Pain Drain\libraries\lvgl\src\misc/lv_txt.c ****     return i;
 341:..\..\..\arduinoLCD\test\Pain Drain\libraries\lvgl\src\misc/lv_txt.c **** }
 342:..\..\..\arduinoLCD\test\Pain Drain\libraries\lvgl\src\misc/lv_txt.c **** 
 343:..\..\..\arduinoLCD\test\Pain Drain\libraries\lvgl\src\misc/lv_txt.c **** lv_coord_t lv_txt_get_width(const char * txt, uint32_t length, const lv_font_t * font, lv_coord_t l
 344:..\..\..\arduinoLCD\test\Pain Drain\libraries\lvgl\src\misc/lv_txt.c ****                             lv_text_flag_t flag)
 345:..\..\..\arduinoLCD\test\Pain Drain\libraries\lvgl\src\misc/lv_txt.c **** {
 346:..\..\..\arduinoLCD\test\Pain Drain\libraries\lvgl\src\misc/lv_txt.c ****     if(txt == NULL) return 0;
 347:..\..\..\arduinoLCD\test\Pain Drain\libraries\lvgl\src\misc/lv_txt.c ****     if(font == NULL) return 0;
 348:..\..\..\arduinoLCD\test\Pain Drain\libraries\lvgl\src\misc/lv_txt.c ****     if(txt[0] == '\0') return 0;
 349:..\..\..\arduinoLCD\test\Pain Drain\libraries\lvgl\src\misc/lv_txt.c **** 
 350:..\..\..\arduinoLCD\test\Pain Drain\libraries\lvgl\src\misc/lv_txt.c ****     uint32_t i                   = 0;
 351:..\..\..\arduinoLCD\test\Pain Drain\libraries\lvgl\src\misc/lv_txt.c ****     lv_coord_t width             = 0;
 352:..\..\..\arduinoLCD\test\Pain Drain\libraries\lvgl\src\misc/lv_txt.c ****     lv_text_cmd_state_t cmd_state = LV_TEXT_CMD_STATE_WAIT;
 353:..\..\..\arduinoLCD\test\Pain Drain\libraries\lvgl\src\misc/lv_txt.c **** 
 354:..\..\..\arduinoLCD\test\Pain Drain\libraries\lvgl\src\misc/lv_txt.c ****     if(length != 0) {
 355:..\..\..\arduinoLCD\test\Pain Drain\libraries\lvgl\src\misc/lv_txt.c ****         while(i < length) {
 356:..\..\..\arduinoLCD\test\Pain Drain\libraries\lvgl\src\misc/lv_txt.c ****             uint32_t letter;
 357:..\..\..\arduinoLCD\test\Pain Drain\libraries\lvgl\src\misc/lv_txt.c ****             uint32_t letter_next;
 358:..\..\..\arduinoLCD\test\Pain Drain\libraries\lvgl\src\misc/lv_txt.c ****             _lv_txt_encoded_letter_next_2(txt, &letter, &letter_next, &i);
 359:..\..\..\arduinoLCD\test\Pain Drain\libraries\lvgl\src\misc/lv_txt.c **** 
 360:..\..\..\arduinoLCD\test\Pain Drain\libraries\lvgl\src\misc/lv_txt.c ****             if((flag & LV_TEXT_FLAG_RECOLOR) != 0) {
 361:..\..\..\arduinoLCD\test\Pain Drain\libraries\lvgl\src\misc/lv_txt.c ****                 if(_lv_txt_is_cmd(&cmd_state, letter) != false) {
 362:..\..\..\arduinoLCD\test\Pain Drain\libraries\lvgl\src\misc/lv_txt.c ****                     continue;
 363:..\..\..\arduinoLCD\test\Pain Drain\libraries\lvgl\src\misc/lv_txt.c ****                 }
 364:..\..\..\arduinoLCD\test\Pain Drain\libraries\lvgl\src\misc/lv_txt.c ****             }
 365:..\..\..\arduinoLCD\test\Pain Drain\libraries\lvgl\src\misc/lv_txt.c **** 
 366:..\..\..\arduinoLCD\test\Pain Drain\libraries\lvgl\src\misc/lv_txt.c ****             lv_coord_t char_width = lv_font_get_glyph_width(font, letter, letter_next);
 367:..\..\..\arduinoLCD\test\Pain Drain\libraries\lvgl\src\misc/lv_txt.c ****             if(char_width > 0) {
 368:..\..\..\arduinoLCD\test\Pain Drain\libraries\lvgl\src\misc/lv_txt.c ****                 width += char_width;
 369:..\..\..\arduinoLCD\test\Pain Drain\libraries\lvgl\src\misc/lv_txt.c ****                 width += letter_space;
 370:..\..\..\arduinoLCD\test\Pain Drain\libraries\lvgl\src\misc/lv_txt.c ****             }
 371:..\..\..\arduinoLCD\test\Pain Drain\libraries\lvgl\src\misc/lv_txt.c ****         }
 372:..\..\..\arduinoLCD\test\Pain Drain\libraries\lvgl\src\misc/lv_txt.c **** 
 373:..\..\..\arduinoLCD\test\Pain Drain\libraries\lvgl\src\misc/lv_txt.c ****         if(width > 0) {
ARM GAS  C:\Users\haske\AppData\Local\Temp\ccg6iOQH.s 			page 8


 374:..\..\..\arduinoLCD\test\Pain Drain\libraries\lvgl\src\misc/lv_txt.c ****             width -= letter_space; /*Trim the last letter space. Important if the text is center
 375:..\..\..\arduinoLCD\test\Pain Drain\libraries\lvgl\src\misc/lv_txt.c ****                                       aligned*/
 376:..\..\..\arduinoLCD\test\Pain Drain\libraries\lvgl\src\misc/lv_txt.c ****         }
 377:..\..\..\arduinoLCD\test\Pain Drain\libraries\lvgl\src\misc/lv_txt.c ****     }
 378:..\..\..\arduinoLCD\test\Pain Drain\libraries\lvgl\src\misc/lv_txt.c **** 
 379:..\..\..\arduinoLCD\test\Pain Drain\libraries\lvgl\src\misc/lv_txt.c ****     return width;
 380:..\..\..\arduinoLCD\test\Pain Drain\libraries\lvgl\src\misc/lv_txt.c **** }
 381:..\..\..\arduinoLCD\test\Pain Drain\libraries\lvgl\src\misc/lv_txt.c **** 
 382:..\..\..\arduinoLCD\test\Pain Drain\libraries\lvgl\src\misc/lv_txt.c **** bool _lv_txt_is_cmd(lv_text_cmd_state_t * state, uint32_t c)
 383:..\..\..\arduinoLCD\test\Pain Drain\libraries\lvgl\src\misc/lv_txt.c **** {
 384:..\..\..\arduinoLCD\test\Pain Drain\libraries\lvgl\src\misc/lv_txt.c ****     bool ret = false;
 385:..\..\..\arduinoLCD\test\Pain Drain\libraries\lvgl\src\misc/lv_txt.c **** 
 386:..\..\..\arduinoLCD\test\Pain Drain\libraries\lvgl\src\misc/lv_txt.c ****     if(c == (uint32_t)LV_TXT_COLOR_CMD[0]) {
 387:..\..\..\arduinoLCD\test\Pain Drain\libraries\lvgl\src\misc/lv_txt.c ****         if(*state == LV_TEXT_CMD_STATE_WAIT) { /*Start char*/
 388:..\..\..\arduinoLCD\test\Pain Drain\libraries\lvgl\src\misc/lv_txt.c ****             *state = LV_TEXT_CMD_STATE_PAR;
 389:..\..\..\arduinoLCD\test\Pain Drain\libraries\lvgl\src\misc/lv_txt.c ****             ret    = true;
 390:..\..\..\arduinoLCD\test\Pain Drain\libraries\lvgl\src\misc/lv_txt.c ****         }
 391:..\..\..\arduinoLCD\test\Pain Drain\libraries\lvgl\src\misc/lv_txt.c ****         /*Other start char in parameter is escaped cmd. char*/
 392:..\..\..\arduinoLCD\test\Pain Drain\libraries\lvgl\src\misc/lv_txt.c ****         else if(*state == LV_TEXT_CMD_STATE_PAR) {
 393:..\..\..\arduinoLCD\test\Pain Drain\libraries\lvgl\src\misc/lv_txt.c ****             *state = LV_TEXT_CMD_STATE_WAIT;
 394:..\..\..\arduinoLCD\test\Pain Drain\libraries\lvgl\src\misc/lv_txt.c ****         }
 395:..\..\..\arduinoLCD\test\Pain Drain\libraries\lvgl\src\misc/lv_txt.c ****         /*Command end*/
 396:..\..\..\arduinoLCD\test\Pain Drain\libraries\lvgl\src\misc/lv_txt.c ****         else if(*state == LV_TEXT_CMD_STATE_IN) {
 397:..\..\..\arduinoLCD\test\Pain Drain\libraries\lvgl\src\misc/lv_txt.c ****             *state = LV_TEXT_CMD_STATE_WAIT;
 398:..\..\..\arduinoLCD\test\Pain Drain\libraries\lvgl\src\misc/lv_txt.c ****             ret    = true;
 399:..\..\..\arduinoLCD\test\Pain Drain\libraries\lvgl\src\misc/lv_txt.c ****         }
 400:..\..\..\arduinoLCD\test\Pain Drain\libraries\lvgl\src\misc/lv_txt.c ****     }
 401:..\..\..\arduinoLCD\test\Pain Drain\libraries\lvgl\src\misc/lv_txt.c **** 
 402:..\..\..\arduinoLCD\test\Pain Drain\libraries\lvgl\src\misc/lv_txt.c ****     /*Skip the color parameter and wait the space after it*/
 403:..\..\..\arduinoLCD\test\Pain Drain\libraries\lvgl\src\misc/lv_txt.c ****     if(*state == LV_TEXT_CMD_STATE_PAR) {
 404:..\..\..\arduinoLCD\test\Pain Drain\libraries\lvgl\src\misc/lv_txt.c ****         if(c == ' ') {
 405:..\..\..\arduinoLCD\test\Pain Drain\libraries\lvgl\src\misc/lv_txt.c ****             *state = LV_TEXT_CMD_STATE_IN; /*After the parameter the text is in the command*/
 406:..\..\..\arduinoLCD\test\Pain Drain\libraries\lvgl\src\misc/lv_txt.c ****         }
 407:..\..\..\arduinoLCD\test\Pain Drain\libraries\lvgl\src\misc/lv_txt.c ****         ret = true;
 408:..\..\..\arduinoLCD\test\Pain Drain\libraries\lvgl\src\misc/lv_txt.c ****     }
 409:..\..\..\arduinoLCD\test\Pain Drain\libraries\lvgl\src\misc/lv_txt.c **** 
 410:..\..\..\arduinoLCD\test\Pain Drain\libraries\lvgl\src\misc/lv_txt.c ****     return ret;
 411:..\..\..\arduinoLCD\test\Pain Drain\libraries\lvgl\src\misc/lv_txt.c **** }
 412:..\..\..\arduinoLCD\test\Pain Drain\libraries\lvgl\src\misc/lv_txt.c **** 
 413:..\..\..\arduinoLCD\test\Pain Drain\libraries\lvgl\src\misc/lv_txt.c **** void _lv_txt_ins(char * txt_buf, uint32_t pos, const char * ins_txt)
 414:..\..\..\arduinoLCD\test\Pain Drain\libraries\lvgl\src\misc/lv_txt.c **** {
 415:..\..\..\arduinoLCD\test\Pain Drain\libraries\lvgl\src\misc/lv_txt.c ****     if(txt_buf == NULL || ins_txt == NULL) return;
 416:..\..\..\arduinoLCD\test\Pain Drain\libraries\lvgl\src\misc/lv_txt.c **** 
 417:..\..\..\arduinoLCD\test\Pain Drain\libraries\lvgl\src\misc/lv_txt.c ****     size_t old_len = strlen(txt_buf);
 418:..\..\..\arduinoLCD\test\Pain Drain\libraries\lvgl\src\misc/lv_txt.c ****     size_t ins_len = strlen(ins_txt);
 419:..\..\..\arduinoLCD\test\Pain Drain\libraries\lvgl\src\misc/lv_txt.c ****     if(ins_len == 0) return;
 420:..\..\..\arduinoLCD\test\Pain Drain\libraries\lvgl\src\misc/lv_txt.c **** 
 421:..\..\..\arduinoLCD\test\Pain Drain\libraries\lvgl\src\misc/lv_txt.c ****     size_t new_len = ins_len + old_len;
 422:..\..\..\arduinoLCD\test\Pain Drain\libraries\lvgl\src\misc/lv_txt.c ****     pos              = _lv_txt_encoded_get_byte_id(txt_buf, pos); /*Convert to byte index instead o
 423:..\..\..\arduinoLCD\test\Pain Drain\libraries\lvgl\src\misc/lv_txt.c **** 
 424:..\..\..\arduinoLCD\test\Pain Drain\libraries\lvgl\src\misc/lv_txt.c ****     /*Copy the second part into the end to make place to text to insert*/
 425:..\..\..\arduinoLCD\test\Pain Drain\libraries\lvgl\src\misc/lv_txt.c ****     size_t i;
 426:..\..\..\arduinoLCD\test\Pain Drain\libraries\lvgl\src\misc/lv_txt.c ****     for(i = new_len; i >= pos + ins_len; i--) {
 427:..\..\..\arduinoLCD\test\Pain Drain\libraries\lvgl\src\misc/lv_txt.c ****         txt_buf[i] = txt_buf[i - ins_len];
 428:..\..\..\arduinoLCD\test\Pain Drain\libraries\lvgl\src\misc/lv_txt.c ****     }
 429:..\..\..\arduinoLCD\test\Pain Drain\libraries\lvgl\src\misc/lv_txt.c **** 
 430:..\..\..\arduinoLCD\test\Pain Drain\libraries\lvgl\src\misc/lv_txt.c ****     /*Copy the text into the new space*/
ARM GAS  C:\Users\haske\AppData\Local\Temp\ccg6iOQH.s 			page 9


 431:..\..\..\arduinoLCD\test\Pain Drain\libraries\lvgl\src\misc/lv_txt.c ****     lv_memcpy_small(txt_buf + pos, ins_txt, ins_len);
 432:..\..\..\arduinoLCD\test\Pain Drain\libraries\lvgl\src\misc/lv_txt.c **** }
 433:..\..\..\arduinoLCD\test\Pain Drain\libraries\lvgl\src\misc/lv_txt.c **** 
 434:..\..\..\arduinoLCD\test\Pain Drain\libraries\lvgl\src\misc/lv_txt.c **** void _lv_txt_cut(char * txt, uint32_t pos, uint32_t len)
 435:..\..\..\arduinoLCD\test\Pain Drain\libraries\lvgl\src\misc/lv_txt.c **** {
 436:..\..\..\arduinoLCD\test\Pain Drain\libraries\lvgl\src\misc/lv_txt.c ****     if(txt == NULL) return;
 437:..\..\..\arduinoLCD\test\Pain Drain\libraries\lvgl\src\misc/lv_txt.c **** 
 438:..\..\..\arduinoLCD\test\Pain Drain\libraries\lvgl\src\misc/lv_txt.c ****     size_t old_len = strlen(txt);
 439:..\..\..\arduinoLCD\test\Pain Drain\libraries\lvgl\src\misc/lv_txt.c **** 
 440:..\..\..\arduinoLCD\test\Pain Drain\libraries\lvgl\src\misc/lv_txt.c ****     pos = _lv_txt_encoded_get_byte_id(txt, pos); /*Convert to byte index instead of letter index*/
 441:..\..\..\arduinoLCD\test\Pain Drain\libraries\lvgl\src\misc/lv_txt.c ****     len = _lv_txt_encoded_get_byte_id(&txt[pos], len);
 442:..\..\..\arduinoLCD\test\Pain Drain\libraries\lvgl\src\misc/lv_txt.c **** 
 443:..\..\..\arduinoLCD\test\Pain Drain\libraries\lvgl\src\misc/lv_txt.c ****     /*Copy the second part into the end to make place to text to insert*/
 444:..\..\..\arduinoLCD\test\Pain Drain\libraries\lvgl\src\misc/lv_txt.c ****     uint32_t i;
 445:..\..\..\arduinoLCD\test\Pain Drain\libraries\lvgl\src\misc/lv_txt.c ****     for(i = pos; i <= old_len - len; i++) {
 446:..\..\..\arduinoLCD\test\Pain Drain\libraries\lvgl\src\misc/lv_txt.c ****         txt[i] = txt[i + len];
 447:..\..\..\arduinoLCD\test\Pain Drain\libraries\lvgl\src\misc/lv_txt.c ****     }
 448:..\..\..\arduinoLCD\test\Pain Drain\libraries\lvgl\src\misc/lv_txt.c **** }
 449:..\..\..\arduinoLCD\test\Pain Drain\libraries\lvgl\src\misc/lv_txt.c **** 
 450:..\..\..\arduinoLCD\test\Pain Drain\libraries\lvgl\src\misc/lv_txt.c **** char * _lv_txt_set_text_vfmt(const char * fmt, va_list ap)
 451:..\..\..\arduinoLCD\test\Pain Drain\libraries\lvgl\src\misc/lv_txt.c **** {
 452:..\..\..\arduinoLCD\test\Pain Drain\libraries\lvgl\src\misc/lv_txt.c ****     /*Allocate space for the new text by using trick from C99 standard section 7.19.6.12*/
 453:..\..\..\arduinoLCD\test\Pain Drain\libraries\lvgl\src\misc/lv_txt.c ****     va_list ap_copy;
 454:..\..\..\arduinoLCD\test\Pain Drain\libraries\lvgl\src\misc/lv_txt.c ****     va_copy(ap_copy, ap);
 455:..\..\..\arduinoLCD\test\Pain Drain\libraries\lvgl\src\misc/lv_txt.c ****     uint32_t len = lv_vsnprintf(NULL, 0, fmt, ap_copy);
 456:..\..\..\arduinoLCD\test\Pain Drain\libraries\lvgl\src\misc/lv_txt.c ****     va_end(ap_copy);
 457:..\..\..\arduinoLCD\test\Pain Drain\libraries\lvgl\src\misc/lv_txt.c **** 
 458:..\..\..\arduinoLCD\test\Pain Drain\libraries\lvgl\src\misc/lv_txt.c ****     char * text = 0;
 459:..\..\..\arduinoLCD\test\Pain Drain\libraries\lvgl\src\misc/lv_txt.c **** #if LV_USE_ARABIC_PERSIAN_CHARS
 460:..\..\..\arduinoLCD\test\Pain Drain\libraries\lvgl\src\misc/lv_txt.c ****     /*Put together the text according to the format string*/
 461:..\..\..\arduinoLCD\test\Pain Drain\libraries\lvgl\src\misc/lv_txt.c ****     char * raw_txt = lv_mem_buf_get(len + 1);
 462:..\..\..\arduinoLCD\test\Pain Drain\libraries\lvgl\src\misc/lv_txt.c ****     LV_ASSERT_MALLOC(raw_txt);
 463:..\..\..\arduinoLCD\test\Pain Drain\libraries\lvgl\src\misc/lv_txt.c ****     if(raw_txt == NULL) {
 464:..\..\..\arduinoLCD\test\Pain Drain\libraries\lvgl\src\misc/lv_txt.c ****         return NULL;
 465:..\..\..\arduinoLCD\test\Pain Drain\libraries\lvgl\src\misc/lv_txt.c ****     }
 466:..\..\..\arduinoLCD\test\Pain Drain\libraries\lvgl\src\misc/lv_txt.c **** 
 467:..\..\..\arduinoLCD\test\Pain Drain\libraries\lvgl\src\misc/lv_txt.c ****     lv_vsnprintf(raw_txt, len + 1, fmt, ap);
 468:..\..\..\arduinoLCD\test\Pain Drain\libraries\lvgl\src\misc/lv_txt.c **** 
 469:..\..\..\arduinoLCD\test\Pain Drain\libraries\lvgl\src\misc/lv_txt.c ****     /*Get the size of the Arabic text and process it*/
 470:..\..\..\arduinoLCD\test\Pain Drain\libraries\lvgl\src\misc/lv_txt.c ****     size_t len_ap = _lv_txt_ap_calc_bytes_cnt(raw_txt);
 471:..\..\..\arduinoLCD\test\Pain Drain\libraries\lvgl\src\misc/lv_txt.c ****     text = lv_mem_alloc(len_ap + 1);
 472:..\..\..\arduinoLCD\test\Pain Drain\libraries\lvgl\src\misc/lv_txt.c ****     LV_ASSERT_MALLOC(text);
 473:..\..\..\arduinoLCD\test\Pain Drain\libraries\lvgl\src\misc/lv_txt.c ****     if(text == NULL) {
 474:..\..\..\arduinoLCD\test\Pain Drain\libraries\lvgl\src\misc/lv_txt.c ****         return NULL;
 475:..\..\..\arduinoLCD\test\Pain Drain\libraries\lvgl\src\misc/lv_txt.c ****     }
 476:..\..\..\arduinoLCD\test\Pain Drain\libraries\lvgl\src\misc/lv_txt.c ****     _lv_txt_ap_proc(raw_txt, text);
 477:..\..\..\arduinoLCD\test\Pain Drain\libraries\lvgl\src\misc/lv_txt.c **** 
 478:..\..\..\arduinoLCD\test\Pain Drain\libraries\lvgl\src\misc/lv_txt.c ****     lv_mem_buf_release(raw_txt);
 479:..\..\..\arduinoLCD\test\Pain Drain\libraries\lvgl\src\misc/lv_txt.c **** #else
 480:..\..\..\arduinoLCD\test\Pain Drain\libraries\lvgl\src\misc/lv_txt.c ****     text = lv_mem_alloc(len + 1);
 481:..\..\..\arduinoLCD\test\Pain Drain\libraries\lvgl\src\misc/lv_txt.c ****     LV_ASSERT_MALLOC(text);
 482:..\..\..\arduinoLCD\test\Pain Drain\libraries\lvgl\src\misc/lv_txt.c ****     if(text == NULL) {
 483:..\..\..\arduinoLCD\test\Pain Drain\libraries\lvgl\src\misc/lv_txt.c ****         return NULL;
 484:..\..\..\arduinoLCD\test\Pain Drain\libraries\lvgl\src\misc/lv_txt.c ****     }
 485:..\..\..\arduinoLCD\test\Pain Drain\libraries\lvgl\src\misc/lv_txt.c ****     text[len] = 0; /*Ensure NULL termination*/
 486:..\..\..\arduinoLCD\test\Pain Drain\libraries\lvgl\src\misc/lv_txt.c **** 
 487:..\..\..\arduinoLCD\test\Pain Drain\libraries\lvgl\src\misc/lv_txt.c ****     lv_vsnprintf(text, len + 1, fmt, ap);
ARM GAS  C:\Users\haske\AppData\Local\Temp\ccg6iOQH.s 			page 10


 488:..\..\..\arduinoLCD\test\Pain Drain\libraries\lvgl\src\misc/lv_txt.c **** #endif
 489:..\..\..\arduinoLCD\test\Pain Drain\libraries\lvgl\src\misc/lv_txt.c **** 
 490:..\..\..\arduinoLCD\test\Pain Drain\libraries\lvgl\src\misc/lv_txt.c ****     return text;
 491:..\..\..\arduinoLCD\test\Pain Drain\libraries\lvgl\src\misc/lv_txt.c **** }
 492:..\..\..\arduinoLCD\test\Pain Drain\libraries\lvgl\src\misc/lv_txt.c **** 
 493:..\..\..\arduinoLCD\test\Pain Drain\libraries\lvgl\src\misc/lv_txt.c **** void _lv_txt_encoded_letter_next_2(const char * txt, uint32_t * letter, uint32_t * letter_next, uin
 494:..\..\..\arduinoLCD\test\Pain Drain\libraries\lvgl\src\misc/lv_txt.c **** {
 495:..\..\..\arduinoLCD\test\Pain Drain\libraries\lvgl\src\misc/lv_txt.c ****     *letter = _lv_txt_encoded_next(txt, ofs);
 496:..\..\..\arduinoLCD\test\Pain Drain\libraries\lvgl\src\misc/lv_txt.c ****     *letter_next = *letter != '\0' ? _lv_txt_encoded_next(&txt[*ofs], NULL) : 0;
 497:..\..\..\arduinoLCD\test\Pain Drain\libraries\lvgl\src\misc/lv_txt.c **** }
 498:..\..\..\arduinoLCD\test\Pain Drain\libraries\lvgl\src\misc/lv_txt.c **** 
 499:..\..\..\arduinoLCD\test\Pain Drain\libraries\lvgl\src\misc/lv_txt.c **** #if LV_TXT_ENC == LV_TXT_ENC_UTF8
 500:..\..\..\arduinoLCD\test\Pain Drain\libraries\lvgl\src\misc/lv_txt.c **** /*******************************
 501:..\..\..\arduinoLCD\test\Pain Drain\libraries\lvgl\src\misc/lv_txt.c ****  *   UTF-8 ENCODER/DECODER
 502:..\..\..\arduinoLCD\test\Pain Drain\libraries\lvgl\src\misc/lv_txt.c ****  ******************************/
 503:..\..\..\arduinoLCD\test\Pain Drain\libraries\lvgl\src\misc/lv_txt.c **** 
 504:..\..\..\arduinoLCD\test\Pain Drain\libraries\lvgl\src\misc/lv_txt.c **** /**
 505:..\..\..\arduinoLCD\test\Pain Drain\libraries\lvgl\src\misc/lv_txt.c ****  * Give the size of an UTF-8 coded character
 506:..\..\..\arduinoLCD\test\Pain Drain\libraries\lvgl\src\misc/lv_txt.c ****  * @param str pointer to a character in a string
 507:..\..\..\arduinoLCD\test\Pain Drain\libraries\lvgl\src\misc/lv_txt.c ****  * @return length of the UTF-8 character (1,2,3 or 4), 0 on invalid code.
 508:..\..\..\arduinoLCD\test\Pain Drain\libraries\lvgl\src\misc/lv_txt.c ****  */
 509:..\..\..\arduinoLCD\test\Pain Drain\libraries\lvgl\src\misc/lv_txt.c **** static uint8_t lv_txt_utf8_size(const char * str)
 510:..\..\..\arduinoLCD\test\Pain Drain\libraries\lvgl\src\misc/lv_txt.c **** {
  27              		.loc 1 510 0
  28              		.cfi_startproc
  29              		@ args = 0, pretend = 0, frame = 0
  30              		@ frame_needed = 0, uses_anonymous_args = 0
  31              		@ link register save eliminated.
  32              	.LVL0:
 511:..\..\..\arduinoLCD\test\Pain Drain\libraries\lvgl\src\misc/lv_txt.c ****     if(LV_IS_ASCII(str[0]))
  33              		.loc 1 511 0
  34 0000 0378     		ldrb	r3, [r0]
  35 0002 5AB2     		sxtb	r2, r3
  36 0004 002A     		cmp	r2, #0
  37 0006 0FDA     		bge	.L3
 512:..\..\..\arduinoLCD\test\Pain Drain\libraries\lvgl\src\misc/lv_txt.c ****         return 1;
 513:..\..\..\arduinoLCD\test\Pain Drain\libraries\lvgl\src\misc/lv_txt.c ****     else if(LV_IS_2BYTES_UTF8_CODE(str[0]))
  38              		.loc 1 513 0
  39 0008 1F22     		movs	r2, #31
  40 000a 1900     		movs	r1, r3
  41 000c 9143     		bics	r1, r2
  42 000e C029     		cmp	r1, #192
  43 0010 0CD0     		beq	.L4
 514:..\..\..\arduinoLCD\test\Pain Drain\libraries\lvgl\src\misc/lv_txt.c ****         return 2;
 515:..\..\..\arduinoLCD\test\Pain Drain\libraries\lvgl\src\misc/lv_txt.c ****     else if(LV_IS_3BYTES_UTF8_CODE(str[0]))
  44              		.loc 1 515 0
  45 0012 0F22     		movs	r2, #15
  46 0014 1900     		movs	r1, r3
  47 0016 9143     		bics	r1, r2
  48 0018 E029     		cmp	r1, #224
  49 001a 09D0     		beq	.L5
 516:..\..\..\arduinoLCD\test\Pain Drain\libraries\lvgl\src\misc/lv_txt.c ****         return 3;
 517:..\..\..\arduinoLCD\test\Pain Drain\libraries\lvgl\src\misc/lv_txt.c ****     else if(LV_IS_4BYTES_UTF8_CODE(str[0]))
  50              		.loc 1 517 0
  51 001c 0722     		movs	r2, #7
  52 001e 9343     		bics	r3, r2
  53 0020 F02B     		cmp	r3, #240
ARM GAS  C:\Users\haske\AppData\Local\Temp\ccg6iOQH.s 			page 11


  54 0022 07D1     		bne	.L6
 518:..\..\..\arduinoLCD\test\Pain Drain\libraries\lvgl\src\misc/lv_txt.c ****         return 4;
  55              		.loc 1 518 0
  56 0024 0420     		movs	r0, #4
  57              	.LVL1:
  58 0026 06E0     		b	.L2
  59              	.LVL2:
  60              	.L3:
 512:..\..\..\arduinoLCD\test\Pain Drain\libraries\lvgl\src\misc/lv_txt.c ****     else if(LV_IS_2BYTES_UTF8_CODE(str[0]))
  61              		.loc 1 512 0
  62 0028 0120     		movs	r0, #1
  63              	.LVL3:
  64 002a 04E0     		b	.L2
  65              	.LVL4:
  66              	.L4:
 514:..\..\..\arduinoLCD\test\Pain Drain\libraries\lvgl\src\misc/lv_txt.c ****     else if(LV_IS_3BYTES_UTF8_CODE(str[0]))
  67              		.loc 1 514 0
  68 002c 0220     		movs	r0, #2
  69              	.LVL5:
  70 002e 02E0     		b	.L2
  71              	.LVL6:
  72              	.L5:
 516:..\..\..\arduinoLCD\test\Pain Drain\libraries\lvgl\src\misc/lv_txt.c ****     else if(LV_IS_4BYTES_UTF8_CODE(str[0]))
  73              		.loc 1 516 0
  74 0030 0320     		movs	r0, #3
  75              	.LVL7:
  76 0032 00E0     		b	.L2
  77              	.LVL8:
  78              	.L6:
 519:..\..\..\arduinoLCD\test\Pain Drain\libraries\lvgl\src\misc/lv_txt.c ****     return 0;
  79              		.loc 1 519 0
  80 0034 0020     		movs	r0, #0
  81              	.LVL9:
  82              	.L2:
 520:..\..\..\arduinoLCD\test\Pain Drain\libraries\lvgl\src\misc/lv_txt.c **** }
  83              		.loc 1 520 0
  84              		@ sp needed
  85 0036 7047     		bx	lr
  86              		.cfi_endproc
  87              	.LFE64:
  88              		.size	lv_txt_utf8_size, .-lv_txt_utf8_size
  89              		.section	.text.lv_txt_unicode_to_utf8,"ax",%progbits
  90              		.align	2
  91              		.code	16
  92              		.thumb_func
  93              		.type	lv_txt_unicode_to_utf8, %function
  94              	lv_txt_unicode_to_utf8:
  95              	.LFB65:
 521:..\..\..\arduinoLCD\test\Pain Drain\libraries\lvgl\src\misc/lv_txt.c **** 
 522:..\..\..\arduinoLCD\test\Pain Drain\libraries\lvgl\src\misc/lv_txt.c **** /**
 523:..\..\..\arduinoLCD\test\Pain Drain\libraries\lvgl\src\misc/lv_txt.c ****  * Convert a Unicode letter to UTF-8.
 524:..\..\..\arduinoLCD\test\Pain Drain\libraries\lvgl\src\misc/lv_txt.c ****  * @param letter_uni a Unicode letter
 525:..\..\..\arduinoLCD\test\Pain Drain\libraries\lvgl\src\misc/lv_txt.c ****  * @return UTF-8 coded character in Little Endian to be compatible with C chars (e.g. '', '')
 526:..\..\..\arduinoLCD\test\Pain Drain\libraries\lvgl\src\misc/lv_txt.c ****  */
 527:..\..\..\arduinoLCD\test\Pain Drain\libraries\lvgl\src\misc/lv_txt.c **** static uint32_t lv_txt_unicode_to_utf8(uint32_t letter_uni)
 528:..\..\..\arduinoLCD\test\Pain Drain\libraries\lvgl\src\misc/lv_txt.c **** {
  96              		.loc 1 528 0
ARM GAS  C:\Users\haske\AppData\Local\Temp\ccg6iOQH.s 			page 12


  97              		.cfi_startproc
  98              		@ args = 0, pretend = 0, frame = 8
  99              		@ frame_needed = 0, uses_anonymous_args = 0
 100              	.LVL10:
 101 0000 10B5     		push	{r4, lr}
 102              		.cfi_def_cfa_offset 8
 103              		.cfi_offset 4, -8
 104              		.cfi_offset 14, -4
 105 0002 82B0     		sub	sp, sp, #8
 106              		.cfi_def_cfa_offset 16
 529:..\..\..\arduinoLCD\test\Pain Drain\libraries\lvgl\src\misc/lv_txt.c ****     if(letter_uni < 128) return letter_uni;
 107              		.loc 1 529 0
 108 0004 7F28     		cmp	r0, #127
 109 0006 44D9     		bls	.L8
 530:..\..\..\arduinoLCD\test\Pain Drain\libraries\lvgl\src\misc/lv_txt.c ****     uint8_t bytes[4];
 531:..\..\..\arduinoLCD\test\Pain Drain\libraries\lvgl\src\misc/lv_txt.c **** 
 532:..\..\..\arduinoLCD\test\Pain Drain\libraries\lvgl\src\misc/lv_txt.c ****     if(letter_uni < 0x0800) {
 110              		.loc 1 532 0
 111 0008 234B     		ldr	r3, .L14
 112 000a 9842     		cmp	r0, r3
 113 000c 0FD8     		bhi	.L9
 533:..\..\..\arduinoLCD\test\Pain Drain\libraries\lvgl\src\misc/lv_txt.c ****         bytes[0] = ((letter_uni >> 6) & 0x1F) | 0xC0;
 114              		.loc 1 533 0
 115 000e 8309     		lsrs	r3, r0, #6
 116 0010 01AA     		add	r2, sp, #4
 117 0012 1F21     		movs	r1, #31
 118 0014 0B40     		ands	r3, r1
 119 0016 5F39     		subs	r1, r1, #95
 120 0018 0B43     		orrs	r3, r1
 121 001a 1370     		strb	r3, [r2]
 534:..\..\..\arduinoLCD\test\Pain Drain\libraries\lvgl\src\misc/lv_txt.c ****         bytes[1] = ((letter_uni >> 0) & 0x3F) | 0x80;
 122              		.loc 1 534 0
 123 001c 3F23     		movs	r3, #63
 124 001e 1840     		ands	r0, r3
 125              	.LVL11:
 126 0020 BF3B     		subs	r3, r3, #191
 127 0022 1843     		orrs	r0, r3
 128 0024 5070     		strb	r0, [r2, #1]
 535:..\..\..\arduinoLCD\test\Pain Drain\libraries\lvgl\src\misc/lv_txt.c ****         bytes[2] = 0;
 129              		.loc 1 535 0
 130 0026 0023     		movs	r3, #0
 131 0028 9370     		strb	r3, [r2, #2]
 536:..\..\..\arduinoLCD\test\Pain Drain\libraries\lvgl\src\misc/lv_txt.c ****         bytes[3] = 0;
 132              		.loc 1 536 0
 133 002a D370     		strb	r3, [r2, #3]
 134 002c 2EE0     		b	.L10
 135              	.LVL12:
 136              	.L9:
 537:..\..\..\arduinoLCD\test\Pain Drain\libraries\lvgl\src\misc/lv_txt.c ****     }
 538:..\..\..\arduinoLCD\test\Pain Drain\libraries\lvgl\src\misc/lv_txt.c ****     else if(letter_uni < 0x010000) {
 137              		.loc 1 538 0
 138 002e 1B4B     		ldr	r3, .L14+4
 139 0030 9842     		cmp	r0, r3
 140 0032 13D8     		bhi	.L11
 539:..\..\..\arduinoLCD\test\Pain Drain\libraries\lvgl\src\misc/lv_txt.c ****         bytes[0] = ((letter_uni >> 12) & 0x0F) | 0xE0;
 141              		.loc 1 539 0
 142 0034 030B     		lsrs	r3, r0, #12
ARM GAS  C:\Users\haske\AppData\Local\Temp\ccg6iOQH.s 			page 13


 143 0036 01A9     		add	r1, sp, #4
 144 0038 0F22     		movs	r2, #15
 145 003a 1340     		ands	r3, r2
 146 003c 2F3A     		subs	r2, r2, #47
 147 003e 1343     		orrs	r3, r2
 148 0040 0B70     		strb	r3, [r1]
 540:..\..\..\arduinoLCD\test\Pain Drain\libraries\lvgl\src\misc/lv_txt.c ****         bytes[1] = ((letter_uni >> 6) & 0x3F) | 0x80;
 149              		.loc 1 540 0
 150 0042 8209     		lsrs	r2, r0, #6
 151 0044 3F23     		movs	r3, #63
 152 0046 1A40     		ands	r2, r3
 153 0048 8024     		movs	r4, #128
 154 004a 6442     		rsbs	r4, r4, #0
 155 004c 2243     		orrs	r2, r4
 156 004e 4A70     		strb	r2, [r1, #1]
 541:..\..\..\arduinoLCD\test\Pain Drain\libraries\lvgl\src\misc/lv_txt.c ****         bytes[2] = ((letter_uni >> 0) & 0x3F) | 0x80;
 157              		.loc 1 541 0
 158 0050 1840     		ands	r0, r3
 159              	.LVL13:
 160 0052 2043     		orrs	r0, r4
 161 0054 8870     		strb	r0, [r1, #2]
 542:..\..\..\arduinoLCD\test\Pain Drain\libraries\lvgl\src\misc/lv_txt.c ****         bytes[3] = 0;
 162              		.loc 1 542 0
 163 0056 0023     		movs	r3, #0
 164 0058 CB70     		strb	r3, [r1, #3]
 165 005a 17E0     		b	.L10
 166              	.LVL14:
 167              	.L11:
 543:..\..\..\arduinoLCD\test\Pain Drain\libraries\lvgl\src\misc/lv_txt.c ****     }
 544:..\..\..\arduinoLCD\test\Pain Drain\libraries\lvgl\src\misc/lv_txt.c ****     else if(letter_uni < 0x110000) {
 168              		.loc 1 544 0
 169 005c 104B     		ldr	r3, .L14+8
 170 005e 9842     		cmp	r0, r3
 171 0060 16D8     		bhi	.L13
 545:..\..\..\arduinoLCD\test\Pain Drain\libraries\lvgl\src\misc/lv_txt.c ****         bytes[0] = ((letter_uni >> 18) & 0x07) | 0xF0;
 172              		.loc 1 545 0
 173 0062 830C     		lsrs	r3, r0, #18
 174 0064 01A9     		add	r1, sp, #4
 175 0066 0722     		movs	r2, #7
 176 0068 1340     		ands	r3, r2
 177 006a 173A     		subs	r2, r2, #23
 178 006c 1343     		orrs	r3, r2
 179 006e 0B70     		strb	r3, [r1]
 546:..\..\..\arduinoLCD\test\Pain Drain\libraries\lvgl\src\misc/lv_txt.c ****         bytes[1] = ((letter_uni >> 12) & 0x3F) | 0x80;
 180              		.loc 1 546 0
 181 0070 020B     		lsrs	r2, r0, #12
 182 0072 3F23     		movs	r3, #63
 183 0074 1A40     		ands	r2, r3
 184 0076 8024     		movs	r4, #128
 185 0078 6442     		rsbs	r4, r4, #0
 186 007a 2243     		orrs	r2, r4
 187 007c 4A70     		strb	r2, [r1, #1]
 547:..\..\..\arduinoLCD\test\Pain Drain\libraries\lvgl\src\misc/lv_txt.c ****         bytes[2] = ((letter_uni >> 6) & 0x3F) | 0x80;
 188              		.loc 1 547 0
 189 007e 8209     		lsrs	r2, r0, #6
 190 0080 1A40     		ands	r2, r3
 191 0082 2243     		orrs	r2, r4
ARM GAS  C:\Users\haske\AppData\Local\Temp\ccg6iOQH.s 			page 14


 192 0084 8A70     		strb	r2, [r1, #2]
 548:..\..\..\arduinoLCD\test\Pain Drain\libraries\lvgl\src\misc/lv_txt.c ****         bytes[3] = ((letter_uni >> 0) & 0x3F) | 0x80;
 193              		.loc 1 548 0
 194 0086 1840     		ands	r0, r3
 195              	.LVL15:
 196 0088 2043     		orrs	r0, r4
 197 008a C870     		strb	r0, [r1, #3]
 198              	.L10:
 199              	.LVL16:
 549:..\..\..\arduinoLCD\test\Pain Drain\libraries\lvgl\src\misc/lv_txt.c ****     }
 550:..\..\..\arduinoLCD\test\Pain Drain\libraries\lvgl\src\misc/lv_txt.c ****     else {
 551:..\..\..\arduinoLCD\test\Pain Drain\libraries\lvgl\src\misc/lv_txt.c ****         return 0;
 552:..\..\..\arduinoLCD\test\Pain Drain\libraries\lvgl\src\misc/lv_txt.c ****     }
 553:..\..\..\arduinoLCD\test\Pain Drain\libraries\lvgl\src\misc/lv_txt.c **** 
 554:..\..\..\arduinoLCD\test\Pain Drain\libraries\lvgl\src\misc/lv_txt.c ****     uint32_t * res_p = (uint32_t *)bytes;
 555:..\..\..\arduinoLCD\test\Pain Drain\libraries\lvgl\src\misc/lv_txt.c ****     return *res_p;
 200              		.loc 1 555 0
 201 008c 0198     		ldr	r0, [sp, #4]
 202 008e 00E0     		b	.L8
 203              	.LVL17:
 204              	.L13:
 551:..\..\..\arduinoLCD\test\Pain Drain\libraries\lvgl\src\misc/lv_txt.c ****     }
 205              		.loc 1 551 0
 206 0090 0020     		movs	r0, #0
 207              	.LVL18:
 208              	.L8:
 556:..\..\..\arduinoLCD\test\Pain Drain\libraries\lvgl\src\misc/lv_txt.c **** }
 209              		.loc 1 556 0
 210 0092 02B0     		add	sp, sp, #8
 211              		@ sp needed
 212 0094 10BD     		pop	{r4, pc}
 213              	.L15:
 214 0096 C046     		.align	2
 215              	.L14:
 216 0098 FF070000 		.word	2047
 217 009c FFFF0000 		.word	65535
 218 00a0 FFFF1000 		.word	1114111
 219              		.cfi_endproc
 220              	.LFE65:
 221              		.size	lv_txt_unicode_to_utf8, .-lv_txt_unicode_to_utf8
 222              		.section	.text.lv_txt_utf8_conv_wc,"ax",%progbits
 223              		.align	2
 224              		.code	16
 225              		.thumb_func
 226              		.type	lv_txt_utf8_conv_wc, %function
 227              	lv_txt_utf8_conv_wc:
 228              	.LFB66:
 557:..\..\..\arduinoLCD\test\Pain Drain\libraries\lvgl\src\misc/lv_txt.c **** 
 558:..\..\..\arduinoLCD\test\Pain Drain\libraries\lvgl\src\misc/lv_txt.c **** /**
 559:..\..\..\arduinoLCD\test\Pain Drain\libraries\lvgl\src\misc/lv_txt.c ****  * Convert a wide character, e.g. '' little endian to be UTF-8 compatible
 560:..\..\..\arduinoLCD\test\Pain Drain\libraries\lvgl\src\misc/lv_txt.c ****  * @param c a wide character or a  Little endian number
 561:..\..\..\arduinoLCD\test\Pain Drain\libraries\lvgl\src\misc/lv_txt.c ****  * @return `c` in big endian
 562:..\..\..\arduinoLCD\test\Pain Drain\libraries\lvgl\src\misc/lv_txt.c ****  */
 563:..\..\..\arduinoLCD\test\Pain Drain\libraries\lvgl\src\misc/lv_txt.c **** static uint32_t lv_txt_utf8_conv_wc(uint32_t c)
 564:..\..\..\arduinoLCD\test\Pain Drain\libraries\lvgl\src\misc/lv_txt.c **** {
 229              		.loc 1 564 0
 230              		.cfi_startproc
ARM GAS  C:\Users\haske\AppData\Local\Temp\ccg6iOQH.s 			page 15


 231              		@ args = 0, pretend = 0, frame = 16
 232              		@ frame_needed = 0, uses_anonymous_args = 0
 233              		@ link register save eliminated.
 234              	.LVL19:
 235 0000 84B0     		sub	sp, sp, #16
 236              		.cfi_def_cfa_offset 16
 237 0002 0300     		movs	r3, r0
 238 0004 0190     		str	r0, [sp, #4]
 565:..\..\..\arduinoLCD\test\Pain Drain\libraries\lvgl\src\misc/lv_txt.c **** #if LV_BIG_ENDIAN_SYSTEM == 0
 566:..\..\..\arduinoLCD\test\Pain Drain\libraries\lvgl\src\misc/lv_txt.c ****     /*Swap the bytes (UTF-8 is big endian, but the MCUs are little endian)*/
 567:..\..\..\arduinoLCD\test\Pain Drain\libraries\lvgl\src\misc/lv_txt.c ****     if((c & 0x80) != 0) {
 239              		.loc 1 567 0
 240 0006 1B06     		lsls	r3, r3, #24
 241 0008 06D4     		bmi	.L23
 242 000a 20E0     		b	.L18
 243              	.LVL20:
 244              	.L19:
 245              	.LBB12:
 246              	.LBB13:
 247              	.LBB14:
 248              		.file 2 "c:\\projects\\paindrain\\arduinolcd\\test\\pain drain\\libraries\\lvgl\\src\\misc\\lv_mem
   1:c:\projects\paindrain\arduinolcd\test\pain drain\libraries\lvgl\src\misc\lv_mem.h **** /**
   2:c:\projects\paindrain\arduinolcd\test\pain drain\libraries\lvgl\src\misc\lv_mem.h ****  * @file lv_mem.h
   3:c:\projects\paindrain\arduinolcd\test\pain drain\libraries\lvgl\src\misc\lv_mem.h ****  *
   4:c:\projects\paindrain\arduinolcd\test\pain drain\libraries\lvgl\src\misc\lv_mem.h ****  */
   5:c:\projects\paindrain\arduinolcd\test\pain drain\libraries\lvgl\src\misc\lv_mem.h **** 
   6:c:\projects\paindrain\arduinolcd\test\pain drain\libraries\lvgl\src\misc\lv_mem.h **** #ifndef LV_MEM_H
   7:c:\projects\paindrain\arduinolcd\test\pain drain\libraries\lvgl\src\misc\lv_mem.h **** #define LV_MEM_H
   8:c:\projects\paindrain\arduinolcd\test\pain drain\libraries\lvgl\src\misc\lv_mem.h **** 
   9:c:\projects\paindrain\arduinolcd\test\pain drain\libraries\lvgl\src\misc\lv_mem.h **** #ifdef __cplusplus
  10:c:\projects\paindrain\arduinolcd\test\pain drain\libraries\lvgl\src\misc\lv_mem.h **** extern "C" {
  11:c:\projects\paindrain\arduinolcd\test\pain drain\libraries\lvgl\src\misc\lv_mem.h **** #endif
  12:c:\projects\paindrain\arduinolcd\test\pain drain\libraries\lvgl\src\misc\lv_mem.h **** 
  13:c:\projects\paindrain\arduinolcd\test\pain drain\libraries\lvgl\src\misc\lv_mem.h **** /*********************
  14:c:\projects\paindrain\arduinolcd\test\pain drain\libraries\lvgl\src\misc\lv_mem.h ****  *      INCLUDES
  15:c:\projects\paindrain\arduinolcd\test\pain drain\libraries\lvgl\src\misc\lv_mem.h ****  *********************/
  16:c:\projects\paindrain\arduinolcd\test\pain drain\libraries\lvgl\src\misc\lv_mem.h **** #include "../lv_conf_internal.h"
  17:c:\projects\paindrain\arduinolcd\test\pain drain\libraries\lvgl\src\misc\lv_mem.h **** 
  18:c:\projects\paindrain\arduinolcd\test\pain drain\libraries\lvgl\src\misc\lv_mem.h **** #include <stdint.h>
  19:c:\projects\paindrain\arduinolcd\test\pain drain\libraries\lvgl\src\misc\lv_mem.h **** #include <stddef.h>
  20:c:\projects\paindrain\arduinolcd\test\pain drain\libraries\lvgl\src\misc\lv_mem.h **** #include <string.h>
  21:c:\projects\paindrain\arduinolcd\test\pain drain\libraries\lvgl\src\misc\lv_mem.h **** 
  22:c:\projects\paindrain\arduinolcd\test\pain drain\libraries\lvgl\src\misc\lv_mem.h **** #include "lv_types.h"
  23:c:\projects\paindrain\arduinolcd\test\pain drain\libraries\lvgl\src\misc\lv_mem.h **** 
  24:c:\projects\paindrain\arduinolcd\test\pain drain\libraries\lvgl\src\misc\lv_mem.h **** /*********************
  25:c:\projects\paindrain\arduinolcd\test\pain drain\libraries\lvgl\src\misc\lv_mem.h ****  *      DEFINES
  26:c:\projects\paindrain\arduinolcd\test\pain drain\libraries\lvgl\src\misc\lv_mem.h ****  *********************/
  27:c:\projects\paindrain\arduinolcd\test\pain drain\libraries\lvgl\src\misc\lv_mem.h **** 
  28:c:\projects\paindrain\arduinolcd\test\pain drain\libraries\lvgl\src\misc\lv_mem.h **** /**********************
  29:c:\projects\paindrain\arduinolcd\test\pain drain\libraries\lvgl\src\misc\lv_mem.h ****  *      TYPEDEFS
  30:c:\projects\paindrain\arduinolcd\test\pain drain\libraries\lvgl\src\misc\lv_mem.h ****  **********************/
  31:c:\projects\paindrain\arduinolcd\test\pain drain\libraries\lvgl\src\misc\lv_mem.h **** 
  32:c:\projects\paindrain\arduinolcd\test\pain drain\libraries\lvgl\src\misc\lv_mem.h **** /**
  33:c:\projects\paindrain\arduinolcd\test\pain drain\libraries\lvgl\src\misc\lv_mem.h ****  * Heap information structure.
  34:c:\projects\paindrain\arduinolcd\test\pain drain\libraries\lvgl\src\misc\lv_mem.h ****  */
  35:c:\projects\paindrain\arduinolcd\test\pain drain\libraries\lvgl\src\misc\lv_mem.h **** typedef struct {
  36:c:\projects\paindrain\arduinolcd\test\pain drain\libraries\lvgl\src\misc\lv_mem.h ****     uint32_t total_size; /**< Total heap size*/
ARM GAS  C:\Users\haske\AppData\Local\Temp\ccg6iOQH.s 			page 16


  37:c:\projects\paindrain\arduinolcd\test\pain drain\libraries\lvgl\src\misc\lv_mem.h ****     uint32_t free_cnt;
  38:c:\projects\paindrain\arduinolcd\test\pain drain\libraries\lvgl\src\misc\lv_mem.h ****     uint32_t free_size; /**< Size of available memory*/
  39:c:\projects\paindrain\arduinolcd\test\pain drain\libraries\lvgl\src\misc\lv_mem.h ****     uint32_t free_biggest_size;
  40:c:\projects\paindrain\arduinolcd\test\pain drain\libraries\lvgl\src\misc\lv_mem.h ****     uint32_t used_cnt;
  41:c:\projects\paindrain\arduinolcd\test\pain drain\libraries\lvgl\src\misc\lv_mem.h ****     uint32_t max_used; /**< Max size of Heap memory used*/
  42:c:\projects\paindrain\arduinolcd\test\pain drain\libraries\lvgl\src\misc\lv_mem.h ****     uint8_t used_pct; /**< Percentage used*/
  43:c:\projects\paindrain\arduinolcd\test\pain drain\libraries\lvgl\src\misc\lv_mem.h ****     uint8_t frag_pct; /**< Amount of fragmentation*/
  44:c:\projects\paindrain\arduinolcd\test\pain drain\libraries\lvgl\src\misc\lv_mem.h **** } lv_mem_monitor_t;
  45:c:\projects\paindrain\arduinolcd\test\pain drain\libraries\lvgl\src\misc\lv_mem.h **** 
  46:c:\projects\paindrain\arduinolcd\test\pain drain\libraries\lvgl\src\misc\lv_mem.h **** typedef struct {
  47:c:\projects\paindrain\arduinolcd\test\pain drain\libraries\lvgl\src\misc\lv_mem.h ****     void * p;
  48:c:\projects\paindrain\arduinolcd\test\pain drain\libraries\lvgl\src\misc\lv_mem.h ****     uint16_t size;
  49:c:\projects\paindrain\arduinolcd\test\pain drain\libraries\lvgl\src\misc\lv_mem.h ****     uint8_t used : 1;
  50:c:\projects\paindrain\arduinolcd\test\pain drain\libraries\lvgl\src\misc\lv_mem.h **** } lv_mem_buf_t;
  51:c:\projects\paindrain\arduinolcd\test\pain drain\libraries\lvgl\src\misc\lv_mem.h **** 
  52:c:\projects\paindrain\arduinolcd\test\pain drain\libraries\lvgl\src\misc\lv_mem.h **** typedef lv_mem_buf_t lv_mem_buf_arr_t[LV_MEM_BUF_MAX_NUM];
  53:c:\projects\paindrain\arduinolcd\test\pain drain\libraries\lvgl\src\misc\lv_mem.h **** 
  54:c:\projects\paindrain\arduinolcd\test\pain drain\libraries\lvgl\src\misc\lv_mem.h **** /**********************
  55:c:\projects\paindrain\arduinolcd\test\pain drain\libraries\lvgl\src\misc\lv_mem.h ****  * GLOBAL PROTOTYPES
  56:c:\projects\paindrain\arduinolcd\test\pain drain\libraries\lvgl\src\misc\lv_mem.h ****  **********************/
  57:c:\projects\paindrain\arduinolcd\test\pain drain\libraries\lvgl\src\misc\lv_mem.h **** 
  58:c:\projects\paindrain\arduinolcd\test\pain drain\libraries\lvgl\src\misc\lv_mem.h **** /**
  59:c:\projects\paindrain\arduinolcd\test\pain drain\libraries\lvgl\src\misc\lv_mem.h ****  * Initialize the dyn_mem module (work memory and other variables)
  60:c:\projects\paindrain\arduinolcd\test\pain drain\libraries\lvgl\src\misc\lv_mem.h ****  */
  61:c:\projects\paindrain\arduinolcd\test\pain drain\libraries\lvgl\src\misc\lv_mem.h **** void lv_mem_init(void);
  62:c:\projects\paindrain\arduinolcd\test\pain drain\libraries\lvgl\src\misc\lv_mem.h **** 
  63:c:\projects\paindrain\arduinolcd\test\pain drain\libraries\lvgl\src\misc\lv_mem.h **** /**
  64:c:\projects\paindrain\arduinolcd\test\pain drain\libraries\lvgl\src\misc\lv_mem.h ****  * Clean up the memory buffer which frees all the allocated memories.
  65:c:\projects\paindrain\arduinolcd\test\pain drain\libraries\lvgl\src\misc\lv_mem.h ****  * @note It work only if `LV_MEM_CUSTOM == 0`
  66:c:\projects\paindrain\arduinolcd\test\pain drain\libraries\lvgl\src\misc\lv_mem.h ****  */
  67:c:\projects\paindrain\arduinolcd\test\pain drain\libraries\lvgl\src\misc\lv_mem.h **** void lv_mem_deinit(void);
  68:c:\projects\paindrain\arduinolcd\test\pain drain\libraries\lvgl\src\misc\lv_mem.h **** 
  69:c:\projects\paindrain\arduinolcd\test\pain drain\libraries\lvgl\src\misc\lv_mem.h **** /**
  70:c:\projects\paindrain\arduinolcd\test\pain drain\libraries\lvgl\src\misc\lv_mem.h ****  * Allocate a memory dynamically
  71:c:\projects\paindrain\arduinolcd\test\pain drain\libraries\lvgl\src\misc\lv_mem.h ****  * @param size size of the memory to allocate in bytes
  72:c:\projects\paindrain\arduinolcd\test\pain drain\libraries\lvgl\src\misc\lv_mem.h ****  * @return pointer to the allocated memory
  73:c:\projects\paindrain\arduinolcd\test\pain drain\libraries\lvgl\src\misc\lv_mem.h ****  */
  74:c:\projects\paindrain\arduinolcd\test\pain drain\libraries\lvgl\src\misc\lv_mem.h **** void * lv_mem_alloc(size_t size);
  75:c:\projects\paindrain\arduinolcd\test\pain drain\libraries\lvgl\src\misc\lv_mem.h **** 
  76:c:\projects\paindrain\arduinolcd\test\pain drain\libraries\lvgl\src\misc\lv_mem.h **** /**
  77:c:\projects\paindrain\arduinolcd\test\pain drain\libraries\lvgl\src\misc\lv_mem.h ****  * Free an allocated data
  78:c:\projects\paindrain\arduinolcd\test\pain drain\libraries\lvgl\src\misc\lv_mem.h ****  * @param data pointer to an allocated memory
  79:c:\projects\paindrain\arduinolcd\test\pain drain\libraries\lvgl\src\misc\lv_mem.h ****  */
  80:c:\projects\paindrain\arduinolcd\test\pain drain\libraries\lvgl\src\misc\lv_mem.h **** void lv_mem_free(void * data);
  81:c:\projects\paindrain\arduinolcd\test\pain drain\libraries\lvgl\src\misc\lv_mem.h **** 
  82:c:\projects\paindrain\arduinolcd\test\pain drain\libraries\lvgl\src\misc\lv_mem.h **** /**
  83:c:\projects\paindrain\arduinolcd\test\pain drain\libraries\lvgl\src\misc\lv_mem.h ****  * Reallocate a memory with a new size. The old content will be kept.
  84:c:\projects\paindrain\arduinolcd\test\pain drain\libraries\lvgl\src\misc\lv_mem.h ****  * @param data pointer to an allocated memory.
  85:c:\projects\paindrain\arduinolcd\test\pain drain\libraries\lvgl\src\misc\lv_mem.h ****  * Its content will be copied to the new memory block and freed
  86:c:\projects\paindrain\arduinolcd\test\pain drain\libraries\lvgl\src\misc\lv_mem.h ****  * @param new_size the desired new size in byte
  87:c:\projects\paindrain\arduinolcd\test\pain drain\libraries\lvgl\src\misc\lv_mem.h ****  * @return pointer to the new memory, NULL on failure
  88:c:\projects\paindrain\arduinolcd\test\pain drain\libraries\lvgl\src\misc\lv_mem.h ****  */
  89:c:\projects\paindrain\arduinolcd\test\pain drain\libraries\lvgl\src\misc\lv_mem.h **** void * lv_mem_realloc(void * data_p, size_t new_size);
  90:c:\projects\paindrain\arduinolcd\test\pain drain\libraries\lvgl\src\misc\lv_mem.h **** 
  91:c:\projects\paindrain\arduinolcd\test\pain drain\libraries\lvgl\src\misc\lv_mem.h **** /**
  92:c:\projects\paindrain\arduinolcd\test\pain drain\libraries\lvgl\src\misc\lv_mem.h ****  *
  93:c:\projects\paindrain\arduinolcd\test\pain drain\libraries\lvgl\src\misc\lv_mem.h ****  * @return
ARM GAS  C:\Users\haske\AppData\Local\Temp\ccg6iOQH.s 			page 17


  94:c:\projects\paindrain\arduinolcd\test\pain drain\libraries\lvgl\src\misc\lv_mem.h ****  */
  95:c:\projects\paindrain\arduinolcd\test\pain drain\libraries\lvgl\src\misc\lv_mem.h **** lv_res_t lv_mem_test(void);
  96:c:\projects\paindrain\arduinolcd\test\pain drain\libraries\lvgl\src\misc\lv_mem.h **** 
  97:c:\projects\paindrain\arduinolcd\test\pain drain\libraries\lvgl\src\misc\lv_mem.h **** /**
  98:c:\projects\paindrain\arduinolcd\test\pain drain\libraries\lvgl\src\misc\lv_mem.h ****  * Give information about the work memory of dynamic allocation
  99:c:\projects\paindrain\arduinolcd\test\pain drain\libraries\lvgl\src\misc\lv_mem.h ****  * @param mon_p pointer to a lv_mem_monitor_t variable,
 100:c:\projects\paindrain\arduinolcd\test\pain drain\libraries\lvgl\src\misc\lv_mem.h ****  *              the result of the analysis will be stored here
 101:c:\projects\paindrain\arduinolcd\test\pain drain\libraries\lvgl\src\misc\lv_mem.h ****  */
 102:c:\projects\paindrain\arduinolcd\test\pain drain\libraries\lvgl\src\misc\lv_mem.h **** void lv_mem_monitor(lv_mem_monitor_t * mon_p);
 103:c:\projects\paindrain\arduinolcd\test\pain drain\libraries\lvgl\src\misc\lv_mem.h **** 
 104:c:\projects\paindrain\arduinolcd\test\pain drain\libraries\lvgl\src\misc\lv_mem.h **** 
 105:c:\projects\paindrain\arduinolcd\test\pain drain\libraries\lvgl\src\misc\lv_mem.h **** /**
 106:c:\projects\paindrain\arduinolcd\test\pain drain\libraries\lvgl\src\misc\lv_mem.h ****  * Get a temporal buffer with the given size.
 107:c:\projects\paindrain\arduinolcd\test\pain drain\libraries\lvgl\src\misc\lv_mem.h ****  * @param size the required size
 108:c:\projects\paindrain\arduinolcd\test\pain drain\libraries\lvgl\src\misc\lv_mem.h ****  */
 109:c:\projects\paindrain\arduinolcd\test\pain drain\libraries\lvgl\src\misc\lv_mem.h **** void * lv_mem_buf_get(uint32_t size);
 110:c:\projects\paindrain\arduinolcd\test\pain drain\libraries\lvgl\src\misc\lv_mem.h **** 
 111:c:\projects\paindrain\arduinolcd\test\pain drain\libraries\lvgl\src\misc\lv_mem.h **** /**
 112:c:\projects\paindrain\arduinolcd\test\pain drain\libraries\lvgl\src\misc\lv_mem.h ****  * Release a memory buffer
 113:c:\projects\paindrain\arduinolcd\test\pain drain\libraries\lvgl\src\misc\lv_mem.h ****  * @param p buffer to release
 114:c:\projects\paindrain\arduinolcd\test\pain drain\libraries\lvgl\src\misc\lv_mem.h ****  */
 115:c:\projects\paindrain\arduinolcd\test\pain drain\libraries\lvgl\src\misc\lv_mem.h **** void lv_mem_buf_release(void * p);
 116:c:\projects\paindrain\arduinolcd\test\pain drain\libraries\lvgl\src\misc\lv_mem.h **** 
 117:c:\projects\paindrain\arduinolcd\test\pain drain\libraries\lvgl\src\misc\lv_mem.h **** /**
 118:c:\projects\paindrain\arduinolcd\test\pain drain\libraries\lvgl\src\misc\lv_mem.h ****  * Free all memory buffers
 119:c:\projects\paindrain\arduinolcd\test\pain drain\libraries\lvgl\src\misc\lv_mem.h ****  */
 120:c:\projects\paindrain\arduinolcd\test\pain drain\libraries\lvgl\src\misc\lv_mem.h **** void lv_mem_buf_free_all(void);
 121:c:\projects\paindrain\arduinolcd\test\pain drain\libraries\lvgl\src\misc\lv_mem.h **** 
 122:c:\projects\paindrain\arduinolcd\test\pain drain\libraries\lvgl\src\misc\lv_mem.h **** //! @cond Doxygen_Suppress
 123:c:\projects\paindrain\arduinolcd\test\pain drain\libraries\lvgl\src\misc\lv_mem.h **** 
 124:c:\projects\paindrain\arduinolcd\test\pain drain\libraries\lvgl\src\misc\lv_mem.h **** #if LV_MEMCPY_MEMSET_STD
 125:c:\projects\paindrain\arduinolcd\test\pain drain\libraries\lvgl\src\misc\lv_mem.h **** 
 126:c:\projects\paindrain\arduinolcd\test\pain drain\libraries\lvgl\src\misc\lv_mem.h **** /**
 127:c:\projects\paindrain\arduinolcd\test\pain drain\libraries\lvgl\src\misc\lv_mem.h ****  * Wrapper for the standard memcpy
 128:c:\projects\paindrain\arduinolcd\test\pain drain\libraries\lvgl\src\misc\lv_mem.h ****  * @param dst pointer to the destination buffer
 129:c:\projects\paindrain\arduinolcd\test\pain drain\libraries\lvgl\src\misc\lv_mem.h ****  * @param src pointer to the source buffer
 130:c:\projects\paindrain\arduinolcd\test\pain drain\libraries\lvgl\src\misc\lv_mem.h ****  * @param len number of byte to copy
 131:c:\projects\paindrain\arduinolcd\test\pain drain\libraries\lvgl\src\misc\lv_mem.h ****  */
 132:c:\projects\paindrain\arduinolcd\test\pain drain\libraries\lvgl\src\misc\lv_mem.h **** static inline void * lv_memcpy(void * dst, const void * src, size_t len)
 133:c:\projects\paindrain\arduinolcd\test\pain drain\libraries\lvgl\src\misc\lv_mem.h **** {
 134:c:\projects\paindrain\arduinolcd\test\pain drain\libraries\lvgl\src\misc\lv_mem.h ****     return memcpy(dst, src, len);
 135:c:\projects\paindrain\arduinolcd\test\pain drain\libraries\lvgl\src\misc\lv_mem.h **** }
 136:c:\projects\paindrain\arduinolcd\test\pain drain\libraries\lvgl\src\misc\lv_mem.h **** 
 137:c:\projects\paindrain\arduinolcd\test\pain drain\libraries\lvgl\src\misc\lv_mem.h **** /**
 138:c:\projects\paindrain\arduinolcd\test\pain drain\libraries\lvgl\src\misc\lv_mem.h ****  * Wrapper for the standard memcpy
 139:c:\projects\paindrain\arduinolcd\test\pain drain\libraries\lvgl\src\misc\lv_mem.h ****  * @param dst pointer to the destination buffer
 140:c:\projects\paindrain\arduinolcd\test\pain drain\libraries\lvgl\src\misc\lv_mem.h ****  * @param src pointer to the source buffer
 141:c:\projects\paindrain\arduinolcd\test\pain drain\libraries\lvgl\src\misc\lv_mem.h ****  * @param len number of byte to copy
 142:c:\projects\paindrain\arduinolcd\test\pain drain\libraries\lvgl\src\misc\lv_mem.h ****  */
 143:c:\projects\paindrain\arduinolcd\test\pain drain\libraries\lvgl\src\misc\lv_mem.h **** static inline void * lv_memcpy_small(void * dst, const void * src, size_t len)
 144:c:\projects\paindrain\arduinolcd\test\pain drain\libraries\lvgl\src\misc\lv_mem.h **** {
 145:c:\projects\paindrain\arduinolcd\test\pain drain\libraries\lvgl\src\misc\lv_mem.h ****     return memcpy(dst, src, len);
 146:c:\projects\paindrain\arduinolcd\test\pain drain\libraries\lvgl\src\misc\lv_mem.h **** }
 147:c:\projects\paindrain\arduinolcd\test\pain drain\libraries\lvgl\src\misc\lv_mem.h **** 
 148:c:\projects\paindrain\arduinolcd\test\pain drain\libraries\lvgl\src\misc\lv_mem.h **** /**
 149:c:\projects\paindrain\arduinolcd\test\pain drain\libraries\lvgl\src\misc\lv_mem.h ****  * Wrapper for the standard memset
 150:c:\projects\paindrain\arduinolcd\test\pain drain\libraries\lvgl\src\misc\lv_mem.h ****  * @param dst pointer to the destination buffer
ARM GAS  C:\Users\haske\AppData\Local\Temp\ccg6iOQH.s 			page 18


 151:c:\projects\paindrain\arduinolcd\test\pain drain\libraries\lvgl\src\misc\lv_mem.h ****  * @param v value to set [0..255]
 152:c:\projects\paindrain\arduinolcd\test\pain drain\libraries\lvgl\src\misc\lv_mem.h ****  * @param len number of byte to set
 153:c:\projects\paindrain\arduinolcd\test\pain drain\libraries\lvgl\src\misc\lv_mem.h ****  */
 154:c:\projects\paindrain\arduinolcd\test\pain drain\libraries\lvgl\src\misc\lv_mem.h **** static inline void lv_memset(void * dst, uint8_t v, size_t len)
 155:c:\projects\paindrain\arduinolcd\test\pain drain\libraries\lvgl\src\misc\lv_mem.h **** {
 156:c:\projects\paindrain\arduinolcd\test\pain drain\libraries\lvgl\src\misc\lv_mem.h ****     memset(dst, v, len);
 157:c:\projects\paindrain\arduinolcd\test\pain drain\libraries\lvgl\src\misc\lv_mem.h **** }
 158:c:\projects\paindrain\arduinolcd\test\pain drain\libraries\lvgl\src\misc\lv_mem.h **** 
 159:c:\projects\paindrain\arduinolcd\test\pain drain\libraries\lvgl\src\misc\lv_mem.h **** /**
 160:c:\projects\paindrain\arduinolcd\test\pain drain\libraries\lvgl\src\misc\lv_mem.h ****  * Wrapper for the standard memset with fixed 0x00 value
 161:c:\projects\paindrain\arduinolcd\test\pain drain\libraries\lvgl\src\misc\lv_mem.h ****  * @param dst pointer to the destination buffer
 162:c:\projects\paindrain\arduinolcd\test\pain drain\libraries\lvgl\src\misc\lv_mem.h ****  * @param len number of byte to set
 163:c:\projects\paindrain\arduinolcd\test\pain drain\libraries\lvgl\src\misc\lv_mem.h ****  */
 164:c:\projects\paindrain\arduinolcd\test\pain drain\libraries\lvgl\src\misc\lv_mem.h **** static inline void lv_memset_00(void * dst, size_t len)
 165:c:\projects\paindrain\arduinolcd\test\pain drain\libraries\lvgl\src\misc\lv_mem.h **** {
 166:c:\projects\paindrain\arduinolcd\test\pain drain\libraries\lvgl\src\misc\lv_mem.h ****     memset(dst, 0x00, len);
 167:c:\projects\paindrain\arduinolcd\test\pain drain\libraries\lvgl\src\misc\lv_mem.h **** }
 168:c:\projects\paindrain\arduinolcd\test\pain drain\libraries\lvgl\src\misc\lv_mem.h **** 
 169:c:\projects\paindrain\arduinolcd\test\pain drain\libraries\lvgl\src\misc\lv_mem.h **** /**
 170:c:\projects\paindrain\arduinolcd\test\pain drain\libraries\lvgl\src\misc\lv_mem.h ****  * Wrapper for the standard memset with fixed 0xFF value
 171:c:\projects\paindrain\arduinolcd\test\pain drain\libraries\lvgl\src\misc\lv_mem.h ****  * @param dst pointer to the destination buffer
 172:c:\projects\paindrain\arduinolcd\test\pain drain\libraries\lvgl\src\misc\lv_mem.h ****  * @param len number of byte to set
 173:c:\projects\paindrain\arduinolcd\test\pain drain\libraries\lvgl\src\misc\lv_mem.h ****  */
 174:c:\projects\paindrain\arduinolcd\test\pain drain\libraries\lvgl\src\misc\lv_mem.h **** static inline void lv_memset_ff(void * dst, size_t len)
 175:c:\projects\paindrain\arduinolcd\test\pain drain\libraries\lvgl\src\misc\lv_mem.h **** {
 176:c:\projects\paindrain\arduinolcd\test\pain drain\libraries\lvgl\src\misc\lv_mem.h ****     memset(dst, 0xFF, len);
 177:c:\projects\paindrain\arduinolcd\test\pain drain\libraries\lvgl\src\misc\lv_mem.h **** }
 178:c:\projects\paindrain\arduinolcd\test\pain drain\libraries\lvgl\src\misc\lv_mem.h **** 
 179:c:\projects\paindrain\arduinolcd\test\pain drain\libraries\lvgl\src\misc\lv_mem.h **** #else
 180:c:\projects\paindrain\arduinolcd\test\pain drain\libraries\lvgl\src\misc\lv_mem.h **** /**
 181:c:\projects\paindrain\arduinolcd\test\pain drain\libraries\lvgl\src\misc\lv_mem.h ****  * Same as `memcpy` but optimized for 4 byte operation.
 182:c:\projects\paindrain\arduinolcd\test\pain drain\libraries\lvgl\src\misc\lv_mem.h ****  * @param dst pointer to the destination buffer
 183:c:\projects\paindrain\arduinolcd\test\pain drain\libraries\lvgl\src\misc\lv_mem.h ****  * @param src pointer to the source buffer
 184:c:\projects\paindrain\arduinolcd\test\pain drain\libraries\lvgl\src\misc\lv_mem.h ****  * @param len number of byte to copy
 185:c:\projects\paindrain\arduinolcd\test\pain drain\libraries\lvgl\src\misc\lv_mem.h ****  */
 186:c:\projects\paindrain\arduinolcd\test\pain drain\libraries\lvgl\src\misc\lv_mem.h **** LV_ATTRIBUTE_FAST_MEM void * lv_memcpy(void * dst, const void * src, size_t len);
 187:c:\projects\paindrain\arduinolcd\test\pain drain\libraries\lvgl\src\misc\lv_mem.h **** 
 188:c:\projects\paindrain\arduinolcd\test\pain drain\libraries\lvgl\src\misc\lv_mem.h **** /**
 189:c:\projects\paindrain\arduinolcd\test\pain drain\libraries\lvgl\src\misc\lv_mem.h ****  * Same as `memcpy` but optimized to copy only a few bytes.
 190:c:\projects\paindrain\arduinolcd\test\pain drain\libraries\lvgl\src\misc\lv_mem.h ****  * @param dst pointer to the destination buffer
 191:c:\projects\paindrain\arduinolcd\test\pain drain\libraries\lvgl\src\misc\lv_mem.h ****  * @param src pointer to the source buffer
 192:c:\projects\paindrain\arduinolcd\test\pain drain\libraries\lvgl\src\misc\lv_mem.h ****  * @param len number of byte to copy
 193:c:\projects\paindrain\arduinolcd\test\pain drain\libraries\lvgl\src\misc\lv_mem.h ****  */
 194:c:\projects\paindrain\arduinolcd\test\pain drain\libraries\lvgl\src\misc\lv_mem.h **** LV_ATTRIBUTE_FAST_MEM static inline void * lv_memcpy_small(void * dst, const void * src, size_t len
 195:c:\projects\paindrain\arduinolcd\test\pain drain\libraries\lvgl\src\misc\lv_mem.h **** {
 196:c:\projects\paindrain\arduinolcd\test\pain drain\libraries\lvgl\src\misc\lv_mem.h ****     uint8_t * d8 = (uint8_t *)dst;
 197:c:\projects\paindrain\arduinolcd\test\pain drain\libraries\lvgl\src\misc\lv_mem.h ****     const uint8_t * s8 = (const uint8_t *)src;
 198:c:\projects\paindrain\arduinolcd\test\pain drain\libraries\lvgl\src\misc\lv_mem.h **** 
 199:c:\projects\paindrain\arduinolcd\test\pain drain\libraries\lvgl\src\misc\lv_mem.h ****     while(len) {
 200:c:\projects\paindrain\arduinolcd\test\pain drain\libraries\lvgl\src\misc\lv_mem.h ****         *d8 = *s8;
 249              		.loc 2 200 0
 250 000c 0878     		ldrb	r0, [r1]
 251 000e 1070     		strb	r0, [r2]
 201:c:\projects\paindrain\arduinolcd\test\pain drain\libraries\lvgl\src\misc\lv_mem.h ****         d8++;
 252              		.loc 2 201 0
 253 0010 0132     		adds	r2, r2, #1
 254              	.LVL21:
ARM GAS  C:\Users\haske\AppData\Local\Temp\ccg6iOQH.s 			page 19


 202:c:\projects\paindrain\arduinolcd\test\pain drain\libraries\lvgl\src\misc\lv_mem.h ****         s8++;
 255              		.loc 2 202 0
 256 0012 0131     		adds	r1, r1, #1
 257              	.LVL22:
 203:c:\projects\paindrain\arduinolcd\test\pain drain\libraries\lvgl\src\misc\lv_mem.h ****         len--;
 258              		.loc 2 203 0
 259 0014 013B     		subs	r3, r3, #1
 260              	.LVL23:
 261 0016 02E0     		b	.L17
 262              	.LVL24:
 263              	.L23:
 264              	.LBE14:
 265              	.LBE13:
 266              	.LBE12:
 267 0018 01A9     		add	r1, sp, #4
 268 001a 03AA     		add	r2, sp, #12
 269 001c 0423     		movs	r3, #4
 270              	.LVL25:
 271              	.L17:
 272              	.LBB17:
 273              	.LBB16:
 274              	.LBB15:
 199:c:\projects\paindrain\arduinolcd\test\pain drain\libraries\lvgl\src\misc\lv_mem.h ****         *d8 = *s8;
 275              		.loc 2 199 0
 276 001e 002B     		cmp	r3, #0
 277 0020 F4D1     		bne	.L19
 278              	.LVL26:
 279              	.LBE15:
 280              	.LBE16:
 568:..\..\..\arduinoLCD\test\Pain Drain\libraries\lvgl\src\misc/lv_txt.c ****         uint32_t swapped;
 569:..\..\..\arduinoLCD\test\Pain Drain\libraries\lvgl\src\misc/lv_txt.c ****         uint8_t c8[4];
 570:..\..\..\arduinoLCD\test\Pain Drain\libraries\lvgl\src\misc/lv_txt.c ****         lv_memcpy_small(c8, &c, 4);
 571:..\..\..\arduinoLCD\test\Pain Drain\libraries\lvgl\src\misc/lv_txt.c ****         swapped = (c8[0] << 24) + (c8[1] << 16) + (c8[2] << 8) + (c8[3]);
 281              		.loc 1 571 0
 282 0022 03A9     		add	r1, sp, #12
 283              	.LVL27:
 284 0024 0A78     		ldrb	r2, [r1]
 285              	.LVL28:
 286 0026 1206     		lsls	r2, r2, #24
 287 0028 4B78     		ldrb	r3, [r1, #1]
 288 002a 1B04     		lsls	r3, r3, #16
 289 002c D218     		adds	r2, r2, r3
 290 002e 8B78     		ldrb	r3, [r1, #2]
 291 0030 1B02     		lsls	r3, r3, #8
 292 0032 D218     		adds	r2, r2, r3
 293 0034 CB78     		ldrb	r3, [r1, #3]
 294 0036 9A18     		adds	r2, r3, r2
 295              	.LVL29:
 572:..\..\..\arduinoLCD\test\Pain Drain\libraries\lvgl\src\misc/lv_txt.c ****         uint8_t i;
 573:..\..\..\arduinoLCD\test\Pain Drain\libraries\lvgl\src\misc/lv_txt.c ****         for(i = 0; i < 4; i++) {
 296              		.loc 1 573 0
 297 0038 0023     		movs	r3, #0
 298 003a 05E0     		b	.L20
 299              	.LVL30:
 300              	.L22:
 574:..\..\..\arduinoLCD\test\Pain Drain\libraries\lvgl\src\misc/lv_txt.c ****             if((swapped & 0xFF) == 0)
 301              		.loc 1 574 0
ARM GAS  C:\Users\haske\AppData\Local\Temp\ccg6iOQH.s 			page 20


 302 003c FF21     		movs	r1, #255
 303 003e 1142     		tst	r1, r2
 304 0040 00D1     		bne	.L21
 575:..\..\..\arduinoLCD\test\Pain Drain\libraries\lvgl\src\misc/lv_txt.c ****                 swapped = (swapped >> 8); /*Ignore leading zeros (they were in the end originally)*
 305              		.loc 1 575 0
 306 0042 120A     		lsrs	r2, r2, #8
 307              	.LVL31:
 308              	.L21:
 573:..\..\..\arduinoLCD\test\Pain Drain\libraries\lvgl\src\misc/lv_txt.c ****             if((swapped & 0xFF) == 0)
 309              		.loc 1 573 0 discriminator 2
 310 0044 0133     		adds	r3, r3, #1
 311              	.LVL32:
 312 0046 DBB2     		uxtb	r3, r3
 313              	.LVL33:
 314              	.L20:
 573:..\..\..\arduinoLCD\test\Pain Drain\libraries\lvgl\src\misc/lv_txt.c ****             if((swapped & 0xFF) == 0)
 315              		.loc 1 573 0 is_stmt 0 discriminator 1
 316 0048 032B     		cmp	r3, #3
 317 004a F7D9     		bls	.L22
 576:..\..\..\arduinoLCD\test\Pain Drain\libraries\lvgl\src\misc/lv_txt.c ****         }
 577:..\..\..\arduinoLCD\test\Pain Drain\libraries\lvgl\src\misc/lv_txt.c ****         c = swapped;
 318              		.loc 1 577 0 is_stmt 1
 319 004c 0192     		str	r2, [sp, #4]
 320              	.LVL34:
 321              	.L18:
 322              	.LBE17:
 578:..\..\..\arduinoLCD\test\Pain Drain\libraries\lvgl\src\misc/lv_txt.c ****     }
 579:..\..\..\arduinoLCD\test\Pain Drain\libraries\lvgl\src\misc/lv_txt.c **** #endif
 580:..\..\..\arduinoLCD\test\Pain Drain\libraries\lvgl\src\misc/lv_txt.c ****     return c;
 581:..\..\..\arduinoLCD\test\Pain Drain\libraries\lvgl\src\misc/lv_txt.c **** }
 323              		.loc 1 581 0
 324 004e 0198     		ldr	r0, [sp, #4]
 325 0050 04B0     		add	sp, sp, #16
 326              		@ sp needed
 327 0052 7047     		bx	lr
 328              		.cfi_endproc
 329              	.LFE66:
 330              		.size	lv_txt_utf8_conv_wc, .-lv_txt_utf8_conv_wc
 331              		.section	.text.lv_txt_utf8_next,"ax",%progbits
 332              		.align	2
 333              		.code	16
 334              		.thumb_func
 335              		.type	lv_txt_utf8_next, %function
 336              	lv_txt_utf8_next:
 337              	.LFB67:
 582:..\..\..\arduinoLCD\test\Pain Drain\libraries\lvgl\src\misc/lv_txt.c **** 
 583:..\..\..\arduinoLCD\test\Pain Drain\libraries\lvgl\src\misc/lv_txt.c **** /**
 584:..\..\..\arduinoLCD\test\Pain Drain\libraries\lvgl\src\misc/lv_txt.c ****  * Decode an UTF-8 character from a string.
 585:..\..\..\arduinoLCD\test\Pain Drain\libraries\lvgl\src\misc/lv_txt.c ****  * @param txt pointer to '\0' terminated string
 586:..\..\..\arduinoLCD\test\Pain Drain\libraries\lvgl\src\misc/lv_txt.c ****  * @param i start byte index in 'txt' where to start.
 587:..\..\..\arduinoLCD\test\Pain Drain\libraries\lvgl\src\misc/lv_txt.c ****  *          After call it will point to the next UTF-8 char in 'txt'.
 588:..\..\..\arduinoLCD\test\Pain Drain\libraries\lvgl\src\misc/lv_txt.c ****  *          NULL to use txt[0] as index
 589:..\..\..\arduinoLCD\test\Pain Drain\libraries\lvgl\src\misc/lv_txt.c ****  * @return the decoded Unicode character or 0 on invalid UTF-8 code
 590:..\..\..\arduinoLCD\test\Pain Drain\libraries\lvgl\src\misc/lv_txt.c ****  */
 591:..\..\..\arduinoLCD\test\Pain Drain\libraries\lvgl\src\misc/lv_txt.c **** static uint32_t lv_txt_utf8_next(const char * txt, uint32_t * i)
 592:..\..\..\arduinoLCD\test\Pain Drain\libraries\lvgl\src\misc/lv_txt.c **** {
 338              		.loc 1 592 0
ARM GAS  C:\Users\haske\AppData\Local\Temp\ccg6iOQH.s 			page 21


 339              		.cfi_startproc
 340              		@ args = 0, pretend = 0, frame = 8
 341              		@ frame_needed = 0, uses_anonymous_args = 0
 342              	.LVL35:
 343 0000 70B5     		push	{r4, r5, r6, lr}
 344              		.cfi_def_cfa_offset 16
 345              		.cfi_offset 4, -16
 346              		.cfi_offset 5, -12
 347              		.cfi_offset 6, -8
 348              		.cfi_offset 14, -4
 349 0002 82B0     		sub	sp, sp, #8
 350              		.cfi_def_cfa_offset 24
 351              	.LVL36:
 593:..\..\..\arduinoLCD\test\Pain Drain\libraries\lvgl\src\misc/lv_txt.c ****     /**
 594:..\..\..\arduinoLCD\test\Pain Drain\libraries\lvgl\src\misc/lv_txt.c ****      * Unicode to UTF-8
 595:..\..\..\arduinoLCD\test\Pain Drain\libraries\lvgl\src\misc/lv_txt.c ****      * 00000000 00000000 00000000 0xxxxxxx -> 0xxxxxxx
 596:..\..\..\arduinoLCD\test\Pain Drain\libraries\lvgl\src\misc/lv_txt.c ****      * 00000000 00000000 00000yyy yyxxxxxx -> 110yyyyy 10xxxxxx
 597:..\..\..\arduinoLCD\test\Pain Drain\libraries\lvgl\src\misc/lv_txt.c ****      * 00000000 00000000 zzzzyyyy yyxxxxxx -> 1110zzzz 10yyyyyy 10xxxxxx
 598:..\..\..\arduinoLCD\test\Pain Drain\libraries\lvgl\src\misc/lv_txt.c ****      * 00000000 000wwwzz zzzzyyyy yyxxxxxx -> 11110www 10zzzzzz 10yyyyyy 10xxxxxx
 599:..\..\..\arduinoLCD\test\Pain Drain\libraries\lvgl\src\misc/lv_txt.c ****      */
 600:..\..\..\arduinoLCD\test\Pain Drain\libraries\lvgl\src\misc/lv_txt.c **** 
 601:..\..\..\arduinoLCD\test\Pain Drain\libraries\lvgl\src\misc/lv_txt.c ****     uint32_t result = 0;
 602:..\..\..\arduinoLCD\test\Pain Drain\libraries\lvgl\src\misc/lv_txt.c **** 
 603:..\..\..\arduinoLCD\test\Pain Drain\libraries\lvgl\src\misc/lv_txt.c ****     /*Dummy 'i' pointer is required*/
 604:..\..\..\arduinoLCD\test\Pain Drain\libraries\lvgl\src\misc/lv_txt.c ****     uint32_t i_tmp = 0;
 352              		.loc 1 604 0
 353 0004 0023     		movs	r3, #0
 354 0006 0193     		str	r3, [sp, #4]
 605:..\..\..\arduinoLCD\test\Pain Drain\libraries\lvgl\src\misc/lv_txt.c ****     if(i == NULL) i = &i_tmp;
 355              		.loc 1 605 0
 356 0008 0029     		cmp	r1, #0
 357 000a 00D1     		bne	.L25
 358 000c 01A9     		add	r1, sp, #4
 359              	.LVL37:
 360              	.L25:
 606:..\..\..\arduinoLCD\test\Pain Drain\libraries\lvgl\src\misc/lv_txt.c **** 
 607:..\..\..\arduinoLCD\test\Pain Drain\libraries\lvgl\src\misc/lv_txt.c ****     /*Normal ASCII*/
 608:..\..\..\arduinoLCD\test\Pain Drain\libraries\lvgl\src\misc/lv_txt.c ****     if(LV_IS_ASCII(txt[*i])) {
 361              		.loc 1 608 0
 362 000e 0C68     		ldr	r4, [r1]
 363 0010 035D     		ldrb	r3, [r0, r4]
 364 0012 5AB2     		sxtb	r2, r3
 365 0014 002A     		cmp	r2, #0
 366 0016 03DB     		blt	.L26
 367              	.LVL38:
 609:..\..\..\arduinoLCD\test\Pain Drain\libraries\lvgl\src\misc/lv_txt.c ****         result = txt[*i];
 610:..\..\..\arduinoLCD\test\Pain Drain\libraries\lvgl\src\misc/lv_txt.c ****         (*i)++;
 368              		.loc 1 610 0
 369 0018 0134     		adds	r4, r4, #1
 370 001a 0C60     		str	r4, [r1]
 609:..\..\..\arduinoLCD\test\Pain Drain\libraries\lvgl\src\misc/lv_txt.c ****         result = txt[*i];
 371              		.loc 1 609 0
 372 001c 1800     		movs	r0, r3
 373              	.LVL39:
 374 001e 7BE0     		b	.L27
 375              	.LVL40:
 376              	.L26:
ARM GAS  C:\Users\haske\AppData\Local\Temp\ccg6iOQH.s 			page 22


 611:..\..\..\arduinoLCD\test\Pain Drain\libraries\lvgl\src\misc/lv_txt.c ****     }
 612:..\..\..\arduinoLCD\test\Pain Drain\libraries\lvgl\src\misc/lv_txt.c ****     /*Real UTF-8 decode*/
 613:..\..\..\arduinoLCD\test\Pain Drain\libraries\lvgl\src\misc/lv_txt.c ****     else {
 614:..\..\..\arduinoLCD\test\Pain Drain\libraries\lvgl\src\misc/lv_txt.c ****         /*2 bytes UTF-8 code*/
 615:..\..\..\arduinoLCD\test\Pain Drain\libraries\lvgl\src\misc/lv_txt.c ****         if(LV_IS_2BYTES_UTF8_CODE(txt[*i])) {
 377              		.loc 1 615 0
 378 0020 1F22     		movs	r2, #31
 379 0022 1D00     		movs	r5, r3
 380 0024 9543     		bics	r5, r2
 381 0026 C02D     		cmp	r5, #192
 382 0028 12D1     		bne	.L28
 616:..\..\..\arduinoLCD\test\Pain Drain\libraries\lvgl\src\misc/lv_txt.c ****             result = (uint32_t)(txt[*i] & 0x1F) << 6;
 383              		.loc 1 616 0
 384 002a 9B01     		lsls	r3, r3, #6
 385 002c F822     		movs	r2, #248
 386 002e D200     		lsls	r2, r2, #3
 387 0030 1340     		ands	r3, r2
 388              	.LVL41:
 617:..\..\..\arduinoLCD\test\Pain Drain\libraries\lvgl\src\misc/lv_txt.c ****             (*i)++;
 389              		.loc 1 617 0
 390 0032 0134     		adds	r4, r4, #1
 391 0034 0C60     		str	r4, [r1]
 618:..\..\..\arduinoLCD\test\Pain Drain\libraries\lvgl\src\misc/lv_txt.c ****             if(LV_IS_INVALID_UTF8_CODE(txt[*i])) return 0;
 392              		.loc 1 618 0
 393 0036 025D     		ldrb	r2, [r0, r4]
 394 0038 3F20     		movs	r0, #63
 395              	.LVL42:
 396 003a 1500     		movs	r5, r2
 397 003c 8543     		bics	r5, r0
 398 003e 2800     		movs	r0, r5
 399 0040 802D     		cmp	r5, #128
 400 0042 5ED1     		bne	.L32
 619:..\..\..\arduinoLCD\test\Pain Drain\libraries\lvgl\src\misc/lv_txt.c ****             result += (txt[*i] & 0x3F);
 401              		.loc 1 619 0
 402 0044 4138     		subs	r0, r0, #65
 403 0046 0240     		ands	r2, r0
 404              	.LVL43:
 620:..\..\..\arduinoLCD\test\Pain Drain\libraries\lvgl\src\misc/lv_txt.c ****             (*i)++;
 405              		.loc 1 620 0
 406 0048 0134     		adds	r4, r4, #1
 407 004a 0C60     		str	r4, [r1]
 619:..\..\..\arduinoLCD\test\Pain Drain\libraries\lvgl\src\misc/lv_txt.c ****             result += (txt[*i] & 0x3F);
 408              		.loc 1 619 0
 409 004c D018     		adds	r0, r2, r3
 410              	.LVL44:
 411 004e 63E0     		b	.L27
 412              	.LVL45:
 413              	.L28:
 621:..\..\..\arduinoLCD\test\Pain Drain\libraries\lvgl\src\misc/lv_txt.c ****         }
 622:..\..\..\arduinoLCD\test\Pain Drain\libraries\lvgl\src\misc/lv_txt.c ****         /*3 bytes UTF-8 code*/
 623:..\..\..\arduinoLCD\test\Pain Drain\libraries\lvgl\src\misc/lv_txt.c ****         else if(LV_IS_3BYTES_UTF8_CODE(txt[*i])) {
 414              		.loc 1 623 0
 415 0050 0F22     		movs	r2, #15
 416 0052 1D00     		movs	r5, r3
 417 0054 9543     		bics	r5, r2
 418 0056 E02D     		cmp	r5, #224
 419 0058 1DD1     		bne	.L29
ARM GAS  C:\Users\haske\AppData\Local\Temp\ccg6iOQH.s 			page 23


 624:..\..\..\arduinoLCD\test\Pain Drain\libraries\lvgl\src\misc/lv_txt.c ****             result = (uint32_t)(txt[*i] & 0x0F) << 12;
 420              		.loc 1 624 0
 421 005a 1B07     		lsls	r3, r3, #28
 422 005c 1B0C     		lsrs	r3, r3, #16
 423              	.LVL46:
 625:..\..\..\arduinoLCD\test\Pain Drain\libraries\lvgl\src\misc/lv_txt.c ****             (*i)++;
 424              		.loc 1 625 0
 425 005e 0134     		adds	r4, r4, #1
 426 0060 0C60     		str	r4, [r1]
 626:..\..\..\arduinoLCD\test\Pain Drain\libraries\lvgl\src\misc/lv_txt.c **** 
 627:..\..\..\arduinoLCD\test\Pain Drain\libraries\lvgl\src\misc/lv_txt.c ****             if(LV_IS_INVALID_UTF8_CODE(txt[*i])) return 0;
 427              		.loc 1 627 0
 428 0062 025D     		ldrb	r2, [r0, r4]
 429 0064 3F25     		movs	r5, #63
 430 0066 1600     		movs	r6, r2
 431 0068 AE43     		bics	r6, r5
 432 006a 802E     		cmp	r6, #128
 433 006c 4BD1     		bne	.L33
 628:..\..\..\arduinoLCD\test\Pain Drain\libraries\lvgl\src\misc/lv_txt.c ****             result += (uint32_t)(txt[*i] & 0x3F) << 6;
 434              		.loc 1 628 0
 435 006e 9201     		lsls	r2, r2, #6
 436 0070 FC25     		movs	r5, #252
 437 0072 2D01     		lsls	r5, r5, #4
 438 0074 2A40     		ands	r2, r5
 439 0076 9B18     		adds	r3, r3, r2
 440              	.LVL47:
 629:..\..\..\arduinoLCD\test\Pain Drain\libraries\lvgl\src\misc/lv_txt.c ****             (*i)++;
 441              		.loc 1 629 0
 442 0078 0134     		adds	r4, r4, #1
 443 007a 0C60     		str	r4, [r1]
 630:..\..\..\arduinoLCD\test\Pain Drain\libraries\lvgl\src\misc/lv_txt.c **** 
 631:..\..\..\arduinoLCD\test\Pain Drain\libraries\lvgl\src\misc/lv_txt.c ****             if(LV_IS_INVALID_UTF8_CODE(txt[*i])) return 0;
 444              		.loc 1 631 0
 445 007c 025D     		ldrb	r2, [r0, r4]
 446 007e 3F20     		movs	r0, #63
 447              	.LVL48:
 448 0080 1500     		movs	r5, r2
 449 0082 8543     		bics	r5, r0
 450 0084 2800     		movs	r0, r5
 451 0086 802D     		cmp	r5, #128
 452 0088 3FD1     		bne	.L34
 632:..\..\..\arduinoLCD\test\Pain Drain\libraries\lvgl\src\misc/lv_txt.c ****             result += (txt[*i] & 0x3F);
 453              		.loc 1 632 0
 454 008a 4138     		subs	r0, r0, #65
 455 008c 0240     		ands	r2, r0
 456              	.LVL49:
 633:..\..\..\arduinoLCD\test\Pain Drain\libraries\lvgl\src\misc/lv_txt.c ****             (*i)++;
 457              		.loc 1 633 0
 458 008e 0134     		adds	r4, r4, #1
 459 0090 0C60     		str	r4, [r1]
 632:..\..\..\arduinoLCD\test\Pain Drain\libraries\lvgl\src\misc/lv_txt.c ****             result += (txt[*i] & 0x3F);
 460              		.loc 1 632 0
 461 0092 D018     		adds	r0, r2, r3
 462              	.LVL50:
 463 0094 40E0     		b	.L27
 464              	.LVL51:
 465              	.L29:
ARM GAS  C:\Users\haske\AppData\Local\Temp\ccg6iOQH.s 			page 24


 634:..\..\..\arduinoLCD\test\Pain Drain\libraries\lvgl\src\misc/lv_txt.c ****         }
 635:..\..\..\arduinoLCD\test\Pain Drain\libraries\lvgl\src\misc/lv_txt.c ****         /*4 bytes UTF-8 code*/
 636:..\..\..\arduinoLCD\test\Pain Drain\libraries\lvgl\src\misc/lv_txt.c ****         else if(LV_IS_4BYTES_UTF8_CODE(txt[*i])) {
 466              		.loc 1 636 0
 467 0096 0722     		movs	r2, #7
 468 0098 1D00     		movs	r5, r3
 469 009a 9543     		bics	r5, r2
 470 009c F02D     		cmp	r5, #240
 471 009e 2CD1     		bne	.L30
 637:..\..\..\arduinoLCD\test\Pain Drain\libraries\lvgl\src\misc/lv_txt.c ****             result = (uint32_t)(txt[*i] & 0x07) << 18;
 472              		.loc 1 637 0
 473 00a0 9B04     		lsls	r3, r3, #18
 474 00a2 E022     		movs	r2, #224
 475 00a4 5203     		lsls	r2, r2, #13
 476 00a6 1340     		ands	r3, r2
 477              	.LVL52:
 638:..\..\..\arduinoLCD\test\Pain Drain\libraries\lvgl\src\misc/lv_txt.c ****             (*i)++;
 478              		.loc 1 638 0
 479 00a8 0134     		adds	r4, r4, #1
 480 00aa 0C60     		str	r4, [r1]
 639:..\..\..\arduinoLCD\test\Pain Drain\libraries\lvgl\src\misc/lv_txt.c **** 
 640:..\..\..\arduinoLCD\test\Pain Drain\libraries\lvgl\src\misc/lv_txt.c ****             if(LV_IS_INVALID_UTF8_CODE(txt[*i])) return 0;
 481              		.loc 1 640 0
 482 00ac 025D     		ldrb	r2, [r0, r4]
 483 00ae 3F25     		movs	r5, #63
 484 00b0 1600     		movs	r6, r2
 485 00b2 AE43     		bics	r6, r5
 486 00b4 802E     		cmp	r6, #128
 487 00b6 2AD1     		bne	.L35
 641:..\..\..\arduinoLCD\test\Pain Drain\libraries\lvgl\src\misc/lv_txt.c ****             result += (uint32_t)(txt[*i] & 0x3F) << 12;
 488              		.loc 1 641 0
 489 00b8 1203     		lsls	r2, r2, #12
 490 00ba FC25     		movs	r5, #252
 491 00bc AD02     		lsls	r5, r5, #10
 492 00be 2A40     		ands	r2, r5
 493 00c0 9B18     		adds	r3, r3, r2
 494              	.LVL53:
 642:..\..\..\arduinoLCD\test\Pain Drain\libraries\lvgl\src\misc/lv_txt.c ****             (*i)++;
 495              		.loc 1 642 0
 496 00c2 651C     		adds	r5, r4, #1
 497 00c4 0D60     		str	r5, [r1]
 643:..\..\..\arduinoLCD\test\Pain Drain\libraries\lvgl\src\misc/lv_txt.c **** 
 644:..\..\..\arduinoLCD\test\Pain Drain\libraries\lvgl\src\misc/lv_txt.c ****             if(LV_IS_INVALID_UTF8_CODE(txt[*i])) return 0;
 498              		.loc 1 644 0
 499 00c6 425D     		ldrb	r2, [r0, r5]
 500 00c8 3F24     		movs	r4, #63
 501 00ca 1600     		movs	r6, r2
 502 00cc A643     		bics	r6, r4
 503 00ce 802E     		cmp	r6, #128
 504 00d0 1FD1     		bne	.L36
 645:..\..\..\arduinoLCD\test\Pain Drain\libraries\lvgl\src\misc/lv_txt.c ****             result += (uint32_t)(txt[*i] & 0x3F) << 6;
 505              		.loc 1 645 0
 506 00d2 9201     		lsls	r2, r2, #6
 507 00d4 FC24     		movs	r4, #252
 508 00d6 2401     		lsls	r4, r4, #4
 509 00d8 2240     		ands	r2, r4
 510 00da 9A18     		adds	r2, r3, r2
ARM GAS  C:\Users\haske\AppData\Local\Temp\ccg6iOQH.s 			page 25


 511              	.LVL54:
 646:..\..\..\arduinoLCD\test\Pain Drain\libraries\lvgl\src\misc/lv_txt.c ****             (*i)++;
 512              		.loc 1 646 0
 513 00dc 6C1C     		adds	r4, r5, #1
 514 00de 0C60     		str	r4, [r1]
 647:..\..\..\arduinoLCD\test\Pain Drain\libraries\lvgl\src\misc/lv_txt.c **** 
 648:..\..\..\arduinoLCD\test\Pain Drain\libraries\lvgl\src\misc/lv_txt.c ****             if(LV_IS_INVALID_UTF8_CODE(txt[*i])) return 0;
 515              		.loc 1 648 0
 516 00e0 035D     		ldrb	r3, [r0, r4]
 517 00e2 3F20     		movs	r0, #63
 518              	.LVL55:
 519 00e4 1D00     		movs	r5, r3
 520 00e6 8543     		bics	r5, r0
 521 00e8 2800     		movs	r0, r5
 522 00ea 802D     		cmp	r5, #128
 523 00ec 13D1     		bne	.L37
 649:..\..\..\arduinoLCD\test\Pain Drain\libraries\lvgl\src\misc/lv_txt.c ****             result += txt[*i] & 0x3F;
 524              		.loc 1 649 0
 525 00ee 4138     		subs	r0, r0, #65
 526 00f0 0340     		ands	r3, r0
 527              	.LVL56:
 650:..\..\..\arduinoLCD\test\Pain Drain\libraries\lvgl\src\misc/lv_txt.c ****             (*i)++;
 528              		.loc 1 650 0
 529 00f2 0134     		adds	r4, r4, #1
 530 00f4 0C60     		str	r4, [r1]
 649:..\..\..\arduinoLCD\test\Pain Drain\libraries\lvgl\src\misc/lv_txt.c ****             result += txt[*i] & 0x3F;
 531              		.loc 1 649 0
 532 00f6 9818     		adds	r0, r3, r2
 533              	.LVL57:
 534 00f8 0EE0     		b	.L27
 535              	.LVL58:
 536              	.L30:
 651:..\..\..\arduinoLCD\test\Pain Drain\libraries\lvgl\src\misc/lv_txt.c ****         }
 652:..\..\..\arduinoLCD\test\Pain Drain\libraries\lvgl\src\misc/lv_txt.c ****         else {
 653:..\..\..\arduinoLCD\test\Pain Drain\libraries\lvgl\src\misc/lv_txt.c ****             (*i)++; /*Not UTF-8 char. Go the next.*/
 537              		.loc 1 653 0
 538 00fa 0134     		adds	r4, r4, #1
 539 00fc 0C60     		str	r4, [r1]
 601:..\..\..\arduinoLCD\test\Pain Drain\libraries\lvgl\src\misc/lv_txt.c **** 
 540              		.loc 1 601 0
 541 00fe 0020     		movs	r0, #0
 542              	.LVL59:
 543 0100 0AE0     		b	.L27
 544              	.LVL60:
 545              	.L32:
 618:..\..\..\arduinoLCD\test\Pain Drain\libraries\lvgl\src\misc/lv_txt.c ****             result += (txt[*i] & 0x3F);
 546              		.loc 1 618 0
 547 0102 0020     		movs	r0, #0
 548 0104 08E0     		b	.L27
 549              	.LVL61:
 550              	.L33:
 627:..\..\..\arduinoLCD\test\Pain Drain\libraries\lvgl\src\misc/lv_txt.c ****             result += (uint32_t)(txt[*i] & 0x3F) << 6;
 551              		.loc 1 627 0
 552 0106 0020     		movs	r0, #0
 553              	.LVL62:
 554 0108 06E0     		b	.L27
 555              	.L34:
ARM GAS  C:\Users\haske\AppData\Local\Temp\ccg6iOQH.s 			page 26


 631:..\..\..\arduinoLCD\test\Pain Drain\libraries\lvgl\src\misc/lv_txt.c ****             result += (txt[*i] & 0x3F);
 556              		.loc 1 631 0
 557 010a 0020     		movs	r0, #0
 558 010c 04E0     		b	.L27
 559              	.LVL63:
 560              	.L35:
 640:..\..\..\arduinoLCD\test\Pain Drain\libraries\lvgl\src\misc/lv_txt.c ****             result += (uint32_t)(txt[*i] & 0x3F) << 12;
 561              		.loc 1 640 0
 562 010e 0020     		movs	r0, #0
 563              	.LVL64:
 564 0110 02E0     		b	.L27
 565              	.LVL65:
 566              	.L36:
 644:..\..\..\arduinoLCD\test\Pain Drain\libraries\lvgl\src\misc/lv_txt.c ****             result += (uint32_t)(txt[*i] & 0x3F) << 6;
 567              		.loc 1 644 0
 568 0112 0020     		movs	r0, #0
 569              	.LVL66:
 570 0114 00E0     		b	.L27
 571              	.LVL67:
 572              	.L37:
 648:..\..\..\arduinoLCD\test\Pain Drain\libraries\lvgl\src\misc/lv_txt.c ****             result += txt[*i] & 0x3F;
 573              		.loc 1 648 0
 574 0116 0020     		movs	r0, #0
 575              	.LVL68:
 576              	.L27:
 654:..\..\..\arduinoLCD\test\Pain Drain\libraries\lvgl\src\misc/lv_txt.c ****         }
 655:..\..\..\arduinoLCD\test\Pain Drain\libraries\lvgl\src\misc/lv_txt.c ****     }
 656:..\..\..\arduinoLCD\test\Pain Drain\libraries\lvgl\src\misc/lv_txt.c ****     return result;
 657:..\..\..\arduinoLCD\test\Pain Drain\libraries\lvgl\src\misc/lv_txt.c **** }
 577              		.loc 1 657 0
 578 0118 02B0     		add	sp, sp, #8
 579              		@ sp needed
 580 011a 70BD     		pop	{r4, r5, r6, pc}
 581              		.cfi_endproc
 582              	.LFE67:
 583              		.size	lv_txt_utf8_next, .-lv_txt_utf8_next
 584              		.section	.text.lv_txt_utf8_prev,"ax",%progbits
 585              		.align	2
 586              		.code	16
 587              		.thumb_func
 588              		.type	lv_txt_utf8_prev, %function
 589              	lv_txt_utf8_prev:
 590              	.LFB68:
 658:..\..\..\arduinoLCD\test\Pain Drain\libraries\lvgl\src\misc/lv_txt.c **** 
 659:..\..\..\arduinoLCD\test\Pain Drain\libraries\lvgl\src\misc/lv_txt.c **** /**
 660:..\..\..\arduinoLCD\test\Pain Drain\libraries\lvgl\src\misc/lv_txt.c ****  * Get previous UTF-8 character form a string.
 661:..\..\..\arduinoLCD\test\Pain Drain\libraries\lvgl\src\misc/lv_txt.c ****  * @param txt pointer to '\0' terminated string
 662:..\..\..\arduinoLCD\test\Pain Drain\libraries\lvgl\src\misc/lv_txt.c ****  * @param i start byte index in 'txt' where to start. After the call it will point to the previous
 663:..\..\..\arduinoLCD\test\Pain Drain\libraries\lvgl\src\misc/lv_txt.c ****  * UTF-8 char in 'txt'.
 664:..\..\..\arduinoLCD\test\Pain Drain\libraries\lvgl\src\misc/lv_txt.c ****  * @return the decoded Unicode character or 0 on invalid UTF-8 code
 665:..\..\..\arduinoLCD\test\Pain Drain\libraries\lvgl\src\misc/lv_txt.c ****  */
 666:..\..\..\arduinoLCD\test\Pain Drain\libraries\lvgl\src\misc/lv_txt.c **** static uint32_t lv_txt_utf8_prev(const char * txt, uint32_t * i)
 667:..\..\..\arduinoLCD\test\Pain Drain\libraries\lvgl\src\misc/lv_txt.c **** {
 591              		.loc 1 667 0
 592              		.cfi_startproc
 593              		@ args = 0, pretend = 0, frame = 8
 594              		@ frame_needed = 0, uses_anonymous_args = 0
ARM GAS  C:\Users\haske\AppData\Local\Temp\ccg6iOQH.s 			page 27


 595              	.LVL69:
 596 0000 70B5     		push	{r4, r5, r6, lr}
 597              		.cfi_def_cfa_offset 16
 598              		.cfi_offset 4, -16
 599              		.cfi_offset 5, -12
 600              		.cfi_offset 6, -8
 601              		.cfi_offset 14, -4
 602 0002 82B0     		sub	sp, sp, #8
 603              		.cfi_def_cfa_offset 24
 604 0004 0600     		movs	r6, r0
 605 0006 0D00     		movs	r5, r1
 606              	.LVL70:
 668:..\..\..\arduinoLCD\test\Pain Drain\libraries\lvgl\src\misc/lv_txt.c ****     uint8_t c_size;
 669:..\..\..\arduinoLCD\test\Pain Drain\libraries\lvgl\src\misc/lv_txt.c ****     uint8_t cnt = 0;
 670:..\..\..\arduinoLCD\test\Pain Drain\libraries\lvgl\src\misc/lv_txt.c **** 
 671:..\..\..\arduinoLCD\test\Pain Drain\libraries\lvgl\src\misc/lv_txt.c ****     /*Try to find a !0 long UTF-8 char by stepping one character back*/
 672:..\..\..\arduinoLCD\test\Pain Drain\libraries\lvgl\src\misc/lv_txt.c ****     (*i)--;
 607              		.loc 1 672 0
 608 0008 0B68     		ldr	r3, [r1]
 609 000a 013B     		subs	r3, r3, #1
 610 000c 0B60     		str	r3, [r1]
 669:..\..\..\arduinoLCD\test\Pain Drain\libraries\lvgl\src\misc/lv_txt.c **** 
 611              		.loc 1 669 0
 612 000e 0024     		movs	r4, #0
 613              	.LVL71:
 614              	.L41:
 673:..\..\..\arduinoLCD\test\Pain Drain\libraries\lvgl\src\misc/lv_txt.c ****     do {
 674:..\..\..\arduinoLCD\test\Pain Drain\libraries\lvgl\src\misc/lv_txt.c ****         if(cnt >= 4) return 0; /*No UTF-8 char found before the initial*/
 615              		.loc 1 674 0
 616 0010 032C     		cmp	r4, #3
 617 0012 17D8     		bhi	.L42
 675:..\..\..\arduinoLCD\test\Pain Drain\libraries\lvgl\src\misc/lv_txt.c **** 
 676:..\..\..\arduinoLCD\test\Pain Drain\libraries\lvgl\src\misc/lv_txt.c ****         c_size = _lv_txt_encoded_size(&txt[*i]);
 618              		.loc 1 676 0
 619 0014 0D4B     		ldr	r3, .L43
 620 0016 1B68     		ldr	r3, [r3]
 621 0018 2A68     		ldr	r2, [r5]
 622 001a B018     		adds	r0, r6, r2
 623 001c 9847     		blx	r3
 624              	.LVL72:
 625 001e 031E     		subs	r3, r0, #0
 626              	.LVL73:
 677:..\..\..\arduinoLCD\test\Pain Drain\libraries\lvgl\src\misc/lv_txt.c ****         if(c_size == 0) {
 627              		.loc 1 677 0
 628 0020 04D1     		bne	.L40
 678:..\..\..\arduinoLCD\test\Pain Drain\libraries\lvgl\src\misc/lv_txt.c ****             if(*i != 0)
 629              		.loc 1 678 0
 630 0022 2868     		ldr	r0, [r5]
 631              	.LVL74:
 632 0024 0028     		cmp	r0, #0
 633 0026 0ED0     		beq	.L39
 679:..\..\..\arduinoLCD\test\Pain Drain\libraries\lvgl\src\misc/lv_txt.c ****                 (*i)--;
 634              		.loc 1 679 0
 635 0028 0138     		subs	r0, r0, #1
 636 002a 2860     		str	r0, [r5]
 637              	.L40:
 680:..\..\..\arduinoLCD\test\Pain Drain\libraries\lvgl\src\misc/lv_txt.c ****             else
ARM GAS  C:\Users\haske\AppData\Local\Temp\ccg6iOQH.s 			page 28


 681:..\..\..\arduinoLCD\test\Pain Drain\libraries\lvgl\src\misc/lv_txt.c ****                 return 0;
 682:..\..\..\arduinoLCD\test\Pain Drain\libraries\lvgl\src\misc/lv_txt.c ****         }
 683:..\..\..\arduinoLCD\test\Pain Drain\libraries\lvgl\src\misc/lv_txt.c ****         cnt++;
 638              		.loc 1 683 0
 639 002c 0134     		adds	r4, r4, #1
 640              	.LVL75:
 641 002e E4B2     		uxtb	r4, r4
 642              	.LVL76:
 684:..\..\..\arduinoLCD\test\Pain Drain\libraries\lvgl\src\misc/lv_txt.c ****     } while(c_size == 0);
 643              		.loc 1 684 0
 644 0030 002B     		cmp	r3, #0
 645 0032 EDD0     		beq	.L41
 685:..\..\..\arduinoLCD\test\Pain Drain\libraries\lvgl\src\misc/lv_txt.c **** 
 686:..\..\..\arduinoLCD\test\Pain Drain\libraries\lvgl\src\misc/lv_txt.c ****     uint32_t i_tmp  = *i;
 646              		.loc 1 686 0
 647 0034 2B68     		ldr	r3, [r5]
 648              	.LVL77:
 649 0036 0193     		str	r3, [sp, #4]
 687:..\..\..\arduinoLCD\test\Pain Drain\libraries\lvgl\src\misc/lv_txt.c ****     uint32_t letter = _lv_txt_encoded_next(txt, &i_tmp); /*Character found, get it*/
 650              		.loc 1 687 0
 651 0038 044B     		ldr	r3, .L43
 652 003a 5B68     		ldr	r3, [r3, #4]
 653 003c 01A9     		add	r1, sp, #4
 654 003e 3000     		movs	r0, r6
 655 0040 9847     		blx	r3
 656              	.LVL78:
 688:..\..\..\arduinoLCD\test\Pain Drain\libraries\lvgl\src\misc/lv_txt.c **** 
 689:..\..\..\arduinoLCD\test\Pain Drain\libraries\lvgl\src\misc/lv_txt.c ****     return letter;
 657              		.loc 1 689 0
 658 0042 00E0     		b	.L39
 659              	.L42:
 674:..\..\..\arduinoLCD\test\Pain Drain\libraries\lvgl\src\misc/lv_txt.c **** 
 660              		.loc 1 674 0
 661 0044 0020     		movs	r0, #0
 662              	.L39:
 690:..\..\..\arduinoLCD\test\Pain Drain\libraries\lvgl\src\misc/lv_txt.c **** }
 663              		.loc 1 690 0
 664 0046 02B0     		add	sp, sp, #8
 665              		@ sp needed
 666              	.LVL79:
 667              	.LVL80:
 668              	.LVL81:
 669 0048 70BD     		pop	{r4, r5, r6, pc}
 670              	.L44:
 671 004a C046     		.align	2
 672              	.L43:
 673 004c 00000000 		.word	.LANCHOR0
 674              		.cfi_endproc
 675              	.LFE68:
 676              		.size	lv_txt_utf8_prev, .-lv_txt_utf8_prev
 677              		.section	.text.lv_txt_utf8_get_byte_id,"ax",%progbits
 678              		.align	2
 679              		.code	16
 680              		.thumb_func
 681              		.type	lv_txt_utf8_get_byte_id, %function
 682              	lv_txt_utf8_get_byte_id:
 683              	.LFB69:
ARM GAS  C:\Users\haske\AppData\Local\Temp\ccg6iOQH.s 			page 29


 691:..\..\..\arduinoLCD\test\Pain Drain\libraries\lvgl\src\misc/lv_txt.c **** 
 692:..\..\..\arduinoLCD\test\Pain Drain\libraries\lvgl\src\misc/lv_txt.c **** /**
 693:..\..\..\arduinoLCD\test\Pain Drain\libraries\lvgl\src\misc/lv_txt.c ****  * Convert a character index (in an UTF-8 text) to byte index.
 694:..\..\..\arduinoLCD\test\Pain Drain\libraries\lvgl\src\misc/lv_txt.c ****  * E.g. in "ART" index of 'R' is 2th char but start at byte 3 because '' is 2 bytes long
 695:..\..\..\arduinoLCD\test\Pain Drain\libraries\lvgl\src\misc/lv_txt.c ****  * @param txt a '\0' terminated UTF-8 string
 696:..\..\..\arduinoLCD\test\Pain Drain\libraries\lvgl\src\misc/lv_txt.c ****  * @param utf8_id character index
 697:..\..\..\arduinoLCD\test\Pain Drain\libraries\lvgl\src\misc/lv_txt.c ****  * @return byte index of the 'utf8_id'th letter
 698:..\..\..\arduinoLCD\test\Pain Drain\libraries\lvgl\src\misc/lv_txt.c ****  */
 699:..\..\..\arduinoLCD\test\Pain Drain\libraries\lvgl\src\misc/lv_txt.c **** static uint32_t lv_txt_utf8_get_byte_id(const char * txt, uint32_t utf8_id)
 700:..\..\..\arduinoLCD\test\Pain Drain\libraries\lvgl\src\misc/lv_txt.c **** {
 684              		.loc 1 700 0
 685              		.cfi_startproc
 686              		@ args = 0, pretend = 0, frame = 0
 687              		@ frame_needed = 0, uses_anonymous_args = 0
 688              	.LVL82:
 689 0000 F8B5     		push	{r3, r4, r5, r6, r7, lr}
 690              		.cfi_def_cfa_offset 24
 691              		.cfi_offset 3, -24
 692              		.cfi_offset 4, -20
 693              		.cfi_offset 5, -16
 694              		.cfi_offset 6, -12
 695              		.cfi_offset 7, -8
 696              		.cfi_offset 14, -4
 697 0002 0700     		movs	r7, r0
 698 0004 0E00     		movs	r6, r1
 699              	.LVL83:
 701:..\..\..\arduinoLCD\test\Pain Drain\libraries\lvgl\src\misc/lv_txt.c ****     uint32_t i;
 702:..\..\..\arduinoLCD\test\Pain Drain\libraries\lvgl\src\misc/lv_txt.c ****     uint32_t byte_cnt = 0;
 700              		.loc 1 702 0
 701 0006 0024     		movs	r4, #0
 703:..\..\..\arduinoLCD\test\Pain Drain\libraries\lvgl\src\misc/lv_txt.c ****     for(i = 0; i < utf8_id && txt[byte_cnt] != '\0'; i++) {
 702              		.loc 1 703 0
 703 0008 0025     		movs	r5, #0
 704 000a 07E0     		b	.L46
 705              	.LVL84:
 706              	.L49:
 707              	.LBB18:
 704:..\..\..\arduinoLCD\test\Pain Drain\libraries\lvgl\src\misc/lv_txt.c ****         uint8_t c_size = _lv_txt_encoded_size(&txt[byte_cnt]);
 708              		.loc 1 704 0
 709 000c 074B     		ldr	r3, .L51
 710 000e 1B68     		ldr	r3, [r3]
 711 0010 9847     		blx	r3
 712              	.LVL85:
 705:..\..\..\arduinoLCD\test\Pain Drain\libraries\lvgl\src\misc/lv_txt.c ****         /* If the char was invalid tell it's 1 byte long*/
 706:..\..\..\arduinoLCD\test\Pain Drain\libraries\lvgl\src\misc/lv_txt.c ****         byte_cnt += c_size ? c_size : 1;
 713              		.loc 1 706 0
 714 0012 0028     		cmp	r0, #0
 715 0014 00D1     		bne	.L47
 716 0016 0120     		movs	r0, #1
 717              	.LVL86:
 718              	.L47:
 719              		.loc 1 706 0 is_stmt 0 discriminator 4
 720 0018 2418     		adds	r4, r4, r0
 721              	.LVL87:
 722              	.LBE18:
 703:..\..\..\arduinoLCD\test\Pain Drain\libraries\lvgl\src\misc/lv_txt.c ****         uint8_t c_size = _lv_txt_encoded_size(&txt[byte_cnt]);
 723              		.loc 1 703 0 is_stmt 1 discriminator 4
ARM GAS  C:\Users\haske\AppData\Local\Temp\ccg6iOQH.s 			page 30


 724 001a 0135     		adds	r5, r5, #1
 725              	.LVL88:
 726              	.L46:
 703:..\..\..\arduinoLCD\test\Pain Drain\libraries\lvgl\src\misc/lv_txt.c ****         uint8_t c_size = _lv_txt_encoded_size(&txt[byte_cnt]);
 727              		.loc 1 703 0 is_stmt 0 discriminator 2
 728 001c B542     		cmp	r5, r6
 729 001e 03D2     		bcs	.L48
 703:..\..\..\arduinoLCD\test\Pain Drain\libraries\lvgl\src\misc/lv_txt.c ****         uint8_t c_size = _lv_txt_encoded_size(&txt[byte_cnt]);
 730              		.loc 1 703 0 discriminator 3
 731 0020 3819     		adds	r0, r7, r4
 732 0022 0378     		ldrb	r3, [r0]
 733 0024 002B     		cmp	r3, #0
 734 0026 F1D1     		bne	.L49
 735              	.L48:
 707:..\..\..\arduinoLCD\test\Pain Drain\libraries\lvgl\src\misc/lv_txt.c ****     }
 708:..\..\..\arduinoLCD\test\Pain Drain\libraries\lvgl\src\misc/lv_txt.c **** 
 709:..\..\..\arduinoLCD\test\Pain Drain\libraries\lvgl\src\misc/lv_txt.c ****     return byte_cnt;
 710:..\..\..\arduinoLCD\test\Pain Drain\libraries\lvgl\src\misc/lv_txt.c **** }
 736              		.loc 1 710 0 is_stmt 1
 737 0028 2000     		movs	r0, r4
 738              		@ sp needed
 739              	.LVL89:
 740              	.LVL90:
 741              	.LVL91:
 742              	.LVL92:
 743 002a F8BD     		pop	{r3, r4, r5, r6, r7, pc}
 744              	.L52:
 745              		.align	2
 746              	.L51:
 747 002c 00000000 		.word	.LANCHOR0
 748              		.cfi_endproc
 749              	.LFE69:
 750              		.size	lv_txt_utf8_get_byte_id, .-lv_txt_utf8_get_byte_id
 751              		.section	.text.lv_txt_utf8_get_char_id,"ax",%progbits
 752              		.align	2
 753              		.code	16
 754              		.thumb_func
 755              		.type	lv_txt_utf8_get_char_id, %function
 756              	lv_txt_utf8_get_char_id:
 757              	.LFB70:
 711:..\..\..\arduinoLCD\test\Pain Drain\libraries\lvgl\src\misc/lv_txt.c **** 
 712:..\..\..\arduinoLCD\test\Pain Drain\libraries\lvgl\src\misc/lv_txt.c **** /**
 713:..\..\..\arduinoLCD\test\Pain Drain\libraries\lvgl\src\misc/lv_txt.c ****  * Convert a byte index (in an UTF-8 text) to character index.
 714:..\..\..\arduinoLCD\test\Pain Drain\libraries\lvgl\src\misc/lv_txt.c ****  * E.g. in "ART" index of 'R' is 2th char but start at byte 3 because '' is 2 bytes long
 715:..\..\..\arduinoLCD\test\Pain Drain\libraries\lvgl\src\misc/lv_txt.c ****  * @param txt a '\0' terminated UTF-8 string
 716:..\..\..\arduinoLCD\test\Pain Drain\libraries\lvgl\src\misc/lv_txt.c ****  * @param byte_id byte index
 717:..\..\..\arduinoLCD\test\Pain Drain\libraries\lvgl\src\misc/lv_txt.c ****  * @return character index of the letter at 'byte_id'th position
 718:..\..\..\arduinoLCD\test\Pain Drain\libraries\lvgl\src\misc/lv_txt.c ****  */
 719:..\..\..\arduinoLCD\test\Pain Drain\libraries\lvgl\src\misc/lv_txt.c **** static uint32_t lv_txt_utf8_get_char_id(const char * txt, uint32_t byte_id)
 720:..\..\..\arduinoLCD\test\Pain Drain\libraries\lvgl\src\misc/lv_txt.c **** {
 758              		.loc 1 720 0
 759              		.cfi_startproc
 760              		@ args = 0, pretend = 0, frame = 8
 761              		@ frame_needed = 0, uses_anonymous_args = 0
 762              	.LVL93:
 763 0000 70B5     		push	{r4, r5, r6, lr}
 764              		.cfi_def_cfa_offset 16
ARM GAS  C:\Users\haske\AppData\Local\Temp\ccg6iOQH.s 			page 31


 765              		.cfi_offset 4, -16
 766              		.cfi_offset 5, -12
 767              		.cfi_offset 6, -8
 768              		.cfi_offset 14, -4
 769 0002 82B0     		sub	sp, sp, #8
 770              		.cfi_def_cfa_offset 24
 771 0004 0500     		movs	r5, r0
 772 0006 0E00     		movs	r6, r1
 721:..\..\..\arduinoLCD\test\Pain Drain\libraries\lvgl\src\misc/lv_txt.c ****     uint32_t i        = 0;
 773              		.loc 1 721 0
 774 0008 0023     		movs	r3, #0
 775 000a 0193     		str	r3, [sp, #4]
 776              	.LVL94:
 722:..\..\..\arduinoLCD\test\Pain Drain\libraries\lvgl\src\misc/lv_txt.c ****     uint32_t char_cnt = 0;
 777              		.loc 1 722 0
 778 000c 0024     		movs	r4, #0
 723:..\..\..\arduinoLCD\test\Pain Drain\libraries\lvgl\src\misc/lv_txt.c **** 
 724:..\..\..\arduinoLCD\test\Pain Drain\libraries\lvgl\src\misc/lv_txt.c ****     while(i < byte_id) {
 779              		.loc 1 724 0
 780 000e 05E0     		b	.L54
 781              	.LVL95:
 782              	.L55:
 725:..\..\..\arduinoLCD\test\Pain Drain\libraries\lvgl\src\misc/lv_txt.c ****         _lv_txt_encoded_next(txt, &i); /*'i' points to the next letter so use the prev. value*/
 783              		.loc 1 725 0
 784 0010 054B     		ldr	r3, .L56
 785 0012 5B68     		ldr	r3, [r3, #4]
 786 0014 01A9     		add	r1, sp, #4
 787 0016 2800     		movs	r0, r5
 788 0018 9847     		blx	r3
 789              	.LVL96:
 726:..\..\..\arduinoLCD\test\Pain Drain\libraries\lvgl\src\misc/lv_txt.c ****         char_cnt++;
 790              		.loc 1 726 0
 791 001a 0134     		adds	r4, r4, #1
 792              	.LVL97:
 793              	.L54:
 724:..\..\..\arduinoLCD\test\Pain Drain\libraries\lvgl\src\misc/lv_txt.c ****         _lv_txt_encoded_next(txt, &i); /*'i' points to the next letter so use the prev. value*/
 794              		.loc 1 724 0
 795 001c 019B     		ldr	r3, [sp, #4]
 796 001e B342     		cmp	r3, r6
 797 0020 F6D3     		bcc	.L55
 727:..\..\..\arduinoLCD\test\Pain Drain\libraries\lvgl\src\misc/lv_txt.c ****     }
 728:..\..\..\arduinoLCD\test\Pain Drain\libraries\lvgl\src\misc/lv_txt.c **** 
 729:..\..\..\arduinoLCD\test\Pain Drain\libraries\lvgl\src\misc/lv_txt.c ****     return char_cnt;
 730:..\..\..\arduinoLCD\test\Pain Drain\libraries\lvgl\src\misc/lv_txt.c **** }
 798              		.loc 1 730 0
 799 0022 2000     		movs	r0, r4
 800 0024 02B0     		add	sp, sp, #8
 801              		@ sp needed
 802              	.LVL98:
 803              	.LVL99:
 804              	.LVL100:
 805 0026 70BD     		pop	{r4, r5, r6, pc}
 806              	.L57:
 807              		.align	2
 808              	.L56:
 809 0028 00000000 		.word	.LANCHOR0
 810              		.cfi_endproc
ARM GAS  C:\Users\haske\AppData\Local\Temp\ccg6iOQH.s 			page 32


 811              	.LFE70:
 812              		.size	lv_txt_utf8_get_char_id, .-lv_txt_utf8_get_char_id
 813              		.section	.text.lv_txt_utf8_get_length,"ax",%progbits
 814              		.align	2
 815              		.code	16
 816              		.thumb_func
 817              		.type	lv_txt_utf8_get_length, %function
 818              	lv_txt_utf8_get_length:
 819              	.LFB71:
 731:..\..\..\arduinoLCD\test\Pain Drain\libraries\lvgl\src\misc/lv_txt.c **** 
 732:..\..\..\arduinoLCD\test\Pain Drain\libraries\lvgl\src\misc/lv_txt.c **** /**
 733:..\..\..\arduinoLCD\test\Pain Drain\libraries\lvgl\src\misc/lv_txt.c ****  * Get the number of characters (and NOT bytes) in a string. Decode it with UTF-8 if enabled.
 734:..\..\..\arduinoLCD\test\Pain Drain\libraries\lvgl\src\misc/lv_txt.c ****  * E.g.: "BC" is 3 characters (but 4 bytes)
 735:..\..\..\arduinoLCD\test\Pain Drain\libraries\lvgl\src\misc/lv_txt.c ****  * @param txt a '\0' terminated char string
 736:..\..\..\arduinoLCD\test\Pain Drain\libraries\lvgl\src\misc/lv_txt.c ****  * @return number of characters
 737:..\..\..\arduinoLCD\test\Pain Drain\libraries\lvgl\src\misc/lv_txt.c ****  */
 738:..\..\..\arduinoLCD\test\Pain Drain\libraries\lvgl\src\misc/lv_txt.c **** static uint32_t lv_txt_utf8_get_length(const char * txt)
 739:..\..\..\arduinoLCD\test\Pain Drain\libraries\lvgl\src\misc/lv_txt.c **** {
 820              		.loc 1 739 0
 821              		.cfi_startproc
 822              		@ args = 0, pretend = 0, frame = 8
 823              		@ frame_needed = 0, uses_anonymous_args = 0
 824              	.LVL101:
 825 0000 30B5     		push	{r4, r5, lr}
 826              		.cfi_def_cfa_offset 12
 827              		.cfi_offset 4, -12
 828              		.cfi_offset 5, -8
 829              		.cfi_offset 14, -4
 830 0002 83B0     		sub	sp, sp, #12
 831              		.cfi_def_cfa_offset 24
 832 0004 0500     		movs	r5, r0
 833              	.LVL102:
 740:..\..\..\arduinoLCD\test\Pain Drain\libraries\lvgl\src\misc/lv_txt.c ****     uint32_t len = 0;
 741:..\..\..\arduinoLCD\test\Pain Drain\libraries\lvgl\src\misc/lv_txt.c ****     uint32_t i   = 0;
 834              		.loc 1 741 0
 835 0006 0023     		movs	r3, #0
 836 0008 0193     		str	r3, [sp, #4]
 740:..\..\..\arduinoLCD\test\Pain Drain\libraries\lvgl\src\misc/lv_txt.c ****     uint32_t len = 0;
 837              		.loc 1 740 0
 838 000a 0024     		movs	r4, #0
 742:..\..\..\arduinoLCD\test\Pain Drain\libraries\lvgl\src\misc/lv_txt.c **** 
 743:..\..\..\arduinoLCD\test\Pain Drain\libraries\lvgl\src\misc/lv_txt.c ****     while(txt[i] != '\0') {
 839              		.loc 1 743 0
 840 000c 05E0     		b	.L59
 841              	.LVL103:
 842              	.L60:
 744:..\..\..\arduinoLCD\test\Pain Drain\libraries\lvgl\src\misc/lv_txt.c ****         _lv_txt_encoded_next(txt, &i);
 843              		.loc 1 744 0
 844 000e 064B     		ldr	r3, .L61
 845 0010 5B68     		ldr	r3, [r3, #4]
 846 0012 01A9     		add	r1, sp, #4
 847 0014 2800     		movs	r0, r5
 848 0016 9847     		blx	r3
 849              	.LVL104:
 745:..\..\..\arduinoLCD\test\Pain Drain\libraries\lvgl\src\misc/lv_txt.c ****         len++;
 850              		.loc 1 745 0
 851 0018 0134     		adds	r4, r4, #1
ARM GAS  C:\Users\haske\AppData\Local\Temp\ccg6iOQH.s 			page 33


 852              	.LVL105:
 853              	.L59:
 743:..\..\..\arduinoLCD\test\Pain Drain\libraries\lvgl\src\misc/lv_txt.c ****         _lv_txt_encoded_next(txt, &i);
 854              		.loc 1 743 0
 855 001a 019B     		ldr	r3, [sp, #4]
 856 001c EB5C     		ldrb	r3, [r5, r3]
 857 001e 002B     		cmp	r3, #0
 858 0020 F5D1     		bne	.L60
 746:..\..\..\arduinoLCD\test\Pain Drain\libraries\lvgl\src\misc/lv_txt.c ****     }
 747:..\..\..\arduinoLCD\test\Pain Drain\libraries\lvgl\src\misc/lv_txt.c **** 
 748:..\..\..\arduinoLCD\test\Pain Drain\libraries\lvgl\src\misc/lv_txt.c ****     return len;
 749:..\..\..\arduinoLCD\test\Pain Drain\libraries\lvgl\src\misc/lv_txt.c **** }
 859              		.loc 1 749 0
 860 0022 2000     		movs	r0, r4
 861 0024 03B0     		add	sp, sp, #12
 862              		@ sp needed
 863              	.LVL106:
 864              	.LVL107:
 865 0026 30BD     		pop	{r4, r5, pc}
 866              	.L62:
 867              		.align	2
 868              	.L61:
 869 0028 00000000 		.word	.LANCHOR0
 870              		.cfi_endproc
 871              	.LFE71:
 872              		.size	lv_txt_utf8_get_length, .-lv_txt_utf8_get_length
 873              		.section	.text._lv_txt_is_cmd,"ax",%progbits
 874              		.align	2
 875              		.global	_lv_txt_is_cmd
 876              		.code	16
 877              		.thumb_func
 878              		.type	_lv_txt_is_cmd, %function
 879              	_lv_txt_is_cmd:
 880              	.LFB59:
 383:..\..\..\arduinoLCD\test\Pain Drain\libraries\lvgl\src\misc/lv_txt.c ****     bool ret = false;
 881              		.loc 1 383 0
 882              		.cfi_startproc
 883              		@ args = 0, pretend = 0, frame = 0
 884              		@ frame_needed = 0, uses_anonymous_args = 0
 885              		@ link register save eliminated.
 886              	.LVL108:
 386:..\..\..\arduinoLCD\test\Pain Drain\libraries\lvgl\src\misc/lv_txt.c ****         if(*state == LV_TEXT_CMD_STATE_WAIT) { /*Start char*/
 887              		.loc 1 386 0
 888 0000 2329     		cmp	r1, #35
 889 0002 10D1     		bne	.L68
 387:..\..\..\arduinoLCD\test\Pain Drain\libraries\lvgl\src\misc/lv_txt.c ****             *state = LV_TEXT_CMD_STATE_PAR;
 890              		.loc 1 387 0
 891 0004 0378     		ldrb	r3, [r0]
 892 0006 002B     		cmp	r3, #0
 893 0008 02D1     		bne	.L65
 388:..\..\..\arduinoLCD\test\Pain Drain\libraries\lvgl\src\misc/lv_txt.c ****             ret    = true;
 894              		.loc 1 388 0
 895 000a 0133     		adds	r3, r3, #1
 896 000c 0370     		strb	r3, [r0]
 897              	.LVL109:
 898 000e 0DE0     		b	.L64
 899              	.LVL110:
ARM GAS  C:\Users\haske\AppData\Local\Temp\ccg6iOQH.s 			page 34


 900              	.L65:
 392:..\..\..\arduinoLCD\test\Pain Drain\libraries\lvgl\src\misc/lv_txt.c ****             *state = LV_TEXT_CMD_STATE_WAIT;
 901              		.loc 1 392 0
 902 0010 012B     		cmp	r3, #1
 903 0012 02D1     		bne	.L66
 393:..\..\..\arduinoLCD\test\Pain Drain\libraries\lvgl\src\misc/lv_txt.c ****         }
 904              		.loc 1 393 0
 905 0014 0023     		movs	r3, #0
 906 0016 0370     		strb	r3, [r0]
 907 0018 08E0     		b	.L64
 908              	.L66:
 396:..\..\..\arduinoLCD\test\Pain Drain\libraries\lvgl\src\misc/lv_txt.c ****             *state = LV_TEXT_CMD_STATE_WAIT;
 909              		.loc 1 396 0
 910 001a 022B     		cmp	r3, #2
 911 001c 05D1     		bne	.L69
 397:..\..\..\arduinoLCD\test\Pain Drain\libraries\lvgl\src\misc/lv_txt.c ****             ret    = true;
 912              		.loc 1 397 0
 913 001e 0023     		movs	r3, #0
 914 0020 0370     		strb	r3, [r0]
 915              	.LVL111:
 398:..\..\..\arduinoLCD\test\Pain Drain\libraries\lvgl\src\misc/lv_txt.c ****         }
 916              		.loc 1 398 0
 917 0022 0133     		adds	r3, r3, #1
 918 0024 02E0     		b	.L64
 919              	.LVL112:
 920              	.L68:
 384:..\..\..\arduinoLCD\test\Pain Drain\libraries\lvgl\src\misc/lv_txt.c **** 
 921              		.loc 1 384 0
 922 0026 0023     		movs	r3, #0
 923 0028 00E0     		b	.L64
 924              	.L69:
 925 002a 0023     		movs	r3, #0
 926              	.LVL113:
 927              	.L64:
 403:..\..\..\arduinoLCD\test\Pain Drain\libraries\lvgl\src\misc/lv_txt.c ****         if(c == ' ') {
 928              		.loc 1 403 0
 929 002c 0278     		ldrb	r2, [r0]
 930 002e 012A     		cmp	r2, #1
 931 0030 06D1     		bne	.L67
 404:..\..\..\arduinoLCD\test\Pain Drain\libraries\lvgl\src\misc/lv_txt.c ****             *state = LV_TEXT_CMD_STATE_IN; /*After the parameter the text is in the command*/
 932              		.loc 1 404 0
 933 0032 2029     		cmp	r1, #32
 934 0034 03D1     		bne	.L70
 405:..\..\..\arduinoLCD\test\Pain Drain\libraries\lvgl\src\misc/lv_txt.c ****         }
 935              		.loc 1 405 0
 936 0036 0223     		movs	r3, #2
 937              	.LVL114:
 938 0038 0370     		strb	r3, [r0]
 407:..\..\..\arduinoLCD\test\Pain Drain\libraries\lvgl\src\misc/lv_txt.c ****     }
 939              		.loc 1 407 0
 940 003a 013B     		subs	r3, r3, #1
 941 003c 00E0     		b	.L67
 942              	.LVL115:
 943              	.L70:
 944 003e 0123     		movs	r3, #1
 945              	.LVL116:
 946              	.L67:
ARM GAS  C:\Users\haske\AppData\Local\Temp\ccg6iOQH.s 			page 35


 411:..\..\..\arduinoLCD\test\Pain Drain\libraries\lvgl\src\misc/lv_txt.c **** 
 947              		.loc 1 411 0
 948 0040 1800     		movs	r0, r3
 949              	.LVL117:
 950              		@ sp needed
 951 0042 7047     		bx	lr
 952              		.cfi_endproc
 953              	.LFE59:
 954              		.size	_lv_txt_is_cmd, .-_lv_txt_is_cmd
 955              		.section	.text.lv_txt_get_next_word,"ax",%progbits
 956              		.align	2
 957              		.code	16
 958              		.thumb_func
 959              		.type	lv_txt_get_next_word, %function
 960              	lv_txt_get_next_word:
 961              	.LFB56:
 174:..\..\..\arduinoLCD\test\Pain Drain\libraries\lvgl\src\misc/lv_txt.c ****     if(txt == NULL || txt[0] == '\0') return 0;
 962              		.loc 1 174 0
 963              		.cfi_startproc
 964              		@ args = 16, pretend = 0, frame = 32
 965              		@ frame_needed = 0, uses_anonymous_args = 0
 966              	.LVL118:
 967 0000 F0B5     		push	{r4, r5, r6, r7, lr}
 968              		.cfi_def_cfa_offset 20
 969              		.cfi_offset 4, -20
 970              		.cfi_offset 5, -16
 971              		.cfi_offset 6, -12
 972              		.cfi_offset 7, -8
 973              		.cfi_offset 14, -4
 974 0002 5F46     		mov	r7, fp
 975 0004 5646     		mov	r6, r10
 976 0006 4D46     		mov	r5, r9
 977 0008 4446     		mov	r4, r8
 978 000a F0B4     		push	{r4, r5, r6, r7}
 979              		.cfi_def_cfa_offset 36
 980              		.cfi_offset 8, -36
 981              		.cfi_offset 9, -32
 982              		.cfi_offset 10, -28
 983              		.cfi_offset 11, -24
 984 000c 89B0     		sub	sp, sp, #36
 985              		.cfi_def_cfa_offset 72
 986 000e 0600     		movs	r6, r0
 987 0010 0391     		str	r1, [sp, #12]
 988 0012 9046     		mov	r8, r2
 989 0014 0493     		str	r3, [sp, #16]
 990 0016 12AB     		add	r3, sp, #72
 991              	.LVL119:
 992 0018 1B78     		ldrb	r3, [r3]
 993              	.LVL120:
 994 001a 9B46     		mov	fp, r3
 995 001c 139B     		ldr	r3, [sp, #76]
 996 001e 9946     		mov	r9, r3
 997 0020 15AB     		add	r3, sp, #84
 998              	.LVL121:
 999 0022 1B78     		ldrb	r3, [r3]
 1000              	.LVL122:
 1001 0024 0593     		str	r3, [sp, #20]
ARM GAS  C:\Users\haske\AppData\Local\Temp\ccg6iOQH.s 			page 36


 175:..\..\..\arduinoLCD\test\Pain Drain\libraries\lvgl\src\misc/lv_txt.c ****     if(font == NULL) return 0;
 1002              		.loc 1 175 0
 1003 0026 0028     		cmp	r0, #0
 1004 0028 00D1     		bne	.LCB1027
 1005 002a 98E0     		b	.L89	@long jump
 1006              	.LCB1027:
 175:..\..\..\arduinoLCD\test\Pain Drain\libraries\lvgl\src\misc/lv_txt.c ****     if(font == NULL) return 0;
 1007              		.loc 1 175 0 is_stmt 0 discriminator 2
 1008 002c 0378     		ldrb	r3, [r0]
 1009 002e 002B     		cmp	r3, #0
 1010 0030 00D1     		bne	.LCB1030
 1011 0032 96E0     		b	.L90	@long jump
 1012              	.LCB1030:
 176:..\..\..\arduinoLCD\test\Pain Drain\libraries\lvgl\src\misc/lv_txt.c **** 
 1013              		.loc 1 176 0 is_stmt 1
 1014 0034 0029     		cmp	r1, #0
 1015 0036 00D1     		bne	.LCB1032
 1016 0038 95E0     		b	.L91	@long jump
 1017              	.LCB1032:
 178:..\..\..\arduinoLCD\test\Pain Drain\libraries\lvgl\src\misc/lv_txt.c **** 
 1018              		.loc 1 178 0
 1019 003a 5B46     		mov	r3, fp
 1020 003c 9B07     		lsls	r3, r3, #30
 1021 003e 01D5     		bpl	.L73
 1022 0040 514B     		ldr	r3, .L100
 1023 0042 0493     		str	r3, [sp, #16]
 1024              	.L73:
 1025              	.LVL123:
 180:..\..\..\arduinoLCD\test\Pain Drain\libraries\lvgl\src\misc/lv_txt.c ****     uint32_t letter = 0;      /*Letter at i*/
 1026              		.loc 1 180 0
 1027 0044 0023     		movs	r3, #0
 1028 0046 0793     		str	r3, [sp, #28]
 1029 0048 0693     		str	r3, [sp, #24]
 1030              	.LVL124:
 189:..\..\..\arduinoLCD\test\Pain Drain\libraries\lvgl\src\misc/lv_txt.c ****     i_next_next = i_next;
 1031              		.loc 1 189 0
 1032 004a 504B     		ldr	r3, .L100+4
 1033 004c 5B68     		ldr	r3, [r3, #4]
 1034 004e 07A9     		add	r1, sp, #28
 1035              	.LVL125:
 1036 0050 3000     		movs	r0, r6
 1037              	.LVL126:
 1038 0052 9847     		blx	r3
 1039              	.LVL127:
 1040 0054 0400     		movs	r4, r0
 1041              	.LVL128:
 190:..\..\..\arduinoLCD\test\Pain Drain\libraries\lvgl\src\misc/lv_txt.c **** 
 1042              		.loc 1 190 0
 1043 0056 079B     		ldr	r3, [sp, #28]
 1044 0058 0693     		str	r3, [sp, #24]
 186:..\..\..\arduinoLCD\test\Pain Drain\libraries\lvgl\src\misc/lv_txt.c ****     uint32_t break_letter_count = 0; /*Number of characters up to the long word break point*/
 1045              		.loc 1 186 0
 1046 005a 0123     		movs	r3, #1
 1047 005c 5B42     		rsbs	r3, r3, #0
 1048 005e 9A46     		mov	r10, r3
 185:..\..\..\arduinoLCD\test\Pain Drain\libraries\lvgl\src\misc/lv_txt.c ****     uint32_t break_index = NO_BREAK_FOUND; /*only used for "long" words*/
 1049              		.loc 1 185 0
ARM GAS  C:\Users\haske\AppData\Local\Temp\ccg6iOQH.s 			page 37


 1050 0060 0023     		movs	r3, #0
 1051 0062 0193     		str	r3, [sp, #4]
 184:..\..\..\arduinoLCD\test\Pain Drain\libraries\lvgl\src\misc/lv_txt.c ****     uint32_t word_len = 0;   /*Number of characters in the transversed word*/
 1052              		.loc 1 184 0
 1053 0064 0025     		movs	r5, #0
 182:..\..\..\arduinoLCD\test\Pain Drain\libraries\lvgl\src\misc/lv_txt.c ****     lv_coord_t letter_w;
 1054              		.loc 1 182 0
 1055 0066 0093     		str	r3, [sp]
 180:..\..\..\arduinoLCD\test\Pain Drain\libraries\lvgl\src\misc/lv_txt.c ****     uint32_t letter = 0;      /*Letter at i*/
 1056              		.loc 1 180 0
 1057 0068 0027     		movs	r7, #0
 193:..\..\..\arduinoLCD\test\Pain Drain\libraries\lvgl\src\misc/lv_txt.c ****         letter_next = _lv_txt_encoded_next(txt, &i_next_next);
 1058              		.loc 1 193 0
 1059 006a 5DE0     		b	.L74
 1060              	.LVL129:
 1061              	.L86:
 194:..\..\..\arduinoLCD\test\Pain Drain\libraries\lvgl\src\misc/lv_txt.c ****         word_len++;
 1062              		.loc 1 194 0
 1063 006c 474B     		ldr	r3, .L100+4
 1064 006e 5B68     		ldr	r3, [r3, #4]
 1065 0070 06A9     		add	r1, sp, #24
 1066 0072 3000     		movs	r0, r6
 1067 0074 9847     		blx	r3
 1068              	.LVL130:
 1069 0076 0090     		str	r0, [sp]
 1070              	.LVL131:
 195:..\..\..\arduinoLCD\test\Pain Drain\libraries\lvgl\src\misc/lv_txt.c **** 
 1071              		.loc 1 195 0
 1072 0078 019B     		ldr	r3, [sp, #4]
 1073 007a 0133     		adds	r3, r3, #1
 1074 007c 0293     		str	r3, [sp, #8]
 1075              	.LVL132:
 198:..\..\..\arduinoLCD\test\Pain Drain\libraries\lvgl\src\misc/lv_txt.c ****             if(_lv_txt_is_cmd(cmd_state, letter) != false) {
 1076              		.loc 1 198 0
 1077 007e 5B46     		mov	r3, fp
 1078              	.LVL133:
 1079 0080 DB07     		lsls	r3, r3, #31
 1080 0082 09D5     		bpl	.L75
 199:..\..\..\arduinoLCD\test\Pain Drain\libraries\lvgl\src\misc/lv_txt.c ****                 i = i_next;
 1081              		.loc 1 199 0
 1082 0084 2100     		movs	r1, r4
 1083 0086 1498     		ldr	r0, [sp, #80]
 1084              	.LVL134:
 1085 0088 FFF7FEFF 		bl	_lv_txt_is_cmd
 1086              	.LVL135:
 1087 008c 0028     		cmp	r0, #0
 1088 008e 03D0     		beq	.L75
 200:..\..\..\arduinoLCD\test\Pain Drain\libraries\lvgl\src\misc/lv_txt.c ****                 i_next = i_next_next;
 1089              		.loc 1 200 0
 1090 0090 079F     		ldr	r7, [sp, #28]
 1091              	.LVL136:
 201:..\..\..\arduinoLCD\test\Pain Drain\libraries\lvgl\src\misc/lv_txt.c ****                 letter = letter_next;
 1092              		.loc 1 201 0
 1093 0092 069B     		ldr	r3, [sp, #24]
 1094 0094 0793     		str	r3, [sp, #28]
 1095              	.LVL137:
 203:..\..\..\arduinoLCD\test\Pain Drain\libraries\lvgl\src\misc/lv_txt.c ****             }
ARM GAS  C:\Users\haske\AppData\Local\Temp\ccg6iOQH.s 			page 38


 1096              		.loc 1 203 0
 1097 0096 44E0     		b	.L76
 1098              	.LVL138:
 1099              	.L75:
 207:..\..\..\arduinoLCD\test\Pain Drain\libraries\lvgl\src\misc/lv_txt.c ****         cur_w += letter_w;
 1100              		.loc 1 207 0
 1101 0098 009A     		ldr	r2, [sp]
 1102 009a 2100     		movs	r1, r4
 1103 009c 0398     		ldr	r0, [sp, #12]
 1104 009e FFF7FEFF 		bl	lv_font_get_glyph_width
 1105              	.LVL139:
 1106 00a2 03B2     		sxth	r3, r0
 1107              	.LVL140:
 208:..\..\..\arduinoLCD\test\Pain Drain\libraries\lvgl\src\misc/lv_txt.c **** 
 1108              		.loc 1 208 0
 1109 00a4 4019     		adds	r0, r0, r5
 1110 00a6 80B2     		uxth	r0, r0
 1111 00a8 05B2     		sxth	r5, r0
 1112              	.LVL141:
 210:..\..\..\arduinoLCD\test\Pain Drain\libraries\lvgl\src\misc/lv_txt.c ****             cur_w += letter_space;
 1113              		.loc 1 210 0
 1114 00aa 002B     		cmp	r3, #0
 1115 00ac 01DD     		ble	.L77
 211:..\..\..\arduinoLCD\test\Pain Drain\libraries\lvgl\src\misc/lv_txt.c ****         }
 1116              		.loc 1 211 0
 1117 00ae 4044     		add	r0, r0, r8
 1118 00b0 05B2     		sxth	r5, r0
 1119              	.LVL142:
 1120              	.L77:
 215:..\..\..\arduinoLCD\test\Pain Drain\libraries\lvgl\src\misc/lv_txt.c ****             break_index = i;
 1121              		.loc 1 215 0
 1122 00b2 5346     		mov	r3, r10
 1123              	.LVL143:
 1124 00b4 0133     		adds	r3, r3, #1
 1125 00b6 05D1     		bne	.L78
 215:..\..\..\arduinoLCD\test\Pain Drain\libraries\lvgl\src\misc/lv_txt.c ****             break_index = i;
 1126              		.loc 1 215 0 is_stmt 0 discriminator 1
 1127 00b8 4346     		mov	r3, r8
 1128 00ba EB1A     		subs	r3, r5, r3
 1129 00bc 049A     		ldr	r2, [sp, #16]
 1130 00be 9342     		cmp	r3, r2
 1131 00c0 00DD     		ble	.L78
 216:..\..\..\arduinoLCD\test\Pain Drain\libraries\lvgl\src\misc/lv_txt.c ****             break_letter_count = word_len - 1;
 1132              		.loc 1 216 0 is_stmt 1
 1133 00c2 BA46     		mov	r10, r7
 1134              	.LVL144:
 1135              	.L78:
 222:..\..\..\arduinoLCD\test\Pain Drain\libraries\lvgl\src\misc/lv_txt.c ****             /*Update the output width on the first character if it fits.
 1136              		.loc 1 222 0
 1137 00c4 0A2C     		cmp	r4, #10
 1138 00c6 17D0     		beq	.L79
 222:..\..\..\arduinoLCD\test\Pain Drain\libraries\lvgl\src\misc/lv_txt.c ****             /*Update the output width on the first character if it fits.
 1139              		.loc 1 222 0 is_stmt 0 discriminator 1
 1140 00c8 0D2C     		cmp	r4, #13
 1141 00ca 15D0     		beq	.L79
 1142              	.LVL145:
 1143              	.LBB19:
ARM GAS  C:\Users\haske\AppData\Local\Temp\ccg6iOQH.s 			page 39


 1144              	.LBB20:
 1145              		.file 3 "..\\..\\..\\arduinoLCD\\test\\Pain Drain\\libraries\\lvgl\\src\\misc\\lv_txt.h"
   1:..\..\..\arduinoLCD\test\Pain Drain\libraries\lvgl\src\misc/lv_txt.h **** /**
   2:..\..\..\arduinoLCD\test\Pain Drain\libraries\lvgl\src\misc/lv_txt.h ****  * @file lv_txt.h
   3:..\..\..\arduinoLCD\test\Pain Drain\libraries\lvgl\src\misc/lv_txt.h ****  *
   4:..\..\..\arduinoLCD\test\Pain Drain\libraries\lvgl\src\misc/lv_txt.h ****  */
   5:..\..\..\arduinoLCD\test\Pain Drain\libraries\lvgl\src\misc/lv_txt.h **** 
   6:..\..\..\arduinoLCD\test\Pain Drain\libraries\lvgl\src\misc/lv_txt.h **** #ifndef LV_TXT_H
   7:..\..\..\arduinoLCD\test\Pain Drain\libraries\lvgl\src\misc/lv_txt.h **** #define LV_TXT_H
   8:..\..\..\arduinoLCD\test\Pain Drain\libraries\lvgl\src\misc/lv_txt.h **** 
   9:..\..\..\arduinoLCD\test\Pain Drain\libraries\lvgl\src\misc/lv_txt.h **** #ifdef __cplusplus
  10:..\..\..\arduinoLCD\test\Pain Drain\libraries\lvgl\src\misc/lv_txt.h **** extern "C" {
  11:..\..\..\arduinoLCD\test\Pain Drain\libraries\lvgl\src\misc/lv_txt.h **** #endif
  12:..\..\..\arduinoLCD\test\Pain Drain\libraries\lvgl\src\misc/lv_txt.h **** 
  13:..\..\..\arduinoLCD\test\Pain Drain\libraries\lvgl\src\misc/lv_txt.h **** /*********************
  14:..\..\..\arduinoLCD\test\Pain Drain\libraries\lvgl\src\misc/lv_txt.h ****  *      INCLUDES
  15:..\..\..\arduinoLCD\test\Pain Drain\libraries\lvgl\src\misc/lv_txt.h ****  *********************/
  16:..\..\..\arduinoLCD\test\Pain Drain\libraries\lvgl\src\misc/lv_txt.h **** #include "../lv_conf_internal.h"
  17:..\..\..\arduinoLCD\test\Pain Drain\libraries\lvgl\src\misc/lv_txt.h **** 
  18:..\..\..\arduinoLCD\test\Pain Drain\libraries\lvgl\src\misc/lv_txt.h **** #include <stdbool.h>
  19:..\..\..\arduinoLCD\test\Pain Drain\libraries\lvgl\src\misc/lv_txt.h **** #include <stdarg.h>
  20:..\..\..\arduinoLCD\test\Pain Drain\libraries\lvgl\src\misc/lv_txt.h **** #include "lv_area.h"
  21:..\..\..\arduinoLCD\test\Pain Drain\libraries\lvgl\src\misc/lv_txt.h **** #include "../font/lv_font.h"
  22:..\..\..\arduinoLCD\test\Pain Drain\libraries\lvgl\src\misc/lv_txt.h **** #include "lv_printf.h"
  23:..\..\..\arduinoLCD\test\Pain Drain\libraries\lvgl\src\misc/lv_txt.h **** #include "lv_types.h"
  24:..\..\..\arduinoLCD\test\Pain Drain\libraries\lvgl\src\misc/lv_txt.h **** 
  25:..\..\..\arduinoLCD\test\Pain Drain\libraries\lvgl\src\misc/lv_txt.h **** /*********************
  26:..\..\..\arduinoLCD\test\Pain Drain\libraries\lvgl\src\misc/lv_txt.h ****  *      DEFINES
  27:..\..\..\arduinoLCD\test\Pain Drain\libraries\lvgl\src\misc/lv_txt.h ****  *********************/
  28:..\..\..\arduinoLCD\test\Pain Drain\libraries\lvgl\src\misc/lv_txt.h **** #ifndef LV_TXT_COLOR_CMD
  29:..\..\..\arduinoLCD\test\Pain Drain\libraries\lvgl\src\misc/lv_txt.h **** #define LV_TXT_COLOR_CMD "#"
  30:..\..\..\arduinoLCD\test\Pain Drain\libraries\lvgl\src\misc/lv_txt.h **** #endif
  31:..\..\..\arduinoLCD\test\Pain Drain\libraries\lvgl\src\misc/lv_txt.h **** 
  32:..\..\..\arduinoLCD\test\Pain Drain\libraries\lvgl\src\misc/lv_txt.h **** #define LV_TXT_ENC_UTF8 1
  33:..\..\..\arduinoLCD\test\Pain Drain\libraries\lvgl\src\misc/lv_txt.h **** #define LV_TXT_ENC_ASCII 2
  34:..\..\..\arduinoLCD\test\Pain Drain\libraries\lvgl\src\misc/lv_txt.h **** 
  35:..\..\..\arduinoLCD\test\Pain Drain\libraries\lvgl\src\misc/lv_txt.h **** /**********************
  36:..\..\..\arduinoLCD\test\Pain Drain\libraries\lvgl\src\misc/lv_txt.h ****  *      TYPEDEFS
  37:..\..\..\arduinoLCD\test\Pain Drain\libraries\lvgl\src\misc/lv_txt.h ****  **********************/
  38:..\..\..\arduinoLCD\test\Pain Drain\libraries\lvgl\src\misc/lv_txt.h **** 
  39:..\..\..\arduinoLCD\test\Pain Drain\libraries\lvgl\src\misc/lv_txt.h **** /**
  40:..\..\..\arduinoLCD\test\Pain Drain\libraries\lvgl\src\misc/lv_txt.h ****  * Options for text rendering.
  41:..\..\..\arduinoLCD\test\Pain Drain\libraries\lvgl\src\misc/lv_txt.h ****  */
  42:..\..\..\arduinoLCD\test\Pain Drain\libraries\lvgl\src\misc/lv_txt.h **** enum {
  43:..\..\..\arduinoLCD\test\Pain Drain\libraries\lvgl\src\misc/lv_txt.h ****     LV_TEXT_FLAG_NONE    = 0x00,
  44:..\..\..\arduinoLCD\test\Pain Drain\libraries\lvgl\src\misc/lv_txt.h ****     LV_TEXT_FLAG_RECOLOR = 0x01, /**< Enable parsing of recolor command*/
  45:..\..\..\arduinoLCD\test\Pain Drain\libraries\lvgl\src\misc/lv_txt.h ****     LV_TEXT_FLAG_EXPAND  = 0x02, /**< Ignore max-width to avoid automatic word wrapping*/
  46:..\..\..\arduinoLCD\test\Pain Drain\libraries\lvgl\src\misc/lv_txt.h ****     LV_TEXT_FLAG_FIT     = 0x04, /**< Max-width is already equal to the longest line. (Used to skip
  47:..\..\..\arduinoLCD\test\Pain Drain\libraries\lvgl\src\misc/lv_txt.h **** };
  48:..\..\..\arduinoLCD\test\Pain Drain\libraries\lvgl\src\misc/lv_txt.h **** typedef uint8_t lv_text_flag_t;
  49:..\..\..\arduinoLCD\test\Pain Drain\libraries\lvgl\src\misc/lv_txt.h **** 
  50:..\..\..\arduinoLCD\test\Pain Drain\libraries\lvgl\src\misc/lv_txt.h **** /**
  51:..\..\..\arduinoLCD\test\Pain Drain\libraries\lvgl\src\misc/lv_txt.h ****  * State machine for text renderer.*/
  52:..\..\..\arduinoLCD\test\Pain Drain\libraries\lvgl\src\misc/lv_txt.h **** enum {
  53:..\..\..\arduinoLCD\test\Pain Drain\libraries\lvgl\src\misc/lv_txt.h ****     LV_TEXT_CMD_STATE_WAIT, /**< Waiting for command*/
  54:..\..\..\arduinoLCD\test\Pain Drain\libraries\lvgl\src\misc/lv_txt.h ****     LV_TEXT_CMD_STATE_PAR,  /**< Processing the parameter*/
  55:..\..\..\arduinoLCD\test\Pain Drain\libraries\lvgl\src\misc/lv_txt.h ****     LV_TEXT_CMD_STATE_IN,   /**< Processing the command*/
ARM GAS  C:\Users\haske\AppData\Local\Temp\ccg6iOQH.s 			page 40


  56:..\..\..\arduinoLCD\test\Pain Drain\libraries\lvgl\src\misc/lv_txt.h **** };
  57:..\..\..\arduinoLCD\test\Pain Drain\libraries\lvgl\src\misc/lv_txt.h **** typedef uint8_t lv_text_cmd_state_t;
  58:..\..\..\arduinoLCD\test\Pain Drain\libraries\lvgl\src\misc/lv_txt.h **** 
  59:..\..\..\arduinoLCD\test\Pain Drain\libraries\lvgl\src\misc/lv_txt.h **** /** Label align policy*/
  60:..\..\..\arduinoLCD\test\Pain Drain\libraries\lvgl\src\misc/lv_txt.h **** enum {
  61:..\..\..\arduinoLCD\test\Pain Drain\libraries\lvgl\src\misc/lv_txt.h ****     LV_TEXT_ALIGN_AUTO, /**< Align text auto*/
  62:..\..\..\arduinoLCD\test\Pain Drain\libraries\lvgl\src\misc/lv_txt.h ****     LV_TEXT_ALIGN_LEFT, /**< Align text to left*/
  63:..\..\..\arduinoLCD\test\Pain Drain\libraries\lvgl\src\misc/lv_txt.h ****     LV_TEXT_ALIGN_CENTER, /**< Align text to center*/
  64:..\..\..\arduinoLCD\test\Pain Drain\libraries\lvgl\src\misc/lv_txt.h ****     LV_TEXT_ALIGN_RIGHT, /**< Align text to right*/
  65:..\..\..\arduinoLCD\test\Pain Drain\libraries\lvgl\src\misc/lv_txt.h **** };
  66:..\..\..\arduinoLCD\test\Pain Drain\libraries\lvgl\src\misc/lv_txt.h **** typedef uint8_t lv_text_align_t;
  67:..\..\..\arduinoLCD\test\Pain Drain\libraries\lvgl\src\misc/lv_txt.h **** 
  68:..\..\..\arduinoLCD\test\Pain Drain\libraries\lvgl\src\misc/lv_txt.h **** /**********************
  69:..\..\..\arduinoLCD\test\Pain Drain\libraries\lvgl\src\misc/lv_txt.h ****  * GLOBAL PROTOTYPES
  70:..\..\..\arduinoLCD\test\Pain Drain\libraries\lvgl\src\misc/lv_txt.h ****  **********************/
  71:..\..\..\arduinoLCD\test\Pain Drain\libraries\lvgl\src\misc/lv_txt.h **** 
  72:..\..\..\arduinoLCD\test\Pain Drain\libraries\lvgl\src\misc/lv_txt.h **** /**
  73:..\..\..\arduinoLCD\test\Pain Drain\libraries\lvgl\src\misc/lv_txt.h ****  * Get size of a text
  74:..\..\..\arduinoLCD\test\Pain Drain\libraries\lvgl\src\misc/lv_txt.h ****  * @param size_res pointer to a 'point_t' variable to store the result
  75:..\..\..\arduinoLCD\test\Pain Drain\libraries\lvgl\src\misc/lv_txt.h ****  * @param text pointer to a text
  76:..\..\..\arduinoLCD\test\Pain Drain\libraries\lvgl\src\misc/lv_txt.h ****  * @param font pointer to font of the text
  77:..\..\..\arduinoLCD\test\Pain Drain\libraries\lvgl\src\misc/lv_txt.h ****  * @param letter_space letter space of the text
  78:..\..\..\arduinoLCD\test\Pain Drain\libraries\lvgl\src\misc/lv_txt.h ****  * @param line_space line space of the text
  79:..\..\..\arduinoLCD\test\Pain Drain\libraries\lvgl\src\misc/lv_txt.h ****  * @param flags settings for the text from ::lv_text_flag_t
  80:..\..\..\arduinoLCD\test\Pain Drain\libraries\lvgl\src\misc/lv_txt.h ****  * @param max_width max width of the text (break the lines to fit this size). Set COORD_MAX to avoi
  81:..\..\..\arduinoLCD\test\Pain Drain\libraries\lvgl\src\misc/lv_txt.h ****  * line breaks
  82:..\..\..\arduinoLCD\test\Pain Drain\libraries\lvgl\src\misc/lv_txt.h ****  */
  83:..\..\..\arduinoLCD\test\Pain Drain\libraries\lvgl\src\misc/lv_txt.h **** void lv_txt_get_size(lv_point_t * size_res, const char * text, const lv_font_t * font, lv_coord_t l
  84:..\..\..\arduinoLCD\test\Pain Drain\libraries\lvgl\src\misc/lv_txt.h ****                      lv_coord_t line_space, lv_coord_t max_width, lv_text_flag_t flag);
  85:..\..\..\arduinoLCD\test\Pain Drain\libraries\lvgl\src\misc/lv_txt.h **** 
  86:..\..\..\arduinoLCD\test\Pain Drain\libraries\lvgl\src\misc/lv_txt.h **** /**
  87:..\..\..\arduinoLCD\test\Pain Drain\libraries\lvgl\src\misc/lv_txt.h ****  * Get the next line of text. Check line length and break chars too.
  88:..\..\..\arduinoLCD\test\Pain Drain\libraries\lvgl\src\misc/lv_txt.h ****  * @param txt a '\0' terminated string
  89:..\..\..\arduinoLCD\test\Pain Drain\libraries\lvgl\src\misc/lv_txt.h ****  * @param font pointer to a font
  90:..\..\..\arduinoLCD\test\Pain Drain\libraries\lvgl\src\misc/lv_txt.h ****  * @param letter_space letter space
  91:..\..\..\arduinoLCD\test\Pain Drain\libraries\lvgl\src\misc/lv_txt.h ****  * @param max_width max width of the text (break the lines to fit this size). Set COORD_MAX to avoi
  92:..\..\..\arduinoLCD\test\Pain Drain\libraries\lvgl\src\misc/lv_txt.h ****  * line breaks
  93:..\..\..\arduinoLCD\test\Pain Drain\libraries\lvgl\src\misc/lv_txt.h ****  * @param used_width When used_width != NULL, save the width of this line if
  94:..\..\..\arduinoLCD\test\Pain Drain\libraries\lvgl\src\misc/lv_txt.h ****  * flag == LV_TEXT_FLAG_NONE, otherwise save -1.
  95:..\..\..\arduinoLCD\test\Pain Drain\libraries\lvgl\src\misc/lv_txt.h ****  * @param flags settings for the text from 'txt_flag_type' enum
  96:..\..\..\arduinoLCD\test\Pain Drain\libraries\lvgl\src\misc/lv_txt.h ****  * @return the index of the first char of the new line (in byte index not letter index. With UTF-8
  97:..\..\..\arduinoLCD\test\Pain Drain\libraries\lvgl\src\misc/lv_txt.h ****  * they are different)
  98:..\..\..\arduinoLCD\test\Pain Drain\libraries\lvgl\src\misc/lv_txt.h ****  */
  99:..\..\..\arduinoLCD\test\Pain Drain\libraries\lvgl\src\misc/lv_txt.h **** uint32_t _lv_txt_get_next_line(const char * txt, const lv_font_t * font, lv_coord_t letter_space,
 100:..\..\..\arduinoLCD\test\Pain Drain\libraries\lvgl\src\misc/lv_txt.h ****                                lv_coord_t max_width, lv_coord_t * used_width, lv_text_flag_t flag);
 101:..\..\..\arduinoLCD\test\Pain Drain\libraries\lvgl\src\misc/lv_txt.h **** 
 102:..\..\..\arduinoLCD\test\Pain Drain\libraries\lvgl\src\misc/lv_txt.h **** /**
 103:..\..\..\arduinoLCD\test\Pain Drain\libraries\lvgl\src\misc/lv_txt.h ****  * Give the length of a text with a given font
 104:..\..\..\arduinoLCD\test\Pain Drain\libraries\lvgl\src\misc/lv_txt.h ****  * @param txt a '\0' terminate string
 105:..\..\..\arduinoLCD\test\Pain Drain\libraries\lvgl\src\misc/lv_txt.h ****  * @param length length of 'txt' in byte count and not characters ( is 1 character but 2 bytes in
 106:..\..\..\arduinoLCD\test\Pain Drain\libraries\lvgl\src\misc/lv_txt.h ****  * UTF-8)
 107:..\..\..\arduinoLCD\test\Pain Drain\libraries\lvgl\src\misc/lv_txt.h ****  * @param font pointer to a font
 108:..\..\..\arduinoLCD\test\Pain Drain\libraries\lvgl\src\misc/lv_txt.h ****  * @param letter_space letter space
 109:..\..\..\arduinoLCD\test\Pain Drain\libraries\lvgl\src\misc/lv_txt.h ****  * @param flags settings for the text from 'txt_flag_t' enum
 110:..\..\..\arduinoLCD\test\Pain Drain\libraries\lvgl\src\misc/lv_txt.h ****  * @return length of a char_num long text
 111:..\..\..\arduinoLCD\test\Pain Drain\libraries\lvgl\src\misc/lv_txt.h ****  */
 112:..\..\..\arduinoLCD\test\Pain Drain\libraries\lvgl\src\misc/lv_txt.h **** lv_coord_t lv_txt_get_width(const char * txt, uint32_t length, const lv_font_t * font, lv_coord_t l
ARM GAS  C:\Users\haske\AppData\Local\Temp\ccg6iOQH.s 			page 41


 113:..\..\..\arduinoLCD\test\Pain Drain\libraries\lvgl\src\misc/lv_txt.h ****                             lv_text_flag_t flag);
 114:..\..\..\arduinoLCD\test\Pain Drain\libraries\lvgl\src\misc/lv_txt.h **** 
 115:..\..\..\arduinoLCD\test\Pain Drain\libraries\lvgl\src\misc/lv_txt.h **** /**
 116:..\..\..\arduinoLCD\test\Pain Drain\libraries\lvgl\src\misc/lv_txt.h ****  * Check next character in a string and decide if the character is part of the command or not
 117:..\..\..\arduinoLCD\test\Pain Drain\libraries\lvgl\src\misc/lv_txt.h ****  * @param state pointer to a txt_cmd_state_t variable which stores the current state of command
 118:..\..\..\arduinoLCD\test\Pain Drain\libraries\lvgl\src\misc/lv_txt.h ****  * processing
 119:..\..\..\arduinoLCD\test\Pain Drain\libraries\lvgl\src\misc/lv_txt.h ****  * @param c the current character
 120:..\..\..\arduinoLCD\test\Pain Drain\libraries\lvgl\src\misc/lv_txt.h ****  * @return true: the character is part of a command and should not be written,
 121:..\..\..\arduinoLCD\test\Pain Drain\libraries\lvgl\src\misc/lv_txt.h ****  *         false: the character should be written
 122:..\..\..\arduinoLCD\test\Pain Drain\libraries\lvgl\src\misc/lv_txt.h ****  */
 123:..\..\..\arduinoLCD\test\Pain Drain\libraries\lvgl\src\misc/lv_txt.h **** bool _lv_txt_is_cmd(lv_text_cmd_state_t * state, uint32_t c);
 124:..\..\..\arduinoLCD\test\Pain Drain\libraries\lvgl\src\misc/lv_txt.h **** 
 125:..\..\..\arduinoLCD\test\Pain Drain\libraries\lvgl\src\misc/lv_txt.h **** /**
 126:..\..\..\arduinoLCD\test\Pain Drain\libraries\lvgl\src\misc/lv_txt.h ****  * Insert a string into an other
 127:..\..\..\arduinoLCD\test\Pain Drain\libraries\lvgl\src\misc/lv_txt.h ****  * @param txt_buf the original text (must be big enough for the result text and NULL terminated)
 128:..\..\..\arduinoLCD\test\Pain Drain\libraries\lvgl\src\misc/lv_txt.h ****  * @param pos position to insert (0: before the original text, 1: after the first char etc.)
 129:..\..\..\arduinoLCD\test\Pain Drain\libraries\lvgl\src\misc/lv_txt.h ****  * @param ins_txt text to insert, must be '\0' terminated
 130:..\..\..\arduinoLCD\test\Pain Drain\libraries\lvgl\src\misc/lv_txt.h ****  */
 131:..\..\..\arduinoLCD\test\Pain Drain\libraries\lvgl\src\misc/lv_txt.h **** void _lv_txt_ins(char * txt_buf, uint32_t pos, const char * ins_txt);
 132:..\..\..\arduinoLCD\test\Pain Drain\libraries\lvgl\src\misc/lv_txt.h **** 
 133:..\..\..\arduinoLCD\test\Pain Drain\libraries\lvgl\src\misc/lv_txt.h **** /**
 134:..\..\..\arduinoLCD\test\Pain Drain\libraries\lvgl\src\misc/lv_txt.h ****  * Delete a part of a string
 135:..\..\..\arduinoLCD\test\Pain Drain\libraries\lvgl\src\misc/lv_txt.h ****  * @param txt string to modify, must be '\0' terminated and should point to a heap or stack frame, 
 136:..\..\..\arduinoLCD\test\Pain Drain\libraries\lvgl\src\misc/lv_txt.h ****  * @param pos position where to start the deleting (0: before the first char, 1: after the first
 137:..\..\..\arduinoLCD\test\Pain Drain\libraries\lvgl\src\misc/lv_txt.h ****  * char etc.)
 138:..\..\..\arduinoLCD\test\Pain Drain\libraries\lvgl\src\misc/lv_txt.h ****  * @param len number of characters to delete
 139:..\..\..\arduinoLCD\test\Pain Drain\libraries\lvgl\src\misc/lv_txt.h ****  */
 140:..\..\..\arduinoLCD\test\Pain Drain\libraries\lvgl\src\misc/lv_txt.h **** void _lv_txt_cut(char * txt, uint32_t pos, uint32_t len);
 141:..\..\..\arduinoLCD\test\Pain Drain\libraries\lvgl\src\misc/lv_txt.h **** 
 142:..\..\..\arduinoLCD\test\Pain Drain\libraries\lvgl\src\misc/lv_txt.h **** /**
 143:..\..\..\arduinoLCD\test\Pain Drain\libraries\lvgl\src\misc/lv_txt.h ****  * return a new formatted text. Memory will be allocated to store the text.
 144:..\..\..\arduinoLCD\test\Pain Drain\libraries\lvgl\src\misc/lv_txt.h ****  * @param fmt `printf`-like format
 145:..\..\..\arduinoLCD\test\Pain Drain\libraries\lvgl\src\misc/lv_txt.h ****  * @return pointer to the allocated text string.
 146:..\..\..\arduinoLCD\test\Pain Drain\libraries\lvgl\src\misc/lv_txt.h ****  */
 147:..\..\..\arduinoLCD\test\Pain Drain\libraries\lvgl\src\misc/lv_txt.h **** char * _lv_txt_set_text_vfmt(const char * fmt, va_list ap) LV_FORMAT_ATTRIBUTE(1, 0);
 148:..\..\..\arduinoLCD\test\Pain Drain\libraries\lvgl\src\misc/lv_txt.h **** 
 149:..\..\..\arduinoLCD\test\Pain Drain\libraries\lvgl\src\misc/lv_txt.h **** /**
 150:..\..\..\arduinoLCD\test\Pain Drain\libraries\lvgl\src\misc/lv_txt.h ****  * Decode two encoded character from a string.
 151:..\..\..\arduinoLCD\test\Pain Drain\libraries\lvgl\src\misc/lv_txt.h ****  * @param txt pointer to '\0' terminated string
 152:..\..\..\arduinoLCD\test\Pain Drain\libraries\lvgl\src\misc/lv_txt.h ****  * @param letter the first decoded Unicode character or 0 on invalid data code
 153:..\..\..\arduinoLCD\test\Pain Drain\libraries\lvgl\src\misc/lv_txt.h ****  * @param letter_next the second decoded Unicode character or 0 on invalid data code
 154:..\..\..\arduinoLCD\test\Pain Drain\libraries\lvgl\src\misc/lv_txt.h ****  * @param ofs start index in 'txt' where to start.
 155:..\..\..\arduinoLCD\test\Pain Drain\libraries\lvgl\src\misc/lv_txt.h ****  *                After the call it will point to the next encoded char in 'txt'.
 156:..\..\..\arduinoLCD\test\Pain Drain\libraries\lvgl\src\misc/lv_txt.h ****  *                NULL to use txt[0] as index
 157:..\..\..\arduinoLCD\test\Pain Drain\libraries\lvgl\src\misc/lv_txt.h ****  */
 158:..\..\..\arduinoLCD\test\Pain Drain\libraries\lvgl\src\misc/lv_txt.h **** void _lv_txt_encoded_letter_next_2(const char * txt, uint32_t * letter, uint32_t * letter_next, uin
 159:..\..\..\arduinoLCD\test\Pain Drain\libraries\lvgl\src\misc/lv_txt.h **** 
 160:..\..\..\arduinoLCD\test\Pain Drain\libraries\lvgl\src\misc/lv_txt.h **** /**
 161:..\..\..\arduinoLCD\test\Pain Drain\libraries\lvgl\src\misc/lv_txt.h ****  * Test if char is break char or not (a text can broken here or not)
 162:..\..\..\arduinoLCD\test\Pain Drain\libraries\lvgl\src\misc/lv_txt.h ****  * @param letter a letter
 163:..\..\..\arduinoLCD\test\Pain Drain\libraries\lvgl\src\misc/lv_txt.h ****  * @return false: 'letter' is not break char
 164:..\..\..\arduinoLCD\test\Pain Drain\libraries\lvgl\src\misc/lv_txt.h ****  */
 165:..\..\..\arduinoLCD\test\Pain Drain\libraries\lvgl\src\misc/lv_txt.h **** static inline bool _lv_txt_is_break_char(uint32_t letter)
 166:..\..\..\arduinoLCD\test\Pain Drain\libraries\lvgl\src\misc/lv_txt.h **** {
 167:..\..\..\arduinoLCD\test\Pain Drain\libraries\lvgl\src\misc/lv_txt.h ****     uint8_t i;
 168:..\..\..\arduinoLCD\test\Pain Drain\libraries\lvgl\src\misc/lv_txt.h ****     bool ret = false;
 169:..\..\..\arduinoLCD\test\Pain Drain\libraries\lvgl\src\misc/lv_txt.h **** 
ARM GAS  C:\Users\haske\AppData\Local\Temp\ccg6iOQH.s 			page 42


 170:..\..\..\arduinoLCD\test\Pain Drain\libraries\lvgl\src\misc/lv_txt.h ****     /* each chinese character can be break */
 171:..\..\..\arduinoLCD\test\Pain Drain\libraries\lvgl\src\misc/lv_txt.h ****     if(letter >= 0x4E00 && letter <= 0x9FA5) {
 1146              		.loc 3 171 0 is_stmt 1
 1147 00cc 304A     		ldr	r2, .L100+8
 1148 00ce 314B     		ldr	r3, .L100+12
 1149 00d0 E318     		adds	r3, r4, r3
 1150 00d2 9342     		cmp	r3, r2
 1151 00d4 0BD9     		bls	.L94
 1152 00d6 0023     		movs	r3, #0
 1153 00d8 03E0     		b	.L81
 1154              	.LVL146:
 1155              	.L82:
 172:..\..\..\arduinoLCD\test\Pain Drain\libraries\lvgl\src\misc/lv_txt.h ****         return true;
 173:..\..\..\arduinoLCD\test\Pain Drain\libraries\lvgl\src\misc/lv_txt.h ****     }
 174:..\..\..\arduinoLCD\test\Pain Drain\libraries\lvgl\src\misc/lv_txt.h **** 
 175:..\..\..\arduinoLCD\test\Pain Drain\libraries\lvgl\src\misc/lv_txt.h ****     /*Compare the letter to TXT_BREAK_CHARS*/
 176:..\..\..\arduinoLCD\test\Pain Drain\libraries\lvgl\src\misc/lv_txt.h ****     for(i = 0; LV_TXT_BREAK_CHARS[i] != '\0'; i++) {
 177:..\..\..\arduinoLCD\test\Pain Drain\libraries\lvgl\src\misc/lv_txt.h ****         if(letter == (uint32_t)LV_TXT_BREAK_CHARS[i]) {
 1156              		.loc 3 177 0
 1157 00da 9442     		cmp	r4, r2
 1158 00dc 09D0     		beq	.L95
 176:..\..\..\arduinoLCD\test\Pain Drain\libraries\lvgl\src\misc/lv_txt.h ****         if(letter == (uint32_t)LV_TXT_BREAK_CHARS[i]) {
 1159              		.loc 3 176 0
 1160 00de 0133     		adds	r3, r3, #1
 1161              	.LVL147:
 1162 00e0 DBB2     		uxtb	r3, r3
 1163              	.LVL148:
 1164              	.L81:
 1165 00e2 2D4A     		ldr	r2, .L100+16
 1166 00e4 D25C     		ldrb	r2, [r2, r3]
 1167 00e6 002A     		cmp	r2, #0
 1168 00e8 F7D1     		bne	.L82
 168:..\..\..\arduinoLCD\test\Pain Drain\libraries\lvgl\src\misc/lv_txt.h **** 
 1169              		.loc 3 168 0
 1170 00ea 0023     		movs	r3, #0
 1171              	.LVL149:
 1172 00ec 02E0     		b	.L80
 1173              	.L94:
 172:..\..\..\arduinoLCD\test\Pain Drain\libraries\lvgl\src\misc/lv_txt.h ****         return true;
 1174              		.loc 3 172 0
 1175 00ee 0123     		movs	r3, #1
 1176 00f0 00E0     		b	.L80
 1177              	.LVL150:
 1178              	.L95:
 178:..\..\..\arduinoLCD\test\Pain Drain\libraries\lvgl\src\misc/lv_txt.h ****             ret = true; /*If match then it is break char*/
 1179              		.loc 3 178 0
 1180 00f2 0123     		movs	r3, #1
 1181              	.LVL151:
 1182              	.L80:
 1183              	.LBE20:
 1184              	.LBE19:
 222:..\..\..\arduinoLCD\test\Pain Drain\libraries\lvgl\src\misc/lv_txt.c ****             /*Update the output width on the first character if it fits.
 1185              		.loc 1 222 0
 1186 00f4 002B     		cmp	r3, #0
 1187 00f6 09D0     		beq	.L83
 1188              	.LVL152:
 1189              	.L79:
ARM GAS  C:\Users\haske\AppData\Local\Temp\ccg6iOQH.s 			page 43


 225:..\..\..\arduinoLCD\test\Pain Drain\libraries\lvgl\src\misc/lv_txt.c ****             word_len--;
 1190              		.loc 1 225 0
 1191 00f8 002F     		cmp	r7, #0
 1192 00fa 18D1     		bne	.L84
 225:..\..\..\arduinoLCD\test\Pain Drain\libraries\lvgl\src\misc/lv_txt.c ****             word_len--;
 1193              		.loc 1 225 0 is_stmt 0 discriminator 1
 1194 00fc 5346     		mov	r3, r10
 1195 00fe 0133     		adds	r3, r3, #1
 1196 0100 15D1     		bne	.L84
 225:..\..\..\arduinoLCD\test\Pain Drain\libraries\lvgl\src\misc/lv_txt.c ****             word_len--;
 1197              		.loc 1 225 0 discriminator 2
 1198 0102 4B46     		mov	r3, r9
 1199 0104 002B     		cmp	r3, #0
 1200 0106 12D0     		beq	.L84
 225:..\..\..\arduinoLCD\test\Pain Drain\libraries\lvgl\src\misc/lv_txt.c ****             word_len--;
 1201              		.loc 1 225 0 discriminator 3
 1202 0108 1D60     		str	r5, [r3]
 1203 010a 10E0     		b	.L84
 1204              	.LVL153:
 1205              	.L83:
 231:..\..\..\arduinoLCD\test\Pain Drain\libraries\lvgl\src\misc/lv_txt.c **** 
 1206              		.loc 1 231 0 is_stmt 1
 1207 010c 4B46     		mov	r3, r9
 1208 010e 002B     		cmp	r3, #0
 1209 0110 04D0     		beq	.L85
 231:..\..\..\arduinoLCD\test\Pain Drain\libraries\lvgl\src\misc/lv_txt.c **** 
 1210              		.loc 1 231 0 is_stmt 0 discriminator 1
 1211 0112 5346     		mov	r3, r10
 1212 0114 0133     		adds	r3, r3, #1
 1213 0116 01D1     		bne	.L85
 231:..\..\..\arduinoLCD\test\Pain Drain\libraries\lvgl\src\misc/lv_txt.c **** 
 1214              		.loc 1 231 0 discriminator 2
 1215 0118 4B46     		mov	r3, r9
 1216 011a 1D60     		str	r5, [r3]
 1217              	.L85:
 233:..\..\..\arduinoLCD\test\Pain Drain\libraries\lvgl\src\misc/lv_txt.c ****         i_next = i_next_next;
 1218              		.loc 1 233 0 is_stmt 1
 1219 011c 079F     		ldr	r7, [sp, #28]
 1220              	.LVL154:
 234:..\..\..\arduinoLCD\test\Pain Drain\libraries\lvgl\src\misc/lv_txt.c ****         letter = letter_next;
 1221              		.loc 1 234 0
 1222 011e 069B     		ldr	r3, [sp, #24]
 1223 0120 0793     		str	r3, [sp, #28]
 1224              	.LVL155:
 1225              	.L76:
 1226              	.LBB22:
 1227              	.LBB21:
 168:..\..\..\arduinoLCD\test\Pain Drain\libraries\lvgl\src\misc/lv_txt.h **** 
 1228              		.loc 3 168 0
 1229 0122 029B     		ldr	r3, [sp, #8]
 1230 0124 0193     		str	r3, [sp, #4]
 1231 0126 009C     		ldr	r4, [sp]
 1232              	.LVL156:
 1233              	.L74:
 1234              	.LBE21:
 1235              	.LBE22:
 193:..\..\..\arduinoLCD\test\Pain Drain\libraries\lvgl\src\misc/lv_txt.c ****         letter_next = _lv_txt_encoded_next(txt, &i_next_next);
ARM GAS  C:\Users\haske\AppData\Local\Temp\ccg6iOQH.s 			page 44


 1236              		.loc 1 193 0
 1237 0128 F35D     		ldrb	r3, [r6, r7]
 1238 012a 002B     		cmp	r3, #0
 1239 012c 9ED1     		bne	.L86
 1240              	.LVL157:
 1241              	.L84:
 239:..\..\..\arduinoLCD\test\Pain Drain\libraries\lvgl\src\misc/lv_txt.c ****         if(word_len == 0 || (letter == '\r' && letter_next == '\n')) i = i_next;
 1242              		.loc 1 239 0
 1243 012e 5346     		mov	r3, r10
 1244 0130 0133     		adds	r3, r3, #1
 1245 0132 09D1     		bne	.L87
 240:..\..\..\arduinoLCD\test\Pain Drain\libraries\lvgl\src\misc/lv_txt.c ****         return i;
 1246              		.loc 1 240 0
 1247 0134 019B     		ldr	r3, [sp, #4]
 1248 0136 002B     		cmp	r3, #0
 1249 0138 04D0     		beq	.L88
 240:..\..\..\arduinoLCD\test\Pain Drain\libraries\lvgl\src\misc/lv_txt.c ****         return i;
 1250              		.loc 1 240 0 is_stmt 0 discriminator 2
 1251 013a 0D2C     		cmp	r4, #13
 1252 013c 15D1     		bne	.L96
 240:..\..\..\arduinoLCD\test\Pain Drain\libraries\lvgl\src\misc/lv_txt.c ****         return i;
 1253              		.loc 1 240 0 discriminator 3
 1254 013e 009B     		ldr	r3, [sp]
 1255 0140 0A2B     		cmp	r3, #10
 1256 0142 14D1     		bne	.L97
 1257              	.L88:
 240:..\..\..\arduinoLCD\test\Pain Drain\libraries\lvgl\src\misc/lv_txt.c ****         return i;
 1258              		.loc 1 240 0 discriminator 4
 1259 0144 0798     		ldr	r0, [sp, #28]
 1260              	.LVL158:
 1261 0146 17E0     		b	.L72
 1262              	.LVL159:
 1263              	.L87:
 272:..\..\..\arduinoLCD\test\Pain Drain\libraries\lvgl\src\misc/lv_txt.c ****     if(word_w_ptr != NULL) *word_w_ptr = 0; /*Return no word*/
 1264              		.loc 1 272 0 is_stmt 1
 1265 0148 059B     		ldr	r3, [sp, #20]
 1266 014a 002B     		cmp	r3, #0
 1267 014c 11D1     		bne	.L98
 273:..\..\..\arduinoLCD\test\Pain Drain\libraries\lvgl\src\misc/lv_txt.c ****     (void) break_letter_count;
 1268              		.loc 1 273 0
 1269 014e 4B46     		mov	r3, r9
 1270 0150 002B     		cmp	r3, #0
 1271 0152 10D0     		beq	.L99
 273:..\..\..\arduinoLCD\test\Pain Drain\libraries\lvgl\src\misc/lv_txt.c ****     (void) break_letter_count;
 1272              		.loc 1 273 0 is_stmt 0 discriminator 1
 1273 0154 0023     		movs	r3, #0
 1274 0156 4A46     		mov	r2, r9
 1275 0158 1360     		str	r3, [r2]
 275:..\..\..\arduinoLCD\test\Pain Drain\libraries\lvgl\src\misc/lv_txt.c **** #endif
 1276              		.loc 1 275 0 is_stmt 1 discriminator 1
 1277 015a 0020     		movs	r0, #0
 1278 015c 0CE0     		b	.L72
 1279              	.LVL160:
 1280              	.L89:
 175:..\..\..\arduinoLCD\test\Pain Drain\libraries\lvgl\src\misc/lv_txt.c ****     if(font == NULL) return 0;
 1281              		.loc 1 175 0
 1282 015e 0020     		movs	r0, #0
ARM GAS  C:\Users\haske\AppData\Local\Temp\ccg6iOQH.s 			page 45


 1283              	.LVL161:
 1284 0160 0AE0     		b	.L72
 1285              	.LVL162:
 1286              	.L90:
 1287 0162 0020     		movs	r0, #0
 1288              	.LVL163:
 1289 0164 08E0     		b	.L72
 1290              	.LVL164:
 1291              	.L91:
 176:..\..\..\arduinoLCD\test\Pain Drain\libraries\lvgl\src\misc/lv_txt.c **** 
 1292              		.loc 1 176 0
 1293 0166 0020     		movs	r0, #0
 1294              	.LVL165:
 1295 0168 06E0     		b	.L72
 1296              	.LVL166:
 1297              	.L96:
 1298 016a 3800     		movs	r0, r7
 1299 016c 04E0     		b	.L72
 1300              	.LVL167:
 1301              	.L97:
 1302 016e 3800     		movs	r0, r7
 1303 0170 02E0     		b	.L72
 1304              	.LVL168:
 1305              	.L98:
 272:..\..\..\arduinoLCD\test\Pain Drain\libraries\lvgl\src\misc/lv_txt.c ****     if(word_w_ptr != NULL) *word_w_ptr = 0; /*Return no word*/
 1306              		.loc 1 272 0
 1307 0172 5046     		mov	r0, r10
 1308 0174 00E0     		b	.L72
 1309              	.L99:
 275:..\..\..\arduinoLCD\test\Pain Drain\libraries\lvgl\src\misc/lv_txt.c **** #endif
 1310              		.loc 1 275 0
 1311 0176 0020     		movs	r0, #0
 1312              	.LVL169:
 1313              	.L72:
 277:..\..\..\arduinoLCD\test\Pain Drain\libraries\lvgl\src\misc/lv_txt.c **** 
 1314              		.loc 1 277 0
 1315 0178 09B0     		add	sp, sp, #36
 1316              		@ sp needed
 1317              	.LVL170:
 1318 017a 3CBC     		pop	{r2, r3, r4, r5}
 1319 017c 9046     		mov	r8, r2
 1320 017e 9946     		mov	r9, r3
 1321 0180 A246     		mov	r10, r4
 1322 0182 AB46     		mov	fp, r5
 1323 0184 F0BD     		pop	{r4, r5, r6, r7, pc}
 1324              	.L101:
 1325 0186 C046     		.align	2
 1326              	.L100:
 1327 0188 FF1F0000 		.word	8191
 1328 018c 00000000 		.word	.LANCHOR0
 1329 0190 A5510000 		.word	20901
 1330 0194 00B2FFFF 		.word	-19968
 1331 0198 00000000 		.word	.LC5
 1332              		.cfi_endproc
 1333              	.LFE56:
 1334              		.size	lv_txt_get_next_word, .-lv_txt_get_next_word
 1335              		.section	.text._lv_txt_get_next_line,"ax",%progbits
ARM GAS  C:\Users\haske\AppData\Local\Temp\ccg6iOQH.s 			page 46


 1336              		.align	2
 1337              		.global	_lv_txt_get_next_line
 1338              		.code	16
 1339              		.thumb_func
 1340              		.type	_lv_txt_get_next_line, %function
 1341              	_lv_txt_get_next_line:
 1342              	.LFB57:
 282:..\..\..\arduinoLCD\test\Pain Drain\libraries\lvgl\src\misc/lv_txt.c ****     if(used_width) *used_width = 0;
 1343              		.loc 1 282 0
 1344              		.cfi_startproc
 1345              		@ args = 8, pretend = 0, frame = 24
 1346              		@ frame_needed = 0, uses_anonymous_args = 0
 1347              	.LVL171:
 1348 0000 F0B5     		push	{r4, r5, r6, r7, lr}
 1349              		.cfi_def_cfa_offset 20
 1350              		.cfi_offset 4, -20
 1351              		.cfi_offset 5, -16
 1352              		.cfi_offset 6, -12
 1353              		.cfi_offset 7, -8
 1354              		.cfi_offset 14, -4
 1355 0002 4F46     		mov	r7, r9
 1356 0004 80B4     		push	{r7}
 1357              		.cfi_def_cfa_offset 24
 1358              		.cfi_offset 9, -24
 1359 0006 8AB0     		sub	sp, sp, #40
 1360              		.cfi_def_cfa_offset 64
 1361 0008 0700     		movs	r7, r0
 1362 000a 0491     		str	r1, [sp, #16]
 1363 000c 0592     		str	r2, [sp, #20]
 1364 000e 1E00     		movs	r6, r3
 1365 0010 10AB     		add	r3, sp, #64
 1366              	.LVL172:
 1367 0012 20CB     		ldmia	r3!, {r5}
 1368              	.LVL173:
 1369 0014 1B78     		ldrb	r3, [r3]
 1370              	.LVL174:
 1371 0016 9946     		mov	r9, r3
 283:..\..\..\arduinoLCD\test\Pain Drain\libraries\lvgl\src\misc/lv_txt.c **** 
 1372              		.loc 1 283 0
 1373 0018 002D     		cmp	r5, #0
 1374 001a 01D0     		beq	.L103
 283:..\..\..\arduinoLCD\test\Pain Drain\libraries\lvgl\src\misc/lv_txt.c **** 
 1375              		.loc 1 283 0 is_stmt 0 discriminator 1
 1376 001c 0023     		movs	r3, #0
 1377 001e 2B80     		strh	r3, [r5]
 1378              	.L103:
 285:..\..\..\arduinoLCD\test\Pain Drain\libraries\lvgl\src\misc/lv_txt.c ****     if(txt[0] == '\0') return 0;
 1379              		.loc 1 285 0 is_stmt 1
 1380 0020 002F     		cmp	r7, #0
 1381 0022 72D0     		beq	.L119
 286:..\..\..\arduinoLCD\test\Pain Drain\libraries\lvgl\src\misc/lv_txt.c ****     if(font == NULL) return 0;
 1382              		.loc 1 286 0
 1383 0024 3B78     		ldrb	r3, [r7]
 1384 0026 002B     		cmp	r3, #0
 1385 0028 71D0     		beq	.L120
 287:..\..\..\arduinoLCD\test\Pain Drain\libraries\lvgl\src\misc/lv_txt.c **** 
 1386              		.loc 1 287 0
ARM GAS  C:\Users\haske\AppData\Local\Temp\ccg6iOQH.s 			page 47


 1387 002a 049B     		ldr	r3, [sp, #16]
 1388 002c 002B     		cmp	r3, #0
 1389 002e 70D0     		beq	.L121
 1390              	.LVL175:
 293:..\..\..\arduinoLCD\test\Pain Drain\libraries\lvgl\src\misc/lv_txt.c ****         uint32_t i;
 1391              		.loc 1 293 0
 1392 0030 0623     		movs	r3, #6
 1393 0032 4A46     		mov	r2, r9
 1394              	.LVL176:
 1395 0034 1342     		tst	r3, r2
 1396 0036 02D1     		bne	.L122
 1397 0038 12E0     		b	.L125
 1398              	.LVL177:
 1399              	.L108:
 1400              	.LBB23:
 295:..\..\..\arduinoLCD\test\Pain Drain\libraries\lvgl\src\misc/lv_txt.c ****             /*Just find the new line chars or string ends by incrementing `i`*/
 1401              		.loc 1 295 0 discriminator 5
 1402 003a 0130     		adds	r0, r0, #1
 1403              	.LVL178:
 1404 003c 00E0     		b	.L105
 1405              	.LVL179:
 1406              	.L122:
 1407              	.LBE23:
 1408 003e 0020     		movs	r0, #0
 1409              	.LVL180:
 1410              	.L105:
 1411              	.LBB24:
 295:..\..\..\arduinoLCD\test\Pain Drain\libraries\lvgl\src\misc/lv_txt.c ****             /*Just find the new line chars or string ends by incrementing `i`*/
 1412              		.loc 1 295 0 is_stmt 0 discriminator 1
 1413 0040 3B5C     		ldrb	r3, [r7, r0]
 1414 0042 0A2B     		cmp	r3, #10
 1415 0044 03D0     		beq	.L107
 295:..\..\..\arduinoLCD\test\Pain Drain\libraries\lvgl\src\misc/lv_txt.c ****             /*Just find the new line chars or string ends by incrementing `i`*/
 1416              		.loc 1 295 0 discriminator 3
 1417 0046 0D2B     		cmp	r3, #13
 1418 0048 01D0     		beq	.L107
 295:..\..\..\arduinoLCD\test\Pain Drain\libraries\lvgl\src\misc/lv_txt.c ****             /*Just find the new line chars or string ends by incrementing `i`*/
 1419              		.loc 1 295 0 discriminator 4
 1420 004a 002B     		cmp	r3, #0
 1421 004c F5D1     		bne	.L108
 1422              	.L107:
 298:..\..\..\arduinoLCD\test\Pain Drain\libraries\lvgl\src\misc/lv_txt.c ****         if(used_width) *used_width = -1;
 1423              		.loc 1 298 0 is_stmt 1
 1424 004e 002B     		cmp	r3, #0
 1425 0050 00D0     		beq	.L109
 298:..\..\..\arduinoLCD\test\Pain Drain\libraries\lvgl\src\misc/lv_txt.c ****         if(used_width) *used_width = -1;
 1426              		.loc 1 298 0 is_stmt 0 discriminator 1
 1427 0052 0130     		adds	r0, r0, #1
 1428              	.LVL181:
 1429              	.L109:
 299:..\..\..\arduinoLCD\test\Pain Drain\libraries\lvgl\src\misc/lv_txt.c ****         return i;
 1430              		.loc 1 299 0 is_stmt 1
 1431 0054 002D     		cmp	r5, #0
 1432 0056 5DD0     		beq	.L104
 299:..\..\..\arduinoLCD\test\Pain Drain\libraries\lvgl\src\misc/lv_txt.c ****         return i;
 1433              		.loc 1 299 0 is_stmt 0 discriminator 1
 1434 0058 0123     		movs	r3, #1
ARM GAS  C:\Users\haske\AppData\Local\Temp\ccg6iOQH.s 			page 48


 1435 005a 5B42     		rsbs	r3, r3, #0
 1436 005c 2B80     		strh	r3, [r5]
 1437 005e 59E0     		b	.L104
 1438              	.LVL182:
 1439              	.L125:
 1440              	.LBE24:
 303:..\..\..\arduinoLCD\test\Pain Drain\libraries\lvgl\src\misc/lv_txt.c ****     lv_text_cmd_state_t cmd_state = LV_TEXT_CMD_STATE_WAIT;
 1441              		.loc 1 303 0 is_stmt 1
 1442 0060 4B46     		mov	r3, r9
 1443 0062 9B07     		lsls	r3, r3, #30
 1444 0064 00D5     		bpl	.L110
 1445 0066 2D4E     		ldr	r6, .L126
 1446              	.L110:
 1447              	.LVL183:
 304:..\..\..\arduinoLCD\test\Pain Drain\libraries\lvgl\src\misc/lv_txt.c ****     uint32_t i = 0;                                        /*Iterating index into txt*/
 1448              		.loc 1 304 0
 1449 0068 0023     		movs	r3, #0
 1450 006a 1F22     		movs	r2, #31
 1451 006c 02A9     		add	r1, sp, #8
 1452              	.LVL184:
 1453 006e 8C46     		mov	ip, r1
 1454 0070 6244     		add	r2, r2, ip
 1455 0072 1370     		strb	r3, [r2]
 305:..\..\..\arduinoLCD\test\Pain Drain\libraries\lvgl\src\misc/lv_txt.c **** 
 1456              		.loc 1 305 0
 1457 0074 0893     		str	r3, [sp, #32]
 289:..\..\..\arduinoLCD\test\Pain Drain\libraries\lvgl\src\misc/lv_txt.c **** 
 1458              		.loc 1 289 0
 1459 0076 0024     		movs	r4, #0
 307:..\..\..\arduinoLCD\test\Pain Drain\libraries\lvgl\src\misc/lv_txt.c ****         uint32_t word_w = 0;
 1460              		.loc 1 307 0
 1461 0078 2BE0     		b	.L111
 1462              	.LVL185:
 1463              	.L116:
 1464              	.LBB25:
 308:..\..\..\arduinoLCD\test\Pain Drain\libraries\lvgl\src\misc/lv_txt.c ****         uint32_t advance = lv_txt_get_next_word(&txt[i], font, letter_space, max_width, flag, &word
 1465              		.loc 1 308 0
 1466 007a 0022     		movs	r2, #0
 1467 007c 0792     		str	r2, [sp, #28]
 309:..\..\..\arduinoLCD\test\Pain Drain\libraries\lvgl\src\misc/lv_txt.c ****         max_width -= word_w;
 1468              		.loc 1 309 0
 1469 007e 5A42     		rsbs	r2, r3, #0
 1470 0080 5341     		adcs	r3, r3, r2
 1471 0082 0393     		str	r3, [sp, #12]
 1472 0084 1F23     		movs	r3, #31
 1473 0086 02AA     		add	r2, sp, #8
 1474 0088 9446     		mov	ip, r2
 1475 008a 6344     		add	r3, r3, ip
 1476 008c 0293     		str	r3, [sp, #8]
 1477 008e 07AB     		add	r3, sp, #28
 1478 0090 0193     		str	r3, [sp, #4]
 1479 0092 4B46     		mov	r3, r9
 1480 0094 0093     		str	r3, [sp]
 1481 0096 3300     		movs	r3, r6
 1482 0098 059A     		ldr	r2, [sp, #20]
 1483 009a 0499     		ldr	r1, [sp, #16]
 1484 009c FFF7FEFF 		bl	lv_txt_get_next_word
ARM GAS  C:\Users\haske\AppData\Local\Temp\ccg6iOQH.s 			page 49


 1485              	.LVL186:
 310:..\..\..\arduinoLCD\test\Pain Drain\libraries\lvgl\src\misc/lv_txt.c ****         line_w += word_w;
 1486              		.loc 1 310 0
 1487 00a0 079B     		ldr	r3, [sp, #28]
 1488 00a2 9AB2     		uxth	r2, r3
 1489 00a4 B61A     		subs	r6, r6, r2
 1490              	.LVL187:
 1491 00a6 36B2     		sxth	r6, r6
 1492              	.LVL188:
 311:..\..\..\arduinoLCD\test\Pain Drain\libraries\lvgl\src\misc/lv_txt.c **** 
 1493              		.loc 1 311 0
 1494 00a8 1219     		adds	r2, r2, r4
 1495 00aa 14B2     		sxth	r4, r2
 1496              	.LVL189:
 313:..\..\..\arduinoLCD\test\Pain Drain\libraries\lvgl\src\misc/lv_txt.c ****             break;
 1497              		.loc 1 313 0
 1498 00ac 0028     		cmp	r0, #0
 1499 00ae 17D0     		beq	.L115
 317:..\..\..\arduinoLCD\test\Pain Drain\libraries\lvgl\src\misc/lv_txt.c **** 
 1500              		.loc 1 317 0
 1501 00b0 089B     		ldr	r3, [sp, #32]
 1502 00b2 9C46     		mov	ip, r3
 1503 00b4 6044     		add	r0, r0, ip
 1504              	.LVL190:
 1505 00b6 0890     		str	r0, [sp, #32]
 319:..\..\..\arduinoLCD\test\Pain Drain\libraries\lvgl\src\misc/lv_txt.c **** 
 1506              		.loc 1 319 0
 1507 00b8 3B78     		ldrb	r3, [r7]
 1508 00ba 0A2B     		cmp	r3, #10
 1509 00bc 10D0     		beq	.L115
 319:..\..\..\arduinoLCD\test\Pain Drain\libraries\lvgl\src\misc/lv_txt.c **** 
 1510              		.loc 1 319 0 is_stmt 0 discriminator 1
 1511 00be 0D2B     		cmp	r3, #13
 1512 00c0 0ED0     		beq	.L115
 321:..\..\..\arduinoLCD\test\Pain Drain\libraries\lvgl\src\misc/lv_txt.c ****             i++;  /*Include the following newline in the current line*/
 1513              		.loc 1 321 0 is_stmt 1
 1514 00c2 3B5C     		ldrb	r3, [r7, r0]
 1515 00c4 0A2B     		cmp	r3, #10
 1516 00c6 01D0     		beq	.L113
 321:..\..\..\arduinoLCD\test\Pain Drain\libraries\lvgl\src\misc/lv_txt.c ****             i++;  /*Include the following newline in the current line*/
 1517              		.loc 1 321 0 is_stmt 0 discriminator 1
 1518 00c8 0D2B     		cmp	r3, #13
 1519 00ca 02D1     		bne	.L111
 1520              	.L113:
 322:..\..\..\arduinoLCD\test\Pain Drain\libraries\lvgl\src\misc/lv_txt.c ****             break;
 1521              		.loc 1 322 0 is_stmt 1
 1522 00cc 0130     		adds	r0, r0, #1
 1523 00ce 0890     		str	r0, [sp, #32]
 323:..\..\..\arduinoLCD\test\Pain Drain\libraries\lvgl\src\misc/lv_txt.c ****         }
 1524              		.loc 1 323 0
 1525 00d0 06E0     		b	.L115
 1526              	.LVL191:
 1527              	.L111:
 1528              	.LBE25:
 307:..\..\..\arduinoLCD\test\Pain Drain\libraries\lvgl\src\misc/lv_txt.c ****         uint32_t word_w = 0;
 1529              		.loc 1 307 0
 1530 00d2 089B     		ldr	r3, [sp, #32]
ARM GAS  C:\Users\haske\AppData\Local\Temp\ccg6iOQH.s 			page 50


 1531 00d4 F818     		adds	r0, r7, r3
 1532 00d6 0278     		ldrb	r2, [r0]
 1533 00d8 002A     		cmp	r2, #0
 1534 00da 01D0     		beq	.L115
 307:..\..\..\arduinoLCD\test\Pain Drain\libraries\lvgl\src\misc/lv_txt.c ****         uint32_t word_w = 0;
 1535              		.loc 1 307 0 is_stmt 0 discriminator 1
 1536 00dc 002E     		cmp	r6, #0
 1537 00de CCDC     		bgt	.L116
 1538              	.L115:
 329:..\..\..\arduinoLCD\test\Pain Drain\libraries\lvgl\src\misc/lv_txt.c ****         uint32_t letter = _lv_txt_encoded_next(txt, &i);
 1539              		.loc 1 329 0 is_stmt 1
 1540 00e0 089B     		ldr	r3, [sp, #32]
 1541 00e2 002B     		cmp	r3, #0
 1542 00e4 0CD1     		bne	.L117
 1543              	.LBB26:
 330:..\..\..\arduinoLCD\test\Pain Drain\libraries\lvgl\src\misc/lv_txt.c ****         if(used_width != NULL) {
 1544              		.loc 1 330 0
 1545 00e6 0E4B     		ldr	r3, .L126+4
 1546 00e8 5B68     		ldr	r3, [r3, #4]
 1547 00ea 08A9     		add	r1, sp, #32
 1548 00ec 3800     		movs	r0, r7
 1549 00ee 9847     		blx	r3
 1550              	.LVL192:
 331:..\..\..\arduinoLCD\test\Pain Drain\libraries\lvgl\src\misc/lv_txt.c ****             line_w = lv_font_get_glyph_width(font, letter, '\0');
 1551              		.loc 1 331 0
 1552 00f0 002D     		cmp	r5, #0
 1553 00f2 05D0     		beq	.L117
 332:..\..\..\arduinoLCD\test\Pain Drain\libraries\lvgl\src\misc/lv_txt.c ****         }
 1554              		.loc 1 332 0
 1555 00f4 0022     		movs	r2, #0
 1556 00f6 0100     		movs	r1, r0
 1557 00f8 0498     		ldr	r0, [sp, #16]
 1558              	.LVL193:
 1559 00fa FFF7FEFF 		bl	lv_font_get_glyph_width
 1560              	.LVL194:
 1561 00fe 04B2     		sxth	r4, r0
 1562              	.LVL195:
 1563              	.L117:
 1564              	.LBE26:
 336:..\..\..\arduinoLCD\test\Pain Drain\libraries\lvgl\src\misc/lv_txt.c ****         *used_width = line_w;
 1565              		.loc 1 336 0
 1566 0100 002D     		cmp	r5, #0
 1567 0102 00D0     		beq	.L118
 337:..\..\..\arduinoLCD\test\Pain Drain\libraries\lvgl\src\misc/lv_txt.c ****     }
 1568              		.loc 1 337 0
 1569 0104 2C80     		strh	r4, [r5]
 1570              	.L118:
 340:..\..\..\arduinoLCD\test\Pain Drain\libraries\lvgl\src\misc/lv_txt.c **** }
 1571              		.loc 1 340 0
 1572 0106 0898     		ldr	r0, [sp, #32]
 1573 0108 04E0     		b	.L104
 1574              	.LVL196:
 1575              	.L119:
 285:..\..\..\arduinoLCD\test\Pain Drain\libraries\lvgl\src\misc/lv_txt.c ****     if(txt[0] == '\0') return 0;
 1576              		.loc 1 285 0
 1577 010a 0020     		movs	r0, #0
 1578              	.LVL197:
ARM GAS  C:\Users\haske\AppData\Local\Temp\ccg6iOQH.s 			page 51


 1579 010c 02E0     		b	.L104
 1580              	.LVL198:
 1581              	.L120:
 286:..\..\..\arduinoLCD\test\Pain Drain\libraries\lvgl\src\misc/lv_txt.c ****     if(font == NULL) return 0;
 1582              		.loc 1 286 0
 1583 010e 0020     		movs	r0, #0
 1584              	.LVL199:
 1585 0110 00E0     		b	.L104
 1586              	.LVL200:
 1587              	.L121:
 287:..\..\..\arduinoLCD\test\Pain Drain\libraries\lvgl\src\misc/lv_txt.c **** 
 1588              		.loc 1 287 0
 1589 0112 0020     		movs	r0, #0
 1590              	.LVL201:
 1591              	.L104:
 341:..\..\..\arduinoLCD\test\Pain Drain\libraries\lvgl\src\misc/lv_txt.c **** 
 1592              		.loc 1 341 0
 1593 0114 0AB0     		add	sp, sp, #40
 1594              		@ sp needed
 1595              	.LVL202:
 1596 0116 04BC     		pop	{r2}
 1597 0118 9146     		mov	r9, r2
 1598 011a F0BD     		pop	{r4, r5, r6, r7, pc}
 1599              	.L127:
 1600              		.align	2
 1601              	.L126:
 1602 011c FF1F0000 		.word	8191
 1603 0120 00000000 		.word	.LANCHOR0
 1604              		.cfi_endproc
 1605              	.LFE57:
 1606              		.size	_lv_txt_get_next_line, .-_lv_txt_get_next_line
 1607              		.section	.text._lv_txt_ins,"ax",%progbits
 1608              		.align	2
 1609              		.global	_lv_txt_ins
 1610              		.code	16
 1611              		.thumb_func
 1612              		.type	_lv_txt_ins, %function
 1613              	_lv_txt_ins:
 1614              	.LFB60:
 414:..\..\..\arduinoLCD\test\Pain Drain\libraries\lvgl\src\misc/lv_txt.c ****     if(txt_buf == NULL || ins_txt == NULL) return;
 1615              		.loc 1 414 0
 1616              		.cfi_startproc
 1617              		@ args = 0, pretend = 0, frame = 8
 1618              		@ frame_needed = 0, uses_anonymous_args = 0
 1619              	.LVL203:
 1620 0000 F0B5     		push	{r4, r5, r6, r7, lr}
 1621              		.cfi_def_cfa_offset 20
 1622              		.cfi_offset 4, -20
 1623              		.cfi_offset 5, -16
 1624              		.cfi_offset 6, -12
 1625              		.cfi_offset 7, -8
 1626              		.cfi_offset 14, -4
 1627 0002 83B0     		sub	sp, sp, #12
 1628              		.cfi_def_cfa_offset 32
 1629 0004 0700     		movs	r7, r0
 1630 0006 0191     		str	r1, [sp, #4]
 1631 0008 1600     		movs	r6, r2
ARM GAS  C:\Users\haske\AppData\Local\Temp\ccg6iOQH.s 			page 52


 415:..\..\..\arduinoLCD\test\Pain Drain\libraries\lvgl\src\misc/lv_txt.c **** 
 1632              		.loc 1 415 0
 1633 000a 0028     		cmp	r0, #0
 1634 000c 20D0     		beq	.L128
 415:..\..\..\arduinoLCD\test\Pain Drain\libraries\lvgl\src\misc/lv_txt.c **** 
 1635              		.loc 1 415 0 is_stmt 0 discriminator 1
 1636 000e 002A     		cmp	r2, #0
 1637 0010 1ED0     		beq	.L128
 417:..\..\..\arduinoLCD\test\Pain Drain\libraries\lvgl\src\misc/lv_txt.c ****     size_t ins_len = strlen(ins_txt);
 1638              		.loc 1 417 0 is_stmt 1
 1639 0012 FFF7FEFF 		bl	strlen
 1640              	.LVL204:
 1641 0016 0400     		movs	r4, r0
 1642              	.LVL205:
 418:..\..\..\arduinoLCD\test\Pain Drain\libraries\lvgl\src\misc/lv_txt.c ****     if(ins_len == 0) return;
 1643              		.loc 1 418 0
 1644 0018 3000     		movs	r0, r6
 1645              	.LVL206:
 1646 001a FFF7FEFF 		bl	strlen
 1647              	.LVL207:
 1648 001e 051E     		subs	r5, r0, #0
 1649              	.LVL208:
 419:..\..\..\arduinoLCD\test\Pain Drain\libraries\lvgl\src\misc/lv_txt.c **** 
 1650              		.loc 1 419 0
 1651 0020 16D0     		beq	.L128
 421:..\..\..\arduinoLCD\test\Pain Drain\libraries\lvgl\src\misc/lv_txt.c ****     pos              = _lv_txt_encoded_get_byte_id(txt_buf, pos); /*Convert to byte index instead o
 1652              		.loc 1 421 0
 1653 0022 2418     		adds	r4, r4, r0
 1654              	.LVL209:
 422:..\..\..\arduinoLCD\test\Pain Drain\libraries\lvgl\src\misc/lv_txt.c **** 
 1655              		.loc 1 422 0
 1656 0024 0B4B     		ldr	r3, .L134
 1657 0026 9B68     		ldr	r3, [r3, #8]
 1658 0028 0199     		ldr	r1, [sp, #4]
 1659 002a 3800     		movs	r0, r7
 1660              	.LVL210:
 1661 002c 9847     		blx	r3
 1662              	.LVL211:
 426:..\..\..\arduinoLCD\test\Pain Drain\libraries\lvgl\src\misc/lv_txt.c ****         txt_buf[i] = txt_buf[i - ins_len];
 1663              		.loc 1 426 0
 1664 002e 03E0     		b	.L130
 1665              	.LVL212:
 1666              	.L131:
 427:..\..\..\arduinoLCD\test\Pain Drain\libraries\lvgl\src\misc/lv_txt.c ****     }
 1667              		.loc 1 427 0 discriminator 3
 1668 0030 631B     		subs	r3, r4, r5
 1669 0032 FB5C     		ldrb	r3, [r7, r3]
 1670 0034 3B55     		strb	r3, [r7, r4]
 426:..\..\..\arduinoLCD\test\Pain Drain\libraries\lvgl\src\misc/lv_txt.c ****         txt_buf[i] = txt_buf[i - ins_len];
 1671              		.loc 1 426 0 discriminator 3
 1672 0036 013C     		subs	r4, r4, #1
 1673              	.LVL213:
 1674              	.L130:
 426:..\..\..\arduinoLCD\test\Pain Drain\libraries\lvgl\src\misc/lv_txt.c ****         txt_buf[i] = txt_buf[i - ins_len];
 1675              		.loc 1 426 0 is_stmt 0 discriminator 1
 1676 0038 2B18     		adds	r3, r5, r0
 1677 003a 9C42     		cmp	r4, r3
ARM GAS  C:\Users\haske\AppData\Local\Temp\ccg6iOQH.s 			page 53


 1678 003c F8D2     		bcs	.L131
 431:..\..\..\arduinoLCD\test\Pain Drain\libraries\lvgl\src\misc/lv_txt.c **** }
 1679              		.loc 1 431 0 is_stmt 1
 1680 003e 3818     		adds	r0, r7, r0
 1681              	.LVL214:
 1682 0040 04E0     		b	.L132
 1683              	.LVL215:
 1684              	.L133:
 1685              	.LBB27:
 1686              	.LBB28:
 200:c:\projects\paindrain\arduinolcd\test\pain drain\libraries\lvgl\src\misc\lv_mem.h ****         d8++;
 1687              		.loc 2 200 0
 1688 0042 3378     		ldrb	r3, [r6]
 1689 0044 0370     		strb	r3, [r0]
 201:c:\projects\paindrain\arduinolcd\test\pain drain\libraries\lvgl\src\misc\lv_mem.h ****         s8++;
 1690              		.loc 2 201 0
 1691 0046 0130     		adds	r0, r0, #1
 1692              	.LVL216:
 202:c:\projects\paindrain\arduinolcd\test\pain drain\libraries\lvgl\src\misc\lv_mem.h ****         len--;
 1693              		.loc 2 202 0
 1694 0048 0136     		adds	r6, r6, #1
 1695              	.LVL217:
 1696              		.loc 2 203 0
 1697 004a 013D     		subs	r5, r5, #1
 1698              	.LVL218:
 1699              	.L132:
 199:c:\projects\paindrain\arduinolcd\test\pain drain\libraries\lvgl\src\misc\lv_mem.h ****         *d8 = *s8;
 1700              		.loc 2 199 0
 1701 004c 002D     		cmp	r5, #0
 1702 004e F8D1     		bne	.L133
 1703              	.LVL219:
 1704              	.L128:
 1705              	.LBE28:
 1706              	.LBE27:
 432:..\..\..\arduinoLCD\test\Pain Drain\libraries\lvgl\src\misc/lv_txt.c **** 
 1707              		.loc 1 432 0
 1708 0050 03B0     		add	sp, sp, #12
 1709              		@ sp needed
 1710              	.LVL220:
 1711 0052 F0BD     		pop	{r4, r5, r6, r7, pc}
 1712              	.L135:
 1713              		.align	2
 1714              	.L134:
 1715 0054 00000000 		.word	.LANCHOR0
 1716              		.cfi_endproc
 1717              	.LFE60:
 1718              		.size	_lv_txt_ins, .-_lv_txt_ins
 1719              		.section	.text._lv_txt_cut,"ax",%progbits
 1720              		.align	2
 1721              		.global	_lv_txt_cut
 1722              		.code	16
 1723              		.thumb_func
 1724              		.type	_lv_txt_cut, %function
 1725              	_lv_txt_cut:
 1726              	.LFB61:
 435:..\..\..\arduinoLCD\test\Pain Drain\libraries\lvgl\src\misc/lv_txt.c ****     if(txt == NULL) return;
 1727              		.loc 1 435 0
ARM GAS  C:\Users\haske\AppData\Local\Temp\ccg6iOQH.s 			page 54


 1728              		.cfi_startproc
 1729              		@ args = 0, pretend = 0, frame = 8
 1730              		@ frame_needed = 0, uses_anonymous_args = 0
 1731              	.LVL221:
 1732 0000 F0B5     		push	{r4, r5, r6, r7, lr}
 1733              		.cfi_def_cfa_offset 20
 1734              		.cfi_offset 4, -20
 1735              		.cfi_offset 5, -16
 1736              		.cfi_offset 6, -12
 1737              		.cfi_offset 7, -8
 1738              		.cfi_offset 14, -4
 1739 0002 83B0     		sub	sp, sp, #12
 1740              		.cfi_def_cfa_offset 32
 1741 0004 0500     		movs	r5, r0
 1742 0006 0C00     		movs	r4, r1
 1743 0008 0192     		str	r2, [sp, #4]
 436:..\..\..\arduinoLCD\test\Pain Drain\libraries\lvgl\src\misc/lv_txt.c **** 
 1744              		.loc 1 436 0
 1745 000a 0028     		cmp	r0, #0
 1746 000c 14D0     		beq	.L136
 438:..\..\..\arduinoLCD\test\Pain Drain\libraries\lvgl\src\misc/lv_txt.c **** 
 1747              		.loc 1 438 0
 1748 000e FFF7FEFF 		bl	strlen
 1749              	.LVL222:
 1750 0012 0600     		movs	r6, r0
 1751              	.LVL223:
 440:..\..\..\arduinoLCD\test\Pain Drain\libraries\lvgl\src\misc/lv_txt.c ****     len = _lv_txt_encoded_get_byte_id(&txt[pos], len);
 1752              		.loc 1 440 0
 1753 0014 094F     		ldr	r7, .L140
 1754 0016 2100     		movs	r1, r4
 1755 0018 2800     		movs	r0, r5
 1756              	.LVL224:
 1757 001a BB68     		ldr	r3, [r7, #8]
 1758 001c 9847     		blx	r3
 1759              	.LVL225:
 1760 001e 0400     		movs	r4, r0
 1761              	.LVL226:
 441:..\..\..\arduinoLCD\test\Pain Drain\libraries\lvgl\src\misc/lv_txt.c **** 
 1762              		.loc 1 441 0
 1763 0020 BB68     		ldr	r3, [r7, #8]
 1764 0022 2818     		adds	r0, r5, r0
 1765              	.LVL227:
 1766 0024 0199     		ldr	r1, [sp, #4]
 1767 0026 9847     		blx	r3
 1768              	.LVL228:
 445:..\..\..\arduinoLCD\test\Pain Drain\libraries\lvgl\src\misc/lv_txt.c ****         txt[i] = txt[i + len];
 1769              		.loc 1 445 0
 1770 0028 03E0     		b	.L138
 1771              	.LVL229:
 1772              	.L139:
 446:..\..\..\arduinoLCD\test\Pain Drain\libraries\lvgl\src\misc/lv_txt.c ****     }
 1773              		.loc 1 446 0 discriminator 3
 1774 002a 2B19     		adds	r3, r5, r4
 1775 002c 1A5C     		ldrb	r2, [r3, r0]
 1776 002e 1A70     		strb	r2, [r3]
 445:..\..\..\arduinoLCD\test\Pain Drain\libraries\lvgl\src\misc/lv_txt.c ****         txt[i] = txt[i + len];
 1777              		.loc 1 445 0 discriminator 3
ARM GAS  C:\Users\haske\AppData\Local\Temp\ccg6iOQH.s 			page 55


 1778 0030 0134     		adds	r4, r4, #1
 1779              	.LVL230:
 1780              	.L138:
 445:..\..\..\arduinoLCD\test\Pain Drain\libraries\lvgl\src\misc/lv_txt.c ****         txt[i] = txt[i + len];
 1781              		.loc 1 445 0 is_stmt 0 discriminator 1
 1782 0032 331A     		subs	r3, r6, r0
 1783 0034 9C42     		cmp	r4, r3
 1784 0036 F8D9     		bls	.L139
 1785              	.LVL231:
 1786              	.L136:
 448:..\..\..\arduinoLCD\test\Pain Drain\libraries\lvgl\src\misc/lv_txt.c **** 
 1787              		.loc 1 448 0 is_stmt 1
 1788 0038 03B0     		add	sp, sp, #12
 1789              		@ sp needed
 1790              	.LVL232:
 1791 003a F0BD     		pop	{r4, r5, r6, r7, pc}
 1792              	.L141:
 1793              		.align	2
 1794              	.L140:
 1795 003c 00000000 		.word	.LANCHOR0
 1796              		.cfi_endproc
 1797              	.LFE61:
 1798              		.size	_lv_txt_cut, .-_lv_txt_cut
 1799              		.section	.text._lv_txt_set_text_vfmt,"ax",%progbits
 1800              		.align	2
 1801              		.global	_lv_txt_set_text_vfmt
 1802              		.code	16
 1803              		.thumb_func
 1804              		.type	_lv_txt_set_text_vfmt, %function
 1805              	_lv_txt_set_text_vfmt:
 1806              	.LFB62:
 451:..\..\..\arduinoLCD\test\Pain Drain\libraries\lvgl\src\misc/lv_txt.c ****     /*Allocate space for the new text by using trick from C99 standard section 7.19.6.12*/
 1807              		.loc 1 451 0
 1808              		.cfi_startproc
 1809              		@ args = 0, pretend = 0, frame = 16
 1810              		@ frame_needed = 0, uses_anonymous_args = 0
 1811              	.LVL233:
 1812 0000 F0B5     		push	{r4, r5, r6, r7, lr}
 1813              		.cfi_def_cfa_offset 20
 1814              		.cfi_offset 4, -20
 1815              		.cfi_offset 5, -16
 1816              		.cfi_offset 6, -12
 1817              		.cfi_offset 7, -8
 1818              		.cfi_offset 14, -4
 1819 0002 85B0     		sub	sp, sp, #20
 1820              		.cfi_def_cfa_offset 40
 1821 0004 0190     		str	r0, [sp, #4]
 1822 0006 0D00     		movs	r5, r1
 454:..\..\..\arduinoLCD\test\Pain Drain\libraries\lvgl\src\misc/lv_txt.c ****     uint32_t len = lv_vsnprintf(NULL, 0, fmt, ap_copy);
 1823              		.loc 1 454 0
 1824 0008 0391     		str	r1, [sp, #12]
 455:..\..\..\arduinoLCD\test\Pain Drain\libraries\lvgl\src\misc/lv_txt.c ****     va_end(ap_copy);
 1825              		.loc 1 455 0
 1826 000a 0B00     		movs	r3, r1
 1827 000c 0200     		movs	r2, r0
 1828 000e 0021     		movs	r1, #0
 1829              	.LVL234:
ARM GAS  C:\Users\haske\AppData\Local\Temp\ccg6iOQH.s 			page 56


 1830 0010 0020     		movs	r0, #0
 1831              	.LVL235:
 1832 0012 FFF7FEFF 		bl	lv_vsnprintf
 1833              	.LVL236:
 1834 0016 0700     		movs	r7, r0
 1835              	.LVL237:
 480:..\..\..\arduinoLCD\test\Pain Drain\libraries\lvgl\src\misc/lv_txt.c ****     LV_ASSERT_MALLOC(text);
 1836              		.loc 1 480 0
 1837 0018 461C     		adds	r6, r0, #1
 1838 001a 3000     		movs	r0, r6
 1839              	.LVL238:
 1840 001c FFF7FEFF 		bl	lv_mem_alloc
 1841              	.LVL239:
 1842 0020 041E     		subs	r4, r0, #0
 1843              	.LVL240:
 481:..\..\..\arduinoLCD\test\Pain Drain\libraries\lvgl\src\misc/lv_txt.c ****     if(text == NULL) {
 1844              		.loc 1 481 0
 1845 0022 00D1     		bne	.L143
 1846              	.L144:
 1847 0024 FEE7     		b	.L144
 1848              	.L143:
 482:..\..\..\arduinoLCD\test\Pain Drain\libraries\lvgl\src\misc/lv_txt.c ****         return NULL;
 1849              		.loc 1 482 0
 1850 0026 0028     		cmp	r0, #0
 1851 0028 09D0     		beq	.L146
 485:..\..\..\arduinoLCD\test\Pain Drain\libraries\lvgl\src\misc/lv_txt.c **** 
 1852              		.loc 1 485 0
 1853 002a C319     		adds	r3, r0, r7
 1854 002c 0022     		movs	r2, #0
 1855 002e 1A70     		strb	r2, [r3]
 1856              	.LVL241:
 487:..\..\..\arduinoLCD\test\Pain Drain\libraries\lvgl\src\misc/lv_txt.c **** #endif
 1857              		.loc 1 487 0
 1858 0030 2B00     		movs	r3, r5
 1859 0032 019A     		ldr	r2, [sp, #4]
 1860 0034 3100     		movs	r1, r6
 1861 0036 FFF7FEFF 		bl	lv_vsnprintf
 1862              	.LVL242:
 490:..\..\..\arduinoLCD\test\Pain Drain\libraries\lvgl\src\misc/lv_txt.c **** }
 1863              		.loc 1 490 0
 1864 003a 2000     		movs	r0, r4
 1865 003c 00E0     		b	.L145
 1866              	.LVL243:
 1867              	.L146:
 483:..\..\..\arduinoLCD\test\Pain Drain\libraries\lvgl\src\misc/lv_txt.c ****     }
 1868              		.loc 1 483 0
 1869 003e 0020     		movs	r0, #0
 1870              	.LVL244:
 1871              	.L145:
 491:..\..\..\arduinoLCD\test\Pain Drain\libraries\lvgl\src\misc/lv_txt.c **** 
 1872              		.loc 1 491 0
 1873 0040 05B0     		add	sp, sp, #20
 1874              		@ sp needed
 1875              	.LVL245:
 1876              	.LVL246:
 1877              	.LVL247:
 1878 0042 F0BD     		pop	{r4, r5, r6, r7, pc}
ARM GAS  C:\Users\haske\AppData\Local\Temp\ccg6iOQH.s 			page 57


 1879              		.cfi_endproc
 1880              	.LFE62:
 1881              		.size	_lv_txt_set_text_vfmt, .-_lv_txt_set_text_vfmt
 1882              		.section	.text._lv_txt_encoded_letter_next_2,"ax",%progbits
 1883              		.align	2
 1884              		.global	_lv_txt_encoded_letter_next_2
 1885              		.code	16
 1886              		.thumb_func
 1887              		.type	_lv_txt_encoded_letter_next_2, %function
 1888              	_lv_txt_encoded_letter_next_2:
 1889              	.LFB63:
 494:..\..\..\arduinoLCD\test\Pain Drain\libraries\lvgl\src\misc/lv_txt.c ****     *letter = _lv_txt_encoded_next(txt, ofs);
 1890              		.loc 1 494 0
 1891              		.cfi_startproc
 1892              		@ args = 0, pretend = 0, frame = 0
 1893              		@ frame_needed = 0, uses_anonymous_args = 0
 1894              	.LVL248:
 1895 0000 F8B5     		push	{r3, r4, r5, r6, r7, lr}
 1896              		.cfi_def_cfa_offset 24
 1897              		.cfi_offset 3, -24
 1898              		.cfi_offset 4, -20
 1899              		.cfi_offset 5, -16
 1900              		.cfi_offset 6, -12
 1901              		.cfi_offset 7, -8
 1902              		.cfi_offset 14, -4
 1903 0002 0400     		movs	r4, r0
 1904 0004 0F00     		movs	r7, r1
 1905 0006 1600     		movs	r6, r2
 1906 0008 1D00     		movs	r5, r3
 495:..\..\..\arduinoLCD\test\Pain Drain\libraries\lvgl\src\misc/lv_txt.c ****     *letter_next = *letter != '\0' ? _lv_txt_encoded_next(&txt[*ofs], NULL) : 0;
 1907              		.loc 1 495 0
 1908 000a 074B     		ldr	r3, .L149
 1909              	.LVL249:
 1910 000c 5B68     		ldr	r3, [r3, #4]
 1911 000e 2900     		movs	r1, r5
 1912              	.LVL250:
 1913 0010 9847     		blx	r3
 1914              	.LVL251:
 1915 0012 3860     		str	r0, [r7]
 496:..\..\..\arduinoLCD\test\Pain Drain\libraries\lvgl\src\misc/lv_txt.c **** }
 1916              		.loc 1 496 0
 1917 0014 0028     		cmp	r0, #0
 1918 0016 05D0     		beq	.L148
 496:..\..\..\arduinoLCD\test\Pain Drain\libraries\lvgl\src\misc/lv_txt.c **** }
 1919              		.loc 1 496 0 is_stmt 0 discriminator 1
 1920 0018 034B     		ldr	r3, .L149
 1921 001a 5B68     		ldr	r3, [r3, #4]
 1922 001c 2868     		ldr	r0, [r5]
 1923 001e 2018     		adds	r0, r4, r0
 1924 0020 0021     		movs	r1, #0
 1925 0022 9847     		blx	r3
 1926              	.LVL252:
 1927              	.L148:
 496:..\..\..\arduinoLCD\test\Pain Drain\libraries\lvgl\src\misc/lv_txt.c **** }
 1928              		.loc 1 496 0 discriminator 4
 1929 0024 3060     		str	r0, [r6]
 497:..\..\..\arduinoLCD\test\Pain Drain\libraries\lvgl\src\misc/lv_txt.c **** 
ARM GAS  C:\Users\haske\AppData\Local\Temp\ccg6iOQH.s 			page 58


 1930              		.loc 1 497 0 is_stmt 1 discriminator 4
 1931              		@ sp needed
 1932              	.LVL253:
 1933              	.LVL254:
 1934              	.LVL255:
 1935              	.LVL256:
 1936 0026 F8BD     		pop	{r3, r4, r5, r6, r7, pc}
 1937              	.L150:
 1938              		.align	2
 1939              	.L149:
 1940 0028 00000000 		.word	.LANCHOR0
 1941              		.cfi_endproc
 1942              	.LFE63:
 1943              		.size	_lv_txt_encoded_letter_next_2, .-_lv_txt_encoded_letter_next_2
 1944              		.section	.text.lv_txt_get_width,"ax",%progbits
 1945              		.align	2
 1946              		.global	lv_txt_get_width
 1947              		.code	16
 1948              		.thumb_func
 1949              		.type	lv_txt_get_width, %function
 1950              	lv_txt_get_width:
 1951              	.LFB58:
 345:..\..\..\arduinoLCD\test\Pain Drain\libraries\lvgl\src\misc/lv_txt.c ****     if(txt == NULL) return 0;
 1952              		.loc 1 345 0
 1953              		.cfi_startproc
 1954              		@ args = 4, pretend = 0, frame = 24
 1955              		@ frame_needed = 0, uses_anonymous_args = 0
 1956              	.LVL257:
 1957 0000 F0B5     		push	{r4, r5, r6, r7, lr}
 1958              		.cfi_def_cfa_offset 20
 1959              		.cfi_offset 4, -20
 1960              		.cfi_offset 5, -16
 1961              		.cfi_offset 6, -12
 1962              		.cfi_offset 7, -8
 1963              		.cfi_offset 14, -4
 1964 0002 4746     		mov	r7, r8
 1965 0004 80B4     		push	{r7}
 1966              		.cfi_def_cfa_offset 24
 1967              		.cfi_offset 8, -24
 1968 0006 86B0     		sub	sp, sp, #24
 1969              		.cfi_def_cfa_offset 48
 1970 0008 0400     		movs	r4, r0
 1971 000a 0E00     		movs	r6, r1
 1972 000c 0192     		str	r2, [sp, #4]
 1973 000e 9846     		mov	r8, r3
 1974 0010 0CAB     		add	r3, sp, #48
 1975              	.LVL258:
 1976 0012 1F78     		ldrb	r7, [r3]
 346:..\..\..\arduinoLCD\test\Pain Drain\libraries\lvgl\src\misc/lv_txt.c ****     if(font == NULL) return 0;
 1977              		.loc 1 346 0
 1978 0014 0028     		cmp	r0, #0
 1979 0016 37D0     		beq	.L158
 347:..\..\..\arduinoLCD\test\Pain Drain\libraries\lvgl\src\misc/lv_txt.c ****     if(txt[0] == '\0') return 0;
 1980              		.loc 1 347 0
 1981 0018 002A     		cmp	r2, #0
 1982 001a 37D0     		beq	.L159
 348:..\..\..\arduinoLCD\test\Pain Drain\libraries\lvgl\src\misc/lv_txt.c **** 
ARM GAS  C:\Users\haske\AppData\Local\Temp\ccg6iOQH.s 			page 59


 1983              		.loc 1 348 0
 1984 001c 0378     		ldrb	r3, [r0]
 1985              	.LVL259:
 1986 001e 002B     		cmp	r3, #0
 1987 0020 36D0     		beq	.L160
 350:..\..\..\arduinoLCD\test\Pain Drain\libraries\lvgl\src\misc/lv_txt.c ****     lv_coord_t width             = 0;
 1988              		.loc 1 350 0
 1989 0022 0023     		movs	r3, #0
 1990 0024 0593     		str	r3, [sp, #20]
 1991              	.LVL260:
 352:..\..\..\arduinoLCD\test\Pain Drain\libraries\lvgl\src\misc/lv_txt.c **** 
 1992              		.loc 1 352 0
 1993 0026 0B22     		movs	r2, #11
 1994              	.LVL261:
 1995 0028 02A9     		add	r1, sp, #8
 1996              	.LVL262:
 1997 002a 8C46     		mov	ip, r1
 1998 002c 6244     		add	r2, r2, ip
 1999 002e 1370     		strb	r3, [r2]
 354:..\..\..\arduinoLCD\test\Pain Drain\libraries\lvgl\src\misc/lv_txt.c ****         while(i < length) {
 2000              		.loc 1 354 0
 2001 0030 002E     		cmp	r6, #0
 2002 0032 1FD1     		bne	.L161
 351:..\..\..\arduinoLCD\test\Pain Drain\libraries\lvgl\src\misc/lv_txt.c ****     lv_text_cmd_state_t cmd_state = LV_TEXT_CMD_STATE_WAIT;
 2003              		.loc 1 351 0
 2004 0034 0020     		movs	r0, #0
 2005              	.LVL263:
 2006 0036 2EE0     		b	.L152
 2007              	.LVL264:
 2008              	.L157:
 2009              	.LBB29:
 358:..\..\..\arduinoLCD\test\Pain Drain\libraries\lvgl\src\misc/lv_txt.c **** 
 2010              		.loc 1 358 0
 2011 0038 05AB     		add	r3, sp, #20
 2012 003a 03AA     		add	r2, sp, #12
 2013 003c 02A9     		add	r1, sp, #8
 2014 003e 2000     		movs	r0, r4
 2015 0040 FFF7FEFF 		bl	_lv_txt_encoded_letter_next_2
 2016              	.LVL265:
 360:..\..\..\arduinoLCD\test\Pain Drain\libraries\lvgl\src\misc/lv_txt.c ****                 if(_lv_txt_is_cmd(&cmd_state, letter) != false) {
 2017              		.loc 1 360 0
 2018 0044 FB07     		lsls	r3, r7, #31
 2019 0046 08D5     		bpl	.L154
 361:..\..\..\arduinoLCD\test\Pain Drain\libraries\lvgl\src\misc/lv_txt.c ****                     continue;
 2020              		.loc 1 361 0
 2021 0048 0299     		ldr	r1, [sp, #8]
 2022 004a 0B20     		movs	r0, #11
 2023 004c 02AB     		add	r3, sp, #8
 2024 004e 9C46     		mov	ip, r3
 2025 0050 6044     		add	r0, r0, ip
 2026 0052 FFF7FEFF 		bl	_lv_txt_is_cmd
 2027              	.LVL266:
 2028 0056 0028     		cmp	r0, #0
 2029 0058 0DD1     		bne	.L153
 2030              	.L154:
 366:..\..\..\arduinoLCD\test\Pain Drain\libraries\lvgl\src\misc/lv_txt.c ****             if(char_width > 0) {
 2031              		.loc 1 366 0
ARM GAS  C:\Users\haske\AppData\Local\Temp\ccg6iOQH.s 			page 60


 2032 005a 039A     		ldr	r2, [sp, #12]
 2033 005c 0299     		ldr	r1, [sp, #8]
 2034 005e 0198     		ldr	r0, [sp, #4]
 2035 0060 FFF7FEFF 		bl	lv_font_get_glyph_width
 2036              	.LVL267:
 2037 0064 03B2     		sxth	r3, r0
 2038              	.LVL268:
 367:..\..\..\arduinoLCD\test\Pain Drain\libraries\lvgl\src\misc/lv_txt.c ****                 width += char_width;
 2039              		.loc 1 367 0
 2040 0066 002B     		cmp	r3, #0
 2041 0068 05DD     		ble	.L153
 368:..\..\..\arduinoLCD\test\Pain Drain\libraries\lvgl\src\misc/lv_txt.c ****                 width += letter_space;
 2042              		.loc 1 368 0
 2043 006a 4019     		adds	r0, r0, r5
 2044 006c 80B2     		uxth	r0, r0
 2045              	.LVL269:
 369:..\..\..\arduinoLCD\test\Pain Drain\libraries\lvgl\src\misc/lv_txt.c ****             }
 2046              		.loc 1 369 0
 2047 006e 4044     		add	r0, r0, r8
 2048              	.LVL270:
 2049 0070 05B2     		sxth	r5, r0
 2050              	.LVL271:
 2051 0072 00E0     		b	.L153
 2052              	.LVL272:
 2053              	.L161:
 2054              	.LBE29:
 2055 0074 0025     		movs	r5, #0
 2056              	.LVL273:
 2057              	.L153:
 355:..\..\..\arduinoLCD\test\Pain Drain\libraries\lvgl\src\misc/lv_txt.c ****             uint32_t letter;
 2058              		.loc 1 355 0
 2059 0076 059B     		ldr	r3, [sp, #20]
 2060 0078 9E42     		cmp	r6, r3
 2061 007a DDD8     		bhi	.L157
 373:..\..\..\arduinoLCD\test\Pain Drain\libraries\lvgl\src\misc/lv_txt.c ****             width -= letter_space; /*Trim the last letter space. Important if the text is center
 2062              		.loc 1 373 0
 2063 007c 002D     		cmp	r5, #0
 2064 007e 09DD     		ble	.L162
 374:..\..\..\arduinoLCD\test\Pain Drain\libraries\lvgl\src\misc/lv_txt.c ****                                       aligned*/
 2065              		.loc 1 374 0
 2066 0080 4346     		mov	r3, r8
 2067 0082 E81A     		subs	r0, r5, r3
 2068              	.LVL274:
 2069 0084 00B2     		sxth	r0, r0
 2070 0086 06E0     		b	.L152
 2071              	.LVL275:
 2072              	.L158:
 346:..\..\..\arduinoLCD\test\Pain Drain\libraries\lvgl\src\misc/lv_txt.c ****     if(font == NULL) return 0;
 2073              		.loc 1 346 0
 2074 0088 0020     		movs	r0, #0
 2075              	.LVL276:
 2076 008a 04E0     		b	.L152
 2077              	.LVL277:
 2078              	.L159:
 347:..\..\..\arduinoLCD\test\Pain Drain\libraries\lvgl\src\misc/lv_txt.c ****     if(txt[0] == '\0') return 0;
 2079              		.loc 1 347 0
 2080 008c 0020     		movs	r0, #0
ARM GAS  C:\Users\haske\AppData\Local\Temp\ccg6iOQH.s 			page 61


 2081              	.LVL278:
 2082 008e 02E0     		b	.L152
 2083              	.LVL279:
 2084              	.L160:
 348:..\..\..\arduinoLCD\test\Pain Drain\libraries\lvgl\src\misc/lv_txt.c **** 
 2085              		.loc 1 348 0
 2086 0090 0020     		movs	r0, #0
 2087              	.LVL280:
 2088 0092 00E0     		b	.L152
 2089              	.LVL281:
 2090              	.L162:
 2091 0094 2800     		movs	r0, r5
 2092              	.LVL282:
 2093              	.L152:
 380:..\..\..\arduinoLCD\test\Pain Drain\libraries\lvgl\src\misc/lv_txt.c **** 
 2094              		.loc 1 380 0
 2095 0096 06B0     		add	sp, sp, #24
 2096              		@ sp needed
 2097              	.LVL283:
 2098              	.LVL284:
 2099 0098 04BC     		pop	{r2}
 2100 009a 9046     		mov	r8, r2
 2101 009c F0BD     		pop	{r4, r5, r6, r7, pc}
 2102              		.cfi_endproc
 2103              	.LFE58:
 2104              		.size	lv_txt_get_width, .-lv_txt_get_width
 2105 009e C046     		.section	.text.lv_txt_get_size,"ax",%progbits
 2106              		.align	2
 2107              		.global	lv_txt_get_size
 2108              		.code	16
 2109              		.thumb_func
 2110              		.type	lv_txt_get_size, %function
 2111              	lv_txt_get_size:
 2112              	.LFB55:
  93:..\..\..\arduinoLCD\test\Pain Drain\libraries\lvgl\src\misc/lv_txt.c ****     size_res->x = 0;
 2113              		.loc 1 93 0
 2114              		.cfi_startproc
 2115              		@ args = 12, pretend = 0, frame = 16
 2116              		@ frame_needed = 0, uses_anonymous_args = 0
 2117              	.LVL285:
 2118 0000 F0B5     		push	{r4, r5, r6, r7, lr}
 2119              		.cfi_def_cfa_offset 20
 2120              		.cfi_offset 4, -20
 2121              		.cfi_offset 5, -16
 2122              		.cfi_offset 6, -12
 2123              		.cfi_offset 7, -8
 2124              		.cfi_offset 14, -4
 2125 0002 5F46     		mov	r7, fp
 2126 0004 5646     		mov	r6, r10
 2127 0006 4D46     		mov	r5, r9
 2128 0008 4446     		mov	r4, r8
 2129 000a F0B4     		push	{r4, r5, r6, r7}
 2130              		.cfi_def_cfa_offset 36
 2131              		.cfi_offset 8, -36
 2132              		.cfi_offset 9, -32
 2133              		.cfi_offset 10, -28
 2134              		.cfi_offset 11, -24
ARM GAS  C:\Users\haske\AppData\Local\Temp\ccg6iOQH.s 			page 62


 2135 000c 87B0     		sub	sp, sp, #28
 2136              		.cfi_def_cfa_offset 64
 2137 000e 0400     		movs	r4, r0
 2138 0010 8B46     		mov	fp, r1
 2139 0012 0292     		str	r2, [sp, #8]
 2140 0014 0393     		str	r3, [sp, #12]
 2141 0016 10AB     		add	r3, sp, #64
 2142              	.LVL286:
 2143 0018 0027     		movs	r7, #0
 2144 001a DF5F     		ldrsh	r7, [r3, r7]
 2145              	.LVL287:
 2146 001c 11AB     		add	r3, sp, #68
 2147              	.LVL288:
 2148 001e 0021     		movs	r1, #0
 2149 0020 5B5E     		ldrsh	r3, [r3, r1]
 2150              	.LVL289:
 2151 0022 0493     		str	r3, [sp, #16]
 2152 0024 12AB     		add	r3, sp, #72
 2153              	.LVL290:
 2154 0026 1B78     		ldrb	r3, [r3]
 2155              	.LVL291:
 2156 0028 9846     		mov	r8, r3
  94:..\..\..\arduinoLCD\test\Pain Drain\libraries\lvgl\src\misc/lv_txt.c ****     size_res->y = 0;
 2157              		.loc 1 94 0
 2158 002a 0023     		movs	r3, #0
 2159 002c 0380     		strh	r3, [r0]
  95:..\..\..\arduinoLCD\test\Pain Drain\libraries\lvgl\src\misc/lv_txt.c **** 
 2160              		.loc 1 95 0
 2161 002e 4380     		strh	r3, [r0, #2]
  97:..\..\..\arduinoLCD\test\Pain Drain\libraries\lvgl\src\misc/lv_txt.c ****     if(font == NULL) return;
 2162              		.loc 1 97 0
 2163 0030 5B46     		mov	r3, fp
 2164 0032 002B     		cmp	r3, #0
 2165 0034 57D0     		beq	.L163
  98:..\..\..\arduinoLCD\test\Pain Drain\libraries\lvgl\src\misc/lv_txt.c **** 
 2166              		.loc 1 98 0
 2167 0036 002A     		cmp	r2, #0
 2168 0038 55D0     		beq	.L163
 100:..\..\..\arduinoLCD\test\Pain Drain\libraries\lvgl\src\misc/lv_txt.c **** 
 2169              		.loc 1 100 0
 2170 003a 4346     		mov	r3, r8
 2171 003c 9B07     		lsls	r3, r3, #30
 2172 003e 01D5     		bpl	.L165
 2173 0040 2C4B     		ldr	r3, .L173
 2174 0042 0493     		str	r3, [sp, #16]
 2175              	.L165:
 2176              	.LVL292:
 2177              	.LBB30:
 2178              	.LBB31:
 2179              		.file 4 "..\\..\\..\\arduinoLCD\\test\\Pain Drain\\libraries\\lvgl\\src\\misc\\../font/lv_font.h"
   1:..\..\..\arduinoLCD\test\Pain Drain\libraries\lvgl\src\misc\../font/lv_font.h **** /**
   2:..\..\..\arduinoLCD\test\Pain Drain\libraries\lvgl\src\misc\../font/lv_font.h ****  * @file lv_font.h
   3:..\..\..\arduinoLCD\test\Pain Drain\libraries\lvgl\src\misc\../font/lv_font.h ****  *
   4:..\..\..\arduinoLCD\test\Pain Drain\libraries\lvgl\src\misc\../font/lv_font.h ****  */
   5:..\..\..\arduinoLCD\test\Pain Drain\libraries\lvgl\src\misc\../font/lv_font.h **** 
   6:..\..\..\arduinoLCD\test\Pain Drain\libraries\lvgl\src\misc\../font/lv_font.h **** #ifndef LV_FONT_H
   7:..\..\..\arduinoLCD\test\Pain Drain\libraries\lvgl\src\misc\../font/lv_font.h **** #define LV_FONT_H
ARM GAS  C:\Users\haske\AppData\Local\Temp\ccg6iOQH.s 			page 63


   8:..\..\..\arduinoLCD\test\Pain Drain\libraries\lvgl\src\misc\../font/lv_font.h **** 
   9:..\..\..\arduinoLCD\test\Pain Drain\libraries\lvgl\src\misc\../font/lv_font.h **** #ifdef __cplusplus
  10:..\..\..\arduinoLCD\test\Pain Drain\libraries\lvgl\src\misc\../font/lv_font.h **** extern "C" {
  11:..\..\..\arduinoLCD\test\Pain Drain\libraries\lvgl\src\misc\../font/lv_font.h **** #endif
  12:..\..\..\arduinoLCD\test\Pain Drain\libraries\lvgl\src\misc\../font/lv_font.h **** 
  13:..\..\..\arduinoLCD\test\Pain Drain\libraries\lvgl\src\misc\../font/lv_font.h **** /*********************
  14:..\..\..\arduinoLCD\test\Pain Drain\libraries\lvgl\src\misc\../font/lv_font.h ****  *      INCLUDES
  15:..\..\..\arduinoLCD\test\Pain Drain\libraries\lvgl\src\misc\../font/lv_font.h ****  *********************/
  16:..\..\..\arduinoLCD\test\Pain Drain\libraries\lvgl\src\misc\../font/lv_font.h **** #include "../lv_conf_internal.h"
  17:..\..\..\arduinoLCD\test\Pain Drain\libraries\lvgl\src\misc\../font/lv_font.h **** #include <stdint.h>
  18:..\..\..\arduinoLCD\test\Pain Drain\libraries\lvgl\src\misc\../font/lv_font.h **** #include <stddef.h>
  19:..\..\..\arduinoLCD\test\Pain Drain\libraries\lvgl\src\misc\../font/lv_font.h **** #include <stdbool.h>
  20:..\..\..\arduinoLCD\test\Pain Drain\libraries\lvgl\src\misc\../font/lv_font.h **** 
  21:..\..\..\arduinoLCD\test\Pain Drain\libraries\lvgl\src\misc\../font/lv_font.h **** #include "lv_symbol_def.h"
  22:..\..\..\arduinoLCD\test\Pain Drain\libraries\lvgl\src\misc\../font/lv_font.h **** #include "../misc/lv_area.h"
  23:..\..\..\arduinoLCD\test\Pain Drain\libraries\lvgl\src\misc\../font/lv_font.h **** 
  24:..\..\..\arduinoLCD\test\Pain Drain\libraries\lvgl\src\misc\../font/lv_font.h **** /*********************
  25:..\..\..\arduinoLCD\test\Pain Drain\libraries\lvgl\src\misc\../font/lv_font.h ****  *      DEFINES
  26:..\..\..\arduinoLCD\test\Pain Drain\libraries\lvgl\src\misc\../font/lv_font.h ****  *********************/
  27:..\..\..\arduinoLCD\test\Pain Drain\libraries\lvgl\src\misc\../font/lv_font.h **** 
  28:..\..\..\arduinoLCD\test\Pain Drain\libraries\lvgl\src\misc\../font/lv_font.h **** /* imgfont identifier */
  29:..\..\..\arduinoLCD\test\Pain Drain\libraries\lvgl\src\misc\../font/lv_font.h **** #define LV_IMGFONT_BPP 9
  30:..\..\..\arduinoLCD\test\Pain Drain\libraries\lvgl\src\misc\../font/lv_font.h **** 
  31:..\..\..\arduinoLCD\test\Pain Drain\libraries\lvgl\src\misc\../font/lv_font.h **** /**********************
  32:..\..\..\arduinoLCD\test\Pain Drain\libraries\lvgl\src\misc\../font/lv_font.h ****  *      TYPEDEFS
  33:..\..\..\arduinoLCD\test\Pain Drain\libraries\lvgl\src\misc\../font/lv_font.h ****  **********************/
  34:..\..\..\arduinoLCD\test\Pain Drain\libraries\lvgl\src\misc\../font/lv_font.h **** 
  35:..\..\..\arduinoLCD\test\Pain Drain\libraries\lvgl\src\misc\../font/lv_font.h **** /*------------------
  36:..\..\..\arduinoLCD\test\Pain Drain\libraries\lvgl\src\misc\../font/lv_font.h ****  * General types
  37:..\..\..\arduinoLCD\test\Pain Drain\libraries\lvgl\src\misc\../font/lv_font.h ****  *-----------------*/
  38:..\..\..\arduinoLCD\test\Pain Drain\libraries\lvgl\src\misc\../font/lv_font.h **** 
  39:..\..\..\arduinoLCD\test\Pain Drain\libraries\lvgl\src\misc\../font/lv_font.h **** struct _lv_font_t;
  40:..\..\..\arduinoLCD\test\Pain Drain\libraries\lvgl\src\misc\../font/lv_font.h **** /** Describes the properties of a glyph.*/
  41:..\..\..\arduinoLCD\test\Pain Drain\libraries\lvgl\src\misc\../font/lv_font.h **** typedef struct {
  42:..\..\..\arduinoLCD\test\Pain Drain\libraries\lvgl\src\misc\../font/lv_font.h ****     const struct _lv_font_t *
  43:..\..\..\arduinoLCD\test\Pain Drain\libraries\lvgl\src\misc\../font/lv_font.h ****         resolved_font; /**< Pointer to a font where the glyph was actually found after handling fal
  44:..\..\..\arduinoLCD\test\Pain Drain\libraries\lvgl\src\misc\../font/lv_font.h ****     uint16_t adv_w; /**< The glyph needs this space. Draw the next glyph after this width.*/
  45:..\..\..\arduinoLCD\test\Pain Drain\libraries\lvgl\src\misc\../font/lv_font.h ****     uint16_t box_w; /**< Width of the glyph's bounding box*/
  46:..\..\..\arduinoLCD\test\Pain Drain\libraries\lvgl\src\misc\../font/lv_font.h ****     uint16_t box_h; /**< Height of the glyph's bounding box*/
  47:..\..\..\arduinoLCD\test\Pain Drain\libraries\lvgl\src\misc\../font/lv_font.h ****     int16_t ofs_x;  /**< x offset of the bounding box*/
  48:..\..\..\arduinoLCD\test\Pain Drain\libraries\lvgl\src\misc\../font/lv_font.h ****     int16_t ofs_y;  /**< y offset of the bounding box*/
  49:..\..\..\arduinoLCD\test\Pain Drain\libraries\lvgl\src\misc\../font/lv_font.h ****     uint8_t bpp: 4;  /**< Bit-per-pixel: 1, 2, 4, 8*/
  50:..\..\..\arduinoLCD\test\Pain Drain\libraries\lvgl\src\misc\../font/lv_font.h ****     uint8_t is_placeholder: 1; /** Glyph is missing. But placeholder will still be displayed */
  51:..\..\..\arduinoLCD\test\Pain Drain\libraries\lvgl\src\misc\../font/lv_font.h **** } lv_font_glyph_dsc_t;
  52:..\..\..\arduinoLCD\test\Pain Drain\libraries\lvgl\src\misc\../font/lv_font.h **** 
  53:..\..\..\arduinoLCD\test\Pain Drain\libraries\lvgl\src\misc\../font/lv_font.h **** /** The bitmaps might be upscaled by 3 to achieve subpixel rendering.*/
  54:..\..\..\arduinoLCD\test\Pain Drain\libraries\lvgl\src\misc\../font/lv_font.h **** enum {
  55:..\..\..\arduinoLCD\test\Pain Drain\libraries\lvgl\src\misc\../font/lv_font.h ****     LV_FONT_SUBPX_NONE,
  56:..\..\..\arduinoLCD\test\Pain Drain\libraries\lvgl\src\misc\../font/lv_font.h ****     LV_FONT_SUBPX_HOR,
  57:..\..\..\arduinoLCD\test\Pain Drain\libraries\lvgl\src\misc\../font/lv_font.h ****     LV_FONT_SUBPX_VER,
  58:..\..\..\arduinoLCD\test\Pain Drain\libraries\lvgl\src\misc\../font/lv_font.h ****     LV_FONT_SUBPX_BOTH,
  59:..\..\..\arduinoLCD\test\Pain Drain\libraries\lvgl\src\misc\../font/lv_font.h **** };
  60:..\..\..\arduinoLCD\test\Pain Drain\libraries\lvgl\src\misc\../font/lv_font.h **** 
  61:..\..\..\arduinoLCD\test\Pain Drain\libraries\lvgl\src\misc\../font/lv_font.h **** typedef uint8_t lv_font_subpx_t;
  62:..\..\..\arduinoLCD\test\Pain Drain\libraries\lvgl\src\misc\../font/lv_font.h **** 
  63:..\..\..\arduinoLCD\test\Pain Drain\libraries\lvgl\src\misc\../font/lv_font.h **** /** Describe the properties of a font*/
  64:..\..\..\arduinoLCD\test\Pain Drain\libraries\lvgl\src\misc\../font/lv_font.h **** typedef struct _lv_font_t {
ARM GAS  C:\Users\haske\AppData\Local\Temp\ccg6iOQH.s 			page 64


  65:..\..\..\arduinoLCD\test\Pain Drain\libraries\lvgl\src\misc\../font/lv_font.h ****     /** Get a glyph's descriptor from a font*/
  66:..\..\..\arduinoLCD\test\Pain Drain\libraries\lvgl\src\misc\../font/lv_font.h ****     bool (*get_glyph_dsc)(const struct _lv_font_t *, lv_font_glyph_dsc_t *, uint32_t letter, uint32
  67:..\..\..\arduinoLCD\test\Pain Drain\libraries\lvgl\src\misc\../font/lv_font.h **** 
  68:..\..\..\arduinoLCD\test\Pain Drain\libraries\lvgl\src\misc\../font/lv_font.h ****     /** Get a glyph's bitmap from a font*/
  69:..\..\..\arduinoLCD\test\Pain Drain\libraries\lvgl\src\misc\../font/lv_font.h ****     const uint8_t * (*get_glyph_bitmap)(const struct _lv_font_t *, uint32_t);
  70:..\..\..\arduinoLCD\test\Pain Drain\libraries\lvgl\src\misc\../font/lv_font.h **** 
  71:..\..\..\arduinoLCD\test\Pain Drain\libraries\lvgl\src\misc\../font/lv_font.h ****     /*Pointer to the font in a font pack (must have the same line height)*/
  72:..\..\..\arduinoLCD\test\Pain Drain\libraries\lvgl\src\misc\../font/lv_font.h ****     lv_coord_t line_height;         /**< The real line height where any text fits*/
  73:..\..\..\arduinoLCD\test\Pain Drain\libraries\lvgl\src\misc\../font/lv_font.h ****     lv_coord_t base_line;           /**< Base line measured from the top of the line_height*/
  74:..\..\..\arduinoLCD\test\Pain Drain\libraries\lvgl\src\misc\../font/lv_font.h ****     uint8_t subpx  : 2;             /**< An element of `lv_font_subpx_t`*/
  75:..\..\..\arduinoLCD\test\Pain Drain\libraries\lvgl\src\misc\../font/lv_font.h **** 
  76:..\..\..\arduinoLCD\test\Pain Drain\libraries\lvgl\src\misc\../font/lv_font.h ****     int8_t underline_position;      /**< Distance between the top of the underline and base line (<
  77:..\..\..\arduinoLCD\test\Pain Drain\libraries\lvgl\src\misc\../font/lv_font.h ****     int8_t underline_thickness;     /**< Thickness of the underline*/
  78:..\..\..\arduinoLCD\test\Pain Drain\libraries\lvgl\src\misc\../font/lv_font.h **** 
  79:..\..\..\arduinoLCD\test\Pain Drain\libraries\lvgl\src\misc\../font/lv_font.h ****     const void * dsc;               /**< Store implementation specific or run_time data or caching 
  80:..\..\..\arduinoLCD\test\Pain Drain\libraries\lvgl\src\misc\../font/lv_font.h ****     const struct _lv_font_t * fallback;   /**< Fallback font for missing glyph. Resolved recursivel
  81:..\..\..\arduinoLCD\test\Pain Drain\libraries\lvgl\src\misc\../font/lv_font.h **** #if LV_USE_USER_DATA
  82:..\..\..\arduinoLCD\test\Pain Drain\libraries\lvgl\src\misc\../font/lv_font.h ****     void * user_data;               /**< Custom user data for font.*/
  83:..\..\..\arduinoLCD\test\Pain Drain\libraries\lvgl\src\misc\../font/lv_font.h **** #endif
  84:..\..\..\arduinoLCD\test\Pain Drain\libraries\lvgl\src\misc\../font/lv_font.h **** } lv_font_t;
  85:..\..\..\arduinoLCD\test\Pain Drain\libraries\lvgl\src\misc\../font/lv_font.h **** 
  86:..\..\..\arduinoLCD\test\Pain Drain\libraries\lvgl\src\misc\../font/lv_font.h **** /**********************
  87:..\..\..\arduinoLCD\test\Pain Drain\libraries\lvgl\src\misc\../font/lv_font.h ****  * GLOBAL PROTOTYPES
  88:..\..\..\arduinoLCD\test\Pain Drain\libraries\lvgl\src\misc\../font/lv_font.h ****  **********************/
  89:..\..\..\arduinoLCD\test\Pain Drain\libraries\lvgl\src\misc\../font/lv_font.h **** 
  90:..\..\..\arduinoLCD\test\Pain Drain\libraries\lvgl\src\misc\../font/lv_font.h **** /**
  91:..\..\..\arduinoLCD\test\Pain Drain\libraries\lvgl\src\misc\../font/lv_font.h ****  * Return with the bitmap of a font.
  92:..\..\..\arduinoLCD\test\Pain Drain\libraries\lvgl\src\misc\../font/lv_font.h ****  * @param font_p pointer to a font
  93:..\..\..\arduinoLCD\test\Pain Drain\libraries\lvgl\src\misc\../font/lv_font.h ****  * @param letter a UNICODE character code
  94:..\..\..\arduinoLCD\test\Pain Drain\libraries\lvgl\src\misc\../font/lv_font.h ****  * @return pointer to the bitmap of the letter
  95:..\..\..\arduinoLCD\test\Pain Drain\libraries\lvgl\src\misc\../font/lv_font.h ****  */
  96:..\..\..\arduinoLCD\test\Pain Drain\libraries\lvgl\src\misc\../font/lv_font.h **** const uint8_t * lv_font_get_glyph_bitmap(const lv_font_t * font_p, uint32_t letter);
  97:..\..\..\arduinoLCD\test\Pain Drain\libraries\lvgl\src\misc\../font/lv_font.h **** 
  98:..\..\..\arduinoLCD\test\Pain Drain\libraries\lvgl\src\misc\../font/lv_font.h **** /**
  99:..\..\..\arduinoLCD\test\Pain Drain\libraries\lvgl\src\misc\../font/lv_font.h ****  * Get the descriptor of a glyph
 100:..\..\..\arduinoLCD\test\Pain Drain\libraries\lvgl\src\misc\../font/lv_font.h ****  * @param font_p pointer to font
 101:..\..\..\arduinoLCD\test\Pain Drain\libraries\lvgl\src\misc\../font/lv_font.h ****  * @param dsc_out store the result descriptor here
 102:..\..\..\arduinoLCD\test\Pain Drain\libraries\lvgl\src\misc\../font/lv_font.h ****  * @param letter a UNICODE letter code
 103:..\..\..\arduinoLCD\test\Pain Drain\libraries\lvgl\src\misc\../font/lv_font.h ****  * @param letter_next the next letter after `letter`. Used for kerning
 104:..\..\..\arduinoLCD\test\Pain Drain\libraries\lvgl\src\misc\../font/lv_font.h ****  * @return true: descriptor is successfully loaded into `dsc_out`.
 105:..\..\..\arduinoLCD\test\Pain Drain\libraries\lvgl\src\misc\../font/lv_font.h ****  *         false: the letter was not found, no data is loaded to `dsc_out`
 106:..\..\..\arduinoLCD\test\Pain Drain\libraries\lvgl\src\misc\../font/lv_font.h ****  */
 107:..\..\..\arduinoLCD\test\Pain Drain\libraries\lvgl\src\misc\../font/lv_font.h **** bool lv_font_get_glyph_dsc(const lv_font_t * font_p, lv_font_glyph_dsc_t * dsc_out, uint32_t letter
 108:..\..\..\arduinoLCD\test\Pain Drain\libraries\lvgl\src\misc\../font/lv_font.h ****                            uint32_t letter_next);
 109:..\..\..\arduinoLCD\test\Pain Drain\libraries\lvgl\src\misc\../font/lv_font.h **** 
 110:..\..\..\arduinoLCD\test\Pain Drain\libraries\lvgl\src\misc\../font/lv_font.h **** /**
 111:..\..\..\arduinoLCD\test\Pain Drain\libraries\lvgl\src\misc\../font/lv_font.h ****  * Get the width of a glyph with kerning
 112:..\..\..\arduinoLCD\test\Pain Drain\libraries\lvgl\src\misc\../font/lv_font.h ****  * @param font pointer to a font
 113:..\..\..\arduinoLCD\test\Pain Drain\libraries\lvgl\src\misc\../font/lv_font.h ****  * @param letter a UNICODE letter
 114:..\..\..\arduinoLCD\test\Pain Drain\libraries\lvgl\src\misc\../font/lv_font.h ****  * @param letter_next the next letter after `letter`. Used for kerning
 115:..\..\..\arduinoLCD\test\Pain Drain\libraries\lvgl\src\misc\../font/lv_font.h ****  * @return the width of the glyph
 116:..\..\..\arduinoLCD\test\Pain Drain\libraries\lvgl\src\misc\../font/lv_font.h ****  */
 117:..\..\..\arduinoLCD\test\Pain Drain\libraries\lvgl\src\misc\../font/lv_font.h **** uint16_t lv_font_get_glyph_width(const lv_font_t * font, uint32_t letter, uint32_t letter_next);
 118:..\..\..\arduinoLCD\test\Pain Drain\libraries\lvgl\src\misc\../font/lv_font.h **** 
 119:..\..\..\arduinoLCD\test\Pain Drain\libraries\lvgl\src\misc\../font/lv_font.h **** /**
 120:..\..\..\arduinoLCD\test\Pain Drain\libraries\lvgl\src\misc\../font/lv_font.h ****  * Get the line height of a font. All characters fit into this height
 121:..\..\..\arduinoLCD\test\Pain Drain\libraries\lvgl\src\misc\../font/lv_font.h ****  * @param font_p pointer to a font
ARM GAS  C:\Users\haske\AppData\Local\Temp\ccg6iOQH.s 			page 65


 122:..\..\..\arduinoLCD\test\Pain Drain\libraries\lvgl\src\misc\../font/lv_font.h ****  * @return the height of a font
 123:..\..\..\arduinoLCD\test\Pain Drain\libraries\lvgl\src\misc\../font/lv_font.h ****  */
 124:..\..\..\arduinoLCD\test\Pain Drain\libraries\lvgl\src\misc\../font/lv_font.h **** static inline lv_coord_t lv_font_get_line_height(const lv_font_t * font_p)
 125:..\..\..\arduinoLCD\test\Pain Drain\libraries\lvgl\src\misc\../font/lv_font.h **** {
 126:..\..\..\arduinoLCD\test\Pain Drain\libraries\lvgl\src\misc\../font/lv_font.h ****     return font_p->line_height;
 2180              		.loc 4 126 0
 2181 0044 029B     		ldr	r3, [sp, #8]
 2182 0046 0822     		movs	r2, #8
 2183 0048 9B5E     		ldrsh	r3, [r3, r2]
 2184              	.LVL293:
 2185 004a 9946     		mov	r9, r3
 2186              	.LVL294:
 2187              	.LBE31:
 2188              	.LBE30:
 104:..\..\..\arduinoLCD\test\Pain Drain\libraries\lvgl\src\misc/lv_txt.c **** 
 2189              		.loc 1 104 0
 2190 004c 6A46     		mov	r2, sp
 2191 004e D382     		strh	r3, [r2, #22]
 2192 0050 D38A     		ldrh	r3, [r2, #22]
 2193 0052 9A46     		mov	r10, r3
 2194              	.LVL295:
 102:..\..\..\arduinoLCD\test\Pain Drain\libraries\lvgl\src\misc/lv_txt.c ****     uint32_t new_line_start = 0;
 2195              		.loc 1 102 0
 2196 0054 0026     		movs	r6, #0
 2197 0056 3B00     		movs	r3, r7
 2198 0058 5746     		mov	r7, r10
 2199 005a 9A46     		mov	r10, r3
 2200              	.LVL296:
 107:..\..\..\arduinoLCD\test\Pain Drain\libraries\lvgl\src\misc/lv_txt.c ****         new_line_start += _lv_txt_get_next_line(&text[line_start], font, letter_space, max_width, N
 2201              		.loc 1 107 0
 2202 005c 24E0     		b	.L166
 2203              	.LVL297:
 2204              	.L168:
 2205              	.LBB32:
 108:..\..\..\arduinoLCD\test\Pain Drain\libraries\lvgl\src\misc/lv_txt.c **** 
 2206              		.loc 1 108 0
 2207 005e 4346     		mov	r3, r8
 2208 0060 0193     		str	r3, [sp, #4]
 2209 0062 0023     		movs	r3, #0
 2210 0064 0093     		str	r3, [sp]
 2211 0066 049B     		ldr	r3, [sp, #16]
 2212 0068 039A     		ldr	r2, [sp, #12]
 2213 006a 0299     		ldr	r1, [sp, #8]
 2214 006c 2800     		movs	r0, r5
 2215 006e FFF7FEFF 		bl	_lv_txt_get_next_line
 2216              	.LVL298:
 2217 0072 3618     		adds	r6, r6, r0
 2218              	.LVL299:
 110:..\..\..\arduinoLCD\test\Pain Drain\libraries\lvgl\src\misc/lv_txt.c ****             LV_LOG_WARN("lv_txt_get_size: integer overflow while calculating text height");
 2219              		.loc 1 110 0
 2220 0074 0221     		movs	r1, #2
 2221 0076 635E     		ldrsh	r3, [r4, r1]
 2222 0078 DA19     		adds	r2, r3, r7
 2223 007a 5244     		add	r2, r2, r10
 2224 007c 1E49     		ldr	r1, .L173+4
 2225 007e 8A42     		cmp	r2, r1
 2226 0080 31D8     		bhi	.L163
ARM GAS  C:\Users\haske\AppData\Local\Temp\ccg6iOQH.s 			page 66


 115:..\..\..\arduinoLCD\test\Pain Drain\libraries\lvgl\src\misc/lv_txt.c ****             size_res->y += line_space;
 2227              		.loc 1 115 0
 2228 0082 FB18     		adds	r3, r7, r3
 2229 0084 9BB2     		uxth	r3, r3
 116:..\..\..\arduinoLCD\test\Pain Drain\libraries\lvgl\src\misc/lv_txt.c ****         }
 2230              		.loc 1 116 0
 2231 0086 5344     		add	r3, r3, r10
 2232 0088 6380     		strh	r3, [r4, #2]
 120:..\..\..\arduinoLCD\test\Pain Drain\libraries\lvgl\src\misc/lv_txt.c ****                                                       flag);
 2233              		.loc 1 120 0
 2234 008a 4146     		mov	r1, r8
 2235 008c 0091     		str	r1, [sp]
 2236 008e 039B     		ldr	r3, [sp, #12]
 2237 0090 029A     		ldr	r2, [sp, #8]
 2238 0092 0100     		movs	r1, r0
 2239 0094 2800     		movs	r0, r5
 2240 0096 FFF7FEFF 		bl	lv_txt_get_width
 2241              	.LVL300:
 123:..\..\..\arduinoLCD\test\Pain Drain\libraries\lvgl\src\misc/lv_txt.c ****         line_start  = new_line_start;
 2242              		.loc 1 123 0
 2243 009a 0023     		movs	r3, #0
 2244 009c E25E     		ldrsh	r2, [r4, r3]
 2245 009e 031C     		adds	r3, r0, #0
 2246 00a0 9042     		cmp	r0, r2
 2247 00a2 00DA     		bge	.L167
 2248 00a4 131C     		adds	r3, r2, #0
 2249              	.L167:
 2250 00a6 2380     		strh	r3, [r4]
 2251              	.LVL301:
 2252              	.L166:
 2253              	.LBE32:
 107:..\..\..\arduinoLCD\test\Pain Drain\libraries\lvgl\src\misc/lv_txt.c ****         new_line_start += _lv_txt_get_next_line(&text[line_start], font, letter_space, max_width, N
 2254              		.loc 1 107 0
 2255 00a8 5B46     		mov	r3, fp
 2256 00aa 9D19     		adds	r5, r3, r6
 2257 00ac 2B78     		ldrb	r3, [r5]
 2258 00ae 002B     		cmp	r3, #0
 2259 00b0 D5D1     		bne	.L168
 2260 00b2 5346     		mov	r3, r10
 2261 00b4 BA46     		mov	r10, r7
 2262 00b6 1F00     		movs	r7, r3
 2263              	.LVL302:
 128:..\..\..\arduinoLCD\test\Pain Drain\libraries\lvgl\src\misc/lv_txt.c ****         size_res->y += letter_height + line_space;
 2264              		.loc 1 128 0
 2265 00b8 002E     		cmp	r6, #0
 2266 00ba 0BD0     		beq	.L169
 128:..\..\..\arduinoLCD\test\Pain Drain\libraries\lvgl\src\misc/lv_txt.c ****         size_res->y += letter_height + line_space;
 2267              		.loc 1 128 0 is_stmt 0 discriminator 1
 2268 00bc 013E     		subs	r6, r6, #1
 2269              	.LVL303:
 2270 00be 5B46     		mov	r3, fp
 2271 00c0 9B5D     		ldrb	r3, [r3, r6]
 2272 00c2 0A2B     		cmp	r3, #10
 2273 00c4 01D0     		beq	.L170
 128:..\..\..\arduinoLCD\test\Pain Drain\libraries\lvgl\src\misc/lv_txt.c ****         size_res->y += letter_height + line_space;
 2274              		.loc 1 128 0 discriminator 2
 2275 00c6 0D2B     		cmp	r3, #13
ARM GAS  C:\Users\haske\AppData\Local\Temp\ccg6iOQH.s 			page 67


 2276 00c8 04D1     		bne	.L169
 2277              	.L170:
 129:..\..\..\arduinoLCD\test\Pain Drain\libraries\lvgl\src\misc/lv_txt.c ****     }
 2278              		.loc 1 129 0 is_stmt 1
 2279 00ca 5346     		mov	r3, r10
 2280 00cc DB19     		adds	r3, r3, r7
 2281 00ce 6288     		ldrh	r2, [r4, #2]
 2282 00d0 D318     		adds	r3, r2, r3
 2283 00d2 6380     		strh	r3, [r4, #2]
 2284              	.LVL304:
 2285              	.L169:
 133:..\..\..\arduinoLCD\test\Pain Drain\libraries\lvgl\src\misc/lv_txt.c ****         size_res->y = letter_height;
 2286              		.loc 1 133 0
 2287 00d4 0222     		movs	r2, #2
 2288 00d6 A35E     		ldrsh	r3, [r4, r2]
 2289 00d8 002B     		cmp	r3, #0
 2290 00da 02D1     		bne	.L171
 134:..\..\..\arduinoLCD\test\Pain Drain\libraries\lvgl\src\misc/lv_txt.c ****     else
 2291              		.loc 1 134 0
 2292 00dc 4B46     		mov	r3, r9
 2293 00de 6380     		strh	r3, [r4, #2]
 2294 00e0 01E0     		b	.L163
 2295              	.L171:
 136:..\..\..\arduinoLCD\test\Pain Drain\libraries\lvgl\src\misc/lv_txt.c **** }
 2296              		.loc 1 136 0
 2297 00e2 DB1B     		subs	r3, r3, r7
 2298 00e4 6380     		strh	r3, [r4, #2]
 2299              	.LVL305:
 2300              	.L163:
 137:..\..\..\arduinoLCD\test\Pain Drain\libraries\lvgl\src\misc/lv_txt.c **** 
 2301              		.loc 1 137 0
 2302 00e6 07B0     		add	sp, sp, #28
 2303              		@ sp needed
 2304              	.LVL306:
 2305              	.LVL307:
 2306 00e8 3CBC     		pop	{r2, r3, r4, r5}
 2307 00ea 9046     		mov	r8, r2
 2308 00ec 9946     		mov	r9, r3
 2309 00ee A246     		mov	r10, r4
 2310 00f0 AB46     		mov	fp, r5
 2311 00f2 F0BD     		pop	{r4, r5, r6, r7, pc}
 2312              	.L174:
 2313              		.align	2
 2314              	.L173:
 2315 00f4 FF1F0000 		.word	8191
 2316 00f8 FF7F0000 		.word	32767
 2317              		.cfi_endproc
 2318              	.LFE55:
 2319              		.size	lv_txt_get_size, .-lv_txt_get_size
 2320              		.global	_lv_txt_get_encoded_length
 2321              		.global	_lv_txt_encoded_get_char_id
 2322              		.global	_lv_txt_encoded_get_byte_id
 2323              		.global	_lv_txt_encoded_prev
 2324              		.global	_lv_txt_encoded_next
 2325              		.global	_lv_txt_encoded_conv_wc
 2326              		.global	_lv_txt_unicode_to_encoded
 2327              		.global	_lv_txt_encoded_size
ARM GAS  C:\Users\haske\AppData\Local\Temp\ccg6iOQH.s 			page 68


 2328              		.data
 2329              		.align	2
 2330              		.set	.LANCHOR0,. + 0
 2331              		.type	_lv_txt_encoded_size, %object
 2332              		.size	_lv_txt_encoded_size, 4
 2333              	_lv_txt_encoded_size:
 2334 0000 00000000 		.word	lv_txt_utf8_size
 2335              		.type	_lv_txt_encoded_next, %object
 2336              		.size	_lv_txt_encoded_next, 4
 2337              	_lv_txt_encoded_next:
 2338 0004 00000000 		.word	lv_txt_utf8_next
 2339              		.type	_lv_txt_encoded_get_byte_id, %object
 2340              		.size	_lv_txt_encoded_get_byte_id, 4
 2341              	_lv_txt_encoded_get_byte_id:
 2342 0008 00000000 		.word	lv_txt_utf8_get_byte_id
 2343              		.type	_lv_txt_get_encoded_length, %object
 2344              		.size	_lv_txt_get_encoded_length, 4
 2345              	_lv_txt_get_encoded_length:
 2346 000c 00000000 		.word	lv_txt_utf8_get_length
 2347              		.type	_lv_txt_encoded_get_char_id, %object
 2348              		.size	_lv_txt_encoded_get_char_id, 4
 2349              	_lv_txt_encoded_get_char_id:
 2350 0010 00000000 		.word	lv_txt_utf8_get_char_id
 2351              		.type	_lv_txt_encoded_prev, %object
 2352              		.size	_lv_txt_encoded_prev, 4
 2353              	_lv_txt_encoded_prev:
 2354 0014 00000000 		.word	lv_txt_utf8_prev
 2355              		.type	_lv_txt_encoded_conv_wc, %object
 2356              		.size	_lv_txt_encoded_conv_wc, 4
 2357              	_lv_txt_encoded_conv_wc:
 2358 0018 00000000 		.word	lv_txt_utf8_conv_wc
 2359              		.type	_lv_txt_unicode_to_encoded, %object
 2360              		.size	_lv_txt_unicode_to_encoded, 4
 2361              	_lv_txt_unicode_to_encoded:
 2362 001c 00000000 		.word	lv_txt_unicode_to_utf8
 2363              		.section	.rodata.str1.4,"aMS",%progbits,1
 2364              		.align	2
 2365              	.LC5:
 2366 0000 202C2E3B 		.ascii	" ,.;:-_)]}\000"
 2366      3A2D5F29 
 2366      5D7D00
 2367              		.text
 2368              	.Letext0:
 2369              		.file 5 "c:\\program files (x86)\\cypress\\psoc creator\\4.4\\psoc creator\\import\\gnu\\arm\\5.4.
 2370              		.file 6 "c:\\program files (x86)\\cypress\\psoc creator\\4.4\\psoc creator\\import\\gnu\\arm\\5.4.
 2371              		.file 7 "c:\\program files (x86)\\cypress\\psoc creator\\4.4\\psoc creator\\import\\gnu\\arm\\5.4.
 2372              		.file 8 "..\\..\\..\\arduinoLCD\\test\\Pain Drain\\libraries\\lvgl\\src\\misc\\lv_area.h"
 2373              		.file 9 "c:\\program files (x86)\\cypress\\psoc creator\\4.4\\psoc creator\\import\\gnu\\arm\\5.4.
 2374              		.file 10 "<built-in>"
 2375              		.file 11 "c:\\program files (x86)\\cypress\\psoc creator\\4.4\\psoc creator\\import\\gnu\\arm\\5.4
 2376              		.file 12 "..\\..\\..\\arduinoLCD\\test\\Pain Drain\\libraries\\lvgl\\src\\misc\\lv_printf.h"
 2377              		.section	.debug_info,"",%progbits
 2378              	.Ldebug_info0:
 2379 0000 0D110000 		.4byte	0x110d
 2380 0004 0400     		.2byte	0x4
 2381 0006 00000000 		.4byte	.Ldebug_abbrev0
 2382 000a 04       		.byte	0x4
ARM GAS  C:\Users\haske\AppData\Local\Temp\ccg6iOQH.s 			page 69


 2383 000b 01       		.uleb128 0x1
 2384 000c 88050000 		.4byte	.LASF139
 2385 0010 0C       		.byte	0xc
 2386 0011 56030000 		.4byte	.LASF140
 2387 0015 95070000 		.4byte	.LASF141
 2388 0019 60000000 		.4byte	.Ldebug_ranges0+0x60
 2389 001d 00000000 		.4byte	0
 2390 0021 00000000 		.4byte	.Ldebug_line0
 2391 0025 02       		.uleb128 0x2
 2392 0026 AC030000 		.4byte	.LASF0
 2393 002a 05       		.byte	0x5
 2394 002b 28       		.byte	0x28
 2395 002c 30000000 		.4byte	0x30
 2396 0030 03       		.uleb128 0x3
 2397 0031 93010000 		.4byte	.LASF32
 2398 0035 04       		.byte	0x4
 2399 0036 0A       		.byte	0xa
 2400 0037 00       		.byte	0
 2401 0038 47000000 		.4byte	0x47
 2402 003c 04       		.uleb128 0x4
 2403 003d 8C060000 		.4byte	.LASF142
 2404 0041 47000000 		.4byte	0x47
 2405 0045 00       		.byte	0
 2406 0046 00       		.byte	0
 2407 0047 05       		.uleb128 0x5
 2408 0048 04       		.byte	0x4
 2409 0049 02       		.uleb128 0x2
 2410 004a 64000000 		.4byte	.LASF1
 2411 004e 05       		.byte	0x5
 2412 004f 62       		.byte	0x62
 2413 0050 25000000 		.4byte	0x25
 2414 0054 02       		.uleb128 0x2
 2415 0055 F1000000 		.4byte	.LASF2
 2416 0059 06       		.byte	0x6
 2417 005a 1B       		.byte	0x1b
 2418 005b 5F000000 		.4byte	0x5f
 2419 005f 06       		.uleb128 0x6
 2420 0060 01       		.byte	0x1
 2421 0061 06       		.byte	0x6
 2422 0062 3F010000 		.4byte	.LASF4
 2423 0066 02       		.uleb128 0x2
 2424 0067 5A000000 		.4byte	.LASF3
 2425 006b 06       		.byte	0x6
 2426 006c 1D       		.byte	0x1d
 2427 006d 71000000 		.4byte	0x71
 2428 0071 06       		.uleb128 0x6
 2429 0072 01       		.byte	0x1
 2430 0073 08       		.byte	0x8
 2431 0074 6C040000 		.4byte	.LASF5
 2432 0078 02       		.uleb128 0x2
 2433 0079 0E020000 		.4byte	.LASF6
 2434 007d 06       		.byte	0x6
 2435 007e 29       		.byte	0x29
 2436 007f 83000000 		.4byte	0x83
 2437 0083 06       		.uleb128 0x6
 2438 0084 02       		.byte	0x2
 2439 0085 05       		.byte	0x5
ARM GAS  C:\Users\haske\AppData\Local\Temp\ccg6iOQH.s 			page 70


 2440 0086 A7040000 		.4byte	.LASF7
 2441 008a 02       		.uleb128 0x2
 2442 008b 3F060000 		.4byte	.LASF8
 2443 008f 06       		.byte	0x6
 2444 0090 2B       		.byte	0x2b
 2445 0091 95000000 		.4byte	0x95
 2446 0095 06       		.uleb128 0x6
 2447 0096 02       		.byte	0x2
 2448 0097 07       		.byte	0x7
 2449 0098 D6020000 		.4byte	.LASF9
 2450 009c 06       		.uleb128 0x6
 2451 009d 04       		.byte	0x4
 2452 009e 05       		.byte	0x5
 2453 009f 7E010000 		.4byte	.LASF10
 2454 00a3 02       		.uleb128 0x2
 2455 00a4 D9010000 		.4byte	.LASF11
 2456 00a8 06       		.byte	0x6
 2457 00a9 41       		.byte	0x41
 2458 00aa AE000000 		.4byte	0xae
 2459 00ae 06       		.uleb128 0x6
 2460 00af 04       		.byte	0x4
 2461 00b0 07       		.byte	0x7
 2462 00b1 AD020000 		.4byte	.LASF12
 2463 00b5 06       		.uleb128 0x6
 2464 00b6 08       		.byte	0x8
 2465 00b7 05       		.byte	0x5
 2466 00b8 31010000 		.4byte	.LASF13
 2467 00bc 06       		.uleb128 0x6
 2468 00bd 08       		.byte	0x8
 2469 00be 07       		.byte	0x7
 2470 00bf AB000000 		.4byte	.LASF14
 2471 00c3 07       		.uleb128 0x7
 2472 00c4 04       		.byte	0x4
 2473 00c5 05       		.byte	0x5
 2474 00c6 696E7400 		.ascii	"int\000"
 2475 00ca 06       		.uleb128 0x6
 2476 00cb 04       		.byte	0x4
 2477 00cc 07       		.byte	0x7
 2478 00cd 7D020000 		.4byte	.LASF15
 2479 00d1 02       		.uleb128 0x2
 2480 00d2 B6060000 		.4byte	.LASF16
 2481 00d6 07       		.byte	0x7
 2482 00d7 14       		.byte	0x14
 2483 00d8 54000000 		.4byte	0x54
 2484 00dc 02       		.uleb128 0x2
 2485 00dd 10070000 		.4byte	.LASF17
 2486 00e1 07       		.byte	0x7
 2487 00e2 18       		.byte	0x18
 2488 00e3 66000000 		.4byte	0x66
 2489 00e7 02       		.uleb128 0x2
 2490 00e8 DC070000 		.4byte	.LASF18
 2491 00ec 07       		.byte	0x7
 2492 00ed 20       		.byte	0x20
 2493 00ee 78000000 		.4byte	0x78
 2494 00f2 02       		.uleb128 0x2
 2495 00f3 C2010000 		.4byte	.LASF19
 2496 00f7 07       		.byte	0x7
ARM GAS  C:\Users\haske\AppData\Local\Temp\ccg6iOQH.s 			page 71


 2497 00f8 24       		.byte	0x24
 2498 00f9 8A000000 		.4byte	0x8a
 2499 00fd 02       		.uleb128 0x2
 2500 00fe 5A050000 		.4byte	.LASF20
 2501 0102 07       		.byte	0x7
 2502 0103 30       		.byte	0x30
 2503 0104 A3000000 		.4byte	0xa3
 2504 0108 02       		.uleb128 0x2
 2505 0109 FA000000 		.4byte	.LASF21
 2506 010d 08       		.byte	0x8
 2507 010e 1B       		.byte	0x1b
 2508 010f E7000000 		.4byte	0xe7
 2509 0113 08       		.uleb128 0x8
 2510 0114 04       		.byte	0x4
 2511 0115 08       		.byte	0x8
 2512 0116 25       		.byte	0x25
 2513 0117 30010000 		.4byte	0x130
 2514 011b 09       		.uleb128 0x9
 2515 011c 7800     		.ascii	"x\000"
 2516 011e 08       		.byte	0x8
 2517 011f 26       		.byte	0x26
 2518 0120 08010000 		.4byte	0x108
 2519 0124 00       		.byte	0
 2520 0125 09       		.uleb128 0x9
 2521 0126 7900     		.ascii	"y\000"
 2522 0128 08       		.byte	0x8
 2523 0129 27       		.byte	0x27
 2524 012a 08010000 		.4byte	0x108
 2525 012e 02       		.byte	0x2
 2526 012f 00       		.byte	0
 2527 0130 02       		.uleb128 0x2
 2528 0131 18070000 		.4byte	.LASF22
 2529 0135 08       		.byte	0x8
 2530 0136 28       		.byte	0x28
 2531 0137 13010000 		.4byte	0x113
 2532 013b 02       		.uleb128 0x2
 2533 013c 53000000 		.4byte	.LASF23
 2534 0140 09       		.byte	0x9
 2535 0141 D8       		.byte	0xd8
 2536 0142 CA000000 		.4byte	0xca
 2537 0146 06       		.uleb128 0x6
 2538 0147 08       		.byte	0x8
 2539 0148 04       		.byte	0x4
 2540 0149 1A060000 		.4byte	.LASF24
 2541 014d 08       		.uleb128 0x8
 2542 014e 10       		.byte	0x10
 2543 014f 04       		.byte	0x4
 2544 0150 29       		.byte	0x29
 2545 0151 BC010000 		.4byte	0x1bc
 2546 0155 0A       		.uleb128 0xa
 2547 0156 18020000 		.4byte	.LASF25
 2548 015a 04       		.byte	0x4
 2549 015b 2B       		.byte	0x2b
 2550 015c 44020000 		.4byte	0x244
 2551 0160 00       		.byte	0
 2552 0161 0A       		.uleb128 0xa
 2553 0162 7D060000 		.4byte	.LASF26
ARM GAS  C:\Users\haske\AppData\Local\Temp\ccg6iOQH.s 			page 72


 2554 0166 04       		.byte	0x4
 2555 0167 2C       		.byte	0x2c
 2556 0168 F2000000 		.4byte	0xf2
 2557 016c 04       		.byte	0x4
 2558 016d 0A       		.uleb128 0xa
 2559 016e DF060000 		.4byte	.LASF27
 2560 0172 04       		.byte	0x4
 2561 0173 2D       		.byte	0x2d
 2562 0174 F2000000 		.4byte	0xf2
 2563 0178 06       		.byte	0x6
 2564 0179 0A       		.uleb128 0xa
 2565 017a A9060000 		.4byte	.LASF28
 2566 017e 04       		.byte	0x4
 2567 017f 2E       		.byte	0x2e
 2568 0180 F2000000 		.4byte	0xf2
 2569 0184 08       		.byte	0x8
 2570 0185 0A       		.uleb128 0xa
 2571 0186 81070000 		.4byte	.LASF29
 2572 018a 04       		.byte	0x4
 2573 018b 2F       		.byte	0x2f
 2574 018c E7000000 		.4byte	0xe7
 2575 0190 0A       		.byte	0xa
 2576 0191 0A       		.uleb128 0xa
 2577 0192 87070000 		.4byte	.LASF30
 2578 0196 04       		.byte	0x4
 2579 0197 30       		.byte	0x30
 2580 0198 E7000000 		.4byte	0xe7
 2581 019c 0C       		.byte	0xc
 2582 019d 0B       		.uleb128 0xb
 2583 019e 62707000 		.ascii	"bpp\000"
 2584 01a2 04       		.byte	0x4
 2585 01a3 31       		.byte	0x31
 2586 01a4 DC000000 		.4byte	0xdc
 2587 01a8 01       		.byte	0x1
 2588 01a9 04       		.byte	0x4
 2589 01aa 04       		.byte	0x4
 2590 01ab 0E       		.byte	0xe
 2591 01ac 0C       		.uleb128 0xc
 2592 01ad 54020000 		.4byte	.LASF31
 2593 01b1 04       		.byte	0x4
 2594 01b2 32       		.byte	0x32
 2595 01b3 DC000000 		.4byte	0xdc
 2596 01b7 01       		.byte	0x1
 2597 01b8 01       		.byte	0x1
 2598 01b9 03       		.byte	0x3
 2599 01ba 0E       		.byte	0xe
 2600 01bb 00       		.byte	0
 2601 01bc 03       		.uleb128 0x3
 2602 01bd 72020000 		.4byte	.LASF33
 2603 01c1 1C       		.byte	0x1c
 2604 01c2 04       		.byte	0x4
 2605 01c3 40       		.byte	0x40
 2606 01c4 44020000 		.4byte	0x244
 2607 01c8 0A       		.uleb128 0xa
 2608 01c9 98020000 		.4byte	.LASF34
 2609 01cd 04       		.byte	0x4
 2610 01ce 42       		.byte	0x42
ARM GAS  C:\Users\haske\AppData\Local\Temp\ccg6iOQH.s 			page 73


 2611 01cf 85020000 		.4byte	0x285
 2612 01d3 00       		.byte	0
 2613 01d4 0A       		.uleb128 0xa
 2614 01d5 22000000 		.4byte	.LASF35
 2615 01d9 04       		.byte	0x4
 2616 01da 45       		.byte	0x45
 2617 01db AA020000 		.4byte	0x2aa
 2618 01df 04       		.byte	0x4
 2619 01e0 0A       		.uleb128 0xa
 2620 01e1 E9020000 		.4byte	.LASF36
 2621 01e5 04       		.byte	0x4
 2622 01e6 48       		.byte	0x48
 2623 01e7 08010000 		.4byte	0x108
 2624 01eb 08       		.byte	0x8
 2625 01ec 0A       		.uleb128 0xa
 2626 01ed 2B040000 		.4byte	.LASF37
 2627 01f1 04       		.byte	0x4
 2628 01f2 49       		.byte	0x49
 2629 01f3 08010000 		.4byte	0x108
 2630 01f7 0A       		.byte	0xa
 2631 01f8 0C       		.uleb128 0xc
 2632 01f9 07030000 		.4byte	.LASF38
 2633 01fd 04       		.byte	0x4
 2634 01fe 4A       		.byte	0x4a
 2635 01ff DC000000 		.4byte	0xdc
 2636 0203 01       		.byte	0x1
 2637 0204 02       		.byte	0x2
 2638 0205 06       		.byte	0x6
 2639 0206 0C       		.byte	0xc
 2640 0207 0A       		.uleb128 0xa
 2641 0208 BD060000 		.4byte	.LASF39
 2642 020c 04       		.byte	0x4
 2643 020d 4C       		.byte	0x4c
 2644 020e D1000000 		.4byte	0xd1
 2645 0212 0D       		.byte	0xd
 2646 0213 0A       		.uleb128 0xa
 2647 0214 EB040000 		.4byte	.LASF40
 2648 0218 04       		.byte	0x4
 2649 0219 4D       		.byte	0x4d
 2650 021a D1000000 		.4byte	0xd1
 2651 021e 0E       		.byte	0xe
 2652 021f 09       		.uleb128 0x9
 2653 0220 64736300 		.ascii	"dsc\000"
 2654 0224 04       		.byte	0x4
 2655 0225 4F       		.byte	0x4f
 2656 0226 B0020000 		.4byte	0x2b0
 2657 022a 10       		.byte	0x10
 2658 022b 0A       		.uleb128 0xa
 2659 022c 83060000 		.4byte	.LASF41
 2660 0230 04       		.byte	0x4
 2661 0231 50       		.byte	0x50
 2662 0232 44020000 		.4byte	0x244
 2663 0236 14       		.byte	0x14
 2664 0237 0A       		.uleb128 0xa
 2665 0238 0C000000 		.4byte	.LASF42
 2666 023c 04       		.byte	0x4
 2667 023d 52       		.byte	0x52
ARM GAS  C:\Users\haske\AppData\Local\Temp\ccg6iOQH.s 			page 74


 2668 023e 47000000 		.4byte	0x47
 2669 0242 18       		.byte	0x18
 2670 0243 00       		.byte	0
 2671 0244 0D       		.uleb128 0xd
 2672 0245 04       		.byte	0x4
 2673 0246 4A020000 		.4byte	0x24a
 2674 024a 0E       		.uleb128 0xe
 2675 024b BC010000 		.4byte	0x1bc
 2676 024f 02       		.uleb128 0x2
 2677 0250 3A030000 		.4byte	.LASF43
 2678 0254 04       		.byte	0x4
 2679 0255 33       		.byte	0x33
 2680 0256 4D010000 		.4byte	0x14d
 2681 025a 0F       		.uleb128 0xf
 2682 025b 78020000 		.4byte	0x278
 2683 025f 78020000 		.4byte	0x278
 2684 0263 10       		.uleb128 0x10
 2685 0264 44020000 		.4byte	0x244
 2686 0268 10       		.uleb128 0x10
 2687 0269 7F020000 		.4byte	0x27f
 2688 026d 10       		.uleb128 0x10
 2689 026e FD000000 		.4byte	0xfd
 2690 0272 10       		.uleb128 0x10
 2691 0273 FD000000 		.4byte	0xfd
 2692 0277 00       		.byte	0
 2693 0278 06       		.uleb128 0x6
 2694 0279 01       		.byte	0x1
 2695 027a 02       		.byte	0x2
 2696 027b 66040000 		.4byte	.LASF44
 2697 027f 0D       		.uleb128 0xd
 2698 0280 04       		.byte	0x4
 2699 0281 4F020000 		.4byte	0x24f
 2700 0285 0D       		.uleb128 0xd
 2701 0286 04       		.byte	0x4
 2702 0287 5A020000 		.4byte	0x25a
 2703 028b 0F       		.uleb128 0xf
 2704 028c 9F020000 		.4byte	0x29f
 2705 0290 9F020000 		.4byte	0x29f
 2706 0294 10       		.uleb128 0x10
 2707 0295 44020000 		.4byte	0x244
 2708 0299 10       		.uleb128 0x10
 2709 029a FD000000 		.4byte	0xfd
 2710 029e 00       		.byte	0
 2711 029f 0D       		.uleb128 0xd
 2712 02a0 04       		.byte	0x4
 2713 02a1 A5020000 		.4byte	0x2a5
 2714 02a5 0E       		.uleb128 0xe
 2715 02a6 DC000000 		.4byte	0xdc
 2716 02aa 0D       		.uleb128 0xd
 2717 02ab 04       		.byte	0x4
 2718 02ac 8B020000 		.4byte	0x28b
 2719 02b0 0D       		.uleb128 0xd
 2720 02b1 04       		.byte	0x4
 2721 02b2 B6020000 		.4byte	0x2b6
 2722 02b6 11       		.uleb128 0x11
 2723 02b7 02       		.uleb128 0x2
 2724 02b8 C2000000 		.4byte	.LASF45
ARM GAS  C:\Users\haske\AppData\Local\Temp\ccg6iOQH.s 			page 75


 2725 02bc 04       		.byte	0x4
 2726 02bd 54       		.byte	0x54
 2727 02be BC010000 		.4byte	0x1bc
 2728 02c2 0D       		.uleb128 0xd
 2729 02c3 04       		.byte	0x4
 2730 02c4 CF020000 		.4byte	0x2cf
 2731 02c8 06       		.uleb128 0x6
 2732 02c9 01       		.byte	0x1
 2733 02ca 08       		.byte	0x8
 2734 02cb 35060000 		.4byte	.LASF46
 2735 02cf 0E       		.uleb128 0xe
 2736 02d0 C8020000 		.4byte	0x2c8
 2737 02d4 12       		.uleb128 0x12
 2738 02d5 01       		.byte	0x1
 2739 02d6 71000000 		.4byte	0x71
 2740 02da 03       		.byte	0x3
 2741 02db 2A       		.byte	0x2a
 2742 02dc F9020000 		.4byte	0x2f9
 2743 02e0 13       		.uleb128 0x13
 2744 02e1 23070000 		.4byte	.LASF47
 2745 02e5 00       		.byte	0
 2746 02e6 13       		.uleb128 0x13
 2747 02e7 33000000 		.4byte	.LASF48
 2748 02eb 01       		.byte	0x1
 2749 02ec 13       		.uleb128 0x13
 2750 02ed E4010000 		.4byte	.LASF49
 2751 02f1 02       		.byte	0x2
 2752 02f2 13       		.uleb128 0x13
 2753 02f3 29030000 		.4byte	.LASF50
 2754 02f7 04       		.byte	0x4
 2755 02f8 00       		.byte	0
 2756 02f9 02       		.uleb128 0x2
 2757 02fa 63020000 		.4byte	.LASF51
 2758 02fe 03       		.byte	0x3
 2759 02ff 30       		.byte	0x30
 2760 0300 DC000000 		.4byte	0xdc
 2761 0304 12       		.uleb128 0x12
 2762 0305 01       		.byte	0x1
 2763 0306 71000000 		.4byte	0x71
 2764 030a 03       		.byte	0x3
 2765 030b 34       		.byte	0x34
 2766 030c 23030000 		.4byte	0x323
 2767 0310 13       		.uleb128 0x13
 2768 0311 75000000 		.4byte	.LASF52
 2769 0315 00       		.byte	0
 2770 0316 13       		.uleb128 0x13
 2771 0317 F8010000 		.4byte	.LASF53
 2772 031b 01       		.byte	0x1
 2773 031c 13       		.uleb128 0x13
 2774 031d CC000000 		.4byte	.LASF54
 2775 0321 02       		.byte	0x2
 2776 0322 00       		.byte	0
 2777 0323 02       		.uleb128 0x2
 2778 0324 0C080000 		.4byte	.LASF55
 2779 0328 03       		.byte	0x3
 2780 0329 39       		.byte	0x39
 2781 032a DC000000 		.4byte	0xdc
ARM GAS  C:\Users\haske\AppData\Local\Temp\ccg6iOQH.s 			page 76


 2782 032e 06       		.uleb128 0x6
 2783 032f 04       		.byte	0x4
 2784 0330 07       		.byte	0x7
 2785 0331 9B030000 		.4byte	.LASF56
 2786 0335 0D       		.uleb128 0xd
 2787 0336 04       		.byte	0x4
 2788 0337 C8020000 		.4byte	0x2c8
 2789 033b 0D       		.uleb128 0xd
 2790 033c 04       		.byte	0x4
 2791 033d DC000000 		.4byte	0xdc
 2792 0341 0D       		.uleb128 0xd
 2793 0342 04       		.byte	0x4
 2794 0343 FD000000 		.4byte	0xfd
 2795 0347 0D       		.uleb128 0xd
 2796 0348 04       		.byte	0x4
 2797 0349 4D030000 		.4byte	0x34d
 2798 034d 0E       		.uleb128 0xe
 2799 034e B7020000 		.4byte	0x2b7
 2800 0352 0D       		.uleb128 0xd
 2801 0353 04       		.byte	0x4
 2802 0354 30010000 		.4byte	0x130
 2803 0358 14       		.uleb128 0x14
 2804 0359 78050000 		.4byte	.LASF57
 2805 035d 02       		.byte	0x2
 2806 035e C2       		.byte	0xc2
 2807 035f 47000000 		.4byte	0x47
 2808 0363 03       		.byte	0x3
 2809 0364 9E030000 		.4byte	0x39e
 2810 0368 15       		.uleb128 0x15
 2811 0369 64737400 		.ascii	"dst\000"
 2812 036d 02       		.byte	0x2
 2813 036e C2       		.byte	0xc2
 2814 036f 47000000 		.4byte	0x47
 2815 0373 15       		.uleb128 0x15
 2816 0374 73726300 		.ascii	"src\000"
 2817 0378 02       		.byte	0x2
 2818 0379 C2       		.byte	0xc2
 2819 037a B0020000 		.4byte	0x2b0
 2820 037e 15       		.uleb128 0x15
 2821 037f 6C656E00 		.ascii	"len\000"
 2822 0383 02       		.byte	0x2
 2823 0384 C2       		.byte	0xc2
 2824 0385 3B010000 		.4byte	0x13b
 2825 0389 16       		.uleb128 0x16
 2826 038a 643800   		.ascii	"d8\000"
 2827 038d 02       		.byte	0x2
 2828 038e C4       		.byte	0xc4
 2829 038f 3B030000 		.4byte	0x33b
 2830 0393 16       		.uleb128 0x16
 2831 0394 733800   		.ascii	"s8\000"
 2832 0397 02       		.byte	0x2
 2833 0398 C5       		.byte	0xc5
 2834 0399 9F020000 		.4byte	0x29f
 2835 039d 00       		.byte	0
 2836 039e 14       		.uleb128 0x14
 2837 039f 04040000 		.4byte	.LASF58
 2838 03a3 03       		.byte	0x3
ARM GAS  C:\Users\haske\AppData\Local\Temp\ccg6iOQH.s 			page 77


 2839 03a4 A5       		.byte	0xa5
 2840 03a5 78020000 		.4byte	0x278
 2841 03a9 03       		.byte	0x3
 2842 03aa CE030000 		.4byte	0x3ce
 2843 03ae 17       		.uleb128 0x17
 2844 03af 4A060000 		.4byte	.LASF59
 2845 03b3 03       		.byte	0x3
 2846 03b4 A5       		.byte	0xa5
 2847 03b5 FD000000 		.4byte	0xfd
 2848 03b9 16       		.uleb128 0x16
 2849 03ba 6900     		.ascii	"i\000"
 2850 03bc 03       		.byte	0x3
 2851 03bd A7       		.byte	0xa7
 2852 03be DC000000 		.4byte	0xdc
 2853 03c2 16       		.uleb128 0x16
 2854 03c3 72657400 		.ascii	"ret\000"
 2855 03c7 03       		.byte	0x3
 2856 03c8 A8       		.byte	0xa8
 2857 03c9 78020000 		.4byte	0x278
 2858 03cd 00       		.byte	0
 2859 03ce 14       		.uleb128 0x14
 2860 03cf D3040000 		.4byte	.LASF60
 2861 03d3 04       		.byte	0x4
 2862 03d4 7C       		.byte	0x7c
 2863 03d5 08010000 		.4byte	0x108
 2864 03d9 03       		.byte	0x3
 2865 03da EA030000 		.4byte	0x3ea
 2866 03de 17       		.uleb128 0x17
 2867 03df 1A040000 		.4byte	.LASF61
 2868 03e3 04       		.byte	0x4
 2869 03e4 7C       		.byte	0x7c
 2870 03e5 47030000 		.4byte	0x347
 2871 03e9 00       		.byte	0
 2872 03ea 18       		.uleb128 0x18
 2873 03eb BF020000 		.4byte	.LASF62
 2874 03ef 01       		.byte	0x1
 2875 03f0 FD01     		.2byte	0x1fd
 2876 03f2 DC000000 		.4byte	0xdc
 2877 03f6 00000000 		.4byte	.LFB64
 2878 03fa 38000000 		.4byte	.LFE64-.LFB64
 2879 03fe 01       		.uleb128 0x1
 2880 03ff 9C       		.byte	0x9c
 2881 0400 15040000 		.4byte	0x415
 2882 0404 19       		.uleb128 0x19
 2883 0405 73747200 		.ascii	"str\000"
 2884 0409 01       		.byte	0x1
 2885 040a FD01     		.2byte	0x1fd
 2886 040c C2020000 		.4byte	0x2c2
 2887 0410 00000000 		.4byte	.LLST0
 2888 0414 00       		.byte	0
 2889 0415 18       		.uleb128 0x18
 2890 0416 51060000 		.4byte	.LASF63
 2891 041a 01       		.byte	0x1
 2892 041b 0F02     		.2byte	0x20f
 2893 041d FD000000 		.4byte	0xfd
 2894 0421 00000000 		.4byte	.LFB65
 2895 0425 A4000000 		.4byte	.LFE65-.LFB65
ARM GAS  C:\Users\haske\AppData\Local\Temp\ccg6iOQH.s 			page 78


 2896 0429 01       		.uleb128 0x1
 2897 042a 9C       		.byte	0x9c
 2898 042b 5F040000 		.4byte	0x45f
 2899 042f 1A       		.uleb128 0x1a
 2900 0430 8C000000 		.4byte	.LASF64
 2901 0434 01       		.byte	0x1
 2902 0435 0F02     		.2byte	0x20f
 2903 0437 FD000000 		.4byte	0xfd
 2904 043b 85000000 		.4byte	.LLST1
 2905 043f 1B       		.uleb128 0x1b
 2906 0440 D3010000 		.4byte	.LASF65
 2907 0444 01       		.byte	0x1
 2908 0445 1202     		.2byte	0x212
 2909 0447 5F040000 		.4byte	0x45f
 2910 044b 02       		.uleb128 0x2
 2911 044c 91       		.byte	0x91
 2912 044d 74       		.sleb128 -12
 2913 044e 1C       		.uleb128 0x1c
 2914 044f CD040000 		.4byte	.LASF66
 2915 0453 01       		.byte	0x1
 2916 0454 2A02     		.2byte	0x22a
 2917 0456 41030000 		.4byte	0x341
 2918 045a F1000000 		.4byte	.LLST2
 2919 045e 00       		.byte	0
 2920 045f 1D       		.uleb128 0x1d
 2921 0460 DC000000 		.4byte	0xdc
 2922 0464 6F040000 		.4byte	0x46f
 2923 0468 1E       		.uleb128 0x1e
 2924 0469 2E030000 		.4byte	0x32e
 2925 046d 03       		.byte	0x3
 2926 046e 00       		.byte	0
 2927 046f 18       		.uleb128 0x18
 2928 0470 97000000 		.4byte	.LASF67
 2929 0474 01       		.byte	0x1
 2930 0475 3302     		.2byte	0x233
 2931 0477 FD000000 		.4byte	0xfd
 2932 047b 00000000 		.4byte	.LFB66
 2933 047f 54000000 		.4byte	.LFE66-.LFB66
 2934 0483 01       		.uleb128 0x1
 2935 0484 9C       		.byte	0x9c
 2936 0485 0A050000 		.4byte	0x50a
 2937 0489 19       		.uleb128 0x19
 2938 048a 6300     		.ascii	"c\000"
 2939 048c 01       		.byte	0x1
 2940 048d 3302     		.2byte	0x233
 2941 048f FD000000 		.4byte	0xfd
 2942 0493 06010000 		.4byte	.LLST3
 2943 0497 1F       		.uleb128 0x1f
 2944 0498 00000000 		.4byte	.Ldebug_ranges0+0
 2945 049c 1C       		.uleb128 0x1c
 2946 049d C5040000 		.4byte	.LASF68
 2947 04a1 01       		.byte	0x1
 2948 04a2 3802     		.2byte	0x238
 2949 04a4 FD000000 		.4byte	0xfd
 2950 04a8 40010000 		.4byte	.LLST4
 2951 04ac 20       		.uleb128 0x20
 2952 04ad 633800   		.ascii	"c8\000"
ARM GAS  C:\Users\haske\AppData\Local\Temp\ccg6iOQH.s 			page 79


 2953 04b0 01       		.byte	0x1
 2954 04b1 3902     		.2byte	0x239
 2955 04b3 5F040000 		.4byte	0x45f
 2956 04b7 02       		.uleb128 0x2
 2957 04b8 91       		.byte	0x91
 2958 04b9 7C       		.sleb128 -4
 2959 04ba 21       		.uleb128 0x21
 2960 04bb 6900     		.ascii	"i\000"
 2961 04bd 01       		.byte	0x1
 2962 04be 3C02     		.2byte	0x23c
 2963 04c0 DC000000 		.4byte	0xdc
 2964 04c4 53010000 		.4byte	.LLST5
 2965 04c8 22       		.uleb128 0x22
 2966 04c9 58030000 		.4byte	0x358
 2967 04cd 0C000000 		.4byte	.LBB13
 2968 04d1 18000000 		.4byte	.Ldebug_ranges0+0x18
 2969 04d5 01       		.byte	0x1
 2970 04d6 3A02     		.2byte	0x23a
 2971 04d8 23       		.uleb128 0x23
 2972 04d9 7E030000 		.4byte	0x37e
 2973 04dd 7D010000 		.4byte	.LLST6
 2974 04e1 24       		.uleb128 0x24
 2975 04e2 73030000 		.4byte	0x373
 2976 04e6 01       		.uleb128 0x1
 2977 04e7 51       		.byte	0x51
 2978 04e8 24       		.uleb128 0x24
 2979 04e9 68030000 		.4byte	0x368
 2980 04ed 01       		.uleb128 0x1
 2981 04ee 52       		.byte	0x52
 2982 04ef 1F       		.uleb128 0x1f
 2983 04f0 18000000 		.4byte	.Ldebug_ranges0+0x18
 2984 04f4 25       		.uleb128 0x25
 2985 04f5 89030000 		.4byte	0x389
 2986 04f9 9B010000 		.4byte	.LLST7
 2987 04fd 25       		.uleb128 0x25
 2988 04fe 93030000 		.4byte	0x393
 2989 0502 B9010000 		.4byte	.LLST8
 2990 0506 00       		.byte	0
 2991 0507 00       		.byte	0
 2992 0508 00       		.byte	0
 2993 0509 00       		.byte	0
 2994 050a 18       		.uleb128 0x18
 2995 050b 1D050000 		.4byte	.LASF69
 2996 050f 01       		.byte	0x1
 2997 0510 4F02     		.2byte	0x24f
 2998 0512 FD000000 		.4byte	0xfd
 2999 0516 00000000 		.4byte	.LFB67
 3000 051a 1C010000 		.4byte	.LFE67-.LFB67
 3001 051e 01       		.uleb128 0x1
 3002 051f 9C       		.byte	0x9c
 3003 0520 62050000 		.4byte	0x562
 3004 0524 19       		.uleb128 0x19
 3005 0525 74787400 		.ascii	"txt\000"
 3006 0529 01       		.byte	0x1
 3007 052a 4F02     		.2byte	0x24f
 3008 052c C2020000 		.4byte	0x2c2
 3009 0530 D7010000 		.4byte	.LLST9
ARM GAS  C:\Users\haske\AppData\Local\Temp\ccg6iOQH.s 			page 80


 3010 0534 19       		.uleb128 0x19
 3011 0535 6900     		.ascii	"i\000"
 3012 0537 01       		.byte	0x1
 3013 0538 4F02     		.2byte	0x24f
 3014 053a 41030000 		.4byte	0x341
 3015 053e A7020000 		.4byte	.LLST10
 3016 0542 1C       		.uleb128 0x1c
 3017 0543 FC070000 		.4byte	.LASF70
 3018 0547 01       		.byte	0x1
 3019 0548 5902     		.2byte	0x259
 3020 054a FD000000 		.4byte	0xfd
 3021 054e C5020000 		.4byte	.LLST11
 3022 0552 1B       		.uleb128 0x1b
 3023 0553 F3030000 		.4byte	.LASF71
 3024 0557 01       		.byte	0x1
 3025 0558 5C02     		.2byte	0x25c
 3026 055a FD000000 		.4byte	0xfd
 3027 055e 02       		.uleb128 0x2
 3028 055f 91       		.byte	0x91
 3029 0560 6C       		.sleb128 -20
 3030 0561 00       		.byte	0
 3031 0562 26       		.uleb128 0x26
 3032 0563 7A040000 		.4byte	.LASF72
 3033 0567 01       		.byte	0x1
 3034 0568 9A02     		.2byte	0x29a
 3035 056a FD000000 		.4byte	0xfd
 3036 056e 00000000 		.4byte	.LFB68
 3037 0572 50000000 		.4byte	.LFE68-.LFB68
 3038 0576 01       		.uleb128 0x1
 3039 0577 9C       		.byte	0x9c
 3040 0578 E8050000 		.4byte	0x5e8
 3041 057c 19       		.uleb128 0x19
 3042 057d 74787400 		.ascii	"txt\000"
 3043 0581 01       		.byte	0x1
 3044 0582 9A02     		.2byte	0x29a
 3045 0584 C2020000 		.4byte	0x2c2
 3046 0588 A7030000 		.4byte	.LLST12
 3047 058c 19       		.uleb128 0x19
 3048 058d 6900     		.ascii	"i\000"
 3049 058f 01       		.byte	0x1
 3050 0590 9A02     		.2byte	0x29a
 3051 0592 41030000 		.4byte	0x341
 3052 0596 D3030000 		.4byte	.LLST13
 3053 059a 1C       		.uleb128 0x1c
 3054 059b D0060000 		.4byte	.LASF73
 3055 059f 01       		.byte	0x1
 3056 05a0 9C02     		.2byte	0x29c
 3057 05a2 DC000000 		.4byte	0xdc
 3058 05a6 FF030000 		.4byte	.LLST14
 3059 05aa 21       		.uleb128 0x21
 3060 05ab 636E7400 		.ascii	"cnt\000"
 3061 05af 01       		.byte	0x1
 3062 05b0 9D02     		.2byte	0x29d
 3063 05b2 DC000000 		.4byte	0xdc
 3064 05b6 1D040000 		.4byte	.LLST15
 3065 05ba 1B       		.uleb128 0x1b
 3066 05bb F3030000 		.4byte	.LASF71
ARM GAS  C:\Users\haske\AppData\Local\Temp\ccg6iOQH.s 			page 81


 3067 05bf 01       		.byte	0x1
 3068 05c0 AE02     		.2byte	0x2ae
 3069 05c2 FD000000 		.4byte	0xfd
 3070 05c6 02       		.uleb128 0x2
 3071 05c7 91       		.byte	0x91
 3072 05c8 6C       		.sleb128 -20
 3073 05c9 27       		.uleb128 0x27
 3074 05ca 4A060000 		.4byte	.LASF59
 3075 05ce 01       		.byte	0x1
 3076 05cf AF02     		.2byte	0x2af
 3077 05d1 FD000000 		.4byte	0xfd
 3078 05d5 28       		.uleb128 0x28
 3079 05d6 42000000 		.4byte	.LVL78
 3080 05da 29       		.uleb128 0x29
 3081 05db 01       		.uleb128 0x1
 3082 05dc 50       		.byte	0x50
 3083 05dd 02       		.uleb128 0x2
 3084 05de 76       		.byte	0x76
 3085 05df 00       		.sleb128 0
 3086 05e0 29       		.uleb128 0x29
 3087 05e1 01       		.uleb128 0x1
 3088 05e2 51       		.byte	0x51
 3089 05e3 02       		.uleb128 0x2
 3090 05e4 91       		.byte	0x91
 3091 05e5 6C       		.sleb128 -20
 3092 05e6 00       		.byte	0
 3093 05e7 00       		.byte	0
 3094 05e8 26       		.uleb128 0x26
 3095 05e9 E4070000 		.4byte	.LASF74
 3096 05ed 01       		.byte	0x1
 3097 05ee BB02     		.2byte	0x2bb
 3098 05f0 FD000000 		.4byte	0xfd
 3099 05f4 00000000 		.4byte	.LFB69
 3100 05f8 30000000 		.4byte	.LFE69-.LFB69
 3101 05fc 01       		.uleb128 0x1
 3102 05fd 9C       		.byte	0x9c
 3103 05fe 5B060000 		.4byte	0x65b
 3104 0602 19       		.uleb128 0x19
 3105 0603 74787400 		.ascii	"txt\000"
 3106 0607 01       		.byte	0x1
 3107 0608 BB02     		.2byte	0x2bb
 3108 060a C2020000 		.4byte	0x2c2
 3109 060e 47040000 		.4byte	.LLST16
 3110 0612 1A       		.uleb128 0x1a
 3111 0613 CB010000 		.4byte	.LASF75
 3112 0617 01       		.byte	0x1
 3113 0618 BB02     		.2byte	0x2bb
 3114 061a FD000000 		.4byte	0xfd
 3115 061e 73040000 		.4byte	.LLST17
 3116 0622 21       		.uleb128 0x21
 3117 0623 6900     		.ascii	"i\000"
 3118 0625 01       		.byte	0x1
 3119 0626 BD02     		.2byte	0x2bd
 3120 0628 FD000000 		.4byte	0xfd
 3121 062c 9F040000 		.4byte	.LLST18
 3122 0630 1C       		.uleb128 0x1c
 3123 0631 26020000 		.4byte	.LASF76
ARM GAS  C:\Users\haske\AppData\Local\Temp\ccg6iOQH.s 			page 82


 3124 0635 01       		.byte	0x1
 3125 0636 BE02     		.2byte	0x2be
 3126 0638 FD000000 		.4byte	0xfd
 3127 063c BE040000 		.4byte	.LLST19
 3128 0640 2A       		.uleb128 0x2a
 3129 0641 0C000000 		.4byte	.LBB18
 3130 0645 0E000000 		.4byte	.LBE18-.LBB18
 3131 0649 1C       		.uleb128 0x1c
 3132 064a D0060000 		.4byte	.LASF73
 3133 064e 01       		.byte	0x1
 3134 064f C002     		.2byte	0x2c0
 3135 0651 DC000000 		.4byte	0xdc
 3136 0655 E8040000 		.4byte	.LLST20
 3137 0659 00       		.byte	0
 3138 065a 00       		.byte	0
 3139 065b 18       		.uleb128 0x18
 3140 065c BB030000 		.4byte	.LASF77
 3141 0660 01       		.byte	0x1
 3142 0661 CF02     		.2byte	0x2cf
 3143 0663 FD000000 		.4byte	0xfd
 3144 0667 00000000 		.4byte	.LFB70
 3145 066b 2C000000 		.4byte	.LFE70-.LFB70
 3146 066f 01       		.uleb128 0x1
 3147 0670 9C       		.byte	0x9c
 3148 0671 C5060000 		.4byte	0x6c5
 3149 0675 19       		.uleb128 0x19
 3150 0676 74787400 		.ascii	"txt\000"
 3151 067a 01       		.byte	0x1
 3152 067b CF02     		.2byte	0x2cf
 3153 067d C2020000 		.4byte	0x2c2
 3154 0681 FB040000 		.4byte	.LLST21
 3155 0685 1A       		.uleb128 0x1a
 3156 0686 8D070000 		.4byte	.LASF78
 3157 068a 01       		.byte	0x1
 3158 068b CF02     		.2byte	0x2cf
 3159 068d FD000000 		.4byte	0xfd
 3160 0691 27050000 		.4byte	.LLST22
 3161 0695 20       		.uleb128 0x20
 3162 0696 6900     		.ascii	"i\000"
 3163 0698 01       		.byte	0x1
 3164 0699 D102     		.2byte	0x2d1
 3165 069b FD000000 		.4byte	0xfd
 3166 069f 02       		.uleb128 0x2
 3167 06a0 91       		.byte	0x91
 3168 06a1 6C       		.sleb128 -20
 3169 06a2 1C       		.uleb128 0x1c
 3170 06a3 03080000 		.4byte	.LASF79
 3171 06a7 01       		.byte	0x1
 3172 06a8 D202     		.2byte	0x2d2
 3173 06aa FD000000 		.4byte	0xfd
 3174 06ae 53050000 		.4byte	.LLST23
 3175 06b2 28       		.uleb128 0x28
 3176 06b3 1A000000 		.4byte	.LVL96
 3177 06b7 29       		.uleb128 0x29
 3178 06b8 01       		.uleb128 0x1
 3179 06b9 50       		.byte	0x50
 3180 06ba 02       		.uleb128 0x2
ARM GAS  C:\Users\haske\AppData\Local\Temp\ccg6iOQH.s 			page 83


 3181 06bb 75       		.byte	0x75
 3182 06bc 00       		.sleb128 0
 3183 06bd 29       		.uleb128 0x29
 3184 06be 01       		.uleb128 0x1
 3185 06bf 51       		.byte	0x51
 3186 06c0 02       		.uleb128 0x2
 3187 06c1 91       		.byte	0x91
 3188 06c2 6C       		.sleb128 -20
 3189 06c3 00       		.byte	0
 3190 06c4 00       		.byte	0
 3191 06c5 18       		.uleb128 0x18
 3192 06c6 E5060000 		.4byte	.LASF80
 3193 06ca 01       		.byte	0x1
 3194 06cb E202     		.2byte	0x2e2
 3195 06cd FD000000 		.4byte	0xfd
 3196 06d1 00000000 		.4byte	.LFB71
 3197 06d5 2C000000 		.4byte	.LFE71-.LFB71
 3198 06d9 01       		.uleb128 0x1
 3199 06da 9C       		.byte	0x9c
 3200 06db 1F070000 		.4byte	0x71f
 3201 06df 19       		.uleb128 0x19
 3202 06e0 74787400 		.ascii	"txt\000"
 3203 06e4 01       		.byte	0x1
 3204 06e5 E202     		.2byte	0x2e2
 3205 06e7 C2020000 		.4byte	0x2c2
 3206 06eb 7D050000 		.4byte	.LLST24
 3207 06ef 21       		.uleb128 0x21
 3208 06f0 6C656E00 		.ascii	"len\000"
 3209 06f4 01       		.byte	0x1
 3210 06f5 E402     		.2byte	0x2e4
 3211 06f7 FD000000 		.4byte	0xfd
 3212 06fb A9050000 		.4byte	.LLST25
 3213 06ff 20       		.uleb128 0x20
 3214 0700 6900     		.ascii	"i\000"
 3215 0702 01       		.byte	0x1
 3216 0703 E502     		.2byte	0x2e5
 3217 0705 FD000000 		.4byte	0xfd
 3218 0709 02       		.uleb128 0x2
 3219 070a 91       		.byte	0x91
 3220 070b 6C       		.sleb128 -20
 3221 070c 28       		.uleb128 0x28
 3222 070d 18000000 		.4byte	.LVL104
 3223 0711 29       		.uleb128 0x29
 3224 0712 01       		.uleb128 0x1
 3225 0713 50       		.byte	0x50
 3226 0714 02       		.uleb128 0x2
 3227 0715 75       		.byte	0x75
 3228 0716 00       		.sleb128 0
 3229 0717 29       		.uleb128 0x29
 3230 0718 01       		.uleb128 0x1
 3231 0719 51       		.byte	0x51
 3232 071a 02       		.uleb128 0x2
 3233 071b 91       		.byte	0x91
 3234 071c 6C       		.sleb128 -20
 3235 071d 00       		.byte	0
 3236 071e 00       		.byte	0
 3237 071f 2B       		.uleb128 0x2b
ARM GAS  C:\Users\haske\AppData\Local\Temp\ccg6iOQH.s 			page 84


 3238 0720 B6040000 		.4byte	.LASF98
 3239 0724 01       		.byte	0x1
 3240 0725 7E01     		.2byte	0x17e
 3241 0727 78020000 		.4byte	0x278
 3242 072b 00000000 		.4byte	.LFB59
 3243 072f 44000000 		.4byte	.LFE59-.LFB59
 3244 0733 01       		.uleb128 0x1
 3245 0734 9C       		.byte	0x9c
 3246 0735 66070000 		.4byte	0x766
 3247 0739 1A       		.uleb128 0x1a
 3248 073a 78010000 		.4byte	.LASF81
 3249 073e 01       		.byte	0x1
 3250 073f 7E01     		.2byte	0x17e
 3251 0741 66070000 		.4byte	0x766
 3252 0745 D3050000 		.4byte	.LLST26
 3253 0749 2C       		.uleb128 0x2c
 3254 074a 6300     		.ascii	"c\000"
 3255 074c 01       		.byte	0x1
 3256 074d 7E01     		.2byte	0x17e
 3257 074f FD000000 		.4byte	0xfd
 3258 0753 01       		.uleb128 0x1
 3259 0754 51       		.byte	0x51
 3260 0755 21       		.uleb128 0x21
 3261 0756 72657400 		.ascii	"ret\000"
 3262 075a 01       		.byte	0x1
 3263 075b 8001     		.2byte	0x180
 3264 075d 78020000 		.4byte	0x278
 3265 0761 F4050000 		.4byte	.LLST27
 3266 0765 00       		.byte	0
 3267 0766 0D       		.uleb128 0xd
 3268 0767 04       		.byte	0x4
 3269 0768 23030000 		.4byte	0x323
 3270 076c 2D       		.uleb128 0x2d
 3271 076d 35040000 		.4byte	.LASF82
 3272 0771 01       		.byte	0x1
 3273 0772 AB       		.byte	0xab
 3274 0773 FD000000 		.4byte	0xfd
 3275 0777 00000000 		.4byte	.LFB56
 3276 077b 9C010000 		.4byte	.LFE56-.LFB56
 3277 077f 01       		.uleb128 0x1
 3278 0780 9C       		.byte	0x9c
 3279 0781 2A090000 		.4byte	0x92a
 3280 0785 2E       		.uleb128 0x2e
 3281 0786 74787400 		.ascii	"txt\000"
 3282 078a 01       		.byte	0x1
 3283 078b AB       		.byte	0xab
 3284 078c C2020000 		.4byte	0x2c2
 3285 0790 4E060000 		.4byte	.LLST28
 3286 0794 2F       		.uleb128 0x2f
 3287 0795 FC060000 		.4byte	.LASF83
 3288 0799 01       		.byte	0x1
 3289 079a AB       		.byte	0xab
 3290 079b 47030000 		.4byte	0x347
 3291 079f BC060000 		.4byte	.LLST29
 3292 07a3 2F       		.uleb128 0x2f
 3293 07a4 DB030000 		.4byte	.LASF84
 3294 07a8 01       		.byte	0x1
ARM GAS  C:\Users\haske\AppData\Local\Temp\ccg6iOQH.s 			page 85


 3295 07a9 AC       		.byte	0xac
 3296 07aa 08010000 		.4byte	0x108
 3297 07ae F2060000 		.4byte	.LLST30
 3298 07b2 2F       		.uleb128 0x2f
 3299 07b3 21040000 		.4byte	.LASF85
 3300 07b7 01       		.byte	0x1
 3301 07b8 AC       		.byte	0xac
 3302 07b9 08010000 		.4byte	0x108
 3303 07bd 2C070000 		.4byte	.LLST31
 3304 07c1 2F       		.uleb128 0x2f
 3305 07c2 B1040000 		.4byte	.LASF86
 3306 07c6 01       		.byte	0x1
 3307 07c7 AD       		.byte	0xad
 3308 07c8 F9020000 		.4byte	0x2f9
 3309 07cc 73070000 		.4byte	.LLST32
 3310 07d0 2F       		.uleb128 0x2f
 3311 07d1 E8030000 		.4byte	.LASF87
 3312 07d5 01       		.byte	0x1
 3313 07d6 AD       		.byte	0xad
 3314 07d7 41030000 		.4byte	0x341
 3315 07db 9F070000 		.4byte	.LLST33
 3316 07df 2F       		.uleb128 0x2f
 3317 07e0 2F020000 		.4byte	.LASF88
 3318 07e4 01       		.byte	0x1
 3319 07e5 AD       		.byte	0xad
 3320 07e6 66070000 		.4byte	0x766
 3321 07ea CB070000 		.4byte	.LLST34
 3322 07ee 2F       		.uleb128 0x2f
 3323 07ef D6070000 		.4byte	.LASF89
 3324 07f3 01       		.byte	0x1
 3325 07f4 AD       		.byte	0xad
 3326 07f5 78020000 		.4byte	0x278
 3327 07f9 F7070000 		.4byte	.LLST35
 3328 07fd 30       		.uleb128 0x30
 3329 07fe 6900     		.ascii	"i\000"
 3330 0800 01       		.byte	0x1
 3331 0801 B4       		.byte	0xb4
 3332 0802 FD000000 		.4byte	0xfd
 3333 0806 3B080000 		.4byte	.LLST36
 3334 080a 31       		.uleb128 0x31
 3335 080b BB010000 		.4byte	.LASF90
 3336 080f 01       		.byte	0x1
 3337 0810 B4       		.byte	0xb4
 3338 0811 FD000000 		.4byte	0xfd
 3339 0815 02       		.uleb128 0x2
 3340 0816 91       		.byte	0x91
 3341 0817 54       		.sleb128 -44
 3342 0818 31       		.uleb128 0x31
 3343 0819 00000000 		.4byte	.LASF91
 3344 081d 01       		.byte	0x1
 3345 081e B4       		.byte	0xb4
 3346 081f FD000000 		.4byte	0xfd
 3347 0823 02       		.uleb128 0x2
 3348 0824 91       		.byte	0x91
 3349 0825 50       		.sleb128 -48
 3350 0826 32       		.uleb128 0x32
 3351 0827 4A060000 		.4byte	.LASF59
ARM GAS  C:\Users\haske\AppData\Local\Temp\ccg6iOQH.s 			page 86


 3352 082b 01       		.byte	0x1
 3353 082c B5       		.byte	0xb5
 3354 082d FD000000 		.4byte	0xfd
 3355 0831 70080000 		.4byte	.LLST37
 3356 0835 32       		.uleb128 0x32
 3357 0836 16000000 		.4byte	.LASF92
 3358 083a 01       		.byte	0x1
 3359 083b B6       		.byte	0xb6
 3360 083c FD000000 		.4byte	0xfd
 3361 0840 D3080000 		.4byte	.LLST38
 3362 0844 32       		.uleb128 0x32
 3363 0845 6C000000 		.4byte	.LASF93
 3364 0849 01       		.byte	0x1
 3365 084a B7       		.byte	0xb7
 3366 084b 08010000 		.4byte	0x108
 3367 084f 2D090000 		.4byte	.LLST39
 3368 0853 32       		.uleb128 0x32
 3369 0854 41070000 		.4byte	.LASF94
 3370 0858 01       		.byte	0x1
 3371 0859 B8       		.byte	0xb8
 3372 085a 08010000 		.4byte	0x108
 3373 085e 40090000 		.4byte	.LLST40
 3374 0862 32       		.uleb128 0x32
 3375 0863 FE020000 		.4byte	.LASF95
 3376 0867 01       		.byte	0x1
 3377 0868 B9       		.byte	0xb9
 3378 0869 FD000000 		.4byte	0xfd
 3379 086d 6A090000 		.4byte	.LLST41
 3380 0871 32       		.uleb128 0x32
 3381 0872 87010000 		.4byte	.LASF96
 3382 0876 01       		.byte	0x1
 3383 0877 BA       		.byte	0xba
 3384 0878 FD000000 		.4byte	0xfd
 3385 087c C7090000 		.4byte	.LLST42
 3386 0880 32       		.uleb128 0x32
 3387 0881 FF040000 		.4byte	.LASF97
 3388 0885 01       		.byte	0x1
 3389 0886 BB       		.byte	0xbb
 3390 0887 FD000000 		.4byte	0xfd
 3391 088b F2090000 		.4byte	.LLST43
 3392 088f 33       		.uleb128 0x33
 3393 0890 9E030000 		.4byte	0x39e
 3394 0894 CC000000 		.4byte	.LBB19
 3395 0898 30000000 		.4byte	.Ldebug_ranges0+0x30
 3396 089c 01       		.byte	0x1
 3397 089d DE       		.byte	0xde
 3398 089e C4080000 		.4byte	0x8c4
 3399 08a2 23       		.uleb128 0x23
 3400 08a3 AE030000 		.4byte	0x3ae
 3401 08a7 120A0000 		.4byte	.LLST44
 3402 08ab 1F       		.uleb128 0x1f
 3403 08ac 30000000 		.4byte	.Ldebug_ranges0+0x30
 3404 08b0 25       		.uleb128 0x25
 3405 08b1 B9030000 		.4byte	0x3b9
 3406 08b5 250A0000 		.4byte	.LLST45
 3407 08b9 25       		.uleb128 0x25
 3408 08ba C2030000 		.4byte	0x3c2
ARM GAS  C:\Users\haske\AppData\Local\Temp\ccg6iOQH.s 			page 87


 3409 08be 4E0A0000 		.4byte	.LLST46
 3410 08c2 00       		.byte	0
 3411 08c3 00       		.byte	0
 3412 08c4 34       		.uleb128 0x34
 3413 08c5 54000000 		.4byte	.LVL127
 3414 08c9 DA080000 		.4byte	0x8da
 3415 08cd 29       		.uleb128 0x29
 3416 08ce 01       		.uleb128 0x1
 3417 08cf 50       		.byte	0x50
 3418 08d0 02       		.uleb128 0x2
 3419 08d1 76       		.byte	0x76
 3420 08d2 00       		.sleb128 0
 3421 08d3 29       		.uleb128 0x29
 3422 08d4 01       		.uleb128 0x1
 3423 08d5 51       		.byte	0x51
 3424 08d6 02       		.uleb128 0x2
 3425 08d7 91       		.byte	0x91
 3426 08d8 54       		.sleb128 -44
 3427 08d9 00       		.byte	0
 3428 08da 34       		.uleb128 0x34
 3429 08db 76000000 		.4byte	.LVL130
 3430 08df F0080000 		.4byte	0x8f0
 3431 08e3 29       		.uleb128 0x29
 3432 08e4 01       		.uleb128 0x1
 3433 08e5 50       		.byte	0x50
 3434 08e6 02       		.uleb128 0x2
 3435 08e7 76       		.byte	0x76
 3436 08e8 00       		.sleb128 0
 3437 08e9 29       		.uleb128 0x29
 3438 08ea 01       		.uleb128 0x1
 3439 08eb 51       		.byte	0x51
 3440 08ec 02       		.uleb128 0x2
 3441 08ed 91       		.byte	0x91
 3442 08ee 50       		.sleb128 -48
 3443 08ef 00       		.byte	0
 3444 08f0 35       		.uleb128 0x35
 3445 08f1 8C000000 		.4byte	.LVL135
 3446 08f5 1F070000 		.4byte	0x71f
 3447 08f9 0B090000 		.4byte	0x90b
 3448 08fd 29       		.uleb128 0x29
 3449 08fe 01       		.uleb128 0x1
 3450 08ff 50       		.byte	0x50
 3451 0900 03       		.uleb128 0x3
 3452 0901 91       		.byte	0x91
 3453 0902 08       		.sleb128 8
 3454 0903 06       		.byte	0x6
 3455 0904 29       		.uleb128 0x29
 3456 0905 01       		.uleb128 0x1
 3457 0906 51       		.byte	0x51
 3458 0907 02       		.uleb128 0x2
 3459 0908 74       		.byte	0x74
 3460 0909 00       		.sleb128 0
 3461 090a 00       		.byte	0
 3462 090b 36       		.uleb128 0x36
 3463 090c A2000000 		.4byte	.LVL139
 3464 0910 E4100000 		.4byte	0x10e4
 3465 0914 29       		.uleb128 0x29
ARM GAS  C:\Users\haske\AppData\Local\Temp\ccg6iOQH.s 			page 88


 3466 0915 01       		.uleb128 0x1
 3467 0916 50       		.byte	0x50
 3468 0917 03       		.uleb128 0x3
 3469 0918 91       		.byte	0x91
 3470 0919 44       		.sleb128 -60
 3471 091a 06       		.byte	0x6
 3472 091b 29       		.uleb128 0x29
 3473 091c 01       		.uleb128 0x1
 3474 091d 51       		.byte	0x51
 3475 091e 02       		.uleb128 0x2
 3476 091f 74       		.byte	0x74
 3477 0920 00       		.sleb128 0
 3478 0921 29       		.uleb128 0x29
 3479 0922 01       		.uleb128 0x1
 3480 0923 52       		.byte	0x52
 3481 0924 03       		.uleb128 0x3
 3482 0925 7D       		.byte	0x7d
 3483 0926 00       		.sleb128 0
 3484 0927 06       		.byte	0x6
 3485 0928 00       		.byte	0
 3486 0929 00       		.byte	0
 3487 092a 2B       		.uleb128 0x2b
 3488 092b 05010000 		.4byte	.LASF99
 3489 092f 01       		.byte	0x1
 3490 0930 1701     		.2byte	0x117
 3491 0932 FD000000 		.4byte	0xfd
 3492 0936 00000000 		.4byte	.LFB57
 3493 093a 24010000 		.4byte	.LFE57-.LFB57
 3494 093e 01       		.uleb128 0x1
 3495 093f 9C       		.byte	0x9c
 3496 0940 900A0000 		.4byte	0xa90
 3497 0944 19       		.uleb128 0x19
 3498 0945 74787400 		.ascii	"txt\000"
 3499 0949 01       		.byte	0x1
 3500 094a 1701     		.2byte	0x117
 3501 094c C2020000 		.4byte	0x2c2
 3502 0950 6E0A0000 		.4byte	.LLST47
 3503 0954 1A       		.uleb128 0x1a
 3504 0955 FC060000 		.4byte	.LASF83
 3505 0959 01       		.byte	0x1
 3506 095a 1701     		.2byte	0x117
 3507 095c 47030000 		.4byte	0x347
 3508 0960 080B0000 		.4byte	.LLST48
 3509 0964 1A       		.uleb128 0x1a
 3510 0965 DB030000 		.4byte	.LASF84
 3511 0969 01       		.byte	0x1
 3512 096a 1801     		.2byte	0x118
 3513 096c 08010000 		.4byte	0x108
 3514 0970 3E0B0000 		.4byte	.LLST49
 3515 0974 1A       		.uleb128 0x1a
 3516 0975 21040000 		.4byte	.LASF85
 3517 0979 01       		.byte	0x1
 3518 097a 1801     		.2byte	0x118
 3519 097c 08010000 		.4byte	0x108
 3520 0980 780B0000 		.4byte	.LLST50
 3521 0984 1A       		.uleb128 0x1a
 3522 0985 12050000 		.4byte	.LASF100
ARM GAS  C:\Users\haske\AppData\Local\Temp\ccg6iOQH.s 			page 89


 3523 0989 01       		.byte	0x1
 3524 098a 1901     		.2byte	0x119
 3525 098c 900A0000 		.4byte	0xa90
 3526 0990 BD0B0000 		.4byte	.LLST51
 3527 0994 1A       		.uleb128 0x1a
 3528 0995 B1040000 		.4byte	.LASF86
 3529 0999 01       		.byte	0x1
 3530 099a 1901     		.2byte	0x119
 3531 099c F9020000 		.4byte	0x2f9
 3532 09a0 F50B0000 		.4byte	.LLST52
 3533 09a4 1C       		.uleb128 0x1c
 3534 09a5 09070000 		.4byte	.LASF101
 3535 09a9 01       		.byte	0x1
 3536 09aa 2101     		.2byte	0x121
 3537 09ac 08010000 		.4byte	0x108
 3538 09b0 2D0C0000 		.4byte	.LLST53
 3539 09b4 1B       		.uleb128 0x1b
 3540 09b5 2F020000 		.4byte	.LASF88
 3541 09b9 01       		.byte	0x1
 3542 09ba 3001     		.2byte	0x130
 3543 09bc 23030000 		.4byte	0x323
 3544 09c0 02       		.uleb128 0x2
 3545 09c1 91       		.byte	0x91
 3546 09c2 67       		.sleb128 -25
 3547 09c3 20       		.uleb128 0x20
 3548 09c4 6900     		.ascii	"i\000"
 3549 09c6 01       		.byte	0x1
 3550 09c7 3101     		.2byte	0x131
 3551 09c9 FD000000 		.4byte	0xfd
 3552 09cd 02       		.uleb128 0x2
 3553 09ce 91       		.byte	0x91
 3554 09cf 60       		.sleb128 -32
 3555 09d0 37       		.uleb128 0x37
 3556 09d1 48000000 		.4byte	.Ldebug_ranges0+0x48
 3557 09d5 E8090000 		.4byte	0x9e8
 3558 09d9 21       		.uleb128 0x21
 3559 09da 6900     		.ascii	"i\000"
 3560 09dc 01       		.byte	0x1
 3561 09dd 2601     		.2byte	0x126
 3562 09df FD000000 		.4byte	0xfd
 3563 09e3 4C0C0000 		.4byte	.LLST54
 3564 09e7 00       		.byte	0
 3565 09e8 38       		.uleb128 0x38
 3566 09e9 7A000000 		.4byte	.LBB25
 3567 09ed 58000000 		.4byte	.LBE25-.LBB25
 3568 09f1 490A0000 		.4byte	0xa49
 3569 09f5 1B       		.uleb128 0x1b
 3570 09f6 8B040000 		.4byte	.LASF102
 3571 09fa 01       		.byte	0x1
 3572 09fb 3401     		.2byte	0x134
 3573 09fd FD000000 		.4byte	0xfd
 3574 0a01 02       		.uleb128 0x2
 3575 0a02 91       		.byte	0x91
 3576 0a03 5C       		.sleb128 -36
 3577 0a04 1C       		.uleb128 0x1c
 3578 0a05 CE070000 		.4byte	.LASF103
 3579 0a09 01       		.byte	0x1
ARM GAS  C:\Users\haske\AppData\Local\Temp\ccg6iOQH.s 			page 90


 3580 0a0a 3501     		.2byte	0x135
 3581 0a0c FD000000 		.4byte	0xfd
 3582 0a10 6A0C0000 		.4byte	.LLST55
 3583 0a14 36       		.uleb128 0x36
 3584 0a15 A0000000 		.4byte	.LVL186
 3585 0a19 6C070000 		.4byte	0x76c
 3586 0a1d 29       		.uleb128 0x29
 3587 0a1e 01       		.uleb128 0x1
 3588 0a1f 51       		.byte	0x51
 3589 0a20 03       		.uleb128 0x3
 3590 0a21 91       		.byte	0x91
 3591 0a22 50       		.sleb128 -48
 3592 0a23 06       		.byte	0x6
 3593 0a24 29       		.uleb128 0x29
 3594 0a25 01       		.uleb128 0x1
 3595 0a26 52       		.byte	0x52
 3596 0a27 04       		.uleb128 0x4
 3597 0a28 91       		.byte	0x91
 3598 0a29 54       		.sleb128 -44
 3599 0a2a 94       		.byte	0x94
 3600 0a2b 02       		.byte	0x2
 3601 0a2c 29       		.uleb128 0x29
 3602 0a2d 01       		.uleb128 0x1
 3603 0a2e 53       		.byte	0x53
 3604 0a2f 02       		.uleb128 0x2
 3605 0a30 76       		.byte	0x76
 3606 0a31 00       		.sleb128 0
 3607 0a32 29       		.uleb128 0x29
 3608 0a33 02       		.uleb128 0x2
 3609 0a34 7D       		.byte	0x7d
 3610 0a35 00       		.sleb128 0
 3611 0a36 02       		.uleb128 0x2
 3612 0a37 79       		.byte	0x79
 3613 0a38 00       		.sleb128 0
 3614 0a39 29       		.uleb128 0x29
 3615 0a3a 02       		.uleb128 0x2
 3616 0a3b 7D       		.byte	0x7d
 3617 0a3c 04       		.sleb128 4
 3618 0a3d 02       		.uleb128 0x2
 3619 0a3e 91       		.byte	0x91
 3620 0a3f 5C       		.sleb128 -36
 3621 0a40 29       		.uleb128 0x29
 3622 0a41 02       		.uleb128 0x2
 3623 0a42 7D       		.byte	0x7d
 3624 0a43 08       		.sleb128 8
 3625 0a44 02       		.uleb128 0x2
 3626 0a45 91       		.byte	0x91
 3627 0a46 67       		.sleb128 -25
 3628 0a47 00       		.byte	0
 3629 0a48 00       		.byte	0
 3630 0a49 2A       		.uleb128 0x2a
 3631 0a4a E6000000 		.4byte	.LBB26
 3632 0a4e 1A000000 		.4byte	.LBE26-.LBB26
 3633 0a52 1C       		.uleb128 0x1c
 3634 0a53 4A060000 		.4byte	.LASF59
 3635 0a57 01       		.byte	0x1
 3636 0a58 4A01     		.2byte	0x14a
ARM GAS  C:\Users\haske\AppData\Local\Temp\ccg6iOQH.s 			page 91


 3637 0a5a FD000000 		.4byte	0xfd
 3638 0a5e 7D0C0000 		.4byte	.LLST56
 3639 0a62 34       		.uleb128 0x34
 3640 0a63 F0000000 		.4byte	.LVL192
 3641 0a67 780A0000 		.4byte	0xa78
 3642 0a6b 29       		.uleb128 0x29
 3643 0a6c 01       		.uleb128 0x1
 3644 0a6d 50       		.byte	0x50
 3645 0a6e 02       		.uleb128 0x2
 3646 0a6f 77       		.byte	0x77
 3647 0a70 00       		.sleb128 0
 3648 0a71 29       		.uleb128 0x29
 3649 0a72 01       		.uleb128 0x1
 3650 0a73 51       		.byte	0x51
 3651 0a74 02       		.uleb128 0x2
 3652 0a75 91       		.byte	0x91
 3653 0a76 60       		.sleb128 -32
 3654 0a77 00       		.byte	0
 3655 0a78 36       		.uleb128 0x36
 3656 0a79 FE000000 		.4byte	.LVL194
 3657 0a7d E4100000 		.4byte	0x10e4
 3658 0a81 29       		.uleb128 0x29
 3659 0a82 01       		.uleb128 0x1
 3660 0a83 50       		.byte	0x50
 3661 0a84 03       		.uleb128 0x3
 3662 0a85 91       		.byte	0x91
 3663 0a86 50       		.sleb128 -48
 3664 0a87 06       		.byte	0x6
 3665 0a88 29       		.uleb128 0x29
 3666 0a89 01       		.uleb128 0x1
 3667 0a8a 52       		.byte	0x52
 3668 0a8b 01       		.uleb128 0x1
 3669 0a8c 30       		.byte	0x30
 3670 0a8d 00       		.byte	0
 3671 0a8e 00       		.byte	0
 3672 0a8f 00       		.byte	0
 3673 0a90 0D       		.uleb128 0xd
 3674 0a91 04       		.byte	0x4
 3675 0a92 08010000 		.4byte	0x108
 3676 0a96 39       		.uleb128 0x39
 3677 0a97 35070000 		.4byte	.LASF109
 3678 0a9b 01       		.byte	0x1
 3679 0a9c 9D01     		.2byte	0x19d
 3680 0a9e 00000000 		.4byte	.LFB60
 3681 0aa2 58000000 		.4byte	.LFE60-.LFB60
 3682 0aa6 01       		.uleb128 0x1
 3683 0aa7 9C       		.byte	0x9c
 3684 0aa8 A20B0000 		.4byte	0xba2
 3685 0aac 1A       		.uleb128 0x1a
 3686 0aad 70010000 		.4byte	.LASF104
 3687 0ab1 01       		.byte	0x1
 3688 0ab2 9D01     		.2byte	0x19d
 3689 0ab4 35030000 		.4byte	0x335
 3690 0ab8 9B0C0000 		.4byte	.LLST57
 3691 0abc 19       		.uleb128 0x19
 3692 0abd 706F7300 		.ascii	"pos\000"
 3693 0ac1 01       		.byte	0x1
ARM GAS  C:\Users\haske\AppData\Local\Temp\ccg6iOQH.s 			page 92


 3694 0ac2 9D01     		.2byte	0x19d
 3695 0ac4 FD000000 		.4byte	0xfd
 3696 0ac8 C70C0000 		.4byte	.LLST58
 3697 0acc 1A       		.uleb128 0x1a
 3698 0acd D3030000 		.4byte	.LASF105
 3699 0ad1 01       		.byte	0x1
 3700 0ad2 9D01     		.2byte	0x19d
 3701 0ad4 C2020000 		.4byte	0x2c2
 3702 0ad8 F10C0000 		.4byte	.LLST59
 3703 0adc 1C       		.uleb128 0x1c
 3704 0add 01070000 		.4byte	.LASF106
 3705 0ae1 01       		.byte	0x1
 3706 0ae2 A101     		.2byte	0x1a1
 3707 0ae4 3B010000 		.4byte	0x13b
 3708 0ae8 1D0D0000 		.4byte	.LLST60
 3709 0aec 1C       		.uleb128 0x1c
 3710 0aed 4E030000 		.4byte	.LASF107
 3711 0af1 01       		.byte	0x1
 3712 0af2 A201     		.2byte	0x1a2
 3713 0af4 3B010000 		.4byte	0x13b
 3714 0af8 3B0D0000 		.4byte	.LLST61
 3715 0afc 1C       		.uleb128 0x1c
 3716 0afd D7060000 		.4byte	.LASF108
 3717 0b01 01       		.byte	0x1
 3718 0b02 A501     		.2byte	0x1a5
 3719 0b04 3B010000 		.4byte	0x13b
 3720 0b08 590D0000 		.4byte	.LLST62
 3721 0b0c 21       		.uleb128 0x21
 3722 0b0d 6900     		.ascii	"i\000"
 3723 0b0f 01       		.byte	0x1
 3724 0b10 A901     		.2byte	0x1a9
 3725 0b12 3B010000 		.4byte	0x13b
 3726 0b16 6C0D0000 		.4byte	.LLST63
 3727 0b1a 3A       		.uleb128 0x3a
 3728 0b1b 58030000 		.4byte	0x358
 3729 0b1f 42000000 		.4byte	.LBB27
 3730 0b23 0E000000 		.4byte	.LBE27-.LBB27
 3731 0b27 01       		.byte	0x1
 3732 0b28 AF01     		.2byte	0x1af
 3733 0b2a 660B0000 		.4byte	0xb66
 3734 0b2e 23       		.uleb128 0x23
 3735 0b2f 7E030000 		.4byte	0x37e
 3736 0b33 7F0D0000 		.4byte	.LLST64
 3737 0b37 23       		.uleb128 0x23
 3738 0b38 73030000 		.4byte	0x373
 3739 0b3c 920D0000 		.4byte	.LLST65
 3740 0b40 23       		.uleb128 0x23
 3741 0b41 68030000 		.4byte	0x368
 3742 0b45 B30D0000 		.4byte	.LLST66
 3743 0b49 2A       		.uleb128 0x2a
 3744 0b4a 42000000 		.4byte	.LBB28
 3745 0b4e 0E000000 		.4byte	.LBE28-.LBB28
 3746 0b52 25       		.uleb128 0x25
 3747 0b53 89030000 		.4byte	0x389
 3748 0b57 C60D0000 		.4byte	.LLST67
 3749 0b5b 25       		.uleb128 0x25
 3750 0b5c 93030000 		.4byte	0x393
ARM GAS  C:\Users\haske\AppData\Local\Temp\ccg6iOQH.s 			page 93


 3751 0b60 D90D0000 		.4byte	.LLST68
 3752 0b64 00       		.byte	0
 3753 0b65 00       		.byte	0
 3754 0b66 35       		.uleb128 0x35
 3755 0b67 16000000 		.4byte	.LVL204
 3756 0b6b EF100000 		.4byte	0x10ef
 3757 0b6f 7A0B0000 		.4byte	0xb7a
 3758 0b73 29       		.uleb128 0x29
 3759 0b74 01       		.uleb128 0x1
 3760 0b75 50       		.byte	0x50
 3761 0b76 02       		.uleb128 0x2
 3762 0b77 77       		.byte	0x77
 3763 0b78 00       		.sleb128 0
 3764 0b79 00       		.byte	0
 3765 0b7a 35       		.uleb128 0x35
 3766 0b7b 1E000000 		.4byte	.LVL207
 3767 0b7f EF100000 		.4byte	0x10ef
 3768 0b83 8E0B0000 		.4byte	0xb8e
 3769 0b87 29       		.uleb128 0x29
 3770 0b88 01       		.uleb128 0x1
 3771 0b89 50       		.byte	0x50
 3772 0b8a 02       		.uleb128 0x2
 3773 0b8b 76       		.byte	0x76
 3774 0b8c 00       		.sleb128 0
 3775 0b8d 00       		.byte	0
 3776 0b8e 28       		.uleb128 0x28
 3777 0b8f 2E000000 		.4byte	.LVL211
 3778 0b93 29       		.uleb128 0x29
 3779 0b94 01       		.uleb128 0x1
 3780 0b95 50       		.byte	0x50
 3781 0b96 02       		.uleb128 0x2
 3782 0b97 77       		.byte	0x77
 3783 0b98 00       		.sleb128 0
 3784 0b99 29       		.uleb128 0x29
 3785 0b9a 01       		.uleb128 0x1
 3786 0b9b 51       		.byte	0x51
 3787 0b9c 03       		.uleb128 0x3
 3788 0b9d 91       		.byte	0x91
 3789 0b9e 64       		.sleb128 -28
 3790 0b9f 06       		.byte	0x6
 3791 0ba0 00       		.byte	0
 3792 0ba1 00       		.byte	0
 3793 0ba2 39       		.uleb128 0x39
 3794 0ba3 5D070000 		.4byte	.LASF110
 3795 0ba7 01       		.byte	0x1
 3796 0ba8 B201     		.2byte	0x1b2
 3797 0baa 00000000 		.4byte	.LFB61
 3798 0bae 40000000 		.4byte	.LFE61-.LFB61
 3799 0bb2 01       		.uleb128 0x1
 3800 0bb3 9C       		.byte	0x9c
 3801 0bb4 470C0000 		.4byte	0xc47
 3802 0bb8 19       		.uleb128 0x19
 3803 0bb9 74787400 		.ascii	"txt\000"
 3804 0bbd 01       		.byte	0x1
 3805 0bbe B201     		.2byte	0x1b2
 3806 0bc0 35030000 		.4byte	0x335
 3807 0bc4 EC0D0000 		.4byte	.LLST69
ARM GAS  C:\Users\haske\AppData\Local\Temp\ccg6iOQH.s 			page 94


 3808 0bc8 19       		.uleb128 0x19
 3809 0bc9 706F7300 		.ascii	"pos\000"
 3810 0bcd 01       		.byte	0x1
 3811 0bce B201     		.2byte	0x1b2
 3812 0bd0 FD000000 		.4byte	0xfd
 3813 0bd4 180E0000 		.4byte	.LLST70
 3814 0bd8 19       		.uleb128 0x19
 3815 0bd9 6C656E00 		.ascii	"len\000"
 3816 0bdd 01       		.byte	0x1
 3817 0bde B201     		.2byte	0x1b2
 3818 0be0 FD000000 		.4byte	0xfd
 3819 0be4 4C0E0000 		.4byte	.LLST71
 3820 0be8 1C       		.uleb128 0x1c
 3821 0be9 01070000 		.4byte	.LASF106
 3822 0bed 01       		.byte	0x1
 3823 0bee B601     		.2byte	0x1b6
 3824 0bf0 3B010000 		.4byte	0x13b
 3825 0bf4 760E0000 		.4byte	.LLST72
 3826 0bf8 21       		.uleb128 0x21
 3827 0bf9 6900     		.ascii	"i\000"
 3828 0bfb 01       		.byte	0x1
 3829 0bfc BC01     		.2byte	0x1bc
 3830 0bfe FD000000 		.4byte	0xfd
 3831 0c02 940E0000 		.4byte	.LLST73
 3832 0c06 35       		.uleb128 0x35
 3833 0c07 12000000 		.4byte	.LVL222
 3834 0c0b EF100000 		.4byte	0x10ef
 3835 0c0f 1A0C0000 		.4byte	0xc1a
 3836 0c13 29       		.uleb128 0x29
 3837 0c14 01       		.uleb128 0x1
 3838 0c15 50       		.byte	0x50
 3839 0c16 02       		.uleb128 0x2
 3840 0c17 75       		.byte	0x75
 3841 0c18 00       		.sleb128 0
 3842 0c19 00       		.byte	0
 3843 0c1a 34       		.uleb128 0x34
 3844 0c1b 1E000000 		.4byte	.LVL225
 3845 0c1f 300C0000 		.4byte	0xc30
 3846 0c23 29       		.uleb128 0x29
 3847 0c24 01       		.uleb128 0x1
 3848 0c25 50       		.byte	0x50
 3849 0c26 02       		.uleb128 0x2
 3850 0c27 75       		.byte	0x75
 3851 0c28 00       		.sleb128 0
 3852 0c29 29       		.uleb128 0x29
 3853 0c2a 01       		.uleb128 0x1
 3854 0c2b 51       		.byte	0x51
 3855 0c2c 02       		.uleb128 0x2
 3856 0c2d 74       		.byte	0x74
 3857 0c2e 00       		.sleb128 0
 3858 0c2f 00       		.byte	0
 3859 0c30 28       		.uleb128 0x28
 3860 0c31 28000000 		.4byte	.LVL228
 3861 0c35 29       		.uleb128 0x29
 3862 0c36 01       		.uleb128 0x1
 3863 0c37 50       		.byte	0x50
 3864 0c38 05       		.uleb128 0x5
ARM GAS  C:\Users\haske\AppData\Local\Temp\ccg6iOQH.s 			page 95


 3865 0c39 75       		.byte	0x75
 3866 0c3a 00       		.sleb128 0
 3867 0c3b 74       		.byte	0x74
 3868 0c3c 00       		.sleb128 0
 3869 0c3d 22       		.byte	0x22
 3870 0c3e 29       		.uleb128 0x29
 3871 0c3f 01       		.uleb128 0x1
 3872 0c40 51       		.byte	0x51
 3873 0c41 03       		.uleb128 0x3
 3874 0c42 91       		.byte	0x91
 3875 0c43 64       		.sleb128 -28
 3876 0c44 06       		.byte	0x6
 3877 0c45 00       		.byte	0
 3878 0c46 00       		.byte	0
 3879 0c47 2B       		.uleb128 0x2b
 3880 0c48 47070000 		.4byte	.LASF111
 3881 0c4c 01       		.byte	0x1
 3882 0c4d C201     		.2byte	0x1c2
 3883 0c4f 35030000 		.4byte	0x335
 3884 0c53 00000000 		.4byte	.LFB62
 3885 0c57 44000000 		.4byte	.LFE62-.LFB62
 3886 0c5b 01       		.uleb128 0x1
 3887 0c5c 9C       		.byte	0x9c
 3888 0c5d 0C0D0000 		.4byte	0xd0c
 3889 0c61 19       		.uleb128 0x19
 3890 0c62 666D7400 		.ascii	"fmt\000"
 3891 0c66 01       		.byte	0x1
 3892 0c67 C201     		.2byte	0x1c2
 3893 0c69 C2020000 		.4byte	0x2c2
 3894 0c6d A70E0000 		.4byte	.LLST74
 3895 0c71 19       		.uleb128 0x19
 3896 0c72 617000   		.ascii	"ap\000"
 3897 0c75 01       		.byte	0x1
 3898 0c76 C201     		.2byte	0x1c2
 3899 0c78 49000000 		.4byte	0x49
 3900 0c7c D10E0000 		.4byte	.LLST75
 3901 0c80 1B       		.uleb128 0x1b
 3902 0c81 A4030000 		.4byte	.LASF112
 3903 0c85 01       		.byte	0x1
 3904 0c86 C501     		.2byte	0x1c5
 3905 0c88 49000000 		.4byte	0x49
 3906 0c8c 02       		.uleb128 0x2
 3907 0c8d 91       		.byte	0x91
 3908 0c8e 64       		.sleb128 -28
 3909 0c8f 21       		.uleb128 0x21
 3910 0c90 6C656E00 		.ascii	"len\000"
 3911 0c94 01       		.byte	0x1
 3912 0c95 C701     		.2byte	0x1c7
 3913 0c97 FD000000 		.4byte	0xfd
 3914 0c9b FA0E0000 		.4byte	.LLST76
 3915 0c9f 1C       		.uleb128 0x1c
 3916 0ca0 3A060000 		.4byte	.LASF113
 3917 0ca4 01       		.byte	0x1
 3918 0ca5 CA01     		.2byte	0x1ca
 3919 0ca7 35030000 		.4byte	0x335
 3920 0cab 180F0000 		.4byte	.LLST77
 3921 0caf 35       		.uleb128 0x35
ARM GAS  C:\Users\haske\AppData\Local\Temp\ccg6iOQH.s 			page 96


 3922 0cb0 16000000 		.4byte	.LVL236
 3923 0cb4 FA100000 		.4byte	0x10fa
 3924 0cb8 D40C0000 		.4byte	0xcd4
 3925 0cbc 29       		.uleb128 0x29
 3926 0cbd 01       		.uleb128 0x1
 3927 0cbe 50       		.byte	0x50
 3928 0cbf 01       		.uleb128 0x1
 3929 0cc0 30       		.byte	0x30
 3930 0cc1 29       		.uleb128 0x29
 3931 0cc2 01       		.uleb128 0x1
 3932 0cc3 51       		.byte	0x51
 3933 0cc4 01       		.uleb128 0x1
 3934 0cc5 30       		.byte	0x30
 3935 0cc6 29       		.uleb128 0x29
 3936 0cc7 01       		.uleb128 0x1
 3937 0cc8 52       		.byte	0x52
 3938 0cc9 03       		.uleb128 0x3
 3939 0cca 91       		.byte	0x91
 3940 0ccb 5C       		.sleb128 -36
 3941 0ccc 06       		.byte	0x6
 3942 0ccd 29       		.uleb128 0x29
 3943 0cce 01       		.uleb128 0x1
 3944 0ccf 53       		.byte	0x53
 3945 0cd0 02       		.uleb128 0x2
 3946 0cd1 75       		.byte	0x75
 3947 0cd2 00       		.sleb128 0
 3948 0cd3 00       		.byte	0
 3949 0cd4 35       		.uleb128 0x35
 3950 0cd5 20000000 		.4byte	.LVL239
 3951 0cd9 05110000 		.4byte	0x1105
 3952 0cdd E80C0000 		.4byte	0xce8
 3953 0ce1 29       		.uleb128 0x29
 3954 0ce2 01       		.uleb128 0x1
 3955 0ce3 50       		.byte	0x50
 3956 0ce4 02       		.uleb128 0x2
 3957 0ce5 76       		.byte	0x76
 3958 0ce6 00       		.sleb128 0
 3959 0ce7 00       		.byte	0
 3960 0ce8 36       		.uleb128 0x36
 3961 0ce9 3A000000 		.4byte	.LVL242
 3962 0ced FA100000 		.4byte	0x10fa
 3963 0cf1 29       		.uleb128 0x29
 3964 0cf2 01       		.uleb128 0x1
 3965 0cf3 50       		.byte	0x50
 3966 0cf4 02       		.uleb128 0x2
 3967 0cf5 74       		.byte	0x74
 3968 0cf6 00       		.sleb128 0
 3969 0cf7 29       		.uleb128 0x29
 3970 0cf8 01       		.uleb128 0x1
 3971 0cf9 51       		.byte	0x51
 3972 0cfa 02       		.uleb128 0x2
 3973 0cfb 76       		.byte	0x76
 3974 0cfc 00       		.sleb128 0
 3975 0cfd 29       		.uleb128 0x29
 3976 0cfe 01       		.uleb128 0x1
 3977 0cff 52       		.byte	0x52
 3978 0d00 03       		.uleb128 0x3
ARM GAS  C:\Users\haske\AppData\Local\Temp\ccg6iOQH.s 			page 97


 3979 0d01 91       		.byte	0x91
 3980 0d02 5C       		.sleb128 -36
 3981 0d03 06       		.byte	0x6
 3982 0d04 29       		.uleb128 0x29
 3983 0d05 01       		.uleb128 0x1
 3984 0d06 53       		.byte	0x53
 3985 0d07 02       		.uleb128 0x2
 3986 0d08 75       		.byte	0x75
 3987 0d09 00       		.sleb128 0
 3988 0d0a 00       		.byte	0
 3989 0d0b 00       		.byte	0
 3990 0d0c 39       		.uleb128 0x39
 3991 0d0d 9D010000 		.4byte	.LASF114
 3992 0d11 01       		.byte	0x1
 3993 0d12 ED01     		.2byte	0x1ed
 3994 0d14 00000000 		.4byte	.LFB63
 3995 0d18 2C000000 		.4byte	.LFE63-.LFB63
 3996 0d1c 01       		.uleb128 0x1
 3997 0d1d 9C       		.byte	0x9c
 3998 0d1e 840D0000 		.4byte	0xd84
 3999 0d22 19       		.uleb128 0x19
 4000 0d23 74787400 		.ascii	"txt\000"
 4001 0d27 01       		.byte	0x1
 4002 0d28 ED01     		.2byte	0x1ed
 4003 0d2a C2020000 		.4byte	0x2c2
 4004 0d2e 580F0000 		.4byte	.LLST78
 4005 0d32 1A       		.uleb128 0x1a
 4006 0d33 4A060000 		.4byte	.LASF59
 4007 0d37 01       		.byte	0x1
 4008 0d38 ED01     		.2byte	0x1ed
 4009 0d3a 41030000 		.4byte	0x341
 4010 0d3e 840F0000 		.4byte	.LLST79
 4011 0d42 1A       		.uleb128 0x1a
 4012 0d43 16000000 		.4byte	.LASF92
 4013 0d47 01       		.byte	0x1
 4014 0d48 ED01     		.2byte	0x1ed
 4015 0d4a 41030000 		.4byte	0x341
 4016 0d4e B00F0000 		.4byte	.LLST80
 4017 0d52 19       		.uleb128 0x19
 4018 0d53 6F667300 		.ascii	"ofs\000"
 4019 0d57 01       		.byte	0x1
 4020 0d58 ED01     		.2byte	0x1ed
 4021 0d5a 41030000 		.4byte	0x341
 4022 0d5e DC0F0000 		.4byte	.LLST81
 4023 0d62 34       		.uleb128 0x34
 4024 0d63 12000000 		.4byte	.LVL251
 4025 0d67 780D0000 		.4byte	0xd78
 4026 0d6b 29       		.uleb128 0x29
 4027 0d6c 01       		.uleb128 0x1
 4028 0d6d 50       		.byte	0x50
 4029 0d6e 02       		.uleb128 0x2
 4030 0d6f 74       		.byte	0x74
 4031 0d70 00       		.sleb128 0
 4032 0d71 29       		.uleb128 0x29
 4033 0d72 01       		.uleb128 0x1
 4034 0d73 51       		.byte	0x51
 4035 0d74 02       		.uleb128 0x2
ARM GAS  C:\Users\haske\AppData\Local\Temp\ccg6iOQH.s 			page 98


 4036 0d75 75       		.byte	0x75
 4037 0d76 00       		.sleb128 0
 4038 0d77 00       		.byte	0
 4039 0d78 28       		.uleb128 0x28
 4040 0d79 24000000 		.4byte	.LVL252
 4041 0d7d 29       		.uleb128 0x29
 4042 0d7e 01       		.uleb128 0x1
 4043 0d7f 51       		.byte	0x51
 4044 0d80 01       		.uleb128 0x1
 4045 0d81 30       		.byte	0x30
 4046 0d82 00       		.byte	0
 4047 0d83 00       		.byte	0
 4048 0d84 2B       		.uleb128 0x2b
 4049 0d85 2E050000 		.4byte	.LASF115
 4050 0d89 01       		.byte	0x1
 4051 0d8a 5701     		.2byte	0x157
 4052 0d8c 08010000 		.4byte	0x108
 4053 0d90 00000000 		.4byte	.LFB58
 4054 0d94 9E000000 		.4byte	.LFE58-.LFB58
 4055 0d98 01       		.uleb128 0x1
 4056 0d99 9C       		.byte	0x9c
 4057 0d9a 9E0E0000 		.4byte	0xe9e
 4058 0d9e 19       		.uleb128 0x19
 4059 0d9f 74787400 		.ascii	"txt\000"
 4060 0da3 01       		.byte	0x1
 4061 0da4 5701     		.2byte	0x157
 4062 0da6 C2020000 		.4byte	0x2c2
 4063 0daa 08100000 		.4byte	.LLST82
 4064 0dae 1A       		.uleb128 0x1a
 4065 0daf AF060000 		.4byte	.LASF116
 4066 0db3 01       		.byte	0x1
 4067 0db4 5701     		.2byte	0x157
 4068 0db6 FD000000 		.4byte	0xfd
 4069 0dba 8C100000 		.4byte	.LLST83
 4070 0dbe 1A       		.uleb128 0x1a
 4071 0dbf FC060000 		.4byte	.LASF83
 4072 0dc3 01       		.byte	0x1
 4073 0dc4 5701     		.2byte	0x157
 4074 0dc6 47030000 		.4byte	0x347
 4075 0dca CE100000 		.4byte	.LLST84
 4076 0dce 1A       		.uleb128 0x1a
 4077 0dcf DB030000 		.4byte	.LASF84
 4078 0dd3 01       		.byte	0x1
 4079 0dd4 5701     		.2byte	0x157
 4080 0dd6 08010000 		.4byte	0x108
 4081 0dda 04110000 		.4byte	.LLST85
 4082 0dde 1A       		.uleb128 0x1a
 4083 0ddf B1040000 		.4byte	.LASF86
 4084 0de3 01       		.byte	0x1
 4085 0de4 5801     		.2byte	0x158
 4086 0de6 F9020000 		.4byte	0x2f9
 4087 0dea 25110000 		.4byte	.LLST86
 4088 0dee 20       		.uleb128 0x20
 4089 0def 6900     		.ascii	"i\000"
 4090 0df1 01       		.byte	0x1
 4091 0df2 5E01     		.2byte	0x15e
 4092 0df4 FD000000 		.4byte	0xfd
ARM GAS  C:\Users\haske\AppData\Local\Temp\ccg6iOQH.s 			page 99


 4093 0df8 02       		.uleb128 0x2
 4094 0df9 91       		.byte	0x91
 4095 0dfa 64       		.sleb128 -28
 4096 0dfb 1C       		.uleb128 0x1c
 4097 0dfc D0020000 		.4byte	.LASF117
 4098 0e00 01       		.byte	0x1
 4099 0e01 5F01     		.2byte	0x15f
 4100 0e03 08010000 		.4byte	0x108
 4101 0e07 69110000 		.4byte	.LLST87
 4102 0e0b 1B       		.uleb128 0x1b
 4103 0e0c 2F020000 		.4byte	.LASF88
 4104 0e10 01       		.byte	0x1
 4105 0e11 6001     		.2byte	0x160
 4106 0e13 23030000 		.4byte	0x323
 4107 0e17 02       		.uleb128 0x2
 4108 0e18 91       		.byte	0x91
 4109 0e19 63       		.sleb128 -29
 4110 0e1a 2A       		.uleb128 0x2a
 4111 0e1b 38000000 		.4byte	.LBB29
 4112 0e1f 3C000000 		.4byte	.LBE29-.LBB29
 4113 0e23 1B       		.uleb128 0x1b
 4114 0e24 4A060000 		.4byte	.LASF59
 4115 0e28 01       		.byte	0x1
 4116 0e29 6401     		.2byte	0x164
 4117 0e2b FD000000 		.4byte	0xfd
 4118 0e2f 02       		.uleb128 0x2
 4119 0e30 91       		.byte	0x91
 4120 0e31 58       		.sleb128 -40
 4121 0e32 1B       		.uleb128 0x1b
 4122 0e33 16000000 		.4byte	.LASF92
 4123 0e37 01       		.byte	0x1
 4124 0e38 6501     		.2byte	0x165
 4125 0e3a FD000000 		.4byte	0xfd
 4126 0e3e 02       		.uleb128 0x2
 4127 0e3f 91       		.byte	0x91
 4128 0e40 5C       		.sleb128 -36
 4129 0e41 1C       		.uleb128 0x1c
 4130 0e42 48000000 		.4byte	.LASF118
 4131 0e46 01       		.byte	0x1
 4132 0e47 6E01     		.2byte	0x16e
 4133 0e49 08010000 		.4byte	0x108
 4134 0e4d CB110000 		.4byte	.LLST88
 4135 0e51 35       		.uleb128 0x35
 4136 0e52 44000000 		.4byte	.LVL265
 4137 0e56 0C0D0000 		.4byte	0xd0c
 4138 0e5a 770E0000 		.4byte	0xe77
 4139 0e5e 29       		.uleb128 0x29
 4140 0e5f 01       		.uleb128 0x1
 4141 0e60 50       		.byte	0x50
 4142 0e61 02       		.uleb128 0x2
 4143 0e62 74       		.byte	0x74
 4144 0e63 00       		.sleb128 0
 4145 0e64 29       		.uleb128 0x29
 4146 0e65 01       		.uleb128 0x1
 4147 0e66 51       		.byte	0x51
 4148 0e67 02       		.uleb128 0x2
 4149 0e68 91       		.byte	0x91
ARM GAS  C:\Users\haske\AppData\Local\Temp\ccg6iOQH.s 			page 100


 4150 0e69 58       		.sleb128 -40
 4151 0e6a 29       		.uleb128 0x29
 4152 0e6b 01       		.uleb128 0x1
 4153 0e6c 52       		.byte	0x52
 4154 0e6d 02       		.uleb128 0x2
 4155 0e6e 91       		.byte	0x91
 4156 0e6f 5C       		.sleb128 -36
 4157 0e70 29       		.uleb128 0x29
 4158 0e71 01       		.uleb128 0x1
 4159 0e72 53       		.byte	0x53
 4160 0e73 02       		.uleb128 0x2
 4161 0e74 91       		.byte	0x91
 4162 0e75 64       		.sleb128 -28
 4163 0e76 00       		.byte	0
 4164 0e77 35       		.uleb128 0x35
 4165 0e78 56000000 		.4byte	.LVL266
 4166 0e7c 1F070000 		.4byte	0x71f
 4167 0e80 8B0E0000 		.4byte	0xe8b
 4168 0e84 29       		.uleb128 0x29
 4169 0e85 01       		.uleb128 0x1
 4170 0e86 50       		.byte	0x50
 4171 0e87 02       		.uleb128 0x2
 4172 0e88 91       		.byte	0x91
 4173 0e89 63       		.sleb128 -29
 4174 0e8a 00       		.byte	0
 4175 0e8b 36       		.uleb128 0x36
 4176 0e8c 64000000 		.4byte	.LVL267
 4177 0e90 E4100000 		.4byte	0x10e4
 4178 0e94 29       		.uleb128 0x29
 4179 0e95 01       		.uleb128 0x1
 4180 0e96 50       		.byte	0x50
 4181 0e97 03       		.uleb128 0x3
 4182 0e98 91       		.byte	0x91
 4183 0e99 54       		.sleb128 -44
 4184 0e9a 06       		.byte	0x6
 4185 0e9b 00       		.byte	0
 4186 0e9c 00       		.byte	0
 4187 0e9d 00       		.byte	0
 4188 0e9e 3B       		.uleb128 0x3b
 4189 0e9f E1000000 		.4byte	.LASF119
 4190 0ea3 01       		.byte	0x1
 4191 0ea4 5B       		.byte	0x5b
 4192 0ea5 00000000 		.4byte	.LFB55
 4193 0ea9 FC000000 		.4byte	.LFE55-.LFB55
 4194 0ead 01       		.uleb128 0x1
 4195 0eae 9C       		.byte	0x9c
 4196 0eaf DE0F0000 		.4byte	0xfde
 4197 0eb3 2F       		.uleb128 0x2f
 4198 0eb4 F5020000 		.4byte	.LASF120
 4199 0eb8 01       		.byte	0x1
 4200 0eb9 5B       		.byte	0x5b
 4201 0eba 52030000 		.4byte	0x352
 4202 0ebe DE110000 		.4byte	.LLST89
 4203 0ec2 2F       		.uleb128 0x2f
 4204 0ec3 3A060000 		.4byte	.LASF113
 4205 0ec7 01       		.byte	0x1
 4206 0ec8 5B       		.byte	0x5b
ARM GAS  C:\Users\haske\AppData\Local\Temp\ccg6iOQH.s 			page 101


 4207 0ec9 C2020000 		.4byte	0x2c2
 4208 0ecd 0A120000 		.4byte	.LLST90
 4209 0ed1 2F       		.uleb128 0x2f
 4210 0ed2 FC060000 		.4byte	.LASF83
 4211 0ed6 01       		.byte	0x1
 4212 0ed7 5B       		.byte	0x5b
 4213 0ed8 47030000 		.4byte	0x347
 4214 0edc 36120000 		.4byte	.LLST91
 4215 0ee0 2F       		.uleb128 0x2f
 4216 0ee1 DB030000 		.4byte	.LASF84
 4217 0ee5 01       		.byte	0x1
 4218 0ee6 5B       		.byte	0x5b
 4219 0ee7 08010000 		.4byte	0x108
 4220 0eeb 55120000 		.4byte	.LLST92
 4221 0eef 2F       		.uleb128 0x2f
 4222 0ef0 F9030000 		.4byte	.LASF121
 4223 0ef4 01       		.byte	0x1
 4224 0ef5 5C       		.byte	0x5c
 4225 0ef6 08010000 		.4byte	0x108
 4226 0efa 76120000 		.4byte	.LLST93
 4227 0efe 2F       		.uleb128 0x2f
 4228 0eff 21040000 		.4byte	.LASF85
 4229 0f03 01       		.byte	0x1
 4230 0f04 5C       		.byte	0x5c
 4231 0f05 08010000 		.4byte	0x108
 4232 0f09 A2120000 		.4byte	.LLST94
 4233 0f0d 2F       		.uleb128 0x2f
 4234 0f0e B1040000 		.4byte	.LASF86
 4235 0f12 01       		.byte	0x1
 4236 0f13 5C       		.byte	0x5c
 4237 0f14 F9020000 		.4byte	0x2f9
 4238 0f18 F2120000 		.4byte	.LLST95
 4239 0f1c 32       		.uleb128 0x32
 4240 0f1d 65010000 		.4byte	.LASF122
 4241 0f21 01       		.byte	0x1
 4242 0f22 66       		.byte	0x66
 4243 0f23 FD000000 		.4byte	0xfd
 4244 0f27 36130000 		.4byte	.LLST96
 4245 0f2b 32       		.uleb128 0x32
 4246 0f2c 26060000 		.4byte	.LASF123
 4247 0f30 01       		.byte	0x1
 4248 0f31 67       		.byte	0x67
 4249 0f32 FD000000 		.4byte	0xfd
 4250 0f36 6D130000 		.4byte	.LLST97
 4251 0f3a 32       		.uleb128 0x32
 4252 0f3b 8A020000 		.4byte	.LASF124
 4253 0f3f 01       		.byte	0x1
 4254 0f40 68       		.byte	0x68
 4255 0f41 F2000000 		.4byte	0xf2
 4256 0f45 99130000 		.4byte	.LLST98
 4257 0f49 3C       		.uleb128 0x3c
 4258 0f4a CE030000 		.4byte	0x3ce
 4259 0f4e 44000000 		.4byte	.LBB30
 4260 0f52 08000000 		.4byte	.LBE30-.LBB30
 4261 0f56 01       		.byte	0x1
 4262 0f57 68       		.byte	0x68
 4263 0f58 660F0000 		.4byte	0xf66
ARM GAS  C:\Users\haske\AppData\Local\Temp\ccg6iOQH.s 			page 102


 4264 0f5c 23       		.uleb128 0x23
 4265 0f5d DE030000 		.4byte	0x3de
 4266 0f61 C2130000 		.4byte	.LLST99
 4267 0f65 00       		.byte	0
 4268 0f66 2A       		.uleb128 0x2a
 4269 0f67 5E000000 		.4byte	.LBB32
 4270 0f6b 4A000000 		.4byte	.LBE32-.LBB32
 4271 0f6f 32       		.uleb128 0x32
 4272 0f70 20080000 		.4byte	.LASF125
 4273 0f74 01       		.byte	0x1
 4274 0f75 78       		.byte	0x78
 4275 0f76 08010000 		.4byte	0x108
 4276 0f7a D6130000 		.4byte	.LLST100
 4277 0f7e 35       		.uleb128 0x35
 4278 0f7f 72000000 		.4byte	.LVL298
 4279 0f83 2A090000 		.4byte	0x92a
 4280 0f87 B60F0000 		.4byte	0xfb6
 4281 0f8b 29       		.uleb128 0x29
 4282 0f8c 01       		.uleb128 0x1
 4283 0f8d 50       		.byte	0x50
 4284 0f8e 02       		.uleb128 0x2
 4285 0f8f 75       		.byte	0x75
 4286 0f90 00       		.sleb128 0
 4287 0f91 29       		.uleb128 0x29
 4288 0f92 01       		.uleb128 0x1
 4289 0f93 51       		.byte	0x51
 4290 0f94 03       		.uleb128 0x3
 4291 0f95 91       		.byte	0x91
 4292 0f96 48       		.sleb128 -56
 4293 0f97 06       		.byte	0x6
 4294 0f98 29       		.uleb128 0x29
 4295 0f99 01       		.uleb128 0x1
 4296 0f9a 52       		.byte	0x52
 4297 0f9b 04       		.uleb128 0x4
 4298 0f9c 91       		.byte	0x91
 4299 0f9d 4C       		.sleb128 -52
 4300 0f9e 94       		.byte	0x94
 4301 0f9f 02       		.byte	0x2
 4302 0fa0 29       		.uleb128 0x29
 4303 0fa1 01       		.uleb128 0x1
 4304 0fa2 53       		.byte	0x53
 4305 0fa3 04       		.uleb128 0x4
 4306 0fa4 91       		.byte	0x91
 4307 0fa5 50       		.sleb128 -48
 4308 0fa6 94       		.byte	0x94
 4309 0fa7 02       		.byte	0x2
 4310 0fa8 29       		.uleb128 0x29
 4311 0fa9 02       		.uleb128 0x2
 4312 0faa 7D       		.byte	0x7d
 4313 0fab 00       		.sleb128 0
 4314 0fac 01       		.uleb128 0x1
 4315 0fad 30       		.byte	0x30
 4316 0fae 29       		.uleb128 0x29
 4317 0faf 02       		.uleb128 0x2
 4318 0fb0 7D       		.byte	0x7d
 4319 0fb1 04       		.sleb128 4
 4320 0fb2 02       		.uleb128 0x2
ARM GAS  C:\Users\haske\AppData\Local\Temp\ccg6iOQH.s 			page 103


 4321 0fb3 78       		.byte	0x78
 4322 0fb4 00       		.sleb128 0
 4323 0fb5 00       		.byte	0
 4324 0fb6 36       		.uleb128 0x36
 4325 0fb7 9A000000 		.4byte	.LVL300
 4326 0fbb 840D0000 		.4byte	0xd84
 4327 0fbf 29       		.uleb128 0x29
 4328 0fc0 01       		.uleb128 0x1
 4329 0fc1 50       		.byte	0x50
 4330 0fc2 02       		.uleb128 0x2
 4331 0fc3 75       		.byte	0x75
 4332 0fc4 00       		.sleb128 0
 4333 0fc5 29       		.uleb128 0x29
 4334 0fc6 01       		.uleb128 0x1
 4335 0fc7 52       		.byte	0x52
 4336 0fc8 03       		.uleb128 0x3
 4337 0fc9 91       		.byte	0x91
 4338 0fca 48       		.sleb128 -56
 4339 0fcb 06       		.byte	0x6
 4340 0fcc 29       		.uleb128 0x29
 4341 0fcd 01       		.uleb128 0x1
 4342 0fce 53       		.byte	0x53
 4343 0fcf 04       		.uleb128 0x4
 4344 0fd0 91       		.byte	0x91
 4345 0fd1 4C       		.sleb128 -52
 4346 0fd2 94       		.byte	0x94
 4347 0fd3 02       		.byte	0x2
 4348 0fd4 29       		.uleb128 0x29
 4349 0fd5 02       		.uleb128 0x2
 4350 0fd6 7D       		.byte	0x7d
 4351 0fd7 00       		.sleb128 0
 4352 0fd8 02       		.uleb128 0x2
 4353 0fd9 78       		.byte	0x78
 4354 0fda 00       		.sleb128 0
 4355 0fdb 00       		.byte	0
 4356 0fdc 00       		.byte	0
 4357 0fdd 00       		.byte	0
 4358 0fde 3D       		.uleb128 0x3d
 4359 0fdf 1B010000 		.4byte	.LASF126
 4360 0fe3 04       		.byte	0x4
 4361 0fe4 94       		.byte	0x94
 4362 0fe5 4D030000 		.4byte	0x34d
 4363 0fe9 0F       		.uleb128 0xf
 4364 0fea DC000000 		.4byte	0xdc
 4365 0fee F80F0000 		.4byte	0xff8
 4366 0ff2 10       		.uleb128 0x10
 4367 0ff3 C2020000 		.4byte	0x2c2
 4368 0ff7 00       		.byte	0
 4369 0ff8 3E       		.uleb128 0x3e
 4370 0ff9 92040000 		.4byte	.LASF127
 4371 0ffd 01       		.byte	0x1
 4372 0ffe 39       		.byte	0x39
 4373 0fff 09100000 		.4byte	0x1009
 4374 1003 05       		.uleb128 0x5
 4375 1004 03       		.byte	0x3
 4376 1005 00000000 		.4byte	_lv_txt_encoded_size
 4377 1009 0D       		.uleb128 0xd
ARM GAS  C:\Users\haske\AppData\Local\Temp\ccg6iOQH.s 			page 104


 4378 100a 04       		.byte	0x4
 4379 100b E90F0000 		.4byte	0xfe9
 4380 100f 0F       		.uleb128 0xf
 4381 1010 FD000000 		.4byte	0xfd
 4382 1014 1E100000 		.4byte	0x101e
 4383 1018 10       		.uleb128 0x10
 4384 1019 FD000000 		.4byte	0xfd
 4385 101d 00       		.byte	0
 4386 101e 3E       		.uleb128 0x3e
 4387 101f 39020000 		.4byte	.LASF128
 4388 1023 01       		.byte	0x1
 4389 1024 3A       		.byte	0x3a
 4390 1025 2F100000 		.4byte	0x102f
 4391 1029 05       		.uleb128 0x5
 4392 102a 03       		.byte	0x3
 4393 102b 00000000 		.4byte	_lv_txt_unicode_to_encoded
 4394 102f 0D       		.uleb128 0xd
 4395 1030 04       		.byte	0x4
 4396 1031 0F100000 		.4byte	0x100f
 4397 1035 3E       		.uleb128 0x3e
 4398 1036 69070000 		.4byte	.LASF129
 4399 103a 01       		.byte	0x1
 4400 103b 3B       		.byte	0x3b
 4401 103c 2F100000 		.4byte	0x102f
 4402 1040 05       		.uleb128 0x5
 4403 1041 03       		.byte	0x3
 4404 1042 00000000 		.4byte	_lv_txt_encoded_conv_wc
 4405 1046 0F       		.uleb128 0xf
 4406 1047 FD000000 		.4byte	0xfd
 4407 104b 5A100000 		.4byte	0x105a
 4408 104f 10       		.uleb128 0x10
 4409 1050 C2020000 		.4byte	0x2c2
 4410 1054 10       		.uleb128 0x10
 4411 1055 41030000 		.4byte	0x341
 4412 1059 00       		.byte	0
 4413 105a 3E       		.uleb128 0x3e
 4414 105b 68060000 		.4byte	.LASF130
 4415 105f 01       		.byte	0x1
 4416 1060 3C       		.byte	0x3c
 4417 1061 6B100000 		.4byte	0x106b
 4418 1065 05       		.uleb128 0x5
 4419 1066 03       		.byte	0x3
 4420 1067 00000000 		.4byte	_lv_txt_encoded_next
 4421 106b 0D       		.uleb128 0xd
 4422 106c 04       		.byte	0x4
 4423 106d 46100000 		.4byte	0x1046
 4424 1071 3E       		.uleb128 0x3e
 4425 1072 63050000 		.4byte	.LASF131
 4426 1076 01       		.byte	0x1
 4427 1077 3D       		.byte	0x3d
 4428 1078 6B100000 		.4byte	0x106b
 4429 107c 05       		.uleb128 0x5
 4430 107d 03       		.byte	0x3
 4431 107e 00000000 		.4byte	_lv_txt_encoded_prev
 4432 1082 0F       		.uleb128 0xf
 4433 1083 FD000000 		.4byte	0xfd
 4434 1087 96100000 		.4byte	0x1096
ARM GAS  C:\Users\haske\AppData\Local\Temp\ccg6iOQH.s 			page 105


 4435 108b 10       		.uleb128 0x10
 4436 108c C2020000 		.4byte	0x2c2
 4437 1090 10       		.uleb128 0x10
 4438 1091 FD000000 		.4byte	0xfd
 4439 1095 00       		.byte	0
 4440 1096 3E       		.uleb128 0x3e
 4441 1097 4A040000 		.4byte	.LASF132
 4442 109b 01       		.byte	0x1
 4443 109c 3E       		.byte	0x3e
 4444 109d A7100000 		.4byte	0x10a7
 4445 10a1 05       		.uleb128 0x5
 4446 10a2 03       		.byte	0x3
 4447 10a3 00000000 		.4byte	_lv_txt_encoded_get_byte_id
 4448 10a7 0D       		.uleb128 0xd
 4449 10a8 04       		.byte	0x4
 4450 10a9 82100000 		.4byte	0x1082
 4451 10ad 3E       		.uleb128 0x3e
 4452 10ae 0D030000 		.4byte	.LASF133
 4453 10b2 01       		.byte	0x1
 4454 10b3 3F       		.byte	0x3f
 4455 10b4 A7100000 		.4byte	0x10a7
 4456 10b8 05       		.uleb128 0x5
 4457 10b9 03       		.byte	0x3
 4458 10ba 00000000 		.4byte	_lv_txt_encoded_get_char_id
 4459 10be 0F       		.uleb128 0xf
 4460 10bf FD000000 		.4byte	0xfd
 4461 10c3 CD100000 		.4byte	0x10cd
 4462 10c7 10       		.uleb128 0x10
 4463 10c8 C2020000 		.4byte	0x2c2
 4464 10cc 00       		.byte	0
 4465 10cd 3E       		.uleb128 0x3e
 4466 10ce 3F050000 		.4byte	.LASF134
 4467 10d2 01       		.byte	0x1
 4468 10d3 40       		.byte	0x40
 4469 10d4 DE100000 		.4byte	0x10de
 4470 10d8 05       		.uleb128 0x5
 4471 10d9 03       		.byte	0x3
 4472 10da 00000000 		.4byte	_lv_txt_get_encoded_length
 4473 10de 0D       		.uleb128 0xd
 4474 10df 04       		.byte	0x4
 4475 10e0 BE100000 		.4byte	0x10be
 4476 10e4 3F       		.uleb128 0x3f
 4477 10e5 91060000 		.4byte	.LASF135
 4478 10e9 91060000 		.4byte	.LASF135
 4479 10ed 04       		.byte	0x4
 4480 10ee 75       		.byte	0x75
 4481 10ef 3F       		.uleb128 0x3f
 4482 10f0 A6020000 		.4byte	.LASF136
 4483 10f4 A6020000 		.4byte	.LASF136
 4484 10f8 0B       		.byte	0xb
 4485 10f9 21       		.byte	0x21
 4486 10fa 3F       		.uleb128 0x3f
 4487 10fb 4B010000 		.4byte	.LASF137
 4488 10ff 4B010000 		.4byte	.LASF137
 4489 1103 0C       		.byte	0xc
 4490 1104 52       		.byte	0x52
 4491 1105 3F       		.uleb128 0x3f
ARM GAS  C:\Users\haske\AppData\Local\Temp\ccg6iOQH.s 			page 106


 4492 1106 58010000 		.4byte	.LASF138
 4493 110a 58010000 		.4byte	.LASF138
 4494 110e 02       		.byte	0x2
 4495 110f 4A       		.byte	0x4a
 4496 1110 00       		.byte	0
 4497              		.section	.debug_abbrev,"",%progbits
 4498              	.Ldebug_abbrev0:
 4499 0000 01       		.uleb128 0x1
 4500 0001 11       		.uleb128 0x11
 4501 0002 01       		.byte	0x1
 4502 0003 25       		.uleb128 0x25
 4503 0004 0E       		.uleb128 0xe
 4504 0005 13       		.uleb128 0x13
 4505 0006 0B       		.uleb128 0xb
 4506 0007 03       		.uleb128 0x3
 4507 0008 0E       		.uleb128 0xe
 4508 0009 1B       		.uleb128 0x1b
 4509 000a 0E       		.uleb128 0xe
 4510 000b 55       		.uleb128 0x55
 4511 000c 17       		.uleb128 0x17
 4512 000d 11       		.uleb128 0x11
 4513 000e 01       		.uleb128 0x1
 4514 000f 10       		.uleb128 0x10
 4515 0010 17       		.uleb128 0x17
 4516 0011 00       		.byte	0
 4517 0012 00       		.byte	0
 4518 0013 02       		.uleb128 0x2
 4519 0014 16       		.uleb128 0x16
 4520 0015 00       		.byte	0
 4521 0016 03       		.uleb128 0x3
 4522 0017 0E       		.uleb128 0xe
 4523 0018 3A       		.uleb128 0x3a
 4524 0019 0B       		.uleb128 0xb
 4525 001a 3B       		.uleb128 0x3b
 4526 001b 0B       		.uleb128 0xb
 4527 001c 49       		.uleb128 0x49
 4528 001d 13       		.uleb128 0x13
 4529 001e 00       		.byte	0
 4530 001f 00       		.byte	0
 4531 0020 03       		.uleb128 0x3
 4532 0021 13       		.uleb128 0x13
 4533 0022 01       		.byte	0x1
 4534 0023 03       		.uleb128 0x3
 4535 0024 0E       		.uleb128 0xe
 4536 0025 0B       		.uleb128 0xb
 4537 0026 0B       		.uleb128 0xb
 4538 0027 3A       		.uleb128 0x3a
 4539 0028 0B       		.uleb128 0xb
 4540 0029 3B       		.uleb128 0x3b
 4541 002a 0B       		.uleb128 0xb
 4542 002b 01       		.uleb128 0x1
 4543 002c 13       		.uleb128 0x13
 4544 002d 00       		.byte	0
 4545 002e 00       		.byte	0
 4546 002f 04       		.uleb128 0x4
 4547 0030 0D       		.uleb128 0xd
 4548 0031 00       		.byte	0
ARM GAS  C:\Users\haske\AppData\Local\Temp\ccg6iOQH.s 			page 107


 4549 0032 03       		.uleb128 0x3
 4550 0033 0E       		.uleb128 0xe
 4551 0034 49       		.uleb128 0x49
 4552 0035 13       		.uleb128 0x13
 4553 0036 38       		.uleb128 0x38
 4554 0037 0B       		.uleb128 0xb
 4555 0038 34       		.uleb128 0x34
 4556 0039 19       		.uleb128 0x19
 4557 003a 00       		.byte	0
 4558 003b 00       		.byte	0
 4559 003c 05       		.uleb128 0x5
 4560 003d 0F       		.uleb128 0xf
 4561 003e 00       		.byte	0
 4562 003f 0B       		.uleb128 0xb
 4563 0040 0B       		.uleb128 0xb
 4564 0041 00       		.byte	0
 4565 0042 00       		.byte	0
 4566 0043 06       		.uleb128 0x6
 4567 0044 24       		.uleb128 0x24
 4568 0045 00       		.byte	0
 4569 0046 0B       		.uleb128 0xb
 4570 0047 0B       		.uleb128 0xb
 4571 0048 3E       		.uleb128 0x3e
 4572 0049 0B       		.uleb128 0xb
 4573 004a 03       		.uleb128 0x3
 4574 004b 0E       		.uleb128 0xe
 4575 004c 00       		.byte	0
 4576 004d 00       		.byte	0
 4577 004e 07       		.uleb128 0x7
 4578 004f 24       		.uleb128 0x24
 4579 0050 00       		.byte	0
 4580 0051 0B       		.uleb128 0xb
 4581 0052 0B       		.uleb128 0xb
 4582 0053 3E       		.uleb128 0x3e
 4583 0054 0B       		.uleb128 0xb
 4584 0055 03       		.uleb128 0x3
 4585 0056 08       		.uleb128 0x8
 4586 0057 00       		.byte	0
 4587 0058 00       		.byte	0
 4588 0059 08       		.uleb128 0x8
 4589 005a 13       		.uleb128 0x13
 4590 005b 01       		.byte	0x1
 4591 005c 0B       		.uleb128 0xb
 4592 005d 0B       		.uleb128 0xb
 4593 005e 3A       		.uleb128 0x3a
 4594 005f 0B       		.uleb128 0xb
 4595 0060 3B       		.uleb128 0x3b
 4596 0061 0B       		.uleb128 0xb
 4597 0062 01       		.uleb128 0x1
 4598 0063 13       		.uleb128 0x13
 4599 0064 00       		.byte	0
 4600 0065 00       		.byte	0
 4601 0066 09       		.uleb128 0x9
 4602 0067 0D       		.uleb128 0xd
 4603 0068 00       		.byte	0
 4604 0069 03       		.uleb128 0x3
 4605 006a 08       		.uleb128 0x8
ARM GAS  C:\Users\haske\AppData\Local\Temp\ccg6iOQH.s 			page 108


 4606 006b 3A       		.uleb128 0x3a
 4607 006c 0B       		.uleb128 0xb
 4608 006d 3B       		.uleb128 0x3b
 4609 006e 0B       		.uleb128 0xb
 4610 006f 49       		.uleb128 0x49
 4611 0070 13       		.uleb128 0x13
 4612 0071 38       		.uleb128 0x38
 4613 0072 0B       		.uleb128 0xb
 4614 0073 00       		.byte	0
 4615 0074 00       		.byte	0
 4616 0075 0A       		.uleb128 0xa
 4617 0076 0D       		.uleb128 0xd
 4618 0077 00       		.byte	0
 4619 0078 03       		.uleb128 0x3
 4620 0079 0E       		.uleb128 0xe
 4621 007a 3A       		.uleb128 0x3a
 4622 007b 0B       		.uleb128 0xb
 4623 007c 3B       		.uleb128 0x3b
 4624 007d 0B       		.uleb128 0xb
 4625 007e 49       		.uleb128 0x49
 4626 007f 13       		.uleb128 0x13
 4627 0080 38       		.uleb128 0x38
 4628 0081 0B       		.uleb128 0xb
 4629 0082 00       		.byte	0
 4630 0083 00       		.byte	0
 4631 0084 0B       		.uleb128 0xb
 4632 0085 0D       		.uleb128 0xd
 4633 0086 00       		.byte	0
 4634 0087 03       		.uleb128 0x3
 4635 0088 08       		.uleb128 0x8
 4636 0089 3A       		.uleb128 0x3a
 4637 008a 0B       		.uleb128 0xb
 4638 008b 3B       		.uleb128 0x3b
 4639 008c 0B       		.uleb128 0xb
 4640 008d 49       		.uleb128 0x49
 4641 008e 13       		.uleb128 0x13
 4642 008f 0B       		.uleb128 0xb
 4643 0090 0B       		.uleb128 0xb
 4644 0091 0D       		.uleb128 0xd
 4645 0092 0B       		.uleb128 0xb
 4646 0093 0C       		.uleb128 0xc
 4647 0094 0B       		.uleb128 0xb
 4648 0095 38       		.uleb128 0x38
 4649 0096 0B       		.uleb128 0xb
 4650 0097 00       		.byte	0
 4651 0098 00       		.byte	0
 4652 0099 0C       		.uleb128 0xc
 4653 009a 0D       		.uleb128 0xd
 4654 009b 00       		.byte	0
 4655 009c 03       		.uleb128 0x3
 4656 009d 0E       		.uleb128 0xe
 4657 009e 3A       		.uleb128 0x3a
 4658 009f 0B       		.uleb128 0xb
 4659 00a0 3B       		.uleb128 0x3b
 4660 00a1 0B       		.uleb128 0xb
 4661 00a2 49       		.uleb128 0x49
 4662 00a3 13       		.uleb128 0x13
ARM GAS  C:\Users\haske\AppData\Local\Temp\ccg6iOQH.s 			page 109


 4663 00a4 0B       		.uleb128 0xb
 4664 00a5 0B       		.uleb128 0xb
 4665 00a6 0D       		.uleb128 0xd
 4666 00a7 0B       		.uleb128 0xb
 4667 00a8 0C       		.uleb128 0xc
 4668 00a9 0B       		.uleb128 0xb
 4669 00aa 38       		.uleb128 0x38
 4670 00ab 0B       		.uleb128 0xb
 4671 00ac 00       		.byte	0
 4672 00ad 00       		.byte	0
 4673 00ae 0D       		.uleb128 0xd
 4674 00af 0F       		.uleb128 0xf
 4675 00b0 00       		.byte	0
 4676 00b1 0B       		.uleb128 0xb
 4677 00b2 0B       		.uleb128 0xb
 4678 00b3 49       		.uleb128 0x49
 4679 00b4 13       		.uleb128 0x13
 4680 00b5 00       		.byte	0
 4681 00b6 00       		.byte	0
 4682 00b7 0E       		.uleb128 0xe
 4683 00b8 26       		.uleb128 0x26
 4684 00b9 00       		.byte	0
 4685 00ba 49       		.uleb128 0x49
 4686 00bb 13       		.uleb128 0x13
 4687 00bc 00       		.byte	0
 4688 00bd 00       		.byte	0
 4689 00be 0F       		.uleb128 0xf
 4690 00bf 15       		.uleb128 0x15
 4691 00c0 01       		.byte	0x1
 4692 00c1 27       		.uleb128 0x27
 4693 00c2 19       		.uleb128 0x19
 4694 00c3 49       		.uleb128 0x49
 4695 00c4 13       		.uleb128 0x13
 4696 00c5 01       		.uleb128 0x1
 4697 00c6 13       		.uleb128 0x13
 4698 00c7 00       		.byte	0
 4699 00c8 00       		.byte	0
 4700 00c9 10       		.uleb128 0x10
 4701 00ca 05       		.uleb128 0x5
 4702 00cb 00       		.byte	0
 4703 00cc 49       		.uleb128 0x49
 4704 00cd 13       		.uleb128 0x13
 4705 00ce 00       		.byte	0
 4706 00cf 00       		.byte	0
 4707 00d0 11       		.uleb128 0x11
 4708 00d1 26       		.uleb128 0x26
 4709 00d2 00       		.byte	0
 4710 00d3 00       		.byte	0
 4711 00d4 00       		.byte	0
 4712 00d5 12       		.uleb128 0x12
 4713 00d6 04       		.uleb128 0x4
 4714 00d7 01       		.byte	0x1
 4715 00d8 0B       		.uleb128 0xb
 4716 00d9 0B       		.uleb128 0xb
 4717 00da 49       		.uleb128 0x49
 4718 00db 13       		.uleb128 0x13
 4719 00dc 3A       		.uleb128 0x3a
ARM GAS  C:\Users\haske\AppData\Local\Temp\ccg6iOQH.s 			page 110


 4720 00dd 0B       		.uleb128 0xb
 4721 00de 3B       		.uleb128 0x3b
 4722 00df 0B       		.uleb128 0xb
 4723 00e0 01       		.uleb128 0x1
 4724 00e1 13       		.uleb128 0x13
 4725 00e2 00       		.byte	0
 4726 00e3 00       		.byte	0
 4727 00e4 13       		.uleb128 0x13
 4728 00e5 28       		.uleb128 0x28
 4729 00e6 00       		.byte	0
 4730 00e7 03       		.uleb128 0x3
 4731 00e8 0E       		.uleb128 0xe
 4732 00e9 1C       		.uleb128 0x1c
 4733 00ea 0B       		.uleb128 0xb
 4734 00eb 00       		.byte	0
 4735 00ec 00       		.byte	0
 4736 00ed 14       		.uleb128 0x14
 4737 00ee 2E       		.uleb128 0x2e
 4738 00ef 01       		.byte	0x1
 4739 00f0 03       		.uleb128 0x3
 4740 00f1 0E       		.uleb128 0xe
 4741 00f2 3A       		.uleb128 0x3a
 4742 00f3 0B       		.uleb128 0xb
 4743 00f4 3B       		.uleb128 0x3b
 4744 00f5 0B       		.uleb128 0xb
 4745 00f6 27       		.uleb128 0x27
 4746 00f7 19       		.uleb128 0x19
 4747 00f8 49       		.uleb128 0x49
 4748 00f9 13       		.uleb128 0x13
 4749 00fa 20       		.uleb128 0x20
 4750 00fb 0B       		.uleb128 0xb
 4751 00fc 01       		.uleb128 0x1
 4752 00fd 13       		.uleb128 0x13
 4753 00fe 00       		.byte	0
 4754 00ff 00       		.byte	0
 4755 0100 15       		.uleb128 0x15
 4756 0101 05       		.uleb128 0x5
 4757 0102 00       		.byte	0
 4758 0103 03       		.uleb128 0x3
 4759 0104 08       		.uleb128 0x8
 4760 0105 3A       		.uleb128 0x3a
 4761 0106 0B       		.uleb128 0xb
 4762 0107 3B       		.uleb128 0x3b
 4763 0108 0B       		.uleb128 0xb
 4764 0109 49       		.uleb128 0x49
 4765 010a 13       		.uleb128 0x13
 4766 010b 00       		.byte	0
 4767 010c 00       		.byte	0
 4768 010d 16       		.uleb128 0x16
 4769 010e 34       		.uleb128 0x34
 4770 010f 00       		.byte	0
 4771 0110 03       		.uleb128 0x3
 4772 0111 08       		.uleb128 0x8
 4773 0112 3A       		.uleb128 0x3a
 4774 0113 0B       		.uleb128 0xb
 4775 0114 3B       		.uleb128 0x3b
 4776 0115 0B       		.uleb128 0xb
ARM GAS  C:\Users\haske\AppData\Local\Temp\ccg6iOQH.s 			page 111


 4777 0116 49       		.uleb128 0x49
 4778 0117 13       		.uleb128 0x13
 4779 0118 00       		.byte	0
 4780 0119 00       		.byte	0
 4781 011a 17       		.uleb128 0x17
 4782 011b 05       		.uleb128 0x5
 4783 011c 00       		.byte	0
 4784 011d 03       		.uleb128 0x3
 4785 011e 0E       		.uleb128 0xe
 4786 011f 3A       		.uleb128 0x3a
 4787 0120 0B       		.uleb128 0xb
 4788 0121 3B       		.uleb128 0x3b
 4789 0122 0B       		.uleb128 0xb
 4790 0123 49       		.uleb128 0x49
 4791 0124 13       		.uleb128 0x13
 4792 0125 00       		.byte	0
 4793 0126 00       		.byte	0
 4794 0127 18       		.uleb128 0x18
 4795 0128 2E       		.uleb128 0x2e
 4796 0129 01       		.byte	0x1
 4797 012a 03       		.uleb128 0x3
 4798 012b 0E       		.uleb128 0xe
 4799 012c 3A       		.uleb128 0x3a
 4800 012d 0B       		.uleb128 0xb
 4801 012e 3B       		.uleb128 0x3b
 4802 012f 05       		.uleb128 0x5
 4803 0130 27       		.uleb128 0x27
 4804 0131 19       		.uleb128 0x19
 4805 0132 49       		.uleb128 0x49
 4806 0133 13       		.uleb128 0x13
 4807 0134 11       		.uleb128 0x11
 4808 0135 01       		.uleb128 0x1
 4809 0136 12       		.uleb128 0x12
 4810 0137 06       		.uleb128 0x6
 4811 0138 40       		.uleb128 0x40
 4812 0139 18       		.uleb128 0x18
 4813 013a 9742     		.uleb128 0x2117
 4814 013c 19       		.uleb128 0x19
 4815 013d 01       		.uleb128 0x1
 4816 013e 13       		.uleb128 0x13
 4817 013f 00       		.byte	0
 4818 0140 00       		.byte	0
 4819 0141 19       		.uleb128 0x19
 4820 0142 05       		.uleb128 0x5
 4821 0143 00       		.byte	0
 4822 0144 03       		.uleb128 0x3
 4823 0145 08       		.uleb128 0x8
 4824 0146 3A       		.uleb128 0x3a
 4825 0147 0B       		.uleb128 0xb
 4826 0148 3B       		.uleb128 0x3b
 4827 0149 05       		.uleb128 0x5
 4828 014a 49       		.uleb128 0x49
 4829 014b 13       		.uleb128 0x13
 4830 014c 02       		.uleb128 0x2
 4831 014d 17       		.uleb128 0x17
 4832 014e 00       		.byte	0
 4833 014f 00       		.byte	0
ARM GAS  C:\Users\haske\AppData\Local\Temp\ccg6iOQH.s 			page 112


 4834 0150 1A       		.uleb128 0x1a
 4835 0151 05       		.uleb128 0x5
 4836 0152 00       		.byte	0
 4837 0153 03       		.uleb128 0x3
 4838 0154 0E       		.uleb128 0xe
 4839 0155 3A       		.uleb128 0x3a
 4840 0156 0B       		.uleb128 0xb
 4841 0157 3B       		.uleb128 0x3b
 4842 0158 05       		.uleb128 0x5
 4843 0159 49       		.uleb128 0x49
 4844 015a 13       		.uleb128 0x13
 4845 015b 02       		.uleb128 0x2
 4846 015c 17       		.uleb128 0x17
 4847 015d 00       		.byte	0
 4848 015e 00       		.byte	0
 4849 015f 1B       		.uleb128 0x1b
 4850 0160 34       		.uleb128 0x34
 4851 0161 00       		.byte	0
 4852 0162 03       		.uleb128 0x3
 4853 0163 0E       		.uleb128 0xe
 4854 0164 3A       		.uleb128 0x3a
 4855 0165 0B       		.uleb128 0xb
 4856 0166 3B       		.uleb128 0x3b
 4857 0167 05       		.uleb128 0x5
 4858 0168 49       		.uleb128 0x49
 4859 0169 13       		.uleb128 0x13
 4860 016a 02       		.uleb128 0x2
 4861 016b 18       		.uleb128 0x18
 4862 016c 00       		.byte	0
 4863 016d 00       		.byte	0
 4864 016e 1C       		.uleb128 0x1c
 4865 016f 34       		.uleb128 0x34
 4866 0170 00       		.byte	0
 4867 0171 03       		.uleb128 0x3
 4868 0172 0E       		.uleb128 0xe
 4869 0173 3A       		.uleb128 0x3a
 4870 0174 0B       		.uleb128 0xb
 4871 0175 3B       		.uleb128 0x3b
 4872 0176 05       		.uleb128 0x5
 4873 0177 49       		.uleb128 0x49
 4874 0178 13       		.uleb128 0x13
 4875 0179 02       		.uleb128 0x2
 4876 017a 17       		.uleb128 0x17
 4877 017b 00       		.byte	0
 4878 017c 00       		.byte	0
 4879 017d 1D       		.uleb128 0x1d
 4880 017e 01       		.uleb128 0x1
 4881 017f 01       		.byte	0x1
 4882 0180 49       		.uleb128 0x49
 4883 0181 13       		.uleb128 0x13
 4884 0182 01       		.uleb128 0x1
 4885 0183 13       		.uleb128 0x13
 4886 0184 00       		.byte	0
 4887 0185 00       		.byte	0
 4888 0186 1E       		.uleb128 0x1e
 4889 0187 21       		.uleb128 0x21
 4890 0188 00       		.byte	0
ARM GAS  C:\Users\haske\AppData\Local\Temp\ccg6iOQH.s 			page 113


 4891 0189 49       		.uleb128 0x49
 4892 018a 13       		.uleb128 0x13
 4893 018b 2F       		.uleb128 0x2f
 4894 018c 0B       		.uleb128 0xb
 4895 018d 00       		.byte	0
 4896 018e 00       		.byte	0
 4897 018f 1F       		.uleb128 0x1f
 4898 0190 0B       		.uleb128 0xb
 4899 0191 01       		.byte	0x1
 4900 0192 55       		.uleb128 0x55
 4901 0193 17       		.uleb128 0x17
 4902 0194 00       		.byte	0
 4903 0195 00       		.byte	0
 4904 0196 20       		.uleb128 0x20
 4905 0197 34       		.uleb128 0x34
 4906 0198 00       		.byte	0
 4907 0199 03       		.uleb128 0x3
 4908 019a 08       		.uleb128 0x8
 4909 019b 3A       		.uleb128 0x3a
 4910 019c 0B       		.uleb128 0xb
 4911 019d 3B       		.uleb128 0x3b
 4912 019e 05       		.uleb128 0x5
 4913 019f 49       		.uleb128 0x49
 4914 01a0 13       		.uleb128 0x13
 4915 01a1 02       		.uleb128 0x2
 4916 01a2 18       		.uleb128 0x18
 4917 01a3 00       		.byte	0
 4918 01a4 00       		.byte	0
 4919 01a5 21       		.uleb128 0x21
 4920 01a6 34       		.uleb128 0x34
 4921 01a7 00       		.byte	0
 4922 01a8 03       		.uleb128 0x3
 4923 01a9 08       		.uleb128 0x8
 4924 01aa 3A       		.uleb128 0x3a
 4925 01ab 0B       		.uleb128 0xb
 4926 01ac 3B       		.uleb128 0x3b
 4927 01ad 05       		.uleb128 0x5
 4928 01ae 49       		.uleb128 0x49
 4929 01af 13       		.uleb128 0x13
 4930 01b0 02       		.uleb128 0x2
 4931 01b1 17       		.uleb128 0x17
 4932 01b2 00       		.byte	0
 4933 01b3 00       		.byte	0
 4934 01b4 22       		.uleb128 0x22
 4935 01b5 1D       		.uleb128 0x1d
 4936 01b6 01       		.byte	0x1
 4937 01b7 31       		.uleb128 0x31
 4938 01b8 13       		.uleb128 0x13
 4939 01b9 52       		.uleb128 0x52
 4940 01ba 01       		.uleb128 0x1
 4941 01bb 55       		.uleb128 0x55
 4942 01bc 17       		.uleb128 0x17
 4943 01bd 58       		.uleb128 0x58
 4944 01be 0B       		.uleb128 0xb
 4945 01bf 59       		.uleb128 0x59
 4946 01c0 05       		.uleb128 0x5
 4947 01c1 00       		.byte	0
ARM GAS  C:\Users\haske\AppData\Local\Temp\ccg6iOQH.s 			page 114


 4948 01c2 00       		.byte	0
 4949 01c3 23       		.uleb128 0x23
 4950 01c4 05       		.uleb128 0x5
 4951 01c5 00       		.byte	0
 4952 01c6 31       		.uleb128 0x31
 4953 01c7 13       		.uleb128 0x13
 4954 01c8 02       		.uleb128 0x2
 4955 01c9 17       		.uleb128 0x17
 4956 01ca 00       		.byte	0
 4957 01cb 00       		.byte	0
 4958 01cc 24       		.uleb128 0x24
 4959 01cd 05       		.uleb128 0x5
 4960 01ce 00       		.byte	0
 4961 01cf 31       		.uleb128 0x31
 4962 01d0 13       		.uleb128 0x13
 4963 01d1 02       		.uleb128 0x2
 4964 01d2 18       		.uleb128 0x18
 4965 01d3 00       		.byte	0
 4966 01d4 00       		.byte	0
 4967 01d5 25       		.uleb128 0x25
 4968 01d6 34       		.uleb128 0x34
 4969 01d7 00       		.byte	0
 4970 01d8 31       		.uleb128 0x31
 4971 01d9 13       		.uleb128 0x13
 4972 01da 02       		.uleb128 0x2
 4973 01db 17       		.uleb128 0x17
 4974 01dc 00       		.byte	0
 4975 01dd 00       		.byte	0
 4976 01de 26       		.uleb128 0x26
 4977 01df 2E       		.uleb128 0x2e
 4978 01e0 01       		.byte	0x1
 4979 01e1 03       		.uleb128 0x3
 4980 01e2 0E       		.uleb128 0xe
 4981 01e3 3A       		.uleb128 0x3a
 4982 01e4 0B       		.uleb128 0xb
 4983 01e5 3B       		.uleb128 0x3b
 4984 01e6 05       		.uleb128 0x5
 4985 01e7 27       		.uleb128 0x27
 4986 01e8 19       		.uleb128 0x19
 4987 01e9 49       		.uleb128 0x49
 4988 01ea 13       		.uleb128 0x13
 4989 01eb 11       		.uleb128 0x11
 4990 01ec 01       		.uleb128 0x1
 4991 01ed 12       		.uleb128 0x12
 4992 01ee 06       		.uleb128 0x6
 4993 01ef 40       		.uleb128 0x40
 4994 01f0 18       		.uleb128 0x18
 4995 01f1 9642     		.uleb128 0x2116
 4996 01f3 19       		.uleb128 0x19
 4997 01f4 01       		.uleb128 0x1
 4998 01f5 13       		.uleb128 0x13
 4999 01f6 00       		.byte	0
 5000 01f7 00       		.byte	0
 5001 01f8 27       		.uleb128 0x27
 5002 01f9 34       		.uleb128 0x34
 5003 01fa 00       		.byte	0
 5004 01fb 03       		.uleb128 0x3
ARM GAS  C:\Users\haske\AppData\Local\Temp\ccg6iOQH.s 			page 115


 5005 01fc 0E       		.uleb128 0xe
 5006 01fd 3A       		.uleb128 0x3a
 5007 01fe 0B       		.uleb128 0xb
 5008 01ff 3B       		.uleb128 0x3b
 5009 0200 05       		.uleb128 0x5
 5010 0201 49       		.uleb128 0x49
 5011 0202 13       		.uleb128 0x13
 5012 0203 00       		.byte	0
 5013 0204 00       		.byte	0
 5014 0205 28       		.uleb128 0x28
 5015 0206 898201   		.uleb128 0x4109
 5016 0209 01       		.byte	0x1
 5017 020a 11       		.uleb128 0x11
 5018 020b 01       		.uleb128 0x1
 5019 020c 00       		.byte	0
 5020 020d 00       		.byte	0
 5021 020e 29       		.uleb128 0x29
 5022 020f 8A8201   		.uleb128 0x410a
 5023 0212 00       		.byte	0
 5024 0213 02       		.uleb128 0x2
 5025 0214 18       		.uleb128 0x18
 5026 0215 9142     		.uleb128 0x2111
 5027 0217 18       		.uleb128 0x18
 5028 0218 00       		.byte	0
 5029 0219 00       		.byte	0
 5030 021a 2A       		.uleb128 0x2a
 5031 021b 0B       		.uleb128 0xb
 5032 021c 01       		.byte	0x1
 5033 021d 11       		.uleb128 0x11
 5034 021e 01       		.uleb128 0x1
 5035 021f 12       		.uleb128 0x12
 5036 0220 06       		.uleb128 0x6
 5037 0221 00       		.byte	0
 5038 0222 00       		.byte	0
 5039 0223 2B       		.uleb128 0x2b
 5040 0224 2E       		.uleb128 0x2e
 5041 0225 01       		.byte	0x1
 5042 0226 3F       		.uleb128 0x3f
 5043 0227 19       		.uleb128 0x19
 5044 0228 03       		.uleb128 0x3
 5045 0229 0E       		.uleb128 0xe
 5046 022a 3A       		.uleb128 0x3a
 5047 022b 0B       		.uleb128 0xb
 5048 022c 3B       		.uleb128 0x3b
 5049 022d 05       		.uleb128 0x5
 5050 022e 27       		.uleb128 0x27
 5051 022f 19       		.uleb128 0x19
 5052 0230 49       		.uleb128 0x49
 5053 0231 13       		.uleb128 0x13
 5054 0232 11       		.uleb128 0x11
 5055 0233 01       		.uleb128 0x1
 5056 0234 12       		.uleb128 0x12
 5057 0235 06       		.uleb128 0x6
 5058 0236 40       		.uleb128 0x40
 5059 0237 18       		.uleb128 0x18
 5060 0238 9742     		.uleb128 0x2117
 5061 023a 19       		.uleb128 0x19
ARM GAS  C:\Users\haske\AppData\Local\Temp\ccg6iOQH.s 			page 116


 5062 023b 01       		.uleb128 0x1
 5063 023c 13       		.uleb128 0x13
 5064 023d 00       		.byte	0
 5065 023e 00       		.byte	0
 5066 023f 2C       		.uleb128 0x2c
 5067 0240 05       		.uleb128 0x5
 5068 0241 00       		.byte	0
 5069 0242 03       		.uleb128 0x3
 5070 0243 08       		.uleb128 0x8
 5071 0244 3A       		.uleb128 0x3a
 5072 0245 0B       		.uleb128 0xb
 5073 0246 3B       		.uleb128 0x3b
 5074 0247 05       		.uleb128 0x5
 5075 0248 49       		.uleb128 0x49
 5076 0249 13       		.uleb128 0x13
 5077 024a 02       		.uleb128 0x2
 5078 024b 18       		.uleb128 0x18
 5079 024c 00       		.byte	0
 5080 024d 00       		.byte	0
 5081 024e 2D       		.uleb128 0x2d
 5082 024f 2E       		.uleb128 0x2e
 5083 0250 01       		.byte	0x1
 5084 0251 03       		.uleb128 0x3
 5085 0252 0E       		.uleb128 0xe
 5086 0253 3A       		.uleb128 0x3a
 5087 0254 0B       		.uleb128 0xb
 5088 0255 3B       		.uleb128 0x3b
 5089 0256 0B       		.uleb128 0xb
 5090 0257 27       		.uleb128 0x27
 5091 0258 19       		.uleb128 0x19
 5092 0259 49       		.uleb128 0x49
 5093 025a 13       		.uleb128 0x13
 5094 025b 11       		.uleb128 0x11
 5095 025c 01       		.uleb128 0x1
 5096 025d 12       		.uleb128 0x12
 5097 025e 06       		.uleb128 0x6
 5098 025f 40       		.uleb128 0x40
 5099 0260 18       		.uleb128 0x18
 5100 0261 9742     		.uleb128 0x2117
 5101 0263 19       		.uleb128 0x19
 5102 0264 01       		.uleb128 0x1
 5103 0265 13       		.uleb128 0x13
 5104 0266 00       		.byte	0
 5105 0267 00       		.byte	0
 5106 0268 2E       		.uleb128 0x2e
 5107 0269 05       		.uleb128 0x5
 5108 026a 00       		.byte	0
 5109 026b 03       		.uleb128 0x3
 5110 026c 08       		.uleb128 0x8
 5111 026d 3A       		.uleb128 0x3a
 5112 026e 0B       		.uleb128 0xb
 5113 026f 3B       		.uleb128 0x3b
 5114 0270 0B       		.uleb128 0xb
 5115 0271 49       		.uleb128 0x49
 5116 0272 13       		.uleb128 0x13
 5117 0273 02       		.uleb128 0x2
 5118 0274 17       		.uleb128 0x17
ARM GAS  C:\Users\haske\AppData\Local\Temp\ccg6iOQH.s 			page 117


 5119 0275 00       		.byte	0
 5120 0276 00       		.byte	0
 5121 0277 2F       		.uleb128 0x2f
 5122 0278 05       		.uleb128 0x5
 5123 0279 00       		.byte	0
 5124 027a 03       		.uleb128 0x3
 5125 027b 0E       		.uleb128 0xe
 5126 027c 3A       		.uleb128 0x3a
 5127 027d 0B       		.uleb128 0xb
 5128 027e 3B       		.uleb128 0x3b
 5129 027f 0B       		.uleb128 0xb
 5130 0280 49       		.uleb128 0x49
 5131 0281 13       		.uleb128 0x13
 5132 0282 02       		.uleb128 0x2
 5133 0283 17       		.uleb128 0x17
 5134 0284 00       		.byte	0
 5135 0285 00       		.byte	0
 5136 0286 30       		.uleb128 0x30
 5137 0287 34       		.uleb128 0x34
 5138 0288 00       		.byte	0
 5139 0289 03       		.uleb128 0x3
 5140 028a 08       		.uleb128 0x8
 5141 028b 3A       		.uleb128 0x3a
 5142 028c 0B       		.uleb128 0xb
 5143 028d 3B       		.uleb128 0x3b
 5144 028e 0B       		.uleb128 0xb
 5145 028f 49       		.uleb128 0x49
 5146 0290 13       		.uleb128 0x13
 5147 0291 02       		.uleb128 0x2
 5148 0292 17       		.uleb128 0x17
 5149 0293 00       		.byte	0
 5150 0294 00       		.byte	0
 5151 0295 31       		.uleb128 0x31
 5152 0296 34       		.uleb128 0x34
 5153 0297 00       		.byte	0
 5154 0298 03       		.uleb128 0x3
 5155 0299 0E       		.uleb128 0xe
 5156 029a 3A       		.uleb128 0x3a
 5157 029b 0B       		.uleb128 0xb
 5158 029c 3B       		.uleb128 0x3b
 5159 029d 0B       		.uleb128 0xb
 5160 029e 49       		.uleb128 0x49
 5161 029f 13       		.uleb128 0x13
 5162 02a0 02       		.uleb128 0x2
 5163 02a1 18       		.uleb128 0x18
 5164 02a2 00       		.byte	0
 5165 02a3 00       		.byte	0
 5166 02a4 32       		.uleb128 0x32
 5167 02a5 34       		.uleb128 0x34
 5168 02a6 00       		.byte	0
 5169 02a7 03       		.uleb128 0x3
 5170 02a8 0E       		.uleb128 0xe
 5171 02a9 3A       		.uleb128 0x3a
 5172 02aa 0B       		.uleb128 0xb
 5173 02ab 3B       		.uleb128 0x3b
 5174 02ac 0B       		.uleb128 0xb
 5175 02ad 49       		.uleb128 0x49
ARM GAS  C:\Users\haske\AppData\Local\Temp\ccg6iOQH.s 			page 118


 5176 02ae 13       		.uleb128 0x13
 5177 02af 02       		.uleb128 0x2
 5178 02b0 17       		.uleb128 0x17
 5179 02b1 00       		.byte	0
 5180 02b2 00       		.byte	0
 5181 02b3 33       		.uleb128 0x33
 5182 02b4 1D       		.uleb128 0x1d
 5183 02b5 01       		.byte	0x1
 5184 02b6 31       		.uleb128 0x31
 5185 02b7 13       		.uleb128 0x13
 5186 02b8 52       		.uleb128 0x52
 5187 02b9 01       		.uleb128 0x1
 5188 02ba 55       		.uleb128 0x55
 5189 02bb 17       		.uleb128 0x17
 5190 02bc 58       		.uleb128 0x58
 5191 02bd 0B       		.uleb128 0xb
 5192 02be 59       		.uleb128 0x59
 5193 02bf 0B       		.uleb128 0xb
 5194 02c0 01       		.uleb128 0x1
 5195 02c1 13       		.uleb128 0x13
 5196 02c2 00       		.byte	0
 5197 02c3 00       		.byte	0
 5198 02c4 34       		.uleb128 0x34
 5199 02c5 898201   		.uleb128 0x4109
 5200 02c8 01       		.byte	0x1
 5201 02c9 11       		.uleb128 0x11
 5202 02ca 01       		.uleb128 0x1
 5203 02cb 01       		.uleb128 0x1
 5204 02cc 13       		.uleb128 0x13
 5205 02cd 00       		.byte	0
 5206 02ce 00       		.byte	0
 5207 02cf 35       		.uleb128 0x35
 5208 02d0 898201   		.uleb128 0x4109
 5209 02d3 01       		.byte	0x1
 5210 02d4 11       		.uleb128 0x11
 5211 02d5 01       		.uleb128 0x1
 5212 02d6 31       		.uleb128 0x31
 5213 02d7 13       		.uleb128 0x13
 5214 02d8 01       		.uleb128 0x1
 5215 02d9 13       		.uleb128 0x13
 5216 02da 00       		.byte	0
 5217 02db 00       		.byte	0
 5218 02dc 36       		.uleb128 0x36
 5219 02dd 898201   		.uleb128 0x4109
 5220 02e0 01       		.byte	0x1
 5221 02e1 11       		.uleb128 0x11
 5222 02e2 01       		.uleb128 0x1
 5223 02e3 31       		.uleb128 0x31
 5224 02e4 13       		.uleb128 0x13
 5225 02e5 00       		.byte	0
 5226 02e6 00       		.byte	0
 5227 02e7 37       		.uleb128 0x37
 5228 02e8 0B       		.uleb128 0xb
 5229 02e9 01       		.byte	0x1
 5230 02ea 55       		.uleb128 0x55
 5231 02eb 17       		.uleb128 0x17
 5232 02ec 01       		.uleb128 0x1
ARM GAS  C:\Users\haske\AppData\Local\Temp\ccg6iOQH.s 			page 119


 5233 02ed 13       		.uleb128 0x13
 5234 02ee 00       		.byte	0
 5235 02ef 00       		.byte	0
 5236 02f0 38       		.uleb128 0x38
 5237 02f1 0B       		.uleb128 0xb
 5238 02f2 01       		.byte	0x1
 5239 02f3 11       		.uleb128 0x11
 5240 02f4 01       		.uleb128 0x1
 5241 02f5 12       		.uleb128 0x12
 5242 02f6 06       		.uleb128 0x6
 5243 02f7 01       		.uleb128 0x1
 5244 02f8 13       		.uleb128 0x13
 5245 02f9 00       		.byte	0
 5246 02fa 00       		.byte	0
 5247 02fb 39       		.uleb128 0x39
 5248 02fc 2E       		.uleb128 0x2e
 5249 02fd 01       		.byte	0x1
 5250 02fe 3F       		.uleb128 0x3f
 5251 02ff 19       		.uleb128 0x19
 5252 0300 03       		.uleb128 0x3
 5253 0301 0E       		.uleb128 0xe
 5254 0302 3A       		.uleb128 0x3a
 5255 0303 0B       		.uleb128 0xb
 5256 0304 3B       		.uleb128 0x3b
 5257 0305 05       		.uleb128 0x5
 5258 0306 27       		.uleb128 0x27
 5259 0307 19       		.uleb128 0x19
 5260 0308 11       		.uleb128 0x11
 5261 0309 01       		.uleb128 0x1
 5262 030a 12       		.uleb128 0x12
 5263 030b 06       		.uleb128 0x6
 5264 030c 40       		.uleb128 0x40
 5265 030d 18       		.uleb128 0x18
 5266 030e 9742     		.uleb128 0x2117
 5267 0310 19       		.uleb128 0x19
 5268 0311 01       		.uleb128 0x1
 5269 0312 13       		.uleb128 0x13
 5270 0313 00       		.byte	0
 5271 0314 00       		.byte	0
 5272 0315 3A       		.uleb128 0x3a
 5273 0316 1D       		.uleb128 0x1d
 5274 0317 01       		.byte	0x1
 5275 0318 31       		.uleb128 0x31
 5276 0319 13       		.uleb128 0x13
 5277 031a 11       		.uleb128 0x11
 5278 031b 01       		.uleb128 0x1
 5279 031c 12       		.uleb128 0x12
 5280 031d 06       		.uleb128 0x6
 5281 031e 58       		.uleb128 0x58
 5282 031f 0B       		.uleb128 0xb
 5283 0320 59       		.uleb128 0x59
 5284 0321 05       		.uleb128 0x5
 5285 0322 01       		.uleb128 0x1
 5286 0323 13       		.uleb128 0x13
 5287 0324 00       		.byte	0
 5288 0325 00       		.byte	0
 5289 0326 3B       		.uleb128 0x3b
ARM GAS  C:\Users\haske\AppData\Local\Temp\ccg6iOQH.s 			page 120


 5290 0327 2E       		.uleb128 0x2e
 5291 0328 01       		.byte	0x1
 5292 0329 3F       		.uleb128 0x3f
 5293 032a 19       		.uleb128 0x19
 5294 032b 03       		.uleb128 0x3
 5295 032c 0E       		.uleb128 0xe
 5296 032d 3A       		.uleb128 0x3a
 5297 032e 0B       		.uleb128 0xb
 5298 032f 3B       		.uleb128 0x3b
 5299 0330 0B       		.uleb128 0xb
 5300 0331 27       		.uleb128 0x27
 5301 0332 19       		.uleb128 0x19
 5302 0333 11       		.uleb128 0x11
 5303 0334 01       		.uleb128 0x1
 5304 0335 12       		.uleb128 0x12
 5305 0336 06       		.uleb128 0x6
 5306 0337 40       		.uleb128 0x40
 5307 0338 18       		.uleb128 0x18
 5308 0339 9742     		.uleb128 0x2117
 5309 033b 19       		.uleb128 0x19
 5310 033c 01       		.uleb128 0x1
 5311 033d 13       		.uleb128 0x13
 5312 033e 00       		.byte	0
 5313 033f 00       		.byte	0
 5314 0340 3C       		.uleb128 0x3c
 5315 0341 1D       		.uleb128 0x1d
 5316 0342 01       		.byte	0x1
 5317 0343 31       		.uleb128 0x31
 5318 0344 13       		.uleb128 0x13
 5319 0345 11       		.uleb128 0x11
 5320 0346 01       		.uleb128 0x1
 5321 0347 12       		.uleb128 0x12
 5322 0348 06       		.uleb128 0x6
 5323 0349 58       		.uleb128 0x58
 5324 034a 0B       		.uleb128 0xb
 5325 034b 59       		.uleb128 0x59
 5326 034c 0B       		.uleb128 0xb
 5327 034d 01       		.uleb128 0x1
 5328 034e 13       		.uleb128 0x13
 5329 034f 00       		.byte	0
 5330 0350 00       		.byte	0
 5331 0351 3D       		.uleb128 0x3d
 5332 0352 34       		.uleb128 0x34
 5333 0353 00       		.byte	0
 5334 0354 03       		.uleb128 0x3
 5335 0355 0E       		.uleb128 0xe
 5336 0356 3A       		.uleb128 0x3a
 5337 0357 0B       		.uleb128 0xb
 5338 0358 3B       		.uleb128 0x3b
 5339 0359 0B       		.uleb128 0xb
 5340 035a 49       		.uleb128 0x49
 5341 035b 13       		.uleb128 0x13
 5342 035c 3F       		.uleb128 0x3f
 5343 035d 19       		.uleb128 0x19
 5344 035e 3C       		.uleb128 0x3c
 5345 035f 19       		.uleb128 0x19
 5346 0360 00       		.byte	0
ARM GAS  C:\Users\haske\AppData\Local\Temp\ccg6iOQH.s 			page 121


 5347 0361 00       		.byte	0
 5348 0362 3E       		.uleb128 0x3e
 5349 0363 34       		.uleb128 0x34
 5350 0364 00       		.byte	0
 5351 0365 03       		.uleb128 0x3
 5352 0366 0E       		.uleb128 0xe
 5353 0367 3A       		.uleb128 0x3a
 5354 0368 0B       		.uleb128 0xb
 5355 0369 3B       		.uleb128 0x3b
 5356 036a 0B       		.uleb128 0xb
 5357 036b 49       		.uleb128 0x49
 5358 036c 13       		.uleb128 0x13
 5359 036d 3F       		.uleb128 0x3f
 5360 036e 19       		.uleb128 0x19
 5361 036f 02       		.uleb128 0x2
 5362 0370 18       		.uleb128 0x18
 5363 0371 00       		.byte	0
 5364 0372 00       		.byte	0
 5365 0373 3F       		.uleb128 0x3f
 5366 0374 2E       		.uleb128 0x2e
 5367 0375 00       		.byte	0
 5368 0376 3F       		.uleb128 0x3f
 5369 0377 19       		.uleb128 0x19
 5370 0378 3C       		.uleb128 0x3c
 5371 0379 19       		.uleb128 0x19
 5372 037a 6E       		.uleb128 0x6e
 5373 037b 0E       		.uleb128 0xe
 5374 037c 03       		.uleb128 0x3
 5375 037d 0E       		.uleb128 0xe
 5376 037e 3A       		.uleb128 0x3a
 5377 037f 0B       		.uleb128 0xb
 5378 0380 3B       		.uleb128 0x3b
 5379 0381 0B       		.uleb128 0xb
 5380 0382 00       		.byte	0
 5381 0383 00       		.byte	0
 5382 0384 00       		.byte	0
 5383              		.section	.debug_loc,"",%progbits
 5384              	.Ldebug_loc0:
 5385              	.LLST0:
 5386 0000 00000000 		.4byte	.LVL0
 5387 0004 26000000 		.4byte	.LVL1
 5388 0008 0100     		.2byte	0x1
 5389 000a 50       		.byte	0x50
 5390 000b 26000000 		.4byte	.LVL1
 5391 000f 28000000 		.4byte	.LVL2
 5392 0013 0400     		.2byte	0x4
 5393 0015 F3       		.byte	0xf3
 5394 0016 01       		.uleb128 0x1
 5395 0017 50       		.byte	0x50
 5396 0018 9F       		.byte	0x9f
 5397 0019 28000000 		.4byte	.LVL2
 5398 001d 2A000000 		.4byte	.LVL3
 5399 0021 0100     		.2byte	0x1
 5400 0023 50       		.byte	0x50
 5401 0024 2A000000 		.4byte	.LVL3
 5402 0028 2C000000 		.4byte	.LVL4
 5403 002c 0400     		.2byte	0x4
ARM GAS  C:\Users\haske\AppData\Local\Temp\ccg6iOQH.s 			page 122


 5404 002e F3       		.byte	0xf3
 5405 002f 01       		.uleb128 0x1
 5406 0030 50       		.byte	0x50
 5407 0031 9F       		.byte	0x9f
 5408 0032 2C000000 		.4byte	.LVL4
 5409 0036 2E000000 		.4byte	.LVL5
 5410 003a 0100     		.2byte	0x1
 5411 003c 50       		.byte	0x50
 5412 003d 2E000000 		.4byte	.LVL5
 5413 0041 30000000 		.4byte	.LVL6
 5414 0045 0400     		.2byte	0x4
 5415 0047 F3       		.byte	0xf3
 5416 0048 01       		.uleb128 0x1
 5417 0049 50       		.byte	0x50
 5418 004a 9F       		.byte	0x9f
 5419 004b 30000000 		.4byte	.LVL6
 5420 004f 32000000 		.4byte	.LVL7
 5421 0053 0100     		.2byte	0x1
 5422 0055 50       		.byte	0x50
 5423 0056 32000000 		.4byte	.LVL7
 5424 005a 34000000 		.4byte	.LVL8
 5425 005e 0400     		.2byte	0x4
 5426 0060 F3       		.byte	0xf3
 5427 0061 01       		.uleb128 0x1
 5428 0062 50       		.byte	0x50
 5429 0063 9F       		.byte	0x9f
 5430 0064 34000000 		.4byte	.LVL8
 5431 0068 36000000 		.4byte	.LVL9
 5432 006c 0100     		.2byte	0x1
 5433 006e 50       		.byte	0x50
 5434 006f 36000000 		.4byte	.LVL9
 5435 0073 38000000 		.4byte	.LFE64
 5436 0077 0400     		.2byte	0x4
 5437 0079 F3       		.byte	0xf3
 5438 007a 01       		.uleb128 0x1
 5439 007b 50       		.byte	0x50
 5440 007c 9F       		.byte	0x9f
 5441 007d 00000000 		.4byte	0
 5442 0081 00000000 		.4byte	0
 5443              	.LLST1:
 5444 0085 00000000 		.4byte	.LVL10
 5445 0089 20000000 		.4byte	.LVL11
 5446 008d 0100     		.2byte	0x1
 5447 008f 50       		.byte	0x50
 5448 0090 20000000 		.4byte	.LVL11
 5449 0094 2E000000 		.4byte	.LVL12
 5450 0098 0400     		.2byte	0x4
 5451 009a F3       		.byte	0xf3
 5452 009b 01       		.uleb128 0x1
 5453 009c 50       		.byte	0x50
 5454 009d 9F       		.byte	0x9f
 5455 009e 2E000000 		.4byte	.LVL12
 5456 00a2 52000000 		.4byte	.LVL13
 5457 00a6 0100     		.2byte	0x1
 5458 00a8 50       		.byte	0x50
 5459 00a9 52000000 		.4byte	.LVL13
 5460 00ad 5C000000 		.4byte	.LVL14
ARM GAS  C:\Users\haske\AppData\Local\Temp\ccg6iOQH.s 			page 123


 5461 00b1 0400     		.2byte	0x4
 5462 00b3 F3       		.byte	0xf3
 5463 00b4 01       		.uleb128 0x1
 5464 00b5 50       		.byte	0x50
 5465 00b6 9F       		.byte	0x9f
 5466 00b7 5C000000 		.4byte	.LVL14
 5467 00bb 88000000 		.4byte	.LVL15
 5468 00bf 0100     		.2byte	0x1
 5469 00c1 50       		.byte	0x50
 5470 00c2 88000000 		.4byte	.LVL15
 5471 00c6 90000000 		.4byte	.LVL17
 5472 00ca 0400     		.2byte	0x4
 5473 00cc F3       		.byte	0xf3
 5474 00cd 01       		.uleb128 0x1
 5475 00ce 50       		.byte	0x50
 5476 00cf 9F       		.byte	0x9f
 5477 00d0 90000000 		.4byte	.LVL17
 5478 00d4 92000000 		.4byte	.LVL18
 5479 00d8 0100     		.2byte	0x1
 5480 00da 50       		.byte	0x50
 5481 00db 92000000 		.4byte	.LVL18
 5482 00df A4000000 		.4byte	.LFE65
 5483 00e3 0400     		.2byte	0x4
 5484 00e5 F3       		.byte	0xf3
 5485 00e6 01       		.uleb128 0x1
 5486 00e7 50       		.byte	0x50
 5487 00e8 9F       		.byte	0x9f
 5488 00e9 00000000 		.4byte	0
 5489 00ed 00000000 		.4byte	0
 5490              	.LLST2:
 5491 00f1 8C000000 		.4byte	.LVL16
 5492 00f5 90000000 		.4byte	.LVL17
 5493 00f9 0300     		.2byte	0x3
 5494 00fb 91       		.byte	0x91
 5495 00fc 74       		.sleb128 -12
 5496 00fd 9F       		.byte	0x9f
 5497 00fe 00000000 		.4byte	0
 5498 0102 00000000 		.4byte	0
 5499              	.LLST3:
 5500 0106 00000000 		.4byte	.LVL19
 5501 010a 0C000000 		.4byte	.LVL20
 5502 010e 0100     		.2byte	0x1
 5503 0110 50       		.byte	0x50
 5504 0111 0C000000 		.4byte	.LVL20
 5505 0115 18000000 		.4byte	.LVL24
 5506 0119 0400     		.2byte	0x4
 5507 011b F3       		.byte	0xf3
 5508 011c 01       		.uleb128 0x1
 5509 011d 50       		.byte	0x50
 5510 011e 9F       		.byte	0x9f
 5511 011f 18000000 		.4byte	.LVL24
 5512 0123 1E000000 		.4byte	.LVL25
 5513 0127 0100     		.2byte	0x1
 5514 0129 50       		.byte	0x50
 5515 012a 1E000000 		.4byte	.LVL25
 5516 012e 54000000 		.4byte	.LFE66
 5517 0132 0400     		.2byte	0x4
ARM GAS  C:\Users\haske\AppData\Local\Temp\ccg6iOQH.s 			page 124


 5518 0134 F3       		.byte	0xf3
 5519 0135 01       		.uleb128 0x1
 5520 0136 50       		.byte	0x50
 5521 0137 9F       		.byte	0x9f
 5522 0138 00000000 		.4byte	0
 5523 013c 00000000 		.4byte	0
 5524              	.LLST4:
 5525 0140 38000000 		.4byte	.LVL29
 5526 0144 4E000000 		.4byte	.LVL34
 5527 0148 0100     		.2byte	0x1
 5528 014a 52       		.byte	0x52
 5529 014b 00000000 		.4byte	0
 5530 014f 00000000 		.4byte	0
 5531              	.LLST5:
 5532 0153 38000000 		.4byte	.LVL29
 5533 0157 3C000000 		.4byte	.LVL30
 5534 015b 0200     		.2byte	0x2
 5535 015d 30       		.byte	0x30
 5536 015e 9F       		.byte	0x9f
 5537 015f 3C000000 		.4byte	.LVL30
 5538 0163 46000000 		.4byte	.LVL32
 5539 0167 0100     		.2byte	0x1
 5540 0169 53       		.byte	0x53
 5541 016a 48000000 		.4byte	.LVL33
 5542 016e 4E000000 		.4byte	.LVL34
 5543 0172 0100     		.2byte	0x1
 5544 0174 53       		.byte	0x53
 5545 0175 00000000 		.4byte	0
 5546 0179 00000000 		.4byte	0
 5547              	.LLST6:
 5548 017d 0C000000 		.4byte	.LVL20
 5549 0181 18000000 		.4byte	.LVL24
 5550 0185 0100     		.2byte	0x1
 5551 0187 53       		.byte	0x53
 5552 0188 1E000000 		.4byte	.LVL25
 5553 018c 22000000 		.4byte	.LVL26
 5554 0190 0100     		.2byte	0x1
 5555 0192 53       		.byte	0x53
 5556 0193 00000000 		.4byte	0
 5557 0197 00000000 		.4byte	0
 5558              	.LLST7:
 5559 019b 0C000000 		.4byte	.LVL20
 5560 019f 18000000 		.4byte	.LVL24
 5561 01a3 0100     		.2byte	0x1
 5562 01a5 52       		.byte	0x52
 5563 01a6 1E000000 		.4byte	.LVL25
 5564 01aa 26000000 		.4byte	.LVL28
 5565 01ae 0100     		.2byte	0x1
 5566 01b0 52       		.byte	0x52
 5567 01b1 00000000 		.4byte	0
 5568 01b5 00000000 		.4byte	0
 5569              	.LLST8:
 5570 01b9 0C000000 		.4byte	.LVL20
 5571 01bd 18000000 		.4byte	.LVL24
 5572 01c1 0100     		.2byte	0x1
 5573 01c3 51       		.byte	0x51
 5574 01c4 1E000000 		.4byte	.LVL25
ARM GAS  C:\Users\haske\AppData\Local\Temp\ccg6iOQH.s 			page 125


 5575 01c8 24000000 		.4byte	.LVL27
 5576 01cc 0100     		.2byte	0x1
 5577 01ce 51       		.byte	0x51
 5578 01cf 00000000 		.4byte	0
 5579 01d3 00000000 		.4byte	0
 5580              	.LLST9:
 5581 01d7 00000000 		.4byte	.LVL35
 5582 01db 1E000000 		.4byte	.LVL39
 5583 01df 0100     		.2byte	0x1
 5584 01e1 50       		.byte	0x50
 5585 01e2 1E000000 		.4byte	.LVL39
 5586 01e6 20000000 		.4byte	.LVL40
 5587 01ea 0400     		.2byte	0x4
 5588 01ec F3       		.byte	0xf3
 5589 01ed 01       		.uleb128 0x1
 5590 01ee 50       		.byte	0x50
 5591 01ef 9F       		.byte	0x9f
 5592 01f0 20000000 		.4byte	.LVL40
 5593 01f4 3A000000 		.4byte	.LVL42
 5594 01f8 0100     		.2byte	0x1
 5595 01fa 50       		.byte	0x50
 5596 01fb 3A000000 		.4byte	.LVL42
 5597 01ff 50000000 		.4byte	.LVL45
 5598 0203 0400     		.2byte	0x4
 5599 0205 F3       		.byte	0xf3
 5600 0206 01       		.uleb128 0x1
 5601 0207 50       		.byte	0x50
 5602 0208 9F       		.byte	0x9f
 5603 0209 50000000 		.4byte	.LVL45
 5604 020d 80000000 		.4byte	.LVL48
 5605 0211 0100     		.2byte	0x1
 5606 0213 50       		.byte	0x50
 5607 0214 80000000 		.4byte	.LVL48
 5608 0218 96000000 		.4byte	.LVL51
 5609 021c 0400     		.2byte	0x4
 5610 021e F3       		.byte	0xf3
 5611 021f 01       		.uleb128 0x1
 5612 0220 50       		.byte	0x50
 5613 0221 9F       		.byte	0x9f
 5614 0222 96000000 		.4byte	.LVL51
 5615 0226 E4000000 		.4byte	.LVL55
 5616 022a 0100     		.2byte	0x1
 5617 022c 50       		.byte	0x50
 5618 022d E4000000 		.4byte	.LVL55
 5619 0231 FA000000 		.4byte	.LVL58
 5620 0235 0400     		.2byte	0x4
 5621 0237 F3       		.byte	0xf3
 5622 0238 01       		.uleb128 0x1
 5623 0239 50       		.byte	0x50
 5624 023a 9F       		.byte	0x9f
 5625 023b FA000000 		.4byte	.LVL58
 5626 023f 00010000 		.4byte	.LVL59
 5627 0243 0100     		.2byte	0x1
 5628 0245 50       		.byte	0x50
 5629 0246 00010000 		.4byte	.LVL59
 5630 024a 06010000 		.4byte	.LVL61
 5631 024e 0400     		.2byte	0x4
ARM GAS  C:\Users\haske\AppData\Local\Temp\ccg6iOQH.s 			page 126


 5632 0250 F3       		.byte	0xf3
 5633 0251 01       		.uleb128 0x1
 5634 0252 50       		.byte	0x50
 5635 0253 9F       		.byte	0x9f
 5636 0254 06010000 		.4byte	.LVL61
 5637 0258 08010000 		.4byte	.LVL62
 5638 025c 0100     		.2byte	0x1
 5639 025e 50       		.byte	0x50
 5640 025f 08010000 		.4byte	.LVL62
 5641 0263 0E010000 		.4byte	.LVL63
 5642 0267 0400     		.2byte	0x4
 5643 0269 F3       		.byte	0xf3
 5644 026a 01       		.uleb128 0x1
 5645 026b 50       		.byte	0x50
 5646 026c 9F       		.byte	0x9f
 5647 026d 0E010000 		.4byte	.LVL63
 5648 0271 10010000 		.4byte	.LVL64
 5649 0275 0100     		.2byte	0x1
 5650 0277 50       		.byte	0x50
 5651 0278 10010000 		.4byte	.LVL64
 5652 027c 12010000 		.4byte	.LVL65
 5653 0280 0400     		.2byte	0x4
 5654 0282 F3       		.byte	0xf3
 5655 0283 01       		.uleb128 0x1
 5656 0284 50       		.byte	0x50
 5657 0285 9F       		.byte	0x9f
 5658 0286 12010000 		.4byte	.LVL65
 5659 028a 14010000 		.4byte	.LVL66
 5660 028e 0100     		.2byte	0x1
 5661 0290 50       		.byte	0x50
 5662 0291 14010000 		.4byte	.LVL66
 5663 0295 1C010000 		.4byte	.LFE67
 5664 0299 0400     		.2byte	0x4
 5665 029b F3       		.byte	0xf3
 5666 029c 01       		.uleb128 0x1
 5667 029d 50       		.byte	0x50
 5668 029e 9F       		.byte	0x9f
 5669 029f 00000000 		.4byte	0
 5670 02a3 00000000 		.4byte	0
 5671              	.LLST10:
 5672 02a7 00000000 		.4byte	.LVL35
 5673 02ab 0E000000 		.4byte	.LVL37
 5674 02af 0100     		.2byte	0x1
 5675 02b1 51       		.byte	0x51
 5676 02b2 0E000000 		.4byte	.LVL37
 5677 02b6 1C010000 		.4byte	.LFE67
 5678 02ba 0100     		.2byte	0x1
 5679 02bc 51       		.byte	0x51
 5680 02bd 00000000 		.4byte	0
 5681 02c1 00000000 		.4byte	0
 5682              	.LLST11:
 5683 02c5 04000000 		.4byte	.LVL36
 5684 02c9 18000000 		.4byte	.LVL38
 5685 02cd 0200     		.2byte	0x2
 5686 02cf 30       		.byte	0x30
 5687 02d0 9F       		.byte	0x9f
 5688 02d1 18000000 		.4byte	.LVL38
ARM GAS  C:\Users\haske\AppData\Local\Temp\ccg6iOQH.s 			page 127


 5689 02d5 20000000 		.4byte	.LVL40
 5690 02d9 0100     		.2byte	0x1
 5691 02db 53       		.byte	0x53
 5692 02dc 20000000 		.4byte	.LVL40
 5693 02e0 32000000 		.4byte	.LVL41
 5694 02e4 0200     		.2byte	0x2
 5695 02e6 30       		.byte	0x30
 5696 02e7 9F       		.byte	0x9f
 5697 02e8 32000000 		.4byte	.LVL41
 5698 02ec 48000000 		.4byte	.LVL43
 5699 02f0 0100     		.2byte	0x1
 5700 02f2 53       		.byte	0x53
 5701 02f3 48000000 		.4byte	.LVL43
 5702 02f7 4E000000 		.4byte	.LVL44
 5703 02fb 0600     		.2byte	0x6
 5704 02fd 72       		.byte	0x72
 5705 02fe 00       		.sleb128 0
 5706 02ff 73       		.byte	0x73
 5707 0300 00       		.sleb128 0
 5708 0301 22       		.byte	0x22
 5709 0302 9F       		.byte	0x9f
 5710 0303 4E000000 		.4byte	.LVL44
 5711 0307 50000000 		.4byte	.LVL45
 5712 030b 0100     		.2byte	0x1
 5713 030d 50       		.byte	0x50
 5714 030e 50000000 		.4byte	.LVL45
 5715 0312 5E000000 		.4byte	.LVL46
 5716 0316 0200     		.2byte	0x2
 5717 0318 30       		.byte	0x30
 5718 0319 9F       		.byte	0x9f
 5719 031a 5E000000 		.4byte	.LVL46
 5720 031e 8E000000 		.4byte	.LVL49
 5721 0322 0100     		.2byte	0x1
 5722 0324 53       		.byte	0x53
 5723 0325 8E000000 		.4byte	.LVL49
 5724 0329 94000000 		.4byte	.LVL50
 5725 032d 0600     		.2byte	0x6
 5726 032f 72       		.byte	0x72
 5727 0330 00       		.sleb128 0
 5728 0331 73       		.byte	0x73
 5729 0332 00       		.sleb128 0
 5730 0333 22       		.byte	0x22
 5731 0334 9F       		.byte	0x9f
 5732 0335 94000000 		.4byte	.LVL50
 5733 0339 96000000 		.4byte	.LVL51
 5734 033d 0100     		.2byte	0x1
 5735 033f 50       		.byte	0x50
 5736 0340 96000000 		.4byte	.LVL51
 5737 0344 A8000000 		.4byte	.LVL52
 5738 0348 0200     		.2byte	0x2
 5739 034a 30       		.byte	0x30
 5740 034b 9F       		.byte	0x9f
 5741 034c A8000000 		.4byte	.LVL52
 5742 0350 DC000000 		.4byte	.LVL54
 5743 0354 0100     		.2byte	0x1
 5744 0356 53       		.byte	0x53
 5745 0357 DC000000 		.4byte	.LVL54
ARM GAS  C:\Users\haske\AppData\Local\Temp\ccg6iOQH.s 			page 128


 5746 035b F2000000 		.4byte	.LVL56
 5747 035f 0100     		.2byte	0x1
 5748 0361 52       		.byte	0x52
 5749 0362 F2000000 		.4byte	.LVL56
 5750 0366 F8000000 		.4byte	.LVL57
 5751 036a 0600     		.2byte	0x6
 5752 036c 73       		.byte	0x73
 5753 036d 00       		.sleb128 0
 5754 036e 72       		.byte	0x72
 5755 036f 00       		.sleb128 0
 5756 0370 22       		.byte	0x22
 5757 0371 9F       		.byte	0x9f
 5758 0372 F8000000 		.4byte	.LVL57
 5759 0376 FA000000 		.4byte	.LVL58
 5760 037a 0100     		.2byte	0x1
 5761 037c 50       		.byte	0x50
 5762 037d FA000000 		.4byte	.LVL58
 5763 0381 02010000 		.4byte	.LVL60
 5764 0385 0200     		.2byte	0x2
 5765 0387 30       		.byte	0x30
 5766 0388 9F       		.byte	0x9f
 5767 0389 02010000 		.4byte	.LVL60
 5768 038d 16010000 		.4byte	.LVL67
 5769 0391 0100     		.2byte	0x1
 5770 0393 53       		.byte	0x53
 5771 0394 16010000 		.4byte	.LVL67
 5772 0398 18010000 		.4byte	.LVL68
 5773 039c 0100     		.2byte	0x1
 5774 039e 52       		.byte	0x52
 5775 039f 00000000 		.4byte	0
 5776 03a3 00000000 		.4byte	0
 5777              	.LLST12:
 5778 03a7 00000000 		.4byte	.LVL69
 5779 03ab 10000000 		.4byte	.LVL71
 5780 03af 0100     		.2byte	0x1
 5781 03b1 50       		.byte	0x50
 5782 03b2 10000000 		.4byte	.LVL71
 5783 03b6 48000000 		.4byte	.LVL81
 5784 03ba 0100     		.2byte	0x1
 5785 03bc 56       		.byte	0x56
 5786 03bd 48000000 		.4byte	.LVL81
 5787 03c1 50000000 		.4byte	.LFE68
 5788 03c5 0400     		.2byte	0x4
 5789 03c7 F3       		.byte	0xf3
 5790 03c8 01       		.uleb128 0x1
 5791 03c9 50       		.byte	0x50
 5792 03ca 9F       		.byte	0x9f
 5793 03cb 00000000 		.4byte	0
 5794 03cf 00000000 		.4byte	0
 5795              	.LLST13:
 5796 03d3 00000000 		.4byte	.LVL69
 5797 03d7 10000000 		.4byte	.LVL71
 5798 03db 0100     		.2byte	0x1
 5799 03dd 51       		.byte	0x51
 5800 03de 10000000 		.4byte	.LVL71
 5801 03e2 48000000 		.4byte	.LVL80
 5802 03e6 0100     		.2byte	0x1
ARM GAS  C:\Users\haske\AppData\Local\Temp\ccg6iOQH.s 			page 129


 5803 03e8 55       		.byte	0x55
 5804 03e9 48000000 		.4byte	.LVL80
 5805 03ed 50000000 		.4byte	.LFE68
 5806 03f1 0400     		.2byte	0x4
 5807 03f3 F3       		.byte	0xf3
 5808 03f4 01       		.uleb128 0x1
 5809 03f5 51       		.byte	0x51
 5810 03f6 9F       		.byte	0x9f
 5811 03f7 00000000 		.4byte	0
 5812 03fb 00000000 		.4byte	0
 5813              	.LLST14:
 5814 03ff 20000000 		.4byte	.LVL73
 5815 0403 24000000 		.4byte	.LVL74
 5816 0407 0100     		.2byte	0x1
 5817 0409 50       		.byte	0x50
 5818 040a 24000000 		.4byte	.LVL74
 5819 040e 36000000 		.4byte	.LVL77
 5820 0412 0100     		.2byte	0x1
 5821 0414 53       		.byte	0x53
 5822 0415 00000000 		.4byte	0
 5823 0419 00000000 		.4byte	0
 5824              	.LLST15:
 5825 041d 08000000 		.4byte	.LVL70
 5826 0421 10000000 		.4byte	.LVL71
 5827 0425 0200     		.2byte	0x2
 5828 0427 30       		.byte	0x30
 5829 0428 9F       		.byte	0x9f
 5830 0429 10000000 		.4byte	.LVL71
 5831 042d 2E000000 		.4byte	.LVL75
 5832 0431 0100     		.2byte	0x1
 5833 0433 54       		.byte	0x54
 5834 0434 30000000 		.4byte	.LVL76
 5835 0438 48000000 		.4byte	.LVL79
 5836 043c 0100     		.2byte	0x1
 5837 043e 54       		.byte	0x54
 5838 043f 00000000 		.4byte	0
 5839 0443 00000000 		.4byte	0
 5840              	.LLST16:
 5841 0447 00000000 		.4byte	.LVL82
 5842 044b 0C000000 		.4byte	.LVL84
 5843 044f 0100     		.2byte	0x1
 5844 0451 50       		.byte	0x50
 5845 0452 0C000000 		.4byte	.LVL84
 5846 0456 2A000000 		.4byte	.LVL92
 5847 045a 0100     		.2byte	0x1
 5848 045c 57       		.byte	0x57
 5849 045d 2A000000 		.4byte	.LVL92
 5850 0461 30000000 		.4byte	.LFE69
 5851 0465 0400     		.2byte	0x4
 5852 0467 F3       		.byte	0xf3
 5853 0468 01       		.uleb128 0x1
 5854 0469 50       		.byte	0x50
 5855 046a 9F       		.byte	0x9f
 5856 046b 00000000 		.4byte	0
 5857 046f 00000000 		.4byte	0
 5858              	.LLST17:
 5859 0473 00000000 		.4byte	.LVL82
ARM GAS  C:\Users\haske\AppData\Local\Temp\ccg6iOQH.s 			page 130


 5860 0477 0C000000 		.4byte	.LVL84
 5861 047b 0100     		.2byte	0x1
 5862 047d 51       		.byte	0x51
 5863 047e 0C000000 		.4byte	.LVL84
 5864 0482 2A000000 		.4byte	.LVL91
 5865 0486 0100     		.2byte	0x1
 5866 0488 56       		.byte	0x56
 5867 0489 2A000000 		.4byte	.LVL91
 5868 048d 30000000 		.4byte	.LFE69
 5869 0491 0400     		.2byte	0x4
 5870 0493 F3       		.byte	0xf3
 5871 0494 01       		.uleb128 0x1
 5872 0495 51       		.byte	0x51
 5873 0496 9F       		.byte	0x9f
 5874 0497 00000000 		.4byte	0
 5875 049b 00000000 		.4byte	0
 5876              	.LLST18:
 5877 049f 06000000 		.4byte	.LVL83
 5878 04a3 0C000000 		.4byte	.LVL84
 5879 04a7 0200     		.2byte	0x2
 5880 04a9 30       		.byte	0x30
 5881 04aa 9F       		.byte	0x9f
 5882 04ab 0C000000 		.4byte	.LVL84
 5883 04af 2A000000 		.4byte	.LVL90
 5884 04b3 0100     		.2byte	0x1
 5885 04b5 55       		.byte	0x55
 5886 04b6 00000000 		.4byte	0
 5887 04ba 00000000 		.4byte	0
 5888              	.LLST19:
 5889 04be 06000000 		.4byte	.LVL83
 5890 04c2 0C000000 		.4byte	.LVL84
 5891 04c6 0200     		.2byte	0x2
 5892 04c8 30       		.byte	0x30
 5893 04c9 9F       		.byte	0x9f
 5894 04ca 0C000000 		.4byte	.LVL84
 5895 04ce 2A000000 		.4byte	.LVL89
 5896 04d2 0100     		.2byte	0x1
 5897 04d4 54       		.byte	0x54
 5898 04d5 2A000000 		.4byte	.LVL89
 5899 04d9 30000000 		.4byte	.LFE69
 5900 04dd 0100     		.2byte	0x1
 5901 04df 50       		.byte	0x50
 5902 04e0 00000000 		.4byte	0
 5903 04e4 00000000 		.4byte	0
 5904              	.LLST20:
 5905 04e8 12000000 		.4byte	.LVL85
 5906 04ec 18000000 		.4byte	.LVL86
 5907 04f0 0100     		.2byte	0x1
 5908 04f2 50       		.byte	0x50
 5909 04f3 00000000 		.4byte	0
 5910 04f7 00000000 		.4byte	0
 5911              	.LLST21:
 5912 04fb 00000000 		.4byte	.LVL93
 5913 04ff 10000000 		.4byte	.LVL95
 5914 0503 0100     		.2byte	0x1
 5915 0505 50       		.byte	0x50
 5916 0506 10000000 		.4byte	.LVL95
ARM GAS  C:\Users\haske\AppData\Local\Temp\ccg6iOQH.s 			page 131


 5917 050a 26000000 		.4byte	.LVL99
 5918 050e 0100     		.2byte	0x1
 5919 0510 55       		.byte	0x55
 5920 0511 26000000 		.4byte	.LVL99
 5921 0515 2C000000 		.4byte	.LFE70
 5922 0519 0400     		.2byte	0x4
 5923 051b F3       		.byte	0xf3
 5924 051c 01       		.uleb128 0x1
 5925 051d 50       		.byte	0x50
 5926 051e 9F       		.byte	0x9f
 5927 051f 00000000 		.4byte	0
 5928 0523 00000000 		.4byte	0
 5929              	.LLST22:
 5930 0527 00000000 		.4byte	.LVL93
 5931 052b 10000000 		.4byte	.LVL95
 5932 052f 0100     		.2byte	0x1
 5933 0531 51       		.byte	0x51
 5934 0532 10000000 		.4byte	.LVL95
 5935 0536 26000000 		.4byte	.LVL100
 5936 053a 0100     		.2byte	0x1
 5937 053c 56       		.byte	0x56
 5938 053d 26000000 		.4byte	.LVL100
 5939 0541 2C000000 		.4byte	.LFE70
 5940 0545 0400     		.2byte	0x4
 5941 0547 F3       		.byte	0xf3
 5942 0548 01       		.uleb128 0x1
 5943 0549 51       		.byte	0x51
 5944 054a 9F       		.byte	0x9f
 5945 054b 00000000 		.4byte	0
 5946 054f 00000000 		.4byte	0
 5947              	.LLST23:
 5948 0553 0C000000 		.4byte	.LVL94
 5949 0557 10000000 		.4byte	.LVL95
 5950 055b 0200     		.2byte	0x2
 5951 055d 30       		.byte	0x30
 5952 055e 9F       		.byte	0x9f
 5953 055f 10000000 		.4byte	.LVL95
 5954 0563 26000000 		.4byte	.LVL98
 5955 0567 0100     		.2byte	0x1
 5956 0569 54       		.byte	0x54
 5957 056a 26000000 		.4byte	.LVL98
 5958 056e 2C000000 		.4byte	.LFE70
 5959 0572 0100     		.2byte	0x1
 5960 0574 50       		.byte	0x50
 5961 0575 00000000 		.4byte	0
 5962 0579 00000000 		.4byte	0
 5963              	.LLST24:
 5964 057d 00000000 		.4byte	.LVL101
 5965 0581 0E000000 		.4byte	.LVL103
 5966 0585 0100     		.2byte	0x1
 5967 0587 50       		.byte	0x50
 5968 0588 0E000000 		.4byte	.LVL103
 5969 058c 26000000 		.4byte	.LVL107
 5970 0590 0100     		.2byte	0x1
 5971 0592 55       		.byte	0x55
 5972 0593 26000000 		.4byte	.LVL107
 5973 0597 2C000000 		.4byte	.LFE71
ARM GAS  C:\Users\haske\AppData\Local\Temp\ccg6iOQH.s 			page 132


 5974 059b 0400     		.2byte	0x4
 5975 059d F3       		.byte	0xf3
 5976 059e 01       		.uleb128 0x1
 5977 059f 50       		.byte	0x50
 5978 05a0 9F       		.byte	0x9f
 5979 05a1 00000000 		.4byte	0
 5980 05a5 00000000 		.4byte	0
 5981              	.LLST25:
 5982 05a9 06000000 		.4byte	.LVL102
 5983 05ad 0E000000 		.4byte	.LVL103
 5984 05b1 0200     		.2byte	0x2
 5985 05b3 30       		.byte	0x30
 5986 05b4 9F       		.byte	0x9f
 5987 05b5 0E000000 		.4byte	.LVL103
 5988 05b9 26000000 		.4byte	.LVL106
 5989 05bd 0100     		.2byte	0x1
 5990 05bf 54       		.byte	0x54
 5991 05c0 26000000 		.4byte	.LVL106
 5992 05c4 2C000000 		.4byte	.LFE71
 5993 05c8 0100     		.2byte	0x1
 5994 05ca 50       		.byte	0x50
 5995 05cb 00000000 		.4byte	0
 5996 05cf 00000000 		.4byte	0
 5997              	.LLST26:
 5998 05d3 00000000 		.4byte	.LVL108
 5999 05d7 42000000 		.4byte	.LVL117
 6000 05db 0100     		.2byte	0x1
 6001 05dd 50       		.byte	0x50
 6002 05de 42000000 		.4byte	.LVL117
 6003 05e2 44000000 		.4byte	.LFE59
 6004 05e6 0400     		.2byte	0x4
 6005 05e8 F3       		.byte	0xf3
 6006 05e9 01       		.uleb128 0x1
 6007 05ea 50       		.byte	0x50
 6008 05eb 9F       		.byte	0x9f
 6009 05ec 00000000 		.4byte	0
 6010 05f0 00000000 		.4byte	0
 6011              	.LLST27:
 6012 05f4 00000000 		.4byte	.LVL108
 6013 05f8 0E000000 		.4byte	.LVL109
 6014 05fc 0200     		.2byte	0x2
 6015 05fe 30       		.byte	0x30
 6016 05ff 9F       		.byte	0x9f
 6017 0600 0E000000 		.4byte	.LVL109
 6018 0604 10000000 		.4byte	.LVL110
 6019 0608 0200     		.2byte	0x2
 6020 060a 31       		.byte	0x31
 6021 060b 9F       		.byte	0x9f
 6022 060c 10000000 		.4byte	.LVL110
 6023 0610 22000000 		.4byte	.LVL111
 6024 0614 0200     		.2byte	0x2
 6025 0616 30       		.byte	0x30
 6026 0617 9F       		.byte	0x9f
 6027 0618 22000000 		.4byte	.LVL111
 6028 061c 26000000 		.4byte	.LVL112
 6029 0620 0200     		.2byte	0x2
 6030 0622 31       		.byte	0x31
ARM GAS  C:\Users\haske\AppData\Local\Temp\ccg6iOQH.s 			page 133


 6031 0623 9F       		.byte	0x9f
 6032 0624 26000000 		.4byte	.LVL112
 6033 0628 2C000000 		.4byte	.LVL113
 6034 062c 0200     		.2byte	0x2
 6035 062e 30       		.byte	0x30
 6036 062f 9F       		.byte	0x9f
 6037 0630 2C000000 		.4byte	.LVL113
 6038 0634 38000000 		.4byte	.LVL114
 6039 0638 0100     		.2byte	0x1
 6040 063a 53       		.byte	0x53
 6041 063b 3E000000 		.4byte	.LVL115
 6042 063f 44000000 		.4byte	.LFE59
 6043 0643 0100     		.2byte	0x1
 6044 0645 53       		.byte	0x53
 6045 0646 00000000 		.4byte	0
 6046 064a 00000000 		.4byte	0
 6047              	.LLST28:
 6048 064e 00000000 		.4byte	.LVL118
 6049 0652 52000000 		.4byte	.LVL126
 6050 0656 0100     		.2byte	0x1
 6051 0658 50       		.byte	0x50
 6052 0659 52000000 		.4byte	.LVL126
 6053 065d 5E010000 		.4byte	.LVL160
 6054 0661 0100     		.2byte	0x1
 6055 0663 56       		.byte	0x56
 6056 0664 5E010000 		.4byte	.LVL160
 6057 0668 60010000 		.4byte	.LVL161
 6058 066c 0100     		.2byte	0x1
 6059 066e 50       		.byte	0x50
 6060 066f 60010000 		.4byte	.LVL161
 6061 0673 62010000 		.4byte	.LVL162
 6062 0677 0100     		.2byte	0x1
 6063 0679 56       		.byte	0x56
 6064 067a 62010000 		.4byte	.LVL162
 6065 067e 64010000 		.4byte	.LVL163
 6066 0682 0100     		.2byte	0x1
 6067 0684 50       		.byte	0x50
 6068 0685 64010000 		.4byte	.LVL163
 6069 0689 66010000 		.4byte	.LVL164
 6070 068d 0100     		.2byte	0x1
 6071 068f 56       		.byte	0x56
 6072 0690 66010000 		.4byte	.LVL164
 6073 0694 68010000 		.4byte	.LVL165
 6074 0698 0100     		.2byte	0x1
 6075 069a 50       		.byte	0x50
 6076 069b 68010000 		.4byte	.LVL165
 6077 069f 7A010000 		.4byte	.LVL170
 6078 06a3 0100     		.2byte	0x1
 6079 06a5 56       		.byte	0x56
 6080 06a6 7A010000 		.4byte	.LVL170
 6081 06aa 9C010000 		.4byte	.LFE56
 6082 06ae 0400     		.2byte	0x4
 6083 06b0 F3       		.byte	0xf3
 6084 06b1 01       		.uleb128 0x1
 6085 06b2 50       		.byte	0x50
 6086 06b3 9F       		.byte	0x9f
 6087 06b4 00000000 		.4byte	0
ARM GAS  C:\Users\haske\AppData\Local\Temp\ccg6iOQH.s 			page 134


 6088 06b8 00000000 		.4byte	0
 6089              	.LLST29:
 6090 06bc 00000000 		.4byte	.LVL118
 6091 06c0 50000000 		.4byte	.LVL125
 6092 06c4 0100     		.2byte	0x1
 6093 06c6 51       		.byte	0x51
 6094 06c7 50000000 		.4byte	.LVL125
 6095 06cb 5E010000 		.4byte	.LVL160
 6096 06cf 0200     		.2byte	0x2
 6097 06d1 91       		.byte	0x91
 6098 06d2 44       		.sleb128 -60
 6099 06d3 5E010000 		.4byte	.LVL160
 6100 06d7 6A010000 		.4byte	.LVL166
 6101 06db 0100     		.2byte	0x1
 6102 06dd 51       		.byte	0x51
 6103 06de 6A010000 		.4byte	.LVL166
 6104 06e2 9C010000 		.4byte	.LFE56
 6105 06e6 0200     		.2byte	0x2
 6106 06e8 91       		.byte	0x91
 6107 06e9 44       		.sleb128 -60
 6108 06ea 00000000 		.4byte	0
 6109 06ee 00000000 		.4byte	0
 6110              	.LLST30:
 6111 06f2 00000000 		.4byte	.LVL118
 6112 06f6 53000000 		.4byte	.LVL127-1
 6113 06fa 0100     		.2byte	0x1
 6114 06fc 52       		.byte	0x52
 6115 06fd 53000000 		.4byte	.LVL127-1
 6116 0701 5E010000 		.4byte	.LVL160
 6117 0705 0400     		.2byte	0x4
 6118 0707 F3       		.byte	0xf3
 6119 0708 01       		.uleb128 0x1
 6120 0709 52       		.byte	0x52
 6121 070a 9F       		.byte	0x9f
 6122 070b 5E010000 		.4byte	.LVL160
 6123 070f 6A010000 		.4byte	.LVL166
 6124 0713 0100     		.2byte	0x1
 6125 0715 52       		.byte	0x52
 6126 0716 6A010000 		.4byte	.LVL166
 6127 071a 9C010000 		.4byte	.LFE56
 6128 071e 0400     		.2byte	0x4
 6129 0720 F3       		.byte	0xf3
 6130 0721 01       		.uleb128 0x1
 6131 0722 52       		.byte	0x52
 6132 0723 9F       		.byte	0x9f
 6133 0724 00000000 		.4byte	0
 6134 0728 00000000 		.4byte	0
 6135              	.LLST31:
 6136 072c 00000000 		.4byte	.LVL118
 6137 0730 18000000 		.4byte	.LVL119
 6138 0734 0100     		.2byte	0x1
 6139 0736 53       		.byte	0x53
 6140 0737 18000000 		.4byte	.LVL119
 6141 073b 44000000 		.4byte	.LVL123
 6142 073f 0400     		.2byte	0x4
 6143 0741 F3       		.byte	0xf3
 6144 0742 01       		.uleb128 0x1
ARM GAS  C:\Users\haske\AppData\Local\Temp\ccg6iOQH.s 			page 135


 6145 0743 53       		.byte	0x53
 6146 0744 9F       		.byte	0x9f
 6147 0745 44000000 		.4byte	.LVL123
 6148 0749 5E010000 		.4byte	.LVL160
 6149 074d 0200     		.2byte	0x2
 6150 074f 91       		.byte	0x91
 6151 0750 48       		.sleb128 -56
 6152 0751 5E010000 		.4byte	.LVL160
 6153 0755 6A010000 		.4byte	.LVL166
 6154 0759 0400     		.2byte	0x4
 6155 075b F3       		.byte	0xf3
 6156 075c 01       		.uleb128 0x1
 6157 075d 53       		.byte	0x53
 6158 075e 9F       		.byte	0x9f
 6159 075f 6A010000 		.4byte	.LVL166
 6160 0763 78010000 		.4byte	.LVL169
 6161 0767 0200     		.2byte	0x2
 6162 0769 91       		.byte	0x91
 6163 076a 48       		.sleb128 -56
 6164 076b 00000000 		.4byte	0
 6165 076f 00000000 		.4byte	0
 6166              	.LLST32:
 6167 0773 00000000 		.4byte	.LVL118
 6168 0777 18000000 		.4byte	.LVL119
 6169 077b 0200     		.2byte	0x2
 6170 077d 91       		.byte	0x91
 6171 077e 00       		.sleb128 0
 6172 077f 18000000 		.4byte	.LVL119
 6173 0783 1A000000 		.4byte	.LVL120
 6174 0787 0200     		.2byte	0x2
 6175 0789 73       		.byte	0x73
 6176 078a 00       		.sleb128 0
 6177 078b 1A000000 		.4byte	.LVL120
 6178 078f 9C010000 		.4byte	.LFE56
 6179 0793 0200     		.2byte	0x2
 6180 0795 91       		.byte	0x91
 6181 0796 00       		.sleb128 0
 6182 0797 00000000 		.4byte	0
 6183 079b 00000000 		.4byte	0
 6184              	.LLST33:
 6185 079f 00000000 		.4byte	.LVL118
 6186 07a3 18000000 		.4byte	.LVL119
 6187 07a7 0200     		.2byte	0x2
 6188 07a9 91       		.byte	0x91
 6189 07aa 04       		.sleb128 4
 6190 07ab 18000000 		.4byte	.LVL119
 6191 07af 1A000000 		.4byte	.LVL120
 6192 07b3 0200     		.2byte	0x2
 6193 07b5 73       		.byte	0x73
 6194 07b6 04       		.sleb128 4
 6195 07b7 1A000000 		.4byte	.LVL120
 6196 07bb 9C010000 		.4byte	.LFE56
 6197 07bf 0200     		.2byte	0x2
 6198 07c1 91       		.byte	0x91
 6199 07c2 04       		.sleb128 4
 6200 07c3 00000000 		.4byte	0
 6201 07c7 00000000 		.4byte	0
ARM GAS  C:\Users\haske\AppData\Local\Temp\ccg6iOQH.s 			page 136


 6202              	.LLST34:
 6203 07cb 00000000 		.4byte	.LVL118
 6204 07cf 18000000 		.4byte	.LVL119
 6205 07d3 0200     		.2byte	0x2
 6206 07d5 91       		.byte	0x91
 6207 07d6 08       		.sleb128 8
 6208 07d7 18000000 		.4byte	.LVL119
 6209 07db 1A000000 		.4byte	.LVL120
 6210 07df 0200     		.2byte	0x2
 6211 07e1 73       		.byte	0x73
 6212 07e2 08       		.sleb128 8
 6213 07e3 1A000000 		.4byte	.LVL120
 6214 07e7 9C010000 		.4byte	.LFE56
 6215 07eb 0200     		.2byte	0x2
 6216 07ed 91       		.byte	0x91
 6217 07ee 08       		.sleb128 8
 6218 07ef 00000000 		.4byte	0
 6219 07f3 00000000 		.4byte	0
 6220              	.LLST35:
 6221 07f7 00000000 		.4byte	.LVL118
 6222 07fb 18000000 		.4byte	.LVL119
 6223 07ff 0200     		.2byte	0x2
 6224 0801 91       		.byte	0x91
 6225 0802 0C       		.sleb128 12
 6226 0803 18000000 		.4byte	.LVL119
 6227 0807 1A000000 		.4byte	.LVL120
 6228 080b 0200     		.2byte	0x2
 6229 080d 73       		.byte	0x73
 6230 080e 0C       		.sleb128 12
 6231 080f 1A000000 		.4byte	.LVL120
 6232 0813 22000000 		.4byte	.LVL121
 6233 0817 0200     		.2byte	0x2
 6234 0819 91       		.byte	0x91
 6235 081a 0C       		.sleb128 12
 6236 081b 22000000 		.4byte	.LVL121
 6237 081f 24000000 		.4byte	.LVL122
 6238 0823 0200     		.2byte	0x2
 6239 0825 73       		.byte	0x73
 6240 0826 00       		.sleb128 0
 6241 0827 24000000 		.4byte	.LVL122
 6242 082b 9C010000 		.4byte	.LFE56
 6243 082f 0200     		.2byte	0x2
 6244 0831 91       		.byte	0x91
 6245 0832 0C       		.sleb128 12
 6246 0833 00000000 		.4byte	0
 6247 0837 00000000 		.4byte	0
 6248              	.LLST36:
 6249 083b 44000000 		.4byte	.LVL123
 6250 083f 6C000000 		.4byte	.LVL129
 6251 0843 0200     		.2byte	0x2
 6252 0845 30       		.byte	0x30
 6253 0846 9F       		.byte	0x9f
 6254 0847 6C000000 		.4byte	.LVL129
 6255 084b 46010000 		.4byte	.LVL158
 6256 084f 0100     		.2byte	0x1
 6257 0851 57       		.byte	0x57
 6258 0852 48010000 		.4byte	.LVL159
ARM GAS  C:\Users\haske\AppData\Local\Temp\ccg6iOQH.s 			page 137


 6259 0856 5E010000 		.4byte	.LVL160
 6260 085a 0100     		.2byte	0x1
 6261 085c 57       		.byte	0x57
 6262 085d 6A010000 		.4byte	.LVL166
 6263 0861 78010000 		.4byte	.LVL169
 6264 0865 0100     		.2byte	0x1
 6265 0867 57       		.byte	0x57
 6266 0868 00000000 		.4byte	0
 6267 086c 00000000 		.4byte	0
 6268              	.LLST37:
 6269 0870 4A000000 		.4byte	.LVL124
 6270 0874 56000000 		.4byte	.LVL128
 6271 0878 0200     		.2byte	0x2
 6272 087a 30       		.byte	0x30
 6273 087b 9F       		.byte	0x9f
 6274 087c 56000000 		.4byte	.LVL128
 6275 0880 6C000000 		.4byte	.LVL129
 6276 0884 0100     		.2byte	0x1
 6277 0886 50       		.byte	0x50
 6278 0887 6C000000 		.4byte	.LVL129
 6279 088b 96000000 		.4byte	.LVL137
 6280 088f 0100     		.2byte	0x1
 6281 0891 54       		.byte	0x54
 6282 0892 96000000 		.4byte	.LVL137
 6283 0896 98000000 		.4byte	.LVL138
 6284 089a 0200     		.2byte	0x2
 6285 089c 7D       		.byte	0x7d
 6286 089d 00       		.sleb128 0
 6287 089e 98000000 		.4byte	.LVL138
 6288 08a2 22010000 		.4byte	.LVL155
 6289 08a6 0100     		.2byte	0x1
 6290 08a8 54       		.byte	0x54
 6291 08a9 22010000 		.4byte	.LVL155
 6292 08ad 28010000 		.4byte	.LVL156
 6293 08b1 0200     		.2byte	0x2
 6294 08b3 7D       		.byte	0x7d
 6295 08b4 00       		.sleb128 0
 6296 08b5 28010000 		.4byte	.LVL156
 6297 08b9 5E010000 		.4byte	.LVL160
 6298 08bd 0100     		.2byte	0x1
 6299 08bf 54       		.byte	0x54
 6300 08c0 6A010000 		.4byte	.LVL166
 6301 08c4 78010000 		.4byte	.LVL169
 6302 08c8 0100     		.2byte	0x1
 6303 08ca 54       		.byte	0x54
 6304 08cb 00000000 		.4byte	0
 6305 08cf 00000000 		.4byte	0
 6306              	.LLST38:
 6307 08d3 4A000000 		.4byte	.LVL124
 6308 08d7 6C000000 		.4byte	.LVL129
 6309 08db 0200     		.2byte	0x2
 6310 08dd 30       		.byte	0x30
 6311 08de 9F       		.byte	0x9f
 6312 08df 6C000000 		.4byte	.LVL129
 6313 08e3 78000000 		.4byte	.LVL131
 6314 08e7 0200     		.2byte	0x2
 6315 08e9 7D       		.byte	0x7d
ARM GAS  C:\Users\haske\AppData\Local\Temp\ccg6iOQH.s 			page 138


 6316 08ea 00       		.sleb128 0
 6317 08eb 78000000 		.4byte	.LVL131
 6318 08ef 88000000 		.4byte	.LVL134
 6319 08f3 0100     		.2byte	0x1
 6320 08f5 50       		.byte	0x50
 6321 08f6 88000000 		.4byte	.LVL134
 6322 08fa 5E010000 		.4byte	.LVL160
 6323 08fe 0200     		.2byte	0x2
 6324 0900 7D       		.byte	0x7d
 6325 0901 00       		.sleb128 0
 6326 0902 6A010000 		.4byte	.LVL166
 6327 0906 6E010000 		.4byte	.LVL167
 6328 090a 0200     		.2byte	0x2
 6329 090c 7D       		.byte	0x7d
 6330 090d 00       		.sleb128 0
 6331 090e 6E010000 		.4byte	.LVL167
 6332 0912 72010000 		.4byte	.LVL168
 6333 0916 0100     		.2byte	0x1
 6334 0918 53       		.byte	0x53
 6335 0919 72010000 		.4byte	.LVL168
 6336 091d 78010000 		.4byte	.LVL169
 6337 0921 0200     		.2byte	0x2
 6338 0923 7D       		.byte	0x7d
 6339 0924 00       		.sleb128 0
 6340 0925 00000000 		.4byte	0
 6341 0929 00000000 		.4byte	0
 6342              	.LLST39:
 6343 092d A4000000 		.4byte	.LVL140
 6344 0931 B4000000 		.4byte	.LVL143
 6345 0935 0100     		.2byte	0x1
 6346 0937 53       		.byte	0x53
 6347 0938 00000000 		.4byte	0
 6348 093c 00000000 		.4byte	0
 6349              	.LLST40:
 6350 0940 4A000000 		.4byte	.LVL124
 6351 0944 6C000000 		.4byte	.LVL129
 6352 0948 0200     		.2byte	0x2
 6353 094a 30       		.byte	0x30
 6354 094b 9F       		.byte	0x9f
 6355 094c 6C000000 		.4byte	.LVL129
 6356 0950 5E010000 		.4byte	.LVL160
 6357 0954 0100     		.2byte	0x1
 6358 0956 55       		.byte	0x55
 6359 0957 6A010000 		.4byte	.LVL166
 6360 095b 78010000 		.4byte	.LVL169
 6361 095f 0100     		.2byte	0x1
 6362 0961 55       		.byte	0x55
 6363 0962 00000000 		.4byte	0
 6364 0966 00000000 		.4byte	0
 6365              	.LLST41:
 6366 096a 4A000000 		.4byte	.LVL124
 6367 096e 6C000000 		.4byte	.LVL129
 6368 0972 0200     		.2byte	0x2
 6369 0974 30       		.byte	0x30
 6370 0975 9F       		.byte	0x9f
 6371 0976 6C000000 		.4byte	.LVL129
 6372 097a 7E000000 		.4byte	.LVL132
ARM GAS  C:\Users\haske\AppData\Local\Temp\ccg6iOQH.s 			page 139


 6373 097e 0300     		.2byte	0x3
 6374 0980 91       		.byte	0x91
 6375 0981 BC7F     		.sleb128 -68
 6376 0983 7E000000 		.4byte	.LVL132
 6377 0987 80000000 		.4byte	.LVL133
 6378 098b 0100     		.2byte	0x1
 6379 098d 53       		.byte	0x53
 6380 098e 80000000 		.4byte	.LVL133
 6381 0992 28010000 		.4byte	.LVL156
 6382 0996 0200     		.2byte	0x2
 6383 0998 91       		.byte	0x91
 6384 0999 40       		.sleb128 -64
 6385 099a 28010000 		.4byte	.LVL156
 6386 099e 5E010000 		.4byte	.LVL160
 6387 09a2 0300     		.2byte	0x3
 6388 09a4 91       		.byte	0x91
 6389 09a5 BC7F     		.sleb128 -68
 6390 09a7 6A010000 		.4byte	.LVL166
 6391 09ab 6E010000 		.4byte	.LVL167
 6392 09af 0100     		.2byte	0x1
 6393 09b1 53       		.byte	0x53
 6394 09b2 6E010000 		.4byte	.LVL167
 6395 09b6 78010000 		.4byte	.LVL169
 6396 09ba 0300     		.2byte	0x3
 6397 09bc 91       		.byte	0x91
 6398 09bd BC7F     		.sleb128 -68
 6399 09bf 00000000 		.4byte	0
 6400 09c3 00000000 		.4byte	0
 6401              	.LLST42:
 6402 09c7 4A000000 		.4byte	.LVL124
 6403 09cb 6C000000 		.4byte	.LVL129
 6404 09cf 0300     		.2byte	0x3
 6405 09d1 09       		.byte	0x9
 6406 09d2 FF       		.byte	0xff
 6407 09d3 9F       		.byte	0x9f
 6408 09d4 6C000000 		.4byte	.LVL129
 6409 09d8 5E010000 		.4byte	.LVL160
 6410 09dc 0100     		.2byte	0x1
 6411 09de 5A       		.byte	0x5a
 6412 09df 6A010000 		.4byte	.LVL166
 6413 09e3 78010000 		.4byte	.LVL169
 6414 09e7 0100     		.2byte	0x1
 6415 09e9 5A       		.byte	0x5a
 6416 09ea 00000000 		.4byte	0
 6417 09ee 00000000 		.4byte	0
 6418              	.LLST43:
 6419 09f2 4A000000 		.4byte	.LVL124
 6420 09f6 5E010000 		.4byte	.LVL160
 6421 09fa 0200     		.2byte	0x2
 6422 09fc 30       		.byte	0x30
 6423 09fd 9F       		.byte	0x9f
 6424 09fe 6A010000 		.4byte	.LVL166
 6425 0a02 78010000 		.4byte	.LVL169
 6426 0a06 0200     		.2byte	0x2
 6427 0a08 30       		.byte	0x30
 6428 0a09 9F       		.byte	0x9f
 6429 0a0a 00000000 		.4byte	0
ARM GAS  C:\Users\haske\AppData\Local\Temp\ccg6iOQH.s 			page 140


 6430 0a0e 00000000 		.4byte	0
 6431              	.LLST44:
 6432 0a12 CC000000 		.4byte	.LVL145
 6433 0a16 F4000000 		.4byte	.LVL151
 6434 0a1a 0100     		.2byte	0x1
 6435 0a1c 54       		.byte	0x54
 6436 0a1d 00000000 		.4byte	0
 6437 0a21 00000000 		.4byte	0
 6438              	.LLST45:
 6439 0a25 DA000000 		.4byte	.LVL146
 6440 0a29 E0000000 		.4byte	.LVL147
 6441 0a2d 0100     		.2byte	0x1
 6442 0a2f 53       		.byte	0x53
 6443 0a30 E2000000 		.4byte	.LVL148
 6444 0a34 EC000000 		.4byte	.LVL149
 6445 0a38 0100     		.2byte	0x1
 6446 0a3a 53       		.byte	0x53
 6447 0a3b F2000000 		.4byte	.LVL150
 6448 0a3f F4000000 		.4byte	.LVL151
 6449 0a43 0100     		.2byte	0x1
 6450 0a45 53       		.byte	0x53
 6451 0a46 00000000 		.4byte	0
 6452 0a4a 00000000 		.4byte	0
 6453              	.LLST46:
 6454 0a4e CC000000 		.4byte	.LVL145
 6455 0a52 F8000000 		.4byte	.LVL152
 6456 0a56 0200     		.2byte	0x2
 6457 0a58 30       		.byte	0x30
 6458 0a59 9F       		.byte	0x9f
 6459 0a5a 0C010000 		.4byte	.LVL153
 6460 0a5e 22010000 		.4byte	.LVL155
 6461 0a62 0200     		.2byte	0x2
 6462 0a64 30       		.byte	0x30
 6463 0a65 9F       		.byte	0x9f
 6464 0a66 00000000 		.4byte	0
 6465 0a6a 00000000 		.4byte	0
 6466              	.LLST47:
 6467 0a6e 00000000 		.4byte	.LVL171
 6468 0a72 3A000000 		.4byte	.LVL177
 6469 0a76 0100     		.2byte	0x1
 6470 0a78 50       		.byte	0x50
 6471 0a79 3A000000 		.4byte	.LVL177
 6472 0a7d 3E000000 		.4byte	.LVL179
 6473 0a81 0100     		.2byte	0x1
 6474 0a83 57       		.byte	0x57
 6475 0a84 3E000000 		.4byte	.LVL179
 6476 0a88 40000000 		.4byte	.LVL180
 6477 0a8c 0100     		.2byte	0x1
 6478 0a8e 50       		.byte	0x50
 6479 0a8f 40000000 		.4byte	.LVL180
 6480 0a93 60000000 		.4byte	.LVL182
 6481 0a97 0100     		.2byte	0x1
 6482 0a99 57       		.byte	0x57
 6483 0a9a 60000000 		.4byte	.LVL182
 6484 0a9e 7A000000 		.4byte	.LVL185
 6485 0aa2 0100     		.2byte	0x1
 6486 0aa4 50       		.byte	0x50
ARM GAS  C:\Users\haske\AppData\Local\Temp\ccg6iOQH.s 			page 141


 6487 0aa5 7A000000 		.4byte	.LVL185
 6488 0aa9 0A010000 		.4byte	.LVL196
 6489 0aad 0100     		.2byte	0x1
 6490 0aaf 57       		.byte	0x57
 6491 0ab0 0A010000 		.4byte	.LVL196
 6492 0ab4 0C010000 		.4byte	.LVL197
 6493 0ab8 0100     		.2byte	0x1
 6494 0aba 50       		.byte	0x50
 6495 0abb 0C010000 		.4byte	.LVL197
 6496 0abf 0E010000 		.4byte	.LVL198
 6497 0ac3 0100     		.2byte	0x1
 6498 0ac5 57       		.byte	0x57
 6499 0ac6 0E010000 		.4byte	.LVL198
 6500 0aca 10010000 		.4byte	.LVL199
 6501 0ace 0100     		.2byte	0x1
 6502 0ad0 50       		.byte	0x50
 6503 0ad1 10010000 		.4byte	.LVL199
 6504 0ad5 12010000 		.4byte	.LVL200
 6505 0ad9 0100     		.2byte	0x1
 6506 0adb 57       		.byte	0x57
 6507 0adc 12010000 		.4byte	.LVL200
 6508 0ae0 14010000 		.4byte	.LVL201
 6509 0ae4 0100     		.2byte	0x1
 6510 0ae6 50       		.byte	0x50
 6511 0ae7 14010000 		.4byte	.LVL201
 6512 0aeb 16010000 		.4byte	.LVL202
 6513 0aef 0100     		.2byte	0x1
 6514 0af1 57       		.byte	0x57
 6515 0af2 16010000 		.4byte	.LVL202
 6516 0af6 24010000 		.4byte	.LFE57
 6517 0afa 0400     		.2byte	0x4
 6518 0afc F3       		.byte	0xf3
 6519 0afd 01       		.uleb128 0x1
 6520 0afe 50       		.byte	0x50
 6521 0aff 9F       		.byte	0x9f
 6522 0b00 00000000 		.4byte	0
 6523 0b04 00000000 		.4byte	0
 6524              	.LLST48:
 6525 0b08 00000000 		.4byte	.LVL171
 6526 0b0c 6E000000 		.4byte	.LVL184
 6527 0b10 0100     		.2byte	0x1
 6528 0b12 51       		.byte	0x51
 6529 0b13 6E000000 		.4byte	.LVL184
 6530 0b17 0A010000 		.4byte	.LVL196
 6531 0b1b 0200     		.2byte	0x2
 6532 0b1d 91       		.byte	0x91
 6533 0b1e 50       		.sleb128 -48
 6534 0b1f 0A010000 		.4byte	.LVL196
 6535 0b23 14010000 		.4byte	.LVL201
 6536 0b27 0100     		.2byte	0x1
 6537 0b29 51       		.byte	0x51
 6538 0b2a 14010000 		.4byte	.LVL201
 6539 0b2e 24010000 		.4byte	.LFE57
 6540 0b32 0200     		.2byte	0x2
 6541 0b34 91       		.byte	0x91
 6542 0b35 50       		.sleb128 -48
 6543 0b36 00000000 		.4byte	0
ARM GAS  C:\Users\haske\AppData\Local\Temp\ccg6iOQH.s 			page 142


 6544 0b3a 00000000 		.4byte	0
 6545              	.LLST49:
 6546 0b3e 00000000 		.4byte	.LVL171
 6547 0b42 34000000 		.4byte	.LVL176
 6548 0b46 0100     		.2byte	0x1
 6549 0b48 52       		.byte	0x52
 6550 0b49 34000000 		.4byte	.LVL176
 6551 0b4d 0A010000 		.4byte	.LVL196
 6552 0b51 0400     		.2byte	0x4
 6553 0b53 F3       		.byte	0xf3
 6554 0b54 01       		.uleb128 0x1
 6555 0b55 52       		.byte	0x52
 6556 0b56 9F       		.byte	0x9f
 6557 0b57 0A010000 		.4byte	.LVL196
 6558 0b5b 14010000 		.4byte	.LVL201
 6559 0b5f 0100     		.2byte	0x1
 6560 0b61 52       		.byte	0x52
 6561 0b62 14010000 		.4byte	.LVL201
 6562 0b66 24010000 		.4byte	.LFE57
 6563 0b6a 0400     		.2byte	0x4
 6564 0b6c F3       		.byte	0xf3
 6565 0b6d 01       		.uleb128 0x1
 6566 0b6e 52       		.byte	0x52
 6567 0b6f 9F       		.byte	0x9f
 6568 0b70 00000000 		.4byte	0
 6569 0b74 00000000 		.4byte	0
 6570              	.LLST50:
 6571 0b78 00000000 		.4byte	.LVL171
 6572 0b7c 12000000 		.4byte	.LVL172
 6573 0b80 0100     		.2byte	0x1
 6574 0b82 53       		.byte	0x53
 6575 0b83 12000000 		.4byte	.LVL172
 6576 0b87 68000000 		.4byte	.LVL183
 6577 0b8b 0400     		.2byte	0x4
 6578 0b8d F3       		.byte	0xf3
 6579 0b8e 01       		.uleb128 0x1
 6580 0b8f 53       		.byte	0x53
 6581 0b90 9F       		.byte	0x9f
 6582 0b91 68000000 		.4byte	.LVL183
 6583 0b95 A6000000 		.4byte	.LVL187
 6584 0b99 0100     		.2byte	0x1
 6585 0b9b 56       		.byte	0x56
 6586 0b9c A8000000 		.4byte	.LVL188
 6587 0ba0 0A010000 		.4byte	.LVL196
 6588 0ba4 0100     		.2byte	0x1
 6589 0ba6 56       		.byte	0x56
 6590 0ba7 0A010000 		.4byte	.LVL196
 6591 0bab 14010000 		.4byte	.LVL201
 6592 0baf 0400     		.2byte	0x4
 6593 0bb1 F3       		.byte	0xf3
 6594 0bb2 01       		.uleb128 0x1
 6595 0bb3 53       		.byte	0x53
 6596 0bb4 9F       		.byte	0x9f
 6597 0bb5 00000000 		.4byte	0
 6598 0bb9 00000000 		.4byte	0
 6599              	.LLST51:
 6600 0bbd 00000000 		.4byte	.LVL171
ARM GAS  C:\Users\haske\AppData\Local\Temp\ccg6iOQH.s 			page 143


 6601 0bc1 12000000 		.4byte	.LVL172
 6602 0bc5 0200     		.2byte	0x2
 6603 0bc7 91       		.byte	0x91
 6604 0bc8 00       		.sleb128 0
 6605 0bc9 12000000 		.4byte	.LVL172
 6606 0bcd 14000000 		.4byte	.LVL173
 6607 0bd1 0200     		.2byte	0x2
 6608 0bd3 73       		.byte	0x73
 6609 0bd4 00       		.sleb128 0
 6610 0bd5 14000000 		.4byte	.LVL173
 6611 0bd9 16000000 		.4byte	.LVL174
 6612 0bdd 0200     		.2byte	0x2
 6613 0bdf 73       		.byte	0x73
 6614 0be0 7C       		.sleb128 -4
 6615 0be1 16000000 		.4byte	.LVL174
 6616 0be5 24010000 		.4byte	.LFE57
 6617 0be9 0200     		.2byte	0x2
 6618 0beb 91       		.byte	0x91
 6619 0bec 00       		.sleb128 0
 6620 0bed 00000000 		.4byte	0
 6621 0bf1 00000000 		.4byte	0
 6622              	.LLST52:
 6623 0bf5 00000000 		.4byte	.LVL171
 6624 0bf9 12000000 		.4byte	.LVL172
 6625 0bfd 0200     		.2byte	0x2
 6626 0bff 91       		.byte	0x91
 6627 0c00 04       		.sleb128 4
 6628 0c01 12000000 		.4byte	.LVL172
 6629 0c05 14000000 		.4byte	.LVL173
 6630 0c09 0200     		.2byte	0x2
 6631 0c0b 73       		.byte	0x73
 6632 0c0c 04       		.sleb128 4
 6633 0c0d 14000000 		.4byte	.LVL173
 6634 0c11 16000000 		.4byte	.LVL174
 6635 0c15 0200     		.2byte	0x2
 6636 0c17 73       		.byte	0x73
 6637 0c18 00       		.sleb128 0
 6638 0c19 16000000 		.4byte	.LVL174
 6639 0c1d 24010000 		.4byte	.LFE57
 6640 0c21 0200     		.2byte	0x2
 6641 0c23 91       		.byte	0x91
 6642 0c24 04       		.sleb128 4
 6643 0c25 00000000 		.4byte	0
 6644 0c29 00000000 		.4byte	0
 6645              	.LLST53:
 6646 0c2d 30000000 		.4byte	.LVL175
 6647 0c31 7A000000 		.4byte	.LVL185
 6648 0c35 0200     		.2byte	0x2
 6649 0c37 30       		.byte	0x30
 6650 0c38 9F       		.byte	0x9f
 6651 0c39 7A000000 		.4byte	.LVL185
 6652 0c3d 0A010000 		.4byte	.LVL196
 6653 0c41 0100     		.2byte	0x1
 6654 0c43 54       		.byte	0x54
 6655 0c44 00000000 		.4byte	0
 6656 0c48 00000000 		.4byte	0
 6657              	.LLST54:
ARM GAS  C:\Users\haske\AppData\Local\Temp\ccg6iOQH.s 			page 144


 6658 0c4c 3A000000 		.4byte	.LVL177
 6659 0c50 3E000000 		.4byte	.LVL179
 6660 0c54 0100     		.2byte	0x1
 6661 0c56 50       		.byte	0x50
 6662 0c57 40000000 		.4byte	.LVL180
 6663 0c5b 60000000 		.4byte	.LVL182
 6664 0c5f 0100     		.2byte	0x1
 6665 0c61 50       		.byte	0x50
 6666 0c62 00000000 		.4byte	0
 6667 0c66 00000000 		.4byte	0
 6668              	.LLST55:
 6669 0c6a A0000000 		.4byte	.LVL186
 6670 0c6e B6000000 		.4byte	.LVL190
 6671 0c72 0100     		.2byte	0x1
 6672 0c74 50       		.byte	0x50
 6673 0c75 00000000 		.4byte	0
 6674 0c79 00000000 		.4byte	0
 6675              	.LLST56:
 6676 0c7d F0000000 		.4byte	.LVL192
 6677 0c81 FA000000 		.4byte	.LVL193
 6678 0c85 0100     		.2byte	0x1
 6679 0c87 50       		.byte	0x50
 6680 0c88 FA000000 		.4byte	.LVL193
 6681 0c8c FD000000 		.4byte	.LVL194-1
 6682 0c90 0100     		.2byte	0x1
 6683 0c92 51       		.byte	0x51
 6684 0c93 00000000 		.4byte	0
 6685 0c97 00000000 		.4byte	0
 6686              	.LLST57:
 6687 0c9b 00000000 		.4byte	.LVL203
 6688 0c9f 15000000 		.4byte	.LVL204-1
 6689 0ca3 0100     		.2byte	0x1
 6690 0ca5 50       		.byte	0x50
 6691 0ca6 15000000 		.4byte	.LVL204-1
 6692 0caa 52000000 		.4byte	.LVL220
 6693 0cae 0100     		.2byte	0x1
 6694 0cb0 57       		.byte	0x57
 6695 0cb1 52000000 		.4byte	.LVL220
 6696 0cb5 58000000 		.4byte	.LFE60
 6697 0cb9 0400     		.2byte	0x4
 6698 0cbb F3       		.byte	0xf3
 6699 0cbc 01       		.uleb128 0x1
 6700 0cbd 50       		.byte	0x50
 6701 0cbe 9F       		.byte	0x9f
 6702 0cbf 00000000 		.4byte	0
 6703 0cc3 00000000 		.4byte	0
 6704              	.LLST58:
 6705 0cc7 00000000 		.4byte	.LVL203
 6706 0ccb 15000000 		.4byte	.LVL204-1
 6707 0ccf 0100     		.2byte	0x1
 6708 0cd1 51       		.byte	0x51
 6709 0cd2 15000000 		.4byte	.LVL204-1
 6710 0cd6 2E000000 		.4byte	.LVL211
 6711 0cda 0200     		.2byte	0x2
 6712 0cdc 91       		.byte	0x91
 6713 0cdd 64       		.sleb128 -28
 6714 0cde 2E000000 		.4byte	.LVL211
ARM GAS  C:\Users\haske\AppData\Local\Temp\ccg6iOQH.s 			page 145


 6715 0ce2 40000000 		.4byte	.LVL214
 6716 0ce6 0100     		.2byte	0x1
 6717 0ce8 50       		.byte	0x50
 6718 0ce9 00000000 		.4byte	0
 6719 0ced 00000000 		.4byte	0
 6720              	.LLST59:
 6721 0cf1 00000000 		.4byte	.LVL203
 6722 0cf5 15000000 		.4byte	.LVL204-1
 6723 0cf9 0100     		.2byte	0x1
 6724 0cfb 52       		.byte	0x52
 6725 0cfc 15000000 		.4byte	.LVL204-1
 6726 0d00 42000000 		.4byte	.LVL215
 6727 0d04 0100     		.2byte	0x1
 6728 0d06 56       		.byte	0x56
 6729 0d07 42000000 		.4byte	.LVL215
 6730 0d0b 58000000 		.4byte	.LFE60
 6731 0d0f 0400     		.2byte	0x4
 6732 0d11 F3       		.byte	0xf3
 6733 0d12 01       		.uleb128 0x1
 6734 0d13 52       		.byte	0x52
 6735 0d14 9F       		.byte	0x9f
 6736 0d15 00000000 		.4byte	0
 6737 0d19 00000000 		.4byte	0
 6738              	.LLST60:
 6739 0d1d 18000000 		.4byte	.LVL205
 6740 0d21 1A000000 		.4byte	.LVL206
 6741 0d25 0100     		.2byte	0x1
 6742 0d27 50       		.byte	0x50
 6743 0d28 1A000000 		.4byte	.LVL206
 6744 0d2c 24000000 		.4byte	.LVL209
 6745 0d30 0100     		.2byte	0x1
 6746 0d32 54       		.byte	0x54
 6747 0d33 00000000 		.4byte	0
 6748 0d37 00000000 		.4byte	0
 6749              	.LLST61:
 6750 0d3b 20000000 		.4byte	.LVL208
 6751 0d3f 2C000000 		.4byte	.LVL210
 6752 0d43 0100     		.2byte	0x1
 6753 0d45 50       		.byte	0x50
 6754 0d46 2C000000 		.4byte	.LVL210
 6755 0d4a 42000000 		.4byte	.LVL215
 6756 0d4e 0100     		.2byte	0x1
 6757 0d50 55       		.byte	0x55
 6758 0d51 00000000 		.4byte	0
 6759 0d55 00000000 		.4byte	0
 6760              	.LLST62:
 6761 0d59 24000000 		.4byte	.LVL209
 6762 0d5d 30000000 		.4byte	.LVL212
 6763 0d61 0100     		.2byte	0x1
 6764 0d63 54       		.byte	0x54
 6765 0d64 00000000 		.4byte	0
 6766 0d68 00000000 		.4byte	0
 6767              	.LLST63:
 6768 0d6c 2E000000 		.4byte	.LVL211
 6769 0d70 50000000 		.4byte	.LVL219
 6770 0d74 0100     		.2byte	0x1
 6771 0d76 54       		.byte	0x54
ARM GAS  C:\Users\haske\AppData\Local\Temp\ccg6iOQH.s 			page 146


 6772 0d77 00000000 		.4byte	0
 6773 0d7b 00000000 		.4byte	0
 6774              	.LLST64:
 6775 0d7f 42000000 		.4byte	.LVL215
 6776 0d83 50000000 		.4byte	.LVL219
 6777 0d87 0100     		.2byte	0x1
 6778 0d89 55       		.byte	0x55
 6779 0d8a 00000000 		.4byte	0
 6780 0d8e 00000000 		.4byte	0
 6781              	.LLST65:
 6782 0d92 40000000 		.4byte	.LVL214
 6783 0d96 42000000 		.4byte	.LVL215
 6784 0d9a 0100     		.2byte	0x1
 6785 0d9c 56       		.byte	0x56
 6786 0d9d 42000000 		.4byte	.LVL215
 6787 0da1 50000000 		.4byte	.LVL219
 6788 0da5 0400     		.2byte	0x4
 6789 0da7 F3       		.byte	0xf3
 6790 0da8 01       		.uleb128 0x1
 6791 0da9 52       		.byte	0x52
 6792 0daa 9F       		.byte	0x9f
 6793 0dab 00000000 		.4byte	0
 6794 0daf 00000000 		.4byte	0
 6795              	.LLST66:
 6796 0db3 40000000 		.4byte	.LVL214
 6797 0db7 42000000 		.4byte	.LVL215
 6798 0dbb 0100     		.2byte	0x1
 6799 0dbd 50       		.byte	0x50
 6800 0dbe 00000000 		.4byte	0
 6801 0dc2 00000000 		.4byte	0
 6802              	.LLST67:
 6803 0dc6 40000000 		.4byte	.LVL214
 6804 0dca 50000000 		.4byte	.LVL219
 6805 0dce 0100     		.2byte	0x1
 6806 0dd0 50       		.byte	0x50
 6807 0dd1 00000000 		.4byte	0
 6808 0dd5 00000000 		.4byte	0
 6809              	.LLST68:
 6810 0dd9 40000000 		.4byte	.LVL214
 6811 0ddd 50000000 		.4byte	.LVL219
 6812 0de1 0100     		.2byte	0x1
 6813 0de3 56       		.byte	0x56
 6814 0de4 00000000 		.4byte	0
 6815 0de8 00000000 		.4byte	0
 6816              	.LLST69:
 6817 0dec 00000000 		.4byte	.LVL221
 6818 0df0 11000000 		.4byte	.LVL222-1
 6819 0df4 0100     		.2byte	0x1
 6820 0df6 50       		.byte	0x50
 6821 0df7 11000000 		.4byte	.LVL222-1
 6822 0dfb 3A000000 		.4byte	.LVL232
 6823 0dff 0100     		.2byte	0x1
 6824 0e01 55       		.byte	0x55
 6825 0e02 3A000000 		.4byte	.LVL232
 6826 0e06 40000000 		.4byte	.LFE61
 6827 0e0a 0400     		.2byte	0x4
 6828 0e0c F3       		.byte	0xf3
ARM GAS  C:\Users\haske\AppData\Local\Temp\ccg6iOQH.s 			page 147


 6829 0e0d 01       		.uleb128 0x1
 6830 0e0e 50       		.byte	0x50
 6831 0e0f 9F       		.byte	0x9f
 6832 0e10 00000000 		.4byte	0
 6833 0e14 00000000 		.4byte	0
 6834              	.LLST70:
 6835 0e18 00000000 		.4byte	.LVL221
 6836 0e1c 11000000 		.4byte	.LVL222-1
 6837 0e20 0100     		.2byte	0x1
 6838 0e22 51       		.byte	0x51
 6839 0e23 11000000 		.4byte	.LVL222-1
 6840 0e27 20000000 		.4byte	.LVL226
 6841 0e2b 0100     		.2byte	0x1
 6842 0e2d 54       		.byte	0x54
 6843 0e2e 20000000 		.4byte	.LVL226
 6844 0e32 24000000 		.4byte	.LVL227
 6845 0e36 0100     		.2byte	0x1
 6846 0e38 50       		.byte	0x50
 6847 0e39 24000000 		.4byte	.LVL227
 6848 0e3d 2A000000 		.4byte	.LVL229
 6849 0e41 0100     		.2byte	0x1
 6850 0e43 54       		.byte	0x54
 6851 0e44 00000000 		.4byte	0
 6852 0e48 00000000 		.4byte	0
 6853              	.LLST71:
 6854 0e4c 00000000 		.4byte	.LVL221
 6855 0e50 11000000 		.4byte	.LVL222-1
 6856 0e54 0100     		.2byte	0x1
 6857 0e56 52       		.byte	0x52
 6858 0e57 11000000 		.4byte	.LVL222-1
 6859 0e5b 28000000 		.4byte	.LVL228
 6860 0e5f 0200     		.2byte	0x2
 6861 0e61 91       		.byte	0x91
 6862 0e62 64       		.sleb128 -28
 6863 0e63 28000000 		.4byte	.LVL228
 6864 0e67 38000000 		.4byte	.LVL231
 6865 0e6b 0100     		.2byte	0x1
 6866 0e6d 50       		.byte	0x50
 6867 0e6e 00000000 		.4byte	0
 6868 0e72 00000000 		.4byte	0
 6869              	.LLST72:
 6870 0e76 14000000 		.4byte	.LVL223
 6871 0e7a 1A000000 		.4byte	.LVL224
 6872 0e7e 0100     		.2byte	0x1
 6873 0e80 50       		.byte	0x50
 6874 0e81 1A000000 		.4byte	.LVL224
 6875 0e85 38000000 		.4byte	.LVL231
 6876 0e89 0100     		.2byte	0x1
 6877 0e8b 56       		.byte	0x56
 6878 0e8c 00000000 		.4byte	0
 6879 0e90 00000000 		.4byte	0
 6880              	.LLST73:
 6881 0e94 28000000 		.4byte	.LVL228
 6882 0e98 38000000 		.4byte	.LVL231
 6883 0e9c 0100     		.2byte	0x1
 6884 0e9e 54       		.byte	0x54
 6885 0e9f 00000000 		.4byte	0
ARM GAS  C:\Users\haske\AppData\Local\Temp\ccg6iOQH.s 			page 148


 6886 0ea3 00000000 		.4byte	0
 6887              	.LLST74:
 6888 0ea7 00000000 		.4byte	.LVL233
 6889 0eab 12000000 		.4byte	.LVL235
 6890 0eaf 0100     		.2byte	0x1
 6891 0eb1 50       		.byte	0x50
 6892 0eb2 12000000 		.4byte	.LVL235
 6893 0eb6 15000000 		.4byte	.LVL236-1
 6894 0eba 0100     		.2byte	0x1
 6895 0ebc 52       		.byte	0x52
 6896 0ebd 15000000 		.4byte	.LVL236-1
 6897 0ec1 44000000 		.4byte	.LFE62
 6898 0ec5 0200     		.2byte	0x2
 6899 0ec7 91       		.byte	0x91
 6900 0ec8 5C       		.sleb128 -36
 6901 0ec9 00000000 		.4byte	0
 6902 0ecd 00000000 		.4byte	0
 6903              	.LLST75:
 6904 0ed1 00000000 		.4byte	.LVL233
 6905 0ed5 10000000 		.4byte	.LVL234
 6906 0ed9 0100     		.2byte	0x1
 6907 0edb 51       		.byte	0x51
 6908 0edc 30000000 		.4byte	.LVL241
 6909 0ee0 3E000000 		.4byte	.LVL243
 6910 0ee4 0100     		.2byte	0x1
 6911 0ee6 55       		.byte	0x55
 6912 0ee7 40000000 		.4byte	.LVL244
 6913 0eeb 42000000 		.4byte	.LVL246
 6914 0eef 0100     		.2byte	0x1
 6915 0ef1 55       		.byte	0x55
 6916 0ef2 00000000 		.4byte	0
 6917 0ef6 00000000 		.4byte	0
 6918              	.LLST76:
 6919 0efa 18000000 		.4byte	.LVL237
 6920 0efe 1C000000 		.4byte	.LVL238
 6921 0f02 0100     		.2byte	0x1
 6922 0f04 50       		.byte	0x50
 6923 0f05 1C000000 		.4byte	.LVL238
 6924 0f09 42000000 		.4byte	.LVL247
 6925 0f0d 0100     		.2byte	0x1
 6926 0f0f 57       		.byte	0x57
 6927 0f10 00000000 		.4byte	0
 6928 0f14 00000000 		.4byte	0
 6929              	.LLST77:
 6930 0f18 18000000 		.4byte	.LVL237
 6931 0f1c 22000000 		.4byte	.LVL240
 6932 0f20 0200     		.2byte	0x2
 6933 0f22 30       		.byte	0x30
 6934 0f23 9F       		.byte	0x9f
 6935 0f24 22000000 		.4byte	.LVL240
 6936 0f28 39000000 		.4byte	.LVL242-1
 6937 0f2c 0100     		.2byte	0x1
 6938 0f2e 50       		.byte	0x50
 6939 0f2f 39000000 		.4byte	.LVL242-1
 6940 0f33 3E000000 		.4byte	.LVL243
 6941 0f37 0100     		.2byte	0x1
 6942 0f39 54       		.byte	0x54
ARM GAS  C:\Users\haske\AppData\Local\Temp\ccg6iOQH.s 			page 149


 6943 0f3a 3E000000 		.4byte	.LVL243
 6944 0f3e 40000000 		.4byte	.LVL244
 6945 0f42 0100     		.2byte	0x1
 6946 0f44 50       		.byte	0x50
 6947 0f45 40000000 		.4byte	.LVL244
 6948 0f49 42000000 		.4byte	.LVL245
 6949 0f4d 0100     		.2byte	0x1
 6950 0f4f 54       		.byte	0x54
 6951 0f50 00000000 		.4byte	0
 6952 0f54 00000000 		.4byte	0
 6953              	.LLST78:
 6954 0f58 00000000 		.4byte	.LVL248
 6955 0f5c 11000000 		.4byte	.LVL251-1
 6956 0f60 0100     		.2byte	0x1
 6957 0f62 50       		.byte	0x50
 6958 0f63 11000000 		.4byte	.LVL251-1
 6959 0f67 26000000 		.4byte	.LVL253
 6960 0f6b 0100     		.2byte	0x1
 6961 0f6d 54       		.byte	0x54
 6962 0f6e 26000000 		.4byte	.LVL253
 6963 0f72 2C000000 		.4byte	.LFE63
 6964 0f76 0400     		.2byte	0x4
 6965 0f78 F3       		.byte	0xf3
 6966 0f79 01       		.uleb128 0x1
 6967 0f7a 50       		.byte	0x50
 6968 0f7b 9F       		.byte	0x9f
 6969 0f7c 00000000 		.4byte	0
 6970 0f80 00000000 		.4byte	0
 6971              	.LLST79:
 6972 0f84 00000000 		.4byte	.LVL248
 6973 0f88 10000000 		.4byte	.LVL250
 6974 0f8c 0100     		.2byte	0x1
 6975 0f8e 51       		.byte	0x51
 6976 0f8f 10000000 		.4byte	.LVL250
 6977 0f93 26000000 		.4byte	.LVL256
 6978 0f97 0100     		.2byte	0x1
 6979 0f99 57       		.byte	0x57
 6980 0f9a 26000000 		.4byte	.LVL256
 6981 0f9e 2C000000 		.4byte	.LFE63
 6982 0fa2 0400     		.2byte	0x4
 6983 0fa4 F3       		.byte	0xf3
 6984 0fa5 01       		.uleb128 0x1
 6985 0fa6 51       		.byte	0x51
 6986 0fa7 9F       		.byte	0x9f
 6987 0fa8 00000000 		.4byte	0
 6988 0fac 00000000 		.4byte	0
 6989              	.LLST80:
 6990 0fb0 00000000 		.4byte	.LVL248
 6991 0fb4 11000000 		.4byte	.LVL251-1
 6992 0fb8 0100     		.2byte	0x1
 6993 0fba 52       		.byte	0x52
 6994 0fbb 11000000 		.4byte	.LVL251-1
 6995 0fbf 26000000 		.4byte	.LVL255
 6996 0fc3 0100     		.2byte	0x1
 6997 0fc5 56       		.byte	0x56
 6998 0fc6 26000000 		.4byte	.LVL255
 6999 0fca 2C000000 		.4byte	.LFE63
ARM GAS  C:\Users\haske\AppData\Local\Temp\ccg6iOQH.s 			page 150


 7000 0fce 0400     		.2byte	0x4
 7001 0fd0 F3       		.byte	0xf3
 7002 0fd1 01       		.uleb128 0x1
 7003 0fd2 52       		.byte	0x52
 7004 0fd3 9F       		.byte	0x9f
 7005 0fd4 00000000 		.4byte	0
 7006 0fd8 00000000 		.4byte	0
 7007              	.LLST81:
 7008 0fdc 00000000 		.4byte	.LVL248
 7009 0fe0 0C000000 		.4byte	.LVL249
 7010 0fe4 0100     		.2byte	0x1
 7011 0fe6 53       		.byte	0x53
 7012 0fe7 0C000000 		.4byte	.LVL249
 7013 0feb 26000000 		.4byte	.LVL254
 7014 0fef 0100     		.2byte	0x1
 7015 0ff1 55       		.byte	0x55
 7016 0ff2 26000000 		.4byte	.LVL254
 7017 0ff6 2C000000 		.4byte	.LFE63
 7018 0ffa 0400     		.2byte	0x4
 7019 0ffc F3       		.byte	0xf3
 7020 0ffd 01       		.uleb128 0x1
 7021 0ffe 53       		.byte	0x53
 7022 0fff 9F       		.byte	0x9f
 7023 1000 00000000 		.4byte	0
 7024 1004 00000000 		.4byte	0
 7025              	.LLST82:
 7026 1008 00000000 		.4byte	.LVL257
 7027 100c 36000000 		.4byte	.LVL263
 7028 1010 0100     		.2byte	0x1
 7029 1012 50       		.byte	0x50
 7030 1013 36000000 		.4byte	.LVL263
 7031 1017 74000000 		.4byte	.LVL272
 7032 101b 0100     		.2byte	0x1
 7033 101d 54       		.byte	0x54
 7034 101e 74000000 		.4byte	.LVL272
 7035 1022 76000000 		.4byte	.LVL273
 7036 1026 0100     		.2byte	0x1
 7037 1028 50       		.byte	0x50
 7038 1029 76000000 		.4byte	.LVL273
 7039 102d 88000000 		.4byte	.LVL275
 7040 1031 0100     		.2byte	0x1
 7041 1033 54       		.byte	0x54
 7042 1034 88000000 		.4byte	.LVL275
 7043 1038 8A000000 		.4byte	.LVL276
 7044 103c 0100     		.2byte	0x1
 7045 103e 50       		.byte	0x50
 7046 103f 8A000000 		.4byte	.LVL276
 7047 1043 8C000000 		.4byte	.LVL277
 7048 1047 0100     		.2byte	0x1
 7049 1049 54       		.byte	0x54
 7050 104a 8C000000 		.4byte	.LVL277
 7051 104e 8E000000 		.4byte	.LVL278
 7052 1052 0100     		.2byte	0x1
 7053 1054 50       		.byte	0x50
 7054 1055 8E000000 		.4byte	.LVL278
 7055 1059 90000000 		.4byte	.LVL279
 7056 105d 0100     		.2byte	0x1
ARM GAS  C:\Users\haske\AppData\Local\Temp\ccg6iOQH.s 			page 151


 7057 105f 54       		.byte	0x54
 7058 1060 90000000 		.4byte	.LVL279
 7059 1064 92000000 		.4byte	.LVL280
 7060 1068 0100     		.2byte	0x1
 7061 106a 50       		.byte	0x50
 7062 106b 92000000 		.4byte	.LVL280
 7063 106f 98000000 		.4byte	.LVL283
 7064 1073 0100     		.2byte	0x1
 7065 1075 54       		.byte	0x54
 7066 1076 98000000 		.4byte	.LVL283
 7067 107a 9E000000 		.4byte	.LFE58
 7068 107e 0400     		.2byte	0x4
 7069 1080 F3       		.byte	0xf3
 7070 1081 01       		.uleb128 0x1
 7071 1082 50       		.byte	0x50
 7072 1083 9F       		.byte	0x9f
 7073 1084 00000000 		.4byte	0
 7074 1088 00000000 		.4byte	0
 7075              	.LLST83:
 7076 108c 00000000 		.4byte	.LVL257
 7077 1090 2A000000 		.4byte	.LVL262
 7078 1094 0100     		.2byte	0x1
 7079 1096 51       		.byte	0x51
 7080 1097 2A000000 		.4byte	.LVL262
 7081 109b 88000000 		.4byte	.LVL275
 7082 109f 0100     		.2byte	0x1
 7083 10a1 56       		.byte	0x56
 7084 10a2 88000000 		.4byte	.LVL275
 7085 10a6 94000000 		.4byte	.LVL281
 7086 10aa 0100     		.2byte	0x1
 7087 10ac 51       		.byte	0x51
 7088 10ad 94000000 		.4byte	.LVL281
 7089 10b1 98000000 		.4byte	.LVL284
 7090 10b5 0100     		.2byte	0x1
 7091 10b7 56       		.byte	0x56
 7092 10b8 98000000 		.4byte	.LVL284
 7093 10bc 9E000000 		.4byte	.LFE58
 7094 10c0 0400     		.2byte	0x4
 7095 10c2 F3       		.byte	0xf3
 7096 10c3 01       		.uleb128 0x1
 7097 10c4 51       		.byte	0x51
 7098 10c5 9F       		.byte	0x9f
 7099 10c6 00000000 		.4byte	0
 7100 10ca 00000000 		.4byte	0
 7101              	.LLST84:
 7102 10ce 00000000 		.4byte	.LVL257
 7103 10d2 28000000 		.4byte	.LVL261
 7104 10d6 0100     		.2byte	0x1
 7105 10d8 52       		.byte	0x52
 7106 10d9 28000000 		.4byte	.LVL261
 7107 10dd 88000000 		.4byte	.LVL275
 7108 10e1 0200     		.2byte	0x2
 7109 10e3 91       		.byte	0x91
 7110 10e4 54       		.sleb128 -44
 7111 10e5 88000000 		.4byte	.LVL275
 7112 10e9 94000000 		.4byte	.LVL281
 7113 10ed 0100     		.2byte	0x1
ARM GAS  C:\Users\haske\AppData\Local\Temp\ccg6iOQH.s 			page 152


 7114 10ef 52       		.byte	0x52
 7115 10f0 94000000 		.4byte	.LVL281
 7116 10f4 9E000000 		.4byte	.LFE58
 7117 10f8 0200     		.2byte	0x2
 7118 10fa 91       		.byte	0x91
 7119 10fb 54       		.sleb128 -44
 7120 10fc 00000000 		.4byte	0
 7121 1100 00000000 		.4byte	0
 7122              	.LLST85:
 7123 1104 00000000 		.4byte	.LVL257
 7124 1108 12000000 		.4byte	.LVL258
 7125 110c 0100     		.2byte	0x1
 7126 110e 53       		.byte	0x53
 7127 110f 12000000 		.4byte	.LVL258
 7128 1113 9E000000 		.4byte	.LFE58
 7129 1117 0400     		.2byte	0x4
 7130 1119 F3       		.byte	0xf3
 7131 111a 01       		.uleb128 0x1
 7132 111b 53       		.byte	0x53
 7133 111c 9F       		.byte	0x9f
 7134 111d 00000000 		.4byte	0
 7135 1121 00000000 		.4byte	0
 7136              	.LLST86:
 7137 1125 00000000 		.4byte	.LVL257
 7138 1129 12000000 		.4byte	.LVL258
 7139 112d 0200     		.2byte	0x2
 7140 112f 91       		.byte	0x91
 7141 1130 00       		.sleb128 0
 7142 1131 12000000 		.4byte	.LVL258
 7143 1135 1E000000 		.4byte	.LVL259
 7144 1139 0200     		.2byte	0x2
 7145 113b 73       		.byte	0x73
 7146 113c 00       		.sleb128 0
 7147 113d 1E000000 		.4byte	.LVL259
 7148 1141 88000000 		.4byte	.LVL275
 7149 1145 0200     		.2byte	0x2
 7150 1147 91       		.byte	0x91
 7151 1148 00       		.sleb128 0
 7152 1149 88000000 		.4byte	.LVL275
 7153 114d 90000000 		.4byte	.LVL279
 7154 1151 0200     		.2byte	0x2
 7155 1153 73       		.byte	0x73
 7156 1154 00       		.sleb128 0
 7157 1155 90000000 		.4byte	.LVL279
 7158 1159 9E000000 		.4byte	.LFE58
 7159 115d 0200     		.2byte	0x2
 7160 115f 91       		.byte	0x91
 7161 1160 00       		.sleb128 0
 7162 1161 00000000 		.4byte	0
 7163 1165 00000000 		.4byte	0
 7164              	.LLST87:
 7165 1169 26000000 		.4byte	.LVL260
 7166 116d 38000000 		.4byte	.LVL264
 7167 1171 0200     		.2byte	0x2
 7168 1173 30       		.byte	0x30
 7169 1174 9F       		.byte	0x9f
 7170 1175 38000000 		.4byte	.LVL264
ARM GAS  C:\Users\haske\AppData\Local\Temp\ccg6iOQH.s 			page 153


 7171 1179 6E000000 		.4byte	.LVL269
 7172 117d 0100     		.2byte	0x1
 7173 117f 55       		.byte	0x55
 7174 1180 6E000000 		.4byte	.LVL269
 7175 1184 70000000 		.4byte	.LVL270
 7176 1188 0100     		.2byte	0x1
 7177 118a 50       		.byte	0x50
 7178 118b 72000000 		.4byte	.LVL271
 7179 118f 74000000 		.4byte	.LVL272
 7180 1193 0100     		.2byte	0x1
 7181 1195 55       		.byte	0x55
 7182 1196 74000000 		.4byte	.LVL272
 7183 119a 76000000 		.4byte	.LVL273
 7184 119e 0200     		.2byte	0x2
 7185 11a0 30       		.byte	0x30
 7186 11a1 9F       		.byte	0x9f
 7187 11a2 76000000 		.4byte	.LVL273
 7188 11a6 84000000 		.4byte	.LVL274
 7189 11aa 0100     		.2byte	0x1
 7190 11ac 55       		.byte	0x55
 7191 11ad 84000000 		.4byte	.LVL274
 7192 11b1 88000000 		.4byte	.LVL275
 7193 11b5 0100     		.2byte	0x1
 7194 11b7 50       		.byte	0x50
 7195 11b8 94000000 		.4byte	.LVL281
 7196 11bc 96000000 		.4byte	.LVL282
 7197 11c0 0100     		.2byte	0x1
 7198 11c2 55       		.byte	0x55
 7199 11c3 00000000 		.4byte	0
 7200 11c7 00000000 		.4byte	0
 7201              	.LLST88:
 7202 11cb 66000000 		.4byte	.LVL268
 7203 11cf 74000000 		.4byte	.LVL272
 7204 11d3 0100     		.2byte	0x1
 7205 11d5 53       		.byte	0x53
 7206 11d6 00000000 		.4byte	0
 7207 11da 00000000 		.4byte	0
 7208              	.LLST89:
 7209 11de 00000000 		.4byte	.LVL285
 7210 11e2 5E000000 		.4byte	.LVL297
 7211 11e6 0100     		.2byte	0x1
 7212 11e8 50       		.byte	0x50
 7213 11e9 5E000000 		.4byte	.LVL297
 7214 11ed E8000000 		.4byte	.LVL306
 7215 11f1 0100     		.2byte	0x1
 7216 11f3 54       		.byte	0x54
 7217 11f4 E8000000 		.4byte	.LVL306
 7218 11f8 FC000000 		.4byte	.LFE55
 7219 11fc 0400     		.2byte	0x4
 7220 11fe F3       		.byte	0xf3
 7221 11ff 01       		.uleb128 0x1
 7222 1200 50       		.byte	0x50
 7223 1201 9F       		.byte	0x9f
 7224 1202 00000000 		.4byte	0
 7225 1206 00000000 		.4byte	0
 7226              	.LLST90:
 7227 120a 00000000 		.4byte	.LVL285
ARM GAS  C:\Users\haske\AppData\Local\Temp\ccg6iOQH.s 			page 154


 7228 120e 22000000 		.4byte	.LVL289
 7229 1212 0100     		.2byte	0x1
 7230 1214 51       		.byte	0x51
 7231 1215 22000000 		.4byte	.LVL289
 7232 1219 E8000000 		.4byte	.LVL307
 7233 121d 0100     		.2byte	0x1
 7234 121f 5B       		.byte	0x5b
 7235 1220 E8000000 		.4byte	.LVL307
 7236 1224 FC000000 		.4byte	.LFE55
 7237 1228 0400     		.2byte	0x4
 7238 122a F3       		.byte	0xf3
 7239 122b 01       		.uleb128 0x1
 7240 122c 51       		.byte	0x51
 7241 122d 9F       		.byte	0x9f
 7242 122e 00000000 		.4byte	0
 7243 1232 00000000 		.4byte	0
 7244              	.LLST91:
 7245 1236 00000000 		.4byte	.LVL285
 7246 123a 4A000000 		.4byte	.LVL293
 7247 123e 0100     		.2byte	0x1
 7248 1240 52       		.byte	0x52
 7249 1241 4A000000 		.4byte	.LVL293
 7250 1245 FC000000 		.4byte	.LFE55
 7251 1249 0200     		.2byte	0x2
 7252 124b 91       		.byte	0x91
 7253 124c 48       		.sleb128 -56
 7254 124d 00000000 		.4byte	0
 7255 1251 00000000 		.4byte	0
 7256              	.LLST92:
 7257 1255 00000000 		.4byte	.LVL285
 7258 1259 18000000 		.4byte	.LVL286
 7259 125d 0100     		.2byte	0x1
 7260 125f 53       		.byte	0x53
 7261 1260 18000000 		.4byte	.LVL286
 7262 1264 FC000000 		.4byte	.LFE55
 7263 1268 0400     		.2byte	0x4
 7264 126a F3       		.byte	0xf3
 7265 126b 01       		.uleb128 0x1
 7266 126c 53       		.byte	0x53
 7267 126d 9F       		.byte	0x9f
 7268 126e 00000000 		.4byte	0
 7269 1272 00000000 		.4byte	0
 7270              	.LLST93:
 7271 1276 00000000 		.4byte	.LVL285
 7272 127a 18000000 		.4byte	.LVL286
 7273 127e 0200     		.2byte	0x2
 7274 1280 91       		.byte	0x91
 7275 1281 00       		.sleb128 0
 7276 1282 18000000 		.4byte	.LVL286
 7277 1286 1C000000 		.4byte	.LVL287
 7278 128a 0200     		.2byte	0x2
 7279 128c 73       		.byte	0x73
 7280 128d 00       		.sleb128 0
 7281 128e 1C000000 		.4byte	.LVL287
 7282 1292 FC000000 		.4byte	.LFE55
 7283 1296 0200     		.2byte	0x2
 7284 1298 91       		.byte	0x91
ARM GAS  C:\Users\haske\AppData\Local\Temp\ccg6iOQH.s 			page 155


 7285 1299 00       		.sleb128 0
 7286 129a 00000000 		.4byte	0
 7287 129e 00000000 		.4byte	0
 7288              	.LLST94:
 7289 12a2 00000000 		.4byte	.LVL285
 7290 12a6 18000000 		.4byte	.LVL286
 7291 12aa 0200     		.2byte	0x2
 7292 12ac 91       		.byte	0x91
 7293 12ad 04       		.sleb128 4
 7294 12ae 18000000 		.4byte	.LVL286
 7295 12b2 1C000000 		.4byte	.LVL287
 7296 12b6 0200     		.2byte	0x2
 7297 12b8 73       		.byte	0x73
 7298 12b9 04       		.sleb128 4
 7299 12ba 1C000000 		.4byte	.LVL287
 7300 12be 1E000000 		.4byte	.LVL288
 7301 12c2 0200     		.2byte	0x2
 7302 12c4 91       		.byte	0x91
 7303 12c5 04       		.sleb128 4
 7304 12c6 1E000000 		.4byte	.LVL288
 7305 12ca 22000000 		.4byte	.LVL289
 7306 12ce 0200     		.2byte	0x2
 7307 12d0 73       		.byte	0x73
 7308 12d1 00       		.sleb128 0
 7309 12d2 22000000 		.4byte	.LVL289
 7310 12d6 44000000 		.4byte	.LVL292
 7311 12da 0200     		.2byte	0x2
 7312 12dc 91       		.byte	0x91
 7313 12dd 04       		.sleb128 4
 7314 12de 44000000 		.4byte	.LVL292
 7315 12e2 E6000000 		.4byte	.LVL305
 7316 12e6 0200     		.2byte	0x2
 7317 12e8 91       		.byte	0x91
 7318 12e9 50       		.sleb128 -48
 7319 12ea 00000000 		.4byte	0
 7320 12ee 00000000 		.4byte	0
 7321              	.LLST95:
 7322 12f2 00000000 		.4byte	.LVL285
 7323 12f6 18000000 		.4byte	.LVL286
 7324 12fa 0200     		.2byte	0x2
 7325 12fc 91       		.byte	0x91
 7326 12fd 08       		.sleb128 8
 7327 12fe 18000000 		.4byte	.LVL286
 7328 1302 1C000000 		.4byte	.LVL287
 7329 1306 0200     		.2byte	0x2
 7330 1308 73       		.byte	0x73
 7331 1309 08       		.sleb128 8
 7332 130a 1C000000 		.4byte	.LVL287
 7333 130e 26000000 		.4byte	.LVL290
 7334 1312 0200     		.2byte	0x2
 7335 1314 91       		.byte	0x91
 7336 1315 08       		.sleb128 8
 7337 1316 26000000 		.4byte	.LVL290
 7338 131a 28000000 		.4byte	.LVL291
 7339 131e 0200     		.2byte	0x2
 7340 1320 73       		.byte	0x73
 7341 1321 00       		.sleb128 0
ARM GAS  C:\Users\haske\AppData\Local\Temp\ccg6iOQH.s 			page 156


 7342 1322 28000000 		.4byte	.LVL291
 7343 1326 FC000000 		.4byte	.LFE55
 7344 132a 0200     		.2byte	0x2
 7345 132c 91       		.byte	0x91
 7346 132d 08       		.sleb128 8
 7347 132e 00000000 		.4byte	0
 7348 1332 00000000 		.4byte	0
 7349              	.LLST96:
 7350 1336 44000000 		.4byte	.LVL292
 7351 133a 5E000000 		.4byte	.LVL297
 7352 133e 0200     		.2byte	0x2
 7353 1340 30       		.byte	0x30
 7354 1341 9F       		.byte	0x9f
 7355 1342 5E000000 		.4byte	.LVL297
 7356 1346 74000000 		.4byte	.LVL299
 7357 134a 0100     		.2byte	0x1
 7358 134c 56       		.byte	0x56
 7359 134d A8000000 		.4byte	.LVL301
 7360 1351 BE000000 		.4byte	.LVL303
 7361 1355 0100     		.2byte	0x1
 7362 1357 56       		.byte	0x56
 7363 1358 BE000000 		.4byte	.LVL303
 7364 135c D4000000 		.4byte	.LVL304
 7365 1360 0300     		.2byte	0x3
 7366 1362 76       		.byte	0x76
 7367 1363 01       		.sleb128 1
 7368 1364 9F       		.byte	0x9f
 7369 1365 00000000 		.4byte	0
 7370 1369 00000000 		.4byte	0
 7371              	.LLST97:
 7372 136d 44000000 		.4byte	.LVL292
 7373 1371 5E000000 		.4byte	.LVL297
 7374 1375 0200     		.2byte	0x2
 7375 1377 30       		.byte	0x30
 7376 1378 9F       		.byte	0x9f
 7377 1379 5E000000 		.4byte	.LVL297
 7378 137d BE000000 		.4byte	.LVL303
 7379 1381 0100     		.2byte	0x1
 7380 1383 56       		.byte	0x56
 7381 1384 BE000000 		.4byte	.LVL303
 7382 1388 D4000000 		.4byte	.LVL304
 7383 138c 0300     		.2byte	0x3
 7384 138e 76       		.byte	0x76
 7385 138f 01       		.sleb128 1
 7386 1390 9F       		.byte	0x9f
 7387 1391 00000000 		.4byte	0
 7388 1395 00000000 		.4byte	0
 7389              	.LLST98:
 7390 1399 54000000 		.4byte	.LVL295
 7391 139d 5C000000 		.4byte	.LVL296
 7392 13a1 0100     		.2byte	0x1
 7393 13a3 5A       		.byte	0x5a
 7394 13a4 5C000000 		.4byte	.LVL296
 7395 13a8 B8000000 		.4byte	.LVL302
 7396 13ac 0100     		.2byte	0x1
 7397 13ae 57       		.byte	0x57
 7398 13af B8000000 		.4byte	.LVL302
ARM GAS  C:\Users\haske\AppData\Local\Temp\ccg6iOQH.s 			page 157


 7399 13b3 E6000000 		.4byte	.LVL305
 7400 13b7 0100     		.2byte	0x1
 7401 13b9 5A       		.byte	0x5a
 7402 13ba 00000000 		.4byte	0
 7403 13be 00000000 		.4byte	0
 7404              	.LLST99:
 7405 13c2 44000000 		.4byte	.LVL292
 7406 13c6 4C000000 		.4byte	.LVL294
 7407 13ca 0200     		.2byte	0x2
 7408 13cc 91       		.byte	0x91
 7409 13cd 48       		.sleb128 -56
 7410 13ce 00000000 		.4byte	0
 7411 13d2 00000000 		.4byte	0
 7412              	.LLST100:
 7413 13d6 9A000000 		.4byte	.LVL300
 7414 13da A8000000 		.4byte	.LVL301
 7415 13de 0100     		.2byte	0x1
 7416 13e0 50       		.byte	0x50
 7417 13e1 00000000 		.4byte	0
 7418 13e5 00000000 		.4byte	0
 7419              		.section	.debug_aranges,"",%progbits
 7420 0000 9C000000 		.4byte	0x9c
 7421 0004 0200     		.2byte	0x2
 7422 0006 00000000 		.4byte	.Ldebug_info0
 7423 000a 04       		.byte	0x4
 7424 000b 00       		.byte	0
 7425 000c 0000     		.2byte	0
 7426 000e 0000     		.2byte	0
 7427 0010 00000000 		.4byte	.LFB64
 7428 0014 38000000 		.4byte	.LFE64-.LFB64
 7429 0018 00000000 		.4byte	.LFB65
 7430 001c A4000000 		.4byte	.LFE65-.LFB65
 7431 0020 00000000 		.4byte	.LFB66
 7432 0024 54000000 		.4byte	.LFE66-.LFB66
 7433 0028 00000000 		.4byte	.LFB67
 7434 002c 1C010000 		.4byte	.LFE67-.LFB67
 7435 0030 00000000 		.4byte	.LFB68
 7436 0034 50000000 		.4byte	.LFE68-.LFB68
 7437 0038 00000000 		.4byte	.LFB69
 7438 003c 30000000 		.4byte	.LFE69-.LFB69
 7439 0040 00000000 		.4byte	.LFB70
 7440 0044 2C000000 		.4byte	.LFE70-.LFB70
 7441 0048 00000000 		.4byte	.LFB71
 7442 004c 2C000000 		.4byte	.LFE71-.LFB71
 7443 0050 00000000 		.4byte	.LFB59
 7444 0054 44000000 		.4byte	.LFE59-.LFB59
 7445 0058 00000000 		.4byte	.LFB56
 7446 005c 9C010000 		.4byte	.LFE56-.LFB56
 7447 0060 00000000 		.4byte	.LFB57
 7448 0064 24010000 		.4byte	.LFE57-.LFB57
 7449 0068 00000000 		.4byte	.LFB60
 7450 006c 58000000 		.4byte	.LFE60-.LFB60
 7451 0070 00000000 		.4byte	.LFB61
 7452 0074 40000000 		.4byte	.LFE61-.LFB61
 7453 0078 00000000 		.4byte	.LFB62
 7454 007c 44000000 		.4byte	.LFE62-.LFB62
 7455 0080 00000000 		.4byte	.LFB63
ARM GAS  C:\Users\haske\AppData\Local\Temp\ccg6iOQH.s 			page 158


 7456 0084 2C000000 		.4byte	.LFE63-.LFB63
 7457 0088 00000000 		.4byte	.LFB58
 7458 008c 9E000000 		.4byte	.LFE58-.LFB58
 7459 0090 00000000 		.4byte	.LFB55
 7460 0094 FC000000 		.4byte	.LFE55-.LFB55
 7461 0098 00000000 		.4byte	0
 7462 009c 00000000 		.4byte	0
 7463              		.section	.debug_ranges,"",%progbits
 7464              	.Ldebug_ranges0:
 7465 0000 0C000000 		.4byte	.LBB12
 7466 0004 18000000 		.4byte	.LBE12
 7467 0008 1E000000 		.4byte	.LBB17
 7468 000c 4E000000 		.4byte	.LBE17
 7469 0010 00000000 		.4byte	0
 7470 0014 00000000 		.4byte	0
 7471 0018 0C000000 		.4byte	.LBB13
 7472 001c 18000000 		.4byte	.LBE13
 7473 0020 1E000000 		.4byte	.LBB16
 7474 0024 22000000 		.4byte	.LBE16
 7475 0028 00000000 		.4byte	0
 7476 002c 00000000 		.4byte	0
 7477 0030 CC000000 		.4byte	.LBB19
 7478 0034 F4000000 		.4byte	.LBE19
 7479 0038 22010000 		.4byte	.LBB22
 7480 003c 28010000 		.4byte	.LBE22
 7481 0040 00000000 		.4byte	0
 7482 0044 00000000 		.4byte	0
 7483 0048 3A000000 		.4byte	.LBB23
 7484 004c 3E000000 		.4byte	.LBE23
 7485 0050 40000000 		.4byte	.LBB24
 7486 0054 60000000 		.4byte	.LBE24
 7487 0058 00000000 		.4byte	0
 7488 005c 00000000 		.4byte	0
 7489 0060 00000000 		.4byte	.LFB64
 7490 0064 38000000 		.4byte	.LFE64
 7491 0068 00000000 		.4byte	.LFB65
 7492 006c A4000000 		.4byte	.LFE65
 7493 0070 00000000 		.4byte	.LFB66
 7494 0074 54000000 		.4byte	.LFE66
 7495 0078 00000000 		.4byte	.LFB67
 7496 007c 1C010000 		.4byte	.LFE67
 7497 0080 00000000 		.4byte	.LFB68
 7498 0084 50000000 		.4byte	.LFE68
 7499 0088 00000000 		.4byte	.LFB69
 7500 008c 30000000 		.4byte	.LFE69
 7501 0090 00000000 		.4byte	.LFB70
 7502 0094 2C000000 		.4byte	.LFE70
 7503 0098 00000000 		.4byte	.LFB71
 7504 009c 2C000000 		.4byte	.LFE71
 7505 00a0 00000000 		.4byte	.LFB59
 7506 00a4 44000000 		.4byte	.LFE59
 7507 00a8 00000000 		.4byte	.LFB56
 7508 00ac 9C010000 		.4byte	.LFE56
 7509 00b0 00000000 		.4byte	.LFB57
 7510 00b4 24010000 		.4byte	.LFE57
 7511 00b8 00000000 		.4byte	.LFB60
 7512 00bc 58000000 		.4byte	.LFE60
ARM GAS  C:\Users\haske\AppData\Local\Temp\ccg6iOQH.s 			page 159


 7513 00c0 00000000 		.4byte	.LFB61
 7514 00c4 40000000 		.4byte	.LFE61
 7515 00c8 00000000 		.4byte	.LFB62
 7516 00cc 44000000 		.4byte	.LFE62
 7517 00d0 00000000 		.4byte	.LFB63
 7518 00d4 2C000000 		.4byte	.LFE63
 7519 00d8 00000000 		.4byte	.LFB58
 7520 00dc 9E000000 		.4byte	.LFE58
 7521 00e0 00000000 		.4byte	.LFB55
 7522 00e4 FC000000 		.4byte	.LFE55
 7523 00e8 00000000 		.4byte	0
 7524 00ec 00000000 		.4byte	0
 7525              		.section	.debug_line,"",%progbits
 7526              	.Ldebug_line0:
 7527 0000 D8060000 		.section	.debug_str,"MS",%progbits,1
 7527      02003603 
 7527      00000201 
 7527      FB0E0D00 
 7527      01010101 
 7528              	.LASF91:
 7529 0000 695F6E65 		.ascii	"i_next_next\000"
 7529      78745F6E 
 7529      65787400 
 7530              	.LASF42:
 7531 000c 75736572 		.ascii	"user_data\000"
 7531      5F646174 
 7531      6100
 7532              	.LASF92:
 7533 0016 6C657474 		.ascii	"letter_next\000"
 7533      65725F6E 
 7533      65787400 
 7534              	.LASF35:
 7535 0022 6765745F 		.ascii	"get_glyph_bitmap\000"
 7535      676C7970 
 7535      685F6269 
 7535      746D6170 
 7535      00
 7536              	.LASF48:
 7537 0033 4C565F54 		.ascii	"LV_TEXT_FLAG_RECOLOR\000"
 7537      4558545F 
 7537      464C4147 
 7537      5F524543 
 7537      4F4C4F52 
 7538              	.LASF118:
 7539 0048 63686172 		.ascii	"char_width\000"
 7539      5F776964 
 7539      746800
 7540              	.LASF23:
 7541 0053 73697A65 		.ascii	"size_t\000"
 7541      5F7400
 7542              	.LASF3:
 7543 005a 5F5F7569 		.ascii	"__uint8_t\000"
 7543      6E74385F 
 7543      7400
 7544              	.LASF1:
 7545 0064 76615F6C 		.ascii	"va_list\000"
 7545      69737400 
ARM GAS  C:\Users\haske\AppData\Local\Temp\ccg6iOQH.s 			page 160


 7546              	.LASF93:
 7547 006c 6C657474 		.ascii	"letter_w\000"
 7547      65725F77 
 7547      00
 7548              	.LASF52:
 7549 0075 4C565F54 		.ascii	"LV_TEXT_CMD_STATE_WAIT\000"
 7549      4558545F 
 7549      434D445F 
 7549      53544154 
 7549      455F5741 
 7550              	.LASF64:
 7551 008c 6C657474 		.ascii	"letter_uni\000"
 7551      65725F75 
 7551      6E6900
 7552              	.LASF67:
 7553 0097 6C765F74 		.ascii	"lv_txt_utf8_conv_wc\000"
 7553      78745F75 
 7553      7466385F 
 7553      636F6E76 
 7553      5F776300 
 7554              	.LASF14:
 7555 00ab 6C6F6E67 		.ascii	"long long unsigned int\000"
 7555      206C6F6E 
 7555      6720756E 
 7555      7369676E 
 7555      65642069 
 7556              	.LASF45:
 7557 00c2 6C765F66 		.ascii	"lv_font_t\000"
 7557      6F6E745F 
 7557      7400
 7558              	.LASF54:
 7559 00cc 4C565F54 		.ascii	"LV_TEXT_CMD_STATE_IN\000"
 7559      4558545F 
 7559      434D445F 
 7559      53544154 
 7559      455F494E 
 7560              	.LASF119:
 7561 00e1 6C765F74 		.ascii	"lv_txt_get_size\000"
 7561      78745F67 
 7561      65745F73 
 7561      697A6500 
 7562              	.LASF2:
 7563 00f1 5F5F696E 		.ascii	"__int8_t\000"
 7563      74385F74 
 7563      00
 7564              	.LASF21:
 7565 00fa 6C765F63 		.ascii	"lv_coord_t\000"
 7565      6F6F7264 
 7565      5F7400
 7566              	.LASF99:
 7567 0105 5F6C765F 		.ascii	"_lv_txt_get_next_line\000"
 7567      7478745F 
 7567      6765745F 
 7567      6E657874 
 7567      5F6C696E 
 7568              	.LASF126:
 7569 011b 6C765F66 		.ascii	"lv_font_montserrat_14\000"
ARM GAS  C:\Users\haske\AppData\Local\Temp\ccg6iOQH.s 			page 161


 7569      6F6E745F 
 7569      6D6F6E74 
 7569      73657272 
 7569      61745F31 
 7570              	.LASF13:
 7571 0131 6C6F6E67 		.ascii	"long long int\000"
 7571      206C6F6E 
 7571      6720696E 
 7571      7400
 7572              	.LASF4:
 7573 013f 7369676E 		.ascii	"signed char\000"
 7573      65642063 
 7573      68617200 
 7574              	.LASF137:
 7575 014b 6C765F76 		.ascii	"lv_vsnprintf\000"
 7575      736E7072 
 7575      696E7466 
 7575      00
 7576              	.LASF138:
 7577 0158 6C765F6D 		.ascii	"lv_mem_alloc\000"
 7577      656D5F61 
 7577      6C6C6F63 
 7577      00
 7578              	.LASF122:
 7579 0165 6C696E65 		.ascii	"line_start\000"
 7579      5F737461 
 7579      727400
 7580              	.LASF104:
 7581 0170 7478745F 		.ascii	"txt_buf\000"
 7581      62756600 
 7582              	.LASF81:
 7583 0178 73746174 		.ascii	"state\000"
 7583      6500
 7584              	.LASF10:
 7585 017e 6C6F6E67 		.ascii	"long int\000"
 7585      20696E74 
 7585      00
 7586              	.LASF96:
 7587 0187 62726561 		.ascii	"break_index\000"
 7587      6B5F696E 
 7587      64657800 
 7588              	.LASF32:
 7589 0193 5F5F7661 		.ascii	"__va_list\000"
 7589      5F6C6973 
 7589      7400
 7590              	.LASF114:
 7591 019d 5F6C765F 		.ascii	"_lv_txt_encoded_letter_next_2\000"
 7591      7478745F 
 7591      656E636F 
 7591      6465645F 
 7591      6C657474 
 7592              	.LASF90:
 7593 01bb 695F6E65 		.ascii	"i_next\000"
 7593      787400
 7594              	.LASF19:
 7595 01c2 75696E74 		.ascii	"uint16_t\000"
 7595      31365F74 
ARM GAS  C:\Users\haske\AppData\Local\Temp\ccg6iOQH.s 			page 162


 7595      00
 7596              	.LASF75:
 7597 01cb 75746638 		.ascii	"utf8_id\000"
 7597      5F696400 
 7598              	.LASF65:
 7599 01d3 62797465 		.ascii	"bytes\000"
 7599      7300
 7600              	.LASF11:
 7601 01d9 5F5F7569 		.ascii	"__uint32_t\000"
 7601      6E743332 
 7601      5F7400
 7602              	.LASF49:
 7603 01e4 4C565F54 		.ascii	"LV_TEXT_FLAG_EXPAND\000"
 7603      4558545F 
 7603      464C4147 
 7603      5F455850 
 7603      414E4400 
 7604              	.LASF53:
 7605 01f8 4C565F54 		.ascii	"LV_TEXT_CMD_STATE_PAR\000"
 7605      4558545F 
 7605      434D445F 
 7605      53544154 
 7605      455F5041 
 7606              	.LASF6:
 7607 020e 5F5F696E 		.ascii	"__int16_t\000"
 7607      7431365F 
 7607      7400
 7608              	.LASF25:
 7609 0218 7265736F 		.ascii	"resolved_font\000"
 7609      6C766564 
 7609      5F666F6E 
 7609      7400
 7610              	.LASF76:
 7611 0226 62797465 		.ascii	"byte_cnt\000"
 7611      5F636E74 
 7611      00
 7612              	.LASF88:
 7613 022f 636D645F 		.ascii	"cmd_state\000"
 7613      73746174 
 7613      6500
 7614              	.LASF128:
 7615 0239 5F6C765F 		.ascii	"_lv_txt_unicode_to_encoded\000"
 7615      7478745F 
 7615      756E6963 
 7615      6F64655F 
 7615      746F5F65 
 7616              	.LASF31:
 7617 0254 69735F70 		.ascii	"is_placeholder\000"
 7617      6C616365 
 7617      686F6C64 
 7617      657200
 7618              	.LASF51:
 7619 0263 6C765F74 		.ascii	"lv_text_flag_t\000"
 7619      6578745F 
 7619      666C6167 
 7619      5F7400
 7620              	.LASF33:
ARM GAS  C:\Users\haske\AppData\Local\Temp\ccg6iOQH.s 			page 163


 7621 0272 5F6C765F 		.ascii	"_lv_font_t\000"
 7621      666F6E74 
 7621      5F7400
 7622              	.LASF15:
 7623 027d 756E7369 		.ascii	"unsigned int\000"
 7623      676E6564 
 7623      20696E74 
 7623      00
 7624              	.LASF124:
 7625 028a 6C657474 		.ascii	"letter_height\000"
 7625      65725F68 
 7625      65696768 
 7625      7400
 7626              	.LASF34:
 7627 0298 6765745F 		.ascii	"get_glyph_dsc\000"
 7627      676C7970 
 7627      685F6473 
 7627      6300
 7628              	.LASF136:
 7629 02a6 7374726C 		.ascii	"strlen\000"
 7629      656E00
 7630              	.LASF12:
 7631 02ad 6C6F6E67 		.ascii	"long unsigned int\000"
 7631      20756E73 
 7631      69676E65 
 7631      6420696E 
 7631      7400
 7632              	.LASF62:
 7633 02bf 6C765F74 		.ascii	"lv_txt_utf8_size\000"
 7633      78745F75 
 7633      7466385F 
 7633      73697A65 
 7633      00
 7634              	.LASF117:
 7635 02d0 77696474 		.ascii	"width\000"
 7635      6800
 7636              	.LASF9:
 7637 02d6 73686F72 		.ascii	"short unsigned int\000"
 7637      7420756E 
 7637      7369676E 
 7637      65642069 
 7637      6E7400
 7638              	.LASF36:
 7639 02e9 6C696E65 		.ascii	"line_height\000"
 7639      5F686569 
 7639      67687400 
 7640              	.LASF120:
 7641 02f5 73697A65 		.ascii	"size_res\000"
 7641      5F726573 
 7641      00
 7642              	.LASF95:
 7643 02fe 776F7264 		.ascii	"word_len\000"
 7643      5F6C656E 
 7643      00
 7644              	.LASF38:
 7645 0307 73756270 		.ascii	"subpx\000"
 7645      7800
ARM GAS  C:\Users\haske\AppData\Local\Temp\ccg6iOQH.s 			page 164


 7646              	.LASF133:
 7647 030d 5F6C765F 		.ascii	"_lv_txt_encoded_get_char_id\000"
 7647      7478745F 
 7647      656E636F 
 7647      6465645F 
 7647      6765745F 
 7648              	.LASF50:
 7649 0329 4C565F54 		.ascii	"LV_TEXT_FLAG_FIT\000"
 7649      4558545F 
 7649      464C4147 
 7649      5F464954 
 7649      00
 7650              	.LASF43:
 7651 033a 6C765F66 		.ascii	"lv_font_glyph_dsc_t\000"
 7651      6F6E745F 
 7651      676C7970 
 7651      685F6473 
 7651      635F7400 
 7652              	.LASF107:
 7653 034e 696E735F 		.ascii	"ins_len\000"
 7653      6C656E00 
 7654              	.LASF140:
 7655 0356 2E2E5C2E 		.ascii	"..\\..\\..\\arduinoLCD\\test\\Pain Drain\\libraries"
 7655      2E5C2E2E 
 7655      5C617264 
 7655      75696E6F 
 7655      4C43445C 
 7656 0383 5C6C7667 		.ascii	"\\lvgl\\src\\misc\\lv_txt.c\000"
 7656      6C5C7372 
 7656      635C6D69 
 7656      73635C6C 
 7656      765F7478 
 7657              	.LASF56:
 7658 039b 73697A65 		.ascii	"sizetype\000"
 7658      74797065 
 7658      00
 7659              	.LASF112:
 7660 03a4 61705F63 		.ascii	"ap_copy\000"
 7660      6F707900 
 7661              	.LASF0:
 7662 03ac 5F5F676E 		.ascii	"__gnuc_va_list\000"
 7662      75635F76 
 7662      615F6C69 
 7662      737400
 7663              	.LASF77:
 7664 03bb 6C765F74 		.ascii	"lv_txt_utf8_get_char_id\000"
 7664      78745F75 
 7664      7466385F 
 7664      6765745F 
 7664      63686172 
 7665              	.LASF105:
 7666 03d3 696E735F 		.ascii	"ins_txt\000"
 7666      74787400 
 7667              	.LASF84:
 7668 03db 6C657474 		.ascii	"letter_space\000"
 7668      65725F73 
 7668      70616365 
ARM GAS  C:\Users\haske\AppData\Local\Temp\ccg6iOQH.s 			page 165


 7668      00
 7669              	.LASF87:
 7670 03e8 776F7264 		.ascii	"word_w_ptr\000"
 7670      5F775F70 
 7670      747200
 7671              	.LASF71:
 7672 03f3 695F746D 		.ascii	"i_tmp\000"
 7672      7000
 7673              	.LASF121:
 7674 03f9 6C696E65 		.ascii	"line_space\000"
 7674      5F737061 
 7674      636500
 7675              	.LASF58:
 7676 0404 5F6C765F 		.ascii	"_lv_txt_is_break_char\000"
 7676      7478745F 
 7676      69735F62 
 7676      7265616B 
 7676      5F636861 
 7677              	.LASF61:
 7678 041a 666F6E74 		.ascii	"font_p\000"
 7678      5F7000
 7679              	.LASF85:
 7680 0421 6D61785F 		.ascii	"max_width\000"
 7680      77696474 
 7680      6800
 7681              	.LASF37:
 7682 042b 62617365 		.ascii	"base_line\000"
 7682      5F6C696E 
 7682      6500
 7683              	.LASF82:
 7684 0435 6C765F74 		.ascii	"lv_txt_get_next_word\000"
 7684      78745F67 
 7684      65745F6E 
 7684      6578745F 
 7684      776F7264 
 7685              	.LASF132:
 7686 044a 5F6C765F 		.ascii	"_lv_txt_encoded_get_byte_id\000"
 7686      7478745F 
 7686      656E636F 
 7686      6465645F 
 7686      6765745F 
 7687              	.LASF44:
 7688 0466 5F426F6F 		.ascii	"_Bool\000"
 7688      6C00
 7689              	.LASF5:
 7690 046c 756E7369 		.ascii	"unsigned char\000"
 7690      676E6564 
 7690      20636861 
 7690      7200
 7691              	.LASF72:
 7692 047a 6C765F74 		.ascii	"lv_txt_utf8_prev\000"
 7692      78745F75 
 7692      7466385F 
 7692      70726576 
 7692      00
 7693              	.LASF102:
 7694 048b 776F7264 		.ascii	"word_w\000"
ARM GAS  C:\Users\haske\AppData\Local\Temp\ccg6iOQH.s 			page 166


 7694      5F7700
 7695              	.LASF127:
 7696 0492 5F6C765F 		.ascii	"_lv_txt_encoded_size\000"
 7696      7478745F 
 7696      656E636F 
 7696      6465645F 
 7696      73697A65 
 7697              	.LASF7:
 7698 04a7 73686F72 		.ascii	"short int\000"
 7698      7420696E 
 7698      7400
 7699              	.LASF86:
 7700 04b1 666C6167 		.ascii	"flag\000"
 7700      00
 7701              	.LASF98:
 7702 04b6 5F6C765F 		.ascii	"_lv_txt_is_cmd\000"
 7702      7478745F 
 7702      69735F63 
 7702      6D6400
 7703              	.LASF68:
 7704 04c5 73776170 		.ascii	"swapped\000"
 7704      70656400 
 7705              	.LASF66:
 7706 04cd 7265735F 		.ascii	"res_p\000"
 7706      7000
 7707              	.LASF60:
 7708 04d3 6C765F66 		.ascii	"lv_font_get_line_height\000"
 7708      6F6E745F 
 7708      6765745F 
 7708      6C696E65 
 7708      5F686569 
 7709              	.LASF40:
 7710 04eb 756E6465 		.ascii	"underline_thickness\000"
 7710      726C696E 
 7710      655F7468 
 7710      69636B6E 
 7710      65737300 
 7711              	.LASF97:
 7712 04ff 62726561 		.ascii	"break_letter_count\000"
 7712      6B5F6C65 
 7712      74746572 
 7712      5F636F75 
 7712      6E7400
 7713              	.LASF100:
 7714 0512 75736564 		.ascii	"used_width\000"
 7714      5F776964 
 7714      746800
 7715              	.LASF69:
 7716 051d 6C765F74 		.ascii	"lv_txt_utf8_next\000"
 7716      78745F75 
 7716      7466385F 
 7716      6E657874 
 7716      00
 7717              	.LASF115:
 7718 052e 6C765F74 		.ascii	"lv_txt_get_width\000"
 7718      78745F67 
 7718      65745F77 
ARM GAS  C:\Users\haske\AppData\Local\Temp\ccg6iOQH.s 			page 167


 7718      69647468 
 7718      00
 7719              	.LASF134:
 7720 053f 5F6C765F 		.ascii	"_lv_txt_get_encoded_length\000"
 7720      7478745F 
 7720      6765745F 
 7720      656E636F 
 7720      6465645F 
 7721              	.LASF20:
 7722 055a 75696E74 		.ascii	"uint32_t\000"
 7722      33325F74 
 7722      00
 7723              	.LASF131:
 7724 0563 5F6C765F 		.ascii	"_lv_txt_encoded_prev\000"
 7724      7478745F 
 7724      656E636F 
 7724      6465645F 
 7724      70726576 
 7725              	.LASF57:
 7726 0578 6C765F6D 		.ascii	"lv_memcpy_small\000"
 7726      656D6370 
 7726      795F736D 
 7726      616C6C00 
 7727              	.LASF139:
 7728 0588 474E5520 		.ascii	"GNU C11 5.4.1 20160609 (release) [ARM/embedded-5-br"
 7728      43313120 
 7728      352E342E 
 7728      31203230 
 7728      31363036 
 7729 05bb 616E6368 		.ascii	"anch revision 237715] -mcpu=cortex-m0plus -mthumb -"
 7729      20726576 
 7729      6973696F 
 7729      6E203233 
 7729      37373135 
 7730 05ee 67202D4F 		.ascii	"g -Og -ffunction-sections -ffat-lto-objects\000"
 7730      67202D66 
 7730      66756E63 
 7730      74696F6E 
 7730      2D736563 
 7731              	.LASF24:
 7732 061a 6C6F6E67 		.ascii	"long double\000"
 7732      20646F75 
 7732      626C6500 
 7733              	.LASF123:
 7734 0626 6E65775F 		.ascii	"new_line_start\000"
 7734      6C696E65 
 7734      5F737461 
 7734      727400
 7735              	.LASF46:
 7736 0635 63686172 		.ascii	"char\000"
 7736      00
 7737              	.LASF113:
 7738 063a 74657874 		.ascii	"text\000"
 7738      00
 7739              	.LASF8:
 7740 063f 5F5F7569 		.ascii	"__uint16_t\000"
 7740      6E743136 
ARM GAS  C:\Users\haske\AppData\Local\Temp\ccg6iOQH.s 			page 168


 7740      5F7400
 7741              	.LASF59:
 7742 064a 6C657474 		.ascii	"letter\000"
 7742      657200
 7743              	.LASF63:
 7744 0651 6C765F74 		.ascii	"lv_txt_unicode_to_utf8\000"
 7744      78745F75 
 7744      6E69636F 
 7744      64655F74 
 7744      6F5F7574 
 7745              	.LASF130:
 7746 0668 5F6C765F 		.ascii	"_lv_txt_encoded_next\000"
 7746      7478745F 
 7746      656E636F 
 7746      6465645F 
 7746      6E657874 
 7747              	.LASF26:
 7748 067d 6164765F 		.ascii	"adv_w\000"
 7748      7700
 7749              	.LASF41:
 7750 0683 66616C6C 		.ascii	"fallback\000"
 7750      6261636B 
 7750      00
 7751              	.LASF142:
 7752 068c 5F5F6170 		.ascii	"__ap\000"
 7752      00
 7753              	.LASF135:
 7754 0691 6C765F66 		.ascii	"lv_font_get_glyph_width\000"
 7754      6F6E745F 
 7754      6765745F 
 7754      676C7970 
 7754      685F7769 
 7755              	.LASF28:
 7756 06a9 626F785F 		.ascii	"box_h\000"
 7756      6800
 7757              	.LASF116:
 7758 06af 6C656E67 		.ascii	"length\000"
 7758      746800
 7759              	.LASF16:
 7760 06b6 696E7438 		.ascii	"int8_t\000"
 7760      5F7400
 7761              	.LASF39:
 7762 06bd 756E6465 		.ascii	"underline_position\000"
 7762      726C696E 
 7762      655F706F 
 7762      73697469 
 7762      6F6E00
 7763              	.LASF73:
 7764 06d0 635F7369 		.ascii	"c_size\000"
 7764      7A6500
 7765              	.LASF108:
 7766 06d7 6E65775F 		.ascii	"new_len\000"
 7766      6C656E00 
 7767              	.LASF27:
 7768 06df 626F785F 		.ascii	"box_w\000"
 7768      7700
 7769              	.LASF80:
ARM GAS  C:\Users\haske\AppData\Local\Temp\ccg6iOQH.s 			page 169


 7770 06e5 6C765F74 		.ascii	"lv_txt_utf8_get_length\000"
 7770      78745F75 
 7770      7466385F 
 7770      6765745F 
 7770      6C656E67 
 7771              	.LASF83:
 7772 06fc 666F6E74 		.ascii	"font\000"
 7772      00
 7773              	.LASF106:
 7774 0701 6F6C645F 		.ascii	"old_len\000"
 7774      6C656E00 
 7775              	.LASF101:
 7776 0709 6C696E65 		.ascii	"line_w\000"
 7776      5F7700
 7777              	.LASF17:
 7778 0710 75696E74 		.ascii	"uint8_t\000"
 7778      385F7400 
 7779              	.LASF22:
 7780 0718 6C765F70 		.ascii	"lv_point_t\000"
 7780      6F696E74 
 7780      5F7400
 7781              	.LASF47:
 7782 0723 4C565F54 		.ascii	"LV_TEXT_FLAG_NONE\000"
 7782      4558545F 
 7782      464C4147 
 7782      5F4E4F4E 
 7782      4500
 7783              	.LASF109:
 7784 0735 5F6C765F 		.ascii	"_lv_txt_ins\000"
 7784      7478745F 
 7784      696E7300 
 7785              	.LASF94:
 7786 0741 6375725F 		.ascii	"cur_w\000"
 7786      7700
 7787              	.LASF111:
 7788 0747 5F6C765F 		.ascii	"_lv_txt_set_text_vfmt\000"
 7788      7478745F 
 7788      7365745F 
 7788      74657874 
 7788      5F76666D 
 7789              	.LASF110:
 7790 075d 5F6C765F 		.ascii	"_lv_txt_cut\000"
 7790      7478745F 
 7790      63757400 
 7791              	.LASF129:
 7792 0769 5F6C765F 		.ascii	"_lv_txt_encoded_conv_wc\000"
 7792      7478745F 
 7792      656E636F 
 7792      6465645F 
 7792      636F6E76 
 7793              	.LASF29:
 7794 0781 6F66735F 		.ascii	"ofs_x\000"
 7794      7800
 7795              	.LASF30:
 7796 0787 6F66735F 		.ascii	"ofs_y\000"
 7796      7900
 7797              	.LASF78:
ARM GAS  C:\Users\haske\AppData\Local\Temp\ccg6iOQH.s 			page 170


 7798 078d 62797465 		.ascii	"byte_id\000"
 7798      5F696400 
 7799              	.LASF141:
 7800 0795 433A5C50 		.ascii	"C:\\Projects\\PainDrain\\firmware\\PainDrain\\PainD"
 7800      726F6A65 
 7800      6374735C 
 7800      5061696E 
 7800      44726169 
 7801 07c3 7261696E 		.ascii	"rain.cydsn\000"
 7801      2E637964 
 7801      736E00
 7802              	.LASF103:
 7803 07ce 61647661 		.ascii	"advance\000"
 7803      6E636500 
 7804              	.LASF89:
 7805 07d6 666F7263 		.ascii	"force\000"
 7805      6500
 7806              	.LASF18:
 7807 07dc 696E7431 		.ascii	"int16_t\000"
 7807      365F7400 
 7808              	.LASF74:
 7809 07e4 6C765F74 		.ascii	"lv_txt_utf8_get_byte_id\000"
 7809      78745F75 
 7809      7466385F 
 7809      6765745F 
 7809      62797465 
 7810              	.LASF70:
 7811 07fc 72657375 		.ascii	"result\000"
 7811      6C7400
 7812              	.LASF79:
 7813 0803 63686172 		.ascii	"char_cnt\000"
 7813      5F636E74 
 7813      00
 7814              	.LASF55:
 7815 080c 6C765F74 		.ascii	"lv_text_cmd_state_t\000"
 7815      6578745F 
 7815      636D645F 
 7815      73746174 
 7815      655F7400 
 7816              	.LASF125:
 7817 0820 6163745F 		.ascii	"act_line_length\000"
 7817      6C696E65 
 7817      5F6C656E 
 7817      67746800 
 7818              		.ident	"GCC: (GNU Tools for ARM Embedded Processors) 5.4.1 20160609 (release) [ARM/embedded-5-bran
