ARM GAS  C:\Users\haske\AppData\Local\Temp\ccayzPD0.s 			page 1


   1              		.syntax unified
   2              		.cpu cortex-m0plus
   3              		.fpu softvfp
   4              		.eabi_attribute 20, 1
   5              		.eabi_attribute 21, 1
   6              		.eabi_attribute 23, 3
   7              		.eabi_attribute 24, 1
   8              		.eabi_attribute 25, 1
   9              		.eabi_attribute 26, 1
  10              		.eabi_attribute 30, 1
  11              		.eabi_attribute 34, 0
  12              		.eabi_attribute 18, 4
  13              		.thumb
  14              		.syntax unified
  15              		.file	"lv_win.c"
  16              		.text
  17              	.Ltext0:
  18              		.cfi_sections	.debug_frame
  19              		.section	.text.lv_win_constructor,"ax",%progbits
  20              		.align	2
  21              		.code	16
  22              		.thumb_func
  23              		.type	lv_win_constructor, %function
  24              	lv_win_constructor:
  25              	.LFB207:
  26              		.file 1 "..\\..\\..\\arduinoLCD\\test\\Pain Drain\\libraries\\lvgl\\src\\extra\\widgets\\win\\lv_w
   1:..\..\..\arduinoLCD\test\Pain Drain\libraries\lvgl\src\extra\widgets\win/lv_win.c **** /**
   2:..\..\..\arduinoLCD\test\Pain Drain\libraries\lvgl\src\extra\widgets\win/lv_win.c ****  * @file lv_win.c
   3:..\..\..\arduinoLCD\test\Pain Drain\libraries\lvgl\src\extra\widgets\win/lv_win.c ****  *
   4:..\..\..\arduinoLCD\test\Pain Drain\libraries\lvgl\src\extra\widgets\win/lv_win.c ****  */
   5:..\..\..\arduinoLCD\test\Pain Drain\libraries\lvgl\src\extra\widgets\win/lv_win.c **** 
   6:..\..\..\arduinoLCD\test\Pain Drain\libraries\lvgl\src\extra\widgets\win/lv_win.c **** /*********************
   7:..\..\..\arduinoLCD\test\Pain Drain\libraries\lvgl\src\extra\widgets\win/lv_win.c ****  *      INCLUDES
   8:..\..\..\arduinoLCD\test\Pain Drain\libraries\lvgl\src\extra\widgets\win/lv_win.c ****  *********************/
   9:..\..\..\arduinoLCD\test\Pain Drain\libraries\lvgl\src\extra\widgets\win/lv_win.c **** #include "lv_win.h"
  10:..\..\..\arduinoLCD\test\Pain Drain\libraries\lvgl\src\extra\widgets\win/lv_win.c **** #if LV_USE_WIN
  11:..\..\..\arduinoLCD\test\Pain Drain\libraries\lvgl\src\extra\widgets\win/lv_win.c **** 
  12:..\..\..\arduinoLCD\test\Pain Drain\libraries\lvgl\src\extra\widgets\win/lv_win.c **** 
  13:..\..\..\arduinoLCD\test\Pain Drain\libraries\lvgl\src\extra\widgets\win/lv_win.c **** /*********************
  14:..\..\..\arduinoLCD\test\Pain Drain\libraries\lvgl\src\extra\widgets\win/lv_win.c ****  *      DEFINES
  15:..\..\..\arduinoLCD\test\Pain Drain\libraries\lvgl\src\extra\widgets\win/lv_win.c ****  *********************/
  16:..\..\..\arduinoLCD\test\Pain Drain\libraries\lvgl\src\extra\widgets\win/lv_win.c **** 
  17:..\..\..\arduinoLCD\test\Pain Drain\libraries\lvgl\src\extra\widgets\win/lv_win.c **** /**********************
  18:..\..\..\arduinoLCD\test\Pain Drain\libraries\lvgl\src\extra\widgets\win/lv_win.c ****  *      TYPEDEFS
  19:..\..\..\arduinoLCD\test\Pain Drain\libraries\lvgl\src\extra\widgets\win/lv_win.c ****  **********************/
  20:..\..\..\arduinoLCD\test\Pain Drain\libraries\lvgl\src\extra\widgets\win/lv_win.c **** 
  21:..\..\..\arduinoLCD\test\Pain Drain\libraries\lvgl\src\extra\widgets\win/lv_win.c **** /**********************
  22:..\..\..\arduinoLCD\test\Pain Drain\libraries\lvgl\src\extra\widgets\win/lv_win.c ****  *  STATIC PROTOTYPES
  23:..\..\..\arduinoLCD\test\Pain Drain\libraries\lvgl\src\extra\widgets\win/lv_win.c ****  **********************/
  24:..\..\..\arduinoLCD\test\Pain Drain\libraries\lvgl\src\extra\widgets\win/lv_win.c **** static void lv_win_constructor(const lv_obj_class_t * class_p, lv_obj_t * obj);
  25:..\..\..\arduinoLCD\test\Pain Drain\libraries\lvgl\src\extra\widgets\win/lv_win.c **** 
  26:..\..\..\arduinoLCD\test\Pain Drain\libraries\lvgl\src\extra\widgets\win/lv_win.c **** /**********************
  27:..\..\..\arduinoLCD\test\Pain Drain\libraries\lvgl\src\extra\widgets\win/lv_win.c ****  *  STATIC VARIABLES
  28:..\..\..\arduinoLCD\test\Pain Drain\libraries\lvgl\src\extra\widgets\win/lv_win.c ****  **********************/
  29:..\..\..\arduinoLCD\test\Pain Drain\libraries\lvgl\src\extra\widgets\win/lv_win.c **** const lv_obj_class_t lv_win_class = {
  30:..\..\..\arduinoLCD\test\Pain Drain\libraries\lvgl\src\extra\widgets\win/lv_win.c ****     .constructor_cb = lv_win_constructor,
  31:..\..\..\arduinoLCD\test\Pain Drain\libraries\lvgl\src\extra\widgets\win/lv_win.c ****     .width_def = LV_PCT(100),
ARM GAS  C:\Users\haske\AppData\Local\Temp\ccayzPD0.s 			page 2


  32:..\..\..\arduinoLCD\test\Pain Drain\libraries\lvgl\src\extra\widgets\win/lv_win.c ****     .height_def = LV_PCT(100),
  33:..\..\..\arduinoLCD\test\Pain Drain\libraries\lvgl\src\extra\widgets\win/lv_win.c ****     .base_class = &lv_obj_class,
  34:..\..\..\arduinoLCD\test\Pain Drain\libraries\lvgl\src\extra\widgets\win/lv_win.c ****     .instance_size = sizeof(lv_win_t)
  35:..\..\..\arduinoLCD\test\Pain Drain\libraries\lvgl\src\extra\widgets\win/lv_win.c **** };
  36:..\..\..\arduinoLCD\test\Pain Drain\libraries\lvgl\src\extra\widgets\win/lv_win.c **** static lv_coord_t create_header_height;
  37:..\..\..\arduinoLCD\test\Pain Drain\libraries\lvgl\src\extra\widgets\win/lv_win.c **** /**********************
  38:..\..\..\arduinoLCD\test\Pain Drain\libraries\lvgl\src\extra\widgets\win/lv_win.c ****  *      MACROS
  39:..\..\..\arduinoLCD\test\Pain Drain\libraries\lvgl\src\extra\widgets\win/lv_win.c ****  **********************/
  40:..\..\..\arduinoLCD\test\Pain Drain\libraries\lvgl\src\extra\widgets\win/lv_win.c **** 
  41:..\..\..\arduinoLCD\test\Pain Drain\libraries\lvgl\src\extra\widgets\win/lv_win.c **** /**********************
  42:..\..\..\arduinoLCD\test\Pain Drain\libraries\lvgl\src\extra\widgets\win/lv_win.c ****  *   GLOBAL FUNCTIONS
  43:..\..\..\arduinoLCD\test\Pain Drain\libraries\lvgl\src\extra\widgets\win/lv_win.c ****  **********************/
  44:..\..\..\arduinoLCD\test\Pain Drain\libraries\lvgl\src\extra\widgets\win/lv_win.c **** 
  45:..\..\..\arduinoLCD\test\Pain Drain\libraries\lvgl\src\extra\widgets\win/lv_win.c **** lv_obj_t * lv_win_create(lv_obj_t * parent, lv_coord_t header_height)
  46:..\..\..\arduinoLCD\test\Pain Drain\libraries\lvgl\src\extra\widgets\win/lv_win.c **** {
  47:..\..\..\arduinoLCD\test\Pain Drain\libraries\lvgl\src\extra\widgets\win/lv_win.c ****     LV_LOG_INFO("begin");
  48:..\..\..\arduinoLCD\test\Pain Drain\libraries\lvgl\src\extra\widgets\win/lv_win.c ****     create_header_height = header_height;
  49:..\..\..\arduinoLCD\test\Pain Drain\libraries\lvgl\src\extra\widgets\win/lv_win.c **** 
  50:..\..\..\arduinoLCD\test\Pain Drain\libraries\lvgl\src\extra\widgets\win/lv_win.c ****     lv_obj_t * obj = lv_obj_class_create_obj(&lv_win_class, parent);
  51:..\..\..\arduinoLCD\test\Pain Drain\libraries\lvgl\src\extra\widgets\win/lv_win.c ****     lv_obj_class_init_obj(obj);
  52:..\..\..\arduinoLCD\test\Pain Drain\libraries\lvgl\src\extra\widgets\win/lv_win.c ****     return obj;
  53:..\..\..\arduinoLCD\test\Pain Drain\libraries\lvgl\src\extra\widgets\win/lv_win.c **** }
  54:..\..\..\arduinoLCD\test\Pain Drain\libraries\lvgl\src\extra\widgets\win/lv_win.c **** 
  55:..\..\..\arduinoLCD\test\Pain Drain\libraries\lvgl\src\extra\widgets\win/lv_win.c **** lv_obj_t * lv_win_add_title(lv_obj_t * win, const char * txt)
  56:..\..\..\arduinoLCD\test\Pain Drain\libraries\lvgl\src\extra\widgets\win/lv_win.c **** {
  57:..\..\..\arduinoLCD\test\Pain Drain\libraries\lvgl\src\extra\widgets\win/lv_win.c ****     lv_obj_t * header = lv_win_get_header(win);
  58:..\..\..\arduinoLCD\test\Pain Drain\libraries\lvgl\src\extra\widgets\win/lv_win.c ****     lv_obj_t * title = lv_label_create(header);
  59:..\..\..\arduinoLCD\test\Pain Drain\libraries\lvgl\src\extra\widgets\win/lv_win.c ****     lv_label_set_long_mode(title, LV_LABEL_LONG_DOT);
  60:..\..\..\arduinoLCD\test\Pain Drain\libraries\lvgl\src\extra\widgets\win/lv_win.c ****     lv_label_set_text(title, txt);
  61:..\..\..\arduinoLCD\test\Pain Drain\libraries\lvgl\src\extra\widgets\win/lv_win.c ****     lv_obj_set_flex_grow(title, 1);
  62:..\..\..\arduinoLCD\test\Pain Drain\libraries\lvgl\src\extra\widgets\win/lv_win.c ****     return title;
  63:..\..\..\arduinoLCD\test\Pain Drain\libraries\lvgl\src\extra\widgets\win/lv_win.c **** }
  64:..\..\..\arduinoLCD\test\Pain Drain\libraries\lvgl\src\extra\widgets\win/lv_win.c **** 
  65:..\..\..\arduinoLCD\test\Pain Drain\libraries\lvgl\src\extra\widgets\win/lv_win.c **** lv_obj_t * lv_win_add_btn(lv_obj_t * win, const void * icon, lv_coord_t btn_w)
  66:..\..\..\arduinoLCD\test\Pain Drain\libraries\lvgl\src\extra\widgets\win/lv_win.c **** {
  67:..\..\..\arduinoLCD\test\Pain Drain\libraries\lvgl\src\extra\widgets\win/lv_win.c ****     lv_obj_t * header = lv_win_get_header(win);
  68:..\..\..\arduinoLCD\test\Pain Drain\libraries\lvgl\src\extra\widgets\win/lv_win.c ****     lv_obj_t * btn = lv_btn_create(header);
  69:..\..\..\arduinoLCD\test\Pain Drain\libraries\lvgl\src\extra\widgets\win/lv_win.c ****     lv_obj_set_size(btn, btn_w, LV_PCT(100));
  70:..\..\..\arduinoLCD\test\Pain Drain\libraries\lvgl\src\extra\widgets\win/lv_win.c **** 
  71:..\..\..\arduinoLCD\test\Pain Drain\libraries\lvgl\src\extra\widgets\win/lv_win.c ****     lv_obj_t * img = lv_img_create(btn);
  72:..\..\..\arduinoLCD\test\Pain Drain\libraries\lvgl\src\extra\widgets\win/lv_win.c ****     lv_img_set_src(img, icon);
  73:..\..\..\arduinoLCD\test\Pain Drain\libraries\lvgl\src\extra\widgets\win/lv_win.c ****     lv_obj_align(img, LV_ALIGN_CENTER, 0, 0);
  74:..\..\..\arduinoLCD\test\Pain Drain\libraries\lvgl\src\extra\widgets\win/lv_win.c **** 
  75:..\..\..\arduinoLCD\test\Pain Drain\libraries\lvgl\src\extra\widgets\win/lv_win.c ****     return btn;
  76:..\..\..\arduinoLCD\test\Pain Drain\libraries\lvgl\src\extra\widgets\win/lv_win.c **** }
  77:..\..\..\arduinoLCD\test\Pain Drain\libraries\lvgl\src\extra\widgets\win/lv_win.c **** 
  78:..\..\..\arduinoLCD\test\Pain Drain\libraries\lvgl\src\extra\widgets\win/lv_win.c **** lv_obj_t * lv_win_get_header(lv_obj_t * win)
  79:..\..\..\arduinoLCD\test\Pain Drain\libraries\lvgl\src\extra\widgets\win/lv_win.c **** {
  80:..\..\..\arduinoLCD\test\Pain Drain\libraries\lvgl\src\extra\widgets\win/lv_win.c ****     return lv_obj_get_child(win, 0);
  81:..\..\..\arduinoLCD\test\Pain Drain\libraries\lvgl\src\extra\widgets\win/lv_win.c **** }
  82:..\..\..\arduinoLCD\test\Pain Drain\libraries\lvgl\src\extra\widgets\win/lv_win.c **** 
  83:..\..\..\arduinoLCD\test\Pain Drain\libraries\lvgl\src\extra\widgets\win/lv_win.c **** lv_obj_t * lv_win_get_content(lv_obj_t * win)
  84:..\..\..\arduinoLCD\test\Pain Drain\libraries\lvgl\src\extra\widgets\win/lv_win.c **** {
  85:..\..\..\arduinoLCD\test\Pain Drain\libraries\lvgl\src\extra\widgets\win/lv_win.c ****     return lv_obj_get_child(win, 1);
  86:..\..\..\arduinoLCD\test\Pain Drain\libraries\lvgl\src\extra\widgets\win/lv_win.c **** }
  87:..\..\..\arduinoLCD\test\Pain Drain\libraries\lvgl\src\extra\widgets\win/lv_win.c **** 
  88:..\..\..\arduinoLCD\test\Pain Drain\libraries\lvgl\src\extra\widgets\win/lv_win.c **** /**********************
ARM GAS  C:\Users\haske\AppData\Local\Temp\ccayzPD0.s 			page 3


  89:..\..\..\arduinoLCD\test\Pain Drain\libraries\lvgl\src\extra\widgets\win/lv_win.c ****  *   STATIC FUNCTIONS
  90:..\..\..\arduinoLCD\test\Pain Drain\libraries\lvgl\src\extra\widgets\win/lv_win.c ****  **********************/
  91:..\..\..\arduinoLCD\test\Pain Drain\libraries\lvgl\src\extra\widgets\win/lv_win.c **** 
  92:..\..\..\arduinoLCD\test\Pain Drain\libraries\lvgl\src\extra\widgets\win/lv_win.c **** static void lv_win_constructor(const lv_obj_class_t * class_p, lv_obj_t * obj)
  93:..\..\..\arduinoLCD\test\Pain Drain\libraries\lvgl\src\extra\widgets\win/lv_win.c **** {
  27              		.loc 1 93 0
  28              		.cfi_startproc
  29              		@ args = 0, pretend = 0, frame = 0
  30              		@ frame_needed = 0, uses_anonymous_args = 0
  31              	.LVL0:
  32 0000 70B5     		push	{r4, r5, r6, lr}
  33              		.cfi_def_cfa_offset 16
  34              		.cfi_offset 4, -16
  35              		.cfi_offset 5, -12
  36              		.cfi_offset 6, -8
  37              		.cfi_offset 14, -4
  38 0002 0C00     		movs	r4, r1
  94:..\..\..\arduinoLCD\test\Pain Drain\libraries\lvgl\src\extra\widgets\win/lv_win.c ****     LV_UNUSED(class_p);
  95:..\..\..\arduinoLCD\test\Pain Drain\libraries\lvgl\src\extra\widgets\win/lv_win.c ****     lv_obj_t * parent = lv_obj_get_parent(obj);
  39              		.loc 1 95 0
  40 0004 0800     		movs	r0, r1
  41              	.LVL1:
  42 0006 FFF7FEFF 		bl	lv_obj_get_parent
  43              	.LVL2:
  44 000a 0500     		movs	r5, r0
  45              	.LVL3:
  96:..\..\..\arduinoLCD\test\Pain Drain\libraries\lvgl\src\extra\widgets\win/lv_win.c ****     lv_obj_set_size(obj, lv_obj_get_width(parent), lv_obj_get_height(parent));
  46              		.loc 1 96 0
  47 000c FFF7FEFF 		bl	lv_obj_get_width
  48              	.LVL4:
  49 0010 0600     		movs	r6, r0
  50 0012 2800     		movs	r0, r5
  51 0014 FFF7FEFF 		bl	lv_obj_get_height
  52              	.LVL5:
  53 0018 0200     		movs	r2, r0
  54 001a 3100     		movs	r1, r6
  55 001c 2000     		movs	r0, r4
  56 001e FFF7FEFF 		bl	lv_obj_set_size
  57              	.LVL6:
  97:..\..\..\arduinoLCD\test\Pain Drain\libraries\lvgl\src\extra\widgets\win/lv_win.c ****     lv_obj_set_flex_flow(obj, LV_FLEX_FLOW_COLUMN);
  58              		.loc 1 97 0
  59 0022 0121     		movs	r1, #1
  60 0024 2000     		movs	r0, r4
  61 0026 FFF7FEFF 		bl	lv_obj_set_flex_flow
  62              	.LVL7:
  98:..\..\..\arduinoLCD\test\Pain Drain\libraries\lvgl\src\extra\widgets\win/lv_win.c **** 
  99:..\..\..\arduinoLCD\test\Pain Drain\libraries\lvgl\src\extra\widgets\win/lv_win.c ****     lv_obj_t * header = lv_obj_create(obj);
  63              		.loc 1 99 0
  64 002a 2000     		movs	r0, r4
  65 002c FFF7FEFF 		bl	lv_obj_create
  66              	.LVL8:
  67 0030 0500     		movs	r5, r0
  68              	.LVL9:
 100:..\..\..\arduinoLCD\test\Pain Drain\libraries\lvgl\src\extra\widgets\win/lv_win.c ****     lv_obj_set_size(header, LV_PCT(100), create_header_height);
  69              		.loc 1 100 0
  70 0032 0E4B     		ldr	r3, .L2
  71 0034 0022     		movs	r2, #0
ARM GAS  C:\Users\haske\AppData\Local\Temp\ccayzPD0.s 			page 4


  72 0036 9A5E     		ldrsh	r2, [r3, r2]
  73 0038 0D4E     		ldr	r6, .L2+4
  74 003a 3100     		movs	r1, r6
  75 003c FFF7FEFF 		bl	lv_obj_set_size
  76              	.LVL10:
 101:..\..\..\arduinoLCD\test\Pain Drain\libraries\lvgl\src\extra\widgets\win/lv_win.c ****     lv_obj_set_flex_flow(header, LV_FLEX_FLOW_ROW);
  77              		.loc 1 101 0
  78 0040 0021     		movs	r1, #0
  79 0042 2800     		movs	r0, r5
  80 0044 FFF7FEFF 		bl	lv_obj_set_flex_flow
  81              	.LVL11:
 102:..\..\..\arduinoLCD\test\Pain Drain\libraries\lvgl\src\extra\widgets\win/lv_win.c ****     lv_obj_set_flex_align(header, LV_FLEX_ALIGN_START, LV_FLEX_ALIGN_CENTER, LV_FLEX_ALIGN_CENTER);
  82              		.loc 1 102 0
  83 0048 0223     		movs	r3, #2
  84 004a 0222     		movs	r2, #2
  85 004c 0021     		movs	r1, #0
  86 004e 2800     		movs	r0, r5
  87 0050 FFF7FEFF 		bl	lv_obj_set_flex_align
  88              	.LVL12:
 103:..\..\..\arduinoLCD\test\Pain Drain\libraries\lvgl\src\extra\widgets\win/lv_win.c **** 
 104:..\..\..\arduinoLCD\test\Pain Drain\libraries\lvgl\src\extra\widgets\win/lv_win.c ****     lv_obj_t * cont = lv_obj_create(obj);
  89              		.loc 1 104 0
  90 0054 2000     		movs	r0, r4
  91 0056 FFF7FEFF 		bl	lv_obj_create
  92              	.LVL13:
  93 005a 0400     		movs	r4, r0
  94              	.LVL14:
 105:..\..\..\arduinoLCD\test\Pain Drain\libraries\lvgl\src\extra\widgets\win/lv_win.c ****     lv_obj_set_flex_grow(cont, 1);
  95              		.loc 1 105 0
  96 005c 0121     		movs	r1, #1
  97 005e FFF7FEFF 		bl	lv_obj_set_flex_grow
  98              	.LVL15:
 106:..\..\..\arduinoLCD\test\Pain Drain\libraries\lvgl\src\extra\widgets\win/lv_win.c ****     lv_obj_set_width(cont, LV_PCT(100));
  99              		.loc 1 106 0
 100 0062 3100     		movs	r1, r6
 101 0064 2000     		movs	r0, r4
 102 0066 FFF7FEFF 		bl	lv_obj_set_width
 103              	.LVL16:
 107:..\..\..\arduinoLCD\test\Pain Drain\libraries\lvgl\src\extra\widgets\win/lv_win.c **** }
 104              		.loc 1 107 0
 105              		@ sp needed
 106              	.LVL17:
 107              	.LVL18:
 108 006a 70BD     		pop	{r4, r5, r6, pc}
 109              	.L3:
 110              		.align	2
 111              	.L2:
 112 006c 00000000 		.word	.LANCHOR0
 113 0070 64200000 		.word	8292
 114              		.cfi_endproc
 115              	.LFE207:
 116              		.size	lv_win_constructor, .-lv_win_constructor
 117              		.section	.text.lv_win_create,"ax",%progbits
 118              		.align	2
 119              		.global	lv_win_create
 120              		.code	16
 121              		.thumb_func
ARM GAS  C:\Users\haske\AppData\Local\Temp\ccayzPD0.s 			page 5


 122              		.type	lv_win_create, %function
 123              	lv_win_create:
 124              	.LFB202:
  46:..\..\..\arduinoLCD\test\Pain Drain\libraries\lvgl\src\extra\widgets\win/lv_win.c ****     LV_LOG_INFO("begin");
 125              		.loc 1 46 0
 126              		.cfi_startproc
 127              		@ args = 0, pretend = 0, frame = 0
 128              		@ frame_needed = 0, uses_anonymous_args = 0
 129              	.LVL19:
 130 0000 10B5     		push	{r4, lr}
 131              		.cfi_def_cfa_offset 8
 132              		.cfi_offset 4, -8
 133              		.cfi_offset 14, -4
  48:..\..\..\arduinoLCD\test\Pain Drain\libraries\lvgl\src\extra\widgets\win/lv_win.c **** 
 134              		.loc 1 48 0
 135 0002 054B     		ldr	r3, .L5
 136 0004 1980     		strh	r1, [r3]
  50:..\..\..\arduinoLCD\test\Pain Drain\libraries\lvgl\src\extra\widgets\win/lv_win.c ****     lv_obj_class_init_obj(obj);
 137              		.loc 1 50 0
 138 0006 0100     		movs	r1, r0
 139              	.LVL20:
 140 0008 0448     		ldr	r0, .L5+4
 141              	.LVL21:
 142 000a FFF7FEFF 		bl	lv_obj_class_create_obj
 143              	.LVL22:
 144 000e 0400     		movs	r4, r0
 145              	.LVL23:
  51:..\..\..\arduinoLCD\test\Pain Drain\libraries\lvgl\src\extra\widgets\win/lv_win.c ****     return obj;
 146              		.loc 1 51 0
 147 0010 FFF7FEFF 		bl	lv_obj_class_init_obj
 148              	.LVL24:
  53:..\..\..\arduinoLCD\test\Pain Drain\libraries\lvgl\src\extra\widgets\win/lv_win.c **** 
 149              		.loc 1 53 0
 150 0014 2000     		movs	r0, r4
 151              		@ sp needed
 152              	.LVL25:
 153 0016 10BD     		pop	{r4, pc}
 154              	.L6:
 155              		.align	2
 156              	.L5:
 157 0018 00000000 		.word	.LANCHOR0
 158 001c 00000000 		.word	.LANCHOR1
 159              		.cfi_endproc
 160              	.LFE202:
 161              		.size	lv_win_create, .-lv_win_create
 162              		.section	.text.lv_win_get_header,"ax",%progbits
 163              		.align	2
 164              		.global	lv_win_get_header
 165              		.code	16
 166              		.thumb_func
 167              		.type	lv_win_get_header, %function
 168              	lv_win_get_header:
 169              	.LFB205:
  79:..\..\..\arduinoLCD\test\Pain Drain\libraries\lvgl\src\extra\widgets\win/lv_win.c ****     return lv_obj_get_child(win, 0);
 170              		.loc 1 79 0
 171              		.cfi_startproc
 172              		@ args = 0, pretend = 0, frame = 0
ARM GAS  C:\Users\haske\AppData\Local\Temp\ccayzPD0.s 			page 6


 173              		@ frame_needed = 0, uses_anonymous_args = 0
 174              	.LVL26:
 175 0000 10B5     		push	{r4, lr}
 176              		.cfi_def_cfa_offset 8
 177              		.cfi_offset 4, -8
 178              		.cfi_offset 14, -4
  80:..\..\..\arduinoLCD\test\Pain Drain\libraries\lvgl\src\extra\widgets\win/lv_win.c **** }
 179              		.loc 1 80 0
 180 0002 0021     		movs	r1, #0
 181 0004 FFF7FEFF 		bl	lv_obj_get_child
 182              	.LVL27:
  81:..\..\..\arduinoLCD\test\Pain Drain\libraries\lvgl\src\extra\widgets\win/lv_win.c **** 
 183              		.loc 1 81 0
 184              		@ sp needed
 185 0008 10BD     		pop	{r4, pc}
 186              		.cfi_endproc
 187              	.LFE205:
 188              		.size	lv_win_get_header, .-lv_win_get_header
 189 000a C046     		.section	.text.lv_win_add_title,"ax",%progbits
 190              		.align	2
 191              		.global	lv_win_add_title
 192              		.code	16
 193              		.thumb_func
 194              		.type	lv_win_add_title, %function
 195              	lv_win_add_title:
 196              	.LFB203:
  56:..\..\..\arduinoLCD\test\Pain Drain\libraries\lvgl\src\extra\widgets\win/lv_win.c ****     lv_obj_t * header = lv_win_get_header(win);
 197              		.loc 1 56 0
 198              		.cfi_startproc
 199              		@ args = 0, pretend = 0, frame = 0
 200              		@ frame_needed = 0, uses_anonymous_args = 0
 201              	.LVL28:
 202 0000 70B5     		push	{r4, r5, r6, lr}
 203              		.cfi_def_cfa_offset 16
 204              		.cfi_offset 4, -16
 205              		.cfi_offset 5, -12
 206              		.cfi_offset 6, -8
 207              		.cfi_offset 14, -4
 208 0002 0D00     		movs	r5, r1
  57:..\..\..\arduinoLCD\test\Pain Drain\libraries\lvgl\src\extra\widgets\win/lv_win.c ****     lv_obj_t * title = lv_label_create(header);
 209              		.loc 1 57 0
 210 0004 FFF7FEFF 		bl	lv_win_get_header
 211              	.LVL29:
  58:..\..\..\arduinoLCD\test\Pain Drain\libraries\lvgl\src\extra\widgets\win/lv_win.c ****     lv_label_set_long_mode(title, LV_LABEL_LONG_DOT);
 212              		.loc 1 58 0
 213 0008 FFF7FEFF 		bl	lv_label_create
 214              	.LVL30:
 215 000c 0400     		movs	r4, r0
 216              	.LVL31:
  59:..\..\..\arduinoLCD\test\Pain Drain\libraries\lvgl\src\extra\widgets\win/lv_win.c ****     lv_label_set_text(title, txt);
 217              		.loc 1 59 0
 218 000e 0121     		movs	r1, #1
 219 0010 FFF7FEFF 		bl	lv_label_set_long_mode
 220              	.LVL32:
  60:..\..\..\arduinoLCD\test\Pain Drain\libraries\lvgl\src\extra\widgets\win/lv_win.c ****     lv_obj_set_flex_grow(title, 1);
 221              		.loc 1 60 0
 222 0014 2900     		movs	r1, r5
ARM GAS  C:\Users\haske\AppData\Local\Temp\ccayzPD0.s 			page 7


 223 0016 2000     		movs	r0, r4
 224 0018 FFF7FEFF 		bl	lv_label_set_text
 225              	.LVL33:
  61:..\..\..\arduinoLCD\test\Pain Drain\libraries\lvgl\src\extra\widgets\win/lv_win.c ****     return title;
 226              		.loc 1 61 0
 227 001c 0121     		movs	r1, #1
 228 001e 2000     		movs	r0, r4
 229 0020 FFF7FEFF 		bl	lv_obj_set_flex_grow
 230              	.LVL34:
  63:..\..\..\arduinoLCD\test\Pain Drain\libraries\lvgl\src\extra\widgets\win/lv_win.c **** 
 231              		.loc 1 63 0
 232 0024 2000     		movs	r0, r4
 233              		@ sp needed
 234              	.LVL35:
 235              	.LVL36:
 236 0026 70BD     		pop	{r4, r5, r6, pc}
 237              		.cfi_endproc
 238              	.LFE203:
 239              		.size	lv_win_add_title, .-lv_win_add_title
 240              		.section	.text.lv_win_add_btn,"ax",%progbits
 241              		.align	2
 242              		.global	lv_win_add_btn
 243              		.code	16
 244              		.thumb_func
 245              		.type	lv_win_add_btn, %function
 246              	lv_win_add_btn:
 247              	.LFB204:
  66:..\..\..\arduinoLCD\test\Pain Drain\libraries\lvgl\src\extra\widgets\win/lv_win.c ****     lv_obj_t * header = lv_win_get_header(win);
 248              		.loc 1 66 0
 249              		.cfi_startproc
 250              		@ args = 0, pretend = 0, frame = 0
 251              		@ frame_needed = 0, uses_anonymous_args = 0
 252              	.LVL37:
 253 0000 70B5     		push	{r4, r5, r6, lr}
 254              		.cfi_def_cfa_offset 16
 255              		.cfi_offset 4, -16
 256              		.cfi_offset 5, -12
 257              		.cfi_offset 6, -8
 258              		.cfi_offset 14, -4
 259 0002 0E00     		movs	r6, r1
 260 0004 1500     		movs	r5, r2
  67:..\..\..\arduinoLCD\test\Pain Drain\libraries\lvgl\src\extra\widgets\win/lv_win.c ****     lv_obj_t * btn = lv_btn_create(header);
 261              		.loc 1 67 0
 262 0006 FFF7FEFF 		bl	lv_win_get_header
 263              	.LVL38:
  68:..\..\..\arduinoLCD\test\Pain Drain\libraries\lvgl\src\extra\widgets\win/lv_win.c ****     lv_obj_set_size(btn, btn_w, LV_PCT(100));
 264              		.loc 1 68 0
 265 000a FFF7FEFF 		bl	lv_btn_create
 266              	.LVL39:
 267 000e 0400     		movs	r4, r0
 268              	.LVL40:
  69:..\..\..\arduinoLCD\test\Pain Drain\libraries\lvgl\src\extra\widgets\win/lv_win.c **** 
 269              		.loc 1 69 0
 270 0010 094A     		ldr	r2, .L10
 271 0012 2900     		movs	r1, r5
 272 0014 FFF7FEFF 		bl	lv_obj_set_size
 273              	.LVL41:
ARM GAS  C:\Users\haske\AppData\Local\Temp\ccayzPD0.s 			page 8


  71:..\..\..\arduinoLCD\test\Pain Drain\libraries\lvgl\src\extra\widgets\win/lv_win.c ****     lv_img_set_src(img, icon);
 274              		.loc 1 71 0
 275 0018 2000     		movs	r0, r4
 276 001a FFF7FEFF 		bl	lv_img_create
 277              	.LVL42:
 278 001e 0500     		movs	r5, r0
 279              	.LVL43:
  72:..\..\..\arduinoLCD\test\Pain Drain\libraries\lvgl\src\extra\widgets\win/lv_win.c ****     lv_obj_align(img, LV_ALIGN_CENTER, 0, 0);
 280              		.loc 1 72 0
 281 0020 3100     		movs	r1, r6
 282 0022 FFF7FEFF 		bl	lv_img_set_src
 283              	.LVL44:
  73:..\..\..\arduinoLCD\test\Pain Drain\libraries\lvgl\src\extra\widgets\win/lv_win.c **** 
 284              		.loc 1 73 0
 285 0026 0023     		movs	r3, #0
 286 0028 0022     		movs	r2, #0
 287 002a 0921     		movs	r1, #9
 288 002c 2800     		movs	r0, r5
 289 002e FFF7FEFF 		bl	lv_obj_align
 290              	.LVL45:
  76:..\..\..\arduinoLCD\test\Pain Drain\libraries\lvgl\src\extra\widgets\win/lv_win.c **** 
 291              		.loc 1 76 0
 292 0032 2000     		movs	r0, r4
 293              		@ sp needed
 294              	.LVL46:
 295              	.LVL47:
 296              	.LVL48:
 297 0034 70BD     		pop	{r4, r5, r6, pc}
 298              	.L11:
 299 0036 C046     		.align	2
 300              	.L10:
 301 0038 64200000 		.word	8292
 302              		.cfi_endproc
 303              	.LFE204:
 304              		.size	lv_win_add_btn, .-lv_win_add_btn
 305              		.section	.text.lv_win_get_content,"ax",%progbits
 306              		.align	2
 307              		.global	lv_win_get_content
 308              		.code	16
 309              		.thumb_func
 310              		.type	lv_win_get_content, %function
 311              	lv_win_get_content:
 312              	.LFB206:
  84:..\..\..\arduinoLCD\test\Pain Drain\libraries\lvgl\src\extra\widgets\win/lv_win.c ****     return lv_obj_get_child(win, 1);
 313              		.loc 1 84 0
 314              		.cfi_startproc
 315              		@ args = 0, pretend = 0, frame = 0
 316              		@ frame_needed = 0, uses_anonymous_args = 0
 317              	.LVL49:
 318 0000 10B5     		push	{r4, lr}
 319              		.cfi_def_cfa_offset 8
 320              		.cfi_offset 4, -8
 321              		.cfi_offset 14, -4
  85:..\..\..\arduinoLCD\test\Pain Drain\libraries\lvgl\src\extra\widgets\win/lv_win.c **** }
 322              		.loc 1 85 0
 323 0002 0121     		movs	r1, #1
 324 0004 FFF7FEFF 		bl	lv_obj_get_child
ARM GAS  C:\Users\haske\AppData\Local\Temp\ccayzPD0.s 			page 9


 325              	.LVL50:
  86:..\..\..\arduinoLCD\test\Pain Drain\libraries\lvgl\src\extra\widgets\win/lv_win.c **** 
 326              		.loc 1 86 0
 327              		@ sp needed
 328 0008 10BD     		pop	{r4, pc}
 329              		.cfi_endproc
 330              	.LFE206:
 331              		.size	lv_win_get_content, .-lv_win_get_content
 332              		.global	lv_win_class
 333 000a C046     		.section	.rodata
 334              		.align	2
 335              		.set	.LANCHOR1,. + 0
 336              		.type	lv_win_class, %object
 337              		.size	lv_win_class, 28
 338              	lv_win_class:
 339 0000 00000000 		.word	lv_obj_class
 340 0004 00000000 		.word	lv_win_constructor
 341 0008 00000000 		.space	12
 341      00000000 
 341      00000000 
 342 0014 6420     		.short	8292
 343 0016 6420     		.short	8292
 344 0018 40       		.byte	64
 345 0019 02       		.byte	2
 346 001a 00       		.byte	0
 347 001b 00       		.space	1
 348              		.bss
 349              		.align	1
 350              		.set	.LANCHOR0,. + 0
 351              		.type	create_header_height, %object
 352              		.size	create_header_height, 2
 353              	create_header_height:
 354 0000 0000     		.space	2
 355              		.text
 356              	.Letext0:
 357              		.file 2 "c:\\program files (x86)\\cypress\\psoc creator\\4.4\\psoc creator\\import\\gnu\\arm\\5.4.
 358              		.file 3 "c:\\program files (x86)\\cypress\\psoc creator\\4.4\\psoc creator\\import\\gnu\\arm\\5.4.
 359              		.file 4 "c:\\projects\\paindrain\\arduinolcd\\test\\pain drain\\libraries\\lvgl\\src\\misc\\lv_are
 360              		.file 5 "c:\\projects\\paindrain\\arduinolcd\\test\\pain drain\\libraries\\lvgl\\src\\font\\lv_fon
 361              		.file 6 "c:\\projects\\paindrain\\arduinolcd\\test\\pain drain\\libraries\\lvgl\\src\\misc\\lv_col
 362              		.file 7 "c:\\projects\\paindrain\\arduinolcd\\test\\pain drain\\libraries\\lvgl\\src\\misc\\lv_sty
 363              		.file 8 "c:\\projects\\paindrain\\arduinolcd\\test\\pain drain\\libraries\\lvgl\\src/core/lv_obj.h
 364              		.file 9 "c:\\projects\\paindrain\\arduinolcd\\test\\pain drain\\libraries\\lvgl\\src\\misc\\lv_ll.
 365              		.file 10 "c:\\projects\\paindrain\\arduinolcd\\test\\pain drain\\libraries\\lvgl\\src/core/lv_grou
 366              		.file 11 "c:\\projects\\paindrain\\arduinolcd\\test\\pain drain\\libraries\\lvgl\\src/core/lv_obj_
 367              		.file 12 "c:\\projects\\paindrain\\arduinolcd\\test\\pain drain\\libraries\\lvgl\\src/core/lv_obj_
 368              		.file 13 "c:\\projects\\paindrain\\arduinolcd\\test\\pain drain\\libraries\\lvgl\\src/core/lv_obj_
 369              		.file 14 "c:\\projects\\paindrain\\arduinolcd\\test\\pain drain\\libraries\\lvgl\\src/core/lv_even
 370              		.file 15 "c:\\projects\\paindrain\\arduinolcd\\test\\pain drain\\libraries\\lvgl\\src/widgets/lv_l
 371              		.file 16 "c:\\projects\\paindrain\\arduinolcd\\test\\pain drain\\libraries\\lvgl\\src/widgets/lv_b
 372              		.file 17 "c:\\projects\\paindrain\\arduinolcd\\test\\pain drain\\libraries\\lvgl\\src/extra/layout
 373              		.file 18 "c:\\projects\\paindrain\\arduinolcd\\test\\pain drain\\libraries\\lvgl\\src/extra/widget
 374              		.file 19 "c:\\projects\\paindrain\\arduinolcd\\test\\pain drain\\libraries\\lvgl\\src/extra/layout
 375              		.file 20 "c:\\projects\\paindrain\\arduinolcd\\test\\pain drain\\libraries\\lvgl\\src/core/lv_obj_
 376              		.file 21 "c:\\projects\\paindrain\\arduinolcd\\test\\pain drain\\libraries\\lvgl\\src\\core\\lv_ob
 377              		.file 22 "c:\\projects\\paindrain\\arduinolcd\\test\\pain drain\\libraries\\lvgl\\src/widgets/lv_b
 378              		.file 23 "c:\\projects\\paindrain\\arduinolcd\\test\\pain drain\\libraries\\lvgl\\src/widgets/lv_i
ARM GAS  C:\Users\haske\AppData\Local\Temp\ccayzPD0.s 			page 10

