ARM GAS  C:\Users\haske\AppData\Local\Temp\ccmgjESD.s 			page 1


   1              		.syntax unified
   2              		.cpu cortex-m0plus
   3              		.fpu softvfp
   4              		.eabi_attribute 20, 1
   5              		.eabi_attribute 21, 1
   6              		.eabi_attribute 23, 3
   7              		.eabi_attribute 24, 1
   8              		.eabi_attribute 25, 1
   9              		.eabi_attribute 26, 1
  10              		.eabi_attribute 30, 1
  11              		.eabi_attribute 34, 0
  12              		.eabi_attribute 18, 4
  13              		.thumb
  14              		.syntax unified
  15              		.file	"cy_i2s.c"
  16              		.text
  17              	.Ltext0:
  18              		.cfi_sections	.debug_frame
  19              		.section	.text.Cy_I2S_Init,"ax",%progbits
  20              		.align	2
  21              		.global	Cy_I2S_Init
  22              		.code	16
  23              		.thumb_func
  24              		.type	Cy_I2S_Init, %function
  25              	Cy_I2S_Init:
  26              	.LFB107:
  27              		.file 1 "Generated_Source\\PSoC6\\pdl\\drivers\\peripheral\\i2s\\cy_i2s.c"
   1:Generated_Source\PSoC6\pdl\drivers\peripheral\i2s/cy_i2s.c **** /***************************************************************************//**
   2:Generated_Source\PSoC6\pdl\drivers\peripheral\i2s/cy_i2s.c **** * \file cy_i2s.c
   3:Generated_Source\PSoC6\pdl\drivers\peripheral\i2s/cy_i2s.c **** * \version 2.10
   4:Generated_Source\PSoC6\pdl\drivers\peripheral\i2s/cy_i2s.c **** *
   5:Generated_Source\PSoC6\pdl\drivers\peripheral\i2s/cy_i2s.c **** * The source code file for the I2S driver.
   6:Generated_Source\PSoC6\pdl\drivers\peripheral\i2s/cy_i2s.c **** *
   7:Generated_Source\PSoC6\pdl\drivers\peripheral\i2s/cy_i2s.c **** ********************************************************************************
   8:Generated_Source\PSoC6\pdl\drivers\peripheral\i2s/cy_i2s.c **** * \copyright
   9:Generated_Source\PSoC6\pdl\drivers\peripheral\i2s/cy_i2s.c **** * Copyright 2016-2018, Cypress Semiconductor Corporation. All rights reserved.
  10:Generated_Source\PSoC6\pdl\drivers\peripheral\i2s/cy_i2s.c **** * You may use this file only in accordance with the license, terms, conditions,
  11:Generated_Source\PSoC6\pdl\drivers\peripheral\i2s/cy_i2s.c **** * disclaimers, and limitations in the end user license agreement accompanying
  12:Generated_Source\PSoC6\pdl\drivers\peripheral\i2s/cy_i2s.c **** * the software package with which this file was provided.
  13:Generated_Source\PSoC6\pdl\drivers\peripheral\i2s/cy_i2s.c **** *******************************************************************************/
  14:Generated_Source\PSoC6\pdl\drivers\peripheral\i2s/cy_i2s.c **** 
  15:Generated_Source\PSoC6\pdl\drivers\peripheral\i2s/cy_i2s.c **** #include "cy_i2s.h"
  16:Generated_Source\PSoC6\pdl\drivers\peripheral\i2s/cy_i2s.c **** 
  17:Generated_Source\PSoC6\pdl\drivers\peripheral\i2s/cy_i2s.c **** #ifdef CY_IP_MXAUDIOSS
  18:Generated_Source\PSoC6\pdl\drivers\peripheral\i2s/cy_i2s.c **** 
  19:Generated_Source\PSoC6\pdl\drivers\peripheral\i2s/cy_i2s.c **** 
  20:Generated_Source\PSoC6\pdl\drivers\peripheral\i2s/cy_i2s.c **** /*******************************************************************************
  21:Generated_Source\PSoC6\pdl\drivers\peripheral\i2s/cy_i2s.c **** * Function Name: Cy_I2S_Init
  22:Generated_Source\PSoC6\pdl\drivers\peripheral\i2s/cy_i2s.c **** ****************************************************************************//**
  23:Generated_Source\PSoC6\pdl\drivers\peripheral\i2s/cy_i2s.c **** *
  24:Generated_Source\PSoC6\pdl\drivers\peripheral\i2s/cy_i2s.c **** * Initializes the I2S module in accordance with a configuration structure.
  25:Generated_Source\PSoC6\pdl\drivers\peripheral\i2s/cy_i2s.c **** *
  26:Generated_Source\PSoC6\pdl\drivers\peripheral\i2s/cy_i2s.c **** * \pre If the I2S module is initialized previously, the \ref Cy_I2S_DeInit()
  27:Generated_Source\PSoC6\pdl\drivers\peripheral\i2s/cy_i2s.c **** * must be called before calling this function.
  28:Generated_Source\PSoC6\pdl\drivers\peripheral\i2s/cy_i2s.c **** *
  29:Generated_Source\PSoC6\pdl\drivers\peripheral\i2s/cy_i2s.c **** * \param base      The pointer to the I2S instance address.
  30:Generated_Source\PSoC6\pdl\drivers\peripheral\i2s/cy_i2s.c **** *
ARM GAS  C:\Users\haske\AppData\Local\Temp\ccmgjESD.s 			page 2


  31:Generated_Source\PSoC6\pdl\drivers\peripheral\i2s/cy_i2s.c **** * \param config    The pointer to a configuration structure.
  32:Generated_Source\PSoC6\pdl\drivers\peripheral\i2s/cy_i2s.c **** *
  33:Generated_Source\PSoC6\pdl\drivers\peripheral\i2s/cy_i2s.c **** * \return error / status code. See \ref cy_en_i2s_status_t.
  34:Generated_Source\PSoC6\pdl\drivers\peripheral\i2s/cy_i2s.c **** *
  35:Generated_Source\PSoC6\pdl\drivers\peripheral\i2s/cy_i2s.c **** * \funcusage
  36:Generated_Source\PSoC6\pdl\drivers\peripheral\i2s/cy_i2s.c **** * \snippet i2s\2.10\snippet\main.c snippet_Cy_I2S_Init
  37:Generated_Source\PSoC6\pdl\drivers\peripheral\i2s/cy_i2s.c **** *
  38:Generated_Source\PSoC6\pdl\drivers\peripheral\i2s/cy_i2s.c **** *******************************************************************************/
  39:Generated_Source\PSoC6\pdl\drivers\peripheral\i2s/cy_i2s.c **** cy_en_i2s_status_t Cy_I2S_Init(I2S_Type * base, cy_stc_i2s_config_t const * config)
  40:Generated_Source\PSoC6\pdl\drivers\peripheral\i2s/cy_i2s.c **** {
  28              		.loc 1 40 0
  29              		.cfi_startproc
  30              		@ args = 0, pretend = 0, frame = 0
  31              		@ frame_needed = 0, uses_anonymous_args = 0
  32              	.LVL0:
  33 0000 F0B5     		push	{r4, r5, r6, r7, lr}
  34              		.cfi_def_cfa_offset 20
  35              		.cfi_offset 4, -20
  36              		.cfi_offset 5, -16
  37              		.cfi_offset 6, -12
  38              		.cfi_offset 7, -8
  39              		.cfi_offset 14, -4
  40 0002 4746     		mov	r7, r8
  41 0004 80B4     		push	{r7}
  42              		.cfi_def_cfa_offset 24
  43              		.cfi_offset 8, -24
  44 0006 0500     		movs	r5, r0
  45 0008 0C00     		movs	r4, r1
  46              	.LVL1:
  41:Generated_Source\PSoC6\pdl\drivers\peripheral\i2s/cy_i2s.c ****     cy_en_i2s_status_t ret = CY_I2S_BAD_PARAM;
  42:Generated_Source\PSoC6\pdl\drivers\peripheral\i2s/cy_i2s.c ****     
  43:Generated_Source\PSoC6\pdl\drivers\peripheral\i2s/cy_i2s.c ****     if((NULL != base) && (NULL != config))
  47              		.loc 1 43 0
  48 000a 0028     		cmp	r0, #0
  49 000c 00D1     		bne	.LCB21
  50 000e 8CE1     		b	.L38	@long jump
  51              	.LCB21:
  52              		.loc 1 43 0 is_stmt 0 discriminator 1
  53 0010 0029     		cmp	r1, #0
  54 0012 00D1     		bne	.LCB23
  55 0014 8BE1     		b	.L39	@long jump
  56              	.LCB23:
  57              	.LBB30:
  44:Generated_Source\PSoC6\pdl\drivers\peripheral\i2s/cy_i2s.c ****     {
  45:Generated_Source\PSoC6\pdl\drivers\peripheral\i2s/cy_i2s.c ****         cy_en_i2s_ws_pw_t wsPulseWidth;
  46:Generated_Source\PSoC6\pdl\drivers\peripheral\i2s/cy_i2s.c ****         cy_en_i2s_len_t channelLength;
  47:Generated_Source\PSoC6\pdl\drivers\peripheral\i2s/cy_i2s.c ****         uint32_t channels;
  48:Generated_Source\PSoC6\pdl\drivers\peripheral\i2s/cy_i2s.c ****         uint32_t clockDiv = (uint32_t)config->clkDiv - 1U;
  58              		.loc 1 48 0 is_stmt 1
  59 0016 0E79     		ldrb	r6, [r1, #4]
  60 0018 013E     		subs	r6, r6, #1
  61              	.LVL2:
  49:Generated_Source\PSoC6\pdl\drivers\peripheral\i2s/cy_i2s.c ****         
  50:Generated_Source\PSoC6\pdl\drivers\peripheral\i2s/cy_i2s.c ****         CY_ASSERT_L2(CY_I2S_IS_CLK_DIV_VALID(clockDiv));
  62              		.loc 1 50 0
  63 001a 3F2E     		cmp	r6, #63
  64 001c 03D9     		bls	.L3
ARM GAS  C:\Users\haske\AppData\Local\Temp\ccmgjESD.s 			page 3


  65              		.loc 1 50 0 is_stmt 0 discriminator 1
  66 001e 3221     		movs	r1, #50
  67              	.LVL3:
  68 0020 C448     		ldr	r0, .L59
  69              	.LVL4:
  70 0022 FFF7FEFF 		bl	Cy_SysLib_AssertFailed
  71              	.LVL5:
  72              	.L3:
  51:Generated_Source\PSoC6\pdl\drivers\peripheral\i2s/cy_i2s.c ****         
  52:Generated_Source\PSoC6\pdl\drivers\peripheral\i2s/cy_i2s.c ****         REG_I2S_INTR_MASK(base) = 0UL; /* Disable interrupts prior to stopping the operation */
  73              		.loc 1 52 0 is_stmt 1
  74 0026 0023     		movs	r3, #0
  75 0028 C34A     		ldr	r2, .L59+4
  76 002a AB50     		str	r3, [r5, r2]
  53:Generated_Source\PSoC6\pdl\drivers\peripheral\i2s/cy_i2s.c ****         REG_I2S_CMD(base) = 0UL; /* Stop any communication */
  77              		.loc 1 53 0
  78 002c 2B62     		str	r3, [r5, #32]
  54:Generated_Source\PSoC6\pdl\drivers\peripheral\i2s/cy_i2s.c ****         REG_I2S_TR_CTL(base) = 0UL; /* Disable any DMA triggers */
  79              		.loc 1 54 0
  80 002e 2B64     		str	r3, [r5, #64]
  55:Generated_Source\PSoC6\pdl\drivers\peripheral\i2s/cy_i2s.c ****         REG_I2S_CTL(base) = 0UL; /* Disable TX/RX sub-blocks before clock changing */
  81              		.loc 1 55 0
  82 0030 2B60     		str	r3, [r5]
  56:Generated_Source\PSoC6\pdl\drivers\peripheral\i2s/cy_i2s.c ****         
  57:Generated_Source\PSoC6\pdl\drivers\peripheral\i2s/cy_i2s.c ****         /* The clock setting */
  58:Generated_Source\PSoC6\pdl\drivers\peripheral\i2s/cy_i2s.c ****         REG_I2S_CLOCK_CTL(base) = _VAL2FLD(I2S_CLOCK_CTL_CLOCK_DIV, clockDiv) |
  83              		.loc 1 58 0
  84 0032 3F33     		adds	r3, r3, #63
  85 0034 1E40     		ands	r6, r3
  86              	.LVL6:
  59:Generated_Source\PSoC6\pdl\drivers\peripheral\i2s/cy_i2s.c ****                                  _BOOL2FLD(I2S_CLOCK_CTL_CLOCK_SEL, config->extClk);
  87              		.loc 1 59 0
  88 0036 6379     		ldrb	r3, [r4, #5]
  89 0038 002B     		cmp	r3, #0
  90 003a 02D0     		beq	.L40
  91 003c 8023     		movs	r3, #128
  92 003e 5B00     		lsls	r3, r3, #1
  93 0040 00E0     		b	.L4
  94              	.L40:
  95 0042 0023     		movs	r3, #0
  96              	.L4:
  58:Generated_Source\PSoC6\pdl\drivers\peripheral\i2s/cy_i2s.c ****                                  _BOOL2FLD(I2S_CLOCK_CTL_CLOCK_SEL, config->extClk);
  97              		.loc 1 58 0
  98 0044 1E43     		orrs	r6, r3
  99 0046 2E61     		str	r6, [r5, #16]
  60:Generated_Source\PSoC6\pdl\drivers\peripheral\i2s/cy_i2s.c **** 
  61:Generated_Source\PSoC6\pdl\drivers\peripheral\i2s/cy_i2s.c ****         /* The Tx setting */
  62:Generated_Source\PSoC6\pdl\drivers\peripheral\i2s/cy_i2s.c ****         if (config->txEnabled)
 100              		.loc 1 62 0
 101 0048 2378     		ldrb	r3, [r4]
 102 004a 002B     		cmp	r3, #0
 103 004c 00D1     		bne	.LCB63
 104 004e 99E0     		b	.L5	@long jump
 105              	.LCB63:
  63:Generated_Source\PSoC6\pdl\drivers\peripheral\i2s/cy_i2s.c ****         {
  64:Generated_Source\PSoC6\pdl\drivers\peripheral\i2s/cy_i2s.c ****             CY_ASSERT_L3(CY_I2S_IS_ALIGNMENT_VALID(config->txAlignment));
 106              		.loc 1 64 0
ARM GAS  C:\Users\haske\AppData\Local\Temp\ccmgjESD.s 			page 4


 107 0050 E379     		ldrb	r3, [r4, #7]
 108 0052 032B     		cmp	r3, #3
 109 0054 03D9     		bls	.L6
 110              		.loc 1 64 0 is_stmt 0 discriminator 1
 111 0056 4021     		movs	r1, #64
 112 0058 B648     		ldr	r0, .L59
 113 005a FFF7FEFF 		bl	Cy_SysLib_AssertFailed
 114              	.LVL7:
 115              	.L6:
  65:Generated_Source\PSoC6\pdl\drivers\peripheral\i2s/cy_i2s.c ****             CY_ASSERT_L3(CY_I2S_IS_OVHDATA_VALID(config->txOverheadValue));
 116              		.loc 1 65 0 is_stmt 1
 117 005e A37D     		ldrb	r3, [r4, #22]
 118 0060 012B     		cmp	r3, #1
 119 0062 03D9     		bls	.L7
 120              		.loc 1 65 0 is_stmt 0 discriminator 1
 121 0064 4121     		movs	r1, #65
 122 0066 B348     		ldr	r0, .L59
 123 0068 FFF7FEFF 		bl	Cy_SysLib_AssertFailed
 124              	.LVL8:
 125              	.L7:
  66:Generated_Source\PSoC6\pdl\drivers\peripheral\i2s/cy_i2s.c ****             
  67:Generated_Source\PSoC6\pdl\drivers\peripheral\i2s/cy_i2s.c ****             if ((CY_I2S_TDM_MODE_A == config->txAlignment) || (CY_I2S_TDM_MODE_B == config->txAlign
 126              		.loc 1 67 0 is_stmt 1
 127 006c E379     		ldrb	r3, [r4, #7]
 128 006e 023B     		subs	r3, r3, #2
 129 0070 DBB2     		uxtb	r3, r3
 130 0072 012B     		cmp	r3, #1
 131 0074 19D8     		bhi	.L8
  68:Generated_Source\PSoC6\pdl\drivers\peripheral\i2s/cy_i2s.c ****             {
  69:Generated_Source\PSoC6\pdl\drivers\peripheral\i2s/cy_i2s.c ****                 channels = (uint32_t)config->txChannels - 1UL;
 132              		.loc 1 69 0
 133 0076 E77C     		ldrb	r7, [r4, #19]
 134 0078 013F     		subs	r7, r7, #1
 135              	.LVL9:
  70:Generated_Source\PSoC6\pdl\drivers\peripheral\i2s/cy_i2s.c ****                 wsPulseWidth = config->txWsPulseWidth;
 136              		.loc 1 70 0
 137 007a 237A     		ldrb	r3, [r4, #8]
 138 007c 9846     		mov	r8, r3
 139              	.LVL10:
  71:Generated_Source\PSoC6\pdl\drivers\peripheral\i2s/cy_i2s.c ****                 channelLength = CY_I2S_LEN32;
  72:Generated_Source\PSoC6\pdl\drivers\peripheral\i2s/cy_i2s.c ****                 
  73:Generated_Source\PSoC6\pdl\drivers\peripheral\i2s/cy_i2s.c ****                 CY_ASSERT_L2(CY_I2S_IS_CHANNELS_VALID(channels));
 140              		.loc 1 73 0
 141 007e 072F     		cmp	r7, #7
 142 0080 03D9     		bls	.L9
 143              		.loc 1 73 0 is_stmt 0 discriminator 1
 144 0082 4921     		movs	r1, #73
 145 0084 AB48     		ldr	r0, .L59
 146 0086 FFF7FEFF 		bl	Cy_SysLib_AssertFailed
 147              	.LVL11:
 148              	.L9:
  74:Generated_Source\PSoC6\pdl\drivers\peripheral\i2s/cy_i2s.c ****                 CY_ASSERT_L3(CY_I2S_IS_WSPULSE_VALID(wsPulseWidth));
 149              		.loc 1 74 0 is_stmt 1
 150 008a 4346     		mov	r3, r8
 151 008c 012B     		cmp	r3, #1
 152 008e 03D9     		bls	.L10
 153              		.loc 1 74 0 is_stmt 0 discriminator 1
ARM GAS  C:\Users\haske\AppData\Local\Temp\ccmgjESD.s 			page 5


 154 0090 4A21     		movs	r1, #74
 155 0092 A848     		ldr	r0, .L59
 156 0094 FFF7FEFF 		bl	Cy_SysLib_AssertFailed
 157              	.LVL12:
 158              	.L10:
  75:Generated_Source\PSoC6\pdl\drivers\peripheral\i2s/cy_i2s.c ****                 CY_ASSERT_L3(CY_I2S_IS_LEN_VALID(config->txWordLength));
 159              		.loc 1 75 0 is_stmt 1
 160 0098 637D     		ldrb	r3, [r4, #21]
 161 009a 052B     		cmp	r3, #5
 162 009c 15D9     		bls	.L41
 163              		.loc 1 75 0 is_stmt 0 discriminator 1
 164 009e 4B21     		movs	r1, #75
 165 00a0 A448     		ldr	r0, .L59
 166 00a2 FFF7FEFF 		bl	Cy_SysLib_AssertFailed
 167              	.LVL13:
  71:Generated_Source\PSoC6\pdl\drivers\peripheral\i2s/cy_i2s.c ****                 channelLength = CY_I2S_LEN32;
 168              		.loc 1 71 0 is_stmt 1 discriminator 1
 169 00a6 0526     		movs	r6, #5
 170 00a8 14E0     		b	.L11
 171              	.LVL14:
 172              	.L8:
  76:Generated_Source\PSoC6\pdl\drivers\peripheral\i2s/cy_i2s.c ****             }
  77:Generated_Source\PSoC6\pdl\drivers\peripheral\i2s/cy_i2s.c ****             else
  78:Generated_Source\PSoC6\pdl\drivers\peripheral\i2s/cy_i2s.c ****             {
  79:Generated_Source\PSoC6\pdl\drivers\peripheral\i2s/cy_i2s.c ****                 channels = 1UL;
  80:Generated_Source\PSoC6\pdl\drivers\peripheral\i2s/cy_i2s.c ****                 wsPulseWidth = CY_I2S_WS_ONE_CHANNEL_LENGTH;
  81:Generated_Source\PSoC6\pdl\drivers\peripheral\i2s/cy_i2s.c ****                 channelLength = config->txChannelLength;
 173              		.loc 1 81 0
 174 00aa 267D     		ldrb	r6, [r4, #20]
 175              	.LVL15:
  82:Generated_Source\PSoC6\pdl\drivers\peripheral\i2s/cy_i2s.c ****                 
  83:Generated_Source\PSoC6\pdl\drivers\peripheral\i2s/cy_i2s.c ****                 CY_ASSERT_L3(CY_I2S_IS_CHAN_WORD_VALID(channelLength, config->txWordLength));
 176              		.loc 1 83 0
 177 00ac 052E     		cmp	r6, #5
 178 00ae 04D8     		bhi	.L12
 179              		.loc 1 83 0 is_stmt 0 discriminator 2
 180 00b0 637D     		ldrb	r3, [r4, #21]
 181 00b2 052B     		cmp	r3, #5
 182 00b4 01D8     		bhi	.L12
 183              		.loc 1 83 0 discriminator 4
 184 00b6 9E42     		cmp	r6, r3
 185 00b8 09D2     		bcs	.L42
 186              	.L12:
 187              		.loc 1 83 0 discriminator 5
 188 00ba 5321     		movs	r1, #83
 189 00bc 9D48     		ldr	r0, .L59
 190 00be FFF7FEFF 		bl	Cy_SysLib_AssertFailed
 191              	.LVL16:
  79:Generated_Source\PSoC6\pdl\drivers\peripheral\i2s/cy_i2s.c ****                 wsPulseWidth = CY_I2S_WS_ONE_CHANNEL_LENGTH;
 192              		.loc 1 79 0 is_stmt 1 discriminator 5
 193 00c2 0127     		movs	r7, #1
  80:Generated_Source\PSoC6\pdl\drivers\peripheral\i2s/cy_i2s.c ****                 channelLength = config->txChannelLength;
 194              		.loc 1 80 0 discriminator 5
 195 00c4 0123     		movs	r3, #1
 196 00c6 9846     		mov	r8, r3
 197 00c8 04E0     		b	.L11
 198              	.LVL17:
ARM GAS  C:\Users\haske\AppData\Local\Temp\ccmgjESD.s 			page 6


 199              	.L41:
  71:Generated_Source\PSoC6\pdl\drivers\peripheral\i2s/cy_i2s.c ****                 
 200              		.loc 1 71 0
 201 00ca 0526     		movs	r6, #5
 202 00cc 02E0     		b	.L11
 203              	.LVL18:
 204              	.L42:
  79:Generated_Source\PSoC6\pdl\drivers\peripheral\i2s/cy_i2s.c ****                 wsPulseWidth = CY_I2S_WS_ONE_CHANNEL_LENGTH;
 205              		.loc 1 79 0
 206 00ce 0127     		movs	r7, #1
  80:Generated_Source\PSoC6\pdl\drivers\peripheral\i2s/cy_i2s.c ****                 channelLength = config->txChannelLength;
 207              		.loc 1 80 0
 208 00d0 0123     		movs	r3, #1
 209 00d2 9846     		mov	r8, r3
 210              	.LVL19:
 211              	.L11:
  84:Generated_Source\PSoC6\pdl\drivers\peripheral\i2s/cy_i2s.c ****             }
  85:Generated_Source\PSoC6\pdl\drivers\peripheral\i2s/cy_i2s.c ****             
  86:Generated_Source\PSoC6\pdl\drivers\peripheral\i2s/cy_i2s.c ****             CY_ASSERT_L2(CY_I2S_IS_TRIG_LEVEL_VALID(config->txFifoTriggerLevel, channels));
 212              		.loc 1 86 0
 213 00d4 E27D     		ldrb	r2, [r4, #23]
 214 00d6 FF23     		movs	r3, #255
 215 00d8 DB1B     		subs	r3, r3, r7
 216 00da 9A42     		cmp	r2, r3
 217 00dc 03D9     		bls	.L13
 218              		.loc 1 86 0 is_stmt 0 discriminator 1
 219 00de 5621     		movs	r1, #86
 220 00e0 9448     		ldr	r0, .L59
 221 00e2 FFF7FEFF 		bl	Cy_SysLib_AssertFailed
 222              	.LVL20:
 223              	.L13:
  87:Generated_Source\PSoC6\pdl\drivers\peripheral\i2s/cy_i2s.c ****             
  88:Generated_Source\PSoC6\pdl\drivers\peripheral\i2s/cy_i2s.c ****             REG_I2S_TX_WATCHDOG(base) = config->txWatchdogValue;
 224              		.loc 1 88 0 is_stmt 1
 225 00e6 8423     		movs	r3, #132
 226 00e8 E268     		ldr	r2, [r4, #12]
 227 00ea EA50     		str	r2, [r5, r3]
  89:Generated_Source\PSoC6\pdl\drivers\peripheral\i2s/cy_i2s.c **** 
  90:Generated_Source\PSoC6\pdl\drivers\peripheral\i2s/cy_i2s.c ****             REG_I2S_TX_CTL(base) = _VAL2FLD(I2S_TX_CTL_I2S_MODE, config->txAlignment) |
 228              		.loc 1 90 0
 229 00ec E379     		ldrb	r3, [r4, #7]
 230 00ee 1B02     		lsls	r3, r3, #8
 231 00f0 C022     		movs	r2, #192
 232 00f2 9200     		lsls	r2, r2, #2
 233 00f4 1340     		ands	r3, r2
  91:Generated_Source\PSoC6\pdl\drivers\peripheral\i2s/cy_i2s.c ****                                   _BOOL2FLD(I2S_TX_CTL_B_CLOCK_INV, config->txSdoLatchingTime) |
 234              		.loc 1 91 0
 235 00f6 227C     		ldrb	r2, [r4, #16]
 236 00f8 002A     		cmp	r2, #0
 237 00fa 01D0     		beq	.L43
 238 00fc 0822     		movs	r2, #8
 239 00fe 00E0     		b	.L14
 240              	.L43:
 241 0100 0022     		movs	r2, #0
 242              	.L14:
  90:Generated_Source\PSoC6\pdl\drivers\peripheral\i2s/cy_i2s.c ****                                   _BOOL2FLD(I2S_TX_CTL_B_CLOCK_INV, config->txSdoLatchingTime) |
 243              		.loc 1 90 0
ARM GAS  C:\Users\haske\AppData\Local\Temp\ccmgjESD.s 			page 7


 244 0102 1343     		orrs	r3, r2
  92:Generated_Source\PSoC6\pdl\drivers\peripheral\i2s/cy_i2s.c ****                                    _VAL2FLD(I2S_TX_CTL_CH_NR, channels) |
 245              		.loc 1 92 0
 246 0104 3A01     		lsls	r2, r7, #4
 247 0106 7027     		movs	r7, #112
 248              	.LVL21:
 249 0108 1740     		ands	r7, r2
  91:Generated_Source\PSoC6\pdl\drivers\peripheral\i2s/cy_i2s.c ****                                   _BOOL2FLD(I2S_TX_CTL_B_CLOCK_INV, config->txSdoLatchingTime) |
 250              		.loc 1 91 0
 251 010a 1F43     		orrs	r7, r3
  93:Generated_Source\PSoC6\pdl\drivers\peripheral\i2s/cy_i2s.c ****                                   _BOOL2FLD(I2S_TX_CTL_MS, config->txMasterMode) |
 252              		.loc 1 93 0
 253 010c A379     		ldrb	r3, [r4, #6]
 254 010e 002B     		cmp	r3, #0
 255 0110 01D0     		beq	.L44
 256 0112 8023     		movs	r3, #128
 257 0114 00E0     		b	.L15
 258              	.L44:
 259 0116 0023     		movs	r3, #0
 260              	.L15:
  92:Generated_Source\PSoC6\pdl\drivers\peripheral\i2s/cy_i2s.c ****                                    _VAL2FLD(I2S_TX_CTL_CH_NR, channels) |
 261              		.loc 1 92 0
 262 0118 3B43     		orrs	r3, r7
  94:Generated_Source\PSoC6\pdl\drivers\peripheral\i2s/cy_i2s.c ****                                    _VAL2FLD(I2S_TX_CTL_WS_PULSE, wsPulseWidth) |
 263              		.loc 1 94 0
 264 011a 4246     		mov	r2, r8
 265 011c 9202     		lsls	r2, r2, #10
 266 011e 8021     		movs	r1, #128
 267 0120 C900     		lsls	r1, r1, #3
 268 0122 0A40     		ands	r2, r1
  93:Generated_Source\PSoC6\pdl\drivers\peripheral\i2s/cy_i2s.c ****                                   _BOOL2FLD(I2S_TX_CTL_MS, config->txMasterMode) |
 269              		.loc 1 93 0
 270 0124 1343     		orrs	r3, r2
  95:Generated_Source\PSoC6\pdl\drivers\peripheral\i2s/cy_i2s.c ****                                   _BOOL2FLD(I2S_TX_CTL_WD_EN, config->txWatchdogEnable) |
 271              		.loc 1 95 0
 272 0126 627A     		ldrb	r2, [r4, #9]
 273 0128 002A     		cmp	r2, #0
 274 012a 02D0     		beq	.L45
 275 012c 8022     		movs	r2, #128
 276 012e 9201     		lsls	r2, r2, #6
 277 0130 00E0     		b	.L16
 278              	.L45:
 279 0132 0022     		movs	r2, #0
 280              	.L16:
  94:Generated_Source\PSoC6\pdl\drivers\peripheral\i2s/cy_i2s.c ****                                    _VAL2FLD(I2S_TX_CTL_WS_PULSE, wsPulseWidth) |
 281              		.loc 1 94 0
 282 0134 1343     		orrs	r3, r2
  96:Generated_Source\PSoC6\pdl\drivers\peripheral\i2s/cy_i2s.c ****                                   _BOOL2FLD(I2S_TX_CTL_SCKO_POL, config->txSckoInversion) |
 283              		.loc 1 96 0
 284 0136 627C     		ldrb	r2, [r4, #17]
 285 0138 002A     		cmp	r2, #0
 286 013a 02D0     		beq	.L46
 287 013c 8022     		movs	r2, #128
 288 013e 5204     		lsls	r2, r2, #17
 289 0140 00E0     		b	.L17
 290              	.L46:
 291 0142 0022     		movs	r2, #0
ARM GAS  C:\Users\haske\AppData\Local\Temp\ccmgjESD.s 			page 8


 292              	.L17:
  95:Generated_Source\PSoC6\pdl\drivers\peripheral\i2s/cy_i2s.c ****                                   _BOOL2FLD(I2S_TX_CTL_WD_EN, config->txWatchdogEnable) |
 293              		.loc 1 95 0
 294 0144 1343     		orrs	r3, r2
  97:Generated_Source\PSoC6\pdl\drivers\peripheral\i2s/cy_i2s.c ****                                   _BOOL2FLD(I2S_TX_CTL_SCKI_POL, config->txSckiInversion) |
 295              		.loc 1 97 0
 296 0146 A27C     		ldrb	r2, [r4, #18]
 297 0148 002A     		cmp	r2, #0
 298 014a 02D0     		beq	.L47
 299 014c 8022     		movs	r2, #128
 300 014e 9204     		lsls	r2, r2, #18
 301 0150 00E0     		b	.L18
 302              	.L47:
 303 0152 0022     		movs	r2, #0
 304              	.L18:
  96:Generated_Source\PSoC6\pdl\drivers\peripheral\i2s/cy_i2s.c ****                                   _BOOL2FLD(I2S_TX_CTL_SCKO_POL, config->txSckoInversion) |
 305              		.loc 1 96 0
 306 0154 1343     		orrs	r3, r2
  98:Generated_Source\PSoC6\pdl\drivers\peripheral\i2s/cy_i2s.c ****                                    _VAL2FLD(I2S_TX_CTL_CH_LEN, channelLength) |
 307              		.loc 1 98 0
 308 0156 3604     		lsls	r6, r6, #16
 309              	.LVL22:
 310 0158 E022     		movs	r2, #224
 311 015a D202     		lsls	r2, r2, #11
 312 015c 1640     		ands	r6, r2
  97:Generated_Source\PSoC6\pdl\drivers\peripheral\i2s/cy_i2s.c ****                                   _BOOL2FLD(I2S_TX_CTL_SCKI_POL, config->txSckiInversion) |
 313              		.loc 1 97 0
 314 015e 3343     		orrs	r3, r6
  99:Generated_Source\PSoC6\pdl\drivers\peripheral\i2s/cy_i2s.c ****                                    _VAL2FLD(I2S_TX_CTL_WORD_LEN, config->txWordLength) |
 315              		.loc 1 99 0
 316 0160 667D     		ldrb	r6, [r4, #21]
 317 0162 3605     		lsls	r6, r6, #20
 318 0164 E021     		movs	r1, #224
 319 0166 C903     		lsls	r1, r1, #15
 320 0168 3200     		movs	r2, r6
 321 016a 0A40     		ands	r2, r1
  98:Generated_Source\PSoC6\pdl\drivers\peripheral\i2s/cy_i2s.c ****                                    _VAL2FLD(I2S_TX_CTL_CH_LEN, channelLength) |
 322              		.loc 1 98 0
 323 016c 1343     		orrs	r3, r2
 324 016e 1E00     		movs	r6, r3
 100:Generated_Source\PSoC6\pdl\drivers\peripheral\i2s/cy_i2s.c ****                                    _VAL2FLD(I2S_TX_CTL_OVHDATA, config->txOverheadValue);
 325              		.loc 1 100 0
 326 0170 A37D     		ldrb	r3, [r4, #22]
 327 0172 1B03     		lsls	r3, r3, #12
 328 0174 8021     		movs	r1, #128
 329 0176 4901     		lsls	r1, r1, #5
 330 0178 0B40     		ands	r3, r1
 331 017a 1A00     		movs	r2, r3
  99:Generated_Source\PSoC6\pdl\drivers\peripheral\i2s/cy_i2s.c ****                                    _VAL2FLD(I2S_TX_CTL_WORD_LEN, config->txWordLength) |
 332              		.loc 1 99 0
 333 017c 3300     		movs	r3, r6
 334 017e 1343     		orrs	r3, r2
  90:Generated_Source\PSoC6\pdl\drivers\peripheral\i2s/cy_i2s.c ****                                   _BOOL2FLD(I2S_TX_CTL_B_CLOCK_INV, config->txSdoLatchingTime) |
 335              		.loc 1 90 0
 336 0180 8022     		movs	r2, #128
 337 0182 AB50     		str	r3, [r5, r2]
 338              	.LVL23:
ARM GAS  C:\Users\haske\AppData\Local\Temp\ccmgjESD.s 			page 9


 339              	.L5:
 101:Generated_Source\PSoC6\pdl\drivers\peripheral\i2s/cy_i2s.c ****         }
 102:Generated_Source\PSoC6\pdl\drivers\peripheral\i2s/cy_i2s.c **** 
 103:Generated_Source\PSoC6\pdl\drivers\peripheral\i2s/cy_i2s.c ****         /* The Rx setting */
 104:Generated_Source\PSoC6\pdl\drivers\peripheral\i2s/cy_i2s.c ****         if (config->rxEnabled)
 340              		.loc 1 104 0
 341 0184 6378     		ldrb	r3, [r4, #1]
 342 0186 002B     		cmp	r3, #0
 343 0188 00D1     		bne	.LCB302
 344 018a 9AE0     		b	.L19	@long jump
 345              	.LCB302:
 105:Generated_Source\PSoC6\pdl\drivers\peripheral\i2s/cy_i2s.c ****         {
 106:Generated_Source\PSoC6\pdl\drivers\peripheral\i2s/cy_i2s.c ****             CY_ASSERT_L3(CY_I2S_IS_ALIGNMENT_VALID(config->rxAlignment));
 346              		.loc 1 106 0
 347 018c 637E     		ldrb	r3, [r4, #25]
 348 018e 032B     		cmp	r3, #3
 349 0190 03D9     		bls	.L20
 350              		.loc 1 106 0 is_stmt 0 discriminator 1
 351 0192 6A21     		movs	r1, #106
 352 0194 6748     		ldr	r0, .L59
 353 0196 FFF7FEFF 		bl	Cy_SysLib_AssertFailed
 354              	.LVL24:
 355              	.L20:
 107:Generated_Source\PSoC6\pdl\drivers\peripheral\i2s/cy_i2s.c ****             
 108:Generated_Source\PSoC6\pdl\drivers\peripheral\i2s/cy_i2s.c ****             if ((CY_I2S_TDM_MODE_A == config->rxAlignment) || (CY_I2S_TDM_MODE_B == config->rxAlign
 356              		.loc 1 108 0 is_stmt 1
 357 019a 637E     		ldrb	r3, [r4, #25]
 358 019c 023B     		subs	r3, r3, #2
 359 019e DBB2     		uxtb	r3, r3
 360 01a0 012B     		cmp	r3, #1
 361 01a2 1BD8     		bhi	.L21
 109:Generated_Source\PSoC6\pdl\drivers\peripheral\i2s/cy_i2s.c ****             {
 110:Generated_Source\PSoC6\pdl\drivers\peripheral\i2s/cy_i2s.c ****                 channels = (uint32_t)config->rxChannels - 1UL;
 362              		.loc 1 110 0
 363 01a4 2323     		movs	r3, #35
 364 01a6 E75C     		ldrb	r7, [r4, r3]
 365 01a8 013F     		subs	r7, r7, #1
 366              	.LVL25:
 111:Generated_Source\PSoC6\pdl\drivers\peripheral\i2s/cy_i2s.c ****                 wsPulseWidth = config->rxWsPulseWidth;
 367              		.loc 1 111 0
 368 01aa A37E     		ldrb	r3, [r4, #26]
 369 01ac 9846     		mov	r8, r3
 370              	.LVL26:
 112:Generated_Source\PSoC6\pdl\drivers\peripheral\i2s/cy_i2s.c ****                 channelLength = CY_I2S_LEN32;
 113:Generated_Source\PSoC6\pdl\drivers\peripheral\i2s/cy_i2s.c ****                 
 114:Generated_Source\PSoC6\pdl\drivers\peripheral\i2s/cy_i2s.c ****                 CY_ASSERT_L2(CY_I2S_IS_CHANNELS_VALID(channels));
 371              		.loc 1 114 0
 372 01ae 072F     		cmp	r7, #7
 373 01b0 03D9     		bls	.L22
 374              		.loc 1 114 0 is_stmt 0 discriminator 1
 375 01b2 7221     		movs	r1, #114
 376 01b4 5F48     		ldr	r0, .L59
 377 01b6 FFF7FEFF 		bl	Cy_SysLib_AssertFailed
 378              	.LVL27:
 379              	.L22:
 115:Generated_Source\PSoC6\pdl\drivers\peripheral\i2s/cy_i2s.c ****                 CY_ASSERT_L3(CY_I2S_IS_WSPULSE_VALID(wsPulseWidth));
 380              		.loc 1 115 0 is_stmt 1
ARM GAS  C:\Users\haske\AppData\Local\Temp\ccmgjESD.s 			page 10


 381 01ba 4346     		mov	r3, r8
 382 01bc 012B     		cmp	r3, #1
 383 01be 03D9     		bls	.L23
 384              		.loc 1 115 0 is_stmt 0 discriminator 1
 385 01c0 7321     		movs	r1, #115
 386 01c2 5C48     		ldr	r0, .L59
 387 01c4 FFF7FEFF 		bl	Cy_SysLib_AssertFailed
 388              	.LVL28:
 389              	.L23:
 116:Generated_Source\PSoC6\pdl\drivers\peripheral\i2s/cy_i2s.c ****                 CY_ASSERT_L3(CY_I2S_IS_LEN_VALID(config->rxWordLength));
 390              		.loc 1 116 0 is_stmt 1
 391 01c8 2523     		movs	r3, #37
 392 01ca E35C     		ldrb	r3, [r4, r3]
 393 01cc 052B     		cmp	r3, #5
 394 01ce 17D9     		bls	.L48
 395              		.loc 1 116 0 is_stmt 0 discriminator 1
 396 01d0 7421     		movs	r1, #116
 397 01d2 5848     		ldr	r0, .L59
 398 01d4 FFF7FEFF 		bl	Cy_SysLib_AssertFailed
 399              	.LVL29:
 112:Generated_Source\PSoC6\pdl\drivers\peripheral\i2s/cy_i2s.c ****                 channelLength = CY_I2S_LEN32;
 400              		.loc 1 112 0 is_stmt 1 discriminator 1
 401 01d8 0526     		movs	r6, #5
 402 01da 16E0     		b	.L24
 403              	.LVL30:
 404              	.L21:
 117:Generated_Source\PSoC6\pdl\drivers\peripheral\i2s/cy_i2s.c ****             }
 118:Generated_Source\PSoC6\pdl\drivers\peripheral\i2s/cy_i2s.c ****             else
 119:Generated_Source\PSoC6\pdl\drivers\peripheral\i2s/cy_i2s.c ****             {
 120:Generated_Source\PSoC6\pdl\drivers\peripheral\i2s/cy_i2s.c ****                 channels = 1UL;
 121:Generated_Source\PSoC6\pdl\drivers\peripheral\i2s/cy_i2s.c ****                 wsPulseWidth = CY_I2S_WS_ONE_CHANNEL_LENGTH;
 122:Generated_Source\PSoC6\pdl\drivers\peripheral\i2s/cy_i2s.c ****                 channelLength = config->rxChannelLength;
 405              		.loc 1 122 0
 406 01dc 2423     		movs	r3, #36
 407 01de E65C     		ldrb	r6, [r4, r3]
 408              	.LVL31:
 123:Generated_Source\PSoC6\pdl\drivers\peripheral\i2s/cy_i2s.c ****                 
 124:Generated_Source\PSoC6\pdl\drivers\peripheral\i2s/cy_i2s.c ****                 CY_ASSERT_L3(CY_I2S_IS_CHAN_WORD_VALID(channelLength, config->rxWordLength));
 409              		.loc 1 124 0
 410 01e0 052E     		cmp	r6, #5
 411 01e2 05D8     		bhi	.L25
 412              		.loc 1 124 0 is_stmt 0 discriminator 2
 413 01e4 0133     		adds	r3, r3, #1
 414 01e6 E35C     		ldrb	r3, [r4, r3]
 415 01e8 052B     		cmp	r3, #5
 416 01ea 01D8     		bhi	.L25
 417              		.loc 1 124 0 discriminator 4
 418 01ec 9E42     		cmp	r6, r3
 419 01ee 09D2     		bcs	.L49
 420              	.L25:
 421              		.loc 1 124 0 discriminator 5
 422 01f0 7C21     		movs	r1, #124
 423 01f2 5048     		ldr	r0, .L59
 424 01f4 FFF7FEFF 		bl	Cy_SysLib_AssertFailed
 425              	.LVL32:
 120:Generated_Source\PSoC6\pdl\drivers\peripheral\i2s/cy_i2s.c ****                 wsPulseWidth = CY_I2S_WS_ONE_CHANNEL_LENGTH;
 426              		.loc 1 120 0 is_stmt 1 discriminator 5
ARM GAS  C:\Users\haske\AppData\Local\Temp\ccmgjESD.s 			page 11


 427 01f8 0127     		movs	r7, #1
 121:Generated_Source\PSoC6\pdl\drivers\peripheral\i2s/cy_i2s.c ****                 channelLength = config->rxChannelLength;
 428              		.loc 1 121 0 discriminator 5
 429 01fa 0123     		movs	r3, #1
 430 01fc 9846     		mov	r8, r3
 431 01fe 04E0     		b	.L24
 432              	.LVL33:
 433              	.L48:
 112:Generated_Source\PSoC6\pdl\drivers\peripheral\i2s/cy_i2s.c ****                 
 434              		.loc 1 112 0
 435 0200 0526     		movs	r6, #5
 436 0202 02E0     		b	.L24
 437              	.LVL34:
 438              	.L49:
 120:Generated_Source\PSoC6\pdl\drivers\peripheral\i2s/cy_i2s.c ****                 wsPulseWidth = CY_I2S_WS_ONE_CHANNEL_LENGTH;
 439              		.loc 1 120 0
 440 0204 0127     		movs	r7, #1
 121:Generated_Source\PSoC6\pdl\drivers\peripheral\i2s/cy_i2s.c ****                 channelLength = config->rxChannelLength;
 441              		.loc 1 121 0
 442 0206 0123     		movs	r3, #1
 443 0208 9846     		mov	r8, r3
 444              	.LVL35:
 445              	.L24:
 125:Generated_Source\PSoC6\pdl\drivers\peripheral\i2s/cy_i2s.c ****             }
 126:Generated_Source\PSoC6\pdl\drivers\peripheral\i2s/cy_i2s.c ****             
 127:Generated_Source\PSoC6\pdl\drivers\peripheral\i2s/cy_i2s.c ****             CY_ASSERT_L2(CY_I2S_IS_TRIG_LEVEL_VALID(config->rxFifoTriggerLevel, channels));
 446              		.loc 1 127 0
 447 020a 2723     		movs	r3, #39
 448 020c E25C     		ldrb	r2, [r4, r3]
 449 020e D833     		adds	r3, r3, #216
 450 0210 DB1B     		subs	r3, r3, r7
 451 0212 9A42     		cmp	r2, r3
 452 0214 03D9     		bls	.L26
 453              		.loc 1 127 0 is_stmt 0 discriminator 1
 454 0216 7F21     		movs	r1, #127
 455 0218 4648     		ldr	r0, .L59
 456 021a FFF7FEFF 		bl	Cy_SysLib_AssertFailed
 457              	.LVL36:
 458              	.L26:
 128:Generated_Source\PSoC6\pdl\drivers\peripheral\i2s/cy_i2s.c **** 
 129:Generated_Source\PSoC6\pdl\drivers\peripheral\i2s/cy_i2s.c ****             REG_I2S_RX_WATCHDOG(base) = config->rxWatchdogValue;
 459              		.loc 1 129 0 is_stmt 1
 460 021e A423     		movs	r3, #164
 461 0220 E269     		ldr	r2, [r4, #28]
 462 0222 EA50     		str	r2, [r5, r3]
 130:Generated_Source\PSoC6\pdl\drivers\peripheral\i2s/cy_i2s.c **** 
 131:Generated_Source\PSoC6\pdl\drivers\peripheral\i2s/cy_i2s.c ****             REG_I2S_RX_CTL(base) = _VAL2FLD(I2S_RX_CTL_I2S_MODE, config->rxAlignment) |
 463              		.loc 1 131 0
 464 0224 637E     		ldrb	r3, [r4, #25]
 465 0226 1B02     		lsls	r3, r3, #8
 466 0228 C022     		movs	r2, #192
 467 022a 9200     		lsls	r2, r2, #2
 468 022c 1340     		ands	r3, r2
 132:Generated_Source\PSoC6\pdl\drivers\peripheral\i2s/cy_i2s.c ****                                   _BOOL2FLD(I2S_RX_CTL_B_CLOCK_INV, config->rxSdiLatchingTime) |
 469              		.loc 1 132 0
 470 022e 2022     		movs	r2, #32
 471 0230 A25C     		ldrb	r2, [r4, r2]
ARM GAS  C:\Users\haske\AppData\Local\Temp\ccmgjESD.s 			page 12


 472 0232 002A     		cmp	r2, #0
 473 0234 01D0     		beq	.L50
 474 0236 0822     		movs	r2, #8
 475 0238 00E0     		b	.L27
 476              	.L50:
 477 023a 0022     		movs	r2, #0
 478              	.L27:
 131:Generated_Source\PSoC6\pdl\drivers\peripheral\i2s/cy_i2s.c ****                                   _BOOL2FLD(I2S_RX_CTL_B_CLOCK_INV, config->rxSdiLatchingTime) |
 479              		.loc 1 131 0
 480 023c 1343     		orrs	r3, r2
 133:Generated_Source\PSoC6\pdl\drivers\peripheral\i2s/cy_i2s.c ****                                    _VAL2FLD(I2S_RX_CTL_CH_NR, channels) |
 481              		.loc 1 133 0
 482 023e 3A01     		lsls	r2, r7, #4
 483 0240 7027     		movs	r7, #112
 484              	.LVL37:
 485 0242 1740     		ands	r7, r2
 132:Generated_Source\PSoC6\pdl\drivers\peripheral\i2s/cy_i2s.c ****                                   _BOOL2FLD(I2S_RX_CTL_B_CLOCK_INV, config->rxSdiLatchingTime) |
 486              		.loc 1 132 0
 487 0244 1F43     		orrs	r7, r3
 134:Generated_Source\PSoC6\pdl\drivers\peripheral\i2s/cy_i2s.c ****                                   _BOOL2FLD(I2S_RX_CTL_MS, config->rxMasterMode) |
 488              		.loc 1 134 0
 489 0246 237E     		ldrb	r3, [r4, #24]
 490 0248 002B     		cmp	r3, #0
 491 024a 01D0     		beq	.L51
 492 024c 8023     		movs	r3, #128
 493 024e 00E0     		b	.L28
 494              	.L51:
 495 0250 0023     		movs	r3, #0
 496              	.L28:
 133:Generated_Source\PSoC6\pdl\drivers\peripheral\i2s/cy_i2s.c ****                                    _VAL2FLD(I2S_RX_CTL_CH_NR, channels) |
 497              		.loc 1 133 0
 498 0252 3B43     		orrs	r3, r7
 135:Generated_Source\PSoC6\pdl\drivers\peripheral\i2s/cy_i2s.c ****                                    _VAL2FLD(I2S_RX_CTL_WS_PULSE, wsPulseWidth) |
 499              		.loc 1 135 0
 500 0254 4246     		mov	r2, r8
 501 0256 9202     		lsls	r2, r2, #10
 502 0258 8021     		movs	r1, #128
 503 025a C900     		lsls	r1, r1, #3
 504 025c 0A40     		ands	r2, r1
 134:Generated_Source\PSoC6\pdl\drivers\peripheral\i2s/cy_i2s.c ****                                   _BOOL2FLD(I2S_RX_CTL_MS, config->rxMasterMode) |
 505              		.loc 1 134 0
 506 025e 1343     		orrs	r3, r2
 136:Generated_Source\PSoC6\pdl\drivers\peripheral\i2s/cy_i2s.c ****                                   _BOOL2FLD(I2S_RX_CTL_WD_EN, config->rxWatchdogEnable) |
 507              		.loc 1 136 0
 508 0260 E27E     		ldrb	r2, [r4, #27]
 509 0262 002A     		cmp	r2, #0
 510 0264 02D0     		beq	.L52
 511 0266 8022     		movs	r2, #128
 512 0268 9201     		lsls	r2, r2, #6
 513 026a 00E0     		b	.L29
 514              	.L52:
 515 026c 0022     		movs	r2, #0
 516              	.L29:
 135:Generated_Source\PSoC6\pdl\drivers\peripheral\i2s/cy_i2s.c ****                                    _VAL2FLD(I2S_RX_CTL_WS_PULSE, wsPulseWidth) |
 517              		.loc 1 135 0
 518 026e 1343     		orrs	r3, r2
 137:Generated_Source\PSoC6\pdl\drivers\peripheral\i2s/cy_i2s.c ****                                   _BOOL2FLD(I2S_RX_CTL_SCKO_POL, config->rxSckoInversion) |
ARM GAS  C:\Users\haske\AppData\Local\Temp\ccmgjESD.s 			page 13


 519              		.loc 1 137 0
 520 0270 2122     		movs	r2, #33
 521 0272 A25C     		ldrb	r2, [r4, r2]
 522 0274 002A     		cmp	r2, #0
 523 0276 02D0     		beq	.L53
 524 0278 8022     		movs	r2, #128
 525 027a 5204     		lsls	r2, r2, #17
 526 027c 00E0     		b	.L30
 527              	.L53:
 528 027e 0022     		movs	r2, #0
 529              	.L30:
 136:Generated_Source\PSoC6\pdl\drivers\peripheral\i2s/cy_i2s.c ****                                   _BOOL2FLD(I2S_RX_CTL_WD_EN, config->rxWatchdogEnable) |
 530              		.loc 1 136 0
 531 0280 1343     		orrs	r3, r2
 138:Generated_Source\PSoC6\pdl\drivers\peripheral\i2s/cy_i2s.c ****                                   _BOOL2FLD(I2S_RX_CTL_SCKI_POL, config->rxSckiInversion) |
 532              		.loc 1 138 0
 533 0282 2222     		movs	r2, #34
 534 0284 A25C     		ldrb	r2, [r4, r2]
 535 0286 002A     		cmp	r2, #0
 536 0288 02D0     		beq	.L54
 537 028a 8022     		movs	r2, #128
 538 028c 9204     		lsls	r2, r2, #18
 539 028e 00E0     		b	.L31
 540              	.L54:
 541 0290 0022     		movs	r2, #0
 542              	.L31:
 137:Generated_Source\PSoC6\pdl\drivers\peripheral\i2s/cy_i2s.c ****                                   _BOOL2FLD(I2S_RX_CTL_SCKO_POL, config->rxSckoInversion) |
 543              		.loc 1 137 0
 544 0292 1343     		orrs	r3, r2
 139:Generated_Source\PSoC6\pdl\drivers\peripheral\i2s/cy_i2s.c ****                                    _VAL2FLD(I2S_RX_CTL_CH_LEN, channelLength) |
 545              		.loc 1 139 0
 546 0294 3604     		lsls	r6, r6, #16
 547              	.LVL38:
 548 0296 E022     		movs	r2, #224
 549 0298 D202     		lsls	r2, r2, #11
 550 029a 1640     		ands	r6, r2
 138:Generated_Source\PSoC6\pdl\drivers\peripheral\i2s/cy_i2s.c ****                                   _BOOL2FLD(I2S_RX_CTL_SCKI_POL, config->rxSckiInversion) |
 551              		.loc 1 138 0
 552 029c 3343     		orrs	r3, r6
 140:Generated_Source\PSoC6\pdl\drivers\peripheral\i2s/cy_i2s.c ****                                    _VAL2FLD(I2S_RX_CTL_WORD_LEN, config->rxWordLength) |
 553              		.loc 1 140 0
 554 029e 2522     		movs	r2, #37
 555 02a0 A25C     		ldrb	r2, [r4, r2]
 556 02a2 1205     		lsls	r2, r2, #20
 557 02a4 E021     		movs	r1, #224
 558 02a6 C903     		lsls	r1, r1, #15
 559 02a8 0A40     		ands	r2, r1
 139:Generated_Source\PSoC6\pdl\drivers\peripheral\i2s/cy_i2s.c ****                                    _VAL2FLD(I2S_RX_CTL_CH_LEN, channelLength) |
 560              		.loc 1 139 0
 561 02aa 1343     		orrs	r3, r2
 141:Generated_Source\PSoC6\pdl\drivers\peripheral\i2s/cy_i2s.c ****                                   _BOOL2FLD(I2S_RX_CTL_BIT_EXTENSION, config->rxSignExtension);
 562              		.loc 1 141 0
 563 02ac 2622     		movs	r2, #38
 564 02ae A25C     		ldrb	r2, [r4, r2]
 565 02b0 002A     		cmp	r2, #0
 566 02b2 02D0     		beq	.L55
 567 02b4 8026     		movs	r6, #128
ARM GAS  C:\Users\haske\AppData\Local\Temp\ccmgjESD.s 			page 14


 568 02b6 3604     		lsls	r6, r6, #16
 569 02b8 00E0     		b	.L32
 570              	.L55:
 571 02ba 0026     		movs	r6, #0
 572              	.L32:
 140:Generated_Source\PSoC6\pdl\drivers\peripheral\i2s/cy_i2s.c ****                                    _VAL2FLD(I2S_RX_CTL_WORD_LEN, config->rxWordLength) |
 573              		.loc 1 140 0
 574 02bc 3343     		orrs	r3, r6
 131:Generated_Source\PSoC6\pdl\drivers\peripheral\i2s/cy_i2s.c ****                                   _BOOL2FLD(I2S_RX_CTL_B_CLOCK_INV, config->rxSdiLatchingTime) |
 575              		.loc 1 131 0
 576 02be A022     		movs	r2, #160
 577 02c0 AB50     		str	r3, [r5, r2]
 578              	.LVL39:
 579              	.L19:
 142:Generated_Source\PSoC6\pdl\drivers\peripheral\i2s/cy_i2s.c ****         }
 143:Generated_Source\PSoC6\pdl\drivers\peripheral\i2s/cy_i2s.c **** 
 144:Generated_Source\PSoC6\pdl\drivers\peripheral\i2s/cy_i2s.c ****         /* The I2S enable setting */
 145:Generated_Source\PSoC6\pdl\drivers\peripheral\i2s/cy_i2s.c ****         if (config->txEnabled)
 580              		.loc 1 145 0
 581 02c2 2378     		ldrb	r3, [r4]
 582 02c4 002B     		cmp	r3, #0
 583 02c6 04D0     		beq	.L33
 146:Generated_Source\PSoC6\pdl\drivers\peripheral\i2s/cy_i2s.c ****         {
 147:Generated_Source\PSoC6\pdl\drivers\peripheral\i2s/cy_i2s.c ****             REG_I2S_CTL(base) |= I2S_CTL_TX_ENABLED_Msk;
 584              		.loc 1 147 0
 585 02c8 2B68     		ldr	r3, [r5]
 586 02ca 8022     		movs	r2, #128
 587 02cc D205     		lsls	r2, r2, #23
 588 02ce 1343     		orrs	r3, r2
 589 02d0 2B60     		str	r3, [r5]
 590              	.L33:
 148:Generated_Source\PSoC6\pdl\drivers\peripheral\i2s/cy_i2s.c ****         }
 149:Generated_Source\PSoC6\pdl\drivers\peripheral\i2s/cy_i2s.c **** 
 150:Generated_Source\PSoC6\pdl\drivers\peripheral\i2s/cy_i2s.c ****         if (config->rxEnabled)
 591              		.loc 1 150 0
 592 02d2 6378     		ldrb	r3, [r4, #1]
 593 02d4 002B     		cmp	r3, #0
 594 02d6 04D0     		beq	.L34
 151:Generated_Source\PSoC6\pdl\drivers\peripheral\i2s/cy_i2s.c ****         {
 152:Generated_Source\PSoC6\pdl\drivers\peripheral\i2s/cy_i2s.c ****             REG_I2S_CTL(base) |= I2S_CTL_RX_ENABLED_Msk;
 595              		.loc 1 152 0
 596 02d8 2B68     		ldr	r3, [r5]
 597 02da 8022     		movs	r2, #128
 598 02dc 1206     		lsls	r2, r2, #24
 599 02de 1343     		orrs	r3, r2
 600 02e0 2B60     		str	r3, [r5]
 601              	.L34:
 153:Generated_Source\PSoC6\pdl\drivers\peripheral\i2s/cy_i2s.c ****         }
 154:Generated_Source\PSoC6\pdl\drivers\peripheral\i2s/cy_i2s.c **** 
 155:Generated_Source\PSoC6\pdl\drivers\peripheral\i2s/cy_i2s.c ****         /* The FIFO setting */
 156:Generated_Source\PSoC6\pdl\drivers\peripheral\i2s/cy_i2s.c ****         if (config->txEnabled)
 602              		.loc 1 156 0
 603 02e2 2378     		ldrb	r3, [r4]
 604 02e4 002B     		cmp	r3, #0
 605 02e6 0CD0     		beq	.L35
 157:Generated_Source\PSoC6\pdl\drivers\peripheral\i2s/cy_i2s.c ****         {
 158:Generated_Source\PSoC6\pdl\drivers\peripheral\i2s/cy_i2s.c ****             REG_I2S_TX_FIFO_CTL(base) = _VAL2FLD(I2S_TX_FIFO_CTL_TRIGGER_LEVEL, config->txFifoTrigg
ARM GAS  C:\Users\haske\AppData\Local\Temp\ccmgjESD.s 			page 15


 606              		.loc 1 158 0
 607 02e8 E27D     		ldrb	r2, [r4, #23]
 608 02ea 8023     		movs	r3, #128
 609 02ec 9B00     		lsls	r3, r3, #2
 610 02ee EA50     		str	r2, [r5, r3]
 159:Generated_Source\PSoC6\pdl\drivers\peripheral\i2s/cy_i2s.c **** 
 160:Generated_Source\PSoC6\pdl\drivers\peripheral\i2s/cy_i2s.c ****             REG_I2S_TR_CTL(base) |= _BOOL2FLD(I2S_TR_CTL_TX_REQ_EN, config->txDmaTrigger);
 611              		.loc 1 160 0
 612 02f0 2B6C     		ldr	r3, [r5, #64]
 613 02f2 A278     		ldrb	r2, [r4, #2]
 614 02f4 002A     		cmp	r2, #0
 615 02f6 01D0     		beq	.L56
 616 02f8 0122     		movs	r2, #1
 617 02fa 00E0     		b	.L36
 618              	.L56:
 619 02fc 0022     		movs	r2, #0
 620              	.L36:
 621              		.loc 1 160 0 is_stmt 0 discriminator 4
 622 02fe 1343     		orrs	r3, r2
 623 0300 2B64     		str	r3, [r5, #64]
 624              	.L35:
 161:Generated_Source\PSoC6\pdl\drivers\peripheral\i2s/cy_i2s.c ****         }
 162:Generated_Source\PSoC6\pdl\drivers\peripheral\i2s/cy_i2s.c **** 
 163:Generated_Source\PSoC6\pdl\drivers\peripheral\i2s/cy_i2s.c ****         if (config->rxEnabled)
 625              		.loc 1 163 0 is_stmt 1
 626 0302 6378     		ldrb	r3, [r4, #1]
 627 0304 002B     		cmp	r3, #0
 628 0306 1BD0     		beq	.L57
 164:Generated_Source\PSoC6\pdl\drivers\peripheral\i2s/cy_i2s.c ****         {
 165:Generated_Source\PSoC6\pdl\drivers\peripheral\i2s/cy_i2s.c ****             REG_I2S_RX_FIFO_CTL(base) = _VAL2FLD(I2S_RX_FIFO_CTL_TRIGGER_LEVEL, config->rxFifoTrigg
 629              		.loc 1 165 0
 630 0308 2723     		movs	r3, #39
 631 030a E25C     		ldrb	r2, [r4, r3]
 632 030c C023     		movs	r3, #192
 633 030e 9B00     		lsls	r3, r3, #2
 634 0310 EA50     		str	r2, [r5, r3]
 166:Generated_Source\PSoC6\pdl\drivers\peripheral\i2s/cy_i2s.c **** 
 167:Generated_Source\PSoC6\pdl\drivers\peripheral\i2s/cy_i2s.c ****             REG_I2S_TR_CTL(base) |= _BOOL2FLD(I2S_TR_CTL_RX_REQ_EN, config->rxDmaTrigger);
 635              		.loc 1 167 0
 636 0312 2B6C     		ldr	r3, [r5, #64]
 637 0314 E278     		ldrb	r2, [r4, #3]
 638 0316 002A     		cmp	r2, #0
 639 0318 02D0     		beq	.L58
 640 031a 8022     		movs	r2, #128
 641 031c 5202     		lsls	r2, r2, #9
 642 031e 00E0     		b	.L37
 643              	.L58:
 644 0320 0022     		movs	r2, #0
 645              	.L37:
 646              		.loc 1 167 0 is_stmt 0 discriminator 4
 647 0322 1343     		orrs	r3, r2
 648 0324 2B64     		str	r3, [r5, #64]
 168:Generated_Source\PSoC6\pdl\drivers\peripheral\i2s/cy_i2s.c ****         }
 169:Generated_Source\PSoC6\pdl\drivers\peripheral\i2s/cy_i2s.c ****         
 170:Generated_Source\PSoC6\pdl\drivers\peripheral\i2s/cy_i2s.c ****         ret = CY_I2S_SUCCESS;
 649              		.loc 1 170 0 is_stmt 1 discriminator 4
 650 0326 0020     		movs	r0, #0
ARM GAS  C:\Users\haske\AppData\Local\Temp\ccmgjESD.s 			page 16


 651 0328 0BE0     		b	.L2
 652              	.LVL40:
 653              	.L38:
 654              	.LBE30:
  41:Generated_Source\PSoC6\pdl\drivers\peripheral\i2s/cy_i2s.c ****     
 655              		.loc 1 41 0
 656 032a 0448     		ldr	r0, .L59+8
 657              	.LVL41:
 658 032c 09E0     		b	.L2
 659              	.LVL42:
 660              	.L39:
 661 032e 0348     		ldr	r0, .L59+8
 662              	.LVL43:
 663 0330 07E0     		b	.L2
 664              	.L60:
 665 0332 C046     		.align	2
 666              	.L59:
 667 0334 00000000 		.word	.LC0
 668 0338 080F0000 		.word	3848
 669 033c 01008200 		.word	8519681
 670              	.LVL44:
 671              	.L57:
 672              	.LBB31:
 673              		.loc 1 170 0
 674 0340 0020     		movs	r0, #0
 675              	.L2:
 676              	.LVL45:
 677              	.LBE31:
 171:Generated_Source\PSoC6\pdl\drivers\peripheral\i2s/cy_i2s.c ****     }
 172:Generated_Source\PSoC6\pdl\drivers\peripheral\i2s/cy_i2s.c **** 
 173:Generated_Source\PSoC6\pdl\drivers\peripheral\i2s/cy_i2s.c ****     return (ret);
 174:Generated_Source\PSoC6\pdl\drivers\peripheral\i2s/cy_i2s.c **** }
 678              		.loc 1 174 0
 679              		@ sp needed
 680              	.LVL46:
 681              	.LVL47:
 682 0342 04BC     		pop	{r2}
 683 0344 9046     		mov	r8, r2
 684 0346 F0BD     		pop	{r4, r5, r6, r7, pc}
 685              		.cfi_endproc
 686              	.LFE107:
 687              		.size	Cy_I2S_Init, .-Cy_I2S_Init
 688              		.section	.text.Cy_I2S_DeInit,"ax",%progbits
 689              		.align	2
 690              		.global	Cy_I2S_DeInit
 691              		.code	16
 692              		.thumb_func
 693              		.type	Cy_I2S_DeInit, %function
 694              	Cy_I2S_DeInit:
 695              	.LFB108:
 175:Generated_Source\PSoC6\pdl\drivers\peripheral\i2s/cy_i2s.c **** 
 176:Generated_Source\PSoC6\pdl\drivers\peripheral\i2s/cy_i2s.c **** 
 177:Generated_Source\PSoC6\pdl\drivers\peripheral\i2s/cy_i2s.c **** /*******************************************************************************
 178:Generated_Source\PSoC6\pdl\drivers\peripheral\i2s/cy_i2s.c **** * Function Name: Cy_I2S_DeInit
 179:Generated_Source\PSoC6\pdl\drivers\peripheral\i2s/cy_i2s.c **** ****************************************************************************//**
 180:Generated_Source\PSoC6\pdl\drivers\peripheral\i2s/cy_i2s.c **** *
 181:Generated_Source\PSoC6\pdl\drivers\peripheral\i2s/cy_i2s.c **** * Uninitializes the I2S module (reverts default register values).
ARM GAS  C:\Users\haske\AppData\Local\Temp\ccmgjESD.s 			page 17


 182:Generated_Source\PSoC6\pdl\drivers\peripheral\i2s/cy_i2s.c **** *
 183:Generated_Source\PSoC6\pdl\drivers\peripheral\i2s/cy_i2s.c **** * \param base The pointer to the I2S instance address.
 184:Generated_Source\PSoC6\pdl\drivers\peripheral\i2s/cy_i2s.c **** *
 185:Generated_Source\PSoC6\pdl\drivers\peripheral\i2s/cy_i2s.c **** * \funcusage
 186:Generated_Source\PSoC6\pdl\drivers\peripheral\i2s/cy_i2s.c **** * \snippet i2s\2.10\snippet\main.c snippet_Cy_I2S_DeInit
 187:Generated_Source\PSoC6\pdl\drivers\peripheral\i2s/cy_i2s.c **** *
 188:Generated_Source\PSoC6\pdl\drivers\peripheral\i2s/cy_i2s.c **** *******************************************************************************/
 189:Generated_Source\PSoC6\pdl\drivers\peripheral\i2s/cy_i2s.c **** void Cy_I2S_DeInit(I2S_Type * base)
 190:Generated_Source\PSoC6\pdl\drivers\peripheral\i2s/cy_i2s.c **** {
 696              		.loc 1 190 0
 697              		.cfi_startproc
 698              		@ args = 0, pretend = 0, frame = 0
 699              		@ frame_needed = 0, uses_anonymous_args = 0
 700              		@ link register save eliminated.
 701              	.LVL48:
 191:Generated_Source\PSoC6\pdl\drivers\peripheral\i2s/cy_i2s.c ****     REG_I2S_INTR_MASK(base) = 0UL; /* Disable interrupts prior to stopping the operation */
 702              		.loc 1 191 0
 703 0000 0023     		movs	r3, #0
 704 0002 0B4A     		ldr	r2, .L62
 705 0004 8350     		str	r3, [r0, r2]
 192:Generated_Source\PSoC6\pdl\drivers\peripheral\i2s/cy_i2s.c ****     REG_I2S_CMD(base) = 0UL;
 706              		.loc 1 192 0
 707 0006 0362     		str	r3, [r0, #32]
 193:Generated_Source\PSoC6\pdl\drivers\peripheral\i2s/cy_i2s.c ****     REG_I2S_TR_CTL(base) = 0UL;
 708              		.loc 1 193 0
 709 0008 0364     		str	r3, [r0, #64]
 194:Generated_Source\PSoC6\pdl\drivers\peripheral\i2s/cy_i2s.c ****     REG_I2S_TX_FIFO_CTL(base) = 0UL;
 710              		.loc 1 194 0
 711 000a 8022     		movs	r2, #128
 712 000c 9200     		lsls	r2, r2, #2
 713 000e 8350     		str	r3, [r0, r2]
 195:Generated_Source\PSoC6\pdl\drivers\peripheral\i2s/cy_i2s.c ****     REG_I2S_RX_FIFO_CTL(base) = 0UL;
 714              		.loc 1 195 0
 715 0010 0132     		adds	r2, r2, #1
 716 0012 FF32     		adds	r2, r2, #255
 717 0014 8350     		str	r3, [r0, r2]
 196:Generated_Source\PSoC6\pdl\drivers\peripheral\i2s/cy_i2s.c ****     REG_I2S_CTL(base) = 0UL;
 718              		.loc 1 196 0
 719 0016 0360     		str	r3, [r0]
 197:Generated_Source\PSoC6\pdl\drivers\peripheral\i2s/cy_i2s.c ****     REG_I2S_TX_CTL(base) = CY_I2S_TX_CTL_DEFAULT;
 720              		.loc 1 197 0
 721 0018 064A     		ldr	r2, .L62+4
 722 001a 8021     		movs	r1, #128
 723 001c 4250     		str	r2, [r0, r1]
 198:Generated_Source\PSoC6\pdl\drivers\peripheral\i2s/cy_i2s.c ****     REG_I2S_RX_CTL(base) = CY_I2S_RX_CTL_DEFAULT;
 724              		.loc 1 198 0
 725 001e 2031     		adds	r1, r1, #32
 726 0020 4250     		str	r2, [r0, r1]
 199:Generated_Source\PSoC6\pdl\drivers\peripheral\i2s/cy_i2s.c ****     REG_I2S_TX_WATCHDOG(base) = 0UL;
 727              		.loc 1 199 0
 728 0022 8422     		movs	r2, #132
 729 0024 8350     		str	r3, [r0, r2]
 200:Generated_Source\PSoC6\pdl\drivers\peripheral\i2s/cy_i2s.c ****     REG_I2S_RX_WATCHDOG(base) = 0UL;
 730              		.loc 1 200 0
 731 0026 2032     		adds	r2, r2, #32
 732 0028 8350     		str	r3, [r0, r2]
 201:Generated_Source\PSoC6\pdl\drivers\peripheral\i2s/cy_i2s.c ****     REG_I2S_CLOCK_CTL(base) = 0UL;
ARM GAS  C:\Users\haske\AppData\Local\Temp\ccmgjESD.s 			page 18


 733              		.loc 1 201 0
 734 002a 0361     		str	r3, [r0, #16]
 202:Generated_Source\PSoC6\pdl\drivers\peripheral\i2s/cy_i2s.c **** }
 735              		.loc 1 202 0
 736              		@ sp needed
 737 002c 7047     		bx	lr
 738              	.L63:
 739 002e C046     		.align	2
 740              	.L62:
 741 0030 080F0000 		.word	3848
 742 0034 10064400 		.word	4458000
 743              		.cfi_endproc
 744              	.LFE108:
 745              		.size	Cy_I2S_DeInit, .-Cy_I2S_DeInit
 746              		.section	.text.Cy_I2S_DeepSleepCallback,"ax",%progbits
 747              		.align	2
 748              		.global	Cy_I2S_DeepSleepCallback
 749              		.code	16
 750              		.thumb_func
 751              		.type	Cy_I2S_DeepSleepCallback, %function
 752              	Cy_I2S_DeepSleepCallback:
 753              	.LFB109:
 203:Generated_Source\PSoC6\pdl\drivers\peripheral\i2s/cy_i2s.c **** 
 204:Generated_Source\PSoC6\pdl\drivers\peripheral\i2s/cy_i2s.c **** 
 205:Generated_Source\PSoC6\pdl\drivers\peripheral\i2s/cy_i2s.c **** /*******************************************************************************
 206:Generated_Source\PSoC6\pdl\drivers\peripheral\i2s/cy_i2s.c **** * Function Name: Cy_I2S_DeepSleepCallback
 207:Generated_Source\PSoC6\pdl\drivers\peripheral\i2s/cy_i2s.c **** ****************************************************************************//**
 208:Generated_Source\PSoC6\pdl\drivers\peripheral\i2s/cy_i2s.c **** *
 209:Generated_Source\PSoC6\pdl\drivers\peripheral\i2s/cy_i2s.c **** * This is a callback function to be used at the application layer to
 210:Generated_Source\PSoC6\pdl\drivers\peripheral\i2s/cy_i2s.c **** * manage an I2S operation during the Deep Sleep cycle. It stores the I2S state 
 211:Generated_Source\PSoC6\pdl\drivers\peripheral\i2s/cy_i2s.c **** * (Tx/Rx enabled/disabled/paused) into the context structure and stops the 
 212:Generated_Source\PSoC6\pdl\drivers\peripheral\i2s/cy_i2s.c **** * communication before entering into Deep Sleep power mode and restores the I2S
 213:Generated_Source\PSoC6\pdl\drivers\peripheral\i2s/cy_i2s.c **** * state after waking up.
 214:Generated_Source\PSoC6\pdl\drivers\peripheral\i2s/cy_i2s.c **** *
 215:Generated_Source\PSoC6\pdl\drivers\peripheral\i2s/cy_i2s.c **** * \param 
 216:Generated_Source\PSoC6\pdl\drivers\peripheral\i2s/cy_i2s.c **** * callbackParams - The pointer to the callback parameters structure, 
 217:Generated_Source\PSoC6\pdl\drivers\peripheral\i2s/cy_i2s.c **** * see \ref cy_stc_syspm_callback_params_t.
 218:Generated_Source\PSoC6\pdl\drivers\peripheral\i2s/cy_i2s.c **** *
 219:Generated_Source\PSoC6\pdl\drivers\peripheral\i2s/cy_i2s.c **** * \param mode
 220:Generated_Source\PSoC6\pdl\drivers\peripheral\i2s/cy_i2s.c **** * Callback mode, see \ref cy_en_syspm_callback_mode_t
 221:Generated_Source\PSoC6\pdl\drivers\peripheral\i2s/cy_i2s.c **** *
 222:Generated_Source\PSoC6\pdl\drivers\peripheral\i2s/cy_i2s.c **** * \return the SysPm callback status \ref cy_en_syspm_status_t.
 223:Generated_Source\PSoC6\pdl\drivers\peripheral\i2s/cy_i2s.c **** *
 224:Generated_Source\PSoC6\pdl\drivers\peripheral\i2s/cy_i2s.c **** * \note Use the \ref cy_stc_i2s_context_t data type for definition of the 
 225:Generated_Source\PSoC6\pdl\drivers\peripheral\i2s/cy_i2s.c **** * *context element of the \ref cy_stc_syspm_callback_params_t structure.
 226:Generated_Source\PSoC6\pdl\drivers\peripheral\i2s/cy_i2s.c **** *
 227:Generated_Source\PSoC6\pdl\drivers\peripheral\i2s/cy_i2s.c **** * \funcusage
 228:Generated_Source\PSoC6\pdl\drivers\peripheral\i2s/cy_i2s.c **** * \snippet i2s\2.10\snippet\main.c snippet_Cy_I2S_DeepSleepCallback
 229:Generated_Source\PSoC6\pdl\drivers\peripheral\i2s/cy_i2s.c **** *
 230:Generated_Source\PSoC6\pdl\drivers\peripheral\i2s/cy_i2s.c **** *******************************************************************************/
 231:Generated_Source\PSoC6\pdl\drivers\peripheral\i2s/cy_i2s.c **** cy_en_syspm_status_t Cy_I2S_DeepSleepCallback (cy_stc_syspm_callback_params_t *callbackParams, cy_e
 232:Generated_Source\PSoC6\pdl\drivers\peripheral\i2s/cy_i2s.c **** {
 754              		.loc 1 232 0
 755              		.cfi_startproc
 756              		@ args = 0, pretend = 0, frame = 0
 757              		@ frame_needed = 0, uses_anonymous_args = 0
 758              	.LVL49:
ARM GAS  C:\Users\haske\AppData\Local\Temp\ccmgjESD.s 			page 19


 759 0000 70B5     		push	{r4, r5, r6, lr}
 760              		.cfi_def_cfa_offset 16
 761              		.cfi_offset 4, -16
 762              		.cfi_offset 5, -12
 763              		.cfi_offset 6, -8
 764              		.cfi_offset 14, -4
 765 0002 0600     		movs	r6, r0
 766 0004 0D00     		movs	r5, r1
 767              	.LVL50:
 233:Generated_Source\PSoC6\pdl\drivers\peripheral\i2s/cy_i2s.c ****     cy_en_syspm_status_t ret = CY_SYSPM_SUCCESS;
 234:Generated_Source\PSoC6\pdl\drivers\peripheral\i2s/cy_i2s.c ****     CY_ASSERT_L1(NULL != callbackParams->context);
 768              		.loc 1 234 0
 769 0006 4368     		ldr	r3, [r0, #4]
 770 0008 002B     		cmp	r3, #0
 771 000a 03D1     		bne	.L65
 772              		.loc 1 234 0 is_stmt 0 discriminator 1
 773 000c EA21     		movs	r1, #234
 774              	.LVL51:
 775 000e 3B48     		ldr	r0, .L80
 776              	.LVL52:
 777 0010 FFF7FEFF 		bl	Cy_SysLib_AssertFailed
 778              	.LVL53:
 779              	.L65:
 235:Generated_Source\PSoC6\pdl\drivers\peripheral\i2s/cy_i2s.c ****     I2S_Type * locBase = (I2S_Type*) callbackParams->base;
 780              		.loc 1 235 0 is_stmt 1
 781 0014 3468     		ldr	r4, [r6]
 782              	.LVL54:
 236:Generated_Source\PSoC6\pdl\drivers\peripheral\i2s/cy_i2s.c ****     uint32_t * locInterruptMask = (uint32_t*) &(((cy_stc_i2s_context_t*)(callbackParams->context))-
 783              		.loc 1 236 0
 784 0016 7668     		ldr	r6, [r6, #4]
 785              	.LVL55:
 237:Generated_Source\PSoC6\pdl\drivers\peripheral\i2s/cy_i2s.c ****     uint32_t * locState = (uint32_t*) &(((cy_stc_i2s_context_t*)(callbackParams->context))->enableS
 238:Generated_Source\PSoC6\pdl\drivers\peripheral\i2s/cy_i2s.c ****     
 239:Generated_Source\PSoC6\pdl\drivers\peripheral\i2s/cy_i2s.c ****     switch(mode)
 786              		.loc 1 239 0
 787 0018 042D     		cmp	r5, #4
 788 001a 0AD0     		beq	.L67
 789 001c 04D8     		bhi	.L68
 790 001e 013D     		subs	r5, r5, #1
 791 0020 EDB2     		uxtb	r5, r5
 792 0022 012D     		cmp	r5, #1
 793 0024 03D9     		bls	.L79
 794 0026 67E0     		b	.L78
 795              	.L68:
 796 0028 082D     		cmp	r5, #8
 797 002a 1BD0     		beq	.L70
 798 002c 64E0     		b	.L78
 799              	.L79:
 233:Generated_Source\PSoC6\pdl\drivers\peripheral\i2s/cy_i2s.c ****     CY_ASSERT_L1(NULL != callbackParams->context);
 800              		.loc 1 233 0
 801 002e 0020     		movs	r0, #0
 802 0030 63E0     		b	.L66
 803              	.L67:
 804              	.LVL56:
 805              	.LBB32:
 806              	.LBB33:
 807              		.file 2 "Generated_Source\\PSoC6\\pdl\\drivers\\peripheral\\i2s\\cy_i2s.h"
ARM GAS  C:\Users\haske\AppData\Local\Temp\ccmgjESD.s 			page 20


   1:Generated_Source\PSoC6\pdl\drivers\peripheral\i2s/cy_i2s.h **** /***************************************************************************//**
   2:Generated_Source\PSoC6\pdl\drivers\peripheral\i2s/cy_i2s.h **** * \file cy_i2s.h
   3:Generated_Source\PSoC6\pdl\drivers\peripheral\i2s/cy_i2s.h **** * \version 2.10
   4:Generated_Source\PSoC6\pdl\drivers\peripheral\i2s/cy_i2s.h **** * 
   5:Generated_Source\PSoC6\pdl\drivers\peripheral\i2s/cy_i2s.h **** * The header file of the I2S driver.
   6:Generated_Source\PSoC6\pdl\drivers\peripheral\i2s/cy_i2s.h **** *
   7:Generated_Source\PSoC6\pdl\drivers\peripheral\i2s/cy_i2s.h **** ********************************************************************************
   8:Generated_Source\PSoC6\pdl\drivers\peripheral\i2s/cy_i2s.h **** * \copyright
   9:Generated_Source\PSoC6\pdl\drivers\peripheral\i2s/cy_i2s.h **** * Copyright 2016-2018, Cypress Semiconductor Corporation. All rights reserved.
  10:Generated_Source\PSoC6\pdl\drivers\peripheral\i2s/cy_i2s.h **** * You may use this file only in accordance with the license, terms, conditions,
  11:Generated_Source\PSoC6\pdl\drivers\peripheral\i2s/cy_i2s.h **** * disclaimers, and limitations in the end user license agreement accompanying
  12:Generated_Source\PSoC6\pdl\drivers\peripheral\i2s/cy_i2s.h **** * the software package with which this file was provided.
  13:Generated_Source\PSoC6\pdl\drivers\peripheral\i2s/cy_i2s.h **** *******************************************************************************/
  14:Generated_Source\PSoC6\pdl\drivers\peripheral\i2s/cy_i2s.h **** 
  15:Generated_Source\PSoC6\pdl\drivers\peripheral\i2s/cy_i2s.h **** /**
  16:Generated_Source\PSoC6\pdl\drivers\peripheral\i2s/cy_i2s.h **** * \addtogroup group_i2s
  17:Generated_Source\PSoC6\pdl\drivers\peripheral\i2s/cy_i2s.h **** * \{
  18:Generated_Source\PSoC6\pdl\drivers\peripheral\i2s/cy_i2s.h **** * The I2S driver provides a function API to manage Inter-IC Sound. 
  19:Generated_Source\PSoC6\pdl\drivers\peripheral\i2s/cy_i2s.h **** *
  20:Generated_Source\PSoC6\pdl\drivers\peripheral\i2s/cy_i2s.h **** * The functions and other declarations used in this driver are in cy_i2s.h. 
  21:Generated_Source\PSoC6\pdl\drivers\peripheral\i2s/cy_i2s.h **** * You can include cy_pdl.h (ModusToolbox only) to get access to all functions 
  22:Generated_Source\PSoC6\pdl\drivers\peripheral\i2s/cy_i2s.h **** * and declarations in the PDL.
  23:Generated_Source\PSoC6\pdl\drivers\peripheral\i2s/cy_i2s.h **** *
  24:Generated_Source\PSoC6\pdl\drivers\peripheral\i2s/cy_i2s.h **** * I2S is used to send digital audio streaming data to external I2S devices,  
  25:Generated_Source\PSoC6\pdl\drivers\peripheral\i2s/cy_i2s.h **** * such as audio codecs or simple DACs. It can also receive digital audio streaming data.
  26:Generated_Source\PSoC6\pdl\drivers\peripheral\i2s/cy_i2s.h **** *
  27:Generated_Source\PSoC6\pdl\drivers\peripheral\i2s/cy_i2s.h **** * Features:
  28:Generated_Source\PSoC6\pdl\drivers\peripheral\i2s/cy_i2s.h **** * * An industry standard NXP I2S interface.
  29:Generated_Source\PSoC6\pdl\drivers\peripheral\i2s/cy_i2s.h **** * * Supports master/slave TX/RX operation.
  30:Generated_Source\PSoC6\pdl\drivers\peripheral\i2s/cy_i2s.h **** * * Programmable Channel/Word Lengths.
  31:Generated_Source\PSoC6\pdl\drivers\peripheral\i2s/cy_i2s.h **** * * Supports External Clock operation.
  32:Generated_Source\PSoC6\pdl\drivers\peripheral\i2s/cy_i2s.h **** *
  33:Generated_Source\PSoC6\pdl\drivers\peripheral\i2s/cy_i2s.h **** * The I2S bus is an industry standard. The hardware interface was 
  34:Generated_Source\PSoC6\pdl\drivers\peripheral\i2s/cy_i2s.h **** * developed by Philips Semiconductors (now NXP Semiconductors). 
  35:Generated_Source\PSoC6\pdl\drivers\peripheral\i2s/cy_i2s.h **** *
  36:Generated_Source\PSoC6\pdl\drivers\peripheral\i2s/cy_i2s.h **** * \section group_i2s_configuration_considerations Configuration Considerations
  37:Generated_Source\PSoC6\pdl\drivers\peripheral\i2s/cy_i2s.h **** *
  38:Generated_Source\PSoC6\pdl\drivers\peripheral\i2s/cy_i2s.h **** * To set up an I2S, provide the configuration parameters in the
  39:Generated_Source\PSoC6\pdl\drivers\peripheral\i2s/cy_i2s.h **** * \ref cy_stc_i2s_config_t structure. 
  40:Generated_Source\PSoC6\pdl\drivers\peripheral\i2s/cy_i2s.h **** * 
  41:Generated_Source\PSoC6\pdl\drivers\peripheral\i2s/cy_i2s.h **** * For example, for Tx configuration, set txEnabled to true, configure
  42:Generated_Source\PSoC6\pdl\drivers\peripheral\i2s/cy_i2s.h **** * txDmaTrigger (depending on whether DMA is going to be used or not), set
  43:Generated_Source\PSoC6\pdl\drivers\peripheral\i2s/cy_i2s.h **** * extClk (if an external clock is used), provide clkDiv, txMasterMode,
  44:Generated_Source\PSoC6\pdl\drivers\peripheral\i2s/cy_i2s.h **** * txAlignment, txChannels (only are is supported in I2S and Left Justified modes)
  45:Generated_Source\PSoC6\pdl\drivers\peripheral\i2s/cy_i2s.h **** * txSdoLatchingTime (for slave mode only), txChannelLength, txWordLength,
  46:Generated_Source\PSoC6\pdl\drivers\peripheral\i2s/cy_i2s.h **** * txWsPulseWidth (for TMD modes only), txWatchdogEnable and txWatchdogValue
  47:Generated_Source\PSoC6\pdl\drivers\peripheral\i2s/cy_i2s.h **** * (both for Slave mode only, and when the watchdog interrupt will be used),
  48:Generated_Source\PSoC6\pdl\drivers\peripheral\i2s/cy_i2s.h **** * either txSckoInversion or txSckiInversion (based on txMasterMode setting),
  49:Generated_Source\PSoC6\pdl\drivers\peripheral\i2s/cy_i2s.h **** * txFifoTriggerLevel (when the Trig interrupt will be used) and txOverheadValue
  50:Generated_Source\PSoC6\pdl\drivers\peripheral\i2s/cy_i2s.h **** * (only when the word length is less than channel length).
  51:Generated_Source\PSoC6\pdl\drivers\peripheral\i2s/cy_i2s.h **** * A similar setup is for the Rx configuration.
  52:Generated_Source\PSoC6\pdl\drivers\peripheral\i2s/cy_i2s.h **** *
  53:Generated_Source\PSoC6\pdl\drivers\peripheral\i2s/cy_i2s.h **** * To initialize the I2S block, call the \ref Cy_I2S_Init function, providing the
  54:Generated_Source\PSoC6\pdl\drivers\peripheral\i2s/cy_i2s.h **** * filled \ref cy_stc_i2s_config_t structure.
  55:Generated_Source\PSoC6\pdl\drivers\peripheral\i2s/cy_i2s.h **** * Before starting the transmission, clear the FIFO \ref Cy_I2S_ClearTxFifo, then
  56:Generated_Source\PSoC6\pdl\drivers\peripheral\i2s/cy_i2s.h **** * fill the first Tx data frame by calling \ref Cy_I2S_WriteTxData once for each
  57:Generated_Source\PSoC6\pdl\drivers\peripheral\i2s/cy_i2s.h **** * channel (e.g. twice for I2S mode with only two channels) with zero data. Then
ARM GAS  C:\Users\haske\AppData\Local\Temp\ccmgjESD.s 			page 21


  58:Generated_Source\PSoC6\pdl\drivers\peripheral\i2s/cy_i2s.h **** * call the \ref Cy_I2S_EnableTx itself.
  59:Generated_Source\PSoC6\pdl\drivers\peripheral\i2s/cy_i2s.h **** * For the reception the sequence is the same except for filling the first data
  60:Generated_Source\PSoC6\pdl\drivers\peripheral\i2s/cy_i2s.h **** * frame. Only clearing RX FIFO is enough.
  61:Generated_Source\PSoC6\pdl\drivers\peripheral\i2s/cy_i2s.h **** *
  62:Generated_Source\PSoC6\pdl\drivers\peripheral\i2s/cy_i2s.h **** * For example:
  63:Generated_Source\PSoC6\pdl\drivers\peripheral\i2s/cy_i2s.h **** * \snippet i2s\2.10\snippet\main.c snippet_Cy_I2S_Init
  64:Generated_Source\PSoC6\pdl\drivers\peripheral\i2s/cy_i2s.h **** * 
  65:Generated_Source\PSoC6\pdl\drivers\peripheral\i2s/cy_i2s.h **** * If you use a DMA, the DMA channel should be previously configured. The I2S interrupts 
  66:Generated_Source\PSoC6\pdl\drivers\peripheral\i2s/cy_i2s.h **** * (if applicable) can be enabled by calling \ref Cy_I2S_SetInterruptMask.
  67:Generated_Source\PSoC6\pdl\drivers\peripheral\i2s/cy_i2s.h **** *
  68:Generated_Source\PSoC6\pdl\drivers\peripheral\i2s/cy_i2s.h **** * For example, if the trigger interrupt is used during operation, the ISR
  69:Generated_Source\PSoC6\pdl\drivers\peripheral\i2s/cy_i2s.h **** * should call the \ref Cy_I2S_WriteTxData as many times as required for your 
  70:Generated_Source\PSoC6\pdl\drivers\peripheral\i2s/cy_i2s.h **** * FIFO payload, but not more than the FIFO size. Then call \ref Cy_I2S_ClearInterrupt 
  71:Generated_Source\PSoC6\pdl\drivers\peripheral\i2s/cy_i2s.h **** * with appropriate parameters.
  72:Generated_Source\PSoC6\pdl\drivers\peripheral\i2s/cy_i2s.h **** *
  73:Generated_Source\PSoC6\pdl\drivers\peripheral\i2s/cy_i2s.h **** * The I2S/Left Justified data formats always contains two data channels.
  74:Generated_Source\PSoC6\pdl\drivers\peripheral\i2s/cy_i2s.h **** * They are ordered one-by-one in the FIFOs and left always goes first.
  75:Generated_Source\PSoC6\pdl\drivers\peripheral\i2s/cy_i2s.h **** * So in case of mono audio stream transmission, each sample can be put twice
  76:Generated_Source\PSoC6\pdl\drivers\peripheral\i2s/cy_i2s.h **** * into the TX FIFO (in this case both channels will sound the same),
  77:Generated_Source\PSoC6\pdl\drivers\peripheral\i2s/cy_i2s.h **** * or combined with zeroes: sample1-zero-sample2-zero (in this case only the
  78:Generated_Source\PSoC6\pdl\drivers\peripheral\i2s/cy_i2s.h **** * left channel will finally sound, for a right-only case, zero should go first).
  79:Generated_Source\PSoC6\pdl\drivers\peripheral\i2s/cy_i2s.h **** * The TDM frame word order in FIFOs is similar, one-by-one.
  80:Generated_Source\PSoC6\pdl\drivers\peripheral\i2s/cy_i2s.h **** * 
  81:Generated_Source\PSoC6\pdl\drivers\peripheral\i2s/cy_i2s.h **** * If a DMA is used and the DMA channel is properly configured - no CPU activity
  82:Generated_Source\PSoC6\pdl\drivers\peripheral\i2s/cy_i2s.h **** * (or any application code) is needed for I2S operation.
  83:Generated_Source\PSoC6\pdl\drivers\peripheral\i2s/cy_i2s.h **** *
  84:Generated_Source\PSoC6\pdl\drivers\peripheral\i2s/cy_i2s.h **** * The I2S frame appears as:
  85:Generated_Source\PSoC6\pdl\drivers\peripheral\i2s/cy_i2s.h **** * \image html i2s_frame.png
  86:Generated_Source\PSoC6\pdl\drivers\peripheral\i2s/cy_i2s.h **** * This is an example for the channel length = 32. A similar case exists for the rest
  87:Generated_Source\PSoC6\pdl\drivers\peripheral\i2s/cy_i2s.h **** * channel lengths, with one limitation: the word length could be less than or equal
  88:Generated_Source\PSoC6\pdl\drivers\peripheral\i2s/cy_i2s.h **** * to the channel length. See the device technical reference manual (TRM)
  89:Generated_Source\PSoC6\pdl\drivers\peripheral\i2s/cy_i2s.h **** * for more details.
  90:Generated_Source\PSoC6\pdl\drivers\peripheral\i2s/cy_i2s.h **** *
  91:Generated_Source\PSoC6\pdl\drivers\peripheral\i2s/cy_i2s.h **** * \section group_i2s_more_information More Information
  92:Generated_Source\PSoC6\pdl\drivers\peripheral\i2s/cy_i2s.h **** * See: the the I2S chapter of the device technical reference manual (TRM);
  93:Generated_Source\PSoC6\pdl\drivers\peripheral\i2s/cy_i2s.h **** *      I2S_PDL Component datasheet;
  94:Generated_Source\PSoC6\pdl\drivers\peripheral\i2s/cy_i2s.h **** *      CE218636 - PSOC 6 MCU INTER-IC SOUND (I2S) EXAMPLE.
  95:Generated_Source\PSoC6\pdl\drivers\peripheral\i2s/cy_i2s.h **** *
  96:Generated_Source\PSoC6\pdl\drivers\peripheral\i2s/cy_i2s.h **** * \section group_i2s_MISRA MISRA-C Compliance
  97:Generated_Source\PSoC6\pdl\drivers\peripheral\i2s/cy_i2s.h **** * The I2S driver has the following specific deviations:
  98:Generated_Source\PSoC6\pdl\drivers\peripheral\i2s/cy_i2s.h **** * <table class="doxtable">
  99:Generated_Source\PSoC6\pdl\drivers\peripheral\i2s/cy_i2s.h **** *   <tr>
 100:Generated_Source\PSoC6\pdl\drivers\peripheral\i2s/cy_i2s.h **** *     <th>MISRA Rule</th>
 101:Generated_Source\PSoC6\pdl\drivers\peripheral\i2s/cy_i2s.h **** *     <th>Rule Class (Required/Advisory)</th>
 102:Generated_Source\PSoC6\pdl\drivers\peripheral\i2s/cy_i2s.h **** *     <th>Rule Description</th>
 103:Generated_Source\PSoC6\pdl\drivers\peripheral\i2s/cy_i2s.h **** *     <th>Description of Deviation(s)</th>
 104:Generated_Source\PSoC6\pdl\drivers\peripheral\i2s/cy_i2s.h **** *   </tr>
 105:Generated_Source\PSoC6\pdl\drivers\peripheral\i2s/cy_i2s.h **** *   <tr>
 106:Generated_Source\PSoC6\pdl\drivers\peripheral\i2s/cy_i2s.h **** *     <td>11.4</td>
 107:Generated_Source\PSoC6\pdl\drivers\peripheral\i2s/cy_i2s.h **** *     <td>A</td>
 108:Generated_Source\PSoC6\pdl\drivers\peripheral\i2s/cy_i2s.h **** *     <td>A cast should not be performed between a pointer to the object type and
 109:Generated_Source\PSoC6\pdl\drivers\peripheral\i2s/cy_i2s.h **** *         a different pointer to the object type.</td>
 110:Generated_Source\PSoC6\pdl\drivers\peripheral\i2s/cy_i2s.h **** *     <td>The function \ref Cy_I2S_DeepSleepCallback is a callback of
 111:Generated_Source\PSoC6\pdl\drivers\peripheral\i2s/cy_i2s.h **** *         \ref cy_en_syspm_status_t type. The cast operation safety in this
 112:Generated_Source\PSoC6\pdl\drivers\peripheral\i2s/cy_i2s.h **** *         function becomes the user responsibility because the pointer is
 113:Generated_Source\PSoC6\pdl\drivers\peripheral\i2s/cy_i2s.h **** *         initialized when a callback is registered in the SysPm driver.</td>
 114:Generated_Source\PSoC6\pdl\drivers\peripheral\i2s/cy_i2s.h **** *   </tr>
ARM GAS  C:\Users\haske\AppData\Local\Temp\ccmgjESD.s 			page 22


 115:Generated_Source\PSoC6\pdl\drivers\peripheral\i2s/cy_i2s.h **** * </table>
 116:Generated_Source\PSoC6\pdl\drivers\peripheral\i2s/cy_i2s.h **** *
 117:Generated_Source\PSoC6\pdl\drivers\peripheral\i2s/cy_i2s.h **** * \section group_i2s_changelog Changelog
 118:Generated_Source\PSoC6\pdl\drivers\peripheral\i2s/cy_i2s.h **** * <table class="doxtable">
 119:Generated_Source\PSoC6\pdl\drivers\peripheral\i2s/cy_i2s.h **** *   <tr><th>Version</th><th>Changes</th><th>Reason for Change</th></tr>
 120:Generated_Source\PSoC6\pdl\drivers\peripheral\i2s/cy_i2s.h **** *   <tr>
 121:Generated_Source\PSoC6\pdl\drivers\peripheral\i2s/cy_i2s.h **** *     <td rowspan="2">2.10</td>
 122:Generated_Source\PSoC6\pdl\drivers\peripheral\i2s/cy_i2s.h **** *     <td>Flattened the organization of the driver source code into the single 
 123:Generated_Source\PSoC6\pdl\drivers\peripheral\i2s/cy_i2s.h **** *         source directory and the single include directory.
 124:Generated_Source\PSoC6\pdl\drivers\peripheral\i2s/cy_i2s.h **** *     </td>
 125:Generated_Source\PSoC6\pdl\drivers\peripheral\i2s/cy_i2s.h **** *     <td>Driver library directory-structure simplification.</td>
 126:Generated_Source\PSoC6\pdl\drivers\peripheral\i2s/cy_i2s.h **** *   </tr>
 127:Generated_Source\PSoC6\pdl\drivers\peripheral\i2s/cy_i2s.h **** *   <tr>
 128:Generated_Source\PSoC6\pdl\drivers\peripheral\i2s/cy_i2s.h **** *     <td>Added register access layer. Use register access macros instead
 129:Generated_Source\PSoC6\pdl\drivers\peripheral\i2s/cy_i2s.h **** *         of direct register access using dereferenced pointers.</td>
 130:Generated_Source\PSoC6\pdl\drivers\peripheral\i2s/cy_i2s.h **** *     <td>Makes register access device-independent, so that the PDL does 
 131:Generated_Source\PSoC6\pdl\drivers\peripheral\i2s/cy_i2s.h **** *         not need to be recompiled for each supported part number.</td>
 132:Generated_Source\PSoC6\pdl\drivers\peripheral\i2s/cy_i2s.h **** *   </tr>
 133:Generated_Source\PSoC6\pdl\drivers\peripheral\i2s/cy_i2s.h **** *   <tr>
 134:Generated_Source\PSoC6\pdl\drivers\peripheral\i2s/cy_i2s.h **** *     <td>2.0.1</td>
 135:Generated_Source\PSoC6\pdl\drivers\peripheral\i2s/cy_i2s.h **** *     <td>Added Low Power Callback section</td>
 136:Generated_Source\PSoC6\pdl\drivers\peripheral\i2s/cy_i2s.h **** *     <td>Documentation update and clarification</td>
 137:Generated_Source\PSoC6\pdl\drivers\peripheral\i2s/cy_i2s.h **** *   </tr>
 138:Generated_Source\PSoC6\pdl\drivers\peripheral\i2s/cy_i2s.h **** *   <tr>
 139:Generated_Source\PSoC6\pdl\drivers\peripheral\i2s/cy_i2s.h **** *     <td>2.0</td>
 140:Generated_Source\PSoC6\pdl\drivers\peripheral\i2s/cy_i2s.h **** *     <td>The slave operation is added, Left Justified and TDM modes are added</td>
 141:Generated_Source\PSoC6\pdl\drivers\peripheral\i2s/cy_i2s.h **** *     <td></td>
 142:Generated_Source\PSoC6\pdl\drivers\peripheral\i2s/cy_i2s.h **** *   </tr>
 143:Generated_Source\PSoC6\pdl\drivers\peripheral\i2s/cy_i2s.h **** *   <tr>
 144:Generated_Source\PSoC6\pdl\drivers\peripheral\i2s/cy_i2s.h **** *     <td>1.0</td>
 145:Generated_Source\PSoC6\pdl\drivers\peripheral\i2s/cy_i2s.h **** *     <td>Initial version</td>
 146:Generated_Source\PSoC6\pdl\drivers\peripheral\i2s/cy_i2s.h **** *     <td></td>
 147:Generated_Source\PSoC6\pdl\drivers\peripheral\i2s/cy_i2s.h **** *   </tr>
 148:Generated_Source\PSoC6\pdl\drivers\peripheral\i2s/cy_i2s.h **** * </table>
 149:Generated_Source\PSoC6\pdl\drivers\peripheral\i2s/cy_i2s.h **** *
 150:Generated_Source\PSoC6\pdl\drivers\peripheral\i2s/cy_i2s.h **** * \defgroup group_i2s_macros Macros
 151:Generated_Source\PSoC6\pdl\drivers\peripheral\i2s/cy_i2s.h **** * \defgroup group_i2s_functions Functions
 152:Generated_Source\PSoC6\pdl\drivers\peripheral\i2s/cy_i2s.h **** *   \{
 153:Generated_Source\PSoC6\pdl\drivers\peripheral\i2s/cy_i2s.h **** *       \defgroup group_i2s_functions_syspm_callback  Low Power Callback
 154:Generated_Source\PSoC6\pdl\drivers\peripheral\i2s/cy_i2s.h **** *   \}
 155:Generated_Source\PSoC6\pdl\drivers\peripheral\i2s/cy_i2s.h **** * \defgroup group_i2s_data_structures Data Structures
 156:Generated_Source\PSoC6\pdl\drivers\peripheral\i2s/cy_i2s.h **** * \defgroup group_i2s_enums Enumerated Types
 157:Generated_Source\PSoC6\pdl\drivers\peripheral\i2s/cy_i2s.h **** */
 158:Generated_Source\PSoC6\pdl\drivers\peripheral\i2s/cy_i2s.h **** 
 159:Generated_Source\PSoC6\pdl\drivers\peripheral\i2s/cy_i2s.h **** 
 160:Generated_Source\PSoC6\pdl\drivers\peripheral\i2s/cy_i2s.h **** #if !defined CY_I2S_H
 161:Generated_Source\PSoC6\pdl\drivers\peripheral\i2s/cy_i2s.h **** #define CY_I2S_H
 162:Generated_Source\PSoC6\pdl\drivers\peripheral\i2s/cy_i2s.h **** 
 163:Generated_Source\PSoC6\pdl\drivers\peripheral\i2s/cy_i2s.h **** #include <stddef.h>
 164:Generated_Source\PSoC6\pdl\drivers\peripheral\i2s/cy_i2s.h **** #include <stdbool.h>
 165:Generated_Source\PSoC6\pdl\drivers\peripheral\i2s/cy_i2s.h **** #include "cy_device.h"
 166:Generated_Source\PSoC6\pdl\drivers\peripheral\i2s/cy_i2s.h **** #include "cy_syslib.h"
 167:Generated_Source\PSoC6\pdl\drivers\peripheral\i2s/cy_i2s.h **** #include "cy_syspm.h"
 168:Generated_Source\PSoC6\pdl\drivers\peripheral\i2s/cy_i2s.h **** 
 169:Generated_Source\PSoC6\pdl\drivers\peripheral\i2s/cy_i2s.h **** #ifdef CY_IP_MXAUDIOSS
 170:Generated_Source\PSoC6\pdl\drivers\peripheral\i2s/cy_i2s.h **** 
 171:Generated_Source\PSoC6\pdl\drivers\peripheral\i2s/cy_i2s.h **** #ifdef __cplusplus
ARM GAS  C:\Users\haske\AppData\Local\Temp\ccmgjESD.s 			page 23


 172:Generated_Source\PSoC6\pdl\drivers\peripheral\i2s/cy_i2s.h **** extern "C" {
 173:Generated_Source\PSoC6\pdl\drivers\peripheral\i2s/cy_i2s.h **** #endif
 174:Generated_Source\PSoC6\pdl\drivers\peripheral\i2s/cy_i2s.h **** 
 175:Generated_Source\PSoC6\pdl\drivers\peripheral\i2s/cy_i2s.h **** /** \addtogroup group_i2s_macros
 176:Generated_Source\PSoC6\pdl\drivers\peripheral\i2s/cy_i2s.h **** * \{
 177:Generated_Source\PSoC6\pdl\drivers\peripheral\i2s/cy_i2s.h **** */
 178:Generated_Source\PSoC6\pdl\drivers\peripheral\i2s/cy_i2s.h **** 
 179:Generated_Source\PSoC6\pdl\drivers\peripheral\i2s/cy_i2s.h **** /** The driver major version */
 180:Generated_Source\PSoC6\pdl\drivers\peripheral\i2s/cy_i2s.h **** #define CY_I2S_DRV_VERSION_MAJOR       2
 181:Generated_Source\PSoC6\pdl\drivers\peripheral\i2s/cy_i2s.h **** 
 182:Generated_Source\PSoC6\pdl\drivers\peripheral\i2s/cy_i2s.h **** /** The driver minor version */
 183:Generated_Source\PSoC6\pdl\drivers\peripheral\i2s/cy_i2s.h **** #define CY_I2S_DRV_VERSION_MINOR       10
 184:Generated_Source\PSoC6\pdl\drivers\peripheral\i2s/cy_i2s.h **** 
 185:Generated_Source\PSoC6\pdl\drivers\peripheral\i2s/cy_i2s.h **** /** The I2S driver identifier */
 186:Generated_Source\PSoC6\pdl\drivers\peripheral\i2s/cy_i2s.h **** #define CY_I2S_ID                      (CY_PDL_DRV_ID(0x20U))
 187:Generated_Source\PSoC6\pdl\drivers\peripheral\i2s/cy_i2s.h **** 
 188:Generated_Source\PSoC6\pdl\drivers\peripheral\i2s/cy_i2s.h **** /**
 189:Generated_Source\PSoC6\pdl\drivers\peripheral\i2s/cy_i2s.h **** * \defgroup group_i2s_macros_interrupt_masks Interrupt Masks
 190:Generated_Source\PSoC6\pdl\drivers\peripheral\i2s/cy_i2s.h **** * \{
 191:Generated_Source\PSoC6\pdl\drivers\peripheral\i2s/cy_i2s.h **** */
 192:Generated_Source\PSoC6\pdl\drivers\peripheral\i2s/cy_i2s.h **** 
 193:Generated_Source\PSoC6\pdl\drivers\peripheral\i2s/cy_i2s.h **** /** Bit 0: Less entries in the TX FIFO than specified by Trigger Level. */
 194:Generated_Source\PSoC6\pdl\drivers\peripheral\i2s/cy_i2s.h **** #define CY_I2S_INTR_TX_TRIGGER         (I2S_INTR_TX_TRIGGER_Msk)
 195:Generated_Source\PSoC6\pdl\drivers\peripheral\i2s/cy_i2s.h **** /** Bit 1: TX FIFO is not full. */
 196:Generated_Source\PSoC6\pdl\drivers\peripheral\i2s/cy_i2s.h **** #define CY_I2S_INTR_TX_NOT_FULL        (I2S_INTR_TX_NOT_FULL_Msk)
 197:Generated_Source\PSoC6\pdl\drivers\peripheral\i2s/cy_i2s.h **** /** Bit 4: TX FIFO is empty, i.e. it has 0 entries. */
 198:Generated_Source\PSoC6\pdl\drivers\peripheral\i2s/cy_i2s.h **** #define CY_I2S_INTR_TX_EMPTY           (I2S_INTR_TX_EMPTY_Msk)
 199:Generated_Source\PSoC6\pdl\drivers\peripheral\i2s/cy_i2s.h **** /** Bit 5: Attempt to write to a full TX FIFO. */
 200:Generated_Source\PSoC6\pdl\drivers\peripheral\i2s/cy_i2s.h **** #define CY_I2S_INTR_TX_OVERFLOW        (I2S_INTR_TX_OVERFLOW_Msk)
 201:Generated_Source\PSoC6\pdl\drivers\peripheral\i2s/cy_i2s.h **** /** Bit 6: Attempt to read from an empty TX FIFO.
 202:Generated_Source\PSoC6\pdl\drivers\peripheral\i2s/cy_i2s.h **** * This happens when the IP is ready to transfer data and TX_EMPTY is '1'. */
 203:Generated_Source\PSoC6\pdl\drivers\peripheral\i2s/cy_i2s.h **** #define CY_I2S_INTR_TX_UNDERFLOW       (I2S_INTR_TX_UNDERFLOW_Msk)
 204:Generated_Source\PSoC6\pdl\drivers\peripheral\i2s/cy_i2s.h **** /** Bit 8: Tx watchdog event occurs. */
 205:Generated_Source\PSoC6\pdl\drivers\peripheral\i2s/cy_i2s.h **** #define CY_I2S_INTR_TX_WD              (I2S_INTR_TX_WD_Msk)
 206:Generated_Source\PSoC6\pdl\drivers\peripheral\i2s/cy_i2s.h **** /** Bit 16: More entries in the RX FIFO than specified by Trigger Level. */
 207:Generated_Source\PSoC6\pdl\drivers\peripheral\i2s/cy_i2s.h **** #define CY_I2S_INTR_RX_TRIGGER         (I2S_INTR_RX_TRIGGER_Msk)
 208:Generated_Source\PSoC6\pdl\drivers\peripheral\i2s/cy_i2s.h **** /** Bit 18: RX FIFO is not empty. */
 209:Generated_Source\PSoC6\pdl\drivers\peripheral\i2s/cy_i2s.h **** #define CY_I2S_INTR_RX_NOT_EMPTY       (I2S_INTR_RX_NOT_EMPTY_Msk)
 210:Generated_Source\PSoC6\pdl\drivers\peripheral\i2s/cy_i2s.h **** /** Bit 19: RX FIFO is full. */
 211:Generated_Source\PSoC6\pdl\drivers\peripheral\i2s/cy_i2s.h **** #define CY_I2S_INTR_RX_FULL            (I2S_INTR_RX_FULL_Msk)
 212:Generated_Source\PSoC6\pdl\drivers\peripheral\i2s/cy_i2s.h **** /** Bit 21: Attempt to write to a full RX FIFO. */
 213:Generated_Source\PSoC6\pdl\drivers\peripheral\i2s/cy_i2s.h **** #define CY_I2S_INTR_RX_OVERFLOW        (I2S_INTR_RX_OVERFLOW_Msk)
 214:Generated_Source\PSoC6\pdl\drivers\peripheral\i2s/cy_i2s.h **** /** Bit 22: Attempt to read from an empty RX FIFO. */
 215:Generated_Source\PSoC6\pdl\drivers\peripheral\i2s/cy_i2s.h **** #define CY_I2S_INTR_RX_UNDERFLOW       (I2S_INTR_RX_UNDERFLOW_Msk)
 216:Generated_Source\PSoC6\pdl\drivers\peripheral\i2s/cy_i2s.h **** /** Bit 24: Rx watchdog event occurs. */
 217:Generated_Source\PSoC6\pdl\drivers\peripheral\i2s/cy_i2s.h **** #define CY_I2S_INTR_RX_WD              (I2S_INTR_RX_WD_Msk)
 218:Generated_Source\PSoC6\pdl\drivers\peripheral\i2s/cy_i2s.h **** 
 219:Generated_Source\PSoC6\pdl\drivers\peripheral\i2s/cy_i2s.h **** /** \} group_i2s_macros_interrupt_masks */
 220:Generated_Source\PSoC6\pdl\drivers\peripheral\i2s/cy_i2s.h **** 
 221:Generated_Source\PSoC6\pdl\drivers\peripheral\i2s/cy_i2s.h **** 
 222:Generated_Source\PSoC6\pdl\drivers\peripheral\i2s/cy_i2s.h **** /**
 223:Generated_Source\PSoC6\pdl\drivers\peripheral\i2s/cy_i2s.h **** * \defgroup group_i2s_macros_current_state Current State
 224:Generated_Source\PSoC6\pdl\drivers\peripheral\i2s/cy_i2s.h **** * \{
 225:Generated_Source\PSoC6\pdl\drivers\peripheral\i2s/cy_i2s.h **** */
 226:Generated_Source\PSoC6\pdl\drivers\peripheral\i2s/cy_i2s.h **** 
 227:Generated_Source\PSoC6\pdl\drivers\peripheral\i2s/cy_i2s.h **** /** Transmission is active */ 
 228:Generated_Source\PSoC6\pdl\drivers\peripheral\i2s/cy_i2s.h **** #define CY_I2S_TX_START                (I2S_CMD_TX_START_Msk)
ARM GAS  C:\Users\haske\AppData\Local\Temp\ccmgjESD.s 			page 24


 229:Generated_Source\PSoC6\pdl\drivers\peripheral\i2s/cy_i2s.h **** /** Transmission is paused */
 230:Generated_Source\PSoC6\pdl\drivers\peripheral\i2s/cy_i2s.h **** #define CY_I2S_TX_PAUSE                (I2S_CMD_TX_PAUSE_Msk)
 231:Generated_Source\PSoC6\pdl\drivers\peripheral\i2s/cy_i2s.h **** /** Reception is active */
 232:Generated_Source\PSoC6\pdl\drivers\peripheral\i2s/cy_i2s.h **** #define CY_I2S_RX_START                (I2S_CMD_RX_START_Msk)
 233:Generated_Source\PSoC6\pdl\drivers\peripheral\i2s/cy_i2s.h **** 
 234:Generated_Source\PSoC6\pdl\drivers\peripheral\i2s/cy_i2s.h **** /** \} group_i2s_macros_current_state */
 235:Generated_Source\PSoC6\pdl\drivers\peripheral\i2s/cy_i2s.h **** 
 236:Generated_Source\PSoC6\pdl\drivers\peripheral\i2s/cy_i2s.h **** /** \} group_i2s_macros */
 237:Generated_Source\PSoC6\pdl\drivers\peripheral\i2s/cy_i2s.h **** 
 238:Generated_Source\PSoC6\pdl\drivers\peripheral\i2s/cy_i2s.h **** /**
 239:Generated_Source\PSoC6\pdl\drivers\peripheral\i2s/cy_i2s.h **** * \addtogroup group_i2s_enums
 240:Generated_Source\PSoC6\pdl\drivers\peripheral\i2s/cy_i2s.h **** * \{
 241:Generated_Source\PSoC6\pdl\drivers\peripheral\i2s/cy_i2s.h **** */
 242:Generated_Source\PSoC6\pdl\drivers\peripheral\i2s/cy_i2s.h **** 
 243:Generated_Source\PSoC6\pdl\drivers\peripheral\i2s/cy_i2s.h **** /**
 244:Generated_Source\PSoC6\pdl\drivers\peripheral\i2s/cy_i2s.h **** * I2S status definitions.
 245:Generated_Source\PSoC6\pdl\drivers\peripheral\i2s/cy_i2s.h **** */
 246:Generated_Source\PSoC6\pdl\drivers\peripheral\i2s/cy_i2s.h **** 
 247:Generated_Source\PSoC6\pdl\drivers\peripheral\i2s/cy_i2s.h **** typedef enum 
 248:Generated_Source\PSoC6\pdl\drivers\peripheral\i2s/cy_i2s.h **** {
 249:Generated_Source\PSoC6\pdl\drivers\peripheral\i2s/cy_i2s.h ****     CY_I2S_SUCCESS   = 0x00UL, /**< Successful. */
 250:Generated_Source\PSoC6\pdl\drivers\peripheral\i2s/cy_i2s.h ****     CY_I2S_BAD_PARAM = CY_I2S_ID | CY_PDL_STATUS_ERROR | 0x01UL /**< One or more invalid parameters
 251:Generated_Source\PSoC6\pdl\drivers\peripheral\i2s/cy_i2s.h **** } cy_en_i2s_status_t;
 252:Generated_Source\PSoC6\pdl\drivers\peripheral\i2s/cy_i2s.h **** 
 253:Generated_Source\PSoC6\pdl\drivers\peripheral\i2s/cy_i2s.h **** 
 254:Generated_Source\PSoC6\pdl\drivers\peripheral\i2s/cy_i2s.h **** /**
 255:Generated_Source\PSoC6\pdl\drivers\peripheral\i2s/cy_i2s.h **** * I2S data alignment.
 256:Generated_Source\PSoC6\pdl\drivers\peripheral\i2s/cy_i2s.h **** */
 257:Generated_Source\PSoC6\pdl\drivers\peripheral\i2s/cy_i2s.h **** typedef enum
 258:Generated_Source\PSoC6\pdl\drivers\peripheral\i2s/cy_i2s.h **** {
 259:Generated_Source\PSoC6\pdl\drivers\peripheral\i2s/cy_i2s.h ****     CY_I2S_LEFT_JUSTIFIED = 0U, /**< Left justified. */
 260:Generated_Source\PSoC6\pdl\drivers\peripheral\i2s/cy_i2s.h ****     CY_I2S_I2S_MODE       = 1U, /**< I2S mode. */
 261:Generated_Source\PSoC6\pdl\drivers\peripheral\i2s/cy_i2s.h ****     CY_I2S_TDM_MODE_A     = 2U, /**< TDM mode A. */
 262:Generated_Source\PSoC6\pdl\drivers\peripheral\i2s/cy_i2s.h ****     CY_I2S_TDM_MODE_B     = 3U  /**< TDM mode B. */
 263:Generated_Source\PSoC6\pdl\drivers\peripheral\i2s/cy_i2s.h **** } cy_en_i2s_alignment_t;
 264:Generated_Source\PSoC6\pdl\drivers\peripheral\i2s/cy_i2s.h **** 
 265:Generated_Source\PSoC6\pdl\drivers\peripheral\i2s/cy_i2s.h **** /**
 266:Generated_Source\PSoC6\pdl\drivers\peripheral\i2s/cy_i2s.h **** * I2S channel/word length.
 267:Generated_Source\PSoC6\pdl\drivers\peripheral\i2s/cy_i2s.h **** */
 268:Generated_Source\PSoC6\pdl\drivers\peripheral\i2s/cy_i2s.h **** typedef enum
 269:Generated_Source\PSoC6\pdl\drivers\peripheral\i2s/cy_i2s.h **** {
 270:Generated_Source\PSoC6\pdl\drivers\peripheral\i2s/cy_i2s.h ****     CY_I2S_LEN8  = 0U, /**< Channel/word length:  8 bit. */
 271:Generated_Source\PSoC6\pdl\drivers\peripheral\i2s/cy_i2s.h ****     CY_I2S_LEN16 = 1U, /**< Channel/Word length: 16 bit. */
 272:Generated_Source\PSoC6\pdl\drivers\peripheral\i2s/cy_i2s.h ****     CY_I2S_LEN18 = 2U, /**< Channel/Word length: 18 bit. */
 273:Generated_Source\PSoC6\pdl\drivers\peripheral\i2s/cy_i2s.h ****     CY_I2S_LEN20 = 3U, /**< Channel/Word length: 20 bit. */
 274:Generated_Source\PSoC6\pdl\drivers\peripheral\i2s/cy_i2s.h ****     CY_I2S_LEN24 = 4U, /**< Channel/Word length: 24 bit. */
 275:Generated_Source\PSoC6\pdl\drivers\peripheral\i2s/cy_i2s.h ****     CY_I2S_LEN32 = 5U  /**< Channel/Word length: 32 bit. */
 276:Generated_Source\PSoC6\pdl\drivers\peripheral\i2s/cy_i2s.h **** } cy_en_i2s_len_t;
 277:Generated_Source\PSoC6\pdl\drivers\peripheral\i2s/cy_i2s.h **** 
 278:Generated_Source\PSoC6\pdl\drivers\peripheral\i2s/cy_i2s.h **** /**
 279:Generated_Source\PSoC6\pdl\drivers\peripheral\i2s/cy_i2s.h **** * I2S TX overhead value.
 280:Generated_Source\PSoC6\pdl\drivers\peripheral\i2s/cy_i2s.h **** */
 281:Generated_Source\PSoC6\pdl\drivers\peripheral\i2s/cy_i2s.h **** typedef enum
 282:Generated_Source\PSoC6\pdl\drivers\peripheral\i2s/cy_i2s.h **** {
 283:Generated_Source\PSoC6\pdl\drivers\peripheral\i2s/cy_i2s.h ****     CY_I2S_OVHDATA_ZERO = 0U, /**< Fill overhead bits by zeroes. */
 284:Generated_Source\PSoC6\pdl\drivers\peripheral\i2s/cy_i2s.h ****     CY_I2S_OVHDATA_ONE  = 1U, /**< Fill overhead bits by ones. */
 285:Generated_Source\PSoC6\pdl\drivers\peripheral\i2s/cy_i2s.h **** } cy_en_i2s_overhead_t;
ARM GAS  C:\Users\haske\AppData\Local\Temp\ccmgjESD.s 			page 25


 286:Generated_Source\PSoC6\pdl\drivers\peripheral\i2s/cy_i2s.h **** 
 287:Generated_Source\PSoC6\pdl\drivers\peripheral\i2s/cy_i2s.h **** /**
 288:Generated_Source\PSoC6\pdl\drivers\peripheral\i2s/cy_i2s.h **** * I2S WS pulse width.
 289:Generated_Source\PSoC6\pdl\drivers\peripheral\i2s/cy_i2s.h **** */
 290:Generated_Source\PSoC6\pdl\drivers\peripheral\i2s/cy_i2s.h **** typedef enum
 291:Generated_Source\PSoC6\pdl\drivers\peripheral\i2s/cy_i2s.h **** {
 292:Generated_Source\PSoC6\pdl\drivers\peripheral\i2s/cy_i2s.h ****     CY_I2S_WS_ONE_SCK_CYCLE      = 0U, /**< WS pulse width is one SCK cycle. */
 293:Generated_Source\PSoC6\pdl\drivers\peripheral\i2s/cy_i2s.h ****     CY_I2S_WS_ONE_CHANNEL_LENGTH = 1U, /**< WS pulse width is one channel length. */
 294:Generated_Source\PSoC6\pdl\drivers\peripheral\i2s/cy_i2s.h **** } cy_en_i2s_ws_pw_t;
 295:Generated_Source\PSoC6\pdl\drivers\peripheral\i2s/cy_i2s.h **** 
 296:Generated_Source\PSoC6\pdl\drivers\peripheral\i2s/cy_i2s.h **** /** \} group_i2s_enums */
 297:Generated_Source\PSoC6\pdl\drivers\peripheral\i2s/cy_i2s.h **** 
 298:Generated_Source\PSoC6\pdl\drivers\peripheral\i2s/cy_i2s.h **** /**
 299:Generated_Source\PSoC6\pdl\drivers\peripheral\i2s/cy_i2s.h **** * \addtogroup group_i2s_data_structures
 300:Generated_Source\PSoC6\pdl\drivers\peripheral\i2s/cy_i2s.h **** * \{
 301:Generated_Source\PSoC6\pdl\drivers\peripheral\i2s/cy_i2s.h **** */
 302:Generated_Source\PSoC6\pdl\drivers\peripheral\i2s/cy_i2s.h **** 
 303:Generated_Source\PSoC6\pdl\drivers\peripheral\i2s/cy_i2s.h **** /**
 304:Generated_Source\PSoC6\pdl\drivers\peripheral\i2s/cy_i2s.h **** * I2S initialization configuration.
 305:Generated_Source\PSoC6\pdl\drivers\peripheral\i2s/cy_i2s.h **** */
 306:Generated_Source\PSoC6\pdl\drivers\peripheral\i2s/cy_i2s.h **** typedef struct
 307:Generated_Source\PSoC6\pdl\drivers\peripheral\i2s/cy_i2s.h **** {
 308:Generated_Source\PSoC6\pdl\drivers\peripheral\i2s/cy_i2s.h ****     bool                  txEnabled;          /**< Enables the I2S TX component: 'false': disabled.
 309:Generated_Source\PSoC6\pdl\drivers\peripheral\i2s/cy_i2s.h ****     bool                  rxEnabled;          /**< Enables the I2S RX component: 'false': disabled.
 310:Generated_Source\PSoC6\pdl\drivers\peripheral\i2s/cy_i2s.h ****     bool                  txDmaTrigger;       /**< 'false': TX DMA trigger disabled, 'true': TX DMA
 311:Generated_Source\PSoC6\pdl\drivers\peripheral\i2s/cy_i2s.h ****     bool                  rxDmaTrigger;       /**< 'false': RX DMA trigger disabled, 'true': RX DMA
 312:Generated_Source\PSoC6\pdl\drivers\peripheral\i2s/cy_i2s.h ****     uint8_t               clkDiv;             /**< CLK_SEL divider: 1: Bypass, 2: 1/2, 3: 1/3, ...,
 313:Generated_Source\PSoC6\pdl\drivers\peripheral\i2s/cy_i2s.h ****     bool                  extClk;             /**< 'false': internal clock, 'true': external clock.
 314:Generated_Source\PSoC6\pdl\drivers\peripheral\i2s/cy_i2s.h ****     bool                  txMasterMode;       /**< 'false': TX in slave mode, 'true': TX in master 
 315:Generated_Source\PSoC6\pdl\drivers\peripheral\i2s/cy_i2s.h ****     cy_en_i2s_alignment_t txAlignment;        /**< TX data alignment, see: #cy_en_i2s_alignment_t. 
 316:Generated_Source\PSoC6\pdl\drivers\peripheral\i2s/cy_i2s.h ****     cy_en_i2s_ws_pw_t     txWsPulseWidth;     /**< TX Word Select pulse width.
 317:Generated_Source\PSoC6\pdl\drivers\peripheral\i2s/cy_i2s.h ****                                                    The value of this parameter is ignored in I2S an
 318:Generated_Source\PSoC6\pdl\drivers\peripheral\i2s/cy_i2s.h ****                                                    the WS pulse width is always "one channel length
 319:Generated_Source\PSoC6\pdl\drivers\peripheral\i2s/cy_i2s.h ****     bool                  txWatchdogEnable;   /**< 'false': TX watchdog disabled, 'true': TX watchd
 320:Generated_Source\PSoC6\pdl\drivers\peripheral\i2s/cy_i2s.h ****     uint32_t              txWatchdogValue;    /**< TX watchdog counter value (32 bit). */
 321:Generated_Source\PSoC6\pdl\drivers\peripheral\i2s/cy_i2s.h ****     bool                  txSdoLatchingTime;  /**< 'false': SDO bit starts at falling edge (accordi
 322:Generated_Source\PSoC6\pdl\drivers\peripheral\i2s/cy_i2s.h ****                                                    Standard, if txSckoInversion is false),
 323:Generated_Source\PSoC6\pdl\drivers\peripheral\i2s/cy_i2s.h ****                                                    'true': SDO bit starts at rising edge which goes
 324:Generated_Source\PSoC6\pdl\drivers\peripheral\i2s/cy_i2s.h ****                                                    mentioned falling edge, i.e. the SDO signal is a
 325:Generated_Source\PSoC6\pdl\drivers\peripheral\i2s/cy_i2s.h ****                                                    period (if txSckoInversion is false).
 326:Generated_Source\PSoC6\pdl\drivers\peripheral\i2s/cy_i2s.h ****                                                    If txSckoInversion is true - the rising/falling 
 327:Generated_Source\PSoC6\pdl\drivers\peripheral\i2s/cy_i2s.h ****                                                    in above explanations.
 328:Generated_Source\PSoC6\pdl\drivers\peripheral\i2s/cy_i2s.h ****                                                    Effective only in slave mode, must be false in m
 329:Generated_Source\PSoC6\pdl\drivers\peripheral\i2s/cy_i2s.h ****     bool                  txSckoInversion;    /**< TX SCKO polarity:
 330:Generated_Source\PSoC6\pdl\drivers\peripheral\i2s/cy_i2s.h ****                                                    'false': When transmitter is in master mode, ser
 331:Generated_Source\PSoC6\pdl\drivers\peripheral\i2s/cy_i2s.h ****                                                             transmitted off the falling bit clock e
 332:Generated_Source\PSoC6\pdl\drivers\peripheral\i2s/cy_i2s.h ****                                                             the I2S Standard);
 333:Generated_Source\PSoC6\pdl\drivers\peripheral\i2s/cy_i2s.h ****                                                    'true':  When transmitter is in master mode, ser
 334:Generated_Source\PSoC6\pdl\drivers\peripheral\i2s/cy_i2s.h ****                                                             transmitted off the rising bit clock ed
 335:Generated_Source\PSoC6\pdl\drivers\peripheral\i2s/cy_i2s.h ****                                                    Effective only in master mode. */
 336:Generated_Source\PSoC6\pdl\drivers\peripheral\i2s/cy_i2s.h ****     bool                  txSckiInversion;    /**< TX SCKI polarity:
 337:Generated_Source\PSoC6\pdl\drivers\peripheral\i2s/cy_i2s.h ****                                                    'false': When transmitter is in slave mode, seri
 338:Generated_Source\PSoC6\pdl\drivers\peripheral\i2s/cy_i2s.h ****                                                             transmitted off the falling bit clock e
 339:Generated_Source\PSoC6\pdl\drivers\peripheral\i2s/cy_i2s.h ****                                                             the I2S Standard);
 340:Generated_Source\PSoC6\pdl\drivers\peripheral\i2s/cy_i2s.h ****                                                    'true':  When transmitter is in slave mode, seri
 341:Generated_Source\PSoC6\pdl\drivers\peripheral\i2s/cy_i2s.h ****                                                             transmitted off the rising bit clock ed
 342:Generated_Source\PSoC6\pdl\drivers\peripheral\i2s/cy_i2s.h ****                                                    Effective only in slave mode. */
ARM GAS  C:\Users\haske\AppData\Local\Temp\ccmgjESD.s 			page 26


 343:Generated_Source\PSoC6\pdl\drivers\peripheral\i2s/cy_i2s.h ****     uint8_t               txChannels;         /**< Number of TX channels, valid range is 1...8 for 
 344:Generated_Source\PSoC6\pdl\drivers\peripheral\i2s/cy_i2s.h ****                                                    In the I2S and Left Justified modes the value of
 345:Generated_Source\PSoC6\pdl\drivers\peripheral\i2s/cy_i2s.h ****                                                    ignored - the real number of channels is always 
 346:Generated_Source\PSoC6\pdl\drivers\peripheral\i2s/cy_i2s.h ****     cy_en_i2s_len_t       txChannelLength;    /**< TX channel length, see #cy_en_i2s_len_t,
 347:Generated_Source\PSoC6\pdl\drivers\peripheral\i2s/cy_i2s.h ****                                                    the value of this parameter is ignored in TDM mo
 348:Generated_Source\PSoC6\pdl\drivers\peripheral\i2s/cy_i2s.h ****                                                    channel length is 32 bit in these modes. */
 349:Generated_Source\PSoC6\pdl\drivers\peripheral\i2s/cy_i2s.h ****     cy_en_i2s_len_t       txWordLength;       /**< TX word length, see #cy_en_i2s_len_t,
 350:Generated_Source\PSoC6\pdl\drivers\peripheral\i2s/cy_i2s.h ****                                                    must be less or equal to txChannelLength. */
 351:Generated_Source\PSoC6\pdl\drivers\peripheral\i2s/cy_i2s.h ****     cy_en_i2s_overhead_t  txOverheadValue;    /**< TX overhead bits value
 352:Generated_Source\PSoC6\pdl\drivers\peripheral\i2s/cy_i2s.h ****                                                    when the word length is less than the channel le
 353:Generated_Source\PSoC6\pdl\drivers\peripheral\i2s/cy_i2s.h ****     uint8_t               txFifoTriggerLevel; /**< TX FIFO interrupt trigger level (0, 1, ..., 255)
 354:Generated_Source\PSoC6\pdl\drivers\peripheral\i2s/cy_i2s.h ****     bool                  rxMasterMode;       /**< 'false': RX in slave mode, 'true': RX in master 
 355:Generated_Source\PSoC6\pdl\drivers\peripheral\i2s/cy_i2s.h ****     cy_en_i2s_alignment_t rxAlignment;        /**< RX data alignment, see: #cy_en_i2s_alignment_t. 
 356:Generated_Source\PSoC6\pdl\drivers\peripheral\i2s/cy_i2s.h ****     cy_en_i2s_ws_pw_t     rxWsPulseWidth;     /**< RX Word Select pulse width.
 357:Generated_Source\PSoC6\pdl\drivers\peripheral\i2s/cy_i2s.h ****                                                    The value of this parameter is ignored in I2S an
 358:Generated_Source\PSoC6\pdl\drivers\peripheral\i2s/cy_i2s.h ****                                                    the WS pulse width is always "one channel length
 359:Generated_Source\PSoC6\pdl\drivers\peripheral\i2s/cy_i2s.h ****     bool                  rxWatchdogEnable;   /**< 'false': RX watchdog disabled, 'true': RX watchd
 360:Generated_Source\PSoC6\pdl\drivers\peripheral\i2s/cy_i2s.h ****     uint32_t              rxWatchdogValue;    /**< RX watchdog counter value (32 bit). */
 361:Generated_Source\PSoC6\pdl\drivers\peripheral\i2s/cy_i2s.h ****     bool                  rxSdiLatchingTime;  /**< 'false': SDI bit starts at falling edge (accordi
 362:Generated_Source\PSoC6\pdl\drivers\peripheral\i2s/cy_i2s.h ****                                                    Standard if rxSckoInversion is false),
 363:Generated_Source\PSoC6\pdl\drivers\peripheral\i2s/cy_i2s.h ****                                                    'true': SDI bit starts at rising edge that goes 
 364:Generated_Source\PSoC6\pdl\drivers\peripheral\i2s/cy_i2s.h ****                                                    mentioned falling edge, i.e. the SDI signal is d
 365:Generated_Source\PSoC6\pdl\drivers\peripheral\i2s/cy_i2s.h ****                                                    period (if rxSckoInversion is false).
 366:Generated_Source\PSoC6\pdl\drivers\peripheral\i2s/cy_i2s.h ****                                                    If rxSckoInversion is true - the rising/falling 
 367:Generated_Source\PSoC6\pdl\drivers\peripheral\i2s/cy_i2s.h ****                                                    in above explanations.
 368:Generated_Source\PSoC6\pdl\drivers\peripheral\i2s/cy_i2s.h ****                                                    Effective only in master mode, must be false in 
 369:Generated_Source\PSoC6\pdl\drivers\peripheral\i2s/cy_i2s.h ****     bool                  rxSckoInversion;    /**< RX SCKO polarity:
 370:Generated_Source\PSoC6\pdl\drivers\peripheral\i2s/cy_i2s.h ****                                                    'false': When receiver is in master mode, serial
 371:Generated_Source\PSoC6\pdl\drivers\peripheral\i2s/cy_i2s.h ****                                                             captured by the rising bit clock edge (
 372:Generated_Source\PSoC6\pdl\drivers\peripheral\i2s/cy_i2s.h ****                                                             I2S Standard);
 373:Generated_Source\PSoC6\pdl\drivers\peripheral\i2s/cy_i2s.h ****                                                    'true':  When receiver is in master mode, serial
 374:Generated_Source\PSoC6\pdl\drivers\peripheral\i2s/cy_i2s.h ****                                                             captured by the falling bit clock edge.
 375:Generated_Source\PSoC6\pdl\drivers\peripheral\i2s/cy_i2s.h ****                                                    Effective only in master mode. */
 376:Generated_Source\PSoC6\pdl\drivers\peripheral\i2s/cy_i2s.h ****     bool                  rxSckiInversion;    /**< RX SCKI polarity:
 377:Generated_Source\PSoC6\pdl\drivers\peripheral\i2s/cy_i2s.h ****                                                    'false': When receiver is in slave mode, serial 
 378:Generated_Source\PSoC6\pdl\drivers\peripheral\i2s/cy_i2s.h ****                                                             captured by the rising bit clock edge (
 379:Generated_Source\PSoC6\pdl\drivers\peripheral\i2s/cy_i2s.h ****                                                             I2S Standard);
 380:Generated_Source\PSoC6\pdl\drivers\peripheral\i2s/cy_i2s.h ****                                                    'true':  When receiver is in slave mode, serial 
 381:Generated_Source\PSoC6\pdl\drivers\peripheral\i2s/cy_i2s.h ****                                                             captured by the falling bit clock edge.
 382:Generated_Source\PSoC6\pdl\drivers\peripheral\i2s/cy_i2s.h ****                                                    Effective only in slave mode. */
 383:Generated_Source\PSoC6\pdl\drivers\peripheral\i2s/cy_i2s.h ****     uint8_t               rxChannels;         /**< Number of RX channels, valid range is 1...8 for 
 384:Generated_Source\PSoC6\pdl\drivers\peripheral\i2s/cy_i2s.h ****                                                    In the I2S and Left Justified modes the value of
 385:Generated_Source\PSoC6\pdl\drivers\peripheral\i2s/cy_i2s.h ****                                                    ignored - the real number of channels is always 
 386:Generated_Source\PSoC6\pdl\drivers\peripheral\i2s/cy_i2s.h ****     cy_en_i2s_len_t       rxChannelLength;    /**< RX channel length, see #cy_en_i2s_len_t,
 387:Generated_Source\PSoC6\pdl\drivers\peripheral\i2s/cy_i2s.h ****                                                    the value of this parameter is ignored in TDM mo
 388:Generated_Source\PSoC6\pdl\drivers\peripheral\i2s/cy_i2s.h ****                                                    channel length is 32 bit in these modes. */
 389:Generated_Source\PSoC6\pdl\drivers\peripheral\i2s/cy_i2s.h ****     cy_en_i2s_len_t       rxWordLength;       /**< RX word length, see #cy_en_i2s_len_t,
 390:Generated_Source\PSoC6\pdl\drivers\peripheral\i2s/cy_i2s.h ****                                                    must be less or equal to rxChannelLength. */
 391:Generated_Source\PSoC6\pdl\drivers\peripheral\i2s/cy_i2s.h ****     bool                  rxSignExtension;    /**< RX value sign extension (when the word length is
 392:Generated_Source\PSoC6\pdl\drivers\peripheral\i2s/cy_i2s.h ****                                                    'false': all MSB are filled by zeroes, 
 393:Generated_Source\PSoC6\pdl\drivers\peripheral\i2s/cy_i2s.h ****                                                    'true': all MSB are filled by the original sign 
 394:Generated_Source\PSoC6\pdl\drivers\peripheral\i2s/cy_i2s.h ****     uint8_t               rxFifoTriggerLevel; /**< RX FIFO interrupt trigger level
 395:Generated_Source\PSoC6\pdl\drivers\peripheral\i2s/cy_i2s.h ****                                                    (0, 1, ..., (255 - (number of channels))). */
 396:Generated_Source\PSoC6\pdl\drivers\peripheral\i2s/cy_i2s.h **** } cy_stc_i2s_config_t;
 397:Generated_Source\PSoC6\pdl\drivers\peripheral\i2s/cy_i2s.h **** 
 398:Generated_Source\PSoC6\pdl\drivers\peripheral\i2s/cy_i2s.h **** 
 399:Generated_Source\PSoC6\pdl\drivers\peripheral\i2s/cy_i2s.h **** /**
ARM GAS  C:\Users\haske\AppData\Local\Temp\ccmgjESD.s 			page 27


 400:Generated_Source\PSoC6\pdl\drivers\peripheral\i2s/cy_i2s.h ****  * The I2S backup structure type to be used for the SysPm callback.
 401:Generated_Source\PSoC6\pdl\drivers\peripheral\i2s/cy_i2s.h ****  * \ref Cy_I2S_DeepSleepCallback context definition.
 402:Generated_Source\PSoC6\pdl\drivers\peripheral\i2s/cy_i2s.h ****  *
 403:Generated_Source\PSoC6\pdl\drivers\peripheral\i2s/cy_i2s.h ****  * \cond Also can be used for other purposes to store the current Tx/Rx
 404:Generated_Source\PSoC6\pdl\drivers\peripheral\i2s/cy_i2s.h ****  * operation state and interrupt settings - the factors that are usually
 405:Generated_Source\PSoC6\pdl\drivers\peripheral\i2s/cy_i2s.h ****  * changed on the fly. \endcond
 406:Generated_Source\PSoC6\pdl\drivers\peripheral\i2s/cy_i2s.h ****  */
 407:Generated_Source\PSoC6\pdl\drivers\peripheral\i2s/cy_i2s.h **** typedef struct
 408:Generated_Source\PSoC6\pdl\drivers\peripheral\i2s/cy_i2s.h **** {
 409:Generated_Source\PSoC6\pdl\drivers\peripheral\i2s/cy_i2s.h ****     uint32_t enableState;            /**< Stores the I2S state */
 410:Generated_Source\PSoC6\pdl\drivers\peripheral\i2s/cy_i2s.h ****     uint32_t interruptMask;          /**< Stores the I2S interrupt mask */
 411:Generated_Source\PSoC6\pdl\drivers\peripheral\i2s/cy_i2s.h **** } cy_stc_i2s_context_t;
 412:Generated_Source\PSoC6\pdl\drivers\peripheral\i2s/cy_i2s.h **** 
 413:Generated_Source\PSoC6\pdl\drivers\peripheral\i2s/cy_i2s.h **** /** \} group_i2s_data_structures */
 414:Generated_Source\PSoC6\pdl\drivers\peripheral\i2s/cy_i2s.h **** 
 415:Generated_Source\PSoC6\pdl\drivers\peripheral\i2s/cy_i2s.h **** /** \cond INTERNAL */
 416:Generated_Source\PSoC6\pdl\drivers\peripheral\i2s/cy_i2s.h **** /******************************************************************************
 417:Generated_Source\PSoC6\pdl\drivers\peripheral\i2s/cy_i2s.h ****  * Local definitions
 418:Generated_Source\PSoC6\pdl\drivers\peripheral\i2s/cy_i2s.h **** *******************************************************************************/
 419:Generated_Source\PSoC6\pdl\drivers\peripheral\i2s/cy_i2s.h **** 
 420:Generated_Source\PSoC6\pdl\drivers\peripheral\i2s/cy_i2s.h **** #define CY_I2S_INTR_MASK           (CY_I2S_INTR_TX_TRIGGER   | \
 421:Generated_Source\PSoC6\pdl\drivers\peripheral\i2s/cy_i2s.h ****                                     CY_I2S_INTR_TX_NOT_FULL  | \
 422:Generated_Source\PSoC6\pdl\drivers\peripheral\i2s/cy_i2s.h ****                                     CY_I2S_INTR_TX_EMPTY     | \
 423:Generated_Source\PSoC6\pdl\drivers\peripheral\i2s/cy_i2s.h ****                                     CY_I2S_INTR_TX_OVERFLOW  | \
 424:Generated_Source\PSoC6\pdl\drivers\peripheral\i2s/cy_i2s.h ****                                     CY_I2S_INTR_TX_UNDERFLOW | \
 425:Generated_Source\PSoC6\pdl\drivers\peripheral\i2s/cy_i2s.h ****                                     CY_I2S_INTR_TX_WD        | \
 426:Generated_Source\PSoC6\pdl\drivers\peripheral\i2s/cy_i2s.h ****                                     CY_I2S_INTR_RX_TRIGGER   | \
 427:Generated_Source\PSoC6\pdl\drivers\peripheral\i2s/cy_i2s.h ****                                     CY_I2S_INTR_RX_NOT_EMPTY | \
 428:Generated_Source\PSoC6\pdl\drivers\peripheral\i2s/cy_i2s.h ****                                     CY_I2S_INTR_RX_FULL      | \
 429:Generated_Source\PSoC6\pdl\drivers\peripheral\i2s/cy_i2s.h ****                                     CY_I2S_INTR_RX_OVERFLOW  | \
 430:Generated_Source\PSoC6\pdl\drivers\peripheral\i2s/cy_i2s.h ****                                     CY_I2S_INTR_RX_UNDERFLOW | \
 431:Generated_Source\PSoC6\pdl\drivers\peripheral\i2s/cy_i2s.h ****                                     CY_I2S_INTR_RX_WD)
 432:Generated_Source\PSoC6\pdl\drivers\peripheral\i2s/cy_i2s.h **** 
 433:Generated_Source\PSoC6\pdl\drivers\peripheral\i2s/cy_i2s.h **** /* Non-zero default values */
 434:Generated_Source\PSoC6\pdl\drivers\peripheral\i2s/cy_i2s.h **** #define CY_I2S_TX_CTL_CH_NR_DEFAULT    (0x1U)
 435:Generated_Source\PSoC6\pdl\drivers\peripheral\i2s/cy_i2s.h **** #define CY_I2S_TX_CTL_I2S_MODE_DEFAULT (0x2U)
 436:Generated_Source\PSoC6\pdl\drivers\peripheral\i2s/cy_i2s.h **** #define CY_I2S_TX_CTL_WS_PULSE_DEFAULT (0x1U)
 437:Generated_Source\PSoC6\pdl\drivers\peripheral\i2s/cy_i2s.h **** #define CY_I2S_TX_CTL_CH_LEN_DEFAULT   (0x4U)
 438:Generated_Source\PSoC6\pdl\drivers\peripheral\i2s/cy_i2s.h **** #define CY_I2S_TX_CTL_WORD_LEN_DEFAULT (0x4U)
 439:Generated_Source\PSoC6\pdl\drivers\peripheral\i2s/cy_i2s.h **** 
 440:Generated_Source\PSoC6\pdl\drivers\peripheral\i2s/cy_i2s.h **** #define CY_I2S_TX_CTL_DEFAULT (_VAL2FLD(I2S_TX_CTL_CH_NR,    CY_I2S_TX_CTL_CH_NR_DEFAULT)    | \
 441:Generated_Source\PSoC6\pdl\drivers\peripheral\i2s/cy_i2s.h ****                                _VAL2FLD(I2S_TX_CTL_I2S_MODE, CY_I2S_TX_CTL_I2S_MODE_DEFAULT) | \
 442:Generated_Source\PSoC6\pdl\drivers\peripheral\i2s/cy_i2s.h ****                                _VAL2FLD(I2S_TX_CTL_WS_PULSE, CY_I2S_TX_CTL_WS_PULSE_DEFAULT) | \
 443:Generated_Source\PSoC6\pdl\drivers\peripheral\i2s/cy_i2s.h ****                                _VAL2FLD(I2S_TX_CTL_CH_LEN,   CY_I2S_TX_CTL_CH_LEN_DEFAULT)   | \
 444:Generated_Source\PSoC6\pdl\drivers\peripheral\i2s/cy_i2s.h ****                                _VAL2FLD(I2S_TX_CTL_WORD_LEN, CY_I2S_TX_CTL_WORD_LEN_DEFAULT))
 445:Generated_Source\PSoC6\pdl\drivers\peripheral\i2s/cy_i2s.h **** 
 446:Generated_Source\PSoC6\pdl\drivers\peripheral\i2s/cy_i2s.h **** #define CY_I2S_RX_CTL_CH_NR_DEFAULT    (0x1U)
 447:Generated_Source\PSoC6\pdl\drivers\peripheral\i2s/cy_i2s.h **** #define CY_I2S_RX_CTL_I2S_MODE_DEFAULT (0x2U)
 448:Generated_Source\PSoC6\pdl\drivers\peripheral\i2s/cy_i2s.h **** #define CY_I2S_RX_CTL_WS_PULSE_DEFAULT (0x1U)
 449:Generated_Source\PSoC6\pdl\drivers\peripheral\i2s/cy_i2s.h **** #define CY_I2S_RX_CTL_CH_LEN_DEFAULT   (0x4U)
 450:Generated_Source\PSoC6\pdl\drivers\peripheral\i2s/cy_i2s.h **** #define CY_I2S_RX_CTL_WORD_LEN_DEFAULT (0x4U)
 451:Generated_Source\PSoC6\pdl\drivers\peripheral\i2s/cy_i2s.h **** 
 452:Generated_Source\PSoC6\pdl\drivers\peripheral\i2s/cy_i2s.h **** #define CY_I2S_RX_CTL_DEFAULT (_VAL2FLD(I2S_RX_CTL_CH_NR,    CY_I2S_RX_CTL_CH_NR_DEFAULT)    | \
 453:Generated_Source\PSoC6\pdl\drivers\peripheral\i2s/cy_i2s.h ****                                _VAL2FLD(I2S_RX_CTL_I2S_MODE, CY_I2S_RX_CTL_I2S_MODE_DEFAULT) | \
 454:Generated_Source\PSoC6\pdl\drivers\peripheral\i2s/cy_i2s.h ****                                _VAL2FLD(I2S_RX_CTL_WS_PULSE, CY_I2S_RX_CTL_WS_PULSE_DEFAULT) | \
 455:Generated_Source\PSoC6\pdl\drivers\peripheral\i2s/cy_i2s.h ****                                _VAL2FLD(I2S_RX_CTL_CH_LEN,   CY_I2S_RX_CTL_CH_LEN_DEFAULT)   | \
 456:Generated_Source\PSoC6\pdl\drivers\peripheral\i2s/cy_i2s.h ****                                _VAL2FLD(I2S_RX_CTL_WORD_LEN, CY_I2S_RX_CTL_WORD_LEN_DEFAULT))
ARM GAS  C:\Users\haske\AppData\Local\Temp\ccmgjESD.s 			page 28


 457:Generated_Source\PSoC6\pdl\drivers\peripheral\i2s/cy_i2s.h **** 
 458:Generated_Source\PSoC6\pdl\drivers\peripheral\i2s/cy_i2s.h **** /* Macros for conditions used by CY_ASSERT calls */
 459:Generated_Source\PSoC6\pdl\drivers\peripheral\i2s/cy_i2s.h **** #define CY_I2S_IS_ALIGNMENT_VALID(alignment) ((CY_I2S_LEFT_JUSTIFIED == (alignment)) || \
 460:Generated_Source\PSoC6\pdl\drivers\peripheral\i2s/cy_i2s.h ****                                               (CY_I2S_I2S_MODE       == (alignment)) || \
 461:Generated_Source\PSoC6\pdl\drivers\peripheral\i2s/cy_i2s.h ****                                               (CY_I2S_TDM_MODE_A     == (alignment)) || \
 462:Generated_Source\PSoC6\pdl\drivers\peripheral\i2s/cy_i2s.h ****                                               (CY_I2S_TDM_MODE_B     == (alignment)))
 463:Generated_Source\PSoC6\pdl\drivers\peripheral\i2s/cy_i2s.h **** 
 464:Generated_Source\PSoC6\pdl\drivers\peripheral\i2s/cy_i2s.h **** #define CY_I2S_IS_LEN_VALID(length)          ((CY_I2S_LEN8  == (length)) || \
 465:Generated_Source\PSoC6\pdl\drivers\peripheral\i2s/cy_i2s.h ****                                               (CY_I2S_LEN16 == (length)) || \
 466:Generated_Source\PSoC6\pdl\drivers\peripheral\i2s/cy_i2s.h ****                                               (CY_I2S_LEN18 == (length)) || \
 467:Generated_Source\PSoC6\pdl\drivers\peripheral\i2s/cy_i2s.h ****                                               (CY_I2S_LEN20 == (length)) || \
 468:Generated_Source\PSoC6\pdl\drivers\peripheral\i2s/cy_i2s.h ****                                               (CY_I2S_LEN24 == (length)) || \
 469:Generated_Source\PSoC6\pdl\drivers\peripheral\i2s/cy_i2s.h ****                                               (CY_I2S_LEN32 == (length)))
 470:Generated_Source\PSoC6\pdl\drivers\peripheral\i2s/cy_i2s.h **** 
 471:Generated_Source\PSoC6\pdl\drivers\peripheral\i2s/cy_i2s.h **** #define CY_I2S_IS_OVHDATA_VALID(overhead)    ((CY_I2S_OVHDATA_ZERO == (overhead)) || \
 472:Generated_Source\PSoC6\pdl\drivers\peripheral\i2s/cy_i2s.h ****                                               (CY_I2S_OVHDATA_ONE  == (overhead)))
 473:Generated_Source\PSoC6\pdl\drivers\peripheral\i2s/cy_i2s.h **** 
 474:Generated_Source\PSoC6\pdl\drivers\peripheral\i2s/cy_i2s.h **** #define CY_I2S_IS_WSPULSE_VALID(wsPulse)     ((CY_I2S_WS_ONE_SCK_CYCLE      == (wsPulse)) || \
 475:Generated_Source\PSoC6\pdl\drivers\peripheral\i2s/cy_i2s.h ****                                               (CY_I2S_WS_ONE_CHANNEL_LENGTH == (wsPulse)))
 476:Generated_Source\PSoC6\pdl\drivers\peripheral\i2s/cy_i2s.h **** 
 477:Generated_Source\PSoC6\pdl\drivers\peripheral\i2s/cy_i2s.h **** #define CY_I2S_IS_CLK_DIV_VALID(clkDiv)      ((clkDiv) <= 63U)
 478:Generated_Source\PSoC6\pdl\drivers\peripheral\i2s/cy_i2s.h **** #define CY_I2S_IS_CHANNELS_VALID(channels)   ((channels) <= 7UL)
 479:Generated_Source\PSoC6\pdl\drivers\peripheral\i2s/cy_i2s.h **** #define CY_I2S_IS_INTR_MASK_VALID(interrupt) (0UL == ((interrupt) & ((uint32_t) ~CY_I2S_INTR_MASK))
 480:Generated_Source\PSoC6\pdl\drivers\peripheral\i2s/cy_i2s.h **** 
 481:Generated_Source\PSoC6\pdl\drivers\peripheral\i2s/cy_i2s.h **** #define CY_I2S_IS_CHAN_WORD_VALID(channel, word)        ((CY_I2S_IS_LEN_VALID(channel)) && \
 482:Generated_Source\PSoC6\pdl\drivers\peripheral\i2s/cy_i2s.h ****                                                          (CY_I2S_IS_LEN_VALID(word))    && \
 483:Generated_Source\PSoC6\pdl\drivers\peripheral\i2s/cy_i2s.h ****                                                          ((channel) >= (word)))
 484:Generated_Source\PSoC6\pdl\drivers\peripheral\i2s/cy_i2s.h **** #define CY_I2S_IS_TRIG_LEVEL_VALID(trigLevel, channels) ((trigLevel) <= (255U - (channels)))
 485:Generated_Source\PSoC6\pdl\drivers\peripheral\i2s/cy_i2s.h **** 
 486:Generated_Source\PSoC6\pdl\drivers\peripheral\i2s/cy_i2s.h **** /** \endcond */
 487:Generated_Source\PSoC6\pdl\drivers\peripheral\i2s/cy_i2s.h **** 
 488:Generated_Source\PSoC6\pdl\drivers\peripheral\i2s/cy_i2s.h **** 
 489:Generated_Source\PSoC6\pdl\drivers\peripheral\i2s/cy_i2s.h **** /**
 490:Generated_Source\PSoC6\pdl\drivers\peripheral\i2s/cy_i2s.h **** * \addtogroup group_i2s_functions
 491:Generated_Source\PSoC6\pdl\drivers\peripheral\i2s/cy_i2s.h **** * \{
 492:Generated_Source\PSoC6\pdl\drivers\peripheral\i2s/cy_i2s.h **** */
 493:Generated_Source\PSoC6\pdl\drivers\peripheral\i2s/cy_i2s.h **** 
 494:Generated_Source\PSoC6\pdl\drivers\peripheral\i2s/cy_i2s.h ****   cy_en_i2s_status_t     Cy_I2S_Init(I2S_Type * base, cy_stc_i2s_config_t const * config);
 495:Generated_Source\PSoC6\pdl\drivers\peripheral\i2s/cy_i2s.h ****                 void     Cy_I2S_DeInit(I2S_Type * base);
 496:Generated_Source\PSoC6\pdl\drivers\peripheral\i2s/cy_i2s.h ****                 
 497:Generated_Source\PSoC6\pdl\drivers\peripheral\i2s/cy_i2s.h **** /** \addtogroup group_i2s_functions_syspm_callback
 498:Generated_Source\PSoC6\pdl\drivers\peripheral\i2s/cy_i2s.h **** * The driver supports SysPm callback for Deep Sleep transition.
 499:Generated_Source\PSoC6\pdl\drivers\peripheral\i2s/cy_i2s.h **** * \{
 500:Generated_Source\PSoC6\pdl\drivers\peripheral\i2s/cy_i2s.h **** */
 501:Generated_Source\PSoC6\pdl\drivers\peripheral\i2s/cy_i2s.h **** cy_en_syspm_status_t     Cy_I2S_DeepSleepCallback(cy_stc_syspm_callback_params_t * callbackParams, 
 502:Generated_Source\PSoC6\pdl\drivers\peripheral\i2s/cy_i2s.h **** /** \} */
 503:Generated_Source\PSoC6\pdl\drivers\peripheral\i2s/cy_i2s.h **** 
 504:Generated_Source\PSoC6\pdl\drivers\peripheral\i2s/cy_i2s.h **** __STATIC_INLINE void     Cy_I2S_EnableTx(I2S_Type * base);
 505:Generated_Source\PSoC6\pdl\drivers\peripheral\i2s/cy_i2s.h **** __STATIC_INLINE void     Cy_I2S_PauseTx(I2S_Type * base);
 506:Generated_Source\PSoC6\pdl\drivers\peripheral\i2s/cy_i2s.h **** __STATIC_INLINE void     Cy_I2S_ResumeTx(I2S_Type * base);
 507:Generated_Source\PSoC6\pdl\drivers\peripheral\i2s/cy_i2s.h **** __STATIC_INLINE void     Cy_I2S_DisableTx(I2S_Type * base);
 508:Generated_Source\PSoC6\pdl\drivers\peripheral\i2s/cy_i2s.h **** __STATIC_INLINE void     Cy_I2S_EnableRx(I2S_Type * base);
 509:Generated_Source\PSoC6\pdl\drivers\peripheral\i2s/cy_i2s.h **** __STATIC_INLINE void     Cy_I2S_DisableRx(I2S_Type * base);
 510:Generated_Source\PSoC6\pdl\drivers\peripheral\i2s/cy_i2s.h **** __STATIC_INLINE uint32_t Cy_I2S_GetCurrentState(I2S_Type const * base);
 511:Generated_Source\PSoC6\pdl\drivers\peripheral\i2s/cy_i2s.h **** 
 512:Generated_Source\PSoC6\pdl\drivers\peripheral\i2s/cy_i2s.h **** __STATIC_INLINE void     Cy_I2S_ClearTxFifo(I2S_Type * base);
 513:Generated_Source\PSoC6\pdl\drivers\peripheral\i2s/cy_i2s.h **** __STATIC_INLINE uint32_t Cy_I2S_GetNumInTxFifo(I2S_Type const * base);
ARM GAS  C:\Users\haske\AppData\Local\Temp\ccmgjESD.s 			page 29


 514:Generated_Source\PSoC6\pdl\drivers\peripheral\i2s/cy_i2s.h **** __STATIC_INLINE void     Cy_I2S_WriteTxData(I2S_Type * base, uint32_t data);
 515:Generated_Source\PSoC6\pdl\drivers\peripheral\i2s/cy_i2s.h **** __STATIC_INLINE uint8_t  Cy_I2S_GetTxReadPointer(I2S_Type const * base);
 516:Generated_Source\PSoC6\pdl\drivers\peripheral\i2s/cy_i2s.h **** __STATIC_INLINE uint8_t  Cy_I2S_GetTxWritePointer(I2S_Type const * base);
 517:Generated_Source\PSoC6\pdl\drivers\peripheral\i2s/cy_i2s.h **** __STATIC_INLINE void     Cy_I2S_FreezeTxFifo(I2S_Type * base);
 518:Generated_Source\PSoC6\pdl\drivers\peripheral\i2s/cy_i2s.h **** __STATIC_INLINE void     Cy_I2S_UnfreezeTxFifo(I2S_Type * base);
 519:Generated_Source\PSoC6\pdl\drivers\peripheral\i2s/cy_i2s.h **** 
 520:Generated_Source\PSoC6\pdl\drivers\peripheral\i2s/cy_i2s.h **** __STATIC_INLINE void     Cy_I2S_ClearRxFifo(I2S_Type * base);
 521:Generated_Source\PSoC6\pdl\drivers\peripheral\i2s/cy_i2s.h **** __STATIC_INLINE uint32_t Cy_I2S_GetNumInRxFifo(I2S_Type const * base);
 522:Generated_Source\PSoC6\pdl\drivers\peripheral\i2s/cy_i2s.h **** __STATIC_INLINE uint32_t Cy_I2S_ReadRxData(I2S_Type const * base);
 523:Generated_Source\PSoC6\pdl\drivers\peripheral\i2s/cy_i2s.h **** __STATIC_INLINE uint32_t Cy_I2S_ReadRxDataSilent(I2S_Type const * base);
 524:Generated_Source\PSoC6\pdl\drivers\peripheral\i2s/cy_i2s.h **** __STATIC_INLINE uint8_t  Cy_I2S_GetRxReadPointer(I2S_Type const * base);
 525:Generated_Source\PSoC6\pdl\drivers\peripheral\i2s/cy_i2s.h **** __STATIC_INLINE uint8_t  Cy_I2S_GetRxWritePointer(I2S_Type const * base);
 526:Generated_Source\PSoC6\pdl\drivers\peripheral\i2s/cy_i2s.h **** __STATIC_INLINE void     Cy_I2S_FreezeRxFifo(I2S_Type * base);
 527:Generated_Source\PSoC6\pdl\drivers\peripheral\i2s/cy_i2s.h **** __STATIC_INLINE void     Cy_I2S_UnfreezeRxFifo(I2S_Type * base);
 528:Generated_Source\PSoC6\pdl\drivers\peripheral\i2s/cy_i2s.h **** 
 529:Generated_Source\PSoC6\pdl\drivers\peripheral\i2s/cy_i2s.h **** __STATIC_INLINE uint32_t Cy_I2S_GetInterruptStatus(I2S_Type const * base);
 530:Generated_Source\PSoC6\pdl\drivers\peripheral\i2s/cy_i2s.h **** __STATIC_INLINE void     Cy_I2S_ClearInterrupt(I2S_Type * base, uint32_t interrupt);
 531:Generated_Source\PSoC6\pdl\drivers\peripheral\i2s/cy_i2s.h **** __STATIC_INLINE void     Cy_I2S_SetInterrupt(I2S_Type * base, uint32_t interrupt);
 532:Generated_Source\PSoC6\pdl\drivers\peripheral\i2s/cy_i2s.h **** __STATIC_INLINE uint32_t Cy_I2S_GetInterruptMask(I2S_Type const * base);
 533:Generated_Source\PSoC6\pdl\drivers\peripheral\i2s/cy_i2s.h **** __STATIC_INLINE void     Cy_I2S_SetInterruptMask(I2S_Type * base, uint32_t interrupt);
 534:Generated_Source\PSoC6\pdl\drivers\peripheral\i2s/cy_i2s.h **** __STATIC_INLINE uint32_t Cy_I2S_GetInterruptStatusMasked(I2S_Type const * base);
 535:Generated_Source\PSoC6\pdl\drivers\peripheral\i2s/cy_i2s.h **** 
 536:Generated_Source\PSoC6\pdl\drivers\peripheral\i2s/cy_i2s.h **** /*******************************************************************************
 537:Generated_Source\PSoC6\pdl\drivers\peripheral\i2s/cy_i2s.h **** * Function Name: Cy_I2S_EnableTx
 538:Generated_Source\PSoC6\pdl\drivers\peripheral\i2s/cy_i2s.h **** ****************************************************************************//**
 539:Generated_Source\PSoC6\pdl\drivers\peripheral\i2s/cy_i2s.h **** *
 540:Generated_Source\PSoC6\pdl\drivers\peripheral\i2s/cy_i2s.h **** * Starts an I2S transmission. Interrupt enabling (by the 
 541:Generated_Source\PSoC6\pdl\drivers\peripheral\i2s/cy_i2s.h **** * \ref Cy_I2S_SetInterruptMask) is required after this function call, in case
 542:Generated_Source\PSoC6\pdl\drivers\peripheral\i2s/cy_i2s.h **** * if any I2S interrupts are used in the application.
 543:Generated_Source\PSoC6\pdl\drivers\peripheral\i2s/cy_i2s.h **** *
 544:Generated_Source\PSoC6\pdl\drivers\peripheral\i2s/cy_i2s.h **** * \pre Cy_I2S_Init() must be called before.
 545:Generated_Source\PSoC6\pdl\drivers\peripheral\i2s/cy_i2s.h **** *
 546:Generated_Source\PSoC6\pdl\drivers\peripheral\i2s/cy_i2s.h **** * \param base The pointer to the I2S instance address.
 547:Generated_Source\PSoC6\pdl\drivers\peripheral\i2s/cy_i2s.h **** *
 548:Generated_Source\PSoC6\pdl\drivers\peripheral\i2s/cy_i2s.h **** * \funcusage
 549:Generated_Source\PSoC6\pdl\drivers\peripheral\i2s/cy_i2s.h **** * \snippet i2s\2.10\snippet\main.c snippet_Cy_I2S_EnableTx
 550:Generated_Source\PSoC6\pdl\drivers\peripheral\i2s/cy_i2s.h **** *
 551:Generated_Source\PSoC6\pdl\drivers\peripheral\i2s/cy_i2s.h **** *******************************************************************************/
 552:Generated_Source\PSoC6\pdl\drivers\peripheral\i2s/cy_i2s.h **** __STATIC_INLINE void Cy_I2S_EnableTx(I2S_Type * base)
 553:Generated_Source\PSoC6\pdl\drivers\peripheral\i2s/cy_i2s.h **** {
 554:Generated_Source\PSoC6\pdl\drivers\peripheral\i2s/cy_i2s.h ****     REG_I2S_CMD(base) |= I2S_CMD_TX_START_Msk;
 555:Generated_Source\PSoC6\pdl\drivers\peripheral\i2s/cy_i2s.h **** }
 556:Generated_Source\PSoC6\pdl\drivers\peripheral\i2s/cy_i2s.h **** 
 557:Generated_Source\PSoC6\pdl\drivers\peripheral\i2s/cy_i2s.h **** 
 558:Generated_Source\PSoC6\pdl\drivers\peripheral\i2s/cy_i2s.h **** /*******************************************************************************
 559:Generated_Source\PSoC6\pdl\drivers\peripheral\i2s/cy_i2s.h **** * Function Name: Cy_I2S_PauseTx
 560:Generated_Source\PSoC6\pdl\drivers\peripheral\i2s/cy_i2s.h **** ****************************************************************************//**
 561:Generated_Source\PSoC6\pdl\drivers\peripheral\i2s/cy_i2s.h **** *
 562:Generated_Source\PSoC6\pdl\drivers\peripheral\i2s/cy_i2s.h **** * Pauses an I2S transmission.
 563:Generated_Source\PSoC6\pdl\drivers\peripheral\i2s/cy_i2s.h **** *
 564:Generated_Source\PSoC6\pdl\drivers\peripheral\i2s/cy_i2s.h **** * \param base The pointer to the I2S instance address.
 565:Generated_Source\PSoC6\pdl\drivers\peripheral\i2s/cy_i2s.h **** *
 566:Generated_Source\PSoC6\pdl\drivers\peripheral\i2s/cy_i2s.h **** * \funcusage
 567:Generated_Source\PSoC6\pdl\drivers\peripheral\i2s/cy_i2s.h **** * \snippet i2s\2.10\snippet\main.c snippet_Cy_I2S_PauseTx
 568:Generated_Source\PSoC6\pdl\drivers\peripheral\i2s/cy_i2s.h **** *
 569:Generated_Source\PSoC6\pdl\drivers\peripheral\i2s/cy_i2s.h **** *******************************************************************************/
 570:Generated_Source\PSoC6\pdl\drivers\peripheral\i2s/cy_i2s.h **** __STATIC_INLINE void Cy_I2S_PauseTx(I2S_Type * base)
ARM GAS  C:\Users\haske\AppData\Local\Temp\ccmgjESD.s 			page 30


 571:Generated_Source\PSoC6\pdl\drivers\peripheral\i2s/cy_i2s.h **** {
 572:Generated_Source\PSoC6\pdl\drivers\peripheral\i2s/cy_i2s.h ****     REG_I2S_CMD(base) |= I2S_CMD_TX_PAUSE_Msk;
 573:Generated_Source\PSoC6\pdl\drivers\peripheral\i2s/cy_i2s.h **** }
 574:Generated_Source\PSoC6\pdl\drivers\peripheral\i2s/cy_i2s.h **** 
 575:Generated_Source\PSoC6\pdl\drivers\peripheral\i2s/cy_i2s.h **** 
 576:Generated_Source\PSoC6\pdl\drivers\peripheral\i2s/cy_i2s.h **** /*******************************************************************************
 577:Generated_Source\PSoC6\pdl\drivers\peripheral\i2s/cy_i2s.h **** * Function Name: Cy_I2S_ResumeTx
 578:Generated_Source\PSoC6\pdl\drivers\peripheral\i2s/cy_i2s.h **** ****************************************************************************//**
 579:Generated_Source\PSoC6\pdl\drivers\peripheral\i2s/cy_i2s.h **** *
 580:Generated_Source\PSoC6\pdl\drivers\peripheral\i2s/cy_i2s.h **** * Resumes an I2S transmission.
 581:Generated_Source\PSoC6\pdl\drivers\peripheral\i2s/cy_i2s.h **** *
 582:Generated_Source\PSoC6\pdl\drivers\peripheral\i2s/cy_i2s.h **** * \param base The pointer to the I2S instance address.
 583:Generated_Source\PSoC6\pdl\drivers\peripheral\i2s/cy_i2s.h **** *
 584:Generated_Source\PSoC6\pdl\drivers\peripheral\i2s/cy_i2s.h **** * \funcusage
 585:Generated_Source\PSoC6\pdl\drivers\peripheral\i2s/cy_i2s.h **** * \snippet i2s\2.10\snippet\main.c snippet_Cy_I2S_ResumeTx
 586:Generated_Source\PSoC6\pdl\drivers\peripheral\i2s/cy_i2s.h **** *
 587:Generated_Source\PSoC6\pdl\drivers\peripheral\i2s/cy_i2s.h **** *******************************************************************************/
 588:Generated_Source\PSoC6\pdl\drivers\peripheral\i2s/cy_i2s.h **** __STATIC_INLINE void Cy_I2S_ResumeTx(I2S_Type * base)
 589:Generated_Source\PSoC6\pdl\drivers\peripheral\i2s/cy_i2s.h **** {
 590:Generated_Source\PSoC6\pdl\drivers\peripheral\i2s/cy_i2s.h ****     REG_I2S_CMD(base) &= (uint32_t) ~I2S_CMD_TX_PAUSE_Msk;
 591:Generated_Source\PSoC6\pdl\drivers\peripheral\i2s/cy_i2s.h **** }
 592:Generated_Source\PSoC6\pdl\drivers\peripheral\i2s/cy_i2s.h **** 
 593:Generated_Source\PSoC6\pdl\drivers\peripheral\i2s/cy_i2s.h **** 
 594:Generated_Source\PSoC6\pdl\drivers\peripheral\i2s/cy_i2s.h **** /*******************************************************************************
 595:Generated_Source\PSoC6\pdl\drivers\peripheral\i2s/cy_i2s.h **** * Function Name: Cy_I2S_DisableTx
 596:Generated_Source\PSoC6\pdl\drivers\peripheral\i2s/cy_i2s.h **** ****************************************************************************//**
 597:Generated_Source\PSoC6\pdl\drivers\peripheral\i2s/cy_i2s.h **** *
 598:Generated_Source\PSoC6\pdl\drivers\peripheral\i2s/cy_i2s.h **** * Stops an I2S transmission. 
 599:Generated_Source\PSoC6\pdl\drivers\peripheral\i2s/cy_i2s.h **** *
 600:Generated_Source\PSoC6\pdl\drivers\peripheral\i2s/cy_i2s.h **** * \pre TX interrupt disabling (by the \ref Cy_I2S_SetInterruptMask) is required
 601:Generated_Source\PSoC6\pdl\drivers\peripheral\i2s/cy_i2s.h **** * prior to this function call, in case any TX I2S interrupts are used.
 602:Generated_Source\PSoC6\pdl\drivers\peripheral\i2s/cy_i2s.h **** *
 603:Generated_Source\PSoC6\pdl\drivers\peripheral\i2s/cy_i2s.h **** * \param base The pointer to the I2S instance address.
 604:Generated_Source\PSoC6\pdl\drivers\peripheral\i2s/cy_i2s.h **** *
 605:Generated_Source\PSoC6\pdl\drivers\peripheral\i2s/cy_i2s.h **** * \funcusage
 606:Generated_Source\PSoC6\pdl\drivers\peripheral\i2s/cy_i2s.h **** * \snippet i2s\2.10\snippet\main.c snippet_Cy_I2S_DisableTx
 607:Generated_Source\PSoC6\pdl\drivers\peripheral\i2s/cy_i2s.h **** *
 608:Generated_Source\PSoC6\pdl\drivers\peripheral\i2s/cy_i2s.h **** *******************************************************************************/
 609:Generated_Source\PSoC6\pdl\drivers\peripheral\i2s/cy_i2s.h **** __STATIC_INLINE void Cy_I2S_DisableTx(I2S_Type * base)
 610:Generated_Source\PSoC6\pdl\drivers\peripheral\i2s/cy_i2s.h **** {
 611:Generated_Source\PSoC6\pdl\drivers\peripheral\i2s/cy_i2s.h ****     REG_I2S_CMD(base) &= (uint32_t) ~I2S_CMD_TX_START_Msk;
 612:Generated_Source\PSoC6\pdl\drivers\peripheral\i2s/cy_i2s.h **** }
 613:Generated_Source\PSoC6\pdl\drivers\peripheral\i2s/cy_i2s.h **** 
 614:Generated_Source\PSoC6\pdl\drivers\peripheral\i2s/cy_i2s.h **** 
 615:Generated_Source\PSoC6\pdl\drivers\peripheral\i2s/cy_i2s.h **** /*******************************************************************************
 616:Generated_Source\PSoC6\pdl\drivers\peripheral\i2s/cy_i2s.h **** * Function Name: Cy_I2S_EnableRx
 617:Generated_Source\PSoC6\pdl\drivers\peripheral\i2s/cy_i2s.h **** ****************************************************************************//**
 618:Generated_Source\PSoC6\pdl\drivers\peripheral\i2s/cy_i2s.h **** *
 619:Generated_Source\PSoC6\pdl\drivers\peripheral\i2s/cy_i2s.h **** * Starts an I2S reception. Interrupt enabling (by the 
 620:Generated_Source\PSoC6\pdl\drivers\peripheral\i2s/cy_i2s.h **** * \ref Cy_I2S_SetInterruptMask) is required after this function call, in case
 621:Generated_Source\PSoC6\pdl\drivers\peripheral\i2s/cy_i2s.h **** * any I2S interrupts are used in the application.
 622:Generated_Source\PSoC6\pdl\drivers\peripheral\i2s/cy_i2s.h **** *
 623:Generated_Source\PSoC6\pdl\drivers\peripheral\i2s/cy_i2s.h **** * \pre \ref Cy_I2S_Init() must be called before.
 624:Generated_Source\PSoC6\pdl\drivers\peripheral\i2s/cy_i2s.h **** *
 625:Generated_Source\PSoC6\pdl\drivers\peripheral\i2s/cy_i2s.h **** * \param base The pointer to the I2S instance address.
 626:Generated_Source\PSoC6\pdl\drivers\peripheral\i2s/cy_i2s.h **** *
 627:Generated_Source\PSoC6\pdl\drivers\peripheral\i2s/cy_i2s.h **** * \funcusage
ARM GAS  C:\Users\haske\AppData\Local\Temp\ccmgjESD.s 			page 31


 628:Generated_Source\PSoC6\pdl\drivers\peripheral\i2s/cy_i2s.h **** * \snippet i2s\2.10\snippet\main.c snippet_Cy_I2S_EnableRx
 629:Generated_Source\PSoC6\pdl\drivers\peripheral\i2s/cy_i2s.h **** *
 630:Generated_Source\PSoC6\pdl\drivers\peripheral\i2s/cy_i2s.h **** *******************************************************************************/
 631:Generated_Source\PSoC6\pdl\drivers\peripheral\i2s/cy_i2s.h **** __STATIC_INLINE void Cy_I2S_EnableRx(I2S_Type * base)
 632:Generated_Source\PSoC6\pdl\drivers\peripheral\i2s/cy_i2s.h **** {
 633:Generated_Source\PSoC6\pdl\drivers\peripheral\i2s/cy_i2s.h ****     REG_I2S_CMD(base) |= I2S_CMD_RX_START_Msk;
 634:Generated_Source\PSoC6\pdl\drivers\peripheral\i2s/cy_i2s.h **** }
 635:Generated_Source\PSoC6\pdl\drivers\peripheral\i2s/cy_i2s.h **** 
 636:Generated_Source\PSoC6\pdl\drivers\peripheral\i2s/cy_i2s.h **** 
 637:Generated_Source\PSoC6\pdl\drivers\peripheral\i2s/cy_i2s.h **** /*******************************************************************************
 638:Generated_Source\PSoC6\pdl\drivers\peripheral\i2s/cy_i2s.h **** * Function Name: Cy_I2S_DisableRx
 639:Generated_Source\PSoC6\pdl\drivers\peripheral\i2s/cy_i2s.h **** ****************************************************************************//**
 640:Generated_Source\PSoC6\pdl\drivers\peripheral\i2s/cy_i2s.h **** *
 641:Generated_Source\PSoC6\pdl\drivers\peripheral\i2s/cy_i2s.h **** * Stops an I2S reception.
 642:Generated_Source\PSoC6\pdl\drivers\peripheral\i2s/cy_i2s.h **** *
 643:Generated_Source\PSoC6\pdl\drivers\peripheral\i2s/cy_i2s.h **** * \pre RX interrupt disabling (by the \ref Cy_I2S_SetInterruptMask) is required
 644:Generated_Source\PSoC6\pdl\drivers\peripheral\i2s/cy_i2s.h **** * prior to this function call, in case any RX I2S interrupts are used.
 645:Generated_Source\PSoC6\pdl\drivers\peripheral\i2s/cy_i2s.h **** *
 646:Generated_Source\PSoC6\pdl\drivers\peripheral\i2s/cy_i2s.h **** * \param base The pointer to the I2S instance address.
 647:Generated_Source\PSoC6\pdl\drivers\peripheral\i2s/cy_i2s.h **** *
 648:Generated_Source\PSoC6\pdl\drivers\peripheral\i2s/cy_i2s.h **** * \funcusage
 649:Generated_Source\PSoC6\pdl\drivers\peripheral\i2s/cy_i2s.h **** * \snippet i2s\2.10\snippet\main.c snippet_Cy_I2S_DisableRx
 650:Generated_Source\PSoC6\pdl\drivers\peripheral\i2s/cy_i2s.h **** *
 651:Generated_Source\PSoC6\pdl\drivers\peripheral\i2s/cy_i2s.h **** *******************************************************************************/
 652:Generated_Source\PSoC6\pdl\drivers\peripheral\i2s/cy_i2s.h **** __STATIC_INLINE void Cy_I2S_DisableRx(I2S_Type * base)
 653:Generated_Source\PSoC6\pdl\drivers\peripheral\i2s/cy_i2s.h **** {
 654:Generated_Source\PSoC6\pdl\drivers\peripheral\i2s/cy_i2s.h ****     REG_I2S_CMD(base) &= (uint32_t) ~I2S_CMD_RX_START_Msk;
 655:Generated_Source\PSoC6\pdl\drivers\peripheral\i2s/cy_i2s.h **** }
 656:Generated_Source\PSoC6\pdl\drivers\peripheral\i2s/cy_i2s.h **** 
 657:Generated_Source\PSoC6\pdl\drivers\peripheral\i2s/cy_i2s.h **** 
 658:Generated_Source\PSoC6\pdl\drivers\peripheral\i2s/cy_i2s.h **** /*******************************************************************************
 659:Generated_Source\PSoC6\pdl\drivers\peripheral\i2s/cy_i2s.h **** * Function Name: Cy_I2S_GetCurrentState
 660:Generated_Source\PSoC6\pdl\drivers\peripheral\i2s/cy_i2s.h **** ****************************************************************************//**
 661:Generated_Source\PSoC6\pdl\drivers\peripheral\i2s/cy_i2s.h **** *
 662:Generated_Source\PSoC6\pdl\drivers\peripheral\i2s/cy_i2s.h **** * Returns the current I2S state (TX/RX running/paused/stopped).
 663:Generated_Source\PSoC6\pdl\drivers\peripheral\i2s/cy_i2s.h **** *
 664:Generated_Source\PSoC6\pdl\drivers\peripheral\i2s/cy_i2s.h **** * \param base The pointer to the I2S instance address.
 665:Generated_Source\PSoC6\pdl\drivers\peripheral\i2s/cy_i2s.h **** *
 666:Generated_Source\PSoC6\pdl\drivers\peripheral\i2s/cy_i2s.h **** * \return The current state \ref group_i2s_macros_current_state.
 667:Generated_Source\PSoC6\pdl\drivers\peripheral\i2s/cy_i2s.h **** *
 668:Generated_Source\PSoC6\pdl\drivers\peripheral\i2s/cy_i2s.h **** * \funcusage
 669:Generated_Source\PSoC6\pdl\drivers\peripheral\i2s/cy_i2s.h **** * \snippet i2s\2.10\snippet\main.c snippet_Cy_I2S_GetCurrentState
 670:Generated_Source\PSoC6\pdl\drivers\peripheral\i2s/cy_i2s.h **** *
 671:Generated_Source\PSoC6\pdl\drivers\peripheral\i2s/cy_i2s.h **** *******************************************************************************/
 672:Generated_Source\PSoC6\pdl\drivers\peripheral\i2s/cy_i2s.h **** __STATIC_INLINE uint32_t Cy_I2S_GetCurrentState(I2S_Type const * base)
 673:Generated_Source\PSoC6\pdl\drivers\peripheral\i2s/cy_i2s.h **** {
 674:Generated_Source\PSoC6\pdl\drivers\peripheral\i2s/cy_i2s.h ****     return (REG_I2S_CMD(base) & (I2S_CMD_TX_START_Msk | I2S_CMD_TX_PAUSE_Msk | I2S_CMD_RX_START_Msk
 675:Generated_Source\PSoC6\pdl\drivers\peripheral\i2s/cy_i2s.h **** }
 676:Generated_Source\PSoC6\pdl\drivers\peripheral\i2s/cy_i2s.h **** 
 677:Generated_Source\PSoC6\pdl\drivers\peripheral\i2s/cy_i2s.h **** 
 678:Generated_Source\PSoC6\pdl\drivers\peripheral\i2s/cy_i2s.h **** /*******************************************************************************
 679:Generated_Source\PSoC6\pdl\drivers\peripheral\i2s/cy_i2s.h **** * Function Name: Cy_I2S_ClearTxFifo
 680:Generated_Source\PSoC6\pdl\drivers\peripheral\i2s/cy_i2s.h **** ****************************************************************************//**
 681:Generated_Source\PSoC6\pdl\drivers\peripheral\i2s/cy_i2s.h **** *
 682:Generated_Source\PSoC6\pdl\drivers\peripheral\i2s/cy_i2s.h **** * Clears the TX FIFO (resets the Read/Write FIFO pointers).
 683:Generated_Source\PSoC6\pdl\drivers\peripheral\i2s/cy_i2s.h **** *
 684:Generated_Source\PSoC6\pdl\drivers\peripheral\i2s/cy_i2s.h **** * \param base The pointer to the I2S instance address.
ARM GAS  C:\Users\haske\AppData\Local\Temp\ccmgjESD.s 			page 32


 685:Generated_Source\PSoC6\pdl\drivers\peripheral\i2s/cy_i2s.h **** *
 686:Generated_Source\PSoC6\pdl\drivers\peripheral\i2s/cy_i2s.h **** * \funcusage
 687:Generated_Source\PSoC6\pdl\drivers\peripheral\i2s/cy_i2s.h **** * \snippet i2s\2.10\snippet\main.c snippet_Cy_I2S_ClearTxFifo
 688:Generated_Source\PSoC6\pdl\drivers\peripheral\i2s/cy_i2s.h **** *
 689:Generated_Source\PSoC6\pdl\drivers\peripheral\i2s/cy_i2s.h **** *******************************************************************************/
 690:Generated_Source\PSoC6\pdl\drivers\peripheral\i2s/cy_i2s.h **** __STATIC_INLINE void Cy_I2S_ClearTxFifo(I2S_Type * base)
 691:Generated_Source\PSoC6\pdl\drivers\peripheral\i2s/cy_i2s.h **** {
 692:Generated_Source\PSoC6\pdl\drivers\peripheral\i2s/cy_i2s.h ****     REG_I2S_TX_FIFO_CTL(base) |= I2S_TX_FIFO_CTL_CLEAR_Msk;
 693:Generated_Source\PSoC6\pdl\drivers\peripheral\i2s/cy_i2s.h ****     REG_I2S_TX_FIFO_CTL(base) &= (uint32_t) ~I2S_TX_FIFO_CTL_CLEAR_Msk;
 694:Generated_Source\PSoC6\pdl\drivers\peripheral\i2s/cy_i2s.h ****     (void) REG_I2S_TX_FIFO_CTL(base);
 695:Generated_Source\PSoC6\pdl\drivers\peripheral\i2s/cy_i2s.h **** }
 696:Generated_Source\PSoC6\pdl\drivers\peripheral\i2s/cy_i2s.h **** 
 697:Generated_Source\PSoC6\pdl\drivers\peripheral\i2s/cy_i2s.h **** 
 698:Generated_Source\PSoC6\pdl\drivers\peripheral\i2s/cy_i2s.h **** /*******************************************************************************
 699:Generated_Source\PSoC6\pdl\drivers\peripheral\i2s/cy_i2s.h **** * Function Name: Cy_I2S_GetNumInTxFifo
 700:Generated_Source\PSoC6\pdl\drivers\peripheral\i2s/cy_i2s.h **** ****************************************************************************//**
 701:Generated_Source\PSoC6\pdl\drivers\peripheral\i2s/cy_i2s.h **** *
 702:Generated_Source\PSoC6\pdl\drivers\peripheral\i2s/cy_i2s.h **** * Gets the number of used words in the TX FIFO.
 703:Generated_Source\PSoC6\pdl\drivers\peripheral\i2s/cy_i2s.h **** *
 704:Generated_Source\PSoC6\pdl\drivers\peripheral\i2s/cy_i2s.h **** * \param base The pointer to the I2S instance address.
 705:Generated_Source\PSoC6\pdl\drivers\peripheral\i2s/cy_i2s.h **** *
 706:Generated_Source\PSoC6\pdl\drivers\peripheral\i2s/cy_i2s.h **** * \return The current number of used words in the TX FIFO.
 707:Generated_Source\PSoC6\pdl\drivers\peripheral\i2s/cy_i2s.h **** *
 708:Generated_Source\PSoC6\pdl\drivers\peripheral\i2s/cy_i2s.h **** * \funcusage
 709:Generated_Source\PSoC6\pdl\drivers\peripheral\i2s/cy_i2s.h **** * \snippet i2s\2.10\snippet\main.c snippet_Cy_I2S_GetNumInTxFifo
 710:Generated_Source\PSoC6\pdl\drivers\peripheral\i2s/cy_i2s.h **** *
 711:Generated_Source\PSoC6\pdl\drivers\peripheral\i2s/cy_i2s.h **** *******************************************************************************/
 712:Generated_Source\PSoC6\pdl\drivers\peripheral\i2s/cy_i2s.h **** __STATIC_INLINE uint32_t Cy_I2S_GetNumInTxFifo(I2S_Type const * base)
 713:Generated_Source\PSoC6\pdl\drivers\peripheral\i2s/cy_i2s.h **** {   
 714:Generated_Source\PSoC6\pdl\drivers\peripheral\i2s/cy_i2s.h ****     return (_FLD2VAL(I2S_TX_FIFO_STATUS_USED, REG_I2S_TX_FIFO_STATUS(base)));
 715:Generated_Source\PSoC6\pdl\drivers\peripheral\i2s/cy_i2s.h **** }
 716:Generated_Source\PSoC6\pdl\drivers\peripheral\i2s/cy_i2s.h **** 
 717:Generated_Source\PSoC6\pdl\drivers\peripheral\i2s/cy_i2s.h **** 
 718:Generated_Source\PSoC6\pdl\drivers\peripheral\i2s/cy_i2s.h **** /*******************************************************************************
 719:Generated_Source\PSoC6\pdl\drivers\peripheral\i2s/cy_i2s.h **** * Function Name: Cy_I2S_WriteTxData
 720:Generated_Source\PSoC6\pdl\drivers\peripheral\i2s/cy_i2s.h **** ****************************************************************************//**
 721:Generated_Source\PSoC6\pdl\drivers\peripheral\i2s/cy_i2s.h **** *
 722:Generated_Source\PSoC6\pdl\drivers\peripheral\i2s/cy_i2s.h **** * Writes data to the TX FIFO. Increases the TX FIFO level.
 723:Generated_Source\PSoC6\pdl\drivers\peripheral\i2s/cy_i2s.h **** *
 724:Generated_Source\PSoC6\pdl\drivers\peripheral\i2s/cy_i2s.h **** * \param base The pointer to the I2S instance address.
 725:Generated_Source\PSoC6\pdl\drivers\peripheral\i2s/cy_i2s.h **** *
 726:Generated_Source\PSoC6\pdl\drivers\peripheral\i2s/cy_i2s.h **** * \param data Data to be written to the TX FIFO.
 727:Generated_Source\PSoC6\pdl\drivers\peripheral\i2s/cy_i2s.h **** *
 728:Generated_Source\PSoC6\pdl\drivers\peripheral\i2s/cy_i2s.h **** * \funcusage
 729:Generated_Source\PSoC6\pdl\drivers\peripheral\i2s/cy_i2s.h **** * \snippet i2s\2.10\snippet\main.c snippet_Cy_I2S_WriteTxData
 730:Generated_Source\PSoC6\pdl\drivers\peripheral\i2s/cy_i2s.h **** *
 731:Generated_Source\PSoC6\pdl\drivers\peripheral\i2s/cy_i2s.h **** *******************************************************************************/
 732:Generated_Source\PSoC6\pdl\drivers\peripheral\i2s/cy_i2s.h **** __STATIC_INLINE void Cy_I2S_WriteTxData(I2S_Type * base, uint32_t data)
 733:Generated_Source\PSoC6\pdl\drivers\peripheral\i2s/cy_i2s.h **** {
 734:Generated_Source\PSoC6\pdl\drivers\peripheral\i2s/cy_i2s.h ****     REG_I2S_TX_FIFO_WR(base) = data;
 735:Generated_Source\PSoC6\pdl\drivers\peripheral\i2s/cy_i2s.h **** }
 736:Generated_Source\PSoC6\pdl\drivers\peripheral\i2s/cy_i2s.h **** 
 737:Generated_Source\PSoC6\pdl\drivers\peripheral\i2s/cy_i2s.h **** 
 738:Generated_Source\PSoC6\pdl\drivers\peripheral\i2s/cy_i2s.h **** /*******************************************************************************
 739:Generated_Source\PSoC6\pdl\drivers\peripheral\i2s/cy_i2s.h **** * Function Name: Cy_I2S_GetTxReadPointer
 740:Generated_Source\PSoC6\pdl\drivers\peripheral\i2s/cy_i2s.h **** ****************************************************************************//**
 741:Generated_Source\PSoC6\pdl\drivers\peripheral\i2s/cy_i2s.h **** *
ARM GAS  C:\Users\haske\AppData\Local\Temp\ccmgjESD.s 			page 33


 742:Generated_Source\PSoC6\pdl\drivers\peripheral\i2s/cy_i2s.h **** * Gets the TX FIFO Read pointer. This function is for debug purposes.
 743:Generated_Source\PSoC6\pdl\drivers\peripheral\i2s/cy_i2s.h **** *
 744:Generated_Source\PSoC6\pdl\drivers\peripheral\i2s/cy_i2s.h **** * \param base The pointer to the I2S instance address.
 745:Generated_Source\PSoC6\pdl\drivers\peripheral\i2s/cy_i2s.h **** *
 746:Generated_Source\PSoC6\pdl\drivers\peripheral\i2s/cy_i2s.h **** * \return The current TX Read pointer value.
 747:Generated_Source\PSoC6\pdl\drivers\peripheral\i2s/cy_i2s.h **** *
 748:Generated_Source\PSoC6\pdl\drivers\peripheral\i2s/cy_i2s.h **** * \funcusage
 749:Generated_Source\PSoC6\pdl\drivers\peripheral\i2s/cy_i2s.h **** * \snippet i2s\2.10\snippet\main.c snippet_Cy_I2S_GetTxReadPointer
 750:Generated_Source\PSoC6\pdl\drivers\peripheral\i2s/cy_i2s.h **** *
 751:Generated_Source\PSoC6\pdl\drivers\peripheral\i2s/cy_i2s.h **** *******************************************************************************/
 752:Generated_Source\PSoC6\pdl\drivers\peripheral\i2s/cy_i2s.h **** __STATIC_INLINE uint8_t Cy_I2S_GetTxReadPointer(I2S_Type const * base)
 753:Generated_Source\PSoC6\pdl\drivers\peripheral\i2s/cy_i2s.h **** {
 754:Generated_Source\PSoC6\pdl\drivers\peripheral\i2s/cy_i2s.h ****     return ((uint8_t) _FLD2VAL(I2S_TX_FIFO_STATUS_RD_PTR, REG_I2S_TX_FIFO_STATUS(base)));
 755:Generated_Source\PSoC6\pdl\drivers\peripheral\i2s/cy_i2s.h **** }
 756:Generated_Source\PSoC6\pdl\drivers\peripheral\i2s/cy_i2s.h **** 
 757:Generated_Source\PSoC6\pdl\drivers\peripheral\i2s/cy_i2s.h **** 
 758:Generated_Source\PSoC6\pdl\drivers\peripheral\i2s/cy_i2s.h **** /*******************************************************************************
 759:Generated_Source\PSoC6\pdl\drivers\peripheral\i2s/cy_i2s.h **** * Function Name: Cy_I2S_GetTxWritePointer
 760:Generated_Source\PSoC6\pdl\drivers\peripheral\i2s/cy_i2s.h **** ****************************************************************************//**
 761:Generated_Source\PSoC6\pdl\drivers\peripheral\i2s/cy_i2s.h **** *
 762:Generated_Source\PSoC6\pdl\drivers\peripheral\i2s/cy_i2s.h **** * Gets the TX FIFO Write pointer. This function is for debug purposes.
 763:Generated_Source\PSoC6\pdl\drivers\peripheral\i2s/cy_i2s.h **** *
 764:Generated_Source\PSoC6\pdl\drivers\peripheral\i2s/cy_i2s.h **** * \param base The pointer to the I2S instance address.
 765:Generated_Source\PSoC6\pdl\drivers\peripheral\i2s/cy_i2s.h **** *
 766:Generated_Source\PSoC6\pdl\drivers\peripheral\i2s/cy_i2s.h **** * \return The current TX Write pointer value.
 767:Generated_Source\PSoC6\pdl\drivers\peripheral\i2s/cy_i2s.h **** *
 768:Generated_Source\PSoC6\pdl\drivers\peripheral\i2s/cy_i2s.h **** * \funcusage
 769:Generated_Source\PSoC6\pdl\drivers\peripheral\i2s/cy_i2s.h **** * \snippet i2s\2.10\snippet\main.c snippet_Cy_I2S_GetTxWritePointer
 770:Generated_Source\PSoC6\pdl\drivers\peripheral\i2s/cy_i2s.h **** *
 771:Generated_Source\PSoC6\pdl\drivers\peripheral\i2s/cy_i2s.h **** *******************************************************************************/
 772:Generated_Source\PSoC6\pdl\drivers\peripheral\i2s/cy_i2s.h **** __STATIC_INLINE uint8_t Cy_I2S_GetTxWritePointer(I2S_Type const * base)
 773:Generated_Source\PSoC6\pdl\drivers\peripheral\i2s/cy_i2s.h **** {
 774:Generated_Source\PSoC6\pdl\drivers\peripheral\i2s/cy_i2s.h ****     return ((uint8_t) _FLD2VAL(I2S_TX_FIFO_STATUS_WR_PTR, REG_I2S_TX_FIFO_STATUS(base)));
 775:Generated_Source\PSoC6\pdl\drivers\peripheral\i2s/cy_i2s.h **** }
 776:Generated_Source\PSoC6\pdl\drivers\peripheral\i2s/cy_i2s.h **** 
 777:Generated_Source\PSoC6\pdl\drivers\peripheral\i2s/cy_i2s.h **** 
 778:Generated_Source\PSoC6\pdl\drivers\peripheral\i2s/cy_i2s.h **** /*******************************************************************************
 779:Generated_Source\PSoC6\pdl\drivers\peripheral\i2s/cy_i2s.h **** * Function Name: Cy_I2S_FreezeTxFifo
 780:Generated_Source\PSoC6\pdl\drivers\peripheral\i2s/cy_i2s.h **** ****************************************************************************//**
 781:Generated_Source\PSoC6\pdl\drivers\peripheral\i2s/cy_i2s.h **** *
 782:Generated_Source\PSoC6\pdl\drivers\peripheral\i2s/cy_i2s.h **** * Freezes the TX FIFO. This function is for debug purposes.
 783:Generated_Source\PSoC6\pdl\drivers\peripheral\i2s/cy_i2s.h **** *
 784:Generated_Source\PSoC6\pdl\drivers\peripheral\i2s/cy_i2s.h **** * \param base The pointer to the I2S instance address.
 785:Generated_Source\PSoC6\pdl\drivers\peripheral\i2s/cy_i2s.h **** *
 786:Generated_Source\PSoC6\pdl\drivers\peripheral\i2s/cy_i2s.h **** * \funcusage
 787:Generated_Source\PSoC6\pdl\drivers\peripheral\i2s/cy_i2s.h **** * \snippet i2s\2.10\snippet\main.c snippet_Cy_I2S_FreezeTxFifo
 788:Generated_Source\PSoC6\pdl\drivers\peripheral\i2s/cy_i2s.h **** *
 789:Generated_Source\PSoC6\pdl\drivers\peripheral\i2s/cy_i2s.h **** *******************************************************************************/
 790:Generated_Source\PSoC6\pdl\drivers\peripheral\i2s/cy_i2s.h **** __STATIC_INLINE void Cy_I2S_FreezeTxFifo(I2S_Type * base)
 791:Generated_Source\PSoC6\pdl\drivers\peripheral\i2s/cy_i2s.h **** {
 792:Generated_Source\PSoC6\pdl\drivers\peripheral\i2s/cy_i2s.h ****     REG_I2S_TX_FIFO_CTL(base) |= I2S_TX_FIFO_CTL_FREEZE_Msk;
 793:Generated_Source\PSoC6\pdl\drivers\peripheral\i2s/cy_i2s.h **** }
 794:Generated_Source\PSoC6\pdl\drivers\peripheral\i2s/cy_i2s.h **** 
 795:Generated_Source\PSoC6\pdl\drivers\peripheral\i2s/cy_i2s.h **** 
 796:Generated_Source\PSoC6\pdl\drivers\peripheral\i2s/cy_i2s.h **** /*******************************************************************************
 797:Generated_Source\PSoC6\pdl\drivers\peripheral\i2s/cy_i2s.h **** * Function Name: Cy_I2S_UnfreezeTxFifo
 798:Generated_Source\PSoC6\pdl\drivers\peripheral\i2s/cy_i2s.h **** ****************************************************************************//**
ARM GAS  C:\Users\haske\AppData\Local\Temp\ccmgjESD.s 			page 34


 799:Generated_Source\PSoC6\pdl\drivers\peripheral\i2s/cy_i2s.h **** *
 800:Generated_Source\PSoC6\pdl\drivers\peripheral\i2s/cy_i2s.h **** * Unfreezes the TX FIFO. This function is for debug purposes.
 801:Generated_Source\PSoC6\pdl\drivers\peripheral\i2s/cy_i2s.h **** *
 802:Generated_Source\PSoC6\pdl\drivers\peripheral\i2s/cy_i2s.h **** * \param base The pointer to the I2S instance address.
 803:Generated_Source\PSoC6\pdl\drivers\peripheral\i2s/cy_i2s.h **** *
 804:Generated_Source\PSoC6\pdl\drivers\peripheral\i2s/cy_i2s.h **** * \funcusage
 805:Generated_Source\PSoC6\pdl\drivers\peripheral\i2s/cy_i2s.h **** * \snippet i2s\2.10\snippet\main.c snippet_Cy_I2S_UnfreezeTxFifo
 806:Generated_Source\PSoC6\pdl\drivers\peripheral\i2s/cy_i2s.h **** *
 807:Generated_Source\PSoC6\pdl\drivers\peripheral\i2s/cy_i2s.h **** *******************************************************************************/
 808:Generated_Source\PSoC6\pdl\drivers\peripheral\i2s/cy_i2s.h **** __STATIC_INLINE void Cy_I2S_UnfreezeTxFifo(I2S_Type * base)
 809:Generated_Source\PSoC6\pdl\drivers\peripheral\i2s/cy_i2s.h **** {
 810:Generated_Source\PSoC6\pdl\drivers\peripheral\i2s/cy_i2s.h ****     REG_I2S_TX_FIFO_CTL(base) &= (uint32_t) ~I2S_TX_FIFO_CTL_FREEZE_Msk;
 811:Generated_Source\PSoC6\pdl\drivers\peripheral\i2s/cy_i2s.h **** }
 812:Generated_Source\PSoC6\pdl\drivers\peripheral\i2s/cy_i2s.h **** 
 813:Generated_Source\PSoC6\pdl\drivers\peripheral\i2s/cy_i2s.h **** 
 814:Generated_Source\PSoC6\pdl\drivers\peripheral\i2s/cy_i2s.h **** /*******************************************************************************
 815:Generated_Source\PSoC6\pdl\drivers\peripheral\i2s/cy_i2s.h **** * Function Name: Cy_I2S_ClearRxFifo
 816:Generated_Source\PSoC6\pdl\drivers\peripheral\i2s/cy_i2s.h **** ****************************************************************************//**
 817:Generated_Source\PSoC6\pdl\drivers\peripheral\i2s/cy_i2s.h **** *
 818:Generated_Source\PSoC6\pdl\drivers\peripheral\i2s/cy_i2s.h **** * Clears the RX FIFO (resets the Read/Write FIFO pointers).
 819:Generated_Source\PSoC6\pdl\drivers\peripheral\i2s/cy_i2s.h **** *
 820:Generated_Source\PSoC6\pdl\drivers\peripheral\i2s/cy_i2s.h **** * \param base The pointer to the I2S instance address.
 821:Generated_Source\PSoC6\pdl\drivers\peripheral\i2s/cy_i2s.h **** *
 822:Generated_Source\PSoC6\pdl\drivers\peripheral\i2s/cy_i2s.h **** * \funcusage
 823:Generated_Source\PSoC6\pdl\drivers\peripheral\i2s/cy_i2s.h **** * \snippet i2s\2.10\snippet\main.c snippet_Cy_I2S_ClearRxFifo
 824:Generated_Source\PSoC6\pdl\drivers\peripheral\i2s/cy_i2s.h **** *
 825:Generated_Source\PSoC6\pdl\drivers\peripheral\i2s/cy_i2s.h **** *******************************************************************************/
 826:Generated_Source\PSoC6\pdl\drivers\peripheral\i2s/cy_i2s.h **** __STATIC_INLINE void Cy_I2S_ClearRxFifo(I2S_Type * base)
 827:Generated_Source\PSoC6\pdl\drivers\peripheral\i2s/cy_i2s.h **** {
 828:Generated_Source\PSoC6\pdl\drivers\peripheral\i2s/cy_i2s.h ****     REG_I2S_RX_FIFO_CTL(base)  |= I2S_RX_FIFO_CTL_CLEAR_Msk;
 829:Generated_Source\PSoC6\pdl\drivers\peripheral\i2s/cy_i2s.h ****     REG_I2S_RX_FIFO_CTL(base)  &= (uint32_t) ~I2S_RX_FIFO_CTL_CLEAR_Msk;
 830:Generated_Source\PSoC6\pdl\drivers\peripheral\i2s/cy_i2s.h ****     (void) REG_I2S_RX_FIFO_CTL(base) ;
 831:Generated_Source\PSoC6\pdl\drivers\peripheral\i2s/cy_i2s.h **** }
 832:Generated_Source\PSoC6\pdl\drivers\peripheral\i2s/cy_i2s.h **** 
 833:Generated_Source\PSoC6\pdl\drivers\peripheral\i2s/cy_i2s.h **** 
 834:Generated_Source\PSoC6\pdl\drivers\peripheral\i2s/cy_i2s.h **** /*******************************************************************************
 835:Generated_Source\PSoC6\pdl\drivers\peripheral\i2s/cy_i2s.h **** * Function Name: Cy_I2S_GetNumInRxFifo
 836:Generated_Source\PSoC6\pdl\drivers\peripheral\i2s/cy_i2s.h **** ****************************************************************************//**
 837:Generated_Source\PSoC6\pdl\drivers\peripheral\i2s/cy_i2s.h **** *
 838:Generated_Source\PSoC6\pdl\drivers\peripheral\i2s/cy_i2s.h **** * Gets the number of used words in the RX FIFO.
 839:Generated_Source\PSoC6\pdl\drivers\peripheral\i2s/cy_i2s.h **** *
 840:Generated_Source\PSoC6\pdl\drivers\peripheral\i2s/cy_i2s.h **** * \param base The pointer to the I2S instance address.
 841:Generated_Source\PSoC6\pdl\drivers\peripheral\i2s/cy_i2s.h **** *
 842:Generated_Source\PSoC6\pdl\drivers\peripheral\i2s/cy_i2s.h **** * \return The current number of used words in rge RX FIFO.
 843:Generated_Source\PSoC6\pdl\drivers\peripheral\i2s/cy_i2s.h **** *
 844:Generated_Source\PSoC6\pdl\drivers\peripheral\i2s/cy_i2s.h **** * \funcusage
 845:Generated_Source\PSoC6\pdl\drivers\peripheral\i2s/cy_i2s.h **** * \snippet i2s\2.10\snippet\main.c snippet_Cy_I2S_GetNumInRxFifo
 846:Generated_Source\PSoC6\pdl\drivers\peripheral\i2s/cy_i2s.h **** *
 847:Generated_Source\PSoC6\pdl\drivers\peripheral\i2s/cy_i2s.h **** *******************************************************************************/
 848:Generated_Source\PSoC6\pdl\drivers\peripheral\i2s/cy_i2s.h **** __STATIC_INLINE uint32_t Cy_I2S_GetNumInRxFifo(I2S_Type const * base)
 849:Generated_Source\PSoC6\pdl\drivers\peripheral\i2s/cy_i2s.h **** {
 850:Generated_Source\PSoC6\pdl\drivers\peripheral\i2s/cy_i2s.h ****     return (_FLD2VAL(I2S_RX_FIFO_STATUS_USED, REG_I2S_RX_FIFO_STATUS(base)));
 851:Generated_Source\PSoC6\pdl\drivers\peripheral\i2s/cy_i2s.h **** }
 852:Generated_Source\PSoC6\pdl\drivers\peripheral\i2s/cy_i2s.h **** 
 853:Generated_Source\PSoC6\pdl\drivers\peripheral\i2s/cy_i2s.h **** 
 854:Generated_Source\PSoC6\pdl\drivers\peripheral\i2s/cy_i2s.h **** /*******************************************************************************
 855:Generated_Source\PSoC6\pdl\drivers\peripheral\i2s/cy_i2s.h **** * Function Name: Cy_I2S_ReadRxData
ARM GAS  C:\Users\haske\AppData\Local\Temp\ccmgjESD.s 			page 35


 856:Generated_Source\PSoC6\pdl\drivers\peripheral\i2s/cy_i2s.h **** ****************************************************************************//**
 857:Generated_Source\PSoC6\pdl\drivers\peripheral\i2s/cy_i2s.h **** *
 858:Generated_Source\PSoC6\pdl\drivers\peripheral\i2s/cy_i2s.h **** * Reads data from the RX FIFO. Decreases the RX FIFO level.
 859:Generated_Source\PSoC6\pdl\drivers\peripheral\i2s/cy_i2s.h **** *
 860:Generated_Source\PSoC6\pdl\drivers\peripheral\i2s/cy_i2s.h **** * \param base The pointer to the I2S instance address.
 861:Generated_Source\PSoC6\pdl\drivers\peripheral\i2s/cy_i2s.h **** *
 862:Generated_Source\PSoC6\pdl\drivers\peripheral\i2s/cy_i2s.h **** * \return The read data.
 863:Generated_Source\PSoC6\pdl\drivers\peripheral\i2s/cy_i2s.h **** *
 864:Generated_Source\PSoC6\pdl\drivers\peripheral\i2s/cy_i2s.h **** * \funcusage
 865:Generated_Source\PSoC6\pdl\drivers\peripheral\i2s/cy_i2s.h **** * \snippet i2s\2.10\snippet\main.c snippet_Cy_I2S_ReadRxData
 866:Generated_Source\PSoC6\pdl\drivers\peripheral\i2s/cy_i2s.h **** *
 867:Generated_Source\PSoC6\pdl\drivers\peripheral\i2s/cy_i2s.h **** *******************************************************************************/
 868:Generated_Source\PSoC6\pdl\drivers\peripheral\i2s/cy_i2s.h **** __STATIC_INLINE uint32_t Cy_I2S_ReadRxData(I2S_Type const * base)
 869:Generated_Source\PSoC6\pdl\drivers\peripheral\i2s/cy_i2s.h **** {
 870:Generated_Source\PSoC6\pdl\drivers\peripheral\i2s/cy_i2s.h ****     return (REG_I2S_RX_FIFO_RD(base));
 871:Generated_Source\PSoC6\pdl\drivers\peripheral\i2s/cy_i2s.h **** }
 872:Generated_Source\PSoC6\pdl\drivers\peripheral\i2s/cy_i2s.h **** 
 873:Generated_Source\PSoC6\pdl\drivers\peripheral\i2s/cy_i2s.h **** 
 874:Generated_Source\PSoC6\pdl\drivers\peripheral\i2s/cy_i2s.h **** /*******************************************************************************
 875:Generated_Source\PSoC6\pdl\drivers\peripheral\i2s/cy_i2s.h **** * Function Name: Cy_I2S_ReadRxDataSilent
 876:Generated_Source\PSoC6\pdl\drivers\peripheral\i2s/cy_i2s.h **** ****************************************************************************//**
 877:Generated_Source\PSoC6\pdl\drivers\peripheral\i2s/cy_i2s.h **** *
 878:Generated_Source\PSoC6\pdl\drivers\peripheral\i2s/cy_i2s.h **** * Reads data from the RX FIFO without updating the RX FIFO read pointer.
 879:Generated_Source\PSoC6\pdl\drivers\peripheral\i2s/cy_i2s.h **** * This function is for debug purposes.
 880:Generated_Source\PSoC6\pdl\drivers\peripheral\i2s/cy_i2s.h **** *
 881:Generated_Source\PSoC6\pdl\drivers\peripheral\i2s/cy_i2s.h **** * \param base The pointer to the I2S instance address.
 882:Generated_Source\PSoC6\pdl\drivers\peripheral\i2s/cy_i2s.h **** *
 883:Generated_Source\PSoC6\pdl\drivers\peripheral\i2s/cy_i2s.h **** * \return The read data.
 884:Generated_Source\PSoC6\pdl\drivers\peripheral\i2s/cy_i2s.h **** *
 885:Generated_Source\PSoC6\pdl\drivers\peripheral\i2s/cy_i2s.h **** * \funcusage
 886:Generated_Source\PSoC6\pdl\drivers\peripheral\i2s/cy_i2s.h **** * \snippet i2s\2.10\snippet\main.c snippet_Cy_I2S_ReadRxDataSilent
 887:Generated_Source\PSoC6\pdl\drivers\peripheral\i2s/cy_i2s.h **** *
 888:Generated_Source\PSoC6\pdl\drivers\peripheral\i2s/cy_i2s.h **** *******************************************************************************/
 889:Generated_Source\PSoC6\pdl\drivers\peripheral\i2s/cy_i2s.h **** __STATIC_INLINE uint32_t Cy_I2S_ReadRxDataSilent(I2S_Type const * base)
 890:Generated_Source\PSoC6\pdl\drivers\peripheral\i2s/cy_i2s.h **** {
 891:Generated_Source\PSoC6\pdl\drivers\peripheral\i2s/cy_i2s.h ****     return (REG_I2S_RX_FIFO_RD_SILENT(base));
 892:Generated_Source\PSoC6\pdl\drivers\peripheral\i2s/cy_i2s.h **** }
 893:Generated_Source\PSoC6\pdl\drivers\peripheral\i2s/cy_i2s.h **** 
 894:Generated_Source\PSoC6\pdl\drivers\peripheral\i2s/cy_i2s.h **** 
 895:Generated_Source\PSoC6\pdl\drivers\peripheral\i2s/cy_i2s.h **** /*******************************************************************************
 896:Generated_Source\PSoC6\pdl\drivers\peripheral\i2s/cy_i2s.h **** * Function Name: Cy_I2S_GetRxReadPointer
 897:Generated_Source\PSoC6\pdl\drivers\peripheral\i2s/cy_i2s.h **** ****************************************************************************//**
 898:Generated_Source\PSoC6\pdl\drivers\peripheral\i2s/cy_i2s.h **** *
 899:Generated_Source\PSoC6\pdl\drivers\peripheral\i2s/cy_i2s.h **** * Gets the RX FIFO Read pointer. This function is for debug purposes.
 900:Generated_Source\PSoC6\pdl\drivers\peripheral\i2s/cy_i2s.h **** *
 901:Generated_Source\PSoC6\pdl\drivers\peripheral\i2s/cy_i2s.h **** * \param base The pointer to the I2S instance address.
 902:Generated_Source\PSoC6\pdl\drivers\peripheral\i2s/cy_i2s.h **** *
 903:Generated_Source\PSoC6\pdl\drivers\peripheral\i2s/cy_i2s.h **** * \return The current RX Read pointer value.
 904:Generated_Source\PSoC6\pdl\drivers\peripheral\i2s/cy_i2s.h **** *
 905:Generated_Source\PSoC6\pdl\drivers\peripheral\i2s/cy_i2s.h **** * \funcusage
 906:Generated_Source\PSoC6\pdl\drivers\peripheral\i2s/cy_i2s.h **** * \snippet i2s\2.10\snippet\main.c snippet_Cy_I2S_GetRxReadPointer
 907:Generated_Source\PSoC6\pdl\drivers\peripheral\i2s/cy_i2s.h **** *
 908:Generated_Source\PSoC6\pdl\drivers\peripheral\i2s/cy_i2s.h **** *******************************************************************************/
 909:Generated_Source\PSoC6\pdl\drivers\peripheral\i2s/cy_i2s.h **** __STATIC_INLINE uint8_t Cy_I2S_GetRxReadPointer(I2S_Type const * base)
 910:Generated_Source\PSoC6\pdl\drivers\peripheral\i2s/cy_i2s.h **** {
 911:Generated_Source\PSoC6\pdl\drivers\peripheral\i2s/cy_i2s.h ****     return ((uint8_t) _FLD2VAL(I2S_RX_FIFO_STATUS_RD_PTR, REG_I2S_RX_FIFO_STATUS(base)));
 912:Generated_Source\PSoC6\pdl\drivers\peripheral\i2s/cy_i2s.h **** }
ARM GAS  C:\Users\haske\AppData\Local\Temp\ccmgjESD.s 			page 36


 913:Generated_Source\PSoC6\pdl\drivers\peripheral\i2s/cy_i2s.h **** 
 914:Generated_Source\PSoC6\pdl\drivers\peripheral\i2s/cy_i2s.h **** 
 915:Generated_Source\PSoC6\pdl\drivers\peripheral\i2s/cy_i2s.h **** /*******************************************************************************
 916:Generated_Source\PSoC6\pdl\drivers\peripheral\i2s/cy_i2s.h **** * Function Name: Cy_I2S_GetRxWritePointer
 917:Generated_Source\PSoC6\pdl\drivers\peripheral\i2s/cy_i2s.h **** ****************************************************************************//**
 918:Generated_Source\PSoC6\pdl\drivers\peripheral\i2s/cy_i2s.h **** *
 919:Generated_Source\PSoC6\pdl\drivers\peripheral\i2s/cy_i2s.h **** * Gets the RX FIFO Write pointer. This function is for debug purposes.
 920:Generated_Source\PSoC6\pdl\drivers\peripheral\i2s/cy_i2s.h **** *
 921:Generated_Source\PSoC6\pdl\drivers\peripheral\i2s/cy_i2s.h **** * \param base The pointer to the I2S instance address.
 922:Generated_Source\PSoC6\pdl\drivers\peripheral\i2s/cy_i2s.h **** *
 923:Generated_Source\PSoC6\pdl\drivers\peripheral\i2s/cy_i2s.h **** * \return The current RX Write pointer value.
 924:Generated_Source\PSoC6\pdl\drivers\peripheral\i2s/cy_i2s.h **** *
 925:Generated_Source\PSoC6\pdl\drivers\peripheral\i2s/cy_i2s.h **** * \funcusage
 926:Generated_Source\PSoC6\pdl\drivers\peripheral\i2s/cy_i2s.h **** * \snippet i2s\2.10\snippet\main.c snippet_Cy_I2S_GetRxWritePointer
 927:Generated_Source\PSoC6\pdl\drivers\peripheral\i2s/cy_i2s.h **** *
 928:Generated_Source\PSoC6\pdl\drivers\peripheral\i2s/cy_i2s.h **** *******************************************************************************/
 929:Generated_Source\PSoC6\pdl\drivers\peripheral\i2s/cy_i2s.h **** __STATIC_INLINE uint8_t Cy_I2S_GetRxWritePointer(I2S_Type const * base)
 930:Generated_Source\PSoC6\pdl\drivers\peripheral\i2s/cy_i2s.h **** {
 931:Generated_Source\PSoC6\pdl\drivers\peripheral\i2s/cy_i2s.h ****     return ((uint8_t) _FLD2VAL(I2S_RX_FIFO_STATUS_WR_PTR, REG_I2S_RX_FIFO_STATUS(base)));
 932:Generated_Source\PSoC6\pdl\drivers\peripheral\i2s/cy_i2s.h **** }
 933:Generated_Source\PSoC6\pdl\drivers\peripheral\i2s/cy_i2s.h **** 
 934:Generated_Source\PSoC6\pdl\drivers\peripheral\i2s/cy_i2s.h **** 
 935:Generated_Source\PSoC6\pdl\drivers\peripheral\i2s/cy_i2s.h **** /*******************************************************************************
 936:Generated_Source\PSoC6\pdl\drivers\peripheral\i2s/cy_i2s.h **** * Function Name: Cy_I2S_FreezeRxFifo
 937:Generated_Source\PSoC6\pdl\drivers\peripheral\i2s/cy_i2s.h **** ****************************************************************************//**
 938:Generated_Source\PSoC6\pdl\drivers\peripheral\i2s/cy_i2s.h **** *
 939:Generated_Source\PSoC6\pdl\drivers\peripheral\i2s/cy_i2s.h **** * Freezes the RX FIFO. This function is for debug purposes.
 940:Generated_Source\PSoC6\pdl\drivers\peripheral\i2s/cy_i2s.h **** *
 941:Generated_Source\PSoC6\pdl\drivers\peripheral\i2s/cy_i2s.h **** * \param base The pointer to the I2S instance address.
 942:Generated_Source\PSoC6\pdl\drivers\peripheral\i2s/cy_i2s.h **** *
 943:Generated_Source\PSoC6\pdl\drivers\peripheral\i2s/cy_i2s.h **** * \funcusage
 944:Generated_Source\PSoC6\pdl\drivers\peripheral\i2s/cy_i2s.h **** * \snippet i2s\2.10\snippet\main.c snippet_Cy_I2S_FreezeRxFifo
 945:Generated_Source\PSoC6\pdl\drivers\peripheral\i2s/cy_i2s.h **** *
 946:Generated_Source\PSoC6\pdl\drivers\peripheral\i2s/cy_i2s.h **** *******************************************************************************/
 947:Generated_Source\PSoC6\pdl\drivers\peripheral\i2s/cy_i2s.h **** __STATIC_INLINE void Cy_I2S_FreezeRxFifo(I2S_Type * base)
 948:Generated_Source\PSoC6\pdl\drivers\peripheral\i2s/cy_i2s.h **** {
 949:Generated_Source\PSoC6\pdl\drivers\peripheral\i2s/cy_i2s.h ****     REG_I2S_RX_FIFO_CTL(base) |= I2S_RX_FIFO_CTL_FREEZE_Msk;
 950:Generated_Source\PSoC6\pdl\drivers\peripheral\i2s/cy_i2s.h **** }
 951:Generated_Source\PSoC6\pdl\drivers\peripheral\i2s/cy_i2s.h **** 
 952:Generated_Source\PSoC6\pdl\drivers\peripheral\i2s/cy_i2s.h **** 
 953:Generated_Source\PSoC6\pdl\drivers\peripheral\i2s/cy_i2s.h **** /*******************************************************************************
 954:Generated_Source\PSoC6\pdl\drivers\peripheral\i2s/cy_i2s.h **** * Function Name: Cy_I2S_UnfreezeRxFifo
 955:Generated_Source\PSoC6\pdl\drivers\peripheral\i2s/cy_i2s.h **** ****************************************************************************//**
 956:Generated_Source\PSoC6\pdl\drivers\peripheral\i2s/cy_i2s.h **** *
 957:Generated_Source\PSoC6\pdl\drivers\peripheral\i2s/cy_i2s.h **** * Unfreezes the RX FIFO. This function is for debug purposes.
 958:Generated_Source\PSoC6\pdl\drivers\peripheral\i2s/cy_i2s.h **** *
 959:Generated_Source\PSoC6\pdl\drivers\peripheral\i2s/cy_i2s.h **** * \param base The pointer to the I2S instance address.
 960:Generated_Source\PSoC6\pdl\drivers\peripheral\i2s/cy_i2s.h **** *
 961:Generated_Source\PSoC6\pdl\drivers\peripheral\i2s/cy_i2s.h **** * \funcusage
 962:Generated_Source\PSoC6\pdl\drivers\peripheral\i2s/cy_i2s.h **** * \snippet i2s\2.10\snippet\main.c snippet_Cy_I2S_UnfreezeRxFifo
 963:Generated_Source\PSoC6\pdl\drivers\peripheral\i2s/cy_i2s.h **** *
 964:Generated_Source\PSoC6\pdl\drivers\peripheral\i2s/cy_i2s.h **** *******************************************************************************/
 965:Generated_Source\PSoC6\pdl\drivers\peripheral\i2s/cy_i2s.h **** __STATIC_INLINE void Cy_I2S_UnfreezeRxFifo(I2S_Type * base)
 966:Generated_Source\PSoC6\pdl\drivers\peripheral\i2s/cy_i2s.h **** {
 967:Generated_Source\PSoC6\pdl\drivers\peripheral\i2s/cy_i2s.h ****     REG_I2S_RX_FIFO_CTL(base) &= (uint32_t) ~I2S_RX_FIFO_CTL_FREEZE_Msk;
 968:Generated_Source\PSoC6\pdl\drivers\peripheral\i2s/cy_i2s.h **** }
 969:Generated_Source\PSoC6\pdl\drivers\peripheral\i2s/cy_i2s.h **** 
ARM GAS  C:\Users\haske\AppData\Local\Temp\ccmgjESD.s 			page 37


 970:Generated_Source\PSoC6\pdl\drivers\peripheral\i2s/cy_i2s.h **** 
 971:Generated_Source\PSoC6\pdl\drivers\peripheral\i2s/cy_i2s.h **** /*******************************************************************************
 972:Generated_Source\PSoC6\pdl\drivers\peripheral\i2s/cy_i2s.h **** * Function Name: Cy_I2S_GetInterruptStatus
 973:Generated_Source\PSoC6\pdl\drivers\peripheral\i2s/cy_i2s.h **** ****************************************************************************//**
 974:Generated_Source\PSoC6\pdl\drivers\peripheral\i2s/cy_i2s.h **** *
 975:Generated_Source\PSoC6\pdl\drivers\peripheral\i2s/cy_i2s.h **** * Gets an interrupt status (returns a content of the INTR register).
 976:Generated_Source\PSoC6\pdl\drivers\peripheral\i2s/cy_i2s.h **** *
 977:Generated_Source\PSoC6\pdl\drivers\peripheral\i2s/cy_i2s.h **** * \param base The pointer to the I2S instance address.
 978:Generated_Source\PSoC6\pdl\drivers\peripheral\i2s/cy_i2s.h **** *
 979:Generated_Source\PSoC6\pdl\drivers\peripheral\i2s/cy_i2s.h **** * \return The interrupt bit mask \ref group_i2s_macros_interrupt_masks.
 980:Generated_Source\PSoC6\pdl\drivers\peripheral\i2s/cy_i2s.h **** *
 981:Generated_Source\PSoC6\pdl\drivers\peripheral\i2s/cy_i2s.h **** * \funcusage
 982:Generated_Source\PSoC6\pdl\drivers\peripheral\i2s/cy_i2s.h **** * \snippet i2s\2.10\snippet\main.c snippet_Cy_I2S_GetInterruptStatus
 983:Generated_Source\PSoC6\pdl\drivers\peripheral\i2s/cy_i2s.h **** *
 984:Generated_Source\PSoC6\pdl\drivers\peripheral\i2s/cy_i2s.h **** *******************************************************************************/
 985:Generated_Source\PSoC6\pdl\drivers\peripheral\i2s/cy_i2s.h **** __STATIC_INLINE uint32_t Cy_I2S_GetInterruptStatus(I2S_Type const * base)
 986:Generated_Source\PSoC6\pdl\drivers\peripheral\i2s/cy_i2s.h **** {
 987:Generated_Source\PSoC6\pdl\drivers\peripheral\i2s/cy_i2s.h ****     return (REG_I2S_INTR(base));
 988:Generated_Source\PSoC6\pdl\drivers\peripheral\i2s/cy_i2s.h **** }
 989:Generated_Source\PSoC6\pdl\drivers\peripheral\i2s/cy_i2s.h **** 
 990:Generated_Source\PSoC6\pdl\drivers\peripheral\i2s/cy_i2s.h **** 
 991:Generated_Source\PSoC6\pdl\drivers\peripheral\i2s/cy_i2s.h **** /*******************************************************************************
 992:Generated_Source\PSoC6\pdl\drivers\peripheral\i2s/cy_i2s.h **** * Function Name: Cy_I2S_ClearInterrupt
 993:Generated_Source\PSoC6\pdl\drivers\peripheral\i2s/cy_i2s.h **** ****************************************************************************//**
 994:Generated_Source\PSoC6\pdl\drivers\peripheral\i2s/cy_i2s.h **** *
 995:Generated_Source\PSoC6\pdl\drivers\peripheral\i2s/cy_i2s.h **** * Clears one or more interrupt factors (sets the INTR register).
 996:Generated_Source\PSoC6\pdl\drivers\peripheral\i2s/cy_i2s.h **** *
 997:Generated_Source\PSoC6\pdl\drivers\peripheral\i2s/cy_i2s.h **** * \param base      The pointer to the I2S instance address.
 998:Generated_Source\PSoC6\pdl\drivers\peripheral\i2s/cy_i2s.h **** *
 999:Generated_Source\PSoC6\pdl\drivers\peripheral\i2s/cy_i2s.h **** * \param interrupt Interrupt bit mask \ref group_i2s_macros_interrupt_masks.
1000:Generated_Source\PSoC6\pdl\drivers\peripheral\i2s/cy_i2s.h **** *
1001:Generated_Source\PSoC6\pdl\drivers\peripheral\i2s/cy_i2s.h **** * \funcusage
1002:Generated_Source\PSoC6\pdl\drivers\peripheral\i2s/cy_i2s.h **** * \snippet i2s\2.10\snippet\main.c snippet_Cy_I2S_ClearInterrupt
1003:Generated_Source\PSoC6\pdl\drivers\peripheral\i2s/cy_i2s.h **** *
1004:Generated_Source\PSoC6\pdl\drivers\peripheral\i2s/cy_i2s.h **** *******************************************************************************/
1005:Generated_Source\PSoC6\pdl\drivers\peripheral\i2s/cy_i2s.h **** __STATIC_INLINE void Cy_I2S_ClearInterrupt(I2S_Type * base, uint32_t interrupt)
1006:Generated_Source\PSoC6\pdl\drivers\peripheral\i2s/cy_i2s.h **** {
1007:Generated_Source\PSoC6\pdl\drivers\peripheral\i2s/cy_i2s.h ****     CY_ASSERT_L2(CY_I2S_IS_INTR_MASK_VALID(interrupt));
1008:Generated_Source\PSoC6\pdl\drivers\peripheral\i2s/cy_i2s.h ****     REG_I2S_INTR(base) = interrupt;
1009:Generated_Source\PSoC6\pdl\drivers\peripheral\i2s/cy_i2s.h ****     (void) REG_I2S_INTR(base);
1010:Generated_Source\PSoC6\pdl\drivers\peripheral\i2s/cy_i2s.h **** }
1011:Generated_Source\PSoC6\pdl\drivers\peripheral\i2s/cy_i2s.h **** 
1012:Generated_Source\PSoC6\pdl\drivers\peripheral\i2s/cy_i2s.h **** 
1013:Generated_Source\PSoC6\pdl\drivers\peripheral\i2s/cy_i2s.h **** /*******************************************************************************
1014:Generated_Source\PSoC6\pdl\drivers\peripheral\i2s/cy_i2s.h **** * Function Name: Cy_I2S_SetInterrupt
1015:Generated_Source\PSoC6\pdl\drivers\peripheral\i2s/cy_i2s.h **** ****************************************************************************//**
1016:Generated_Source\PSoC6\pdl\drivers\peripheral\i2s/cy_i2s.h **** *
1017:Generated_Source\PSoC6\pdl\drivers\peripheral\i2s/cy_i2s.h **** * Sets one or more interrupt factors (sets the INTR_SET register).
1018:Generated_Source\PSoC6\pdl\drivers\peripheral\i2s/cy_i2s.h **** *
1019:Generated_Source\PSoC6\pdl\drivers\peripheral\i2s/cy_i2s.h **** * \param base      The pointer to the I2S instance address.
1020:Generated_Source\PSoC6\pdl\drivers\peripheral\i2s/cy_i2s.h **** *
1021:Generated_Source\PSoC6\pdl\drivers\peripheral\i2s/cy_i2s.h **** * \param interrupt Interrupt bit mask \ref group_i2s_macros_interrupt_masks.
1022:Generated_Source\PSoC6\pdl\drivers\peripheral\i2s/cy_i2s.h **** *
1023:Generated_Source\PSoC6\pdl\drivers\peripheral\i2s/cy_i2s.h **** * \funcusage
1024:Generated_Source\PSoC6\pdl\drivers\peripheral\i2s/cy_i2s.h **** * \snippet i2s\2.10\snippet\main.c snippet_Cy_I2S_SetInterrupt
1025:Generated_Source\PSoC6\pdl\drivers\peripheral\i2s/cy_i2s.h **** *
1026:Generated_Source\PSoC6\pdl\drivers\peripheral\i2s/cy_i2s.h **** *******************************************************************************/
ARM GAS  C:\Users\haske\AppData\Local\Temp\ccmgjESD.s 			page 38


1027:Generated_Source\PSoC6\pdl\drivers\peripheral\i2s/cy_i2s.h **** __STATIC_INLINE void Cy_I2S_SetInterrupt(I2S_Type * base, uint32_t interrupt)
1028:Generated_Source\PSoC6\pdl\drivers\peripheral\i2s/cy_i2s.h **** {
1029:Generated_Source\PSoC6\pdl\drivers\peripheral\i2s/cy_i2s.h ****     CY_ASSERT_L2(CY_I2S_IS_INTR_MASK_VALID(interrupt));
1030:Generated_Source\PSoC6\pdl\drivers\peripheral\i2s/cy_i2s.h ****     REG_I2S_INTR_SET(base)  = interrupt;
1031:Generated_Source\PSoC6\pdl\drivers\peripheral\i2s/cy_i2s.h **** }
1032:Generated_Source\PSoC6\pdl\drivers\peripheral\i2s/cy_i2s.h **** 
1033:Generated_Source\PSoC6\pdl\drivers\peripheral\i2s/cy_i2s.h **** 
1034:Generated_Source\PSoC6\pdl\drivers\peripheral\i2s/cy_i2s.h **** /*******************************************************************************
1035:Generated_Source\PSoC6\pdl\drivers\peripheral\i2s/cy_i2s.h **** * Function Name: Cy_I2S_GetInterruptMask
1036:Generated_Source\PSoC6\pdl\drivers\peripheral\i2s/cy_i2s.h **** ****************************************************************************//**
1037:Generated_Source\PSoC6\pdl\drivers\peripheral\i2s/cy_i2s.h **** *
1038:Generated_Source\PSoC6\pdl\drivers\peripheral\i2s/cy_i2s.h **** * Returns the interrupt mask (a content of the INTR_MASK register).
1039:Generated_Source\PSoC6\pdl\drivers\peripheral\i2s/cy_i2s.h **** *
1040:Generated_Source\PSoC6\pdl\drivers\peripheral\i2s/cy_i2s.h **** * \param base The pointer to the I2S instance address.
1041:Generated_Source\PSoC6\pdl\drivers\peripheral\i2s/cy_i2s.h **** *
1042:Generated_Source\PSoC6\pdl\drivers\peripheral\i2s/cy_i2s.h **** * \return The interrupt bit mask \ref group_i2s_macros_interrupt_masks.
1043:Generated_Source\PSoC6\pdl\drivers\peripheral\i2s/cy_i2s.h **** *
1044:Generated_Source\PSoC6\pdl\drivers\peripheral\i2s/cy_i2s.h **** * \funcusage
1045:Generated_Source\PSoC6\pdl\drivers\peripheral\i2s/cy_i2s.h **** * \snippet i2s\2.10\snippet\main.c snippet_Cy_I2S_GetInterruptMask
1046:Generated_Source\PSoC6\pdl\drivers\peripheral\i2s/cy_i2s.h **** *
1047:Generated_Source\PSoC6\pdl\drivers\peripheral\i2s/cy_i2s.h **** *******************************************************************************/
1048:Generated_Source\PSoC6\pdl\drivers\peripheral\i2s/cy_i2s.h **** __STATIC_INLINE uint32_t Cy_I2S_GetInterruptMask(I2S_Type const * base)
1049:Generated_Source\PSoC6\pdl\drivers\peripheral\i2s/cy_i2s.h **** {
1050:Generated_Source\PSoC6\pdl\drivers\peripheral\i2s/cy_i2s.h ****     return (REG_I2S_INTR_MASK(base));
 808              		.loc 2 1050 0
 809 0032 334B     		ldr	r3, .L80+4
 810 0034 E358     		ldr	r3, [r4, r3]
 811              	.LVL57:
 812              	.LBE33:
 813              	.LBE32:
 240:Generated_Source\PSoC6\pdl\drivers\peripheral\i2s/cy_i2s.c ****     {
 241:Generated_Source\PSoC6\pdl\drivers\peripheral\i2s/cy_i2s.c ****         case CY_SYSPM_CHECK_READY:
 242:Generated_Source\PSoC6\pdl\drivers\peripheral\i2s/cy_i2s.c ****         case CY_SYSPM_CHECK_FAIL:
 243:Generated_Source\PSoC6\pdl\drivers\peripheral\i2s/cy_i2s.c ****             break;
 244:Generated_Source\PSoC6\pdl\drivers\peripheral\i2s/cy_i2s.c ****         
 245:Generated_Source\PSoC6\pdl\drivers\peripheral\i2s/cy_i2s.c ****         case CY_SYSPM_BEFORE_TRANSITION:
 246:Generated_Source\PSoC6\pdl\drivers\peripheral\i2s/cy_i2s.c ****             *locInterruptMask = Cy_I2S_GetInterruptMask(locBase); /* Store I2S interrupts */
 814              		.loc 1 246 0
 815 0036 7360     		str	r3, [r6, #4]
 816              	.LVL58:
 817              	.LBB34:
 818              	.LBB35:
 674:Generated_Source\PSoC6\pdl\drivers\peripheral\i2s/cy_i2s.h **** }
 819              		.loc 2 674 0
 820 0038 226A     		ldr	r2, [r4, #32]
 821 003a 324B     		ldr	r3, .L80+8
 822 003c 1340     		ands	r3, r2
 823              	.LVL59:
 824              	.LBE35:
 825              	.LBE34:
 247:Generated_Source\PSoC6\pdl\drivers\peripheral\i2s/cy_i2s.c ****             *locState = Cy_I2S_GetCurrentState(locBase); /* Store I2S state */
 826              		.loc 1 247 0
 827 003e 3360     		str	r3, [r6]
 248:Generated_Source\PSoC6\pdl\drivers\peripheral\i2s/cy_i2s.c ****             if (0UL != (*locState & I2S_CMD_TX_START_Msk))
 828              		.loc 1 248 0
 829 0040 DB07     		lsls	r3, r3, #31
 830 0042 03D5     		bpl	.L71
ARM GAS  C:\Users\haske\AppData\Local\Temp\ccmgjESD.s 			page 39


 831              	.LVL60:
 832              	.LBB36:
 833              	.LBB37:
 611:Generated_Source\PSoC6\pdl\drivers\peripheral\i2s/cy_i2s.h **** }
 834              		.loc 2 611 0
 835 0044 236A     		ldr	r3, [r4, #32]
 836 0046 0122     		movs	r2, #1
 837 0048 9343     		bics	r3, r2
 838 004a 2362     		str	r3, [r4, #32]
 839              	.LVL61:
 840              	.L71:
 841              	.LBE37:
 842              	.LBE36:
 249:Generated_Source\PSoC6\pdl\drivers\peripheral\i2s/cy_i2s.c ****             {
 250:Generated_Source\PSoC6\pdl\drivers\peripheral\i2s/cy_i2s.c ****                 Cy_I2S_DisableTx(locBase); /* Stop TX operation */
 251:Generated_Source\PSoC6\pdl\drivers\peripheral\i2s/cy_i2s.c ****             }
 252:Generated_Source\PSoC6\pdl\drivers\peripheral\i2s/cy_i2s.c ****             if (0UL != (*locState & I2S_CMD_RX_START_Msk))
 843              		.loc 1 252 0
 844 004c 3368     		ldr	r3, [r6]
 845 004e DB03     		lsls	r3, r3, #15
 846 0050 03D5     		bpl	.L72
 847              	.LVL62:
 848              	.LBB38:
 849              	.LBB39:
 654:Generated_Source\PSoC6\pdl\drivers\peripheral\i2s/cy_i2s.h **** }
 850              		.loc 2 654 0
 851 0052 226A     		ldr	r2, [r4, #32]
 852 0054 2C4B     		ldr	r3, .L80+12
 853 0056 1340     		ands	r3, r2
 854 0058 2362     		str	r3, [r4, #32]
 855              	.LVL63:
 856              	.L72:
 857              	.LBE39:
 858              	.LBE38:
 859              	.LBB40:
 860              	.LBB41:
1051:Generated_Source\PSoC6\pdl\drivers\peripheral\i2s/cy_i2s.h **** }
1052:Generated_Source\PSoC6\pdl\drivers\peripheral\i2s/cy_i2s.h **** 
1053:Generated_Source\PSoC6\pdl\drivers\peripheral\i2s/cy_i2s.h **** 
1054:Generated_Source\PSoC6\pdl\drivers\peripheral\i2s/cy_i2s.h **** /*******************************************************************************
1055:Generated_Source\PSoC6\pdl\drivers\peripheral\i2s/cy_i2s.h **** * Function Name: Cy_I2S_SetInterruptMask
1056:Generated_Source\PSoC6\pdl\drivers\peripheral\i2s/cy_i2s.h **** ****************************************************************************//**
1057:Generated_Source\PSoC6\pdl\drivers\peripheral\i2s/cy_i2s.h **** *
1058:Generated_Source\PSoC6\pdl\drivers\peripheral\i2s/cy_i2s.h **** * Sets one or more interrupt factor masks (the INTR_MASK register).
1059:Generated_Source\PSoC6\pdl\drivers\peripheral\i2s/cy_i2s.h **** *
1060:Generated_Source\PSoC6\pdl\drivers\peripheral\i2s/cy_i2s.h **** * \param base      The pointer to the I2S instance address.
1061:Generated_Source\PSoC6\pdl\drivers\peripheral\i2s/cy_i2s.h **** *
1062:Generated_Source\PSoC6\pdl\drivers\peripheral\i2s/cy_i2s.h **** * \param interrupt Interrupt bit mask \ref group_i2s_macros_interrupt_masks.
1063:Generated_Source\PSoC6\pdl\drivers\peripheral\i2s/cy_i2s.h **** *
1064:Generated_Source\PSoC6\pdl\drivers\peripheral\i2s/cy_i2s.h **** * \funcusage
1065:Generated_Source\PSoC6\pdl\drivers\peripheral\i2s/cy_i2s.h **** * \snippet i2s\2.10\snippet\main.c snippet_Cy_I2S_SetInterruptMask
1066:Generated_Source\PSoC6\pdl\drivers\peripheral\i2s/cy_i2s.h **** *
1067:Generated_Source\PSoC6\pdl\drivers\peripheral\i2s/cy_i2s.h **** *******************************************************************************/
1068:Generated_Source\PSoC6\pdl\drivers\peripheral\i2s/cy_i2s.h **** __STATIC_INLINE void Cy_I2S_SetInterruptMask(I2S_Type * base, uint32_t interrupt)
1069:Generated_Source\PSoC6\pdl\drivers\peripheral\i2s/cy_i2s.h **** {
1070:Generated_Source\PSoC6\pdl\drivers\peripheral\i2s/cy_i2s.h ****     CY_ASSERT_L2(CY_I2S_IS_INTR_MASK_VALID(interrupt));
1071:Generated_Source\PSoC6\pdl\drivers\peripheral\i2s/cy_i2s.h ****     REG_I2S_INTR_MASK(base) = interrupt;
ARM GAS  C:\Users\haske\AppData\Local\Temp\ccmgjESD.s 			page 40


 861              		.loc 2 1071 0
 862 005a 0022     		movs	r2, #0
 863 005c 284B     		ldr	r3, .L80+4
 864 005e E250     		str	r2, [r4, r3]
 865              	.LBE41:
 866              	.LBE40:
 233:Generated_Source\PSoC6\pdl\drivers\peripheral\i2s/cy_i2s.c ****     CY_ASSERT_L1(NULL != callbackParams->context);
 867              		.loc 1 233 0
 868 0060 0020     		movs	r0, #0
 869 0062 4AE0     		b	.L66
 870              	.LVL64:
 871              	.L70:
 253:Generated_Source\PSoC6\pdl\drivers\peripheral\i2s/cy_i2s.c ****             {
 254:Generated_Source\PSoC6\pdl\drivers\peripheral\i2s/cy_i2s.c ****                 Cy_I2S_DisableRx(locBase); /* Stop RX operation */
 255:Generated_Source\PSoC6\pdl\drivers\peripheral\i2s/cy_i2s.c ****             }
 256:Generated_Source\PSoC6\pdl\drivers\peripheral\i2s/cy_i2s.c ****             Cy_I2S_SetInterruptMask(locBase, 0UL); /* Disable I2S interrupts */
 257:Generated_Source\PSoC6\pdl\drivers\peripheral\i2s/cy_i2s.c ****             /* Unload FIFOs to not lose data (if needed) */
 258:Generated_Source\PSoC6\pdl\drivers\peripheral\i2s/cy_i2s.c ****             break;
 259:Generated_Source\PSoC6\pdl\drivers\peripheral\i2s/cy_i2s.c ****             
 260:Generated_Source\PSoC6\pdl\drivers\peripheral\i2s/cy_i2s.c ****         case CY_SYSPM_AFTER_TRANSITION:
 261:Generated_Source\PSoC6\pdl\drivers\peripheral\i2s/cy_i2s.c ****             if (0UL != (*locState & I2S_CMD_RX_START_Msk))
 872              		.loc 1 261 0
 873 0064 3368     		ldr	r3, [r6]
 874 0066 DB03     		lsls	r3, r3, #15
 875 0068 0ED5     		bpl	.L73
 876              	.LVL65:
 877              	.LBB42:
 878              	.LBB43:
 828:Generated_Source\PSoC6\pdl\drivers\peripheral\i2s/cy_i2s.h ****     REG_I2S_RX_FIFO_CTL(base)  &= (uint32_t) ~I2S_RX_FIFO_CTL_CLEAR_Msk;
 879              		.loc 2 828 0
 880 006a C023     		movs	r3, #192
 881 006c 9B00     		lsls	r3, r3, #2
 882 006e E258     		ldr	r2, [r4, r3]
 883 0070 8021     		movs	r1, #128
 884 0072 4902     		lsls	r1, r1, #9
 885 0074 0A43     		orrs	r2, r1
 886 0076 E250     		str	r2, [r4, r3]
 829:Generated_Source\PSoC6\pdl\drivers\peripheral\i2s/cy_i2s.h ****     (void) REG_I2S_RX_FIFO_CTL(base) ;
 887              		.loc 2 829 0
 888 0078 E058     		ldr	r0, [r4, r3]
 889 007a 234A     		ldr	r2, .L80+12
 890 007c 0240     		ands	r2, r0
 891 007e E250     		str	r2, [r4, r3]
 830:Generated_Source\PSoC6\pdl\drivers\peripheral\i2s/cy_i2s.h **** }
 892              		.loc 2 830 0
 893 0080 E358     		ldr	r3, [r4, r3]
 894              	.LVL66:
 895              	.LBE43:
 896              	.LBE42:
 897              	.LBB44:
 898              	.LBB45:
 633:Generated_Source\PSoC6\pdl\drivers\peripheral\i2s/cy_i2s.h **** }
 899              		.loc 2 633 0
 900 0082 236A     		ldr	r3, [r4, #32]
 901 0084 0B43     		orrs	r3, r1
 902 0086 2362     		str	r3, [r4, #32]
 903              	.LVL67:
ARM GAS  C:\Users\haske\AppData\Local\Temp\ccmgjESD.s 			page 41


 904              	.L73:
 905              	.LBE45:
 906              	.LBE44:
 262:Generated_Source\PSoC6\pdl\drivers\peripheral\i2s/cy_i2s.c ****             {
 263:Generated_Source\PSoC6\pdl\drivers\peripheral\i2s/cy_i2s.c ****                 Cy_I2S_ClearRxFifo(locBase); /* Clear the RX FIFO */
 264:Generated_Source\PSoC6\pdl\drivers\peripheral\i2s/cy_i2s.c ****                 Cy_I2S_EnableRx(locBase); /* Start RX operation */
 265:Generated_Source\PSoC6\pdl\drivers\peripheral\i2s/cy_i2s.c ****             }
 266:Generated_Source\PSoC6\pdl\drivers\peripheral\i2s/cy_i2s.c ****             if (0UL != (*locState & I2S_CMD_TX_START_Msk))
 907              		.loc 1 266 0
 908 0088 3368     		ldr	r3, [r6]
 909 008a DB07     		lsls	r3, r3, #31
 910 008c 1CD5     		bpl	.L74
 911              	.LVL68:
 912              	.LBB46:
 913              	.LBB47:
 692:Generated_Source\PSoC6\pdl\drivers\peripheral\i2s/cy_i2s.h ****     REG_I2S_TX_FIFO_CTL(base) &= (uint32_t) ~I2S_TX_FIFO_CTL_CLEAR_Msk;
 914              		.loc 2 692 0
 915 008e 8023     		movs	r3, #128
 916 0090 9B00     		lsls	r3, r3, #2
 917 0092 E258     		ldr	r2, [r4, r3]
 918 0094 8021     		movs	r1, #128
 919 0096 4902     		lsls	r1, r1, #9
 920 0098 0A43     		orrs	r2, r1
 921 009a E250     		str	r2, [r4, r3]
 693:Generated_Source\PSoC6\pdl\drivers\peripheral\i2s/cy_i2s.h ****     (void) REG_I2S_TX_FIFO_CTL(base);
 922              		.loc 2 693 0
 923 009c E158     		ldr	r1, [r4, r3]
 924 009e 1A4A     		ldr	r2, .L80+12
 925 00a0 0A40     		ands	r2, r1
 926 00a2 E250     		str	r2, [r4, r3]
 694:Generated_Source\PSoC6\pdl\drivers\peripheral\i2s/cy_i2s.h **** }
 927              		.loc 2 694 0
 928 00a4 E358     		ldr	r3, [r4, r3]
 929              	.LVL69:
 930              	.LBE47:
 931              	.LBE46:
 932              	.LBB48:
 933              	.LBB49:
 734:Generated_Source\PSoC6\pdl\drivers\peripheral\i2s/cy_i2s.h **** }
 934              		.loc 2 734 0
 935 00a6 8223     		movs	r3, #130
 936 00a8 9B00     		lsls	r3, r3, #2
 937 00aa 0022     		movs	r2, #0
 938 00ac E250     		str	r2, [r4, r3]
 939              	.LVL70:
 940              	.LBE49:
 941              	.LBE48:
 942              	.LBB50:
 943              	.LBB51:
 944 00ae E250     		str	r2, [r4, r3]
 945              	.LVL71:
 946              	.LBE51:
 947              	.LBE50:
 267:Generated_Source\PSoC6\pdl\drivers\peripheral\i2s/cy_i2s.c ****             {
 268:Generated_Source\PSoC6\pdl\drivers\peripheral\i2s/cy_i2s.c ****                 Cy_I2S_ClearTxFifo(locBase); /* Clear the TX FIFO */
 269:Generated_Source\PSoC6\pdl\drivers\peripheral\i2s/cy_i2s.c ****                 Cy_I2S_WriteTxData(locBase, 0UL); /* Fill at least one TX frame */
 270:Generated_Source\PSoC6\pdl\drivers\peripheral\i2s/cy_i2s.c ****                 Cy_I2S_WriteTxData(locBase, 0UL);
ARM GAS  C:\Users\haske\AppData\Local\Temp\ccmgjESD.s 			page 42


 271:Generated_Source\PSoC6\pdl\drivers\peripheral\i2s/cy_i2s.c ****                 if (0UL != (*locState & I2S_CMD_TX_PAUSE_Msk))
 948              		.loc 1 271 0
 949 00b0 3368     		ldr	r3, [r6]
 950 00b2 DB05     		lsls	r3, r3, #23
 951 00b4 04D5     		bpl	.L75
 952              	.LVL72:
 953              	.LBB52:
 954              	.LBB53:
 572:Generated_Source\PSoC6\pdl\drivers\peripheral\i2s/cy_i2s.h **** }
 955              		.loc 2 572 0
 956 00b6 236A     		ldr	r3, [r4, #32]
 957 00b8 0132     		adds	r2, r2, #1
 958 00ba FF32     		adds	r2, r2, #255
 959 00bc 1343     		orrs	r3, r2
 960 00be 2362     		str	r3, [r4, #32]
 961              	.LVL73:
 962              	.L75:
 963              	.LBE53:
 964              	.LBE52:
 965              	.LBB54:
 966              	.LBB55:
 554:Generated_Source\PSoC6\pdl\drivers\peripheral\i2s/cy_i2s.h **** }
 967              		.loc 2 554 0
 968 00c0 226A     		ldr	r2, [r4, #32]
 969 00c2 0123     		movs	r3, #1
 970 00c4 1343     		orrs	r3, r2
 971 00c6 2362     		str	r3, [r4, #32]
 972              	.LVL74:
 973              	.L74:
 974              	.LBE55:
 975              	.LBE54:
 272:Generated_Source\PSoC6\pdl\drivers\peripheral\i2s/cy_i2s.c ****                 {
 273:Generated_Source\PSoC6\pdl\drivers\peripheral\i2s/cy_i2s.c ****                     Cy_I2S_PauseTx(locBase); /* Restore the TX paused state */
 274:Generated_Source\PSoC6\pdl\drivers\peripheral\i2s/cy_i2s.c ****                 }
 275:Generated_Source\PSoC6\pdl\drivers\peripheral\i2s/cy_i2s.c ****                 Cy_I2S_EnableTx(locBase); /* Start TX operation */
 276:Generated_Source\PSoC6\pdl\drivers\peripheral\i2s/cy_i2s.c ****             }
 277:Generated_Source\PSoC6\pdl\drivers\peripheral\i2s/cy_i2s.c ****             Cy_I2S_ClearInterrupt(locBase, *locInterruptMask); /* Clear possible pending I2S interr
 976              		.loc 1 277 0
 977 00c8 7568     		ldr	r5, [r6, #4]
 978              	.LVL75:
 979              	.LBB56:
 980              	.LBB57:
1007:Generated_Source\PSoC6\pdl\drivers\peripheral\i2s/cy_i2s.h ****     REG_I2S_INTR(base) = interrupt;
 981              		.loc 2 1007 0
 982 00ca 104B     		ldr	r3, .L80+16
 983 00cc 1D42     		tst	r5, r3
 984 00ce 03D0     		beq	.L76
 985 00d0 0F49     		ldr	r1, .L80+20
 986 00d2 1048     		ldr	r0, .L80+24
 987 00d4 FFF7FEFF 		bl	Cy_SysLib_AssertFailed
 988              	.LVL76:
 989              	.L76:
1008:Generated_Source\PSoC6\pdl\drivers\peripheral\i2s/cy_i2s.h ****     (void) REG_I2S_INTR(base);
 990              		.loc 2 1008 0
 991 00d8 F023     		movs	r3, #240
 992 00da 1B01     		lsls	r3, r3, #4
 993 00dc E550     		str	r5, [r4, r3]
ARM GAS  C:\Users\haske\AppData\Local\Temp\ccmgjESD.s 			page 43


1009:Generated_Source\PSoC6\pdl\drivers\peripheral\i2s/cy_i2s.h **** }
 994              		.loc 2 1009 0
 995 00de E358     		ldr	r3, [r4, r3]
 996              	.LVL77:
 997              	.LBE57:
 998              	.LBE56:
 278:Generated_Source\PSoC6\pdl\drivers\peripheral\i2s/cy_i2s.c ****             Cy_I2S_SetInterruptMask(locBase, *locInterruptMask); /* Restore I2S interrupts */
 999              		.loc 1 278 0
 1000 00e0 7568     		ldr	r5, [r6, #4]
 1001              	.LVL78:
 1002              	.LBB58:
 1003              	.LBB59:
1070:Generated_Source\PSoC6\pdl\drivers\peripheral\i2s/cy_i2s.h ****     REG_I2S_INTR_MASK(base) = interrupt;
 1004              		.loc 2 1070 0
 1005 00e2 0A4B     		ldr	r3, .L80+16
 1006 00e4 1D42     		tst	r5, r3
 1007 00e6 03D0     		beq	.L77
 1008 00e8 0B49     		ldr	r1, .L80+28
 1009 00ea 0A48     		ldr	r0, .L80+24
 1010 00ec FFF7FEFF 		bl	Cy_SysLib_AssertFailed
 1011              	.LVL79:
 1012              	.L77:
 1013              		.loc 2 1071 0
 1014 00f0 034B     		ldr	r3, .L80+4
 1015 00f2 E550     		str	r5, [r4, r3]
 1016              	.LBE59:
 1017              	.LBE58:
 233:Generated_Source\PSoC6\pdl\drivers\peripheral\i2s/cy_i2s.c ****     CY_ASSERT_L1(NULL != callbackParams->context);
 1018              		.loc 1 233 0
 1019 00f4 0020     		movs	r0, #0
 1020 00f6 00E0     		b	.L66
 1021              	.LVL80:
 1022              	.L78:
 279:Generated_Source\PSoC6\pdl\drivers\peripheral\i2s/cy_i2s.c ****             break;
 280:Generated_Source\PSoC6\pdl\drivers\peripheral\i2s/cy_i2s.c ****         
 281:Generated_Source\PSoC6\pdl\drivers\peripheral\i2s/cy_i2s.c ****         default:
 282:Generated_Source\PSoC6\pdl\drivers\peripheral\i2s/cy_i2s.c ****             ret = CY_SYSPM_FAIL;
 1023              		.loc 1 282 0
 1024 00f8 0848     		ldr	r0, .L80+32
 1025              	.L66:
 1026              	.LVL81:
 283:Generated_Source\PSoC6\pdl\drivers\peripheral\i2s/cy_i2s.c ****             break;
 284:Generated_Source\PSoC6\pdl\drivers\peripheral\i2s/cy_i2s.c ****     }
 285:Generated_Source\PSoC6\pdl\drivers\peripheral\i2s/cy_i2s.c ****         
 286:Generated_Source\PSoC6\pdl\drivers\peripheral\i2s/cy_i2s.c ****     return(ret);
 287:Generated_Source\PSoC6\pdl\drivers\peripheral\i2s/cy_i2s.c **** }
 1027              		.loc 1 287 0
 1028              		@ sp needed
 1029              	.LVL82:
 1030              	.LVL83:
 1031 00fa 70BD     		pop	{r4, r5, r6, pc}
 1032              	.L81:
 1033              		.align	2
 1034              	.L80:
 1035 00fc 00000000 		.word	.LC0
 1036 0100 080F0000 		.word	3848
 1037 0104 01010100 		.word	65793
ARM GAS  C:\Users\haske\AppData\Local\Temp\ccmgjESD.s 			page 44


 1038 0108 FFFFFEFF 		.word	-65537
 1039 010c 8CFE92FE 		.word	-23921012
 1040 0110 EF030000 		.word	1007
 1041 0114 3C000000 		.word	.LC3
 1042 0118 2E040000 		.word	1070
 1043 011c FF004200 		.word	4325631
 1044              		.cfi_endproc
 1045              	.LFE109:
 1046              		.size	Cy_I2S_DeepSleepCallback, .-Cy_I2S_DeepSleepCallback
 1047              		.section	.rodata.str1.4,"aMS",%progbits,1
 1048              		.align	2
 1049              	.LC0:
 1050 0000 47656E65 		.ascii	"Generated_Source\\PSoC6\\pdl\\drivers\\peripheral\\"
 1050      72617465 
 1050      645F536F 
 1050      75726365 
 1050      5C50536F 
 1051 002e 6932735C 		.ascii	"i2s\\cy_i2s.c\000"
 1051      63795F69 
 1051      32732E63 
 1051      00
 1052 003b 00       		.space	1
 1053              	.LC3:
 1054 003c 47656E65 		.ascii	"Generated_Source\\PSoC6\\pdl\\drivers\\peripheral\\"
 1054      72617465 
 1054      645F536F 
 1054      75726365 
 1054      5C50536F 
 1055 006a 6932735C 		.ascii	"i2s\\cy_i2s.h\000"
 1055      63795F69 
 1055      32732E68 
 1055      00
 1056              		.text
 1057              	.Letext0:
 1058              		.file 3 "c:\\program files (x86)\\cypress\\psoc creator\\4.4\\psoc creator\\import\\gnu\\arm\\5.4.
 1059              		.file 4 "c:\\program files (x86)\\cypress\\psoc creator\\4.4\\psoc creator\\import\\gnu\\arm\\5.4.
 1060              		.file 5 "Generated_Source\\PSoC6\\pdl\\devices/psoc6/include/ip/cyip_i2s.h"
 1061              		.file 6 "Generated_Source\\PSoC6\\pdl\\drivers/peripheral/device/cy_device.h"
 1062              		.file 7 "Generated_Source\\PSoC6\\pdl\\devices/psoc6/include/psoc6_01_config.h"
 1063              		.file 8 "Generated_Source\\PSoC6\\pdl\\drivers/peripheral/syslib/cy_syslib.h"
 1064              		.file 9 "Generated_Source\\PSoC6\\pdl\\drivers/peripheral/syspm/cy_syspm.h"